(dp0
S'V'
p1
(dp2
S'sigmean'
p3
(dp4
I0
F0.6936426394903045
sI1
Fnan
sI2
Fnan
sI3
Fnan
sI4
Fnan
sI5
Fnan
sI6
Fnan
sI7
Fnan
sI8
Fnan
sI9
Fnan
ssS'ref3flag'
p5
(dp6
I0
S'NoError'
p7
sI1
S'NoError'
p8
sI2
S'NoError'
p9
sI3
S'NoError'
p10
sI4
S'NoError'
p11
sI5
S'NoError'
p12
sI6
S'NoError'
p13
sI7
S'NoError'
p14
sI8
S'NoError'
p15
sI9
S'NoError'
p16
ssS'tabbyerr'
p17
(dp18
I0
F0.003
sI1
F0.003
sI2
F0.003
sI3
F0.003
sI4
F0.003
sI5
F0.003
sI6
F0.003
sI7
F0.003
sI8
F0.003
sI9
F0.003
ssS'ref2rel'
p19
(dp20
I0
F0.8810136773977509
sI1
F0.8862405418777288
sI2
F0.8857430713684842
sI3
F0.8965321210794787
sI4
F0.8931265811752542
sI5
F0.8889778254592272
sI6
F0.8823667544729493
sI7
F0.8882966751918159
sI8
F0.8814795524801639
sI9
F0.8891360536800637
ssS'ref2err'
p21
(dp22
I0
F0.005029234005091133
sI1
Fnan
sI2
Fnan
sI3
Fnan
sI4
Fnan
sI5
Fnan
sI6
Fnan
sI7
Fnan
sI8
Fnan
sI9
Fnan
ssS'ref2mean'
p23
(dp24
I0
F0.8872912854182917
sI1
Fnan
sI2
Fnan
sI3
Fnan
sI4
Fnan
sI5
Fnan
sI6
Fnan
sI7
Fnan
sI8
Fnan
sI9
Fnan
ssS'tabbymag'
p25
(dp26
I0
F11.653
sI1
F11.646
sI2
F11.647
sI3
F11.605
sI4
F11.637
sI5
F11.606
sI6
F11.651
sI7
F11.667
sI8
F11.619
sI9
F11.71
ssS'tabbybkg'
p27
(dp28
I0
F124.4736
sI1
F126.4104
sI2
F115.7407
sI3
F113.1883
sI4
F115.4215
sI5
F115.1794
sI6
F126.0309
sI7
F124.1545
sI8
F114.7435
sI9
F128.4243
ssS'JD'
p29
(dp30
I0
F2458592.8515625
sI1
F2458592.8509375
sI2
F2458592.8645717595
sI3
F2458592.8670601854
sI4
F2458592.865833333
sI5
F2458592.8652199074
sI6
F2458592.849525463
sI7
F2458592.8522106484
sI8
F2458592.866435185
sI9
F2458592.850173611
ssS'ref3rmsmean'
p31
(dp32
I0
F2.5210133000000003
sI1
Fnan
sI2
Fnan
sI3
Fnan
sI4
Fnan
sI5
Fnan
sI6
Fnan
sI7
Fnan
sI8
Fnan
sI9
Fnan
ssS'ref1rmsmean'
p33
(dp34
I0
F2.9910079
sI1
Fnan
sI2
Fnan
sI3
Fnan
sI4
Fnan
sI5
Fnan
sI6
Fnan
sI7
Fnan
sI8
Fnan
sI9
Fnan
ssS'relflux'
p35
(dp36
I0
F0.7023902143167863
sI1
F0.693211204940251
sI2
F0.6899815365704227
sI3
F0.6969347742340991
sI4
F0.6884227015690905
sI5
F0.6960207201587107
sI6
F0.6949738578810912
sI7
F0.6899391140186519
sI8
F0.6965558516533588
sI9
F0.6967439943870648
ssS'sigerr'
p37
(dp38
I0
F0.003178476779227516
sI1
Fnan
sI2
Fnan
sI3
Fnan
sI4
Fnan
sI5
Fnan
sI6
Fnan
sI7
Fnan
sI8
Fnan
sI9
Fnan
ssS'tabbyrmsmean'
p39
(dp40
I0
F2.6246115999999997
sI1
Fnan
sI2
Fnan
sI3
Fnan
sI4
Fnan
sI5
Fnan
sI6
Fnan
sI7
Fnan
sI8
Fnan
sI9
Fnan
ssS'tabbyflag'
p41
(dp42
I0
g7
sI1
g8
sI2
g9
sI3
g10
sI4
g11
sI5
g12
sI6
g13
sI7
g14
sI8
g15
sI9
g16
ssS'ref1err'
p43
(dp44
I0
F0.0029638637167924914
sI1
Fnan
sI2
Fnan
sI3
Fnan
sI4
Fnan
sI5
Fnan
sI6
Fnan
sI7
Fnan
sI8
Fnan
sI9
Fnan
ssS'ref2magmeanerr'
p45
(dp46
I0
F0.032826818304551086
sI1
Fnan
sI2
Fnan
sI3
Fnan
sI4
Fnan
sI5
Fnan
sI6
Fnan
sI7
Fnan
sI8
Fnan
sI9
Fnan
ssS'ref2rmsmean'
p47
(dp48
I0
F3.9159548
sI1
Fnan
sI2
Fnan
sI3
Fnan
sI4
Fnan
sI5
Fnan
sI6
Fnan
sI7
Fnan
sI8
Fnan
sI9
Fnan
ssS'ref3rel'
p49
(dp50
I0
F1.5067046813390783
sI1
F1.4945680195030586
sI2
F1.4975213160974261
sI3
F1.4949787272639663
sI4
F1.486420362921355
sI5
F1.4903850687548683
sI6
F1.5008950606641283
sI7
F1.4978579056784704
sI8
F1.5084878674969509
sI9
F1.4898785929910354
ssS'ref1flag'
p51
(dp52
I0
g7
sI1
g8
sI2
g9
sI3
g10
sI4
g11
sI5
g12
sI6
g13
sI7
g14
sI8
g15
sI9
g16
ssS'ref2bkg'
p53
(dp54
I0
F125.7964
sI1
F126.8435
sI2
F116.5339
sI3
F114.0341
sI4
F115.5986
sI5
F117.7055
sI6
F127.7782
sI7
F125.3899
sI8
F115.7408
sI9
F128.2557
ssS'ref3magmean'
p55
(dp56
I0
F10.9769
sI1
Fnan
sI2
Fnan
sI3
Fnan
sI4
Fnan
sI5
Fnan
sI6
Fnan
sI7
Fnan
sI8
Fnan
sI9
Fnan
ssS'ref1mean'
p57
(dp58
I0
F0.7198007887534594
sI1
Fnan
sI2
Fnan
sI3
Fnan
sI4
Fnan
sI5
Fnan
sI6
Fnan
sI7
Fnan
sI8
Fnan
sI9
Fnan
ssS'ref1rms'
p59
(dp60
I0
F4.798701
sI1
F5.637246
sI2
F3.010407
sI3
F4.533784
sI4
F6.160953
sI5
F-5.507104
sI6
F4.176847
sI7
F6.597848
sI8
F5.777045
sI9
F-5.275648
ssS'ref2magmean'
p61
(dp62
I0
F11.3364
sI1
Fnan
sI2
Fnan
sI3
Fnan
sI4
Fnan
sI5
Fnan
sI6
Fnan
sI7
Fnan
sI8
Fnan
sI9
Fnan
ssS'ref2flag'
p63
(dp64
I0
g7
sI1
g8
sI2
g9
sI3
g10
sI4
g11
sI5
g12
sI6
g13
sI7
g14
sI8
g15
sI9
g16
ssS'ref2'
p65
(dp66
I0
F7156.27
sI1
F7329.216666666666
sI2
F7351.17
sI3
F7632.8966666666665
sI4
F7480.73
sI5
F7592.983333333334
sI6
F7252.04
sI7
F7235.916666666667
sI8
F7452.423333333334
sI9
F6890.906666666667
ssS'airmass'
p67
(dp68
I0
F1.925672
sI1
F1.9337950000000002
sI2
F1.7737450000000001
sI3
F1.747686
sI4
F1.7604389999999999
sI5
F1.766843
sI6
F1.952123
sI7
F1.91755
sI8
F1.753997
sI9
F1.943545
ssS'ref1'
p69
(dp70
I0
F6190.623333333334
sI1
F6331.546666666666
sI2
F6344.27
sI3
F6479.0633333333335
sI4
F6420.3533333333335
sI5
F6546.136666666667
sI6
F6281.493333333333
sI7
F6216.65
sI8
F6434.653333333334
sI9
F5941.136666666667
ssS'ref3'
p71
(dp72
I0
F10054.913333333334
sI1
F10208.47
sI2
F10254.606666666667
sI3
F10548.54
sI4
F10331.426666666666
sI5
F10536.366666666667
sI6
F10156.206666666667
sI7
F10075.016666666666
sI8
F10474.243333333334
sI9
F9559.093333333332
ssS'ref1bkg'
p73
(dp74
I0
F124.481
sI1
F124.635
sI2
F115.5084
sI3
F113.719
sI4
F114.148
sI5
F115.0731
sI6
F125.9087
sI7
F124.0495
sI8
F112.6721
sI9
F127.2324
ssS'ref1mag'
p75
(dp76
I0
F11.521
sI1
F11.496
sI2
F11.494
sI3
F11.471
sI4
F11.481
sI5
F11.46
sI6
F11.505
sI7
F11.516
sI8
F11.479
sI9
F11.565
ssS'ref3magerr'
p77
(dp78
I0
F0.002
sI1
F0.002
sI2
F0.002
sI3
F0.002
sI4
F0.002
sI5
F0.002
sI6
F0.002
sI7
F0.002
sI8
F0.002
sI9
F0.002
ssS'tabbymagmean'
p79
(dp80
I0
F11.6441
sI1
Fnan
sI2
Fnan
sI3
Fnan
sI4
Fnan
sI5
Fnan
sI6
Fnan
sI7
Fnan
sI8
Fnan
sI9
Fnan
ssS'ref1magmean'
p81
(dp82
I0
F11.4988
sI1
Fnan
sI2
Fnan
sI3
Fnan
sI4
Fnan
sI5
Fnan
sI6
Fnan
sI7
Fnan
sI8
Fnan
sI9
Fnan
ssS'ref2mag'
p83
(dp84
I0
F11.363
sI1
F11.337
sI2
F11.334
sI3
F11.293
sI4
F11.315
sI5
F11.299
sI6
F11.349
sI7
F11.351
sI8
F11.319
sI9
F11.404
ssS'ref3rms'
p85
(dp86
I0
F6.063887
sI1
F5.010672
sI2
F3.879964
sI3
F5.484336
sI4
F2.822681
sI5
F2.749784
sI6
F3.647246
sI7
F-5.894834
sI8
F6.423869
sI9
F-4.977472
ssS'ref3magmeanerr'
p87
(dp88
I0
F0.03163138385282004
sI1
Fnan
sI2
Fnan
sI3
Fnan
sI4
Fnan
sI5
Fnan
sI6
Fnan
sI7
Fnan
sI8
Fnan
sI9
Fnan
ssS'ref1rel'
p89
(dp90
I0
F0.7193721911431618
sI1
F0.7220503806469345
sI2
F0.720703223733574
sI3
F0.7127119217384911
sI4
F0.7208956729364796
sI5
F0.7221590036781979
sI6
F0.7216686957177767
sI7
F0.7182339484872757
sI8
F0.7178862030494607
sI9
F0.7223266464032422
ssS'exposure'
p91
(dp92
I0
F30.0
sI1
F30.0
sI2
F30.0
sI3
F30.0
sI4
F30.0
sI5
F30.0
sI6
F30.0
sI7
F30.0
sI8
F30.0
sI9
F30.0
ssS'ref1magerr'
p93
(dp94
I0
F0.003
sI1
F0.003
sI2
F0.003
sI3
F0.003
sI4
F0.003
sI5
F0.003
sI6
F0.003
sI7
F0.003
sI8
F0.003
sI9
F0.003
ssS'ref2magerr'
p95
(dp96
I0
F0.002
sI1
F0.002
sI2
F0.002
sI3
F0.002
sI4
F0.002
sI5
F0.002
sI6
F0.002
sI7
F0.002
sI8
F0.002
sI9
F0.003
ssS'ref2rms'
p97
(dp98
I0
F5.694686
sI1
F3.436715
sI2
F3.443745
sI3
F5.370512
sI4
F3.765581
sI5
F-4.968524
sI6
F3.398228
sI7
F5.542271
sI8
F6.945284
sI9
F6.53105
ssS'name'
p99
(dp100
I0
S'KIC8462852-20190419at082615_0-1X1-030-V.fts.mag.1'
p101
sI1
S'KIC8462852-20190419at082521_0-1X1-030-V.fts.mag.1'
p102
sI2
S'KIC8462852-20190419at084453_0-1X1-030-V.fts.mag.1'
p103
sI3
S'KIC8462852-20190419at084833_0-1X1-030-V.fts.mag.1'
p104
sI4
S'KIC8462852-20190419at084648_0-1X1-030-V.fts.mag.1'
p105
sI5
S'KIC8462852-20190419at084555_0-1X1-030-V.fts.mag.1'
p106
sI6
S'KIC8462852-20190419at082313_0-1X1-030-V.fts.mag.1'
p107
sI7
S'KIC8462852-20190419at082711_0-1X1-030-V.fts.mag.1'
p108
sI8
S'KIC8462852-20190419at084740_0-1X1-030-V.fts.mag.1'
p109
sI9
S'KIC8462852-20190419at082415_0-1X1-030-V.fts.mag.1'
p110
ssS'ref3err'
p111
(dp112
I0
F0.007135215116965537
sI1
Fnan
sI2
Fnan
sI3
Fnan
sI4
Fnan
sI5
Fnan
sI6
Fnan
sI7
Fnan
sI8
Fnan
sI9
Fnan
ssS'tabby'
p113
(dp114
I0
F5479.066666666667
sI1
F5515.473333333333
sI2
F5508.363333333333
sI3
F5728.92
sI4
F5560.736666666667
sI5
F5724.883333333333
sI6
F5487.916666666667
sI7
F5410.866666666667
sI8
F5656.34
sI9
F5200.296666666666
ssS'ref1magmeanerr'
p115
(dp116
I0
F0.030235372955823972
sI1
Fnan
sI2
Fnan
sI3
Fnan
sI4
Fnan
sI5
Fnan
sI6
Fnan
sI7
Fnan
sI8
Fnan
sI9
Fnan
ssS'filter'
p117
(dp118
I0
g1
sI1
g1
sI2
g1
sI3
g1
sI4
g1
sI5
g1
sI6
g1
sI7
g1
sI8
g1
sI9
g1
ssS'tabbymagerr'
p119
(dp120
I0
F0.03103206227257382
sI1
Fnan
sI2
Fnan
sI3
Fnan
sI4
Fnan
sI5
Fnan
sI6
Fnan
sI7
Fnan
sI8
Fnan
sI9
Fnan
ssS'tabbyrms'
p121
(dp122
I0
F5.488397
sI1
F5.341767
sI2
F2.664288
sI3
F5.664637
sI4
F2.836982
sI5
F-3.420685
sI6
F4.162551
sI7
F5.45294
sI8
F4.066925
sI9
F-6.011686
ssS'ref3mean'
p123
(dp124
I0
F1.4967697602710337
sI1
Fnan
sI2
Fnan
sI3
Fnan
sI4
Fnan
sI5
Fnan
sI6
Fnan
sI7
Fnan
sI8
Fnan
sI9
Fnan
ssS'median_JD'
p125
(dp126
I0
F2458592.858391204
sI1
Fnan
sI2
Fnan
sI3
Fnan
sI4
Fnan
sI5
Fnan
sI6
Fnan
sI7
Fnan
sI8
Fnan
sI9
Fnan
ssS'error'
p127
(dp128
I0
F0.0042136351492005385
sI1
Fnan
sI2
Fnan
sI3
Fnan
sI4
Fnan
sI5
Fnan
sI6
Fnan
sI7
Fnan
sI8
Fnan
sI9
Fnan
ssS'ref3bkg'
p129
(dp130
I0
F126.7104
sI1
F127.6589
sI2
F118.0432
sI3
F115.8226
sI4
F117.4946
sI5
F117.7325
sI6
F128.7942
sI7
F127.8244
sI8
F116.5425
sI9
F131.2264
ssS'ref3mag'
p131
(dp132
I0
F10.994
sI1
F10.978
sI2
F10.973
sI3
F10.942
sI4
F10.965
sI5
F10.943
sI6
F10.983
sI7
F10.992
sI8
F10.95
sI9
F11.049
ssS'mean'
p133
(dp134
I0
F0.6945173969729527
sI1
Fnan
sI2
Fnan
sI3
Fnan
sI4
Fnan
sI5
Fnan
sI6
Fnan
sI7
Fnan
sI8
Fnan
sI9
Fnan
sss.