(dp0
S'i'
p1
(dp2
S'sigmean'
p3
(dp4
I0
F0.44123125682301506
sI1
Fnan
sI2
Fnan
sI3
Fnan
sI4
Fnan
sI5
Fnan
sI6
Fnan
sI7
Fnan
sI8
Fnan
sI9
Fnan
sI10
Fnan
sI11
Fnan
sI12
Fnan
sI13
Fnan
sI14
Fnan
ssS'ref3flag'
p5
(dp6
I0
S'NoError'
p7
sI1
S'NoError'
p8
sI2
S'NoError'
p9
sI3
S'NoError'
p10
sI4
S'NoError'
p11
sI5
S'NoError'
p12
sI6
S'NoError'
p13
sI7
S'NoError'
p14
sI8
S'NoError'
p15
sI9
S'NoError'
p16
sI10
S'NoError'
p17
sI11
S'NoError'
p18
sI12
S'NoError'
p19
sI13
S'NoError'
p20
sI14
S'NoError'
p21
ssS'tabbyerr'
p22
(dp23
I0
F0.003
sI1
F0.003
sI2
F0.003
sI3
F0.003
sI4
F0.003
sI5
F0.003
sI6
F0.003
sI7
F0.003
sI8
F0.003
sI9
F0.003
sI10
F0.003
sI11
F0.003
sI12
F0.003
sI13
F0.003
sI14
F0.003
ssS'ref2rel'
p24
(dp25
I0
F0.9114955009777923
sI1
F0.9134837257999193
sI2
F0.9141175022590402
sI3
F0.9085717158954899
sI4
F0.9117556394911852
sI5
F0.9101307334030508
sI6
F0.9128580651577168
sI7
F0.9156212304924316
sI8
F0.9092100324809216
sI9
F0.9156849062088673
sI10
F0.9136127292051675
sI11
F0.910637367720042
sI12
F0.9094717940580707
sI13
F0.911505210664168
sI14
F0.9120732813903231
ssS'ref2err'
p26
(dp27
I0
F0.0022128679242996376
sI1
Fnan
sI2
Fnan
sI3
Fnan
sI4
Fnan
sI5
Fnan
sI6
Fnan
sI7
Fnan
sI8
Fnan
sI9
Fnan
sI10
Fnan
sI11
Fnan
sI12
Fnan
sI13
Fnan
sI14
Fnan
ssS'ref2mean'
p28
(dp29
I0
F0.9120152956802792
sI1
Fnan
sI2
Fnan
sI3
Fnan
sI4
Fnan
sI5
Fnan
sI6
Fnan
sI7
Fnan
sI8
Fnan
sI9
Fnan
sI10
Fnan
sI11
Fnan
sI12
Fnan
sI13
Fnan
sI14
Fnan
ssS'tabbymag'
p30
(dp31
I0
F11.847
sI1
F11.866
sI2
F11.834
sI3
F11.855
sI4
F11.87
sI5
F11.851
sI6
F11.86
sI7
F11.847
sI8
F11.838
sI9
F11.833
sI10
F11.838
sI11
F11.839
sI12
F11.838
sI13
F11.868
sI14
F11.851
ssS'tabbybkg'
p32
(dp33
I0
F15.17433
sI1
F15.40877
sI2
F29.01311
sI3
F14.26719
sI4
F15.46381
sI5
F14.27934
sI6
F15.48445
sI7
F29.43514
sI8
F26.85024
sI9
F27.58681
sI10
F14.45732
sI11
F14.55664
sI12
F28.97867
sI13
F15.7112
sI14
F14.198
ssS'JD'
p34
(dp35
I0
F2458410.607962963
sI1
F2458410.5888310187
sI2
F2458410.627824074
sI3
F2458410.589571759
sI4
F2458410.587337963
sI5
F2458410.6064583333
sI6
F2458410.5903125
sI7
F2458410.628576389
sI8
F2458410.625578704
sI9
F2458410.6263310187
sI10
F2458410.6094560185
sI11
F2458410.6087152776
sI12
F2458410.627083333
sI13
F2458410.5880902777
sI14
F2458410.6072106482
ssS'ref3rmsmean'
p36
(dp37
I0
F0.3084526000000001
sI1
Fnan
sI2
Fnan
sI3
Fnan
sI4
Fnan
sI5
Fnan
sI6
Fnan
sI7
Fnan
sI8
Fnan
sI9
Fnan
sI10
Fnan
sI11
Fnan
sI12
Fnan
sI13
Fnan
sI14
Fnan
ssS'ref1rmsmean'
p38
(dp39
I0
F1.9048494
sI1
Fnan
sI2
Fnan
sI3
Fnan
sI4
Fnan
sI5
Fnan
sI6
Fnan
sI7
Fnan
sI8
Fnan
sI9
Fnan
sI10
Fnan
sI11
Fnan
sI12
Fnan
sI13
Fnan
sI14
Fnan
ssS'relflux'
p40
(dp41
I0
F0.4390619231641474
sI1
F0.441192168582207
sI2
F0.44303846229762667
sI3
F0.44105451774766746
sI4
F0.43982291545157115
sI5
F0.4381089622244713
sI6
F0.44159289723884476
sI7
F0.442515052381095
sI8
F0.4416458500169146
sI9
F0.4422098496504029
sI10
F0.44012006067550674
sI11
F0.44134692875595893
sI12
F0.4431742032711825
sI13
F0.44146667864170347
sI14
F0.43899608764738085
ssS'sigerr'
p42
(dp43
I0
F0.001280937683204093
sI1
Fnan
sI2
Fnan
sI3
Fnan
sI4
Fnan
sI5
Fnan
sI6
Fnan
sI7
Fnan
sI8
Fnan
sI9
Fnan
sI10
Fnan
sI11
Fnan
sI12
Fnan
sI13
Fnan
sI14
Fnan
ssS'tabbyrmsmean'
p44
(dp45
I0
F2.0578930333333334
sI1
Fnan
sI2
Fnan
sI3
Fnan
sI4
Fnan
sI5
Fnan
sI6
Fnan
sI7
Fnan
sI8
Fnan
sI9
Fnan
sI10
Fnan
sI11
Fnan
sI12
Fnan
sI13
Fnan
sI14
Fnan
ssS'tabbyflag'
p46
(dp47
I0
g7
sI1
g8
sI2
g9
sI3
g10
sI4
g11
sI5
g12
sI6
g13
sI7
g14
sI8
g15
sI9
g16
sI10
g17
sI11
g18
sI12
g19
sI13
g20
sI14
g21
ssS'ref1err'
p48
(dp49
I0
F0.0012375529739357463
sI1
Fnan
sI2
Fnan
sI3
Fnan
sI4
Fnan
sI5
Fnan
sI6
Fnan
sI7
Fnan
sI8
Fnan
sI9
Fnan
sI10
Fnan
sI11
Fnan
sI12
Fnan
sI13
Fnan
sI14
Fnan
ssS'ref2magmeanerr'
p50
(dp51
I0
F0.012269978848897023
sI1
Fnan
sI2
Fnan
sI3
Fnan
sI4
Fnan
sI5
Fnan
sI6
Fnan
sI7
Fnan
sI8
Fnan
sI9
Fnan
sI10
Fnan
sI11
Fnan
sI12
Fnan
sI13
Fnan
sI14
Fnan
ssS'ref2rmsmean'
p52
(dp53
I0
F0.9694187333333332
sI1
Fnan
sI2
Fnan
sI3
Fnan
sI4
Fnan
sI5
Fnan
sI6
Fnan
sI7
Fnan
sI8
Fnan
sI9
Fnan
sI10
Fnan
sI11
Fnan
sI12
Fnan
sI13
Fnan
sI14
Fnan
ssS'ref3rel'
p54
(dp55
I0
F1.4970355712838017
sI1
F1.497444375370937
sI2
F1.4909155974548967
sI3
F1.498712412710777
sI4
F1.4980958620265301
sI5
F1.4985222613811613
sI6
F1.4974725927464645
sI7
F1.49372660106372
sI8
F1.4977396210585425
sI9
F1.489695466448225
sI10
F1.4920203326304888
sI11
F1.496974494374677
sI12
F1.5006881692683849
sI13
F1.4954651681081532
sI14
F1.4986227130786478
ssS'ref1flag'
p56
(dp57
I0
g7
sI1
g8
sI2
g9
sI3
g10
sI4
g11
sI5
g12
sI6
g13
sI7
g14
sI8
g15
sI9
g16
sI10
g17
sI11
g18
sI12
g19
sI13
g20
sI14
g21
ssS'ref2bkg'
p58
(dp59
I0
F16.30548
sI1
F17.17972
sI2
F30.32792
sI3
F17.48791
sI4
F17.95613
sI5
F16.29226
sI6
F17.47159
sI7
F32.49278
sI8
F29.16948
sI9
F30.03183
sI10
F17.29361
sI11
F16.52553
sI12
F31.06112
sI13
F17.63544
sI14
F16.28549
ssS'ref3magmean'
p60
(dp61
I0
F10.688933333333333
sI1
Fnan
sI2
Fnan
sI3
Fnan
sI4
Fnan
sI5
Fnan
sI6
Fnan
sI7
Fnan
sI8
Fnan
sI9
Fnan
sI10
Fnan
sI11
Fnan
sI12
Fnan
sI13
Fnan
sI14
Fnan
ssS'ref1mean'
p62
(dp63
I0
F0.6985409769850549
sI1
Fnan
sI2
Fnan
sI3
Fnan
sI4
Fnan
sI5
Fnan
sI6
Fnan
sI7
Fnan
sI8
Fnan
sI9
Fnan
sI10
Fnan
sI11
Fnan
sI12
Fnan
sI13
Fnan
sI14
Fnan
ssS'ref1rms'
p64
(dp65
I0
F-3.071007
sI1
F2.500118
sI2
F2.14828
sI3
F2.542976
sI4
F3.046722
sI5
F-3.02297
sI6
F-3.246177
sI7
F2.438937
sI8
F3.930712
sI9
F5.107444
sI10
F2.432223
sI11
F2.820764
sI12
F3.663597
sI13
F3.037494
sI14
F4.243628
ssS'ref2magmean'
p66
(dp67
I0
F11.027866666666666
sI1
Fnan
sI2
Fnan
sI3
Fnan
sI4
Fnan
sI5
Fnan
sI6
Fnan
sI7
Fnan
sI8
Fnan
sI9
Fnan
sI10
Fnan
sI11
Fnan
sI12
Fnan
sI13
Fnan
sI14
Fnan
ssS'ref2flag'
p68
(dp69
I0
g7
sI1
g8
sI2
g9
sI3
g10
sI4
g11
sI5
g12
sI6
g13
sI7
g14
sI8
g15
sI9
g16
sI10
g17
sI11
g18
sI12
g19
sI13
g20
sI14
g21
ssS'ref2'
p70
(dp71
I0
F9805.94
sI1
F9604.68
sI2
F9853.193333333333
sI3
F9667.25
sI4
F9583.19
sI5
F9777.866666666667
sI6
F9638.396666666667
sI7
F9754.036666666665
sI8
F9811.24
sI9
F9896.043333333333
sI10
F9882.466666666667
sI11
F9817.97
sI12
F9781.963333333335
sI13
F9562.733333333334
sI14
F9773.403333333332
ssS'airmass'
p72
(dp73
I0
F1.014333
sI1
F1.0058280000000002
sI2
F1.032135
sI3
F1.006006
sI4
F1.005511
sI5
F1.01337
sI6
F1.006198
sI7
F1.032997
sI8
F1.029651
sI9
F1.030471
sI10
F1.015349
sI11
F1.01484
sI12
F1.031298
sI13
F1.005664
sI14
F1.013844
ssS'ref1'
p74
(dp75
I0
F8107.573333333334
sI1
F7912.89
sI2
F8142.67
sI3
F8023.46
sI4
F7914.666666666667
sI5
F8095.163333333333
sI6
F7948.796666666666
sI7
F8026.33
sI8
F8139.29
sI9
F8163.16
sI10
F8167.993333333333
sI11
F8129.443333333333
sI12
F8096.39
sI13
F7914.21
sI14
F8064.806666666667
ssS'ref3'
p76
(dp77
I0
F13408.583333333334
sI1
F13115.793333333333
sI2
F13415.156666666668
sI3
F13256.643333333333
sI4
F13106.733333333334
sI5
F13391.566666666668
sI6
F13168.17
sI7
F13279.503333333332
sI8
F13442.609999999999
sI9
F13451.356666666667
sI10
F13465.826666666666
sI11
F13433.41
sI12
F13414.916666666666
sI13
F13068.08
sI14
F13366.373333333333
ssS'ref1bkg'
p78
(dp79
I0
F16.30505
sI1
F16.97391
sI2
F29.40668
sI3
F16.66062
sI4
F16.58731
sI5
F16.15067
sI6
F16.24077
sI7
F30.80053
sI8
F27.09001
sI9
F26.49005
sI10
F15.84437
sI11
F15.83812
sI12
F29.82443
sI13
F16.70831
sI14
F14.65973
ssS'ref1mag'
p80
(dp81
I0
F11.228
sI1
F11.254
sI2
F11.223
sI3
F11.239
sI4
F11.254
sI5
F11.229
sI6
F11.249
sI7
F11.239
sI8
F11.224
sI9
F11.22
sI10
F11.22
sI11
F11.225
sI12
F11.229
sI13
F11.254
sI14
F11.234
ssS'ref3magerr'
p82
(dp83
I0
F0.002
sI1
F0.002
sI2
F0.002
sI3
F0.002
sI4
F0.002
sI5
F0.002
sI6
F0.002
sI7
F0.002
sI8
F0.002
sI9
F0.002
sI10
F0.002
sI11
F0.002
sI12
F0.002
sI13
F0.002
sI14
F0.002
ssS'tabbymagmean'
p84
(dp85
I0
F0.4410231038497788
sI1
Fnan
sI2
Fnan
sI3
Fnan
sI4
Fnan
sI5
Fnan
sI6
Fnan
sI7
Fnan
sI8
Fnan
sI9
Fnan
sI10
Fnan
sI11
Fnan
sI12
Fnan
sI13
Fnan
sI14
Fnan
ssS'ref1magmean'
p86
(dp87
I0
F11.234733333333335
sI1
Fnan
sI2
Fnan
sI3
Fnan
sI4
Fnan
sI5
Fnan
sI6
Fnan
sI7
Fnan
sI8
Fnan
sI9
Fnan
sI10
Fnan
sI11
Fnan
sI12
Fnan
sI13
Fnan
sI14
Fnan
ssS'ref2mag'
p88
(dp89
I0
F11.021
sI1
F11.044
sI2
F11.016
sI3
F11.037
sI4
F11.046
sI5
F11.024
sI6
F11.04
sI7
F11.027
sI8
F11.021
sI9
F11.011
sI10
F11.013
sI11
F11.02
sI12
F11.024
sI13
F11.049
sI14
F11.025
ssS'ref3rms'
p90
(dp91
I0
F3.844641
sI1
F1.954423
sI2
F-2.652854
sI3
F2.036442
sI4
F-3.269511
sI5
F-2.412997
sI6
F-4.300231
sI7
F1.785885
sI8
F5.388821
sI9
F-4.57854
sI10
F-1.716779
sI11
F3.31792
sI12
F-3.524419
sI13
F4.644077
sI14
F4.109911
ssS'ref3magmeanerr'
p92
(dp93
I0
F0.011435949999057851
sI1
Fnan
sI2
Fnan
sI3
Fnan
sI4
Fnan
sI5
Fnan
sI6
Fnan
sI7
Fnan
sI8
Fnan
sI9
Fnan
sI10
Fnan
sI11
Fnan
sI12
Fnan
sI13
Fnan
sI14
Fnan
ssS'ref1rel'
p94
(dp95
I0
F0.6984914759539179
sI1
F0.6965427070034632
sI2
F0.6998923430324884
sI3
F0.7000084918675827
sI4
F0.6976371449470155
sI5
F0.6987795702096008
sI6
F0.6970621034585068
sI7
F0.6969254400322313
sI8
F0.7000380582140162
sI9
F0.6992778639163246
sI10
F0.699665128985873
sI11
F0.6992654486171
sI12
F0.6980585320094771
sI13
F0.6994189632895799
sI14
F0.6970513832386456
ssS'exposure'
p96
(dp97
I0
F30.0
sI1
F30.0
sI2
F30.0
sI3
F30.0
sI4
F30.0
sI5
F30.0
sI6
F30.0
sI7
F30.0
sI8
F30.0
sI9
F30.0
sI10
F30.0
sI11
F30.0
sI12
F30.0
sI13
F30.0
sI14
F30.0
ssS'ref1magerr'
p98
(dp99
I0
F0.002
sI1
F0.002
sI2
F0.002
sI3
F0.002
sI4
F0.002
sI5
F0.002
sI6
F0.002
sI7
F0.002
sI8
F0.002
sI9
F0.002
sI10
F0.002
sI11
F0.002
sI12
F0.002
sI13
F0.002
sI14
F0.002
ssS'ref2magerr'
p100
(dp101
I0
F0.002
sI1
F0.002
sI2
F0.002
sI3
F0.002
sI4
F0.002
sI5
F0.002
sI6
F0.002
sI7
F0.002
sI8
F0.002
sI9
F0.002
sI10
F0.002
sI11
F0.002
sI12
F0.002
sI13
F0.002
sI14
F0.002
ssS'ref2rms'
p102
(dp103
I0
F2.782953
sI1
F2.623538
sI2
F3.464978
sI3
F3.891117
sI4
F-3.287705
sI5
F3.01832
sI6
F-3.039973
sI7
F3.610694
sI8
F1.710556
sI9
F-2.342233
sI10
F-4.099985
sI11
F3.389916
sI12
F-3.565955
sI13
F3.020946
sI14
F3.364114
ssS'name'
p104
(dp105
I0
S"KIC8462852-20181019at023527_-25-1X1-030-i'_cal.fts.mag.1"
p106
sI1
S"KIC8462852-20181019at020755_-25-1X1-030-i'_cal.fts.mag.1"
p107
sI2
S"KIC8462852-20181019at030404_-25-1X1-030-i'_cal.fts.mag.1"
p108
sI3
S"KIC8462852-20181019at020859_-25-1X1-030-i'_cal.fts.mag.1"
p109
sI4
S"KIC8462852-20181019at020544_-25-1X1-030-i'_cal.fts.mag.1"
p110
sI5
S"KIC8462852-20181019at023315_-25-1X1-030-i'_cal.fts.mag.1"
p111
sI6
S"KIC8462852-20181019at021003_-25-1X1-030-i'_cal.fts.mag.1"
p112
sI7
S"KIC8462852-20181019at030509_-25-1X1-030-i'_cal.fts.mag.1"
p113
sI8
S"KIC8462852-20181019at030048_-25-1X1-030-i'_cal.fts.mag.1"
p114
sI9
S"KIC8462852-20181019at030155_-25-1X1-030-i'_cal.fts.mag.1"
p115
sI10
S"KIC8462852-20181019at023737_-25-1X1-030-i'_cal.fts.mag.1"
p116
sI11
S"KIC8462852-20181019at023632_-25-1X1-030-i'_cal.fts.mag.1"
p117
sI12
S"KIC8462852-20181019at030300_-25-1X1-030-i'_cal.fts.mag.1"
p118
sI13
S"KIC8462852-20181019at020651_-25-1X1-030-i'_cal.fts.mag.1"
p119
sI14
S"KIC8462852-20181019at023423_-25-1X1-030-i'_cal.fts.mag.1"
p120
ssS'ref3err'
p121
(dp122
I0
F0.003190488598475496
sI1
Fnan
sI2
Fnan
sI3
Fnan
sI4
Fnan
sI5
Fnan
sI6
Fnan
sI7
Fnan
sI8
Fnan
sI9
Fnan
sI10
Fnan
sI11
Fnan
sI12
Fnan
sI13
Fnan
sI14
Fnan
ssS'tabby'
p123
(dp124
I0
F4584.113333333333
sI1
F4505.066666666667
sI2
F4638.763333333333
sI3
F4549.823333333334
sI4
F4486.866666666667
sI5
F4565.766666666666
sI6
F4527.116666666667
sI7
F4581.486666666667
sI8
F4621.55
sI9
F4644.759999999999
sI10
F4623.65
sI11
F4616.61
sI12
F4622.79
sI13
F4494.87
sI14
F4566.23
ssS'ref1magmeanerr'
p125
(dp126
I0
F0.012668671520535779
sI1
Fnan
sI2
Fnan
sI3
Fnan
sI4
Fnan
sI5
Fnan
sI6
Fnan
sI7
Fnan
sI8
Fnan
sI9
Fnan
sI10
Fnan
sI11
Fnan
sI12
Fnan
sI13
Fnan
sI14
Fnan
ssS'filter'
p127
(dp128
I0
S"i'"
p129
sI1
S"i'"
p130
sI2
S"i'"
p131
sI3
S"i'"
p132
sI4
S"i'"
p133
sI5
S"i'"
p134
sI6
S"i'"
p135
sI7
S"i'"
p136
sI8
S"i'"
p137
sI9
S"i'"
p138
sI10
S"i'"
p139
sI11
S"i'"
p140
sI12
S"i'"
p141
sI13
S"i'"
p142
sI14
S"i'"
p143
ssS'tabbymagerr'
p144
(dp145
I0
F0.0015135112329476075
sI1
Fnan
sI2
Fnan
sI3
Fnan
sI4
Fnan
sI5
Fnan
sI6
Fnan
sI7
Fnan
sI8
Fnan
sI9
Fnan
sI10
Fnan
sI11
Fnan
sI12
Fnan
sI13
Fnan
sI14
Fnan
ssS'tabbyrms'
p146
(dp147
I0
F-4.254169
sI1
F2.217666
sI2
F0.6359175
sI3
F3.599887
sI4
F2.649312
sI5
F3.268029
sI6
F-2.748012
sI7
F4.394914
sI8
F3.461299
sI9
F3.977151
sI10
F2.276981
sI11
F2.388387
sI12
F3.409991
sI13
F2.032396
sI14
F3.558646
ssS'ref3mean'
p148
(dp149
I0
F1.4962087492670273
sI1
Fnan
sI2
Fnan
sI3
Fnan
sI4
Fnan
sI5
Fnan
sI6
Fnan
sI7
Fnan
sI8
Fnan
sI9
Fnan
sI10
Fnan
sI11
Fnan
sI12
Fnan
sI13
Fnan
sI14
Fnan
ssS'median_JD'
p150
(dp151
I0
F2458410.607962963
sI1
Fnan
sI2
Fnan
sI3
Fnan
sI4
Fnan
sI5
Fnan
sI6
Fnan
sI7
Fnan
sI8
Fnan
sI9
Fnan
sI10
Fnan
sI11
Fnan
sI12
Fnan
sI13
Fnan
sI14
Fnan
ssS'error'
p152
(dp153
I0
F0.0015135112329476075
sI1
Fnan
sI2
Fnan
sI3
Fnan
sI4
Fnan
sI5
Fnan
sI6
Fnan
sI7
Fnan
sI8
Fnan
sI9
Fnan
sI10
Fnan
sI11
Fnan
sI12
Fnan
sI13
Fnan
sI14
Fnan
ssS'ref3bkg'
p154
(dp155
I0
F17.35678
sI1
F19.09552
sI2
F31.88921
sI3
F19.2164
sI4
F19.28236
sI5
F17.28215
sI6
F19.16319
sI7
F32.6835
sI8
F29.43208
sI9
F30.82043
sI10
F18.52348
sI11
F18.09082
sI12
F31.25572
sI13
F19.25742
sI14
F17.34945
ssS'ref3mag'
p156
(dp157
I0
F10.682
sI1
F10.706
sI2
F10.681
sI3
F10.694
sI4
F10.706
sI5
F10.683
sI6
F10.701
sI7
F10.692
sI8
F10.679
sI9
F10.678
sI10
F10.677
sI11
F10.68
sI12
F10.681
sI13
F10.709
sI14
F10.685
ssS'mean'
p158
(dp159
I0
F0.4410231038497788
sI1
Fnan
sI2
Fnan
sI3
Fnan
sI4
Fnan
sI5
Fnan
sI6
Fnan
sI7
Fnan
sI8
Fnan
sI9
Fnan
sI10
Fnan
sI11
Fnan
sI12
Fnan
sI13
Fnan
sI14
Fnan
sssS'r'
p160
(dp161
g3
(dp162
I0
F0.5510691586099313
sI1
Fnan
sI2
Fnan
sI3
Fnan
sI4
Fnan
sI5
Fnan
sI6
Fnan
sI7
Fnan
sI8
Fnan
sI9
Fnan
sI10
Fnan
sI11
Fnan
sI12
Fnan
sI13
Fnan
sI14
Fnan
ssg5
(dp163
I0
S'NoError'
p164
sI1
S'NoError'
p165
sI2
S'NoError'
p166
sI3
S'NoError'
p167
sI4
S'NoError'
p168
sI5
S'NoError'
p169
sI6
S'NoError'
p170
sI7
S'NoError'
p171
sI8
S'NoError'
p172
sI9
S'NoError'
p173
sI10
S'NoError'
p174
sI11
S'NoError'
p175
sI12
S'NoError'
p176
sI13
S'NoError'
p177
sI14
S'NoError'
p178
ssg22
(dp179
I0
F0.002
sI1
F0.002
sI2
F0.002
sI3
F0.002
sI4
F0.002
sI5
F0.002
sI6
F0.002
sI7
F0.002
sI8
F0.002
sI9
F0.002
sI10
F0.002
sI11
F0.002
sI12
F0.002
sI13
F0.002
sI14
F0.002
ssg24
(dp180
I0
F0.8942379390351227
sI1
F0.8942068782288175
sI2
F0.8991871712677881
sI3
F0.8962949537625219
sI4
F0.8937800784258813
sI5
F0.8938473561342174
sI6
F0.8970783265202809
sI7
F0.8978421270003307
sI8
F0.8970716027267751
sI9
F0.8982314401520989
sI10
F0.8968741193787992
sI11
F0.894834348755969
sI12
F0.8949330188192945
sI13
F0.8971865416488726
sI14
F0.8949813556590959
ssg26
(dp181
I0
F0.0017422237468979907
sI1
Fnan
sI2
Fnan
sI3
Fnan
sI4
Fnan
sI5
Fnan
sI6
Fnan
sI7
Fnan
sI8
Fnan
sI9
Fnan
sI10
Fnan
sI11
Fnan
sI12
Fnan
sI13
Fnan
sI14
Fnan
ssg28
(dp182
I0
F0.8960391505010578
sI1
Fnan
sI2
Fnan
sI3
Fnan
sI4
Fnan
sI5
Fnan
sI6
Fnan
sI7
Fnan
sI8
Fnan
sI9
Fnan
sI10
Fnan
sI11
Fnan
sI12
Fnan
sI13
Fnan
sI14
Fnan
ssg30
(dp183
I0
F11.128
sI1
F11.121
sI2
F11.126
sI3
F11.117
sI4
F11.15
sI5
F11.151
sI6
F11.129
sI7
F11.128
sI8
F11.125
sI9
F11.122
sI10
F11.151
sI11
F11.153
sI12
F11.128
sI13
F11.128
sI14
F11.163
ssg32
(dp184
I0
F22.7899
sI1
F34.43253
sI2
F33.61745
sI3
F22.70943
sI4
F27.22087
sI5
F26.22213
sI6
F36.28994
sI7
F22.26975
sI8
F35.42063
sI9
F34.14487
sI10
F27.98439
sI11
F27.68786
sI12
F22.31109
sI13
F21.97932
sI14
F27.23267
ssg34
(dp185
I0
F2458410.602685185
sI1
F2458410.623287037
sI2
F2458410.6217939816
sI3
F2458410.6056828704
sI4
F2458410.5858333334
sI5
F2458410.586574074
sI6
F2458410.624803241
sI7
F2458410.6034375
sI8
F2458410.624050926
sI9
F2458410.622546296
sI10
F2458410.5835763887
sI11
F2458410.5843287036
sI12
F2458410.6049421295
sI13
F2458410.6041782405
sI14
F2458410.5850810185
ssg36
(dp186
I0
F2.9526526
sI1
Fnan
sI2
Fnan
sI3
Fnan
sI4
Fnan
sI5
Fnan
sI6
Fnan
sI7
Fnan
sI8
Fnan
sI9
Fnan
sI10
Fnan
sI11
Fnan
sI12
Fnan
sI13
Fnan
sI14
Fnan
ssg38
(dp187
I0
F1.6322686266666664
sI1
Fnan
sI2
Fnan
sI3
Fnan
sI4
Fnan
sI5
Fnan
sI6
Fnan
sI7
Fnan
sI8
Fnan
sI9
Fnan
sI10
Fnan
sI11
Fnan
sI12
Fnan
sI13
Fnan
sI14
Fnan
ssg40
(dp188
I0
F0.5528172985381096
sI1
F0.5522856685141739
sI2
F0.5527782675103946
sI3
F0.5516546212928889
sI4
F0.5513037896853948
sI5
F0.550198732041167
sI6
F0.5495532416347783
sI7
F0.551230359654189
sI8
F0.5510707485195402
sI9
F0.5500408468791944
sI10
F0.5526131152204735
sI11
F0.5510333171338915
sI12
F0.5497159363369046
sI13
F0.5504175776828206
sI14
F0.5493238585050497
ssg42
(dp189
I0
F0.0011454474642024154
sI1
Fnan
sI2
Fnan
sI3
Fnan
sI4
Fnan
sI5
Fnan
sI6
Fnan
sI7
Fnan
sI8
Fnan
sI9
Fnan
sI10
Fnan
sI11
Fnan
sI12
Fnan
sI13
Fnan
sI14
Fnan
ssg44
(dp190
I0
F0.7139027333333333
sI1
Fnan
sI2
Fnan
sI3
Fnan
sI4
Fnan
sI5
Fnan
sI6
Fnan
sI7
Fnan
sI8
Fnan
sI9
Fnan
sI10
Fnan
sI11
Fnan
sI12
Fnan
sI13
Fnan
sI14
Fnan
ssg46
(dp191
I0
g164
sI1
g165
sI2
g166
sI3
g167
sI4
g168
sI5
g169
sI6
g170
sI7
g171
sI8
g172
sI9
g173
sI10
g174
sI11
g175
sI12
g176
sI13
g177
sI14
g178
ssg48
(dp192
I0
F0.0012875791985011429
sI1
Fnan
sI2
Fnan
sI3
Fnan
sI4
Fnan
sI5
Fnan
sI6
Fnan
sI7
Fnan
sI8
Fnan
sI9
Fnan
sI10
Fnan
sI11
Fnan
sI12
Fnan
sI13
Fnan
sI14
Fnan
ssg50
(dp193
I0
F0.015045961331232868
sI1
Fnan
sI2
Fnan
sI3
Fnan
sI4
Fnan
sI5
Fnan
sI6
Fnan
sI7
Fnan
sI8
Fnan
sI9
Fnan
sI10
Fnan
sI11
Fnan
sI12
Fnan
sI13
Fnan
sI14
Fnan
ssg52
(dp194
I0
F0.6254636
sI1
Fnan
sI2
Fnan
sI3
Fnan
sI4
Fnan
sI5
Fnan
sI6
Fnan
sI7
Fnan
sI8
Fnan
sI9
Fnan
sI10
Fnan
sI11
Fnan
sI12
Fnan
sI13
Fnan
sI14
Fnan
ssg54
(dp195
I0
F1.4897575721180805
sI1
F1.4897331109237744
sI2
F1.4859105042988061
sI3
F1.4936921652675352
sI4
F1.493466526220507
sI5
F1.4942029787859308
sI6
F1.4869858136973049
sI7
F1.4865863492397065
sI8
F1.489729705365794
sI9
F1.4897312728171062
sI10
F1.4915480203373992
sI11
F1.49065141663639
sI12
F1.492119896178777
sI13
F1.4859414437727887
sI14
F1.4927769747375634
ssg56
(dp196
I0
g164
sI1
g165
sI2
g166
sI3
g167
sI4
g168
sI5
g169
sI6
g170
sI7
g171
sI8
g172
sI9
g173
sI10
g174
sI11
g175
sI12
g176
sI13
g177
sI14
g178
ssg58
(dp197
I0
F24.92473
sI1
F37.5824
sI2
F35.42794
sI3
F24.53646
sI4
F30.24037
sI5
F28.53996
sI6
F38.51899
sI7
F24.62355
sI8
F37.90931
sI9
F36.33566
sI10
F31.3773
sI11
F31.81676
sI12
F24.84598
sI13
F25.23051
sI14
F31.24301
ssg60
(dp198
I0
F10.21893333333333
sI1
Fnan
sI2
Fnan
sI3
Fnan
sI4
Fnan
sI5
Fnan
sI6
Fnan
sI7
Fnan
sI8
Fnan
sI9
Fnan
sI10
Fnan
sI11
Fnan
sI12
Fnan
sI13
Fnan
sI14
Fnan
ssg62
(dp199
I0
F0.7160407438590822
sI1
Fnan
sI2
Fnan
sI3
Fnan
sI4
Fnan
sI5
Fnan
sI6
Fnan
sI7
Fnan
sI8
Fnan
sI9
Fnan
sI10
Fnan
sI11
Fnan
sI12
Fnan
sI13
Fnan
sI14
Fnan
ssg64
(dp200
I0
F1.014073
sI1
F-2.264776
sI2
F4.739919
sI3
F2.002591
sI4
F1.665734
sI5
F2.321978
sI6
F3.855324
sI7
F4.068873
sI8
F3.064492
sI9
F-0.1205526
sI10
F-3.612189
sI11
F3.801607
sI12
F-2.667446
sI13
F4.041414
sI14
F2.572988
ssg66
(dp201
I0
F10.568666666666665
sI1
Fnan
sI2
Fnan
sI3
Fnan
sI4
Fnan
sI5
Fnan
sI6
Fnan
sI7
Fnan
sI8
Fnan
sI9
Fnan
sI10
Fnan
sI11
Fnan
sI12
Fnan
sI13
Fnan
sI14
Fnan
ssg68
(dp202
I0
g164
sI1
g165
sI2
g166
sI3
g167
sI4
g168
sI5
g169
sI6
g170
sI7
g171
sI8
g172
sI9
g173
sI10
g174
sI11
g175
sI12
g176
sI13
g177
sI14
g178
ssg70
(dp203
I0
F14902.773333333334
sI1
F15011.03
sI2
F14982.42
sI3
F15116.109999999999
sI4
F14638.036666666665
sI5
F14653.693333333333
sI6
F15003.126666666667
sI7
F14992.793333333333
sI8
F15023.706666666667
sI9
F15104.1
sI10
F14619.09
sI11
F14616.643333333333
sI12
F14988.55
sI13
F15007.116666666667
sI14
F14524.46
ssg72
(dp204
I0
F1.011164
sI1
F1.0272459999999999
sI2
F1.0257399999999999
sI3
F1.012888
sI4
F1.00524
sI5
F1.005368
sI6
F1.028818
sI7
F1.011573
sI8
F1.028027
sI9
F1.026482
sI10
F1.004928
sI11
F1.005019
sI12
F1.012442
sI13
F1.0120069999999999
sI14
F1.005124
ssg74
(dp205
I0
F12740.086666666666
sI1
F12833.496666666668
sI2
F12733.026666666667
sI3
F12846.47
sI4
F12494.543333333333
sI5
F12500.769999999999
sI6
F12787.06
sI7
F12765.123333333333
sI8
F12782.863333333335
sI9
F12826.333333333334
sI10
F12428.616666666667
sI11
F12476.053333333333
sI12
F12779.696666666667
sI13
F12796.473333333333
sI14
F12377.933333333332
ssg76
(dp206
I0
F20590.58
sI1
F20740.456666666665
sI2
F20591.336666666666
sI3
F20883.743333333336
sI4
F20260.8
sI5
F20287.14
sI6
F20661.806666666664
sI7
F20632.27
sI8
F20712.136666666665
sI9
F20804.42
sI10
F20171.47666666667
sI11
F20192.883333333335
sI12
F20716.77666666667
sI13
F20657.253333333334
sI14
F20079.636666666665
ssg78
(dp207
I0
F23.98666
sI1
F35.83625
sI2
F33.21111
sI3
F24.342
sI4
F28.30528
sI5
F27.94001
sI6
F37.00334
sI7
F22.95886
sI8
F37.1922
sI9
F34.40206
sI10
F31.10487
sI11
F29.32238
sI12
F23.81122
sI13
F23.3165
sI14
F30.19297
ssg80
(dp208
I0
F10.737
sI1
F10.729
sI2
F10.738
sI3
F10.728
sI4
F10.758
sI5
F10.758
sI6
F10.733
sI7
F10.735
sI8
F10.733
sI9
F10.73
sI10
F10.764
sI11
F10.76
sI12
F10.734
sI13
F10.732
sI14
F10.768
ssg82
(dp209
I0
F0.001
sI1
F0.001
sI2
F0.001
sI3
F0.001
sI4
F0.001
sI5
F0.001
sI6
F0.001
sI7
F0.001
sI8
F0.001
sI9
F0.001
sI10
F0.001
sI11
F0.001
sI12
F0.001
sI13
F0.001
sI14
F0.001
ssg84
(dp210
I0
F0.5510691586099313
sI1
Fnan
sI2
Fnan
sI3
Fnan
sI4
Fnan
sI5
Fnan
sI6
Fnan
sI7
Fnan
sI8
Fnan
sI9
Fnan
sI10
Fnan
sI11
Fnan
sI12
Fnan
sI13
Fnan
sI14
Fnan
ssg86
(dp211
I0
F10.742466666666667
sI1
Fnan
sI2
Fnan
sI3
Fnan
sI4
Fnan
sI5
Fnan
sI6
Fnan
sI7
Fnan
sI8
Fnan
sI9
Fnan
sI10
Fnan
sI11
Fnan
sI12
Fnan
sI13
Fnan
sI14
Fnan
ssg88
(dp212
I0
F10.567
sI1
F10.559
sI2
F10.561
sI3
F10.551
sI4
F10.586
sI5
F10.585
sI6
F10.56
sI7
F10.56
sI8
F10.558
sI9
F10.552
sI10
F10.588
sI11
F10.588
sI12
F10.561
sI13
F10.559
sI14
F10.595
ssg90
(dp213
I0
F4.95129
sI1
F5.470745
sI2
F-1.853451
sI3
F3.837344
sI4
F-3.109701
sI5
F4.977303
sI6
F2.494406
sI7
F4.76703
sI8
F-2.411311
sI9
F2.653124
sI10
F5.524712
sI11
F3.56242
sI12
F3.819965
sI13
F3.742486
sI14
F5.863427
ssg92
(dp214
I0
F0.013744955784716545
sI1
Fnan
sI2
Fnan
sI3
Fnan
sI4
Fnan
sI5
Fnan
sI6
Fnan
sI7
Fnan
sI8
Fnan
sI9
Fnan
sI10
Fnan
sI11
Fnan
sI12
Fnan
sI13
Fnan
sI14
Fnan
ssg94
(dp215
I0
F0.7178857712890094
sI1
F0.7179280003833874
sI2
F0.7158662935701571
sI3
F0.7136956854268666
sI4
F0.7160435433807679
sI5
F0.7155393164635455
sI6
F0.7170662499485956
sI7
F0.7166372289022364
sI8
F0.7154085165472986
sI9
F0.7143894169591694
sI10
F0.7144819908078531
sI11
F0.7168183269369361
sI12
F0.7158425848318803
sI13
F0.7176054607628471
sI14
F0.715402771675685
ssg96
(dp216
I0
F30.0
sI1
F30.0
sI2
F30.0
sI3
F30.0
sI4
F30.0
sI5
F30.0
sI6
F30.0
sI7
F30.0
sI8
F30.0
sI9
F30.0
sI10
F30.0
sI11
F30.0
sI12
F30.0
sI13
F30.0
sI14
F30.0
ssg98
(dp217
I0
F0.002
sI1
F0.002
sI2
F0.002
sI3
F0.002
sI4
F0.002
sI5
F0.002
sI6
F0.002
sI7
F0.002
sI8
F0.002
sI9
F0.002
sI10
F0.002
sI11
F0.002
sI12
F0.002
sI13
F0.002
sI14
F0.002
ssg100
(dp218
I0
F0.001
sI1
F0.001
sI2
F0.002
sI3
F0.001
sI4
F0.002
sI5
F0.002
sI6
F0.002
sI7
F0.001
sI8
F0.001
sI9
F0.001
sI10
F0.002
sI11
F0.002
sI12
F0.001
sI13
F0.001
sI14
F0.002
ssg102
(dp219
I0
F-3.320046
sI1
F2.975155
sI2
F4.573448
sI3
F5.293407
sI4
F-4.057678
sI5
F-2.700314
sI6
F-3.550984
sI7
F2.535733
sI8
F-4.530072
sI9
F4.440485
sI10
F4.295912
sI11
F-1.533647
sI12
F-2.27108
sI13
F3.70302
sI14
F3.528615
ssg104
(dp220
I0
S"KIC8462852-20181019at022750_-25-1X1-030-r'_cal.fts.mag.1"
p221
sI1
S"KIC8462852-20181019at025732_-25-1X1-030-r'_cal.fts.mag.1"
p222
sI2
S"KIC8462852-20181019at025520_-25-1X1-030-r'_cal.fts.mag.1"
p223
sI3
S"KIC8462852-20181019at023211_-25-1X1-030-r'_cal.fts.mag.1"
p224
sI4
S"KIC8462852-20181019at020336_-25-1X1-030-r'_cal.fts.mag.1"
p225
sI5
S"KIC8462852-20181019at020440_-25-1X1-030-r'_cal.fts.mag.1"
p226
sI6
S"KIC8462852-20181019at025943_-25-1X1-030-r'_cal.fts.mag.1"
p227
sI7
S"KIC8462852-20181019at022857_-25-1X1-030-r'_cal.fts.mag.1"
p228
sI8
S"KIC8462852-20181019at025838_-25-1X1-030-r'_cal.fts.mag.1"
p229
sI9
S"KIC8462852-20181019at025628_-25-1X1-030-r'_cal.fts.mag.1"
p230
sI10
S"KIC8462852-20181019at020019_-25-1X1-030-r'_cal.fts.mag.1"
p231
sI11
S"KIC8462852-20181019at020125_-25-1X1-030-r'_cal.fts.mag.1"
p232
sI12
S"KIC8462852-20181019at023107_-25-1X1-030-r'_cal.fts.mag.1"
p233
sI13
S"KIC8462852-20181019at023001_-25-1X1-030-r'_cal.fts.mag.1"
p234
sI14
S"KIC8462852-20181019at020231_-25-1X1-030-r'_cal.fts.mag.1"
p235
ssg121
(dp236
I0
F0.002828607611618649
sI1
Fnan
sI2
Fnan
sI3
Fnan
sI4
Fnan
sI5
Fnan
sI6
Fnan
sI7
Fnan
sI8
Fnan
sI9
Fnan
sI10
Fnan
sI11
Fnan
sI12
Fnan
sI13
Fnan
sI14
Fnan
ssg123
(dp237
I0
F8888.093333333332
sI1
F8944.263333333334
sI2
F8900.980000000001
sI3
F8982.1
sI4
F8709.383333333333
sI5
F8700.77
sI6
F8875.65
sI7
F8891.380000000001
sI8
F8912.413333333334
sI9
F8935.386666666665
sI10
F8697.98
sI11
F8685.31
sI12
F8884.33
sI13
F8891.233333333334
sI14
F8602.783333333333
ssg125
(dp238
I0
F0.014436395803992128
sI1
Fnan
sI2
Fnan
sI3
Fnan
sI4
Fnan
sI5
Fnan
sI6
Fnan
sI7
Fnan
sI8
Fnan
sI9
Fnan
sI10
Fnan
sI11
Fnan
sI12
Fnan
sI13
Fnan
sI14
Fnan
ssg127
(dp239
I0
S"r'"
p240
sI1
S"r'"
p241
sI2
S"r'"
p242
sI3
S"r'"
p243
sI4
S"r'"
p244
sI5
S"r'"
p245
sI6
S"r'"
p246
sI7
S"r'"
p247
sI8
S"r'"
p248
sI9
S"r'"
p249
sI10
S"r'"
p250
sI11
S"r'"
p251
sI12
S"r'"
p252
sI13
S"r'"
p253
sI14
S"r'"
p254
ssg144
(dp255
I0
F0.0011856507676231815
sI1
Fnan
sI2
Fnan
sI3
Fnan
sI4
Fnan
sI5
Fnan
sI6
Fnan
sI7
Fnan
sI8
Fnan
sI9
Fnan
sI10
Fnan
sI11
Fnan
sI12
Fnan
sI13
Fnan
sI14
Fnan
ssg146
(dp256
I0
F2.180515
sI1
F4.237628
sI2
F-2.992635
sI3
F-2.317488
sI4
F-2.875527
sI5
F-3.182105
sI6
F-1.274231
sI7
F2.5139
sI8
F3.342813
sI9
F-1.433905
sI10
F3.762761
sI11
F-2.041581
sI12
F2.746188
sI13
F3.600515
sI14
F4.441693
ssg148
(dp257
I0
F1.4901889166931641
sI1
Fnan
sI2
Fnan
sI3
Fnan
sI4
Fnan
sI5
Fnan
sI6
Fnan
sI7
Fnan
sI8
Fnan
sI9
Fnan
sI10
Fnan
sI11
Fnan
sI12
Fnan
sI13
Fnan
sI14
Fnan
ssg150
(dp258
I0
F2458410.6041782405
sI1
Fnan
sI2
Fnan
sI3
Fnan
sI4
Fnan
sI5
Fnan
sI6
Fnan
sI7
Fnan
sI8
Fnan
sI9
Fnan
sI10
Fnan
sI11
Fnan
sI12
Fnan
sI13
Fnan
sI14
Fnan
ssg152
(dp259
I0
F0.0011856507676231815
sI1
Fnan
sI2
Fnan
sI3
Fnan
sI4
Fnan
sI5
Fnan
sI6
Fnan
sI7
Fnan
sI8
Fnan
sI9
Fnan
sI10
Fnan
sI11
Fnan
sI12
Fnan
sI13
Fnan
sI14
Fnan
ssg154
(dp260
I0
F26.70788
sI1
F38.56236
sI2
F37.57446
sI3
F25.88492
sI4
F31.96836
sI5
F32.56378
sI6
F41.283
sI7
F26.36637
sI8
F39.38753
sI9
F37.61979
sI10
F34.88157
sI11
F34.82243
sI12
F26.37433
sI13
F27.2219
sI14
F34.52557
ssg156
(dp261
I0
F10.216
sI1
F10.208
sI2
F10.216
sI3
F10.2
sI4
F10.233
sI5
F10.232
sI6
F10.212
sI7
F10.214
sI8
F10.209
sI9
F10.205
sI10
F10.238
sI11
F10.237
sI12
F10.209
sI13
F10.212
sI14
F10.243
ssg158
(dp262
I0
F0.5510691586099313
sI1
Fnan
sI2
Fnan
sI3
Fnan
sI4
Fnan
sI5
Fnan
sI6
Fnan
sI7
Fnan
sI8
Fnan
sI9
Fnan
sI10
Fnan
sI11
Fnan
sI12
Fnan
sI13
Fnan
sI14
Fnan
sssS'z'
p263
(dp264
g3
(dp265
I0
F0.3733552105347098
sI1
Fnan
sI2
Fnan
sI3
Fnan
sI4
Fnan
sI5
Fnan
sI6
Fnan
sI7
Fnan
sI8
Fnan
sI9
Fnan
sI10
Fnan
sI11
Fnan
sI12
Fnan
sI13
Fnan
sI14
Fnan
ssg5
(dp266
I0
S'NoError'
p267
sI1
S'NoError'
p268
sI2
S'NoError'
p269
sI3
S'NoError'
p270
sI4
S'NoError'
p271
sI5
S'NoError'
p272
sI6
S'NoError'
p273
sI7
S'NoError'
p274
sI8
S'NoError'
p275
sI9
S'NoError'
p276
sI10
S'NoError'
p277
sI11
S'NoError'
p278
sI12
S'NoError'
p279
sI13
S'NoError'
p280
sI14
S'NoError'
p281
ssg22
(dp282
I0
F0.007
sI1
F0.007
sI2
F0.007
sI3
F0.007
sI4
F0.007
sI5
F0.007
sI6
F0.007
sI7
F0.007
sI8
F0.007
sI9
F0.007
sI10
F0.007
sI11
F0.007
sI12
F0.007
sI13
F0.007
sI14
F0.007
ssg24
(dp283
I0
F0.9149439665974233
sI1
F0.9145271249877428
sI2
F0.917123446648791
sI3
F0.9150117617087162
sI4
F0.9113161241277254
sI5
F0.9173365974010723
sI6
F0.9171145809872363
sI7
F0.9201220570273382
sI8
F0.920153512944573
sI9
F0.9227811169036978
sI10
F0.9179727875724073
sI11
F0.9157793689935656
sI12
F0.9101264438617879
sI13
F0.9147748453366448
sI14
F0.9194570706805895
ssg26
(dp284
I0
F0.0033567193759996227
sI1
Fnan
sI2
Fnan
sI3
Fnan
sI4
Fnan
sI5
Fnan
sI6
Fnan
sI7
Fnan
sI8
Fnan
sI9
Fnan
sI10
Fnan
sI11
Fnan
sI12
Fnan
sI13
Fnan
sI14
Fnan
ssg28
(dp285
I0
F0.9165693870519541
sI1
Fnan
sI2
Fnan
sI3
Fnan
sI4
Fnan
sI5
Fnan
sI6
Fnan
sI7
Fnan
sI8
Fnan
sI9
Fnan
sI10
Fnan
sI11
Fnan
sI12
Fnan
sI13
Fnan
sI14
Fnan
ssg30
(dp286
I0
F13.191
sI1
F13.239
sI2
F13.255
sI3
F13.213
sI4
F13.218
sI5
F13.222
sI6
F13.244
sI7
F13.207
sI8
F13.194
sI9
F13.233
sI10
F13.241
sI11
F13.195
sI12
F13.213
sI13
F13.246
sI14
F13.19
ssg32
(dp287
I0
F6.8307
sI1
F15.87975
sI2
F6.132123
sI3
F5.375329
sI4
F14.81161
sI5
F17.28792
sI6
F6.724817
sI7
F16.00779
sI8
F5.950428
sI9
F6.099312
sI10
F7.120949
sI11
F7.992333
sI12
F16.81505
sI13
F5.925979
sI14
F7.23794
ssg34
(dp288
I0
F2458410.611724537
sI1
F2458410.6300925924
sI2
F2458410.5933333333
sI3
F2458410.591840278
sI4
F2458410.629340278
sI5
F2458410.6323379627
sI6
F2458410.594085648
sI7
F2458410.6308333334
sI8
F2458410.6109722224
sI9
F2458410.591099537
sI10
F2458410.6132175927
sI11
F2458410.6102199075
sI12
F2458410.6315740743
sI13
F2458410.592592593
sI14
F2458410.612476852
ssg36
(dp289
I0
F1.4367966666666665
sI1
Fnan
sI2
Fnan
sI3
Fnan
sI4
Fnan
sI5
Fnan
sI6
Fnan
sI7
Fnan
sI8
Fnan
sI9
Fnan
sI10
Fnan
sI11
Fnan
sI12
Fnan
sI13
Fnan
sI14
Fnan
ssg38
(dp290
I0
F1.1466155333333332
sI1
Fnan
sI2
Fnan
sI3
Fnan
sI4
Fnan
sI5
Fnan
sI6
Fnan
sI7
Fnan
sI8
Fnan
sI9
Fnan
sI10
Fnan
sI11
Fnan
sI12
Fnan
sI13
Fnan
sI14
Fnan
ssg40
(dp291
I0
F0.377814762110877
sI1
F0.37517118341447625
sI2
F0.3654923112883806
sI3
F0.3778057581116677
sI4
F0.37386199145281857
sI5
F0.3708511614744758
sI6
F0.3686556750670367
sI7
F0.3726133851219669
sI8
F0.376811082903529
sI9
F0.37288305335939737
sI10
F0.3702149139219465
sI11
F0.3725060762341056
sI12
F0.37600274159408154
sI13
F0.3676658423776752
sI14
F0.3741153203418835
ssg42
(dp292
I0
F0.003103688294423454
sI1
Fnan
sI2
Fnan
sI3
Fnan
sI4
Fnan
sI5
Fnan
sI6
Fnan
sI7
Fnan
sI8
Fnan
sI9
Fnan
sI10
Fnan
sI11
Fnan
sI12
Fnan
sI13
Fnan
sI14
Fnan
ssg44
(dp293
I0
F0.5202947466666668
sI1
Fnan
sI2
Fnan
sI3
Fnan
sI4
Fnan
sI5
Fnan
sI6
Fnan
sI7
Fnan
sI8
Fnan
sI9
Fnan
sI10
Fnan
sI11
Fnan
sI12
Fnan
sI13
Fnan
sI14
Fnan
ssg46
(dp294
I0
g267
sI1
g268
sI2
g269
sI3
g270
sI4
g271
sI5
g272
sI6
g273
sI7
g274
sI8
g275
sI9
g276
sI10
g277
sI11
g278
sI12
g279
sI13
g280
sI14
g281
ssg48
(dp295
I0
F0.003828942084336804
sI1
Fnan
sI2
Fnan
sI3
Fnan
sI4
Fnan
sI5
Fnan
sI6
Fnan
sI7
Fnan
sI8
Fnan
sI9
Fnan
sI10
Fnan
sI11
Fnan
sI12
Fnan
sI13
Fnan
sI14
Fnan
ssg50
(dp296
I0
F0.01666390453302339
sI1
Fnan
sI2
Fnan
sI3
Fnan
sI4
Fnan
sI5
Fnan
sI6
Fnan
sI7
Fnan
sI8
Fnan
sI9
Fnan
sI10
Fnan
sI11
Fnan
sI12
Fnan
sI13
Fnan
sI14
Fnan
ssg52
(dp297
I0
F1.5590526000000002
sI1
Fnan
sI2
Fnan
sI3
Fnan
sI4
Fnan
sI5
Fnan
sI6
Fnan
sI7
Fnan
sI8
Fnan
sI9
Fnan
sI10
Fnan
sI11
Fnan
sI12
Fnan
sI13
Fnan
sI14
Fnan
ssg54
(dp298
I0
F1.5082356808175919
sI1
F1.5037763561209554
sI2
F1.4982811482207556
sI3
F1.5137706382080327
sI4
F1.5022067951634204
sI5
F1.49663671941091
sI6
F1.5077405430874606
sI7
F1.5021283537175143
sI8
F1.4977243082806369
sI9
F1.5045671446975621
sI10
F1.4981212523034788
sI11
F1.4994683829418156
sI12
F1.4986915498500746
sI13
F1.5093287909004665
sI14
F1.496294722123543
ssg56
(dp299
I0
g267
sI1
g268
sI2
g269
sI3
g270
sI4
g271
sI5
g272
sI6
g273
sI7
g274
sI8
g275
sI9
g276
sI10
g277
sI11
g278
sI12
g279
sI13
g280
sI14
g281
ssg58
(dp300
I0
F8.635698
sI1
F16.82706
sI2
F7.642006
sI3
F7.595191
sI4
F16.65086
sI5
F18.37821
sI6
F6.8251
sI7
F18.27038
sI8
F7.564427
sI9
F6.509213
sI10
F7.050488
sI11
F7.586051
sI12
F17.8092
sI13
F6.365778
sI14
F8.23101
ssg60
(dp301
I0
F11.8748
sI1
Fnan
sI2
Fnan
sI3
Fnan
sI4
Fnan
sI5
Fnan
sI6
Fnan
sI7
Fnan
sI8
Fnan
sI9
Fnan
sI10
Fnan
sI11
Fnan
sI12
Fnan
sI13
Fnan
sI14
Fnan
ssg62
(dp302
I0
F0.690946439838594
sI1
Fnan
sI2
Fnan
sI3
Fnan
sI4
Fnan
sI5
Fnan
sI6
Fnan
sI7
Fnan
sI8
Fnan
sI9
Fnan
sI10
Fnan
sI11
Fnan
sI12
Fnan
sI13
Fnan
sI14
Fnan
ssg64
(dp303
I0
F-2.021442
sI1
F4.2553
sI2
F2.708059
sI3
F-1.842461
sI4
F2.756692
sI5
F1.21324
sI6
F3.178176
sI7
F1.958583
sI8
F-3.874377
sI9
F3.598448
sI10
F3.370464
sI11
F-2.825584
sI12
F-1.642288
sI13
F2.587585
sI14
F3.778838
ssg66
(dp304
I0
F12.2126
sI1
Fnan
sI2
Fnan
sI3
Fnan
sI4
Fnan
sI5
Fnan
sI6
Fnan
sI7
Fnan
sI8
Fnan
sI9
Fnan
sI10
Fnan
sI11
Fnan
sI12
Fnan
sI13
Fnan
sI14
Fnan
ssg68
(dp305
I0
g267
sI1
g268
sI2
g269
sI3
g270
sI4
g271
sI5
g272
sI6
g273
sI7
g274
sI8
g275
sI9
g276
sI10
g277
sI11
g278
sI12
g279
sI13
g280
sI14
g281
ssg70
(dp306
I0
F3313.266
sI1
F3189.6809999999996
sI2
F3234.7909999999997
sI3
F3246.8733333333334
sI4
F3255.4886666666666
sI5
F3286.0553333333332
sI6
F3239.2656666666667
sI7
F3323.8076666666666
sI8
F3325.54
sI9
F3249.2076666666667
sI10
F3235.849333333333
sI11
F3351.3700000000003
sI12
F3251.565666666667
sI13
F3237.145
sI14
F3361.0333333333333
ssg72
(dp307
I0
F1.01699
sI1
F1.034769
sI2
F1.007093
sI3
F1.006621
sI4
F1.0338889999999998
sI5
F1.037526
sI6
F1.0073450000000002
sI7
F1.0356670000000001
sI8
F1.016438
sI9
F1.006408
sI10
F1.01814
sI11
F1.015892
sI12
F1.036593
sI13
F1.00685
sI14
F1.017558
ssg74
(dp308
I0
F2704.4716666666664
sI1
F2612.782
sI2
F2647.5273333333334
sI3
F2640.6896666666667
sI4
F2683.667
sI5
F2691.3426666666664
sI6
F2635.3436666666666
sI7
F2700.2536666666665
sI8
F2709.1086666666665
sI9
F2623.936666666667
sI10
F2644.9296666666664
sI11
F2747.0046666666667
sI12
F2691.7253333333333
sI13
F2641.2516666666666
sI14
F2743.6820000000002
ssg76
(dp309
I0
F4538.083333333333
sI1
F4362.803333333333
sI2
F4406.683333333333
sI3
F4456.21
sI4
F4460.92
sI5
F4472.996666666667
sI6
F4428.693333333333
sI7
F4524.456666666667
sI8
F4519.12
sI9
F4418.27
sI10
F4405.0599999999995
sI11
F4572.16
sI12
F4453.58
sI13
F4436.216666666666
sI14
F4567.2266666666665
ssg78
(dp310
I0
F8.015866
sI1
F14.79317
sI2
F7.320601
sI3
F7.483399
sI4
F14.91118
sI5
F16.72931
sI6
F6.256981
sI7
F16.67262
sI8
F8.065695
sI9
F7.729929
sI10
F7.442882
sI11
F7.025599
sI12
F16.72719
sI13
F6.714975
sI14
F6.550501
ssg80
(dp311
I0
F12.42
sI1
F12.457
sI2
F12.443
sI3
F12.446
sI4
F12.428
sI5
F12.425
sI6
F12.448
sI7
F12.421
sI8
F12.418
sI9
F12.453
sI10
F12.444
sI11
F12.403
sI12
F12.425
sI13
F12.445
sI14
F12.404
ssg82
(dp312
I0
F0.003
sI1
F0.003
sI2
F0.003
sI3
F0.003
sI4
F0.003
sI5
F0.003
sI6
F0.003
sI7
F0.003
sI8
F0.003
sI9
F0.003
sI10
F0.003
sI11
F0.003
sI12
F0.003
sI13
F0.003
sI14
F0.003
ssg84
(dp313
I0
F0.3728310172516212
sI1
Fnan
sI2
Fnan
sI3
Fnan
sI4
Fnan
sI5
Fnan
sI6
Fnan
sI7
Fnan
sI8
Fnan
sI9
Fnan
sI10
Fnan
sI11
Fnan
sI12
Fnan
sI13
Fnan
sI14
Fnan
ssg86
(dp314
I0
F12.431999999999999
sI1
Fnan
sI2
Fnan
sI3
Fnan
sI4
Fnan
sI5
Fnan
sI6
Fnan
sI7
Fnan
sI8
Fnan
sI9
Fnan
sI10
Fnan
sI11
Fnan
sI12
Fnan
sI13
Fnan
sI14
Fnan
ssg88
(dp315
I0
F12.199
sI1
F12.241
sI2
F12.225
sI3
F12.221
sI4
F12.218
sI5
F12.208
sI6
F12.224
sI7
F12.196
sI8
F12.195
sI9
F12.221
sI10
F12.225
sI11
F12.187
sI12
F12.22
sI13
F12.225
sI14
F12.184
ssg90
(dp316
I0
F3.998998
sI1
F4.163779
sI2
F3.60372
sI3
F3.36336
sI4
F-2.731844
sI5
F-2.222275
sI6
F3.212284
sI7
F3.776725
sI8
F3.263579
sI9
F-2.219203
sI10
F2.787376
sI11
F-3.470178
sI12
F-1.531912
sI13
F1.964361
sI14
F3.59318
ssg92
(dp317
I0
F0.01529332253912512
sI1
Fnan
sI2
Fnan
sI3
Fnan
sI4
Fnan
sI5
Fnan
sI6
Fnan
sI7
Fnan
sI8
Fnan
sI9
Fnan
sI10
Fnan
sI11
Fnan
sI12
Fnan
sI13
Fnan
sI14
Fnan
ssg94
(dp318
I0
F0.6889189493033213
sI1
F0.6919000118857138
sI2
F0.6929362627796565
sI3
F0.6856188755584884
sI4
F0.6955740982441486
sI5
F0.6937297666433133
sI6
F0.6873650906758023
sI7
F0.6881148625940351
sI8
F0.6906886128058237
sI9
F0.684432816302519
sI10
F0.6923075647889727
sI11
F0.693379003213635
sI12
F0.6986825297743667
sI13
F0.6884210027895206
sI14
F0.6921271502195943
ssg96
(dp319
I0
F30.0
sI1
F30.0
sI2
F30.0
sI3
F30.0
sI4
F30.0
sI5
F30.0
sI6
F30.0
sI7
F30.0
sI8
F30.0
sI9
F30.0
sI10
F30.0
sI11
F30.0
sI12
F30.0
sI13
F30.0
sI14
F30.0
ssg98
(dp320
I0
F0.004
sI1
F0.004
sI2
F0.004
sI3
F0.004
sI4
F0.004
sI5
F0.004
sI6
F0.004
sI7
F0.004
sI8
F0.004
sI9
F0.004
sI10
F0.004
sI11
F0.004
sI12
F0.004
sI13
F0.004
sI14
F0.004
ssg100
(dp321
I0
F0.004
sI1
F0.004
sI2
F0.004
sI3
F0.004
sI4
F0.004
sI5
F0.004
sI6
F0.004
sI7
F0.004
sI8
F0.004
sI9
F0.004
sI10
F0.004
sI11
F0.004
sI12
F0.004
sI13
F0.004
sI14
F0.004
ssg102
(dp322
I0
F-2.702679
sI1
F2.524508
sI2
F-1.835167
sI3
F2.154424
sI4
F3.948125
sI5
F-2.426062
sI6
F2.801448
sI7
F-4.879291
sI8
F2.963327
sI9
F3.063946
sI10
F3.878382
sI11
F2.611639
sI12
F3.49017
sI13
F4.588421
sI14
F3.204598
ssg104
(dp323
I0
S"KIC8462852-20181019at024053_-25-1X1-030-z'_cal.fts.mag.1"
p324
sI1
S"KIC8462852-20181019at030720_-25-1X1-030-z'_cal.fts.mag.1"
p325
sI2
S"KIC8462852-20181019at021424_-25-1X1-030-z'_cal.fts.mag.1"
p326
sI3
S"KIC8462852-20181019at021215_-25-1X1-030-z'_cal.fts.mag.1"
p327
sI4
S"KIC8462852-20181019at030614_-25-1X1-030-z'_cal.fts.mag.1"
p328
sI5
S"KIC8462852-20181019at031034_-25-1X1-030-z'_cal.fts.mag.1"
p329
sI6
S"KIC8462852-20181019at021529_-25-1X1-030-z'_cal.fts.mag.1"
p330
sI7
S"KIC8462852-20181019at030824_-25-1X1-030-z'_cal.fts.mag.1"
p331
sI8
S"KIC8462852-20181019at023948_-25-1X1-030-z'_cal.fts.mag.1"
p332
sI9
S"KIC8462852-20181019at021109_-25-1X1-030-z'_cal.fts.mag.1"
p333
sI10
S"KIC8462852-20181019at024302_-25-1X1-030-z'_cal.fts.mag.1"
p334
sI11
S"KIC8462852-20181019at023841_-25-1X1-030-z'_cal.fts.mag.1"
p335
sI12
S"KIC8462852-20181019at030928_-25-1X1-030-z'_cal.fts.mag.1"
p336
sI13
S"KIC8462852-20181019at021320_-25-1X1-030-z'_cal.fts.mag.1"
p337
sI14
S"KIC8462852-20181019at024157_-25-1X1-030-z'_cal.fts.mag.1"
p338
ssg121
(dp339
I0
F0.005321698179920938
sI1
Fnan
sI2
Fnan
sI3
Fnan
sI4
Fnan
sI5
Fnan
sI6
Fnan
sI7
Fnan
sI8
Fnan
sI9
Fnan
sI10
Fnan
sI11
Fnan
sI12
Fnan
sI13
Fnan
sI14
Fnan
ssg123
(dp340
I0
F1329.3816666666667
sI1
F1271.2383333333335
sI2
F1253.517
sI3
F1302.6456666666668
sI4
F1296.0643333333333
sI5
F1291.8470000000002
sI6
F1266.1236666666666
sI7
F1310.173
sI8
F1325.5923333333333
sI9
F1279.1646666666668
sI10
F1269.3236666666667
sI11
F1324.9463333333333
sI12
F1303.0839999999998
sI13
F1264.1103333333333
sI14
F1330.8456666666668
ssg125
(dp341
I0
F0.017221249332479635
sI1
Fnan
sI2
Fnan
sI3
Fnan
sI4
Fnan
sI5
Fnan
sI6
Fnan
sI7
Fnan
sI8
Fnan
sI9
Fnan
sI10
Fnan
sI11
Fnan
sI12
Fnan
sI13
Fnan
sI14
Fnan
ssg127
(dp342
I0
S"z'"
p343
sI1
S"z'"
p344
sI2
S"z'"
p345
sI3
S"z'"
p346
sI4
S"z'"
p347
sI5
S"z'"
p348
sI6
S"z'"
p349
sI7
S"z'"
p350
sI8
S"z'"
p351
sI9
S"z'"
p352
sI10
S"z'"
p353
sI11
S"z'"
p354
sI12
S"z'"
p355
sI13
S"z'"
p356
sI14
S"z'"
p357
ssg144
(dp358
I0
F0.00370871406278099
sI1
Fnan
sI2
Fnan
sI3
Fnan
sI4
Fnan
sI5
Fnan
sI6
Fnan
sI7
Fnan
sI8
Fnan
sI9
Fnan
sI10
Fnan
sI11
Fnan
sI12
Fnan
sI13
Fnan
sI14
Fnan
ssg146
(dp359
I0
F2.440072
sI1
F-0.8117478
sI2
F-1.965393
sI3
F3.688378
sI4
F4.280837
sI5
F2.008026
sI6
F-2.816916
sI7
F3.653683
sI8
F4.228402
sI9
F2.484224
sI10
F-2.126645
sI11
F-2.458488
sI12
F-4.479732
sI13
F-3.623882
sI14
F3.303603
ssg148
(dp360
I0
F1.502464825722948
sI1
Fnan
sI2
Fnan
sI3
Fnan
sI4
Fnan
sI5
Fnan
sI6
Fnan
sI7
Fnan
sI8
Fnan
sI9
Fnan
sI10
Fnan
sI11
Fnan
sI12
Fnan
sI13
Fnan
sI14
Fnan
ssg150
(dp361
I0
F2458410.611724537
sI1
Fnan
sI2
Fnan
sI3
Fnan
sI4
Fnan
sI5
Fnan
sI6
Fnan
sI7
Fnan
sI8
Fnan
sI9
Fnan
sI10
Fnan
sI11
Fnan
sI12
Fnan
sI13
Fnan
sI14
Fnan
ssg152
(dp362
I0
F0.00370871406278099
sI1
Fnan
sI2
Fnan
sI3
Fnan
sI4
Fnan
sI5
Fnan
sI6
Fnan
sI7
Fnan
sI8
Fnan
sI9
Fnan
sI10
Fnan
sI11
Fnan
sI12
Fnan
sI13
Fnan
sI14
Fnan
ssg154
(dp363
I0
F8.050914
sI1
F17.30977
sI2
F7.944765
sI3
F6.863754
sI4
F16.28865
sI5
F18.25981
sI6
F6.997836
sI7
F16.32941
sI8
F8.735148
sI9
F7.400378
sI10
F8.293817
sI11
F8.738876
sI12
F17.68141
sI13
F7.177941
sI14
F8.134882
ssg156
(dp364
I0
F11.858
sI1
F11.901
sI2
F11.89
sI3
F11.878
sI4
F11.876
sI5
F11.874
sI6
F11.884
sI7
F11.861
sI8
F11.862
sI9
F11.887
sI10
F11.89
sI11
F11.85
sI12
F11.878
sI13
F11.882
sI14
F11.851
ssg158
(dp365
I0
F0.3728310172516212
sI1
Fnan
sI2
Fnan
sI3
Fnan
sI4
Fnan
sI5
Fnan
sI6
Fnan
sI7
Fnan
sI8
Fnan
sI9
Fnan
sI10
Fnan
sI11
Fnan
sI12
Fnan
sI13
Fnan
sI14
Fnan
sssS'g'
p366
(dp367
g3
(dp368
I0
F0.8695923172217964
sI1
Fnan
sI2
Fnan
sI3
Fnan
sI4
Fnan
sI5
Fnan
sI6
Fnan
sI7
Fnan
sI8
Fnan
sI9
Fnan
sI10
Fnan
sI11
Fnan
sI12
Fnan
sI13
Fnan
sI14
Fnan
ssg5
(dp369
I0
S'NoError'
p370
sI1
S'NoError'
p371
sI2
S'NoError'
p372
sI3
S'NoError'
p373
sI4
S'NoError'
p374
sI5
S'NoError'
p375
sI6
S'NoError'
p376
sI7
S'NoError'
p377
sI8
S'NoError'
p378
sI9
S'NoError'
p379
sI10
S'NoError'
p380
sI11
S'NoError'
p381
sI12
S'NoError'
p382
sI13
S'NoError'
p383
sI14
S'NoError'
p384
ssg22
(dp385
I0
F0.002
sI1
F0.002
sI2
F0.002
sI3
F0.002
sI4
F0.002
sI5
F0.002
sI6
F0.002
sI7
F0.002
sI8
F0.002
sI9
F0.002
sI10
F0.002
sI11
F0.002
sI12
F0.002
sI13
F0.002
sI14
F0.002
ssg24
(dp386
I0
F0.8828184685339484
sI1
F0.8777067681621538
sI2
F0.8789493985776359
sI3
F0.8815381500615341
sI4
F0.8824526555448222
sI5
F0.8793576119303034
sI6
F0.8826858165472686
sI7
F0.8777644409172491
sI8
F0.8791298501455393
sI9
F0.8820910302587365
sI10
F0.8792065277699233
sI11
F0.8806252851598986
sI12
F0.8816750168079037
sI13
F0.8841046809144413
sI14
F0.8828630701597887
ssg26
(dp387
I0
F0.0020371665529852964
sI1
Fnan
sI2
Fnan
sI3
Fnan
sI4
Fnan
sI5
Fnan
sI6
Fnan
sI7
Fnan
sI8
Fnan
sI9
Fnan
sI10
Fnan
sI11
Fnan
sI12
Fnan
sI13
Fnan
sI14
Fnan
ssg28
(dp388
I0
F0.8808645847660767
sI1
Fnan
sI2
Fnan
sI3
Fnan
sI4
Fnan
sI5
Fnan
sI6
Fnan
sI7
Fnan
sI8
Fnan
sI9
Fnan
sI10
Fnan
sI11
Fnan
sI12
Fnan
sI13
Fnan
sI14
Fnan
ssg30
(dp389
I0
F11.338
sI1
F11.369
sI2
F11.344
sI3
F11.333
sI4
F11.36
sI5
F11.341
sI6
F11.353
sI7
F11.349
sI8
F11.333
sI9
F11.352
sI10
F11.34
sI11
F11.372
sI12
F11.335
sI13
F11.328
sI14
F11.341
ssg32
(dp390
I0
F21.67601
sI1
F41.31901
sI2
F28.31561
sI3
F27.10017
sI4
F37.65344
sI5
F27.9007
sI6
F35.37221
sI7
F22.59895
sI8
F27.58499
sI9
F33.73257
sI10
F21.27232
sI11
F45.93655
sI12
F27.14489
sI13
F21.33985
sI14
F22.76818
ssg34
(dp391
I0
F2458410.600416667
sI1
F2458410.5805439814
sI2
F2458410.621006944
sI3
F2458410.618773148
sI4
F2458410.5812962963
sI5
F2458410.620266204
sI6
F2458410.5820370372
sI7
F2458410.598912037
sI8
F2458410.619513889
sI9
F2458410.5827893517
sI10
F2458410.601921296
sI11
F2458410.579803241
sI12
F2458410.6180324075
sI13
F2458410.6011689813
sI14
F2458410.599675926
ssg36
(dp392
I0
F2.8523700000000005
sI1
Fnan
sI2
Fnan
sI3
Fnan
sI4
Fnan
sI5
Fnan
sI6
Fnan
sI7
Fnan
sI8
Fnan
sI9
Fnan
sI10
Fnan
sI11
Fnan
sI12
Fnan
sI13
Fnan
sI14
Fnan
ssg38
(dp393
I0
F2.270279893333333
sI1
Fnan
sI2
Fnan
sI3
Fnan
sI4
Fnan
sI5
Fnan
sI6
Fnan
sI7
Fnan
sI8
Fnan
sI9
Fnan
sI10
Fnan
sI11
Fnan
sI12
Fnan
sI13
Fnan
sI14
Fnan
ssg40
(dp394
I0
F0.8670983683056016
sI1
F0.867506665502446
sI2
F0.8672519939037158
sI3
F0.8712323478886936
sI4
F0.8699246850292199
sI5
F0.868561152818914
sI6
F0.8681659715321455
sI7
F0.870904576630486
sI8
F0.8731145435318887
sI9
F0.8674459804929466
sI10
F0.8733720907856047
sI11
F0.8653244578368756
sI12
F0.8711010805033166
sI13
F0.8744816892895156
sI14
F0.8690206669583743
ssg42
(dp395
I0
F0.0021043813574743273
sI1
Fnan
sI2
Fnan
sI3
Fnan
sI4
Fnan
sI5
Fnan
sI6
Fnan
sI7
Fnan
sI8
Fnan
sI9
Fnan
sI10
Fnan
sI11
Fnan
sI12
Fnan
sI13
Fnan
sI14
Fnan
ssg44
(dp396
I0
F1.0873417333333333
sI1
Fnan
sI2
Fnan
sI3
Fnan
sI4
Fnan
sI5
Fnan
sI6
Fnan
sI7
Fnan
sI8
Fnan
sI9
Fnan
sI10
Fnan
sI11
Fnan
sI12
Fnan
sI13
Fnan
sI14
Fnan
ssg46
(dp397
I0
g370
sI1
g371
sI2
g372
sI3
g373
sI4
g374
sI5
g375
sI6
g376
sI7
g377
sI8
g378
sI9
g379
sI10
g380
sI11
g381
sI12
g382
sI13
g383
sI14
g384
ssg48
(dp398
I0
F0.0029480441838193715
sI1
Fnan
sI2
Fnan
sI3
Fnan
sI4
Fnan
sI5
Fnan
sI6
Fnan
sI7
Fnan
sI8
Fnan
sI9
Fnan
sI10
Fnan
sI11
Fnan
sI12
Fnan
sI13
Fnan
sI14
Fnan
ssg50
(dp399
I0
F0.01173801313600179
sI1
Fnan
sI2
Fnan
sI3
Fnan
sI4
Fnan
sI5
Fnan
sI6
Fnan
sI7
Fnan
sI8
Fnan
sI9
Fnan
sI10
Fnan
sI11
Fnan
sI12
Fnan
sI13
Fnan
sI14
Fnan
ssg52
(dp400
I0
F2.5955858000000003
sI1
Fnan
sI2
Fnan
sI3
Fnan
sI4
Fnan
sI5
Fnan
sI6
Fnan
sI7
Fnan
sI8
Fnan
sI9
Fnan
sI10
Fnan
sI11
Fnan
sI12
Fnan
sI13
Fnan
sI14
Fnan
ssg54
(dp401
I0
F1.5032452225639295
sI1
F1.51228505609403
sI2
F1.509620892460091
sI3
F1.5132693659798893
sI4
F1.5034357069071371
sI5
F1.500769099457397
sI6
F1.5003072241839404
sI7
F1.50345768791462
sI8
F1.5043231845800602
sI9
F1.5082446119712363
sI10
F1.5032311771927405
sI11
F1.5080768109222256
sI12
F1.509109091237076
sI13
F1.4960598523903192
sI14
F1.5094043323435664
ssg56
(dp402
I0
g370
sI1
g371
sI2
g372
sI3
g373
sI4
g374
sI5
g375
sI6
g376
sI7
g377
sI8
g378
sI9
g379
sI10
g380
sI11
g381
sI12
g382
sI13
g383
sI14
g384
ssg58
(dp403
I0
F21.48254
sI1
F40.9536
sI2
F28.87624
sI3
F26.07711
sI4
F36.75751
sI5
F27.32289
sI6
F34.49262
sI7
F21.99182
sI8
F27.82178
sI9
F33.12893
sI10
F21.82625
sI11
F45.27253
sI12
F27.08417
sI13
F21.12337
sI14
F21.94946
ssg60
(dp404
I0
F10.919066666666668
sI1
Fnan
sI2
Fnan
sI3
Fnan
sI4
Fnan
sI5
Fnan
sI6
Fnan
sI7
Fnan
sI8
Fnan
sI9
Fnan
sI10
Fnan
sI11
Fnan
sI12
Fnan
sI13
Fnan
sI14
Fnan
ssg62
(dp405
I0
F0.7201439934342155
sI1
Fnan
sI2
Fnan
sI3
Fnan
sI4
Fnan
sI5
Fnan
sI6
Fnan
sI7
Fnan
sI8
Fnan
sI9
Fnan
sI10
Fnan
sI11
Fnan
sI12
Fnan
sI13
Fnan
sI14
Fnan
ssg64
(dp406
I0
F3.412305
sI1
F3.924461
sI2
F3.989203
sI3
F4.332747
sI4
F4.68093
sI5
F4.329134
sI6
F-3.29812
sI7
F2.418555
sI8
F2.55961
sI9
F1.488314
sI10
F5.475913
sI11
F-4.351571
sI12
F-0.3888516
sI13
F3.622129
sI14
F1.85944
ssg66
(dp407
I0
F11.287933333333335
sI1
Fnan
sI2
Fnan
sI3
Fnan
sI4
Fnan
sI5
Fnan
sI6
Fnan
sI7
Fnan
sI8
Fnan
sI9
Fnan
sI10
Fnan
sI11
Fnan
sI12
Fnan
sI13
Fnan
sI14
Fnan
ssg68
(dp408
I0
g370
sI1
g371
sI2
g372
sI3
g373
sI4
g374
sI5
g375
sI6
g376
sI7
g377
sI8
g378
sI9
g379
sI10
g380
sI11
g381
sI12
g382
sI13
g383
sI14
g384
ssg70
(dp409
I0
F7763.46
sI1
F7510.083333333333
sI2
F7694.296666666666
sI3
F7750.36
sI4
F7576.126666666666
sI5
F7703.556666666667
sI6
F7645.996666666667
sI7
F7618.6866666666665
sI8
F7721.27
sI9
F7656.04
sI10
F7669.623333333334
sI11
F7521.006666666667
sI12
F7737.256666666667
sI13
F7776.303333333333
sI14
F7719.79
ssg72
(dp410
I0
F1.009995
sI1
F1.004688
sI2
F1.024972
sI3
F1.022857
sI4
F1.004728
sI5
F1.024249
sI6
F1.004781
sI7
F1.009288
sI8
F1.0235450000000001
sI9
F1.004848
sI10
F1.010757
sI11
F1.00466
sI12
F1.022189
sI13
F1.010371
sI14
F1.009633
ssg74
(dp411
I0
F6709.61
sI1
F6511.016666666666
sI2
F6667.503333333333
sI3
F6671.58
sI4
F6551.0
sI5
F6707.236666666667
sI6
F6621.543333333333
sI7
F6640.36
sI8
F6710.6066666666675
sI9
F6604.586666666667
sI10
F6669.320000000001
sI11
F6504.95
sI12
F6675.816666666667
sI13
F6735.843333333333
sI14
F6646.1066666666675
ssg76
(dp412
I0
F10878.286666666665
sI1
F10601.95
sI2
F10840.436666666666
sI3
F10912.140000000001
sI4
F10619.613333333335
sI5
F10813.636666666665
sI6
F10702.846666666668
sI7
F10718.936666666666
sI8
F10855.103333333333
sI9
F10754.256666666666
sI10
F10777.373333333333
sI11
F10576.109999999999
sI12
F10875.45
sI13
F10855.519999999999
sI14
F10841.973333333333
ssg78
(dp413
I0
F21.63829
sI1
F39.83717
sI2
F27.45093
sI3
F26.35459
sI4
F36.58999
sI5
F26.45819
sI6
F34.01603
sI7
F21.17541
sI8
F26.62116
sI9
F31.75151
sI10
F20.53487
sI11
F45.09593
sI12
F26.92372
sI13
F21.44091
sI14
F22.20896
ssg80
(dp414
I0
F11.433
sI1
F11.466
sI2
F11.44
sI3
F11.439
sI4
F11.459
sI5
F11.434
sI6
F11.448
sI7
F11.445
sI8
F11.433
sI9
F11.45
sI10
F11.44
sI11
F11.467
sI12
F11.439
sI13
F11.429
sI14
F11.444
ssg82
(dp415
I0
F0.002
sI1
F0.002
sI2
F0.002
sI3
F0.002
sI4
F0.002
sI5
F0.002
sI6
F0.002
sI7
F0.002
sI8
F0.002
sI9
F0.002
sI10
F0.002
sI11
F0.002
sI12
F0.002
sI13
F0.002
sI14
F0.002
ssg84
(dp416
I0
F0.8696337514006497
sI1
Fnan
sI2
Fnan
sI3
Fnan
sI4
Fnan
sI5
Fnan
sI6
Fnan
sI7
Fnan
sI8
Fnan
sI9
Fnan
sI10
Fnan
sI11
Fnan
sI12
Fnan
sI13
Fnan
sI14
Fnan
ssg86
(dp417
I0
F11.444399999999998
sI1
Fnan
sI2
Fnan
sI3
Fnan
sI4
Fnan
sI5
Fnan
sI6
Fnan
sI7
Fnan
sI8
Fnan
sI9
Fnan
sI10
Fnan
sI11
Fnan
sI12
Fnan
sI13
Fnan
sI14
Fnan
ssg88
(dp418
I0
F11.275
sI1
F11.311
sI2
F11.285
sI3
F11.277
sI4
F11.301
sI5
F11.283
sI6
F11.291
sI7
F11.295
sI8
F11.281
sI9
F11.29
sI10
F11.288
sI11
F11.309
sI12
F11.279
sI13
F11.273
sI14
F11.281
ssg90
(dp419
I0
F3.313341
sI1
F4.979311
sI2
F-4.245898
sI3
F3.649789
sI4
F4.480826
sI5
F3.505786
sI6
F4.687516
sI7
F2.182388
sI8
F4.280312
sI9
F3.059261
sI10
F3.496023
sI11
F5.475076
sI12
F-3.326764
sI13
F4.871718
sI14
F2.376865
ssg92
(dp420
I0
F0.011041911497734843
sI1
Fnan
sI2
Fnan
sI3
Fnan
sI4
Fnan
sI5
Fnan
sI6
Fnan
sI7
Fnan
sI8
Fnan
sI9
Fnan
sI10
Fnan
sI11
Fnan
sI12
Fnan
sI13
Fnan
sI14
Fnan
ssg94
(dp421
I0
F0.7198477825039284
sI1
F0.7189713652617689
sI2
F0.7194604004733455
sI3
F0.7149717347622238
sI4
F0.7200586510908596
sI5
F0.7244334004541365
sI6
F0.721739590124936
sI7
F0.7242334384663079
sI8
F0.7224883507939835
sI9
F0.7174883475533348
sI10
F0.723079222110049
sI11
F0.7188935253958504
sI12
F0.7173396955341619
sI13
F0.7230471449654149
sI14
F0.7161072520229311
ssg96
(dp422
I0
F30.0
sI1
F30.0
sI2
F30.0
sI3
F30.0
sI4
F30.0
sI5
F30.0
sI6
F30.0
sI7
F30.0
sI8
F30.0
sI9
F30.0
sI10
F30.0
sI11
F30.0
sI12
F30.0
sI13
F30.0
sI14
F30.0
ssg98
(dp423
I0
F0.002
sI1
F0.002
sI2
F0.002
sI3
F0.002
sI4
F0.002
sI5
F0.002
sI6
F0.002
sI7
F0.002
sI8
F0.002
sI9
F0.002
sI10
F0.002
sI11
F0.002
sI12
F0.002
sI13
F0.002
sI14
F0.002
ssg100
(dp424
I0
F0.002
sI1
F0.002
sI2
F0.002
sI3
F0.002
sI4
F0.002
sI5
F0.002
sI6
F0.002
sI7
F0.002
sI8
F0.002
sI9
F0.002
sI10
F0.002
sI11
F0.002
sI12
F0.002
sI13
F0.002
sI14
F0.002
ssg102
(dp425
I0
F1.834447
sI1
F-2.276762
sI2
F-2.553854
sI3
F4.374897
sI4
F5.275147
sI5
F4.356083
sI6
F4.046751
sI7
F3.095357
sI8
F2.893494
sI9
F-1.121194
sI10
F3.737637
sI11
F4.254086
sI12
F3.701701
sI13
F4.114325
sI14
F3.201672
ssg104
(dp426
I0
S"KIC8462852-20181019at022436_-25-1X1-030-g'_cal.fts.mag.1"
p427
sI1
S"KIC8462852-20181019at015559_-25-1X1-030-g'_cal.fts.mag.1"
p428
sI2
S"KIC8462852-20181019at025415_-25-1X1-030-g'_cal.fts.mag.1"
p429
sI3
S"KIC8462852-20181019at025102_-25-1X1-030-g'_cal.fts.mag.1"
p430
sI4
S"KIC8462852-20181019at015704_-25-1X1-030-g'_cal.fts.mag.1"
p431
sI5
S"KIC8462852-20181019at025310_-25-1X1-030-g'_cal.fts.mag.1"
p432
sI6
S"KIC8462852-20181019at015808_-25-1X1-030-g'_cal.fts.mag.1"
p433
sI7
S"KIC8462852-20181019at022220_-25-1X1-030-g'_cal.fts.mag.1"
p434
sI8
S"KIC8462852-20181019at025206_-25-1X1-030-g'_cal.fts.mag.1"
p435
sI9
S"KIC8462852-20181019at015913_-25-1X1-030-g'_cal.fts.mag.1"
p436
sI10
S"KIC8462852-20181019at022646_-25-1X1-030-g'_cal.fts.mag.1"
p437
sI11
S"KIC8462852-20181019at015443_-25-1X1-030-g'_cal.fts.mag.1"
p438
sI12
S"KIC8462852-20181019at024952_-25-1X1-030-g'_cal.fts.mag.1"
p439
sI13
S"KIC8462852-20181019at022541_-25-1X1-030-g'_cal.fts.mag.1"
p440
sI14
S"KIC8462852-20181019at022332_-25-1X1-030-g'_cal.fts.mag.1"
p441
ssg121
(dp442
I0
F0.00481048487909943
sI1
Fnan
sI2
Fnan
sI3
Fnan
sI4
Fnan
sI5
Fnan
sI6
Fnan
sI7
Fnan
sI8
Fnan
sI9
Fnan
sI10
Fnan
sI11
Fnan
sI12
Fnan
sI13
Fnan
sI14
Fnan
ssg123
(dp443
I0
F7327.373333333334
sI1
F7120.22
sI2
F7285.5633333333335
sI3
F7357.29
sI4
F7175.933333333333
sI5
F7302.986666666667
sI6
F7226.1466666666665
sI7
F7251.1466666666665
sI8
F7359.4766666666665
sI9
F7233.02
sI10
F7311.963333333333
sI11
F7096.256666666667
sI12
F7342.953333333334
sI13
F7394.52
sI14
F7302.053333333333
ssg125
(dp444
I0
F0.011764352935882193
sI1
Fnan
sI2
Fnan
sI3
Fnan
sI4
Fnan
sI5
Fnan
sI6
Fnan
sI7
Fnan
sI8
Fnan
sI9
Fnan
sI10
Fnan
sI11
Fnan
sI12
Fnan
sI13
Fnan
sI14
Fnan
ssg127
(dp445
I0
S"g'"
p446
sI1
S"g'"
p447
sI2
S"g'"
p448
sI3
S"g'"
p449
sI4
S"g'"
p450
sI5
S"g'"
p451
sI6
S"g'"
p452
sI7
S"g'"
p453
sI8
S"g'"
p454
sI9
S"g'"
p455
sI10
S"g'"
p456
sI11
S"g'"
p457
sI12
S"g'"
p458
sI13
S"g'"
p459
sI14
S"g'"
p460
ssg144
(dp461
I0
F0.002668122704775003
sI1
Fnan
sI2
Fnan
sI3
Fnan
sI4
Fnan
sI5
Fnan
sI6
Fnan
sI7
Fnan
sI8
Fnan
sI9
Fnan
sI10
Fnan
sI11
Fnan
sI12
Fnan
sI13
Fnan
sI14
Fnan
ssg146
(dp462
I0
F3.673338
sI1
F1.591757
sI2
F2.959502
sI3
F-1.005178
sI4
F-4.333568
sI5
F2.221656
sI6
F3.281299
sI7
F1.491099
sI8
F3.798048
sI9
F-1.837334
sI10
F4.975266
sI11
F-4.407744
sI12
F-2.840255
sI13
F4.092093
sI14
F2.650147
ssg148
(dp463
I0
F1.5056559544132175
sI1
Fnan
sI2
Fnan
sI3
Fnan
sI4
Fnan
sI5
Fnan
sI6
Fnan
sI7
Fnan
sI8
Fnan
sI9
Fnan
sI10
Fnan
sI11
Fnan
sI12
Fnan
sI13
Fnan
sI14
Fnan
ssg150
(dp464
I0
F2458410.600416667
sI1
Fnan
sI2
Fnan
sI3
Fnan
sI4
Fnan
sI5
Fnan
sI6
Fnan
sI7
Fnan
sI8
Fnan
sI9
Fnan
sI10
Fnan
sI11
Fnan
sI12
Fnan
sI13
Fnan
sI14
Fnan
ssg152
(dp465
I0
F0.002668122704775003
sI1
Fnan
sI2
Fnan
sI3
Fnan
sI4
Fnan
sI5
Fnan
sI6
Fnan
sI7
Fnan
sI8
Fnan
sI9
Fnan
sI10
Fnan
sI11
Fnan
sI12
Fnan
sI13
Fnan
sI14
Fnan
ssg154
(dp466
I0
F24.15891
sI1
F42.71081
sI2
F29.91535
sI3
F27.71636
sI4
F38.79683
sI5
F29.70622
sI6
F36.69482
sI7
F24.03973
sI8
F28.23168
sI9
F34.96312
sI10
F23.23574
sI11
F45.90818
sI12
F28.65594
sI13
F22.98636
sI14
F23.87747
ssg156
(dp467
I0
F10.909
sI1
F10.937
sI2
F10.912
sI3
F10.905
sI4
F10.935
sI5
F10.915
sI6
F10.926
sI7
F10.925
sI8
F10.911
sI9
F10.921
sI10
F10.919
sI11
F10.939
sI12
F10.909
sI13
F10.911
sI14
F10.912
ssg158
(dp468
I0
F0.8696337514006497
sI1
Fnan
sI2
Fnan
sI3
Fnan
sI4
Fnan
sI5
Fnan
sI6
Fnan
sI7
Fnan
sI8
Fnan
sI9
Fnan
sI10
Fnan
sI11
Fnan
sI12
Fnan
sI13
Fnan
sI14
Fnan
sssS'V'
p469
(dp470
g3
(dp471
I0
F0.6943476375346004
sI1
Fnan
sI2
Fnan
sI3
Fnan
sI4
Fnan
sI5
Fnan
sI6
Fnan
sI7
Fnan
sI8
Fnan
sI9
Fnan
sI10
Fnan
sI11
Fnan
sI12
Fnan
sI13
Fnan
sI14
Fnan
ssg5
(dp472
I0
S'NoError'
p473
sI1
S'NoError'
p474
sI2
S'NoError'
p475
sI3
S'NoError'
p476
sI4
S'NoError'
p477
sI5
S'NoError'
p478
sI6
S'NoError'
p479
sI7
S'NoError'
p480
sI8
S'NoError'
p481
sI9
S'NoError'
p482
sI10
S'NoError'
p483
sI11
S'NoError'
p484
sI12
S'NoError'
p485
sI13
S'NoError'
p486
sI14
S'NoError'
p487
ssg22
(dp488
I0
F0.002
sI1
F0.002
sI2
F0.002
sI3
F0.002
sI4
F0.002
sI5
F0.002
sI6
F0.002
sI7
F0.002
sI8
F0.002
sI9
F0.002
sI10
F0.002
sI11
F0.002
sI12
F0.002
sI13
F0.002
sI14
F0.002
ssg24
(dp489
I0
F0.8888517217786761
sI1
F0.8915808673236427
sI2
F0.8882217860000624
sI3
F0.8859763717931141
sI4
F0.8860240861434712
sI5
F0.8902384224364431
sI6
F0.8872313656981015
sI7
F0.8888092076867615
sI8
F0.8912683050130237
sI9
F0.8873849915676193
sI10
F0.8869148654806798
sI11
F0.887954273053585
sI12
F0.8898858460110707
sI13
F0.8831989629238812
sI14
F0.8874041588791924
ssg26
(dp490
I0
F0.002187532575998189
sI1
Fnan
sI2
Fnan
sI3
Fnan
sI4
Fnan
sI5
Fnan
sI6
Fnan
sI7
Fnan
sI8
Fnan
sI9
Fnan
sI10
Fnan
sI11
Fnan
sI12
Fnan
sI13
Fnan
sI14
Fnan
ssg28
(dp491
I0
F0.8880630154526217
sI1
Fnan
sI2
Fnan
sI3
Fnan
sI4
Fnan
sI5
Fnan
sI6
Fnan
sI7
Fnan
sI8
Fnan
sI9
Fnan
sI10
Fnan
sI11
Fnan
sI12
Fnan
sI13
Fnan
sI14
Fnan
ssg30
(dp492
I0
F11.382
sI1
F11.344
sI2
F11.346
sI3
F11.365
sI4
F11.365
sI5
F11.346
sI6
F11.364
sI7
F11.365
sI8
F11.374
sI9
F11.355
sI10
F11.36
sI11
F11.37
sI12
F11.361
sI13
F11.354
sI14
F11.369
ssg32
(dp493
I0
F33.85908
sI1
F22.96407
sI2
F22.92701
sI3
F19.63625
sI4
F20.35372
sI5
F22.34062
sI6
F19.36646
sI7
F35.07113
sI8
F35.12138
sI9
F33.10647
sI10
F19.68345
sI11
F24.50508
sI12
F34.45892
sI13
F24.07859
sI14
F20.28221
ssg34
(dp494
I0
F2458410.635509259
sI1
F2458410.6148148146
sI2
F2458410.6155787036
sI3
F2458410.5972337965
sI4
F2458410.5949189817
sI5
F2458410.6140625
sI6
F2458410.5957060186
sI7
F2458410.634733796
sI8
F2458410.633958333
sI9
F2458410.63318287
sI10
F2458410.597986111
sI11
F2458410.6163425925
sI12
F2458410.636273148
sI13
F2458410.6171180555
sI14
F2458410.5964583335
ssg36
(dp495
I0
F0.8040113866666668
sI1
Fnan
sI2
Fnan
sI3
Fnan
sI4
Fnan
sI5
Fnan
sI6
Fnan
sI7
Fnan
sI8
Fnan
sI9
Fnan
sI10
Fnan
sI11
Fnan
sI12
Fnan
sI13
Fnan
sI14
Fnan
ssg38
(dp496
I0
F1.4218814666666666
sI1
Fnan
sI2
Fnan
sI3
Fnan
sI4
Fnan
sI5
Fnan
sI6
Fnan
sI7
Fnan
sI8
Fnan
sI9
Fnan
sI10
Fnan
sI11
Fnan
sI12
Fnan
sI13
Fnan
sI14
Fnan
ssg40
(dp497
I0
F0.6926358463262955
sI1
F0.6950506602175414
sI2
F0.6983542937756191
sI3
F0.6932479326169326
sI4
F0.6910139754367204
sI5
F0.6966811567435277
sI6
F0.6955466431612927
sI7
F0.6906547887286288
sI8
F0.6923281551691016
sI9
F0.6948056424017133
sI10
F0.6948374476445758
sI11
F0.6935181491887732
sI12
F0.6938801282171846
sI13
F0.6945698707897415
sI14
F0.695070017938525
ssg42
(dp498
I0
F0.0012083934135477471
sI1
Fnan
sI2
Fnan
sI3
Fnan
sI4
Fnan
sI5
Fnan
sI6
Fnan
sI7
Fnan
sI8
Fnan
sI9
Fnan
sI10
Fnan
sI11
Fnan
sI12
Fnan
sI13
Fnan
sI14
Fnan
ssg44
(dp499
I0
F0.2875143999999999
sI1
Fnan
sI2
Fnan
sI3
Fnan
sI4
Fnan
sI5
Fnan
sI6
Fnan
sI7
Fnan
sI8
Fnan
sI9
Fnan
sI10
Fnan
sI11
Fnan
sI12
Fnan
sI13
Fnan
sI14
Fnan
ssg46
(dp500
I0
g473
sI1
g474
sI2
g475
sI3
g476
sI4
g477
sI5
g478
sI6
g479
sI7
g480
sI8
g481
sI9
g482
sI10
g483
sI11
g484
sI12
g485
sI13
g486
sI14
g487
ssg48
(dp501
I0
F0.002069668592342663
sI1
Fnan
sI2
Fnan
sI3
Fnan
sI4
Fnan
sI5
Fnan
sI6
Fnan
sI7
Fnan
sI8
Fnan
sI9
Fnan
sI10
Fnan
sI11
Fnan
sI12
Fnan
sI13
Fnan
sI14
Fnan
ssg50
(dp502
I0
F0.009537894346837219
sI1
Fnan
sI2
Fnan
sI3
Fnan
sI4
Fnan
sI5
Fnan
sI6
Fnan
sI7
Fnan
sI8
Fnan
sI9
Fnan
sI10
Fnan
sI11
Fnan
sI12
Fnan
sI13
Fnan
sI14
Fnan
ssg52
(dp503
I0
F2.262055466666667
sI1
Fnan
sI2
Fnan
sI3
Fnan
sI4
Fnan
sI5
Fnan
sI6
Fnan
sI7
Fnan
sI8
Fnan
sI9
Fnan
sI10
Fnan
sI11
Fnan
sI12
Fnan
sI13
Fnan
sI14
Fnan
ssg54
(dp504
I0
F1.4924467372905568
sI1
F1.492249688744006
sI2
F1.5033353047855833
sI3
F1.4982170016088012
sI4
F1.502714438780957
sI5
F1.4933035735037605
sI6
F1.4992727644764878
sI7
F1.4999877864592044
sI8
F1.4988448183152119
sI9
F1.4971289370320051
sI10
F1.494896829867647
sI11
F1.4960686209847558
sI12
F1.4993921352741126
sI13
F1.5015679164247273
sI14
F1.49825741409888
ssg56
(dp505
I0
g473
sI1
g474
sI2
g475
sI3
g476
sI4
g477
sI5
g478
sI6
g479
sI7
g480
sI8
g481
sI9
g482
sI10
g483
sI11
g484
sI12
g485
sI13
g486
sI14
g487
ssg58
(dp506
I0
F36.34581
sI1
F23.25823
sI2
F24.74534
sI3
F20.64132
sI4
F21.03548
sI5
F23.56371
sI6
F20.23246
sI7
F35.1716
sI8
F34.87627
sI9
F34.93295
sI10
F20.64282
sI11
F25.86981
sI12
F35.20872
sI13
F25.96177
sI14
F20.50244
ssg60
(dp507
I0
F10.692866666666667
sI1
Fnan
sI2
Fnan
sI3
Fnan
sI4
Fnan
sI5
Fnan
sI6
Fnan
sI7
Fnan
sI8
Fnan
sI9
Fnan
sI10
Fnan
sI11
Fnan
sI12
Fnan
sI13
Fnan
sI14
Fnan
ssg62
(dp508
I0
F0.7184531850316335
sI1
Fnan
sI2
Fnan
sI3
Fnan
sI4
Fnan
sI5
Fnan
sI6
Fnan
sI7
Fnan
sI8
Fnan
sI9
Fnan
sI10
Fnan
sI11
Fnan
sI12
Fnan
sI13
Fnan
sI14
Fnan
ssg64
(dp509
I0
F3.557504
sI1
F2.385546
sI2
F4.161835
sI3
F-3.985767
sI4
F-2.031412
sI5
F4.857492
sI6
F4.558695
sI7
F-4.388781
sI8
F4.319324
sI9
F5.264157
sI10
F4.005617
sI11
F2.286767
sI12
F-3.742031
sI13
F4.36804
sI14
F-4.288764
ssg66
(dp510
I0
F11.052400000000002
sI1
Fnan
sI2
Fnan
sI3
Fnan
sI4
Fnan
sI5
Fnan
sI6
Fnan
sI7
Fnan
sI8
Fnan
sI9
Fnan
sI10
Fnan
sI11
Fnan
sI12
Fnan
sI13
Fnan
sI14
Fnan
ssg68
(dp511
I0
g473
sI1
g474
sI2
g475
sI3
g476
sI4
g477
sI5
g478
sI6
g479
sI7
g480
sI8
g481
sI9
g482
sI10
g483
sI11
g484
sI12
g485
sI13
g486
sI14
g487
ssg70
(dp512
I0
F9371.140000000001
sI1
F9698.123333333333
sI2
F9609.206666666667
sI3
F9489.003333333332
sI4
F9519.386666666665
sI5
F9644.773333333334
sI6
F9476.753333333332
sI7
F9551.613333333335
sI8
F9467.436666666666
sI9
F9571.16
sI10
F9523.68
sI11
F9458.163333333334
sI12
F9550.51
sI13
F9547.273333333334
sI14
F9447.0
ssg72
(dp513
I0
F1.0415969999999999
sI1
F1.019419
sI2
F1.020065
sI3
F1.008545
sI4
F1.0076479999999999
sI5
F1.0188030000000001
sI6
F1.0079360000000002
sI7
F1.040586
sI8
F1.039585
sI9
F1.038582
sI10
F1.008872
sI11
F1.020706
sI12
F1.042638
sI13
F1.021374
sI14
F1.008234
ssg74
(dp514
I0
F8070.55
sI1
F8314.916666666666
sI2
F8228.743333333334
sI3
F8182.54
sI4
F8185.316666666667
sI5
F8282.45
sI6
F8149.3566666666675
sI7
F8188.259999999999
sI8
F8088.243333333333
sI9
F8239.316666666668
sI10
F8216.273333333334
sI11
F8139.5633333333335
sI12
F8175.473333333333
sI13
F8254.483333333334
sI14
F8126.5
ssg76
(dp515
I0
F13015.396666666667
sI1
F13439.976666666666
sI2
F13408.21
sI3
F13237.903333333332
sI4
F13302.556666666667
sI5
F13385.393333333333
sI6
F13213.173333333334
sI7
F13304.796666666667
sI8
F13156.619999999999
sI9
F13332.29
sI10
F13259.7
sI11
F13163.703333333333
sI12
F13289.1
sI13
F13365.273333333334
sI14
F13164.813333333334
ssg78
(dp516
I0
F34.68891
sI1
F22.72604
sI2
F22.81241
sI3
F20.15555
sI4
F20.7606
sI5
F22.69015
sI6
F20.58272
sI7
F35.33997
sI8
F33.49546
sI9
F31.95211
sI10
F19.92898
sI11
F24.37921
sI12
F34.31179
sI13
F24.67506
sI14
F21.27407
ssg80
(dp517
I0
F11.233
sI1
F11.2
sI2
F11.212
sI3
F11.218
sI4
F11.217
sI5
F11.205
sI6
F11.222
sI7
F11.217
sI8
F11.23
sI9
F11.21
sI10
F11.213
sI11
F11.223
sI12
F11.219
sI13
F11.208
sI14
F11.225
ssg82
(dp518
I0
F0.002
sI1
F0.002
sI2
F0.002
sI3
F0.002
sI4
F0.002
sI5
F0.002
sI6
F0.002
sI7
F0.002
sI8
F0.002
sI9
F0.002
sI10
F0.002
sI11
F0.002
sI12
F0.002
sI13
F0.002
sI14
F0.002
ssg84
(dp519
I0
F0.6941463138904115
sI1
Fnan
sI2
Fnan
sI3
Fnan
sI4
Fnan
sI5
Fnan
sI6
Fnan
sI7
Fnan
sI8
Fnan
sI9
Fnan
sI10
Fnan
sI11
Fnan
sI12
Fnan
sI13
Fnan
sI14
Fnan
ssg86
(dp520
I0
F11.216800000000001
sI1
Fnan
sI2
Fnan
sI3
Fnan
sI4
Fnan
sI5
Fnan
sI6
Fnan
sI7
Fnan
sI8
Fnan
sI9
Fnan
sI10
Fnan
sI11
Fnan
sI12
Fnan
sI13
Fnan
sI14
Fnan
ssg88
(dp521
I0
F11.071
sI1
F11.033
sI2
F11.043
sI3
F11.057
sI4
F11.053
sI5
F11.039
sI6
F11.058
sI7
F11.05
sI8
F11.059
sI9
F11.048
sI10
F11.053
sI11
F11.06
sI12
F11.05
sI13
F11.05
sI14
F11.062
ssg90
(dp522
I0
F-3.767037
sI1
F4.82158
sI2
F3.235357
sI3
F-4.072838
sI4
F3.746264
sI5
F-3.576417
sI6
F4.324835
sI7
F-0.4235029
sI8
F3.091291
sI9
F3.789697
sI10
F-0.6117613
sI11
F4.315984
sI12
F3.641437
sI13
F-2.602456
sI14
F-3.852262
ssg92
(dp523
I0
F0.009318696005241026
sI1
Fnan
sI2
Fnan
sI3
Fnan
sI4
Fnan
sI5
Fnan
sI6
Fnan
sI7
Fnan
sI8
Fnan
sI9
Fnan
sI10
Fnan
sI11
Fnan
sI12
Fnan
sI13
Fnan
sI14
Fnan
ssg94
(dp524
I0
F0.7210181833992186
sI1
F0.7187207823171883
sI2
F0.7150014662809685
sI3
F0.7200751180099009
sI4
F0.717319865982783
sI5
F0.7192696535703172
sI6
F0.7183237554168679
sI7
F0.7164957226441071
sI8
F0.7150126480411633
sI9
F0.719482581590692
sI10
F0.7212514853663797
sI11
F0.7196190706337231
sI12
F0.7159030590569044
sI13
F0.7205208092684008
sI14
F0.7187835738958869
ssg96
(dp525
I0
F30.0
sI1
F30.0
sI2
F30.0
sI3
F30.0
sI4
F30.0
sI5
F30.0
sI6
F30.0
sI7
F30.0
sI8
F30.0
sI9
F30.0
sI10
F30.0
sI11
F30.0
sI12
F30.0
sI13
F30.0
sI14
F30.0
ssg98
(dp526
I0
F0.002
sI1
F0.002
sI2
F0.002
sI3
F0.002
sI4
F0.002
sI5
F0.002
sI6
F0.002
sI7
F0.002
sI8
F0.002
sI9
F0.002
sI10
F0.002
sI11
F0.002
sI12
F0.002
sI13
F0.002
sI14
F0.002
ssg100
(dp527
I0
F0.002
sI1
F0.002
sI2
F0.002
sI3
F0.002
sI4
F0.002
sI5
F0.002
sI6
F0.002
sI7
F0.002
sI8
F0.002
sI9
F0.002
sI10
F0.002
sI11
F0.002
sI12
F0.002
sI13
F0.002
sI14
F0.002
ssg102
(dp528
I0
F1.266241
sI1
F3.945657
sI2
F4.004063
sI3
F-2.958771
sI4
F-3.570641
sI5
F-2.489221
sI6
F3.992887
sI7
F3.534141
sI8
F4.721835
sI9
F5.674953
sI10
F3.859132
sI11
F2.481479
sI12
F1.181898
sI13
F3.183331
sI14
F5.103848
ssg104
(dp529
I0
S'KIC8462852-20181019at031508_-25-1X1-030-V_cal.fts.mag.1'
p530
sI1
S'KIC8462852-20181019at024520_-25-1X1-030-V_cal.fts.mag.1'
p531
sI2
S'KIC8462852-20181019at024626_-25-1X1-030-V_cal.fts.mag.1'
p532
sI3
S'KIC8462852-20181019at022001_-25-1X1-030-V_cal.fts.mag.1'
p533
sI4
S'KIC8462852-20181019at021633_-25-1X1-030-V_cal.fts.mag.1'
p534
sI5
S'KIC8462852-20181019at024407_-25-1X1-030-V_cal.fts.mag.1'
p535
sI6
S'KIC8462852-20181019at021749_-25-1X1-030-V_cal.fts.mag.1'
p536
sI7
S'KIC8462852-20181019at031401_-25-1X1-030-V_cal.fts.mag.1'
p537
sI8
S'KIC8462852-20181019at031254_-25-1X1-030-V_cal.fts.mag.1'
p538
sI9
S'KIC8462852-20181019at031139_-25-1X1-030-V_cal.fts.mag.1'
p539
sI10
S'KIC8462852-20181019at022106_-25-1X1-030-V_cal.fts.mag.1'
p540
sI11
S'KIC8462852-20181019at024732_-25-1X1-030-V_cal.fts.mag.1'
p541
sI12
S'KIC8462852-20181019at031614_-25-1X1-030-V_cal.fts.mag.1'
p542
sI13
S'KIC8462852-20181019at024839_-25-1X1-030-V_cal.fts.mag.1'
p543
sI14
S'KIC8462852-20181019at021854_-25-1X1-030-V_cal.fts.mag.1'
p544
ssg121
(dp545
I0
F0.0034997963277653183
sI1
Fnan
sI2
Fnan
sI3
Fnan
sI4
Fnan
sI5
Fnan
sI6
Fnan
sI7
Fnan
sI8
Fnan
sI9
Fnan
sI10
Fnan
sI11
Fnan
sI12
Fnan
sI13
Fnan
sI14
Fnan
ssg123
(dp546
I0
F7031.89
sI1
F7287.1466666666665
sI2
F7273.63
sI3
F7142.636666666667
sI4
F7142.15
sI5
F7271.636666666667
sI6
F7150.053333333333
sI7
F7147.05
sI8
F7087.663333333333
sI9
F7212.723333333333
sI10
F7179.906666666667
sI11
F7111.203333333334
sI12
F7173.583333333333
sI13
F7215.8933333333325
sI14
F7121.759999999999
ssg125
(dp547
I0
F0.009096310083921946
sI1
Fnan
sI2
Fnan
sI3
Fnan
sI4
Fnan
sI5
Fnan
sI6
Fnan
sI7
Fnan
sI8
Fnan
sI9
Fnan
sI10
Fnan
sI11
Fnan
sI12
Fnan
sI13
Fnan
sI14
Fnan
ssg127
(dp548
I0
g469
sI1
g469
sI2
g469
sI3
g469
sI4
g469
sI5
g469
sI6
g469
sI7
g469
sI8
g469
sI9
g469
sI10
g469
sI11
g469
sI12
g469
sI13
g469
sI14
g469
ssg144
(dp549
I0
F0.002030452748201846
sI1
Fnan
sI2
Fnan
sI3
Fnan
sI4
Fnan
sI5
Fnan
sI6
Fnan
sI7
Fnan
sI8
Fnan
sI9
Fnan
sI10
Fnan
sI11
Fnan
sI12
Fnan
sI13
Fnan
sI14
Fnan
ssg146
(dp550
I0
F5.511244
sI1
F3.372842
sI2
F4.513221
sI3
F-4.407303
sI4
F2.349586
sI5
F-3.058448
sI6
F4.728096
sI7
F-4.136665
sI8
F-2.118707
sI9
F4.323637
sI10
F-2.191513
sI11
F-3.619593
sI12
F-1.489856
sI13
F3.592502
sI14
F-3.056327
ssg148
(dp551
I0
F1.497845597843113
sI1
Fnan
sI2
Fnan
sI3
Fnan
sI4
Fnan
sI5
Fnan
sI6
Fnan
sI7
Fnan
sI8
Fnan
sI9
Fnan
sI10
Fnan
sI11
Fnan
sI12
Fnan
sI13
Fnan
sI14
Fnan
ssg150
(dp552
I0
F2458410.6155787036
sI1
Fnan
sI2
Fnan
sI3
Fnan
sI4
Fnan
sI5
Fnan
sI6
Fnan
sI7
Fnan
sI8
Fnan
sI9
Fnan
sI10
Fnan
sI11
Fnan
sI12
Fnan
sI13
Fnan
sI14
Fnan
ssg152
(dp553
I0
F0.002030452748201846
sI1
Fnan
sI2
Fnan
sI3
Fnan
sI4
Fnan
sI5
Fnan
sI6
Fnan
sI7
Fnan
sI8
Fnan
sI9
Fnan
sI10
Fnan
sI11
Fnan
sI12
Fnan
sI13
Fnan
sI14
Fnan
ssg154
(dp554
I0
F38.4342
sI1
F24.67153
sI2
F25.03763
sI3
F22.35513
sI4
F23.10733
sI5
F24.63565
sI6
F23.01271
sI7
F36.89936
sI8
F36.46506
sI9
F35.07215
sI10
F23.16102
sI11
F27.09808
sI12
F36.26501
sI13
F26.56839
sI14
F23.9942
ssg156
(dp555
I0
F10.714
sI1
F10.679
sI2
F10.682
sI3
F10.695
sI4
F10.69
sI5
F10.683
sI6
F10.697
sI7
F10.69
sI8
F10.702
sI9
F10.688
sI10
F10.694
sI11
F10.702
sI12
F10.691
sI13
F10.685
sI14
F10.701
ssg158
(dp556
I0
F0.6941463138904115
sI1
Fnan
sI2
Fnan
sI3
Fnan
sI4
Fnan
sI5
Fnan
sI6
Fnan
sI7
Fnan
sI8
Fnan
sI9
Fnan
sI10
Fnan
sI11
Fnan
sI12
Fnan
sI13
Fnan
sI14
Fnan
sss.