(dp0
S'i'
p1
(dp2
S'sigmean'
p3
(dp4
I0
F0.43728918645419884
sI1
Fnan
sI2
Fnan
sI3
Fnan
sI4
Fnan
sI5
Fnan
sI6
Fnan
sI7
Fnan
sI8
Fnan
sI9
Fnan
sI10
Fnan
sI11
Fnan
sI12
Fnan
sI13
Fnan
sI14
Fnan
ssS'ref3flag'
p5
(dp6
I0
S'NoError'
p7
sI1
S'NoError'
p8
sI2
S'NoError'
p9
sI3
S'NoError'
p10
sI4
S'NoError'
p11
sI5
S'NoError'
p12
sI6
S'NoError'
p13
sI7
S'NoError'
p14
sI8
S'NoError'
p15
sI9
S'NoError'
p16
sI10
S'NoError'
p17
sI11
S'NoError'
p18
sI12
S'NoError'
p19
sI13
S'NoError'
p20
sI14
S'NoError'
p21
ssS'tabbyerr'
p22
(dp23
I0
F0.003
sI1
F0.003
sI2
F0.003
sI3
F0.003
sI4
F0.003
sI5
F0.003
sI6
F0.003
sI7
F0.003
sI8
F0.003
sI9
F0.003
sI10
F0.003
sI11
F0.003
sI12
F0.003
sI13
F0.003
sI14
F0.003
ssS'ref2rel'
p24
(dp25
I0
F0.9113533255480607
sI1
F0.9069341192874807
sI2
F0.9120849028089172
sI3
F0.918210055038241
sI4
F0.9087918367159605
sI5
F0.9070352879555926
sI6
F0.90956369910898
sI7
F0.9086137505749057
sI8
F0.9080243597901895
sI9
F0.9138734934180397
sI10
F0.9130953124576078
sI11
F0.9088780273673865
sI12
F0.9099552223018793
sI13
F0.910975210714568
sI14
F0.9069950238395006
ssS'ref2err'
p26
(dp27
I0
F0.003091380771004636
sI1
Fnan
sI2
Fnan
sI3
Fnan
sI4
Fnan
sI5
Fnan
sI6
Fnan
sI7
Fnan
sI8
Fnan
sI9
Fnan
sI10
Fnan
sI11
Fnan
sI12
Fnan
sI13
Fnan
sI14
Fnan
ssS'ref2mean'
p28
(dp29
I0
F0.9102922417951541
sI1
Fnan
sI2
Fnan
sI3
Fnan
sI4
Fnan
sI5
Fnan
sI6
Fnan
sI7
Fnan
sI8
Fnan
sI9
Fnan
sI10
Fnan
sI11
Fnan
sI12
Fnan
sI13
Fnan
sI14
Fnan
ssS'tabbymag'
p30
(dp31
I0
F11.896
sI1
F11.887
sI2
F11.867
sI3
F11.9
sI4
F11.92
sI5
F11.85
sI6
F11.936
sI7
F11.902
sI8
F12.009
sI9
F11.878
sI10
F11.867
sI11
F11.887
sI12
F11.867
sI13
F11.861
sI14
F11.814
ssS'tabbybkg'
p32
(dp33
I0
F13.62123
sI1
F12.23077
sI2
F13.30055
sI3
F12.77757
sI4
F15.27464
sI5
F14.10621
sI6
F14.32782
sI7
F13.20296
sI8
F13.98328
sI9
F13.2407
sI10
F13.0357
sI11
F14.48824
sI12
F13.48909
sI13
F12.98003
sI14
F12.88682
ssS'JD'
p34
(dp35
I0
F2458372.6896180557
sI1
F2458372.7085416666
sI2
F2458372.7092824075
sI3
F2458372.690347222
sI4
F2458372.6683680555
sI5
F2458372.6705902778
sI6
F2458372.688136574
sI7
F2458372.6691087964
sI8
F2458372.691087963
sI9
F2458372.710023148
sI10
F2458372.7070601853
sI11
F2458372.667627315
sI12
F2458372.669849537
sI13
F2458372.7078009257
sI14
F2458372.688877315
ssS'ref3rmsmean'
p36
(dp37
I0
F3.5332838666666664
sI1
Fnan
sI2
Fnan
sI3
Fnan
sI4
Fnan
sI5
Fnan
sI6
Fnan
sI7
Fnan
sI8
Fnan
sI9
Fnan
sI10
Fnan
sI11
Fnan
sI12
Fnan
sI13
Fnan
sI14
Fnan
ssS'ref1rmsmean'
p38
(dp39
I0
F0.6303882000000001
sI1
Fnan
sI2
Fnan
sI3
Fnan
sI4
Fnan
sI5
Fnan
sI6
Fnan
sI7
Fnan
sI8
Fnan
sI9
Fnan
sI10
Fnan
sI11
Fnan
sI12
Fnan
sI13
Fnan
sI14
Fnan
ssS'relflux'
p40
(dp41
I0
F0.436161160787592
sI1
F0.4400216657816337
sI2
F0.43884024728267645
sI3
F0.4373941336309412
sI4
F0.4347464111413671
sI5
F0.43973098024631463
sI6
F0.43619356553583305
sI7
F0.43915915106115117
sI8
F0.43311954461052604
sI9
F0.4362862937110583
sI10
F0.4384125228355762
sI11
F0.43747780261233205
sI12
F0.43604377652672455
sI13
F0.438461354595057
sI14
F0.46173707776111095
ssS'sigerr'
p42
(dp43
I0
F0.0019066630630349183
sI1
Fnan
sI2
Fnan
sI3
Fnan
sI4
Fnan
sI5
Fnan
sI6
Fnan
sI7
Fnan
sI8
Fnan
sI9
Fnan
sI10
Fnan
sI11
Fnan
sI12
Fnan
sI13
Fnan
sI14
Fnan
ssS'tabbyrmsmean'
p44
(dp45
I0
F2.0494689000000004
sI1
Fnan
sI2
Fnan
sI3
Fnan
sI4
Fnan
sI5
Fnan
sI6
Fnan
sI7
Fnan
sI8
Fnan
sI9
Fnan
sI10
Fnan
sI11
Fnan
sI12
Fnan
sI13
Fnan
sI14
Fnan
ssS'tabbyflag'
p46
(dp47
I0
g7
sI1
g8
sI2
g9
sI3
g10
sI4
g11
sI5
g12
sI6
g13
sI7
g14
sI8
g15
sI9
g16
sI10
g17
sI11
g18
sI12
g19
sI13
g20
sI14
g21
ssS'ref1err'
p48
(dp49
I0
F0.0024452165644270377
sI1
Fnan
sI2
Fnan
sI3
Fnan
sI4
Fnan
sI5
Fnan
sI6
Fnan
sI7
Fnan
sI8
Fnan
sI9
Fnan
sI10
Fnan
sI11
Fnan
sI12
Fnan
sI13
Fnan
sI14
Fnan
ssS'ref2magmeanerr'
p50
(dp51
I0
F0.03636848452529549
sI1
Fnan
sI2
Fnan
sI3
Fnan
sI4
Fnan
sI5
Fnan
sI6
Fnan
sI7
Fnan
sI8
Fnan
sI9
Fnan
sI10
Fnan
sI11
Fnan
sI12
Fnan
sI13
Fnan
sI14
Fnan
ssS'ref2rmsmean'
p52
(dp53
I0
F2.203415133333333
sI1
Fnan
sI2
Fnan
sI3
Fnan
sI4
Fnan
sI5
Fnan
sI6
Fnan
sI7
Fnan
sI8
Fnan
sI9
Fnan
sI10
Fnan
sI11
Fnan
sI12
Fnan
sI13
Fnan
sI14
Fnan
ssS'ref3rel'
p54
(dp55
I0
F1.5066138345738715
sI1
F1.5076837192112587
sI2
F1.4910883314332752
sI3
F1.4982524982741146
sI4
F1.5066052118068423
sI5
F1.5051918067502483
sI6
F1.5034643164752273
sI7
F1.5082294458327106
sI8
F1.5117547263862532
sI9
F1.4989414164094073
sI10
F1.5004790725383113
sI11
F1.5035352410430158
sI12
F1.49855102716744
sI13
F1.5046147779682297
sI14
F1.5090055372251028
ssS'ref1flag'
p56
(dp57
I0
g7
sI1
g8
sI2
g9
sI3
g10
sI4
g11
sI5
g12
sI6
g13
sI7
g14
sI8
g15
sI9
g16
sI10
g17
sI11
g18
sI12
g19
sI13
g20
sI14
g21
ssS'ref2bkg'
p58
(dp59
I0
F16.04383
sI1
F14.85106
sI2
F14.07512
sI3
F14.35569
sI4
F17.04137
sI5
F15.92708
sI6
F17.14699
sI7
F16.56099
sI8
F16.69653
sI9
F15.533
sI10
F15.19743
sI11
F14.95736
sI12
F15.10096
sI13
F14.9992
sI14
F14.77446
ssS'ref3magmean'
p60
(dp61
I0
F10.7208
sI1
Fnan
sI2
Fnan
sI3
Fnan
sI4
Fnan
sI5
Fnan
sI6
Fnan
sI7
Fnan
sI8
Fnan
sI9
Fnan
sI10
Fnan
sI11
Fnan
sI12
Fnan
sI13
Fnan
sI14
Fnan
ssS'ref1mean'
p62
(dp63
I0
F0.6956358961306849
sI1
Fnan
sI2
Fnan
sI3
Fnan
sI4
Fnan
sI5
Fnan
sI6
Fnan
sI7
Fnan
sI8
Fnan
sI9
Fnan
sI10
Fnan
sI11
Fnan
sI12
Fnan
sI13
Fnan
sI14
Fnan
ssS'ref1rms'
p64
(dp65
I0
F3.002435
sI1
F1.823483
sI2
F-2.770637
sI3
F2.12154
sI4
F3.99945
sI5
F-2.903891
sI6
F3.134839
sI7
F-1.440296
sI8
F7.27108
sI9
F-3.908955
sI10
F3.742145
sI11
F2.798271
sI12
F-3.09049
sI13
F-3.032709
sI14
F-1.290442
ssS'ref2magmean'
p66
(dp67
I0
F11.064333333333332
sI1
Fnan
sI2
Fnan
sI3
Fnan
sI4
Fnan
sI5
Fnan
sI6
Fnan
sI7
Fnan
sI8
Fnan
sI9
Fnan
sI10
Fnan
sI11
Fnan
sI12
Fnan
sI13
Fnan
sI14
Fnan
ssS'ref2flag'
p68
(dp69
I0
g7
sI1
g8
sI2
g9
sI3
g10
sI4
g11
sI5
g12
sI6
g13
sI7
g14
sI8
g15
sI9
g16
sI10
g17
sI11
g18
sI12
g19
sI13
g20
sI14
g21
ssS'ref2'
p70
(dp71
I0
F9436.433333333332
sI1
F9396.56
sI2
F9631.183333333332
sI3
F9420.406666666668
sI4
F9240.416666666666
sI5
F9726.54
sI6
F9083.353333333333
sI7
F9298.353333333333
sI8
F8542.56
sI9
F9605.31
sI10
F9647.783333333333
sI11
F9469.019999999999
sI12
F9678.17
sI13
F9688.44
sI14
F9581.223333333333
ssS'airmass'
p72
(dp73
I0
F1.005241
sI1
F1.012343
sI2
F1.012789
sI3
F1.005368
sI4
F1.006773
sI5
F1.0061440000000001
sI6
F1.005025
sI7
F1.006551
sI8
F1.005506
sI9
F1.0132450000000002
sI10
F1.011499
sI11
F1.007007
sI12
F1.006341
sI13
F1.011914
sI14
F1.005126
ssS'ref1'
p74
(dp75
I0
F7756.820000000001
sI1
F7776.113333333333
sI2
F7985.233333333334
sI3
F7696.41
sI4
F7628.333333333333
sI5
F8060.46
sI6
F7503.8533333333335
sI7
F7670.59
sI8
F7038.406666666667
sI9
F7900.786666666667
sI10
F7938.28
sI11
F7831.073333333334
sI12
F8014.823333333334
sI13
F7979.076666666666
sI14
F7921.526666666667
ssS'ref3'
p76
(dp77
I0
F12951.796666666667
sI1
F12945.480000000001
sI2
F13133.816666666668
sI3
F12822.656666666668
sI4
F12707.273333333334
sI5
F13386.423333333334
sI6
F12469.136666666665
sI7
F12796.53
sI8
F11777.3
sI9
F13120.306666666667
sI10
F13193.76
sI11
F13005.65
sI12
F13256.926666666666
sI13
F13291.403333333332
sI14
F13205.873333333333
ssS'ref1bkg'
p78
(dp79
I0
F15.9311
sI1
F14.13953
sI2
F13.86238
sI3
F14.52104
sI4
F16.10508
sI5
F15.9561
sI6
F16.38368
sI7
F16.77415
sI8
F15.60201
sI9
F15.00804
sI10
F13.33755
sI11
F16.85716
sI12
F15.51643
sI13
F13.95702
sI14
F14.45409
ssS'ref1mag'
p80
(dp81
I0
F11.276
sI1
F11.273
sI2
F11.244
sI3
F11.284
sI4
F11.294
sI5
F11.234
sI6
F11.312
sI7
F11.288
sI8
F11.381
sI9
F11.256
sI10
F11.251
sI11
F11.265
sI12
F11.24
sI13
F11.245
sI14
F11.253
ssS'ref3magerr'
p82
(dp83
I0
F0.002
sI1
F0.002
sI2
F0.002
sI3
F0.002
sI4
F0.002
sI5
F0.002
sI6
F0.002
sI7
F0.002
sI8
F0.002
sI9
F0.002
sI10
F0.002
sI11
F0.002
sI12
F0.002
sI13
F0.002
sI14
F0.002
ssS'tabbymagmean'
p84
(dp85
I0
F0.43891904587465963
sI1
Fnan
sI2
Fnan
sI3
Fnan
sI4
Fnan
sI5
Fnan
sI6
Fnan
sI7
Fnan
sI8
Fnan
sI9
Fnan
sI10
Fnan
sI11
Fnan
sI12
Fnan
sI13
Fnan
sI14
Fnan
ssS'ref1magmean'
p86
(dp87
I0
F11.273066666666667
sI1
Fnan
sI2
Fnan
sI3
Fnan
sI4
Fnan
sI5
Fnan
sI6
Fnan
sI7
Fnan
sI8
Fnan
sI9
Fnan
sI10
Fnan
sI11
Fnan
sI12
Fnan
sI13
Fnan
sI14
Fnan
ssS'ref2mag'
p88
(dp89
I0
F11.063
sI1
F11.068
sI2
F11.041
sI3
F11.065
sI4
F11.086
sI5
F11.03
sI6
F11.104
sI7
F11.079
sI8
F11.171
sI9
F11.044
sI10
F11.039
sI11
F11.059
sI12
F11.036
sI13
F11.034
sI14
F11.046
ssS'ref3rms'
p90
(dp91
I0
F4.137421
sI1
F5.010446
sI2
F3.348698
sI3
F-2.539971
sI4
F3.45329
sI5
F2.740561
sI6
F5.269403
sI7
F4.311861
sI8
F7.731566
sI9
F2.581861
sI10
F4.56364
sI11
F2.813989
sI12
F3.203324
sI13
F2.967433
sI14
F3.405736
ssS'ref3magmeanerr'
p92
(dp93
I0
F0.034801888290312756
sI1
Fnan
sI2
Fnan
sI3
Fnan
sI4
Fnan
sI5
Fnan
sI6
Fnan
sI7
Fnan
sI8
Fnan
sI9
Fnan
sI10
Fnan
sI11
Fnan
sI12
Fnan
sI13
Fnan
sI14
Fnan
ssS'ref1rel'
p94
(dp95
I0
F0.6929373157234852
sI1
F0.6960969842801582
sI2
F0.7015359836005565
sI3
F0.6920278816511933
sI4
F0.6951376963437457
sI5
F0.6974839083809966
sI6
F0.696332844449373
sI7
F0.6943317947669635
sI8
F0.6927613346417413
sI9
F0.6953198923094862
sI10
F0.6950738734379156
sI11
F0.6968799393569146
sI12
F0.6989134120356154
sI13
F0.6944413459157612
sI14
F0.6952642350663658
ssS'exposure'
p96
(dp97
I0
F30.0
sI1
F30.0
sI2
F30.0
sI3
F30.0
sI4
F30.0
sI5
F30.0
sI6
F30.0
sI7
F30.0
sI8
F30.0
sI9
F30.0
sI10
F30.0
sI11
F30.0
sI12
F30.0
sI13
F30.0
sI14
F30.0
ssS'ref1magerr'
p98
(dp99
I0
F0.002
sI1
F0.002
sI2
F0.002
sI3
F0.002
sI4
F0.002
sI5
F0.002
sI6
F0.002
sI7
F0.002
sI8
F0.002
sI9
F0.002
sI10
F0.002
sI11
F0.002
sI12
F0.002
sI13
F0.002
sI14
F0.002
ssS'ref2magerr'
p100
(dp101
I0
F0.002
sI1
F0.002
sI2
F0.002
sI3
F0.002
sI4
F0.002
sI5
F0.002
sI6
F0.002
sI7
F0.002
sI8
F0.002
sI9
F0.002
sI10
F0.002
sI11
F0.002
sI12
F0.002
sI13
F0.002
sI14
F0.002
ssS'ref2rms'
p102
(dp103
I0
F4.511159
sI1
F-2.326822
sI2
F4.44313
sI3
F4.791311
sI4
F2.714236
sI5
F-3.49003
sI6
F5.269131
sI7
F-3.177579
sI8
F6.682548
sI9
F2.425752
sI10
F2.339873
sI11
F5.139456
sI12
F3.064763
sI13
F-2.828782
sI14
F3.493081
ssS'name'
p104
(dp105
I0
S"KIC8462852-20180911at043303_-25-1X1-030-i'_cal.fts.mag.1"
p106
sI1
S"KIC8462852-20180911at050018_-25-1X1-030-i'_cal.fts.mag.1"
p107
sI2
S"KIC8462852-20180911at050122_-25-1X1-030-i'_cal.fts.mag.1"
p108
sI3
S"KIC8462852-20180911at043406_-25-1X1-030-i'_cal.fts.mag.1"
p109
sI4
S"KIC8462852-20180911at040227_-25-1X1-030-i'_cal.fts.mag.1"
p110
sI5
S"KIC8462852-20180911at040539_-25-1X1-030-i'_cal.fts.mag.1"
p111
sI6
S"KIC8462852-20180911at043053_-25-1X1-030-i'_cal.fts.mag.1"
p112
sI7
S"KIC8462852-20180911at040331_-25-1X1-030-i'_cal.fts.mag.1"
p113
sI8
S"KIC8462852-20180911at043510_-25-1X1-030-i'_cal.fts.mag.1"
p114
sI9
S"KIC8462852-20180911at050226_-25-1X1-030-i'_cal.fts.mag.1"
p115
sI10
S"KIC8462852-20180911at045809_-25-1X1-030-i'_cal.fts.mag.1"
p116
sI11
S"KIC8462852-20180911at040122_-25-1X1-030-i'_cal.fts.mag.1"
p117
sI12
S"KIC8462852-20180911at040435_-25-1X1-030-i'_cal.fts.mag.1"
p118
sI13
S"KIC8462852-20180911at045914_-25-1X1-030-i'_cal.fts.mag.1"
p119
sI14
S"KIC8462852-20180911at043159_-25-1X1-030-i'_cal.fts.mag.1"
p120
ssS'ref3err'
p121
(dp122
I0
F0.005329171625891508
sI1
Fnan
sI2
Fnan
sI3
Fnan
sI4
Fnan
sI5
Fnan
sI6
Fnan
sI7
Fnan
sI8
Fnan
sI9
Fnan
sI10
Fnan
sI11
Fnan
sI12
Fnan
sI13
Fnan
sI14
Fnan
ssS'tabby'
p123
(dp124
I0
F4382.7
sI1
F4417.546666666666
sI2
F4498.1466666666665
sI3
F4365.116666666667
sI4
F4286.0233333333335
sI5
F4569.306666666667
sI6
F4224.73
sI7
F4357.26
sI8
F3949.8
sI9
F4453.96
sI10
F4498.086666666667
sI11
F4419.363333333333
sI12
F4498.506666666667
sI13
F4524.763333333333
sI14
F4726.4366666666665
ssS'ref1magmeanerr'
p125
(dp126
I0
F0.03727593376557111
sI1
Fnan
sI2
Fnan
sI3
Fnan
sI4
Fnan
sI5
Fnan
sI6
Fnan
sI7
Fnan
sI8
Fnan
sI9
Fnan
sI10
Fnan
sI11
Fnan
sI12
Fnan
sI13
Fnan
sI14
Fnan
ssS'filter'
p127
(dp128
I0
S"i'"
p129
sI1
S"i'"
p130
sI2
S"i'"
p131
sI3
S"i'"
p132
sI4
S"i'"
p133
sI5
S"i'"
p134
sI6
S"i'"
p135
sI7
S"i'"
p136
sI8
S"i'"
p137
sI9
S"i'"
p138
sI10
S"i'"
p139
sI11
S"i'"
p140
sI12
S"i'"
p141
sI13
S"i'"
p142
sI14
S"i'"
p143
ssS'tabbymagerr'
p144
(dp145
I0
F0.006594087502673464
sI1
Fnan
sI2
Fnan
sI3
Fnan
sI4
Fnan
sI5
Fnan
sI6
Fnan
sI7
Fnan
sI8
Fnan
sI9
Fnan
sI10
Fnan
sI11
Fnan
sI12
Fnan
sI13
Fnan
sI14
Fnan
ssS'tabbyrms'
p146
(dp147
I0
F-0.8780645
sI1
F4.054557
sI2
F2.894695
sI3
F4.42848
sI4
F2.195466
sI5
F-2.144112
sI6
F3.88411
sI7
F3.928117
sI8
F4.563821
sI9
F-1.422148
sI10
F3.205018
sI11
F-3.11554
sI12
F3.101241
sI13
F3.239912
sI14
F2.806481
ssS'ref3mean'
p148
(dp149
I0
F1.5036007308730204
sI1
Fnan
sI2
Fnan
sI3
Fnan
sI4
Fnan
sI5
Fnan
sI6
Fnan
sI7
Fnan
sI8
Fnan
sI9
Fnan
sI10
Fnan
sI11
Fnan
sI12
Fnan
sI13
Fnan
sI14
Fnan
ssS'median_JD'
p150
(dp151
I0
F2458372.6896180557
sI1
Fnan
sI2
Fnan
sI3
Fnan
sI4
Fnan
sI5
Fnan
sI6
Fnan
sI7
Fnan
sI8
Fnan
sI9
Fnan
sI10
Fnan
sI11
Fnan
sI12
Fnan
sI13
Fnan
sI14
Fnan
ssS'error'
p152
(dp153
I0
F0.006594087502673464
sI1
Fnan
sI2
Fnan
sI3
Fnan
sI4
Fnan
sI5
Fnan
sI6
Fnan
sI7
Fnan
sI8
Fnan
sI9
Fnan
sI10
Fnan
sI11
Fnan
sI12
Fnan
sI13
Fnan
sI14
Fnan
ssS'ref3bkg'
p154
(dp155
I0
F17.35373
sI1
F16.3789
sI2
F15.94112
sI3
F16.5361
sI4
F18.11472
sI5
F16.45559
sI6
F16.999
sI7
F17.75789
sI8
F19.60385
sI9
F16.48795
sI10
F15.10091
sI11
F17.54281
sI12
F16.75732
sI13
F16.01223
sI14
F16.30022
ssS'ref3mag'
p156
(dp157
I0
F10.719
sI1
F10.72
sI2
F10.704
sI3
F10.73
sI4
F10.74
sI5
F10.683
sI6
F10.76
sI7
F10.732
sI8
F10.822
sI9
F10.705
sI10
F10.699
sI11
F10.715
sI12
F10.694
sI13
F10.691
sI14
F10.698
ssS'mean'
p158
(dp159
I0
F0.43891904587465963
sI1
Fnan
sI2
Fnan
sI3
Fnan
sI4
Fnan
sI5
Fnan
sI6
Fnan
sI7
Fnan
sI8
Fnan
sI9
Fnan
sI10
Fnan
sI11
Fnan
sI12
Fnan
sI13
Fnan
sI14
Fnan
sssS'r'
p160
(dp161
g3
(dp162
I0
F0.5491447159603905
sI1
Fnan
sI2
Fnan
sI3
Fnan
sI4
Fnan
sI5
Fnan
sI6
Fnan
sI7
Fnan
sI8
Fnan
ssg5
(dp163
I0
S'NoError'
p164
sI1
S'NoError'
p165
sI2
S'NoError'
p166
sI3
S'NoError'
p167
sI4
S'NoError'
p168
sI5
S'NoError'
p169
sI6
S'NoError'
p170
sI7
S'NoError'
p171
sI8
S'NoError'
p172
ssg22
(dp173
I0
F0.002
sI1
F0.002
sI2
F0.002
sI3
F0.002
sI4
F0.002
sI5
F0.002
sI6
F0.002
sI7
F0.002
sI8
F0.002
ssg24
(dp174
I0
F0.8942595443520254
sI1
F0.8934807779684627
sI2
F0.8940907557457157
sI3
F0.8942089555181076
sI4
F0.8941480674108218
sI5
F0.8940217044480487
sI6
F0.8943612971743424
sI7
F0.890293555501299
sI8
F0.8970528939297511
ssg26
(dp175
I0
F0.0017175171529061732
sI1
Fnan
sI2
Fnan
sI3
Fnan
sI4
Fnan
sI5
Fnan
sI6
Fnan
sI7
Fnan
sI8
Fnan
ssg28
(dp176
I0
F0.8939908391165083
sI1
Fnan
sI2
Fnan
sI3
Fnan
sI4
Fnan
sI5
Fnan
sI6
Fnan
sI7
Fnan
sI8
Fnan
ssg30
(dp177
I0
F11.141
sI1
F11.167
sI2
F11.142
sI3
F11.222
sI4
F11.142
sI5
F11.159
sI6
F11.151
sI7
F11.138
sI8
F11.135
ssg32
(dp178
I0
F14.79751
sI1
F15.35072
sI2
F14.43982
sI3
F15.06121
sI4
F13.52048
sI5
F15.28539
sI6
F14.51965
sI7
F14.21707
sI8
F14.59665
ssg34
(dp179
I0
F2458372.704085648
sI1
F2458372.666875
sI2
F2458372.7055555554
sI3
F2458372.7062962963
sI4
F2458372.7033449076
sI5
F2458372.664664352
sI6
F2458372.6653935187
sI7
F2458372.663923611
sI8
F2458372.704826389
ssg36
(dp180
I0
F2.1269146666666665
sI1
Fnan
sI2
Fnan
sI3
Fnan
sI4
Fnan
sI5
Fnan
sI6
Fnan
sI7
Fnan
sI8
Fnan
ssg38
(dp181
I0
F2.3832649999999997
sI1
Fnan
sI2
Fnan
sI3
Fnan
sI4
Fnan
sI5
Fnan
sI6
Fnan
sI7
Fnan
sI8
Fnan
ssg40
(dp182
I0
F0.5497888376269578
sI1
F0.5462254531329122
sI2
F0.5509718904812997
sI3
F0.5431571788531705
sI4
F0.5499226203789995
sI5
F0.5488017753566943
sI6
F0.5475699882864119
sI7
F0.5492507504825137
sI8
F0.5506264119373354
ssg42
(dp183
I0
F0.0014868058037460605
sI1
Fnan
sI2
Fnan
sI3
Fnan
sI4
Fnan
sI5
Fnan
sI6
Fnan
sI7
Fnan
sI8
Fnan
ssg44
(dp184
I0
F2.529551111111111
sI1
Fnan
sI2
Fnan
sI3
Fnan
sI4
Fnan
sI5
Fnan
sI6
Fnan
sI7
Fnan
sI8
Fnan
ssg46
(dp185
I0
g164
sI1
g165
sI2
g166
sI3
g167
sI4
g168
sI5
g169
sI6
g170
sI7
g171
sI8
g172
ssg48
(dp186
I0
F0.002048763481147659
sI1
Fnan
sI2
Fnan
sI3
Fnan
sI4
Fnan
sI5
Fnan
sI6
Fnan
sI7
Fnan
sI8
Fnan
ssg50
(dp187
I0
F0.022569029910722824
sI1
Fnan
sI2
Fnan
sI3
Fnan
sI4
Fnan
sI5
Fnan
sI6
Fnan
sI7
Fnan
sI8
Fnan
ssg52
(dp188
I0
F2.4434039999999997
sI1
Fnan
sI2
Fnan
sI3
Fnan
sI4
Fnan
sI5
Fnan
sI6
Fnan
sI7
Fnan
sI8
Fnan
ssg54
(dp189
I0
F1.4897727649354853
sI1
F1.4975937906703096
sI2
F1.4963772908559054
sI3
F1.4990411799761851
sI4
F1.4948672546120458
sI5
F1.4995248337782499
sI6
F1.493035037066129
sI7
F1.4965432094280178
sI8
F1.49361869593451
ssg56
(dp190
I0
g164
sI1
g165
sI2
g166
sI3
g167
sI4
g168
sI5
g169
sI6
g170
sI7
g171
sI8
g172
ssg58
(dp191
I0
F17.19224
sI1
F17.00393
sI2
F15.86637
sI3
F16.27947
sI4
F15.5536
sI5
F17.62134
sI6
F16.2444
sI7
F16.75606
sI8
F15.85933
ssg60
(dp192
I0
F10.232222222222223
sI1
Fnan
sI2
Fnan
sI3
Fnan
sI4
Fnan
sI5
Fnan
sI6
Fnan
sI7
Fnan
sI8
Fnan
ssg62
(dp193
I0
F0.7145753002852935
sI1
Fnan
sI2
Fnan
sI3
Fnan
sI4
Fnan
sI5
Fnan
sI6
Fnan
sI7
Fnan
sI8
Fnan
ssg64
(dp194
I0
F-2.393902
sI1
F3.815645
sI2
F3.245933
sI3
F5.000276
sI4
F4.672802
sI5
F2.16658
sI6
F2.676975
sI7
F4.333993
sI8
F-2.068917
ssg66
(dp195
I0
F10.585888888888888
sI1
Fnan
sI2
Fnan
sI3
Fnan
sI4
Fnan
sI5
Fnan
sI6
Fnan
sI7
Fnan
sI8
Fnan
ssg68
(dp196
I0
g164
sI1
g165
sI2
g166
sI3
g167
sI4
g168
sI5
g169
sI6
g170
sI7
g171
sI8
g172
ssg70
(dp197
I0
F14802.663333333334
sI1
F14541.97
sI2
F14753.123333333333
sI3
F13910.676666666666
sI4
F14784.146666666667
sI5
F14593.183333333332
sI6
F14726.043333333333
sI7
F14822.733333333334
sI8
F14898.496666666668
ssg72
(dp198
I0
F1.009944
sI1
F1.007262
sI2
F1.010688
sI3
F1.011081
sI4
F1.0095889999999998
sI5
F1.008074
sI6
F1.00779
sI7
F1.008367
sI8
F1.01031
ssg74
(dp199
I0
F12653.926666666666
sI1
F12386.97
sI2
F12563.45
sI3
F11824.08
sI4
F12600.483333333334
sI5
F12404.386666666665
sI6
F12560.773333333334
sI7
F12702.316666666668
sI8
F12646.03
ssg76
(dp200
I0
F20452.039999999997
sI1
F20164.306666666664
sI2
F20437.95
sI3
F19288.73
sI4
F20468.193333333336
sI5
F20241.763333333332
sI6
F20370.086666666666
sI7
F20596.213333333333
sI8
F20570.510000000002
ssg78
(dp201
I0
F15.66556
sI1
F15.53601
sI2
F15.1975
sI3
F16.12098
sI4
F15.07268
sI5
F17.01684
sI6
F15.62509
sI7
F14.43617
sI8
F16.07197
ssg80
(dp202
I0
F10.744
sI1
F10.768
sI2
F10.752
sI3
F10.818
sI4
F10.749
sI5
F10.766
sI6
F10.752
sI7
F10.74
sI8
F10.745
ssg82
(dp203
I0
F0.001
sI1
F0.001
sI2
F0.001
sI3
F0.001
sI4
F0.001
sI5
F0.001
sI6
F0.001
sI7
F0.001
sI8
F0.001
ssg84
(dp204
I0
F0.5484794340595882
sI1
Fnan
sI2
Fnan
sI3
Fnan
sI4
Fnan
sI5
Fnan
sI6
Fnan
sI7
Fnan
sI8
Fnan
ssg86
(dp205
I0
F10.759333333333334
sI1
Fnan
sI2
Fnan
sI3
Fnan
sI4
Fnan
sI5
Fnan
sI6
Fnan
sI7
Fnan
sI8
Fnan
ssg88
(dp206
I0
F10.574
sI1
F10.593
sI2
F10.578
sI3
F10.642
sI4
F10.576
sI5
F10.59
sI6
F10.58
sI7
F10.573
sI8
F10.567
ssg90
(dp207
I0
F3.180973
sI1
F3.599054
sI2
F2.69188
sI3
F6.032046
sI4
F1.993205
sI5
F3.663801
sI6
F-3.733867
sI7
F3.896199
sI8
F-2.181059
ssg92
(dp208
I0
F0.021850502155430135
sI1
Fnan
sI2
Fnan
sI3
Fnan
sI4
Fnan
sI5
Fnan
sI6
Fnan
sI7
Fnan
sI8
Fnan
ssg94
(dp209
I0
F0.7178575038356585
sI1
F0.7138172797370081
sI2
F0.7140134590950243
sI3
F0.7123067058828964
sI4
F0.7148735847511588
sI5
F0.7121806033098562
sI6
F0.7157925009585578
sI7
F0.7172611193782913
sI8
F0.7130749456191894
ssg96
(dp210
I0
F30.0
sI1
F30.0
sI2
F30.0
sI3
F30.0
sI4
F30.0
sI5
F30.0
sI6
F30.0
sI7
F30.0
sI8
F30.0
ssg98
(dp211
I0
F0.002
sI1
F0.002
sI2
F0.002
sI3
F0.002
sI4
F0.002
sI5
F0.002
sI6
F0.002
sI7
F0.002
sI8
F0.002
ssg100
(dp212
I0
F0.001
sI1
F0.002
sI2
F0.001
sI3
F0.002
sI4
F0.001
sI5
F0.002
sI6
F0.001
sI7
F0.001
sI8
F0.001
ssg102
(dp213
I0
F-1.841893
sI1
F2.789994
sI2
F3.630189
sI3
F5.77609
sI4
F4.39838
sI5
F-4.132528
sI6
F3.903545
sI7
F3.529251
sI8
F3.937608
ssg104
(dp214
I0
S"KIC8462852-20180911at045353_-25-1X1-030-r'_cal.fts.mag.1"
p215
sI1
S"KIC8462852-20180911at040018_-25-1X1-030-r'_cal.fts.mag.1"
p216
sI2
S"KIC8462852-20180911at045600_-25-1X1-030-r'_cal.fts.mag.1"
p217
sI3
S"KIC8462852-20180911at045704_-25-1X1-030-r'_cal.fts.mag.1"
p218
sI4
S"KIC8462852-20180911at045247_-25-1X1-030-r'_cal.fts.mag.1"
p219
sI5
S"KIC8462852-20180911at035707_-25-1X1-030-r'_cal.fts.mag.1"
p220
sI6
S"KIC8462852-20180911at035810_-25-1X1-030-r'_cal.fts.mag.1"
p221
sI7
S"KIC8462852-20180911at035601_-25-1X1-030-r'_cal.fts.mag.1"
p222
sI8
S"KIC8462852-20180911at045457_-25-1X1-030-r'_cal.fts.mag.1"
p223
ssg121
(dp224
I0
F0.003116752643462784
sI1
Fnan
sI2
Fnan
sI3
Fnan
sI4
Fnan
sI5
Fnan
sI6
Fnan
sI7
Fnan
sI8
Fnan
ssg123
(dp225
I0
F8779.876666666667
sI1
F8574.51
sI2
F8770.466666666667
sI3
F8151.61
sI4
F8771.783333333333
sI5
F8641.676666666666
sI6
F8698.496666666666
sI7
F8810.213333333335
sI8
F8831.136666666665
ssg125
(dp226
I0
F0.023953079134006853
sI1
Fnan
sI2
Fnan
sI3
Fnan
sI4
Fnan
sI5
Fnan
sI6
Fnan
sI7
Fnan
sI8
Fnan
ssg127
(dp227
I0
S"r'"
p228
sI1
S"r'"
p229
sI2
S"r'"
p230
sI3
S"r'"
p231
sI4
S"r'"
p232
sI5
S"r'"
p233
sI6
S"r'"
p234
sI7
S"r'"
p235
sI8
S"r'"
p236
ssg144
(dp237
I0
F0.0024887731045372978
sI1
Fnan
sI2
Fnan
sI3
Fnan
sI4
Fnan
sI5
Fnan
sI6
Fnan
sI7
Fnan
sI8
Fnan
ssg146
(dp238
I0
F2.814727
sI1
F3.906943
sI2
F2.658327
sI3
F4.932351
sI4
F3.222242
sI5
F2.304519
sI6
F3.235252
sI7
F-2.531445
sI8
F2.223044
ssg148
(dp239
I0
F1.4955971174729819
sI1
Fnan
sI2
Fnan
sI3
Fnan
sI4
Fnan
sI5
Fnan
sI6
Fnan
sI7
Fnan
sI8
Fnan
ssg150
(dp240
I0
F2458372.7033449076
sI1
Fnan
sI2
Fnan
sI3
Fnan
sI4
Fnan
sI5
Fnan
sI6
Fnan
sI7
Fnan
sI8
Fnan
ssg152
(dp241
I0
F0.0024887731045372978
sI1
Fnan
sI2
Fnan
sI3
Fnan
sI4
Fnan
sI5
Fnan
sI6
Fnan
sI7
Fnan
sI8
Fnan
ssg154
(dp242
I0
F18.39925
sI1
F19.18997
sI2
F18.69568
sI3
F19.69363
sI4
F18.24604
sI5
F19.10319
sI6
F19.79436
sI7
F17.55614
sI8
F18.29167
ssg156
(dp243
I0
F10.223
sI1
F10.239
sI2
F10.224
sI3
F10.287
sI4
F10.222
sI5
F10.234
sI6
F10.228
sI7
F10.216
sI8
F10.217
ssg158
(dp244
I0
F0.5484794340595882
sI1
Fnan
sI2
Fnan
sI3
Fnan
sI4
Fnan
sI5
Fnan
sI6
Fnan
sI7
Fnan
sI8
Fnan
sssS'z'
p245
(dp246
g3
(dp247
I0
F0.36699785628953574
sI1
Fnan
sI2
Fnan
sI3
Fnan
sI4
Fnan
sI5
Fnan
sI6
Fnan
sI7
Fnan
sI8
Fnan
sI9
Fnan
sI10
Fnan
sI11
Fnan
sI12
Fnan
sI13
Fnan
sI14
Fnan
ssg5
(dp248
I0
S'NoError'
p249
sI1
S'NoError'
p250
sI2
S'NoError'
p251
sI3
S'NoError'
p252
sI4
S'NoError'
p253
sI5
S'NoError'
p254
sI6
S'NoError'
p255
sI7
S'NoError'
p256
sI8
S'NoError'
p257
sI9
S'NoError'
p258
sI10
S'NoError'
p259
sI11
S'NoError'
p260
sI12
S'NoError'
p261
sI13
S'NoError'
p262
sI14
S'NoError'
p263
ssg22
(dp264
I0
F0.007
sI1
F0.007
sI2
F0.007
sI3
F0.009
sI4
F0.007
sI5
F0.008
sI6
F0.007
sI7
F0.007
sI8
F0.007
sI9
F0.007
sI10
F0.007
sI11
F0.007
sI12
F0.008
sI13
F0.007
sI14
F0.007
ssg24
(dp265
I0
F0.9195538023901739
sI1
F0.9158557051626447
sI2
F0.9140243306473557
sI3
F0.9203909385845138
sI4
F0.9077151738441731
sI5
F0.9132860968955802
sI6
F0.9194283284830712
sI7
F0.9186436735012962
sI8
F0.9119680055837658
sI9
F0.9142254879337358
sI10
F0.9264380773033302
sI11
F0.9196439149726916
sI12
F0.9138240179996198
sI13
F0.9096480568083826
sI14
F0.9185839455373899
ssg26
(dp266
I0
F0.004805361359253904
sI1
Fnan
sI2
Fnan
sI3
Fnan
sI4
Fnan
sI5
Fnan
sI6
Fnan
sI7
Fnan
sI8
Fnan
sI9
Fnan
sI10
Fnan
sI11
Fnan
sI12
Fnan
sI13
Fnan
sI14
Fnan
ssg28
(dp267
I0
F0.9162153037098484
sI1
Fnan
sI2
Fnan
sI3
Fnan
sI4
Fnan
sI5
Fnan
sI6
Fnan
sI7
Fnan
sI8
Fnan
sI9
Fnan
sI10
Fnan
sI11
Fnan
sI12
Fnan
sI13
Fnan
sI14
Fnan
ssg30
(dp268
I0
F13.272
sI1
F13.286
sI2
F13.323
sI3
F13.535
sI4
F13.259
sI5
F13.394
sI6
F13.265
sI7
F13.266
sI8
F13.284
sI9
F13.28
sI10
F13.251
sI11
F13.274
sI12
F13.347
sI13
F13.297
sI14
F13.25
ssg32
(dp269
I0
F11.20817
sI1
F10.73975
sI2
F11.79368
sI3
F12.67303
sI4
F10.42316
sI5
F11.61371
sI6
F11.44064
sI7
F10.20018
sI8
F11.31221
sI9
F10.8175
sI10
F10.84214
sI11
F11.0388
sI12
F10.08385
sI13
F11.41206
sI14
F11.3278
ssg34
(dp270
I0
F2458372.6940740743
sI1
F2458372.712997685
sI2
F2458372.673564815
sI3
F2458372.672083333
sI4
F2458372.6933333334
sI5
F2458372.6925810184
sI6
F2458372.6713541667
sI7
F2458372.6948148147
sI8
F2458372.672824074
sI9
F2458372.711527778
sI10
F2458372.7122685187
sI11
F2458372.713738426
sI12
F2458372.710787037
sI13
F2458372.691851852
sI14
F2458372.6743055554
ssg36
(dp271
I0
F1.5969244533333333
sI1
Fnan
sI2
Fnan
sI3
Fnan
sI4
Fnan
sI5
Fnan
sI6
Fnan
sI7
Fnan
sI8
Fnan
sI9
Fnan
sI10
Fnan
sI11
Fnan
sI12
Fnan
sI13
Fnan
sI14
Fnan
ssg38
(dp272
I0
F2.1129816
sI1
Fnan
sI2
Fnan
sI3
Fnan
sI4
Fnan
sI5
Fnan
sI6
Fnan
sI7
Fnan
sI8
Fnan
sI9
Fnan
sI10
Fnan
sI11
Fnan
sI12
Fnan
sI13
Fnan
sI14
Fnan
ssg40
(dp273
I0
F0.3658959632442642
sI1
F0.365191170114844
sI2
F0.3603849836212267
sI3
F0.3637032187609483
sI4
F0.36826874428452194
sI5
F0.36588278065523006
sI6
F0.36733282356739755
sI7
F0.3712275685174752
sI8
F0.36726206840550596
sI9
F0.36748962852808503
sI10
F0.36680732644062525
sI11
F0.36968267698435336
sI12
F0.36783426995909313
sI13
F0.36083486295144795
sI14
F0.36862360452956056
ssg42
(dp274
I0
F0.0015599820948524708
sI1
Fnan
sI2
Fnan
sI3
Fnan
sI4
Fnan
sI5
Fnan
sI6
Fnan
sI7
Fnan
sI8
Fnan
sI9
Fnan
sI10
Fnan
sI11
Fnan
sI12
Fnan
sI13
Fnan
sI14
Fnan
ssg44
(dp275
I0
F2.446274266666667
sI1
Fnan
sI2
Fnan
sI3
Fnan
sI4
Fnan
sI5
Fnan
sI6
Fnan
sI7
Fnan
sI8
Fnan
sI9
Fnan
sI10
Fnan
sI11
Fnan
sI12
Fnan
sI13
Fnan
sI14
Fnan
ssg46
(dp276
I0
g249
sI1
g250
sI2
g251
sI3
g252
sI4
g253
sI5
g254
sI6
g255
sI7
g256
sI8
g257
sI9
g258
sI10
g259
sI11
g260
sI12
g261
sI13
g262
sI14
g263
ssg48
(dp277
I0
F0.002857432113832945
sI1
Fnan
sI2
Fnan
sI3
Fnan
sI4
Fnan
sI5
Fnan
sI6
Fnan
sI7
Fnan
sI8
Fnan
sI9
Fnan
sI10
Fnan
sI11
Fnan
sI12
Fnan
sI13
Fnan
sI14
Fnan
ssg50
(dp278
I0
F0.07118834843133344
sI1
Fnan
sI2
Fnan
sI3
Fnan
sI4
Fnan
sI5
Fnan
sI6
Fnan
sI7
Fnan
sI8
Fnan
sI9
Fnan
sI10
Fnan
sI11
Fnan
sI12
Fnan
sI13
Fnan
sI14
Fnan
ssg52
(dp279
I0
F2.1095041599999997
sI1
Fnan
sI2
Fnan
sI3
Fnan
sI4
Fnan
sI5
Fnan
sI6
Fnan
sI7
Fnan
sI8
Fnan
sI9
Fnan
sI10
Fnan
sI11
Fnan
sI12
Fnan
sI13
Fnan
sI14
Fnan
ssg54
(dp280
I0
F1.5092038787163284
sI1
F1.5076737540958531
sI2
F1.5130527532949247
sI3
F1.5014670099709349
sI4
F1.5208629257417923
sI5
F1.512298488005911
sI6
F1.508954328458381
sI7
F1.513317478399629
sI8
F1.5199060637927468
sI9
F1.502440293513673
sI10
F1.4996646863875036
sI11
F1.504894466463304
sI12
F1.5171115169498774
sI13
F1.5105971927570443
sI14
F1.5055492483669453
ssg56
(dp281
I0
g249
sI1
g250
sI2
g251
sI3
g252
sI4
g253
sI5
g254
sI6
g255
sI7
g256
sI8
g257
sI9
g258
sI10
g259
sI11
g260
sI12
g261
sI13
g262
sI14
g263
ssg58
(dp282
I0
F11.22383
sI1
F11.29603
sI2
F11.8625
sI3
F12.94865
sI4
F11.26908
sI5
F13.69764
sI6
F11.81097
sI7
F11.89608
sI8
F12.15109
sI9
F11.46125
sI10
F10.12226
sI11
F11.7836
sI12
F12.4048
sI13
F10.26348
sI14
F12.62221
ssg60
(dp283
I0
F11.938666666666668
sI1
Fnan
sI2
Fnan
sI3
Fnan
sI4
Fnan
sI5
Fnan
sI6
Fnan
sI7
Fnan
sI8
Fnan
sI9
Fnan
sI10
Fnan
sI11
Fnan
sI12
Fnan
sI13
Fnan
sI14
Fnan
ssg62
(dp284
I0
F0.6869363338907454
sI1
Fnan
sI2
Fnan
sI3
Fnan
sI4
Fnan
sI5
Fnan
sI6
Fnan
sI7
Fnan
sI8
Fnan
sI9
Fnan
sI10
Fnan
sI11
Fnan
sI12
Fnan
sI13
Fnan
sI14
Fnan
ssg64
(dp285
I0
F4.213995
sI1
F3.890797
sI2
F-1.418014
sI3
F5.795784
sI4
F-1.667605
sI5
F4.20649
sI6
F2.702138
sI7
F3.418237
sI8
F-2.815316
sI9
F3.532693
sI10
F2.758316
sI11
F-3.345348
sI12
F3.82722
sI13
F3.944602
sI14
F2.650735
ssg66
(dp286
I0
F12.279733333333331
sI1
Fnan
sI2
Fnan
sI3
Fnan
sI4
Fnan
sI5
Fnan
sI6
Fnan
sI7
Fnan
sI8
Fnan
sI9
Fnan
sI10
Fnan
sI11
Fnan
sI12
Fnan
sI13
Fnan
sI14
Fnan
ssg68
(dp287
I0
g249
sI1
g250
sI2
g251
sI3
g252
sI4
g253
sI5
g254
sI6
g255
sI7
g256
sI8
g257
sI9
g258
sI10
g259
sI11
g260
sI12
g261
sI13
g262
sI14
g263
ssg70
(dp288
I0
F3185.6053333333334
sI1
F3141.7450000000003
sI2
F3072.0493333333334
sI3
F2517.8883333333333
sI4
F3173.7156666666665
sI5
F2833.4713333333334
sI6
F3193.7613333333334
sI7
F3155.1516666666666
sI8
F3120.159
sI9
F3136.441
sI10
F3256.4593333333332
sI11
F3148.8733333333334
sI12
F2945.6893333333333
sI13
F3134.364
sI14
F3223.266666666667
ssg72
(dp289
I0
F1.00619
sI1
F1.015195
sI2
F1.005472
sI3
F1.005781
sI4
F1.0060040000000001
sI5
F1.005826
sI6
F1.0059559999999999
sI7
F1.006392
sI8
F1.005622
sI9
F1.014205
sI10
F1.014693
sI11
F1.015717
sI12
F1.013719
sI13
F1.00566
sI14
F1.0053379999999998
ssg74
(dp290
I0
F2578.776
sI1
F2561.4826666666663
sI2
F2503.773
sI3
F2045.4753333333333
sI4
F2601.273333333333
sI5
F2313.286
sI6
F2586.3296666666665
sI7
F2551.309
sI8
F2540.7039999999997
sI9
F2572.64
sI10
F2622.1169999999997
sI11
F2555.6639999999998
sI12
F2395.4210000000003
sI13
F2577.3373333333334
sI14
F2619.5666666666666
ssg76
(dp291
I0
F4349.8133333333335
sI1
F4299.303333333333
sI2
F4218.256666666666
sI3
F3425.8700000000003
sI4
F4391.483333333334
sI5
F3891.7166666666667
sI6
F4360.946666666667
sI7
F4317.843333333333
sI8
F4301.99
sI9
F4288.776666666667
sI10
F4407.946666666667
sI11
F4292.363333333333
sI12
F4051.5299999999997
sI13
F4314.04
sI14
F4398.336666666667
ssg78
(dp292
I0
F11.53523
sI1
F11.07875
sI2
F11.89147
sI3
F12.17941
sI4
F10.81263
sI5
F11.53334
sI6
F12.08382
sI7
F10.66173
sI8
F12.01179
sI9
F10.26397
sI10
F11.27257
sI11
F11.54961
sI12
F11.63447
sI13
F10.32594
sI14
F12.06428
ssg80
(dp293
I0
F12.471
sI1
F12.479
sI2
F12.504
sI3
F12.723
sI4
F12.462
sI5
F12.589
sI6
F12.468
sI7
F12.483
sI8
F12.488
sI9
F12.474
sI10
F12.453
sI11
F12.481
sI12
F12.552
sI13
F12.472
sI14
F12.454
ssg82
(dp294
I0
F0.003
sI1
F0.003
sI2
F0.003
sI3
F0.004
sI4
F0.003
sI5
F0.003
sI6
F0.003
sI7
F0.003
sI8
F0.003
sI9
F0.003
sI10
F0.003
sI11
F0.003
sI12
F0.003
sI13
F0.003
sI14
F0.003
ssg84
(dp295
I0
F0.3664281127043053
sI1
Fnan
sI2
Fnan
sI3
Fnan
sI4
Fnan
sI5
Fnan
sI6
Fnan
sI7
Fnan
sI8
Fnan
sI9
Fnan
sI10
Fnan
sI11
Fnan
sI12
Fnan
sI13
Fnan
sI14
Fnan
ssg86
(dp296
I0
F12.503533333333333
sI1
Fnan
sI2
Fnan
sI3
Fnan
sI4
Fnan
sI5
Fnan
sI6
Fnan
sI7
Fnan
sI8
Fnan
sI9
Fnan
sI10
Fnan
sI11
Fnan
sI12
Fnan
sI13
Fnan
sI14
Fnan
ssg88
(dp297
I0
F12.242
sI1
F12.257
sI2
F12.281
sI3
F12.497
sI4
F12.246
sI5
F12.369
sI6
F12.239
sI7
F12.252
sI8
F12.265
sI9
F12.259
sI10
F12.218
sI11
F12.255
sI12
F12.327
sI13
F12.26
sI14
F12.229
ssg90
(dp298
I0
F1.8816
sI1
F3.122274
sI2
F3.86025
sI3
F6.076082
sI4
F-1.942378
sI5
F4.369857
sI6
F-0.5931569
sI7
F3.331356
sI8
F4.407855
sI9
F-2.510297
sI10
F2.184132
sI11
F-2.390148
sI12
F3.770715
sI13
F0.8313907
sI14
F-2.445665
ssg92
(dp299
I0
F0.07175918723328022
sI1
Fnan
sI2
Fnan
sI3
Fnan
sI4
Fnan
sI5
Fnan
sI6
Fnan
sI7
Fnan
sI8
Fnan
sI9
Fnan
sI10
Fnan
sI11
Fnan
sI12
Fnan
sI13
Fnan
sI14
Fnan
ssg94
(dp300
I0
F0.6844413334078849
sI1
F0.6884735999340593
sI2
F0.6868773409511206
sI3
F0.6882767496996148
sI4
F0.6876946220009105
sI5
F0.6879468648311393
sI6
F0.6846934829689424
sI7
F0.6828076293373675
sI8
F0.6846275923590324
sI9
F0.6929466893742688
sI10
F0.6842322810143407
sI11
F0.6868922773141203
sI12
F0.684677980176697
sI13
F0.6920508966305623
sI14
F0.687405668361119
ssg96
(dp301
I0
F30.0
sI1
F30.0
sI2
F30.0
sI3
F30.0
sI4
F30.0
sI5
F30.0
sI6
F30.0
sI7
F30.0
sI8
F30.0
sI9
F30.0
sI10
F30.0
sI11
F30.0
sI12
F30.0
sI13
F30.0
sI14
F30.0
ssg98
(dp302
I0
F0.004
sI1
F0.004
sI2
F0.004
sI3
F0.005
sI4
F0.004
sI5
F0.005
sI6
F0.004
sI7
F0.004
sI8
F0.004
sI9
F0.004
sI10
F0.004
sI11
F0.004
sI12
F0.004
sI13
F0.004
sI14
F0.004
ssg100
(dp303
I0
F0.004
sI1
F0.004
sI2
F0.004
sI3
F0.004
sI4
F0.004
sI5
F0.004
sI6
F0.004
sI7
F0.004
sI8
F0.004
sI9
F0.004
sI10
F0.004
sI11
F0.004
sI12
F0.004
sI13
F0.004
sI14
F0.004
ssg102
(dp304
I0
F4.558871
sI1
F3.782052
sI2
F3.461696
sI3
F6.196029
sI4
F-3.377423
sI5
F4.071622
sI6
F3.190575
sI7
F-2.665901
sI8
F3.018142
sI9
F2.619218
sI10
F4.580913
sI11
F-0.9199906
sI12
F1.661018
sI13
F3.385925
sI14
F-1.920184
ssg104
(dp305
I0
S"KIC8462852-20180911at043928_-25-1X1-030-z'_cal.fts.mag.1"
p306
sI1
S"KIC8462852-20180911at050643_-25-1X1-030-z'_cal.fts.mag.1"
p307
sI2
S"KIC8462852-20180911at040956_-25-1X1-030-z'_cal.fts.mag.1"
p308
sI3
S"KIC8462852-20180911at040748_-25-1X1-030-z'_cal.fts.mag.1"
p309
sI4
S"KIC8462852-20180911at043824_-25-1X1-030-z'_cal.fts.mag.1"
p310
sI5
S"KIC8462852-20180911at043719_-25-1X1-030-z'_cal.fts.mag.1"
p311
sI6
S"KIC8462852-20180911at040643_-25-1X1-030-z'_cal.fts.mag.1"
p312
sI7
S"KIC8462852-20180911at044032_-25-1X1-030-z'_cal.fts.mag.1"
p313
sI8
S"KIC8462852-20180911at040852_-25-1X1-030-z'_cal.fts.mag.1"
p314
sI9
S"KIC8462852-20180911at050436_-25-1X1-030-z'_cal.fts.mag.1"
p315
sI10
S"KIC8462852-20180911at050540_-25-1X1-030-z'_cal.fts.mag.1"
p316
sI11
S"KIC8462852-20180911at050747_-25-1X1-030-z'_cal.fts.mag.1"
p317
sI12
S"KIC8462852-20180911at050330_-25-1X1-030-z'_cal.fts.mag.1"
p318
sI13
S"KIC8462852-20180911at043614_-25-1X1-030-z'_cal.fts.mag.1"
p319
sI14
S"KIC8462852-20180911at041100_-25-1X1-030-z'_cal.fts.mag.1"
p320
ssg121
(dp321
I0
F0.006446833784053545
sI1
Fnan
sI2
Fnan
sI3
Fnan
sI4
Fnan
sI5
Fnan
sI6
Fnan
sI7
Fnan
sI8
Fnan
sI9
Fnan
sI10
Fnan
sI11
Fnan
sI12
Fnan
sI13
Fnan
sI14
Fnan
ssg123
(dp322
I0
F1233.581
sI1
F1217.612
sI2
F1176.5463333333332
sI3
F968.5699999999999
sI4
F1247.998
sI5
F1102.3406666666667
sI6
F1241.712
sI7
F1240.4326666666668
sI8
F1219.6593333333333
sI9
F1224.703
sI10
F1257.724
sI11
F1231.8936666666666
sI12
F1151.645
sI13
F1205.8790000000001
sI14
F1258.3790000000001
ssg125
(dp323
I0
F0.07096867182745083
sI1
Fnan
sI2
Fnan
sI3
Fnan
sI4
Fnan
sI5
Fnan
sI6
Fnan
sI7
Fnan
sI8
Fnan
sI9
Fnan
sI10
Fnan
sI11
Fnan
sI12
Fnan
sI13
Fnan
sI14
Fnan
ssg127
(dp324
I0
S"z'"
p325
sI1
S"z'"
p326
sI2
S"z'"
p327
sI3
S"z'"
p328
sI4
S"z'"
p329
sI5
S"z'"
p330
sI6
S"z'"
p331
sI7
S"z'"
p332
sI8
S"z'"
p333
sI9
S"z'"
p334
sI10
S"z'"
p335
sI11
S"z'"
p336
sI12
S"z'"
p337
sI13
S"z'"
p338
sI14
S"z'"
p339
ssg144
(dp340
I0
F0.002975332522655705
sI1
Fnan
sI2
Fnan
sI3
Fnan
sI4
Fnan
sI5
Fnan
sI6
Fnan
sI7
Fnan
sI8
Fnan
sI9
Fnan
sI10
Fnan
sI11
Fnan
sI12
Fnan
sI13
Fnan
sI14
Fnan
ssg146
(dp341
I0
F3.341999
sI1
F2.364528
sI2
F3.461986
sI3
F4.726964
sI4
F-2.669207
sI5
F3.357678
sI6
F3.717568
sI7
F3.285321
sI8
F2.559209
sI9
F1.717015
sI10
F3.166616
sI11
F3.656665
sI12
F4.75325
sI13
F-3.229276
sI14
F2.483798
ssg148
(dp342
I0
F1.5097996056609901
sI1
Fnan
sI2
Fnan
sI3
Fnan
sI4
Fnan
sI5
Fnan
sI6
Fnan
sI7
Fnan
sI8
Fnan
sI9
Fnan
sI10
Fnan
sI11
Fnan
sI12
Fnan
sI13
Fnan
sI14
Fnan
ssg150
(dp343
I0
F2458372.6933333334
sI1
Fnan
sI2
Fnan
sI3
Fnan
sI4
Fnan
sI5
Fnan
sI6
Fnan
sI7
Fnan
sI8
Fnan
sI9
Fnan
sI10
Fnan
sI11
Fnan
sI12
Fnan
sI13
Fnan
sI14
Fnan
ssg152
(dp344
I0
F0.002975332522655705
sI1
Fnan
sI2
Fnan
sI3
Fnan
sI4
Fnan
sI5
Fnan
sI6
Fnan
sI7
Fnan
sI8
Fnan
sI9
Fnan
sI10
Fnan
sI11
Fnan
sI12
Fnan
sI13
Fnan
sI14
Fnan
ssg154
(dp345
I0
F11.69041
sI1
F12.88676
sI2
F12.52134
sI3
F13.73232
sI4
F12.18984
sI5
F13.8678
sI6
F13.21009
sI7
F11.9488
sI8
F11.78956
sI9
F11.95966
sI10
F11.9054
sI11
F11.61452
sI12
F12.73934
sI13
F11.5341
sI14
F13.78015
ssg156
(dp346
I0
F11.904
sI1
F11.917
sI2
F11.937
sI3
F12.163
sI4
F11.893
sI5
F12.025
sI6
F11.901
sI7
F11.912
sI8
F11.916
sI9
F11.919
sI10
F11.889
sI11
F11.918
sI12
F11.981
sI13
F11.913
sI14
F11.892
ssg158
(dp347
I0
F0.3664281127043053
sI1
Fnan
sI2
Fnan
sI3
Fnan
sI4
Fnan
sI5
Fnan
sI6
Fnan
sI7
Fnan
sI8
Fnan
sI9
Fnan
sI10
Fnan
sI11
Fnan
sI12
Fnan
sI13
Fnan
sI14
Fnan
sssS'g'
p348
(dp349
g3
(dp350
I0
F0.8677649451392129
sI1
Fnan
sI2
Fnan
sI3
Fnan
sI4
Fnan
sI5
Fnan
sI6
Fnan
sI7
Fnan
sI8
Fnan
sI9
Fnan
sI10
Fnan
sI11
Fnan
sI12
Fnan
sI13
Fnan
ssg5
(dp351
I0
S'NoError'
p352
sI1
S'NoError'
p353
sI2
S'NoError'
p354
sI3
S'NoError'
p355
sI4
S'NoError'
p356
sI5
S'NoError'
p357
sI6
S'NoError'
p358
sI7
S'NoError'
p359
sI8
S'NoError'
p360
sI9
S'NoError'
p361
sI10
S'NoError'
p362
sI11
S'NoError'
p363
sI12
S'NoError'
p364
sI13
S'NoError'
p365
ssg22
(dp366
I0
F0.002
sI1
F0.002
sI2
F0.002
sI3
F0.002
sI4
F0.002
sI5
F0.002
sI6
F0.002
sI7
F0.002
sI8
F0.002
sI9
F0.002
sI10
F0.002
sI11
F0.002
sI12
F0.002
sI13
F0.002
ssg24
(dp367
I0
F0.8780302896943452
sI1
F0.8757919526728146
sI2
F0.8782905041362281
sI3
F0.8784871432480598
sI4
F0.8773492353007488
sI5
F0.8788618086368986
sI6
F0.8782423675242351
sI7
F0.8775529390944636
sI8
F0.8784404006267805
sI9
F0.8755074396327029
sI10
F0.8773512917651475
sI11
F0.8777186926691057
sI12
F0.8810658912815498
sI13
F0.873345362655816
ssg26
(dp368
I0
F0.0017985841845631612
sI1
Fnan
sI2
Fnan
sI3
Fnan
sI4
Fnan
sI5
Fnan
sI6
Fnan
sI7
Fnan
sI8
Fnan
sI9
Fnan
sI10
Fnan
sI11
Fnan
sI12
Fnan
sI13
Fnan
ssg28
(dp369
I0
F0.8775739513527782
sI1
Fnan
sI2
Fnan
sI3
Fnan
sI4
Fnan
sI5
Fnan
sI6
Fnan
sI7
Fnan
sI8
Fnan
sI9
Fnan
sI10
Fnan
sI11
Fnan
sI12
Fnan
sI13
Fnan
ssg30
(dp370
I0
F11.374
sI1
F11.348
sI2
F11.342
sI3
F11.375
sI4
F11.351
sI5
F11.377
sI6
F11.355
sI7
F11.428
sI8
F11.354
sI9
F11.354
sI10
F11.354
sI11
F11.401
sI12
F11.337
sI13
F11.417
ssg32
(dp371
I0
F10.95854
sI1
F11.11458
sI2
F10.72764
sI3
F11.58938
sI4
F10.29403
sI5
F10.90994
sI6
F11.72563
sI7
F10.94566
sI8
F10.99412
sI9
F11.57208
sI10
F11.95594
sI11
F13.02956
sI12
F11.03236
sI13
F12.08407
ssg34
(dp372
I0
F2458372.682210648
sI1
F2458372.682939815
sI2
F2458372.6996412035
sI3
F2458372.6624305556
sI4
F2458372.7003819444
sI5
F2458372.663159722
sI6
F2458372.6601157407
sI7
F2458372.661585648
sI8
F2458372.701851852
sI9
F2458372.6814699075
sI10
F2458372.7025925927
sI11
F2458372.6807407406
sI12
F2458372.7011226853
sI13
F2458372.6608449076
ssg36
(dp373
I0
F1.8648403571428571
sI1
Fnan
sI2
Fnan
sI3
Fnan
sI4
Fnan
sI5
Fnan
sI6
Fnan
sI7
Fnan
sI8
Fnan
sI9
Fnan
sI10
Fnan
sI11
Fnan
sI12
Fnan
sI13
Fnan
ssg38
(dp374
I0
F2.6859235000000004
sI1
Fnan
sI2
Fnan
sI3
Fnan
sI4
Fnan
sI5
Fnan
sI6
Fnan
sI7
Fnan
sI8
Fnan
sI9
Fnan
sI10
Fnan
sI11
Fnan
sI12
Fnan
sI13
Fnan
ssg40
(dp375
I0
F0.8670848447877655
sI1
F0.8688356702697483
sI2
F0.8639869477469277
sI3
F0.8683355215195266
sI4
F0.8726340318472181
sI5
F0.8706350623731137
sI6
F0.865904719837304
sI7
F0.8635434724395022
sI8
F0.8713187266933515
sI9
F0.8673186287408818
sI10
F0.8694352549865987
sI11
F0.8673553611883033
sI12
F0.8694251310875292
sI13
F0.8610458352468873
ssg42
(dp376
I0
F0.0023142516141606458
sI1
Fnan
sI2
Fnan
sI3
Fnan
sI4
Fnan
sI5
Fnan
sI6
Fnan
sI7
Fnan
sI8
Fnan
sI9
Fnan
sI10
Fnan
sI11
Fnan
sI12
Fnan
sI13
Fnan
ssg44
(dp377
I0
F2.0207545
sI1
Fnan
sI2
Fnan
sI3
Fnan
sI4
Fnan
sI5
Fnan
sI6
Fnan
sI7
Fnan
sI8
Fnan
sI9
Fnan
sI10
Fnan
sI11
Fnan
sI12
Fnan
sI13
Fnan
ssg46
(dp378
I0
g352
sI1
g353
sI2
g354
sI3
g355
sI4
g356
sI5
g357
sI6
g358
sI7
g359
sI8
g360
sI9
g361
sI10
g362
sI11
g363
sI12
g364
sI13
g365
ssg48
(dp379
I0
F0.002462426428831965
sI1
Fnan
sI2
Fnan
sI3
Fnan
sI4
Fnan
sI5
Fnan
sI6
Fnan
sI7
Fnan
sI8
Fnan
sI9
Fnan
sI10
Fnan
sI11
Fnan
sI12
Fnan
sI13
Fnan
ssg50
(dp380
I0
F0.02686647897115828
sI1
Fnan
sI2
Fnan
sI3
Fnan
sI4
Fnan
sI5
Fnan
sI6
Fnan
sI7
Fnan
sI8
Fnan
sI9
Fnan
sI10
Fnan
sI11
Fnan
sI12
Fnan
sI13
Fnan
ssg52
(dp381
I0
F1.7113340000000001
sI1
Fnan
sI2
Fnan
sI3
Fnan
sI4
Fnan
sI5
Fnan
sI6
Fnan
sI7
Fnan
sI8
Fnan
sI9
Fnan
sI10
Fnan
sI11
Fnan
sI12
Fnan
sI13
Fnan
ssg54
(dp382
I0
F1.517262892639167
sI1
F1.5193838939084408
sI2
F1.5122108614848986
sI3
F1.5219753633999313
sI4
F1.5165894055878095
sI5
F1.5172188728077955
sI6
F1.5273055713343187
sI7
F1.5171326570464356
sI8
F1.5146491689009183
sI9
F1.5168141530595358
sI10
F1.519897904142392
sI11
F1.5188057098478964
sI12
F1.507558970928777
sI13
F1.526702402321909
ssg56
(dp383
I0
g352
sI1
g353
sI2
g354
sI3
g355
sI4
g356
sI5
g357
sI6
g358
sI7
g359
sI8
g360
sI9
g361
sI10
g362
sI11
g363
sI12
g364
sI13
g365
ssg58
(dp384
I0
F11.70256
sI1
F10.4449
sI2
F11.2984
sI3
F12.07798
sI4
F11.60034
sI5
F11.02541
sI6
F10.95512
sI7
F12.03435
sI8
F11.86225
sI9
F11.67285
sI10
F11.35
sI11
F10.53878
sI12
F9.735488
sI13
F11.52693
ssg60
(dp385
I0
F10.9345
sI1
Fnan
sI2
Fnan
sI3
Fnan
sI4
Fnan
sI5
Fnan
sI6
Fnan
sI7
Fnan
sI8
Fnan
sI9
Fnan
sI10
Fnan
sI11
Fnan
sI12
Fnan
sI13
Fnan
ssg62
(dp386
I0
F0.7156176353967558
sI1
Fnan
sI2
Fnan
sI3
Fnan
sI4
Fnan
sI5
Fnan
sI6
Fnan
sI7
Fnan
sI8
Fnan
sI9
Fnan
sI10
Fnan
sI11
Fnan
sI12
Fnan
sI13
Fnan
ssg64
(dp387
I0
F2.609089
sI1
F3.697267
sI2
F3.780403
sI3
F2.965978
sI4
F3.62513
sI5
F3.830406
sI6
F2.480086
sI7
F4.007663
sI8
F-2.01535
sI9
F1.488606
sI10
F1.070087
sI11
F3.469484
sI12
F2.219854
sI13
F4.374226
ssg66
(dp388
I0
F11.311499999999997
sI1
Fnan
sI2
Fnan
sI3
Fnan
sI4
Fnan
sI5
Fnan
sI6
Fnan
sI7
Fnan
sI8
Fnan
sI9
Fnan
sI10
Fnan
sI11
Fnan
sI12
Fnan
sI13
Fnan
ssg68
(dp389
I0
g352
sI1
g353
sI2
g354
sI3
g355
sI4
g356
sI5
g357
sI6
g358
sI7
g359
sI8
g360
sI9
g361
sI10
g362
sI11
g363
sI12
g364
sI13
g365
ssg70
(dp390
I0
F7481.740000000001
sI1
F7633.456666666667
sI2
F7733.633333333333
sI3
F7464.073333333334
sI4
F7588.04
sI5
F7435.866666666667
sI6
F7626.416666666667
sI7
F7140.6
sI8
F7583.113333333333
sI9
F7601.933333333333
sI10
F7594.17
sI11
F7294.433333333333
sI12
F7734.883333333333
sI13
F7211.736666666667
ssg72
(dp391
I0
F1.004638
sI1
F1.004638
sI2
F1.008002
sI3
F1.009004
sI4
F1.008292
sI5
F1.008683
sI6
F1.0100879999999999
sI7
F1.009385
sI8
F1.0089110000000001
sI9
F1.004645
sI10
F1.0092370000000002
sI11
F1.004664
sI12
F1.0085950000000001
sI13
F1.009729
ssg74
(dp392
I0
F6463.1033333333335
sI1
F6610.843333333333
sI2
F6698.463333333333
sI3
F6424.206666666667
sI4
F6565.27
sI5
F6414.536666666667
sI6
F6545.233333333334
sI7
F6173.933333333333
sI8
F6556.596666666666
sI9
F6597.116666666667
sI10
F6557.236666666667
sI11
F6298.6900000000005
sI12
F6687.053333333333
sI13
F6243.8566666666675
ssg76
(dp393
I0
F10578.996666666668
sI1
F10821.28
sI2
F10912.186666666666
sI3
F10568.81
sI4
F10732.380000000001
sI5
F10507.046666666667
sI6
F10822.22
sI7
F10099.956666666667
sI8
F10708.35
sI9
F10768.66
sI10
F10754.346666666668
sI11
F10322.656666666668
sI12
F10870.96
sI13
F10271.343333333332
ssg78
(dp394
I0
F11.71014
sI1
F10.55596
sI2
F9.178896
sI3
F11.49653
sI4
F10.25193
sI5
F9.932508
sI6
F11.37064
sI7
F11.65183
sI8
F10.74571
sI9
F11.38342
sI10
F10.49229
sI11
F11.50676
sI12
F10.06849
sI13
F10.86844
ssg80
(dp395
I0
F11.474
sI1
F11.449
sI2
F11.435
sI3
F11.48
sI4
F11.457
sI5
F11.482
sI6
F11.46
sI7
F11.524
sI8
F11.458
sI9
F11.452
sI10
F11.458
sI11
F11.502
sI12
F11.437
sI13
F11.511
ssg82
(dp396
I0
F0.002
sI1
F0.002
sI2
F0.002
sI3
F0.002
sI4
F0.002
sI5
F0.002
sI6
F0.002
sI7
F0.002
sI8
F0.002
sI9
F0.002
sI10
F0.002
sI11
F0.002
sI12
F0.002
sI13
F0.002
ssg84
(dp397
I0
F0.8676328006260471
sI1
Fnan
sI2
Fnan
sI3
Fnan
sI4
Fnan
sI5
Fnan
sI6
Fnan
sI7
Fnan
sI8
Fnan
sI9
Fnan
sI10
Fnan
sI11
Fnan
sI12
Fnan
sI13
Fnan
ssg86
(dp398
I0
F11.469928571428571
sI1
Fnan
sI2
Fnan
sI3
Fnan
sI4
Fnan
sI5
Fnan
sI6
Fnan
sI7
Fnan
sI8
Fnan
sI9
Fnan
sI10
Fnan
sI11
Fnan
sI12
Fnan
sI13
Fnan
ssg88
(dp399
I0
F11.315
sI1
F11.293
sI2
F11.279
sI3
F11.318
sI4
F11.3
sI5
F11.322
sI6
F11.294
sI7
F11.366
sI8
F11.3
sI9
F11.298
sI10
F11.299
sI11
F11.343
sI12
F11.279
sI13
F11.355
ssg90
(dp400
I0
F-1.570652
sI1
F3.220974
sI2
F4.022356
sI3
F1.171147
sI4
F1.677275
sI5
F-3.242025
sI6
F3.428834
sI7
F4.324966
sI8
F3.529558
sI9
F-3.357955
sI10
F3.582513
sI11
F2.2692
sI12
F2.616549
sI13
F4.435025
ssg92
(dp401
I0
F0.025473213683880197
sI1
Fnan
sI2
Fnan
sI3
Fnan
sI4
Fnan
sI5
Fnan
sI6
Fnan
sI7
Fnan
sI8
Fnan
sI9
Fnan
sI10
Fnan
sI11
Fnan
sI12
Fnan
sI13
Fnan
ssg94
(dp402
I0
F0.7157076095640986
sI1
F0.7164386523351457
sI2
F0.7184949048455186
sI3
F0.7124991104214247
sI4
F0.7167161014867562
sI5
F0.7149938861656431
sI6
F0.7095628204505086
sI7
F0.7162104394541011
sI8
F0.7169023655661594
sI9
F0.7182257586309134
sI10
F0.7147429719568611
sI11
F0.7150658820497597
sI12
F0.7188121724483331
sI13
F0.7142742201793584
ssg96
(dp403
I0
F30.0
sI1
F30.0
sI2
F30.0
sI3
F30.0
sI4
F30.0
sI5
F30.0
sI6
F30.0
sI7
F30.0
sI8
F30.0
sI9
F30.0
sI10
F30.0
sI11
F30.0
sI12
F30.0
sI13
F30.0
ssg98
(dp404
I0
F0.002
sI1
F0.002
sI2
F0.002
sI3
F0.002
sI4
F0.002
sI5
F0.002
sI6
F0.002
sI7
F0.002
sI8
F0.002
sI9
F0.002
sI10
F0.002
sI11
F0.002
sI12
F0.002
sI13
F0.002
ssg100
(dp405
I0
F0.002
sI1
F0.002
sI2
F0.002
sI3
F0.002
sI4
F0.002
sI5
F0.002
sI6
F0.002
sI7
F0.002
sI8
F0.002
sI9
F0.002
sI10
F0.002
sI11
F0.002
sI12
F0.002
sI13
F0.002
ssg102
(dp406
I0
F-2.702272
sI1
F3.571665
sI2
F-2.611569
sI3
F2.10341
sI4
F2.333667
sI5
F1.482627
sI6
F3.005589
sI7
F4.990299
sI8
F-2.739591
sI9
F2.331583
sI10
F0.817315
sI11
F3.666037
sI12
F3.717461
sI13
F3.992455
ssg104
(dp407
I0
S"KIC8462852-20180911at042223_-25-1X1-030-g'_cal.fts.mag.1"
p408
sI1
S"KIC8462852-20180911at042326_-25-1X1-030-g'_cal.fts.mag.1"
p409
sI2
S"KIC8462852-20180911at044724_-25-1X1-030-g'_cal.fts.mag.1"
p410
sI3
S"KIC8462852-20180911at035354_-25-1X1-030-g'_cal.fts.mag.1"
p411
sI4
S"KIC8462852-20180911at044833_-25-1X1-030-g'_cal.fts.mag.1"
p412
sI5
S"KIC8462852-20180911at035457_-25-1X1-030-g'_cal.fts.mag.1"
p413
sI6
S"KIC8462852-20180911at035023_-25-1X1-030-g'_cal.fts.mag.1"
p414
sI7
S"KIC8462852-20180911at035241_-25-1X1-030-g'_cal.fts.mag.1"
p415
sI8
S"KIC8462852-20180911at045040_-25-1X1-030-g'_cal.fts.mag.1"
p416
sI9
S"KIC8462852-20180911at042119_-25-1X1-030-g'_cal.fts.mag.1"
p417
sI10
S"KIC8462852-20180911at045144_-25-1X1-030-g'_cal.fts.mag.1"
p418
sI11
S"KIC8462852-20180911at042011_-25-1X1-030-g'_cal.fts.mag.1"
p419
sI12
S"KIC8462852-20180911at044937_-25-1X1-030-g'_cal.fts.mag.1"
p420
sI13
S"KIC8462852-20180911at035137_-25-1X1-030-g'_cal.fts.mag.1"
p421
ssg121
(dp422
I0
F0.0051380332607451965
sI1
Fnan
sI2
Fnan
sI3
Fnan
sI4
Fnan
sI5
Fnan
sI6
Fnan
sI7
Fnan
sI8
Fnan
sI9
Fnan
sI10
Fnan
sI11
Fnan
sI12
Fnan
sI13
Fnan
ssg123
(dp423
I0
F7088.083333333333
sI1
F7259.29
sI2
F7299.043333333333
sI3
F7078.986666666667
sI4
F7238.7
sI5
F7068.816666666667
sI6
F7214.1033333333335
sI7
F6739.8099999999995
sI8
F7216.86
sI9
F7218.320000000001
sI10
F7217.98
sI11
F6914.493333333333
sI12
F7330.093333333333
sI13
F6809.993333333333
ssg125
(dp424
I0
F0.02705681852272024
sI1
Fnan
sI2
Fnan
sI3
Fnan
sI4
Fnan
sI5
Fnan
sI6
Fnan
sI7
Fnan
sI8
Fnan
sI9
Fnan
sI10
Fnan
sI11
Fnan
sI12
Fnan
sI13
Fnan
ssg127
(dp425
I0
S"g'"
p426
sI1
S"g'"
p427
sI2
S"g'"
p428
sI3
S"g'"
p429
sI4
S"g'"
p430
sI5
S"g'"
p431
sI6
S"g'"
p432
sI7
S"g'"
p433
sI8
S"g'"
p434
sI9
S"g'"
p435
sI10
S"g'"
p436
sI11
S"g'"
p437
sI12
S"g'"
p438
sI13
S"g'"
p439
ssg144
(dp440
I0
F0.0031971032454386314
sI1
Fnan
sI2
Fnan
sI3
Fnan
sI4
Fnan
sI5
Fnan
sI6
Fnan
sI7
Fnan
sI8
Fnan
sI9
Fnan
sI10
Fnan
sI11
Fnan
sI12
Fnan
sI13
Fnan
ssg146
(dp441
I0
F4.280182
sI1
F3.66946
sI2
F2.419584
sI3
F-2.134856
sI4
F3.8712
sI5
F2.377947
sI6
F-3.580154
sI7
F5.434209
sI8
F3.749779
sI9
F3.898863
sI10
F2.169529
sI11
F-3.352077
sI12
F3.059409
sI13
F2.427488
ssg148
(dp442
I0
F1.5181077019578735
sI1
Fnan
sI2
Fnan
sI3
Fnan
sI4
Fnan
sI5
Fnan
sI6
Fnan
sI7
Fnan
sI8
Fnan
sI9
Fnan
sI10
Fnan
sI11
Fnan
sI12
Fnan
sI13
Fnan
ssg150
(dp443
I0
F2458372.6818402777
sI1
Fnan
sI2
Fnan
sI3
Fnan
sI4
Fnan
sI5
Fnan
sI6
Fnan
sI7
Fnan
sI8
Fnan
sI9
Fnan
sI10
Fnan
sI11
Fnan
sI12
Fnan
sI13
Fnan
ssg152
(dp444
I0
F0.0031971032454386314
sI1
Fnan
sI2
Fnan
sI3
Fnan
sI4
Fnan
sI5
Fnan
sI6
Fnan
sI7
Fnan
sI8
Fnan
sI9
Fnan
sI10
Fnan
sI11
Fnan
sI12
Fnan
sI13
Fnan
ssg154
(dp445
I0
F12.17857
sI1
F12.47523
sI2
F12.58305
sI3
F12.6545
sI4
F11.7419
sI5
F12.57323
sI6
F12.3998
sI7
F13.16473
sI8
F12.66322
sI9
F12.88972
sI10
F12.29757
sI11
F12.92727
sI12
F12.06009
sI13
F12.51236
ssg156
(dp446
I0
F10.939
sI1
F10.914
sI2
F10.905
sI3
F10.94
sI4
F10.923
sI5
F10.946
sI6
F10.914
sI7
F10.989
sI8
F10.926
sI9
F10.92
sI10
F10.921
sI11
F10.966
sI12
F10.909
sI13
F10.971
ssg158
(dp447
I0
F0.8676328006260471
sI1
Fnan
sI2
Fnan
sI3
Fnan
sI4
Fnan
sI5
Fnan
sI6
Fnan
sI7
Fnan
sI8
Fnan
sI9
Fnan
sI10
Fnan
sI11
Fnan
sI12
Fnan
sI13
Fnan
sssS'V'
p448
(dp449
g3
(dp450
I0
F0.6915113330260473
sI1
Fnan
sI2
Fnan
sI3
Fnan
sI4
Fnan
sI5
Fnan
sI6
Fnan
sI7
Fnan
sI8
Fnan
sI9
Fnan
sI10
Fnan
sI11
Fnan
sI12
Fnan
sI13
Fnan
sI14
Fnan
ssg5
(dp451
I0
S'NoError'
p452
sI1
S'NoError'
p453
sI2
S'NoError'
p454
sI3
S'NoError'
p455
sI4
S'NoError'
p456
sI5
S'NoError'
p457
sI6
S'NoError'
p458
sI7
S'NoError'
p459
sI8
S'NoError'
p460
sI9
S'NoError'
p461
sI10
S'NoError'
p462
sI11
S'NoError'
p463
sI12
S'NoError'
p464
sI13
S'NoError'
p465
sI14
S'NoError'
p466
ssg22
(dp467
I0
F0.002
sI1
F0.002
sI2
F0.002
sI3
F0.002
sI4
F0.002
sI5
F0.002
sI6
F0.002
sI7
F0.002
sI8
F0.002
sI9
F0.002
sI10
F0.002
sI11
F0.002
sI12
F0.002
sI13
F0.002
sI14
F0.002
ssg24
(dp468
I0
F0.8791443719936465
sI1
F0.8891982434119997
sI2
F0.8811568746966197
sI3
F0.8850218401705613
sI4
F0.8873019845534457
sI5
F0.8838580561173052
sI6
F0.8846353369875228
sI7
F0.890197029005791
sI8
F0.8892144972229953
sI9
F0.8872428974021684
sI10
F0.8871530324962247
sI11
F0.881939886786158
sI12
F0.8841752897033074
sI13
F0.8851026675243151
sI14
F0.885948804757456
ssg26
(dp469
I0
F0.0031187683199533694
sI1
Fnan
sI2
Fnan
sI3
Fnan
sI4
Fnan
sI5
Fnan
sI6
Fnan
sI7
Fnan
sI8
Fnan
sI9
Fnan
sI10
Fnan
sI11
Fnan
sI12
Fnan
sI13
Fnan
sI14
Fnan
ssg28
(dp470
I0
F0.8854193875219677
sI1
Fnan
sI2
Fnan
sI3
Fnan
sI4
Fnan
sI5
Fnan
sI6
Fnan
sI7
Fnan
sI8
Fnan
sI9
Fnan
sI10
Fnan
sI11
Fnan
sI12
Fnan
sI13
Fnan
sI14
Fnan
ssg30
(dp471
I0
F11.379
sI1
F11.384
sI2
F11.455
sI3
F11.362
sI4
F11.502
sI5
F11.375
sI6
F11.356
sI7
F11.426
sI8
F11.374
sI9
F11.378
sI10
F11.403
sI11
F11.408
sI12
F11.37
sI13
F11.378
sI14
F11.388
ssg32
(dp472
I0
F12.40231
sI1
F11.16823
sI2
F13.07896
sI3
F11.91454
sI4
F13.35323
sI5
F12.0846
sI6
F11.38165
sI7
F13.12665
sI8
F11.91198
sI9
F12.65579
sI10
F11.95179
sI11
F13.17765
sI12
F10.85528
sI13
F12.99998
sI14
F11.40322
ssg34
(dp473
I0
F2458372.678136574
sI1
F2458372.6986342594
sI2
F2458372.696400463
sI3
F2458372.695636574
sI4
F2458372.7175694443
sI5
F2458372.716076389
sI6
F2458372.6766319443
sI7
F2458372.7168171294
sI8
F2458372.715324074
sI9
F2458372.6971412036
sI10
F2458372.677384259
sI11
F2458372.714571759
sI12
F2458372.6978935185
sI13
F2458372.675127315
sI14
F2458372.67587963
ssg36
(dp474
I0
F1.4361327333333334
sI1
Fnan
sI2
Fnan
sI3
Fnan
sI4
Fnan
sI5
Fnan
sI6
Fnan
sI7
Fnan
sI8
Fnan
sI9
Fnan
sI10
Fnan
sI11
Fnan
sI12
Fnan
sI13
Fnan
sI14
Fnan
ssg38
(dp475
I0
F2.2052458
sI1
Fnan
sI2
Fnan
sI3
Fnan
sI4
Fnan
sI5
Fnan
sI6
Fnan
sI7
Fnan
sI8
Fnan
sI9
Fnan
sI10
Fnan
sI11
Fnan
sI12
Fnan
sI13
Fnan
sI14
Fnan
ssg40
(dp476
I0
F0.6890241090045506
sI1
F0.6957519576137068
sI2
F0.6893822362354344
sI3
F0.6919751346643467
sI4
F0.6881859817352374
sI5
F0.6924017587592665
sI6
F0.6911905450751228
sI7
F0.6920093764180921
sI8
F0.6935520544872165
sI9
F0.6931890146791881
sI10
F0.6934373866728437
sI11
F0.6906704533683576
sI12
F0.6921140006010824
sI13
F0.6914437202512238
sI14
F0.68925753912189
ssg42
(dp477
I0
F0.001491554333029935
sI1
Fnan
sI2
Fnan
sI3
Fnan
sI4
Fnan
sI5
Fnan
sI6
Fnan
sI7
Fnan
sI8
Fnan
sI9
Fnan
sI10
Fnan
sI11
Fnan
sI12
Fnan
sI13
Fnan
sI14
Fnan
ssg44
(dp478
I0
F1.2953701333333332
sI1
Fnan
sI2
Fnan
sI3
Fnan
sI4
Fnan
sI5
Fnan
sI6
Fnan
sI7
Fnan
sI8
Fnan
sI9
Fnan
sI10
Fnan
sI11
Fnan
sI12
Fnan
sI13
Fnan
sI14
Fnan
ssg46
(dp479
I0
g452
sI1
g453
sI2
g454
sI3
g455
sI4
g456
sI5
g457
sI6
g458
sI7
g459
sI8
g460
sI9
g461
sI10
g462
sI11
g463
sI12
g464
sI13
g465
sI14
g466
ssg48
(dp480
I0
F0.0026506702116965773
sI1
Fnan
sI2
Fnan
sI3
Fnan
sI4
Fnan
sI5
Fnan
sI6
Fnan
sI7
Fnan
sI8
Fnan
sI9
Fnan
sI10
Fnan
sI11
Fnan
sI12
Fnan
sI13
Fnan
sI14
Fnan
ssg50
(dp481
I0
F0.03701312508518328
sI1
Fnan
sI2
Fnan
sI3
Fnan
sI4
Fnan
sI5
Fnan
sI6
Fnan
sI7
Fnan
sI8
Fnan
sI9
Fnan
sI10
Fnan
sI11
Fnan
sI12
Fnan
sI13
Fnan
sI14
Fnan
ssg52
(dp482
I0
F2.4856997333333335
sI1
Fnan
sI2
Fnan
sI3
Fnan
sI4
Fnan
sI5
Fnan
sI6
Fnan
sI7
Fnan
sI8
Fnan
sI9
Fnan
sI10
Fnan
sI11
Fnan
sI12
Fnan
sI13
Fnan
sI14
Fnan
ssg54
(dp483
I0
F1.5096181368567492
sI1
F1.492574680008736
sI2
F1.5137849676777704
sI3
F1.5026302325393501
sI4
F1.5072016090764309
sI5
F1.5068707031905004
sI6
F1.5045767810760755
sI7
F1.502601442704344
sI8
F1.5013541856335186
sI9
F1.4936194869058055
sI10
F1.5061629723553691
sI11
F1.5047659217502967
sI12
F1.5014291948815188
sI13
F1.5074149931359615
sI14
F1.5046741365086207
ssg56
(dp484
I0
g452
sI1
g453
sI2
g454
sI3
g455
sI4
g456
sI5
g457
sI6
g458
sI7
g459
sI8
g460
sI9
g461
sI10
g462
sI11
g463
sI12
g464
sI13
g465
sI14
g466
ssg58
(dp485
I0
F13.4245
sI1
F12.29137
sI2
F14.49057
sI3
F11.89772
sI4
F14.75785
sI5
F13.92998
sI6
F12.4211
sI7
F13.37623
sI8
F12.84596
sI9
F13.43492
sI10
F13.0688
sI11
F14.474
sI12
F12.28879
sI13
F12.84501
sI14
F12.99062
ssg60
(dp486
I0
F10.720866666666668
sI1
Fnan
sI2
Fnan
sI3
Fnan
sI4
Fnan
sI5
Fnan
sI6
Fnan
sI7
Fnan
sI8
Fnan
sI9
Fnan
sI10
Fnan
sI11
Fnan
sI12
Fnan
sI13
Fnan
sI14
Fnan
ssg62
(dp487
I0
F0.717121554547299
sI1
Fnan
sI2
Fnan
sI3
Fnan
sI4
Fnan
sI5
Fnan
sI6
Fnan
sI7
Fnan
sI8
Fnan
sI9
Fnan
sI10
Fnan
sI11
Fnan
sI12
Fnan
sI13
Fnan
sI14
Fnan
ssg64
(dp488
I0
F2.470437
sI1
F2.114157
sI2
F2.981973
sI3
F3.104451
sI4
F5.724936
sI5
F2.605024
sI6
F-1.970597
sI7
F3.610775
sI8
F-3.741457
sI9
F3.915195
sI10
F5.166358
sI11
F4.610471
sI12
F2.465755
sI13
F2.868791
sI14
F-2.847582
ssg66
(dp489
I0
F11.085400000000002
sI1
Fnan
sI2
Fnan
sI3
Fnan
sI4
Fnan
sI5
Fnan
sI6
Fnan
sI7
Fnan
sI8
Fnan
sI9
Fnan
sI10
Fnan
sI11
Fnan
sI12
Fnan
sI13
Fnan
sI14
Fnan
ssg68
(dp490
I0
g452
sI1
g453
sI2
g454
sI3
g455
sI4
g456
sI5
g457
sI6
g458
sI7
g459
sI8
g460
sI9
g461
sI10
g462
sI11
g463
sI12
g464
sI13
g465
sI14
g466
ssg70
(dp491
I0
F9378.74
sI1
F9318.269999999999
sI2
F8755.753333333332
sI3
F9530.93
sI4
F8438.046666666667
sI5
F9401.076666666666
sI6
F9589.373333333333
sI7
F9015.946666666667
sI8
F9429.81
sI9
F9387.75
sI10
F9170.769999999999
sI11
F9128.883333333333
sI12
F9448.873333333333
sI13
F9400.473333333333
sI14
F9343.936666666666
ssg72
(dp492
I0
F1.004826
sI1
F1.0076200000000002
sI2
F1.00686
sI3
F1.006631
sI4
F1.018593
sI5
F1.017433
sI6
F1.004987
sI7
F1.018006
sI8
F1.0168709999999999
sI9
F1.007103
sI10
F1.0049
sI11
F1.016311
sI12
F1.007355
sI13
F1.005198
sI14
F1.005087
ssg74
(dp493
I0
F8124.4766666666665
sI1
F8019.703333333334
sI2
F7539.533333333334
sI3
F8209.58
sI4
F7219.796666666666
sI5
F8092.5233333333335
sI6
F8255.41
sI7
F7698.496666666667
sI8
F8071.483333333334
sI9
F8100.916666666667
sI10
F7853.753333333333
sI11
F7894.056666666667
sI12
F8156.61
sI13
F8072.233333333334
sI14
F8025.759999999999
ssg76
(dp494
I0
F13211.586666666666
sI1
F12939.109999999999
sI2
F12333.78
sI3
F13328.713333333335
sI4
F11799.763333333334
sI5
F13180.296666666667
sI6
F13424.423333333334
sI7
F12557.573333333334
sI8
F13137.82
sI9
F13060.706666666667
sI10
F12820.853333333333
sI11
F12807.769999999999
sI12
F13216.693333333333
sI13
F13169.31
sI14
F13067.866666666667
ssg78
(dp495
I0
F11.58819
sI1
F12.1333
sI2
F14.26032
sI3
F11.82038
sI4
F13.9107
sI5
F12.9714
sI6
F12.3961
sI7
F13.14673
sI8
F12.36799
sI9
F12.27596
sI10
F12.01809
sI11
F11.91806
sI12
F11.56789
sI13
F12.66437
sI14
F12.48453
ssg80
(dp496
I0
F11.226
sI1
F11.24
sI2
F11.307
sI3
F11.214
sI4
F11.354
sI5
F11.23
sI6
F11.208
sI7
F11.284
sI8
F11.233
sI9
F11.229
sI10
F11.262
sI11
F11.257
sI12
F11.221
sI13
F11.233
sI14
F11.239
ssg82
(dp497
I0
F0.002
sI1
F0.002
sI2
F0.002
sI3
F0.002
sI4
F0.002
sI5
F0.002
sI6
F0.002
sI7
F0.002
sI8
F0.002
sI9
F0.002
sI10
F0.002
sI11
F0.002
sI12
F0.002
sI13
F0.002
sI14
F0.002
ssg84
(dp498
I0
F0.6915723512458372
sI1
Fnan
sI2
Fnan
sI3
Fnan
sI4
Fnan
sI5
Fnan
sI6
Fnan
sI7
Fnan
sI8
Fnan
sI9
Fnan
sI10
Fnan
sI11
Fnan
sI12
Fnan
sI13
Fnan
sI14
Fnan
ssg86
(dp499
I0
F11.249133333333335
sI1
Fnan
sI2
Fnan
sI3
Fnan
sI4
Fnan
sI5
Fnan
sI6
Fnan
sI7
Fnan
sI8
Fnan
sI9
Fnan
sI10
Fnan
sI11
Fnan
sI12
Fnan
sI13
Fnan
sI14
Fnan
ssg88
(dp500
I0
F11.07
sI1
F11.077
sI2
F11.144
sI3
F11.052
sI4
F11.184
sI5
F11.067
sI6
F11.046
sI7
F11.112
sI8
F11.064
sI9
F11.069
sI10
F11.094
sI11
F11.099
sI12
F11.062
sI13
F11.067
sI14
F11.074
ssg90
(dp501
I0
F-2.41977
sI1
F-2.050143
sI2
F4.079662
sI3
F3.307549
sI4
F6.463772
sI5
F-1.075577
sI6
F4.796877
sI7
F2.964577
sI8
F2.321667
sI9
F-1.926978
sI10
F1.715605
sI11
F3.130491
sI12
F-2.839902
sI13
F-1.119384
sI14
F4.193545
ssg92
(dp502
I0
F0.03672069612370562
sI1
Fnan
sI2
Fnan
sI3
Fnan
sI4
Fnan
sI5
Fnan
sI6
Fnan
sI7
Fnan
sI8
Fnan
sI9
Fnan
sI10
Fnan
sI11
Fnan
sI12
Fnan
sI13
Fnan
sI14
Fnan
ssg94
(dp503
I0
F0.719288108272892
sI1
F0.7206331862360561
sI2
F0.7150023866499339
sI3
F0.7182596753842616
sI4
F0.7134958443296647
sI5
F0.7167432391180224
sI6
F0.7174313842754324
sI7
F0.7136987071805312
sI8
F0.7153151069326583
sI9
F0.7217348423507066
sI10
F0.7142495316777435
sI11
F0.7197138548633065
sI12
F0.7197358107084608
sI13
F0.7153133208338287
sI14
F0.7162083193959848
ssg96
(dp504
I0
F30.0
sI1
F30.0
sI2
F30.0
sI3
F30.0
sI4
F30.0
sI5
F30.0
sI6
F30.0
sI7
F30.0
sI8
F30.0
sI9
F30.0
sI10
F30.0
sI11
F30.0
sI12
F30.0
sI13
F30.0
sI14
F30.0
ssg98
(dp505
I0
F0.002
sI1
F0.002
sI2
F0.002
sI3
F0.002
sI4
F0.002
sI5
F0.002
sI6
F0.002
sI7
F0.002
sI8
F0.002
sI9
F0.002
sI10
F0.002
sI11
F0.002
sI12
F0.002
sI13
F0.002
sI14
F0.002
ssg100
(dp506
I0
F0.002
sI1
F0.002
sI2
F0.002
sI3
F0.002
sI4
F0.002
sI5
F0.002
sI6
F0.002
sI7
F0.002
sI8
F0.002
sI9
F0.002
sI10
F0.002
sI11
F0.002
sI12
F0.002
sI13
F0.002
sI14
F0.002
ssg102
(dp507
I0
F3.377943
sI1
F2.959642
sI2
F5.148632
sI3
F3.44222
sI4
F5.521365
sI5
F-2.726912
sI6
F4.286538
sI7
F2.367851
sI8
F3.034403
sI9
F2.202514
sI10
F3.531763
sI11
F-2.491091
sI12
F3.205637
sI13
F1.045176
sI14
F2.379815
ssg104
(dp508
I0
S'KIC8462852-20180911at041631_-25-1X1-030-V_cal.fts.mag.1'
p509
sI1
S'KIC8462852-20180911at044602_-25-1X1-030-V_cal.fts.mag.1'
p510
sI2
S'KIC8462852-20180911at044248_-25-1X1-030-V_cal.fts.mag.1'
p511
sI3
S'KIC8462852-20180911at044136_-25-1X1-030-V_cal.fts.mag.1'
p512
sI4
S'KIC8462852-20180911at051318_-25-1X1-030-V_cal.fts.mag.1'
p513
sI5
S'KIC8462852-20180911at051109_-25-1X1-030-V_cal.fts.mag.1'
p514
sI6
S'KIC8462852-20180911at041421_-25-1X1-030-V_cal.fts.mag.1'
p515
sI7
S'KIC8462852-20180911at051213_-25-1X1-030-V_cal.fts.mag.1'
p516
sI8
S'KIC8462852-20180911at051004_-25-1X1-030-V_cal.fts.mag.1'
p517
sI9
S'KIC8462852-20180911at044353_-25-1X1-030-V_cal.fts.mag.1'
p518
sI10
S'KIC8462852-20180911at041526_-25-1X1-030-V_cal.fts.mag.1'
p519
sI11
S'KIC8462852-20180911at050851_-25-1X1-030-V_cal.fts.mag.1'
p520
sI12
S'KIC8462852-20180911at044458_-25-1X1-030-V_cal.fts.mag.1'
p521
sI13
S'KIC8462852-20180911at041204_-25-1X1-030-V_cal.fts.mag.1'
p522
sI14
S'KIC8462852-20180911at041316_-25-1X1-030-V_cal.fts.mag.1'
p523
ssg121
(dp524
I0
F0.005472102399829811
sI1
Fnan
sI2
Fnan
sI3
Fnan
sI4
Fnan
sI5
Fnan
sI6
Fnan
sI7
Fnan
sI8
Fnan
sI9
Fnan
sI10
Fnan
sI11
Fnan
sI12
Fnan
sI13
Fnan
sI14
Fnan
ssg123
(dp525
I0
F7054.413333333333
sI1
F7021.78
sI2
F6578.79
sI3
F7166.376666666666
sI4
F6298.6466666666665
sI5
F7079.553333333333
sI6
F7204.326666666666
sI7
F6752.17
sI8
F7083.2733333333335
sI9
F7058.83
sI10
F6898.633333333333
sI11
F6867.73
sI12
F7110.820000000001
sI13
F7062.41
sI14
F6993.1066666666675
ssg125
(dp526
I0
F0.0392061705541844
sI1
Fnan
sI2
Fnan
sI3
Fnan
sI4
Fnan
sI5
Fnan
sI6
Fnan
sI7
Fnan
sI8
Fnan
sI9
Fnan
sI10
Fnan
sI11
Fnan
sI12
Fnan
sI13
Fnan
sI14
Fnan
ssg127
(dp527
I0
g448
sI1
g448
sI2
g448
sI3
g448
sI4
g448
sI5
g448
sI6
g448
sI7
g448
sI8
g448
sI9
g448
sI10
g448
sI11
g448
sI12
g448
sI13
g448
sI14
g448
ssg144
(dp528
I0
F0.0020337606970919518
sI1
Fnan
sI2
Fnan
sI3
Fnan
sI4
Fnan
sI5
Fnan
sI6
Fnan
sI7
Fnan
sI8
Fnan
sI9
Fnan
sI10
Fnan
sI11
Fnan
sI12
Fnan
sI13
Fnan
sI14
Fnan
ssg146
(dp529
I0
F1.928614
sI1
F1.621173
sI2
F4.457724
sI3
F2.812123
sI4
F5.028222
sI5
F-3.788837
sI6
F-3.078432
sI7
F2.31541
sI8
F-2.862025
sI9
F1.509151
sI10
F4.008045
sI11
F-3.281226
sI12
F3.274447
sI13
F2.276556
sI14
F3.209607
ssg148
(dp530
I0
F1.5039519629534033
sI1
Fnan
sI2
Fnan
sI3
Fnan
sI4
Fnan
sI5
Fnan
sI6
Fnan
sI7
Fnan
sI8
Fnan
sI9
Fnan
sI10
Fnan
sI11
Fnan
sI12
Fnan
sI13
Fnan
sI14
Fnan
ssg150
(dp531
I0
F2458372.6971412036
sI1
Fnan
sI2
Fnan
sI3
Fnan
sI4
Fnan
sI5
Fnan
sI6
Fnan
sI7
Fnan
sI8
Fnan
sI9
Fnan
sI10
Fnan
sI11
Fnan
sI12
Fnan
sI13
Fnan
sI14
Fnan
ssg152
(dp532
I0
F0.0020337606970919518
sI1
Fnan
sI2
Fnan
sI3
Fnan
sI4
Fnan
sI5
Fnan
sI6
Fnan
sI7
Fnan
sI8
Fnan
sI9
Fnan
sI10
Fnan
sI11
Fnan
sI12
Fnan
sI13
Fnan
sI14
Fnan
ssg154
(dp533
I0
F15.44089
sI1
F14.85273
sI2
F14.94692
sI3
F14.36506
sI4
F16.32924
sI5
F14.93415
sI6
F13.77147
sI7
F15.73467
sI8
F14.6967
sI9
F14.18367
sI10
F14.46852
sI11
F15.58259
sI12
F14.68532
sI13
F13.89546
sI14
F14.20961
ssg156
(dp534
I0
F10.698
sI1
F10.72
sI2
F10.772
sI3
F10.688
sI4
F10.82
sI5
F10.7
sI6
F10.68
sI7
F10.753
sI8
F10.704
sI9
F10.71
sI10
F10.73
sI11
F10.731
sI12
F10.697
sI13
F10.701
sI14
F10.709
ssg158
(dp535
I0
F0.6915723512458372
sI1
Fnan
sI2
Fnan
sI3
Fnan
sI4
Fnan
sI5
Fnan
sI6
Fnan
sI7
Fnan
sI8
Fnan
sI9
Fnan
sI10
Fnan
sI11
Fnan
sI12
Fnan
sI13
Fnan
sI14
Fnan
sss.