(dp0
S'i'
p1
(dp2
S'sigmean'
p3
(dp4
I0
F0.4393457530432046
sI1
Fnan
sI2
Fnan
sI3
Fnan
sI4
Fnan
sI5
Fnan
sI6
Fnan
sI7
Fnan
sI8
Fnan
sI9
Fnan
sI10
Fnan
sI11
Fnan
sI12
Fnan
sI13
Fnan
sI14
Fnan
ssS'ref3flag'
p5
(dp6
I0
S'NoError'
p7
sI1
S'NoError'
p8
sI2
S'NoError'
p9
sI3
S'NoError'
p10
sI4
S'NoError'
p11
sI5
S'NoError'
p12
sI6
S'NoError'
p13
sI7
S'NoError'
p14
sI8
S'NoError'
p15
sI9
S'NoError'
p16
sI10
S'NoError'
p17
sI11
S'NoError'
p18
sI12
S'NoError'
p19
sI13
S'NoError'
p20
sI14
S'NoError'
p21
ssS'tabbyerr'
p22
(dp23
I0
F0.003
sI1
F0.003
sI2
F0.003
sI3
F0.003
sI4
F0.003
sI5
F0.003
sI6
F0.003
sI7
F0.003
sI8
F0.003
sI9
F0.003
sI10
F0.003
sI11
F0.003
sI12
F0.003
sI13
F0.003
sI14
F0.003
ssS'ref2rel'
p24
(dp25
I0
F0.9112921385939685
sI1
F0.9100451080659187
sI2
F0.9105268679239192
sI3
F0.9108883017425449
sI4
F0.9050372704154755
sI5
F0.9144973846693671
sI6
F0.9069908266293638
sI7
F0.912727451185315
sI8
F0.9091360855264022
sI9
F0.9122286400707688
sI10
F0.9059167382880836
sI11
F0.9091718725920986
sI12
F0.90999170186216
sI13
F0.908989944397301
sI14
F0.9084857353857154
ssS'ref2err'
p26
(dp27
I0
F0.002526522419317552
sI1
Fnan
sI2
Fnan
sI3
Fnan
sI4
Fnan
sI5
Fnan
sI6
Fnan
sI7
Fnan
sI8
Fnan
sI9
Fnan
sI10
Fnan
sI11
Fnan
sI12
Fnan
sI13
Fnan
sI14
Fnan
ssS'ref2mean'
p28
(dp29
I0
F0.9097284044898936
sI1
Fnan
sI2
Fnan
sI3
Fnan
sI4
Fnan
sI5
Fnan
sI6
Fnan
sI7
Fnan
sI8
Fnan
sI9
Fnan
sI10
Fnan
sI11
Fnan
sI12
Fnan
sI13
Fnan
sI14
Fnan
ssS'tabbymag'
p30
(dp31
I0
F11.862
sI1
F11.891
sI2
F11.892
sI3
F11.898
sI4
F11.937
sI5
F11.877
sI6
F11.935
sI7
F11.899
sI8
F11.91
sI9
F11.906
sI10
F11.936
sI11
F11.866
sI12
F11.912
sI13
F11.881
sI14
F11.884
ssS'tabbybkg'
p32
(dp33
I0
F13.01836
sI1
F12.90973
sI2
F13.39465
sI3
F17.16831
sI4
F18.32667
sI5
F13.50378
sI6
F17.99522
sI7
F14.46194
sI8
F18.53321
sI9
F14.72822
sI10
F17.93125
sI11
F13.12136
sI12
F13.30376
sI13
F13.67772
sI14
F13.61371
ssS'JD'
p34
(dp35
I0
F2458408.7037962964
sI1
F2458408.7053356483
sI2
F2458408.702222222
sI3
F2458408.7276157406
sI4
F2458408.7260648147
sI5
F2458408.7045601853
sI6
F2458408.724502315
sI7
F2458408.746747685
sI8
F2458408.7252777778
sI9
F2458408.747523148
sI10
F2458408.7268402777
sI11
F2458408.7030092594
sI12
F2458408.749097222
sI13
F2458408.748310185
sI14
F2458408.7498726854
ssS'ref3rmsmean'
p36
(dp37
I0
F1.3791510666666666
sI1
Fnan
sI2
Fnan
sI3
Fnan
sI4
Fnan
sI5
Fnan
sI6
Fnan
sI7
Fnan
sI8
Fnan
sI9
Fnan
sI10
Fnan
sI11
Fnan
sI12
Fnan
sI13
Fnan
sI14
Fnan
ssS'ref1rmsmean'
p38
(dp39
I0
F0.93092128
sI1
Fnan
sI2
Fnan
sI3
Fnan
sI4
Fnan
sI5
Fnan
sI6
Fnan
sI7
Fnan
sI8
Fnan
sI9
Fnan
sI10
Fnan
sI11
Fnan
sI12
Fnan
sI13
Fnan
sI14
Fnan
ssS'relflux'
p40
(dp41
I0
F0.44050305347378915
sI1
F0.43728690936551456
sI2
F0.4387904470335377
sI3
F0.44379438577910146
sI4
F0.4360205333049392
sI5
F0.4404784648648364
sI6
F0.4387062759655022
sI7
F0.4404048996085816
sI8
F0.4397803778482552
sI9
F0.43784648248576186
sI10
F0.436297684795539
sI11
F0.4392045263740586
sI12
F0.4394550397623702
sI13
F0.4405959167078478
sI14
F0.4390966430284001
ssS'sigerr'
p42
(dp43
I0
F0.0010325481935242649
sI1
Fnan
sI2
Fnan
sI3
Fnan
sI4
Fnan
sI5
Fnan
sI6
Fnan
sI7
Fnan
sI8
Fnan
sI9
Fnan
sI10
Fnan
sI11
Fnan
sI12
Fnan
sI13
Fnan
sI14
Fnan
ssS'tabbyrmsmean'
p44
(dp45
I0
F1.84988166
sI1
Fnan
sI2
Fnan
sI3
Fnan
sI4
Fnan
sI5
Fnan
sI6
Fnan
sI7
Fnan
sI8
Fnan
sI9
Fnan
sI10
Fnan
sI11
Fnan
sI12
Fnan
sI13
Fnan
sI14
Fnan
ssS'tabbyflag'
p46
(dp47
I0
g7
sI1
g8
sI2
g9
sI3
g10
sI4
g11
sI5
g12
sI6
g13
sI7
g14
sI8
g15
sI9
g16
sI10
g17
sI11
g18
sI12
g19
sI13
g20
sI14
g21
ssS'ref1err'
p48
(dp49
I0
F0.0025620700560162967
sI1
Fnan
sI2
Fnan
sI3
Fnan
sI4
Fnan
sI5
Fnan
sI6
Fnan
sI7
Fnan
sI8
Fnan
sI9
Fnan
sI10
Fnan
sI11
Fnan
sI12
Fnan
sI13
Fnan
sI14
Fnan
ssS'ref2magmeanerr'
p50
(dp51
I0
F0.023085142614326926
sI1
Fnan
sI2
Fnan
sI3
Fnan
sI4
Fnan
sI5
Fnan
sI6
Fnan
sI7
Fnan
sI8
Fnan
sI9
Fnan
sI10
Fnan
sI11
Fnan
sI12
Fnan
sI13
Fnan
sI14
Fnan
ssS'ref2rmsmean'
p52
(dp53
I0
F0.5176477333333334
sI1
Fnan
sI2
Fnan
sI3
Fnan
sI4
Fnan
sI5
Fnan
sI6
Fnan
sI7
Fnan
sI8
Fnan
sI9
Fnan
sI10
Fnan
sI11
Fnan
sI12
Fnan
sI13
Fnan
sI14
Fnan
ssS'ref3rel'
p54
(dp55
I0
F1.5052956924472203
sI1
F1.504691859677638
sI2
F1.5032225629525506
sI3
F1.5067476625982918
sI4
F1.5077145294720224
sI5
F1.5024030973767821
sI6
F1.5068301935711947
sI7
F1.4968096713211785
sI8
F1.4984594363697126
sI9
F1.5070742910132473
sI10
F1.513699243678762
sI11
F1.4964634745898169
sI12
F1.5036627249373629
sI13
F1.502194330512134
sI14
F1.505865046024588
ssS'ref1flag'
p56
(dp57
I0
g7
sI1
g8
sI2
g9
sI3
g10
sI4
g11
sI5
g12
sI6
g13
sI7
g14
sI8
g15
sI9
g16
sI10
g17
sI11
g18
sI12
g19
sI13
g20
sI14
g21
ssS'ref2bkg'
p58
(dp59
I0
F14.9045
sI1
F15.92209
sI2
F15.93383
sI3
F20.81936
sI4
F21.90965
sI5
F15.10518
sI6
F20.31083
sI7
F16.55065
sI8
F21.85395
sI9
F16.40251
sI10
F21.9066
sI11
F15.09396
sI12
F16.88403
sI13
F15.70283
sI14
F15.17214
ssS'ref3magmean'
p60
(dp61
I0
F10.731266666666668
sI1
Fnan
sI2
Fnan
sI3
Fnan
sI4
Fnan
sI5
Fnan
sI6
Fnan
sI7
Fnan
sI8
Fnan
sI9
Fnan
sI10
Fnan
sI11
Fnan
sI12
Fnan
sI13
Fnan
sI14
Fnan
ssS'ref1mean'
p62
(dp63
I0
F0.6958367262986338
sI1
Fnan
sI2
Fnan
sI3
Fnan
sI4
Fnan
sI5
Fnan
sI6
Fnan
sI7
Fnan
sI8
Fnan
sI9
Fnan
sI10
Fnan
sI11
Fnan
sI12
Fnan
sI13
Fnan
sI14
Fnan
ssS'ref1rms'
p64
(dp65
I0
F-2.850075
sI1
F0.6684992
sI2
F3.149591
sI3
F-3.451226
sI4
F-2.878233
sI5
F4.056631
sI6
F-2.499877
sI7
F3.560919
sI8
F3.116752
sI9
F3.562105
sI10
F3.319997
sI11
F-3.653532
sI12
F2.065726
sI13
F1.939397
sI14
F3.857145
ssS'ref2magmean'
p66
(dp67
I0
F11.075266666666668
sI1
Fnan
sI2
Fnan
sI3
Fnan
sI4
Fnan
sI5
Fnan
sI6
Fnan
sI7
Fnan
sI8
Fnan
sI9
Fnan
sI10
Fnan
sI11
Fnan
sI12
Fnan
sI13
Fnan
sI14
Fnan
ssS'ref2flag'
p68
(dp69
I0
g7
sI1
g8
sI2
g9
sI3
g10
sI4
g11
sI5
g12
sI6
g13
sI7
g14
sI8
g15
sI9
g16
sI10
g17
sI11
g18
sI12
g19
sI13
g20
sI14
g21
ssS'ref2'
p70
(dp71
I0
F9638.243333333334
sI1
F9440.45
sI2
F9402.783333333333
sI3
F9253.706666666667
sI4
F9040.963333333335
sI5
F9525.83
sI6
F9016.81
sI7
F9330.126666666667
sI8
F9220.506666666666
sI9
F9315.390000000001
sI10
F9049.08
sI11
F9616.453333333333
sI12
F9215.276666666667
sI13
F9453.2
sI14
F9453.91
ssS'airmass'
p72
(dp73
I0
F1.183375
sI1
F1.188607
sI2
F1.178224
sI3
F1.275744
sI4
F1.268899
sI5
F1.185976
sI6
F1.262119
sI7
F1.371551
sI8
F1.265508
sI9
F1.3759649999999999
sI10
F1.2722930000000001
sI11
F1.180788
sI12
F1.3849129999999998
sI13
F1.3804450000000001
sI14
F1.389442
ssS'ref1'
p74
(dp75
I0
F7930.123333333334
sI1
F7786.55
sI2
F7756.4366666666665
sI3
F7611.886666666667
sI4
F7505.52
sI5
F7810.13
sI6
F7465.153333333334
sI7
F7699.466666666666
sI8
F7646.696666666667
sI9
F7643.906666666667
sI10
F7473.0
sI11
F7984.626666666666
sI12
F7606.443333333333
sI13
F7823.14
sI14
F7812.223333333333
ssS'ref3'
p76
(dp77
I0
F13222.793333333333
sI1
F12960.663333333334
sI2
F12897.063333333334
sI3
F12706.096666666668
sI4
F12473.686666666666
sI5
F13022.8
sI6
F12417.76
sI7
F12745.03
sI8
F12637.41
sI9
F12779.46
sI10
F12504.730000000001
sI11
F13169.686666666666
sI12
F12647.096666666668
sI13
F12976.21
sI14
F13000.233333333334
ssS'ref1bkg'
p78
(dp79
I0
F14.39078
sI1
F15.38122
sI2
F15.11633
sI3
F19.44689
sI4
F19.9093
sI5
F14.70346
sI6
F20.74921
sI7
F15.22976
sI8
F18.67617
sI9
F15.9825
sI10
F19.79211
sI11
F13.3562
sI12
F16.8684
sI13
F16.1481
sI14
F14.57588
ssS'ref1mag'
p80
(dp81
I0
F11.252
sI1
F11.272
sI2
F11.276
sI3
F11.296
sI4
F11.312
sI5
F11.268
sI6
F11.317
sI7
F11.284
sI8
F11.291
sI9
F11.292
sI10
F11.316
sI11
F11.244
sI12
F11.297
sI13
F11.267
sI14
F11.268
ssS'ref3magerr'
p82
(dp83
I0
F0.002
sI1
F0.002
sI2
F0.002
sI3
F0.002
sI4
F0.002
sI5
F0.002
sI6
F0.002
sI7
F0.002
sI8
F0.002
sI9
F0.002
sI10
F0.002
sI11
F0.002
sI12
F0.002
sI13
F0.002
sI14
F0.002
ssS'tabbymagmean'
p84
(dp85
I0
F0.4392174426932023
sI1
Fnan
sI2
Fnan
sI3
Fnan
sI4
Fnan
sI5
Fnan
sI6
Fnan
sI7
Fnan
sI8
Fnan
sI9
Fnan
sI10
Fnan
sI11
Fnan
sI12
Fnan
sI13
Fnan
sI14
Fnan
ssS'ref1magmean'
p86
(dp87
I0
F11.283466666666667
sI1
Fnan
sI2
Fnan
sI3
Fnan
sI4
Fnan
sI5
Fnan
sI6
Fnan
sI7
Fnan
sI8
Fnan
sI9
Fnan
sI10
Fnan
sI11
Fnan
sI12
Fnan
sI13
Fnan
sI14
Fnan
ssS'ref2mag'
p88
(dp89
I0
F11.04
sI1
F11.063
sI2
F11.067
sI3
F11.084
sI4
F11.109
sI5
F11.053
sI6
F11.112
sI7
F11.075
sI8
F11.088
sI9
F11.077
sI10
F11.108
sI11
F11.042
sI12
F11.089
sI13
F11.061
sI14
F11.061
ssS'ref3rms'
p90
(dp91
I0
F1.455775
sI1
F4.787878
sI2
F4.691027
sI3
F4.524811
sI4
F4.422783
sI5
F1.403846
sI6
F-2.285504
sI7
F3.154544
sI8
F4.97577
sI9
F-2.03538
sI10
F2.575875
sI11
F-1.656059
sI12
F1.348078
sI13
F-3.470342
sI14
F-3.205836
ssS'ref3magmeanerr'
p92
(dp93
I0
F0.02116083534222966
sI1
Fnan
sI2
Fnan
sI3
Fnan
sI4
Fnan
sI5
Fnan
sI6
Fnan
sI7
Fnan
sI8
Fnan
sI9
Fnan
sI10
Fnan
sI11
Fnan
sI12
Fnan
sI13
Fnan
sI14
Fnan
ssS'ref1rel'
p94
(dp95
I0
F0.6937676054643775
sI1
F0.6951931258178536
sI2
F0.6956493273346872
sI3
F0.693256360371169
sI4
F0.6977124889319604
sI5
F0.6927365431957507
sI6
F0.6965526561375697
sI7
F0.6975684732777282
sI8
F0.6996729636478012
sI9
F0.6919174981198485
sI10
F0.6934272873334226
sI11
F0.700831879964458
sI12
F0.6958479042836457
sI13
F0.6975787593164511
sI14
F0.6958380212827833
ssS'exposure'
p96
(dp97
I0
F30.0
sI1
F30.0
sI2
F30.0
sI3
F30.0
sI4
F30.0
sI5
F30.0
sI6
F30.0
sI7
F30.0
sI8
F30.0
sI9
F30.0
sI10
F30.0
sI11
F30.0
sI12
F30.0
sI13
F30.0
sI14
F30.0
ssS'ref1magerr'
p98
(dp99
I0
F0.002
sI1
F0.002
sI2
F0.002
sI3
F0.002
sI4
F0.002
sI5
F0.002
sI6
F0.002
sI7
F0.002
sI8
F0.002
sI9
F0.002
sI10
F0.002
sI11
F0.002
sI12
F0.002
sI13
F0.002
sI14
F0.002
ssS'ref2magerr'
p100
(dp101
I0
F0.002
sI1
F0.002
sI2
F0.002
sI3
F0.002
sI4
F0.002
sI5
F0.002
sI6
F0.002
sI7
F0.002
sI8
F0.002
sI9
F0.002
sI10
F0.002
sI11
F0.002
sI12
F0.002
sI13
F0.002
sI14
F0.002
ssS'ref2rms'
p102
(dp103
I0
F2.640849
sI1
F-1.862251
sI2
F2.149497
sI3
F-2.618959
sI4
F3.370503
sI5
F-4.06184
sI6
F4.526507
sI7
F3.108457
sI8
F-3.77646
sI9
F-1.104486
sI10
F5.409711
sI11
F-3.26954
sI12
F-2.451545
sI13
F2.125236
sI14
F3.579037
ssS'name'
p104
(dp105
I0
S"KIC8462852-20181017at045327_-25-1X1-030-i'_cal.fts.mag.1"
p106
sI1
S"KIC8462852-20181017at045541_-25-1X1-030-i'_cal.fts.mag.1"
p107
sI2
S"KIC8462852-20181017at045111_-25-1X1-030-i'_cal.fts.mag.1"
p108
sI3
S"KIC8462852-20181017at052746_-25-1X1-030-i'_cal.fts.mag.1"
p109
sI4
S"KIC8462852-20181017at052532_-25-1X1-030-i'_cal.fts.mag.1"
p110
sI5
S"KIC8462852-20181017at045434_-25-1X1-030-i'_cal.fts.mag.1"
p111
sI6
S"KIC8462852-20181017at052315_-25-1X1-030-i'_cal.fts.mag.1"
p112
sI7
S"KIC8462852-20181017at055517_-25-1X1-030-i'_cal.fts.mag.1"
p113
sI8
S"KIC8462852-20181017at052424_-25-1X1-030-i'_cal.fts.mag.1"
p114
sI9
S"KIC8462852-20181017at055626_-25-1X1-030-i'_cal.fts.mag.1"
p115
sI10
S"KIC8462852-20181017at052639_-25-1X1-030-i'_cal.fts.mag.1"
p116
sI11
S"KIC8462852-20181017at045220_-25-1X1-030-i'_cal.fts.mag.1"
p117
sI12
S"KIC8462852-20181017at055842_-25-1X1-030-i'_cal.fts.mag.1"
p118
sI13
S"KIC8462852-20181017at055733_-25-1X1-030-i'_cal.fts.mag.1"
p119
sI14
S"KIC8462852-20181017at055949_-25-1X1-030-i'_cal.fts.mag.1"
p120
ssS'ref3err'
p121
(dp122
I0
F0.004505240922256051
sI1
Fnan
sI2
Fnan
sI3
Fnan
sI4
Fnan
sI5
Fnan
sI6
Fnan
sI7
Fnan
sI8
Fnan
sI9
Fnan
sI10
Fnan
sI11
Fnan
sI12
Fnan
sI13
Fnan
sI14
Fnan
ssS'tabby'
p123
(dp124
I0
F4521.2
sI1
F4400.223333333333
sI2
F4396.136666666667
sI3
F4374.583333333333
sI4
F4217.796666666666
sI5
F4457.46
sI6
F4226.163333333333
sI7
F4370.963333333333
sI8
F4325.183333333333
sI9
F4340.336666666667
sI10
F4221.443333333334
sI11
F4504.886666666667
sI12
F4316.74
sI13
F4443.05
sI14
F4429.953333333334
ssS'ref1magmeanerr'
p125
(dp126
I0
F0.022283455318966566
sI1
Fnan
sI2
Fnan
sI3
Fnan
sI4
Fnan
sI5
Fnan
sI6
Fnan
sI7
Fnan
sI8
Fnan
sI9
Fnan
sI10
Fnan
sI11
Fnan
sI12
Fnan
sI13
Fnan
sI14
Fnan
ssS'filter'
p127
(dp128
I0
S"i'"
p129
sI1
S"i'"
p130
sI2
S"i'"
p131
sI3
S"i'"
p132
sI4
S"i'"
p133
sI5
S"i'"
p134
sI6
S"i'"
p135
sI7
S"i'"
p136
sI8
S"i'"
p137
sI9
S"i'"
p138
sI10
S"i'"
p139
sI11
S"i'"
p140
sI12
S"i'"
p141
sI13
S"i'"
p142
sI14
S"i'"
p143
ssS'tabbymagerr'
p144
(dp145
I0
F0.001939901610975369
sI1
Fnan
sI2
Fnan
sI3
Fnan
sI4
Fnan
sI5
Fnan
sI6
Fnan
sI7
Fnan
sI8
Fnan
sI9
Fnan
sI10
Fnan
sI11
Fnan
sI12
Fnan
sI13
Fnan
sI14
Fnan
ssS'tabbyrms'
p146
(dp147
I0
F3.265062
sI1
F4.276928
sI2
F3.295484
sI3
F-2.761831
sI4
F3.630183
sI5
F1.953318
sI6
F-2.787228
sI7
F2.124414
sI8
F0.7752319
sI9
F3.007799
sI10
F3.679935
sI11
F-3.483226
sI12
F4.343721
sI13
F3.166019
sI14
F3.262415
ssS'ref3mean'
p148
(dp149
I0
F1.5040755877695
sI1
Fnan
sI2
Fnan
sI3
Fnan
sI4
Fnan
sI5
Fnan
sI6
Fnan
sI7
Fnan
sI8
Fnan
sI9
Fnan
sI10
Fnan
sI11
Fnan
sI12
Fnan
sI13
Fnan
sI14
Fnan
ssS'median_JD'
p150
(dp151
I0
F2458408.7260648147
sI1
Fnan
sI2
Fnan
sI3
Fnan
sI4
Fnan
sI5
Fnan
sI6
Fnan
sI7
Fnan
sI8
Fnan
sI9
Fnan
sI10
Fnan
sI11
Fnan
sI12
Fnan
sI13
Fnan
sI14
Fnan
ssS'error'
p152
(dp153
I0
F0.001939901610975369
sI1
Fnan
sI2
Fnan
sI3
Fnan
sI4
Fnan
sI5
Fnan
sI6
Fnan
sI7
Fnan
sI8
Fnan
sI9
Fnan
sI10
Fnan
sI11
Fnan
sI12
Fnan
sI13
Fnan
sI14
Fnan
ssS'ref3bkg'
p154
(dp155
I0
F17.01669
sI1
F16.25727
sI2
F17.52913
sI3
F21.82681
sI4
F22.77071
sI5
F16.76229
sI6
F24.0033
sI7
F19.0073
sI8
F22.53496
sI9
F18.61167
sI10
F24.48919
sI11
F16.37422
sI12
F18.89084
sI13
F18.12515
sI14
F18.28964
ssS'ref3mag'
p156
(dp157
I0
F10.697
sI1
F10.718
sI2
F10.724
sI3
F10.74
sI4
F10.76
sI5
F10.713
sI6
F10.765
sI7
F10.737
sI8
F10.746
sI9
F10.734
sI10
F10.757
sI11
F10.701
sI12
F10.745
sI13
F10.717
sI14
F10.715
ssS'mean'
p158
(dp159
I0
F0.4392174426932023
sI1
Fnan
sI2
Fnan
sI3
Fnan
sI4
Fnan
sI5
Fnan
sI6
Fnan
sI7
Fnan
sI8
Fnan
sI9
Fnan
sI10
Fnan
sI11
Fnan
sI12
Fnan
sI13
Fnan
sI14
Fnan
sssS'r'
p160
(dp161
g3
(dp162
I0
F0.5483905617030082
sI1
Fnan
sI2
Fnan
sI3
Fnan
sI4
Fnan
sI5
Fnan
sI6
Fnan
sI7
Fnan
sI8
Fnan
sI9
Fnan
sI10
Fnan
sI11
Fnan
sI12
Fnan
sI13
Fnan
sI14
Fnan
ssg5
(dp163
I0
S'NoError'
p164
sI1
S'NoError'
p165
sI2
S'NoError'
p166
sI3
S'NoError'
p167
sI4
S'NoError'
p168
sI5
S'NoError'
p169
sI6
S'NoError'
p170
sI7
S'NoError'
p171
sI8
S'NoError'
p172
sI9
S'NoError'
p173
sI10
S'NoError'
p174
sI11
S'NoError'
p175
sI12
S'NoError'
p176
sI13
S'NoError'
p177
sI14
S'NoError'
p178
ssg22
(dp179
I0
F0.002
sI1
F0.002
sI2
F0.002
sI3
F0.002
sI4
F0.002
sI5
F0.002
sI6
F0.002
sI7
F0.002
sI8
F0.002
sI9
F0.002
sI10
F0.002
sI11
F0.002
sI12
F0.002
sI13
F0.002
sI14
F0.002
ssg24
(dp180
I0
F0.8906512360772686
sI1
F0.8932680473514781
sI2
F0.8970616332637875
sI3
F0.8937297266363708
sI4
F0.8967359211564163
sI5
F0.8919171163607853
sI6
F0.8940014486410126
sI7
F0.8904649720381601
sI8
F0.8950178877787085
sI9
F0.8944269680574909
sI10
F0.8919486080495095
sI11
F0.8934006294188196
sI12
F0.8929815286324007
sI13
F0.8942650689190734
sI14
F0.8927478145727971
ssg26
(dp181
I0
F0.0018963451358067684
sI1
Fnan
sI2
Fnan
sI3
Fnan
sI4
Fnan
sI5
Fnan
sI6
Fnan
sI7
Fnan
sI8
Fnan
sI9
Fnan
sI10
Fnan
sI11
Fnan
sI12
Fnan
sI13
Fnan
sI14
Fnan
ssg28
(dp182
I0
F0.893507907130272
sI1
Fnan
sI2
Fnan
sI3
Fnan
sI4
Fnan
sI5
Fnan
sI6
Fnan
sI7
Fnan
sI8
Fnan
sI9
Fnan
sI10
Fnan
sI11
Fnan
sI12
Fnan
sI13
Fnan
sI14
Fnan
ssg30
(dp183
I0
F11.205
sI1
F11.214
sI2
F11.202
sI3
F11.178
sI4
F11.175
sI5
F11.205
sI6
F11.208
sI7
F11.208
sI8
F11.212
sI9
F11.209
sI10
F11.214
sI11
F11.19
sI12
F11.209
sI13
F11.223
sI14
F11.184
ssg32
(dp184
I0
F18.46235
sI1
F15.88737
sI2
F17.78421
sI3
F16.1905
sI4
F17.60456
sI5
F16.57097
sI6
F18.37763
sI7
F18.51491
sI8
F16.86063
sI9
F17.43517
sI10
F19.62882
sI11
F17.57379
sI12
F20.50494
sI13
F19.82104
sI14
F16.77786
ssg34
(dp185
I0
F2458408.699884259
sI1
F2458408.7443981483
sI2
F2458408.699108796
sI3
F2458408.701423611
sI4
F2458408.6983217592
sI5
F2458408.745173611
sI6
F2458408.722164352
sI7
F2458408.722939815
sI8
F2458408.745960648
sI9
F2458408.700648148
sI10
F2458408.721377315
sI11
F2458408.7205902776
sI12
F2458408.742824074
sI13
F2458408.723703704
sI14
F2458408.7436226853
ssg36
(dp186
I0
F3.031889666666667
sI1
Fnan
sI2
Fnan
sI3
Fnan
sI4
Fnan
sI5
Fnan
sI6
Fnan
sI7
Fnan
sI8
Fnan
sI9
Fnan
sI10
Fnan
sI11
Fnan
sI12
Fnan
sI13
Fnan
sI14
Fnan
ssg38
(dp187
I0
F2.150425466666667
sI1
Fnan
sI2
Fnan
sI3
Fnan
sI4
Fnan
sI5
Fnan
sI6
Fnan
sI7
Fnan
sI8
Fnan
sI9
Fnan
sI10
Fnan
sI11
Fnan
sI12
Fnan
sI13
Fnan
sI14
Fnan
ssg40
(dp188
I0
F0.5487926350106063
sI1
F0.5472197231972287
sI2
F0.5482601685595893
sI3
F0.549272395620027
sI4
F0.5501894353565985
sI5
F0.5479628590387045
sI6
F0.5468628523521488
sI7
F0.5485906983640528
sI8
F0.5491569286501845
sI9
F0.5476500696969474
sI10
F0.5496606402085388
sI11
F0.5529798225658376
sI12
F0.5470683343814726
sI13
F0.5455337029107008
sI14
F0.5524540042634692
ssg42
(dp189
I0
F0.0010253867938317886
sI1
Fnan
sI2
Fnan
sI3
Fnan
sI4
Fnan
sI5
Fnan
sI6
Fnan
sI7
Fnan
sI8
Fnan
sI9
Fnan
sI10
Fnan
sI11
Fnan
sI12
Fnan
sI13
Fnan
sI14
Fnan
ssg44
(dp190
I0
F0.8419760666666664
sI1
Fnan
sI2
Fnan
sI3
Fnan
sI4
Fnan
sI5
Fnan
sI6
Fnan
sI7
Fnan
sI8
Fnan
sI9
Fnan
sI10
Fnan
sI11
Fnan
sI12
Fnan
sI13
Fnan
sI14
Fnan
ssg46
(dp191
I0
g164
sI1
g165
sI2
g166
sI3
g167
sI4
g168
sI5
g169
sI6
g170
sI7
g171
sI8
g172
sI9
g173
sI10
g174
sI11
g175
sI12
g176
sI13
g177
sI14
g178
ssg48
(dp192
I0
F0.0023625734267919032
sI1
Fnan
sI2
Fnan
sI3
Fnan
sI4
Fnan
sI5
Fnan
sI6
Fnan
sI7
Fnan
sI8
Fnan
sI9
Fnan
sI10
Fnan
sI11
Fnan
sI12
Fnan
sI13
Fnan
sI14
Fnan
ssg50
(dp193
I0
F0.012441099323651117
sI1
Fnan
sI2
Fnan
sI3
Fnan
sI4
Fnan
sI5
Fnan
sI6
Fnan
sI7
Fnan
sI8
Fnan
sI9
Fnan
sI10
Fnan
sI11
Fnan
sI12
Fnan
sI13
Fnan
sI14
Fnan
ssg52
(dp194
I0
F2.9066500400000006
sI1
Fnan
sI2
Fnan
sI3
Fnan
sI4
Fnan
sI5
Fnan
sI6
Fnan
sI7
Fnan
sI8
Fnan
sI9
Fnan
sI10
Fnan
sI11
Fnan
sI12
Fnan
sI13
Fnan
sI14
Fnan
ssg54
(dp195
I0
F1.500609948403456
sI1
F1.501894876067351
sI2
F1.4913585460841239
sI3
F1.5033256937650894
sI4
F1.4912951900234779
sI5
F1.4994030918798495
sI6
F1.4975224392029653
sI7
F1.5028929887103668
sI8
F1.4978316847737958
sI9
F1.5017299197146285
sI10
F1.5054507719699322
sI11
F1.4962996030857747
sI12
F1.4893123754718116
sI13
F1.500946823633385
sI14
F1.498715399089003
ssg56
(dp196
I0
g164
sI1
g165
sI2
g166
sI3
g167
sI4
g168
sI5
g169
sI6
g170
sI7
g171
sI8
g172
sI9
g173
sI10
g174
sI11
g175
sI12
g176
sI13
g177
sI14
g178
ssg58
(dp197
I0
F21.15412
sI1
F20.26386
sI2
F19.84717
sI3
F19.00604
sI4
F19.50297
sI5
F19.0583
sI6
F21.34412
sI7
F22.01181
sI8
F20.27415
sI9
F21.07648
sI10
F23.20737
sI11
F21.2742
sI12
F23.06885
sI13
F22.69083
sI14
F19.82163
ssg60
(dp198
I0
F10.2786
sI1
Fnan
sI2
Fnan
sI3
Fnan
sI4
Fnan
sI5
Fnan
sI6
Fnan
sI7
Fnan
sI8
Fnan
sI9
Fnan
sI10
Fnan
sI11
Fnan
sI12
Fnan
sI13
Fnan
sI14
Fnan
ssg62
(dp199
I0
F0.7132110079878289
sI1
Fnan
sI2
Fnan
sI3
Fnan
sI4
Fnan
sI5
Fnan
sI6
Fnan
sI7
Fnan
sI8
Fnan
sI9
Fnan
sI10
Fnan
sI11
Fnan
sI12
Fnan
sI13
Fnan
sI14
Fnan
ssg64
(dp200
I0
F3.611458
sI1
F2.574325
sI2
F-2.960357
sI3
F2.072862
sI4
F4.624457
sI5
F5.364532
sI6
F3.392703
sI7
F4.69906
sI8
F3.146755
sI9
F3.917838
sI10
F1.441083
sI11
F2.406581
sI12
F-2.862265
sI13
F3.117305
sI14
F-2.289955
ssg66
(dp201
I0
F10.633933333333333
sI1
Fnan
sI2
Fnan
sI3
Fnan
sI4
Fnan
sI5
Fnan
sI6
Fnan
sI7
Fnan
sI8
Fnan
sI9
Fnan
sI10
Fnan
sI11
Fnan
sI12
Fnan
sI13
Fnan
sI14
Fnan
ssg68
(dp202
I0
g164
sI1
g165
sI2
g166
sI3
g167
sI4
g168
sI5
g169
sI6
g170
sI7
g171
sI8
g172
sI9
g173
sI10
g174
sI11
g175
sI12
g176
sI13
g177
sI14
g178
ssg70
(dp203
I0
F13947.68
sI1
F13896.44
sI2
F14061.93
sI3
F14315.8
sI4
F14368.353333333333
sI5
F13981.22
sI6
F13994.476666666666
sI7
F13907.026666666667
sI8
F13893.513333333334
sI9
F13966.226666666666
sI10
F13818.806666666667
sI11
F14066.31
sI12
F13957.423333333334
sI13
F13839.106666666667
sI14
F14142.793333333333
ssg72
(dp204
I0
F1.170587
sI1
F1.358579
sI2
F1.16815
sI3
F1.175592
sI4
F1.165712
sI5
F1.362873
sI6
F1.252219
sI7
F1.255434
sI8
F1.3671440000000001
sI9
F1.173066
sI10
F1.248987
sI11
F1.245776
sI12
F1.350196
sI13
F1.258709
sI14
F1.354383
ssg74
(dp205
I0
F11915.163333333334
sI1
F11809.726666666666
sI2
F11952.596666666668
sI3
F12145.846666666668
sI4
F12220.203333333333
sI5
F11927.29
sI6
F11910.706666666667
sI7
F11867.356666666667
sI8
F11802.32
sI9
F11847.109999999999
sI10
F11743.933333333332
sI11
F11993.056666666667
sI12
F11960.403333333332
sI13
F11748.2
sI14
F12053.41
ssg76
(dp206
I0
F19405.02
sI1
F19303.98
sI2
F19398.493333333336
sI3
F19890.236666666668
sI4
F19825.693333333336
sI5
F19423.65
sI6
F19396.79666666667
sI7
F19368.07
sI8
F19244.016666666666
sI9
F19382.33
sI10
F19241.72333333333
sI11
F19496.31
sI12
F19299.87
sI13
F19202.593333333334
sI14
F19630.326666666668
ssg78
(dp207
I0
F20.35758
sI1
F18.98102
sI2
F20.08828
sI3
F18.50011
sI4
F19.08275
sI5
F17.31859
sI6
F20.56256
sI7
F21.23537
sI8
F19.09003
sI9
F19.29484
sI10
F21.19901
sI11
F20.26936
sI12
F23.21167
sI13
F21.39431
sI14
F18.2084
ssg80
(dp208
I0
F10.81
sI1
F10.819
sI2
F10.806
sI3
F10.789
sI4
F10.782
sI5
F10.809
sI6
F10.81
sI7
F10.814
sI8
F10.82
sI9
F10.816
sI10
F10.825
sI11
F10.803
sI12
F10.806
sI13
F10.825
sI14
F10.797
ssg82
(dp209
I0
F0.001
sI1
F0.001
sI2
F0.001
sI3
F0.001
sI4
F0.001
sI5
F0.001
sI6
F0.001
sI7
F0.001
sI8
F0.001
sI9
F0.001
sI10
F0.001
sI11
F0.001
sI12
F0.001
sI13
F0.001
sI14
F0.001
ssg84
(dp210
I0
F0.5487769513450738
sI1
Fnan
sI2
Fnan
sI3
Fnan
sI4
Fnan
sI5
Fnan
sI6
Fnan
sI7
Fnan
sI8
Fnan
sI9
Fnan
sI10
Fnan
sI11
Fnan
sI12
Fnan
sI13
Fnan
sI14
Fnan
ssg86
(dp211
I0
F10.808733333333334
sI1
Fnan
sI2
Fnan
sI3
Fnan
sI4
Fnan
sI5
Fnan
sI6
Fnan
sI7
Fnan
sI8
Fnan
sI9
Fnan
sI10
Fnan
sI11
Fnan
sI12
Fnan
sI13
Fnan
sI14
Fnan
ssg88
(dp212
I0
F10.639
sI1
F10.643
sI2
F10.63
sI3
F10.61
sI4
F10.606
sI5
F10.636
sI6
F10.635
sI7
F10.642
sI8
F10.643
sI9
F10.637
sI10
F10.649
sI11
F10.63
sI12
F10.638
sI13
F10.647
sI14
F10.624
ssg90
(dp213
I0
F3.307521
sI1
F4.683692
sI2
F4.360934
sI3
F-2.095859
sI4
F2.927727
sI5
F5.193891
sI6
F4.11803
sI7
F5.785003
sI8
F-2.22307
sI9
F3.534437
sI10
F4.76579
sI11
F4.627771
sI12
F4.617186
sI13
F5.218776
sI14
F-3.343484
ssg92
(dp214
I0
F0.01128716084761787
sI1
Fnan
sI2
Fnan
sI3
Fnan
sI4
Fnan
sI5
Fnan
sI6
Fnan
sI7
Fnan
sI8
Fnan
sI9
Fnan
sI10
Fnan
sI11
Fnan
sI12
Fnan
sI13
Fnan
sI14
Fnan
ssg94
(dp215
I0
F0.7144946785917383
sI1
F0.7114203173734951
sI2
F0.7144318855499636
sI3
F0.7101580802842696
sI4
F0.7147561944018714
sI5
F0.7141048595608963
sI6
F0.7134023640108763
sI7
F0.7132875847392981
sI8
F0.712323459231874
sI9
F0.7105021136846801
sI10
F0.710450397094864
sI11
F0.7146674882155605
sI12
F0.7192649872890036
sI13
F0.7111135322940406
sI14
F0.7137871774950019
ssg96
(dp216
I0
F30.0
sI1
F30.0
sI2
F30.0
sI3
F30.0
sI4
F30.0
sI5
F30.0
sI6
F30.0
sI7
F30.0
sI8
F30.0
sI9
F30.0
sI10
F30.0
sI11
F30.0
sI12
F30.0
sI13
F30.0
sI14
F30.0
ssg98
(dp217
I0
F0.002
sI1
F0.002
sI2
F0.002
sI3
F0.002
sI4
F0.002
sI5
F0.002
sI6
F0.002
sI7
F0.002
sI8
F0.002
sI9
F0.002
sI10
F0.002
sI11
F0.002
sI12
F0.002
sI13
F0.002
sI14
F0.002
ssg100
(dp218
I0
F0.002
sI1
F0.002
sI2
F0.002
sI3
F0.002
sI4
F0.002
sI5
F0.002
sI6
F0.002
sI7
F0.002
sI8
F0.002
sI9
F0.002
sI10
F0.002
sI11
F0.002
sI12
F0.002
sI13
F0.002
sI14
F0.002
ssg102
(dp219
I0
F4.665123
sI1
F0.8409696
sI2
F3.613276
sI3
F4.605444
sI4
F4.363223
sI5
F4.039781
sI6
F2.120077
sI7
F3.267106
sI8
F3.027988
sI9
F2.516522
sI10
F3.248157
sI11
F3.568448
sI12
F3.693072
sI13
F3.342138
sI14
F-3.311574
ssg104
(dp220
I0
S"KIC8462852-20181017at044750_-25-1X1-030-r'_cal.fts.mag.1"
p221
sI1
S"KIC8462852-20181017at055156_-25-1X1-030-r'_cal.fts.mag.1"
p222
sI2
S"KIC8462852-20181017at044643_-25-1X1-030-r'_cal.fts.mag.1"
p223
sI3
S"KIC8462852-20181017at045003_-25-1X1-030-r'_cal.fts.mag.1"
p224
sI4
S"KIC8462852-20181017at044534_-25-1X1-030-r'_cal.fts.mag.1"
p225
sI5
S"KIC8462852-20181017at055303_-25-1X1-030-r'_cal.fts.mag.1"
p226
sI6
S"KIC8462852-20181017at051955_-25-1X1-030-r'_cal.fts.mag.1"
p227
sI7
S"KIC8462852-20181017at052102_-25-1X1-030-r'_cal.fts.mag.1"
p228
sI8
S"KIC8462852-20181017at055411_-25-1X1-030-r'_cal.fts.mag.1"
p229
sI9
S"KIC8462852-20181017at044856_-25-1X1-030-r'_cal.fts.mag.1"
p230
sI10
S"KIC8462852-20181017at051847_-25-1X1-030-r'_cal.fts.mag.1"
p231
sI11
S"KIC8462852-20181017at051736_-25-1X1-030-r'_cal.fts.mag.1"
p232
sI12
S"KIC8462852-20181017at054939_-25-1X1-030-r'_cal.fts.mag.1"
p233
sI13
S"KIC8462852-20181017at052208_-25-1X1-030-r'_cal.fts.mag.1"
p234
sI14
S"KIC8462852-20181017at055049_-25-1X1-030-r'_cal.fts.mag.1"
p235
ssg121
(dp236
I0
F0.004763284173018675
sI1
Fnan
sI2
Fnan
sI3
Fnan
sI4
Fnan
sI5
Fnan
sI6
Fnan
sI7
Fnan
sI8
Fnan
sI9
Fnan
sI10
Fnan
sI11
Fnan
sI12
Fnan
sI13
Fnan
sI14
Fnan
ssg123
(dp237
I0
F8280.890000000001
sI1
F8210.146666666666
sI2
F8299.383333333333
sI3
F8486.603333333334
sI4
F8512.21
sI5
F8280.113333333333
sI6
F8257.99
sI7
F8254.91
sI8
F8226.343333333332
sI9
F8250.47
sI10
F8209.083333333334
sI11
F8397.123333333333
sI12
F8245.723333333333
sI13
F8144.8
sI14
F8439.016666666666
ssg125
(dp238
I0
F0.012348896229835165
sI1
Fnan
sI2
Fnan
sI3
Fnan
sI4
Fnan
sI5
Fnan
sI6
Fnan
sI7
Fnan
sI8
Fnan
sI9
Fnan
sI10
Fnan
sI11
Fnan
sI12
Fnan
sI13
Fnan
sI14
Fnan
ssg127
(dp239
I0
S"r'"
p240
sI1
S"r'"
p241
sI2
S"r'"
p242
sI3
S"r'"
p243
sI4
S"r'"
p244
sI5
S"r'"
p245
sI6
S"r'"
p246
sI7
S"r'"
p247
sI8
S"r'"
p248
sI9
S"r'"
p249
sI10
S"r'"
p250
sI11
S"r'"
p251
sI12
S"r'"
p252
sI13
S"r'"
p253
sI14
S"r'"
p254
ssg144
(dp255
I0
F0.002002000525538493
sI1
Fnan
sI2
Fnan
sI3
Fnan
sI4
Fnan
sI5
Fnan
sI6
Fnan
sI7
Fnan
sI8
Fnan
sI9
Fnan
sI10
Fnan
sI11
Fnan
sI12
Fnan
sI13
Fnan
sI14
Fnan
ssg146
(dp256
I0
F-2.385605
sI1
F4.399417
sI2
F-3.05263
sI3
F4.922334
sI4
F-2.477049
sI5
F-2.130934
sI6
F4.408359
sI7
F3.403807
sI8
F2.532364
sI9
F2.901929
sI10
F-3.848677
sI11
F4.21527
sI12
F3.722853
sI13
F-1.950776
sI14
F-2.031021
ssg148
(dp257
I0
F1.498572623458334
sI1
Fnan
sI2
Fnan
sI3
Fnan
sI4
Fnan
sI5
Fnan
sI6
Fnan
sI7
Fnan
sI8
Fnan
sI9
Fnan
sI10
Fnan
sI11
Fnan
sI12
Fnan
sI13
Fnan
sI14
Fnan
ssg150
(dp258
I0
F2458408.722164352
sI1
Fnan
sI2
Fnan
sI3
Fnan
sI4
Fnan
sI5
Fnan
sI6
Fnan
sI7
Fnan
sI8
Fnan
sI9
Fnan
sI10
Fnan
sI11
Fnan
sI12
Fnan
sI13
Fnan
sI14
Fnan
ssg152
(dp259
I0
F0.002002000525538493
sI1
Fnan
sI2
Fnan
sI3
Fnan
sI4
Fnan
sI5
Fnan
sI6
Fnan
sI7
Fnan
sI8
Fnan
sI9
Fnan
sI10
Fnan
sI11
Fnan
sI12
Fnan
sI13
Fnan
sI14
Fnan
ssg154
(dp260
I0
F24.28678
sI1
F21.94171
sI2
F22.78917
sI3
F21.94367
sI4
F22.45418
sI5
F21.80615
sI6
F24.32234
sI7
F24.31756
sI8
F23.34209
sI9
F24.22956
sI10
F25.96593
sI11
F23.8667
sI12
F26.6292
sI13
F25.7312
sI14
F21.7327
ssg156
(dp261
I0
F10.28
sI1
F10.286
sI2
F10.281
sI3
F10.253
sI4
F10.257
sI5
F10.279
sI6
F10.281
sI7
F10.282
sI8
F10.289
sI9
F10.281
sI10
F10.289
sI11
F10.275
sI12
F10.286
sI13
F10.292
sI14
F10.268
ssg158
(dp262
I0
F0.5487769513450738
sI1
Fnan
sI2
Fnan
sI3
Fnan
sI4
Fnan
sI5
Fnan
sI6
Fnan
sI7
Fnan
sI8
Fnan
sI9
Fnan
sI10
Fnan
sI11
Fnan
sI12
Fnan
sI13
Fnan
sI14
Fnan
sssS'z'
p263
(dp264
g3
(dp265
I0
F0.37372773535900666
sI1
Fnan
sI2
Fnan
sI3
Fnan
sI4
Fnan
sI5
Fnan
sI6
Fnan
sI7
Fnan
sI8
Fnan
sI9
Fnan
sI10
Fnan
sI11
Fnan
sI12
Fnan
sI13
Fnan
sI14
Fnan
ssg5
(dp266
I0
S'NoError'
p267
sI1
S'NoError'
p268
sI2
S'NoError'
p269
sI3
S'NoError'
p270
sI4
S'NoError'
p271
sI5
S'NoError'
p272
sI6
S'NoError'
p273
sI7
S'NoError'
p274
sI8
S'NoError'
p275
sI9
S'NoError'
p276
sI10
S'NoError'
p277
sI11
S'NoError'
p278
sI12
S'NoError'
p279
sI13
S'NoError'
p280
sI14
S'NoError'
p281
ssg22
(dp282
I0
F0.007
sI1
F0.007
sI2
F0.007
sI3
F0.007
sI4
F0.007
sI5
F0.007
sI6
F0.007
sI7
F0.007
sI8
F0.007
sI9
F0.007
sI10
F0.007
sI11
F0.007
sI12
F0.007
sI13
F0.007
sI14
F0.007
ssg24
(dp283
I0
F0.9133942869190975
sI1
F0.9178284887268747
sI2
F0.9074938188434618
sI3
F0.9124653697699084
sI4
F0.9271968755756487
sI5
F0.9171237858658318
sI6
F0.9158976944319812
sI7
F0.9129214929264746
sI8
F0.907580820439658
sI9
F0.9175347130035777
sI10
F0.9110158877518065
sI11
F0.919607210561455
sI12
F0.909754036477509
sI13
F0.9186065091989271
sI14
F0.9104360925014154
ssg26
(dp284
I0
F0.005272266991829813
sI1
Fnan
sI2
Fnan
sI3
Fnan
sI4
Fnan
sI5
Fnan
sI6
Fnan
sI7
Fnan
sI8
Fnan
sI9
Fnan
sI10
Fnan
sI11
Fnan
sI12
Fnan
sI13
Fnan
sI14
Fnan
ssg28
(dp285
I0
F0.9145904721995752
sI1
Fnan
sI2
Fnan
sI3
Fnan
sI4
Fnan
sI5
Fnan
sI6
Fnan
sI7
Fnan
sI8
Fnan
sI9
Fnan
sI10
Fnan
sI11
Fnan
sI12
Fnan
sI13
Fnan
sI14
Fnan
ssg30
(dp286
I0
F13.257
sI1
F13.284
sI2
F13.237
sI3
F13.301
sI4
F13.209
sI5
F13.256
sI6
F13.233
sI7
F13.258
sI8
F13.24
sI9
F13.259
sI10
F13.255
sI11
F13.26
sI12
F13.267
sI13
F13.281
sI14
F13.257
ssg32
(dp287
I0
F8.721168
sI1
F8.663821
sI2
F10.72984
sI3
F9.824322
sI4
F9.954204
sI5
F7.987213
sI6
F6.791288
sI7
F11.14848
sI8
F7.665245
sI9
F7.800415
sI10
F8.201891
sI11
F9.265865
sI12
F9.676017
sI13
F10.49648
sI14
F11.84254
ssg34
(dp288
I0
F2458408.7538310187
sI1
F2458408.7522569443
sI2
F2458408.731539352
sI3
F2458408.7514814814
sI4
F2458408.728425926
sI5
F2458408.709247685
sI6
F2458408.7061458332
sI7
F2458408.730752315
sI8
F2458408.707696759
sI9
F2458408.706921296
sI10
F2458408.708483796
sI11
F2458408.7506944444
sI12
F2458408.7530439813
sI13
F2458408.729976852
sI14
F2458408.729201389
ssg36
(dp289
I0
F1.8346885999999998
sI1
Fnan
sI2
Fnan
sI3
Fnan
sI4
Fnan
sI5
Fnan
sI6
Fnan
sI7
Fnan
sI8
Fnan
sI9
Fnan
sI10
Fnan
sI11
Fnan
sI12
Fnan
sI13
Fnan
sI14
Fnan
ssg38
(dp290
I0
F2.07887
sI1
Fnan
sI2
Fnan
sI3
Fnan
sI4
Fnan
sI5
Fnan
sI6
Fnan
sI7
Fnan
sI8
Fnan
sI9
Fnan
sI10
Fnan
sI11
Fnan
sI12
Fnan
sI13
Fnan
sI14
Fnan
ssg40
(dp291
I0
F0.3757537252141421
sI1
F0.3712488519040563
sI2
F0.37861327610667656
sI3
F0.3743539598616101
sI4
F0.37835655163033227
sI5
F0.3752247734076168
sI6
F0.3749824353237187
sI7
F0.3737469222761676
sI8
F0.37281582751695125
sI9
F0.3717545600820024
sI10
F0.36685832095227133
sI11
F0.3747384078210052
sI12
F0.369999313892834
sI13
F0.3717574953776422
sI14
F0.36678120894901195
ssg42
(dp292
I0
F0.0022250989858341487
sI1
Fnan
sI2
Fnan
sI3
Fnan
sI4
Fnan
sI5
Fnan
sI6
Fnan
sI7
Fnan
sI8
Fnan
sI9
Fnan
sI10
Fnan
sI11
Fnan
sI12
Fnan
sI13
Fnan
sI14
Fnan
ssg44
(dp293
I0
F1.3065535333333336
sI1
Fnan
sI2
Fnan
sI3
Fnan
sI4
Fnan
sI5
Fnan
sI6
Fnan
sI7
Fnan
sI8
Fnan
sI9
Fnan
sI10
Fnan
sI11
Fnan
sI12
Fnan
sI13
Fnan
sI14
Fnan
ssg46
(dp294
I0
g267
sI1
g268
sI2
g269
sI3
g270
sI4
g271
sI5
g272
sI6
g273
sI7
g274
sI8
g275
sI9
g276
sI10
g277
sI11
g278
sI12
g279
sI13
g280
sI14
g281
ssg48
(dp295
I0
F0.0033071502820423556
sI1
Fnan
sI2
Fnan
sI3
Fnan
sI4
Fnan
sI5
Fnan
sI6
Fnan
sI7
Fnan
sI8
Fnan
sI9
Fnan
sI10
Fnan
sI11
Fnan
sI12
Fnan
sI13
Fnan
sI14
Fnan
ssg50
(dp296
I0
F0.02109570030666381
sI1
Fnan
sI2
Fnan
sI3
Fnan
sI4
Fnan
sI5
Fnan
sI6
Fnan
sI7
Fnan
sI8
Fnan
sI9
Fnan
sI10
Fnan
sI11
Fnan
sI12
Fnan
sI13
Fnan
sI14
Fnan
ssg52
(dp297
I0
F0.8719766
sI1
Fnan
sI2
Fnan
sI3
Fnan
sI4
Fnan
sI5
Fnan
sI6
Fnan
sI7
Fnan
sI8
Fnan
sI9
Fnan
sI10
Fnan
sI11
Fnan
sI12
Fnan
sI13
Fnan
sI14
Fnan
ssg54
(dp298
I0
F1.503886624418825
sI1
F1.5030688321340475
sI2
F1.5175710101345359
sI3
F1.5142642961547117
sI4
F1.494023451275272
sI5
F1.50455750502942
sI6
F1.4987325696271874
sI7
F1.511310478009097
sI8
F1.5110467352169237
sI9
F1.508134106153809
sI10
F1.511728741744859
sI11
F1.5054705424856136
sI12
F1.5120615947715708
sI13
F1.5090867191188693
sI14
F1.5003092934469477
ssg56
(dp299
I0
g267
sI1
g268
sI2
g269
sI3
g270
sI4
g271
sI5
g272
sI6
g273
sI7
g274
sI8
g275
sI9
g276
sI10
g277
sI11
g278
sI12
g279
sI13
g280
sI14
g281
ssg58
(dp300
I0
F10.68426
sI1
F9.913807
sI2
F12.53797
sI3
F10.45635
sI4
F11.21527
sI5
F9.455422
sI6
F9.279932
sI7
F12.79373
sI8
F8.548475
sI9
F7.937532
sI10
F8.27906
sI11
F9.382549
sI12
F10.46262
sI13
F11.59861
sI14
F10.88544
ssg60
(dp301
I0
F11.910800000000002
sI1
Fnan
sI2
Fnan
sI3
Fnan
sI4
Fnan
sI5
Fnan
sI6
Fnan
sI7
Fnan
sI8
Fnan
sI9
Fnan
sI10
Fnan
sI11
Fnan
sI12
Fnan
sI13
Fnan
sI14
Fnan
ssg62
(dp302
I0
F0.6899541646993009
sI1
Fnan
sI2
Fnan
sI3
Fnan
sI4
Fnan
sI5
Fnan
sI6
Fnan
sI7
Fnan
sI8
Fnan
sI9
Fnan
sI10
Fnan
sI11
Fnan
sI12
Fnan
sI13
Fnan
sI14
Fnan
ssg64
(dp303
I0
F2.611664
sI1
F1.425066
sI2
F-1.297451
sI3
F-1.349625
sI4
F4.604108
sI5
F3.406183
sI6
F2.088932
sI7
F1.532835
sI8
F-1.696098
sI9
F3.585022
sI10
F1.988647
sI11
F3.26105
sI12
F2.92728
sI13
F3.365788
sI14
F4.729649
ssg66
(dp304
I0
F12.2522
sI1
Fnan
sI2
Fnan
sI3
Fnan
sI4
Fnan
sI5
Fnan
sI6
Fnan
sI7
Fnan
sI8
Fnan
sI9
Fnan
sI10
Fnan
sI11
Fnan
sI12
Fnan
sI13
Fnan
sI14
Fnan
ssg68
(dp305
I0
g267
sI1
g268
sI2
g269
sI3
g270
sI4
g271
sI5
g272
sI6
g273
sI7
g274
sI8
g275
sI9
g276
sI10
g277
sI11
g278
sI12
g279
sI13
g280
sI14
g281
ssg70
(dp306
I0
F3130.6826666666666
sI1
F3102.1723333333334
sI2
F3150.7976666666664
sI3
F3015.292
sI4
F3284.316
sI5
F3145.7023333333336
sI6
F3214.426
sI7
F3144.6323333333335
sI8
F3192.2276666666667
sI9
F3167.921333333333
sI10
F3205.951
sI11
F3145.0413333333336
sI12
F3141.2683333333334
sI13
F3107.224333333333
sI14
F3200.335666666667
ssg72
(dp307
I0
F1.4129770000000001
sI1
F1.4034799999999998
sI2
F1.293609
sI3
F1.3988479999999999
sI4
F1.279401
sI5
F1.202259
sI6
F1.191375
sI7
F1.290007
sI8
F1.196772
sI9
F1.194029
sI10
F1.199474
sI11
F1.3942290000000002
sI12
F1.408203
sI13
F1.286417
sI14
F1.2828950000000001
ssg74
(dp308
I0
F2569.1220000000003
sI1
F2528.3083333333334
sI2
F2588.8173333333334
sI3
F2462.0433333333335
sI4
F2650.798333333333
sI5
F2564.3663333333334
sI6
F2635.468
sI7
F2570.496
sI8
F2633.2793333333334
sI9
F2574.8526666666667
sI10
F2628.2923333333333
sI11
F2551.773333333333
sI12
F2580.1696666666667
sI13
F2519.485666666667
sI14
F2645.2456666666667
ssg76
(dp309
I0
F4285.929999999999
sI1
F4231.5
sI2
F4355.136666666667
sI3
F4147.066666666667
sI4
F4433.6
sI5
F4295.5633333333335
sI6
F4383.713333333333
sI7
F4318.666666666667
sI8
F4401.306666666667
sI9
F4330.4366666666665
sI10
F4409.8966666666665
sI11
F4288.193333333334
sI12
F4325.583333333333
sI13
F4245.596666666666
sI14
F4385.09
ssg78
(dp310
I0
F10.22662
sI1
F9.365591
sI2
F12.72394
sI3
F9.928701
sI4
F10.60505
sI5
F9.012142
sI6
F8.70971
sI7
F11.86345
sI8
F8.660142
sI9
F8.60256
sI10
F8.115903
sI11
F10.03316
sI12
F9.12057
sI13
F12.03007
sI14
F10.44784
ssg80
(dp311
I0
F12.476
sI1
F12.493
sI2
F12.467
sI3
F12.522
sI4
F12.442
sI5
F12.478
sI6
F12.448
sI7
F12.475
sI8
F12.449
sI9
F12.473
sI10
F12.451
sI11
F12.483
sI12
F12.471
sI13
F12.497
sI14
F12.444
ssg82
(dp312
I0
F0.003
sI1
F0.003
sI2
F0.003
sI3
F0.003
sI4
F0.003
sI5
F0.003
sI6
F0.003
sI7
F0.003
sI8
F0.003
sI9
F0.003
sI10
F0.003
sI11
F0.003
sI12
F0.003
sI13
F0.003
sI14
F0.003
ssg84
(dp313
I0
F0.37313237535440263
sI1
Fnan
sI2
Fnan
sI3
Fnan
sI4
Fnan
sI5
Fnan
sI6
Fnan
sI7
Fnan
sI8
Fnan
sI9
Fnan
sI10
Fnan
sI11
Fnan
sI12
Fnan
sI13
Fnan
sI14
Fnan
ssg86
(dp314
I0
F12.471266666666667
sI1
Fnan
sI2
Fnan
sI3
Fnan
sI4
Fnan
sI5
Fnan
sI6
Fnan
sI7
Fnan
sI8
Fnan
sI9
Fnan
sI10
Fnan
sI11
Fnan
sI12
Fnan
sI13
Fnan
sI14
Fnan
ssg88
(dp315
I0
F12.261
sI1
F12.271
sI2
F12.254
sI3
F12.302
sI4
F12.209
sI5
F12.256
sI6
F12.232
sI7
F12.256
sI8
F12.24
sI9
F12.248
sI10
F12.235
sI11
F12.256
sI12
F12.257
sI13
F12.269
sI14
F12.237
ssg90
(dp316
I0
F-3.171674
sI1
F4.302485
sI2
F3.214564
sI3
F-3.806931
sI4
F-1.611456
sI5
F1.920463
sI6
F4.162583
sI7
F1.674632
sI8
F4.146118
sI9
F3.762413
sI10
F-2.199554
sI11
F4.606313
sI12
F4.017147
sI13
F4.445987
sI14
F2.057239
ssg92
(dp317
I0
F0.019571115743068242
sI1
Fnan
sI2
Fnan
sI3
Fnan
sI4
Fnan
sI5
Fnan
sI6
Fnan
sI7
Fnan
sI8
Fnan
sI9
Fnan
sI10
Fnan
sI11
Fnan
sI12
Fnan
sI13
Fnan
sI14
Fnan
ssg94
(dp318
I0
F0.6928019880414412
sI1
F0.689506762346486
sI2
F0.6898054841318223
sI3
F0.6874951249765208
sI4
F0.6869207525278412
sI5
F0.6892285393922907
sI6
F0.693714048764044
sI7
F0.6888363979521656
sI8
F0.6935582872850204
sI9
F0.6867777363168487
sI10
F0.6902166241682968
sI11
F0.6865848981672581
sI12
F0.6910997517695432
sI13
F0.6853113020612543
sI14
F0.6974547725886796
ssg96
(dp319
I0
F30.0
sI1
F30.0
sI2
F30.0
sI3
F30.0
sI4
F30.0
sI5
F30.0
sI6
F30.0
sI7
F30.0
sI8
F30.0
sI9
F30.0
sI10
F30.0
sI11
F30.0
sI12
F30.0
sI13
F30.0
sI14
F30.0
ssg98
(dp320
I0
F0.004
sI1
F0.004
sI2
F0.004
sI3
F0.004
sI4
F0.004
sI5
F0.004
sI6
F0.004
sI7
F0.004
sI8
F0.004
sI9
F0.004
sI10
F0.004
sI11
F0.004
sI12
F0.004
sI13
F0.004
sI14
F0.004
ssg100
(dp321
I0
F0.004
sI1
F0.004
sI2
F0.004
sI3
F0.004
sI4
F0.004
sI5
F0.004
sI6
F0.004
sI7
F0.004
sI8
F0.004
sI9
F0.004
sI10
F0.004
sI11
F0.004
sI12
F0.004
sI13
F0.004
sI14
F0.004
ssg102
(dp322
I0
F-4.189651
sI1
F3.462394
sI2
F3.62633
sI3
F3.777523
sI4
F-1.238345
sI5
F-2.254372
sI6
F-3.326111
sI7
F3.149077
sI8
F3.076598
sI9
F3.321491
sI10
F2.314431
sI11
F3.27936
sI12
F-2.251048
sI13
F-2.730711
sI14
F3.062683
ssg104
(dp323
I0
S"KIC8462852-20181017at060531_-25-1X1-030-z'_cal.fts.mag.1"
p324
sI1
S"KIC8462852-20181017at060315_-25-1X1-030-z'_cal.fts.mag.1"
p325
sI2
S"KIC8462852-20181017at053324_-25-1X1-030-z'_cal.fts.mag.1"
p326
sI3
S"KIC8462852-20181017at060208_-25-1X1-030-z'_cal.fts.mag.1"
p327
sI4
S"KIC8462852-20181017at052853_-25-1X1-030-z'_cal.fts.mag.1"
p328
sI5
S"KIC8462852-20181017at050119_-25-1X1-030-z'_cal.fts.mag.1"
p329
sI6
S"KIC8462852-20181017at045649_-25-1X1-030-z'_cal.fts.mag.1"
p330
sI7
S"KIC8462852-20181017at053217_-25-1X1-030-z'_cal.fts.mag.1"
p331
sI8
S"KIC8462852-20181017at045905_-25-1X1-030-z'_cal.fts.mag.1"
p332
sI9
S"KIC8462852-20181017at045758_-25-1X1-030-z'_cal.fts.mag.1"
p333
sI10
S"KIC8462852-20181017at050013_-25-1X1-030-z'_cal.fts.mag.1"
p334
sI11
S"KIC8462852-20181017at060057_-25-1X1-030-z'_cal.fts.mag.1"
p335
sI12
S"KIC8462852-20181017at060423_-25-1X1-030-z'_cal.fts.mag.1"
p336
sI13
S"KIC8462852-20181017at053110_-25-1X1-030-z'_cal.fts.mag.1"
p337
sI14
S"KIC8462852-20181017at053003_-25-1X1-030-z'_cal.fts.mag.1"
p338
ssg121
(dp339
I0
F0.0063698430674581615
sI1
Fnan
sI2
Fnan
sI3
Fnan
sI4
Fnan
sI5
Fnan
sI6
Fnan
sI7
Fnan
sI8
Fnan
sI9
Fnan
sI10
Fnan
sI11
Fnan
sI12
Fnan
sI13
Fnan
sI14
Fnan
ssg123
(dp340
I0
F1250.7256666666665
sI1
F1220.4163333333333
sI2
F1274.0023333333334
sI3
F1200.9776666666667
sI4
F1307.6903333333332
sI5
F1251.4536666666668
sI6
F1279.141
sI7
F1250.0333333333333
sI8
F1270.906
sI9
F1248.2540000000001
sI10
F1252.7160000000001
sI11
F1247.2553333333335
sI12
F1239.1303333333335
sI13
F1223.368
sI14
F1250.806
ssg125
(dp341
I0
F0.022355781184761794
sI1
Fnan
sI2
Fnan
sI3
Fnan
sI4
Fnan
sI5
Fnan
sI6
Fnan
sI7
Fnan
sI8
Fnan
sI9
Fnan
sI10
Fnan
sI11
Fnan
sI12
Fnan
sI13
Fnan
sI14
Fnan
ssg127
(dp342
I0
S"z'"
p343
sI1
S"z'"
p344
sI2
S"z'"
p345
sI3
S"z'"
p346
sI4
S"z'"
p347
sI5
S"z'"
p348
sI6
S"z'"
p349
sI7
S"z'"
p350
sI8
S"z'"
p351
sI9
S"z'"
p352
sI10
S"z'"
p353
sI11
S"z'"
p354
sI12
S"z'"
p355
sI13
S"z'"
p356
sI14
S"z'"
p357
ssg144
(dp358
I0
F0.0035194112209313935
sI1
Fnan
sI2
Fnan
sI3
Fnan
sI4
Fnan
sI5
Fnan
sI6
Fnan
sI7
Fnan
sI8
Fnan
sI9
Fnan
sI10
Fnan
sI11
Fnan
sI12
Fnan
sI13
Fnan
sI14
Fnan
ssg146
(dp359
I0
F4.059268
sI1
F3.74795
sI2
F4.182064
sI3
F1.544185
sI4
F-3.000155
sI5
F3.525289
sI6
F4.104414
sI7
F-3.37212
sI8
F2.425822
sI9
F2.79693
sI10
F4.476794
sI11
F-1.663691
sI12
F-4.01648
sI13
F3.50643
sI14
F-2.718397
ssg148
(dp360
I0
F1.507016833314779
sI1
Fnan
sI2
Fnan
sI3
Fnan
sI4
Fnan
sI5
Fnan
sI6
Fnan
sI7
Fnan
sI8
Fnan
sI9
Fnan
sI10
Fnan
sI11
Fnan
sI12
Fnan
sI13
Fnan
sI14
Fnan
ssg150
(dp361
I0
F2458408.729976852
sI1
Fnan
sI2
Fnan
sI3
Fnan
sI4
Fnan
sI5
Fnan
sI6
Fnan
sI7
Fnan
sI8
Fnan
sI9
Fnan
sI10
Fnan
sI11
Fnan
sI12
Fnan
sI13
Fnan
sI14
Fnan
ssg152
(dp362
I0
F0.0035194112209313935
sI1
Fnan
sI2
Fnan
sI3
Fnan
sI4
Fnan
sI5
Fnan
sI6
Fnan
sI7
Fnan
sI8
Fnan
sI9
Fnan
sI10
Fnan
sI11
Fnan
sI12
Fnan
sI13
Fnan
sI14
Fnan
ssg154
(dp363
I0
F10.87738
sI1
F10.40382
sI2
F12.78371
sI3
F12.3661
sI4
F11.82782
sI5
F9.394764
sI6
F8.758989
sI7
F12.43151
sI8
F8.793884
sI9
F9.091452
sI10
F9.402079
sI11
F10.29914
sI12
F10.53222
sI13
F12.90334
sI14
F12.37085
ssg156
(dp364
I0
F11.92
sI1
F11.934
sI2
F11.902
sI3
F11.956
sI4
F11.883
sI5
F11.917
sI6
F11.895
sI7
F11.912
sI8
F11.891
sI9
F11.909
sI10
F11.889
sI11
F11.919
sI12
F11.91
sI13
F11.93
sI14
F11.895
ssg158
(dp365
I0
F0.37313237535440263
sI1
Fnan
sI2
Fnan
sI3
Fnan
sI4
Fnan
sI5
Fnan
sI6
Fnan
sI7
Fnan
sI8
Fnan
sI9
Fnan
sI10
Fnan
sI11
Fnan
sI12
Fnan
sI13
Fnan
sI14
Fnan
sssS'g'
p366
(dp367
g3
(dp368
I0
F0.8660165845080275
sI1
Fnan
sI2
Fnan
sI3
Fnan
sI4
Fnan
sI5
Fnan
sI6
Fnan
sI7
Fnan
sI8
Fnan
sI9
Fnan
sI10
Fnan
sI11
Fnan
sI12
Fnan
sI13
Fnan
sI14
Fnan
ssg5
(dp369
I0
S'NoError'
p370
sI1
S'NoError'
p371
sI2
S'NoError'
p372
sI3
S'NoError'
p373
sI4
S'NoError'
p374
sI5
S'NoError'
p375
sI6
S'NoError'
p376
sI7
S'NoError'
p377
sI8
S'NoError'
p378
sI9
S'NoError'
p379
sI10
S'NoError'
p380
sI11
S'NoError'
p381
sI12
S'NoError'
p382
sI13
S'NoError'
p383
sI14
S'NoError'
p384
ssg22
(dp385
I0
F0.002
sI1
F0.002
sI2
F0.002
sI3
F0.002
sI4
F0.002
sI5
F0.002
sI6
F0.002
sI7
F0.003
sI8
F0.002
sI9
F0.002
sI10
F0.002
sI11
F0.002
sI12
F0.002
sI13
F0.002
sI14
F0.002
ssg24
(dp386
I0
F0.8775918897885009
sI1
F0.8781821803200356
sI2
F0.8775494581787338
sI3
F0.8755251462658755
sI4
F0.8781598374455638
sI5
F0.8779126021999593
sI6
F0.8839546189330216
sI7
F0.8748018210267243
sI8
F0.8736995286809582
sI9
F0.8789632764493417
sI10
F0.8838765964559213
sI11
F0.8776021531064728
sI12
F0.8793052311035556
sI13
F0.8708139624082697
sI14
F0.8746238828782564
ssg26
(dp387
I0
F0.0034580561862647967
sI1
Fnan
sI2
Fnan
sI3
Fnan
sI4
Fnan
sI5
Fnan
sI6
Fnan
sI7
Fnan
sI8
Fnan
sI9
Fnan
sI10
Fnan
sI11
Fnan
sI12
Fnan
sI13
Fnan
sI14
Fnan
ssg28
(dp388
I0
F0.8775041456827462
sI1
Fnan
sI2
Fnan
sI3
Fnan
sI4
Fnan
sI5
Fnan
sI6
Fnan
sI7
Fnan
sI8
Fnan
sI9
Fnan
sI10
Fnan
sI11
Fnan
sI12
Fnan
sI13
Fnan
sI14
Fnan
ssg30
(dp389
I0
F11.428
sI1
F11.383
sI2
F11.419
sI3
F11.411
sI4
F11.415
sI5
F11.417
sI6
F11.382
sI7
F11.536
sI8
F11.426
sI9
F11.417
sI10
F11.394
sI11
F11.43
sI12
F11.425
sI13
F11.428
sI14
F11.401
ssg32
(dp390
I0
F13.89315
sI1
F11.80792
sI2
F12.46875
sI3
F11.75894
sI4
F12.48985
sI5
F13.58403
sI6
F11.86713
sI7
F15.79236
sI8
F14.37882
sI9
F12.75072
sI10
F12.77001
sI11
F12.07211
sI12
F13.1883
sI13
F12.93672
sI14
F10.15981
ssg34
(dp391
I0
F2458408.741261574
sI1
F2458408.6959722224
sI2
F2458408.742037037
sI3
F2458408.6967476853
sI4
F2458408.7182407407
sI5
F2458408.739699074
sI6
F2458408.6952083334
sI7
F2458408.7165740742
sI8
F2458408.6944328705
sI9
F2458408.738935185
sI10
F2458408.6975231483
sI11
F2458408.7197916666
sI12
F2458408.740474537
sI13
F2458408.7190162037
sI14
F2458408.7174652778
ssg36
(dp392
I0
F1.1759828
sI1
Fnan
sI2
Fnan
sI3
Fnan
sI4
Fnan
sI5
Fnan
sI6
Fnan
sI7
Fnan
sI8
Fnan
sI9
Fnan
sI10
Fnan
sI11
Fnan
sI12
Fnan
sI13
Fnan
sI14
Fnan
ssg38
(dp393
I0
F1.4406985
sI1
Fnan
sI2
Fnan
sI3
Fnan
sI4
Fnan
sI5
Fnan
sI6
Fnan
sI7
Fnan
sI8
Fnan
sI9
Fnan
sI10
Fnan
sI11
Fnan
sI12
Fnan
sI13
Fnan
sI14
Fnan
ssg40
(dp394
I0
F0.8624046518279526
sI1
F0.8623027077693483
sI2
F0.8705575159488924
sI3
F0.865057988341123
sI4
F0.8704056221234208
sI5
F0.8665032092491525
sI6
F0.8658583501837073
sI7
F0.8614581729549622
sI8
F0.8669141642628037
sI9
F0.8688389933422724
sI10
F0.8672275338527003
sI11
F0.8618235693677271
sI12
F0.8720149789381962
sI13
F0.8670372745573456
sI14
F0.8678424293309772
ssg42
(dp395
I0
F0.0029383844530393756
sI1
Fnan
sI2
Fnan
sI3
Fnan
sI4
Fnan
sI5
Fnan
sI6
Fnan
sI7
Fnan
sI8
Fnan
sI9
Fnan
sI10
Fnan
sI11
Fnan
sI12
Fnan
sI13
Fnan
sI14
Fnan
ssg44
(dp396
I0
F0.8906511333333332
sI1
Fnan
sI2
Fnan
sI3
Fnan
sI4
Fnan
sI5
Fnan
sI6
Fnan
sI7
Fnan
sI8
Fnan
sI9
Fnan
sI10
Fnan
sI11
Fnan
sI12
Fnan
sI13
Fnan
sI14
Fnan
ssg46
(dp397
I0
g370
sI1
g371
sI2
g372
sI3
g373
sI4
g374
sI5
g375
sI6
g376
sI7
g377
sI8
g378
sI9
g379
sI10
g380
sI11
g381
sI12
g382
sI13
g383
sI14
g384
ssg48
(dp398
I0
F0.001780033837157944
sI1
Fnan
sI2
Fnan
sI3
Fnan
sI4
Fnan
sI5
Fnan
sI6
Fnan
sI7
Fnan
sI8
Fnan
sI9
Fnan
sI10
Fnan
sI11
Fnan
sI12
Fnan
sI13
Fnan
sI14
Fnan
ssg50
(dp399
I0
F0.03592147520568154
sI1
Fnan
sI2
Fnan
sI3
Fnan
sI4
Fnan
sI5
Fnan
sI6
Fnan
sI7
Fnan
sI8
Fnan
sI9
Fnan
sI10
Fnan
sI11
Fnan
sI12
Fnan
sI13
Fnan
sI14
Fnan
ssg52
(dp400
I0
F1.4871302600000003
sI1
Fnan
sI2
Fnan
sI3
Fnan
sI4
Fnan
sI5
Fnan
sI6
Fnan
sI7
Fnan
sI8
Fnan
sI9
Fnan
sI10
Fnan
sI11
Fnan
sI12
Fnan
sI13
Fnan
sI14
Fnan
ssg54
(dp401
I0
F1.5187505439833686
sI1
F1.5144541828545308
sI2
F1.5210425253384618
sI3
F1.5205390759911708
sI4
F1.5199555423858853
sI5
F1.5221144456611428
sI6
F1.510430246935955
sI7
F1.5262075311943082
sI8
F1.5222631454034254
sI9
F1.5159847213409254
sI10
F1.5121151411418685
sI11
F1.518407959202778
sI12
F1.5129389862659395
sI13
F1.522070212089742
sI14
F1.5205763494837092
ssg56
(dp402
I0
g370
sI1
g371
sI2
g372
sI3
g373
sI4
g374
sI5
g375
sI6
g376
sI7
g377
sI8
g378
sI9
g379
sI10
g380
sI11
g381
sI12
g382
sI13
g383
sI14
g384
ssg58
(dp403
I0
F13.60184
sI1
F12.05613
sI2
F11.95494
sI3
F13.01774
sI4
F12.36677
sI5
F13.42819
sI6
F12.60616
sI7
F16.26751
sI8
F14.63754
sI9
F12.84928
sI10
F12.70806
sI11
F13.16755
sI12
F13.58615
sI13
F13.5141
sI14
F11.92847
ssg60
(dp404
I0
F10.984666666666666
sI1
Fnan
sI2
Fnan
sI3
Fnan
sI4
Fnan
sI5
Fnan
sI6
Fnan
sI7
Fnan
sI8
Fnan
sI9
Fnan
sI10
Fnan
sI11
Fnan
sI12
Fnan
sI13
Fnan
sI14
Fnan
ssg62
(dp405
I0
F0.7154326824280732
sI1
Fnan
sI2
Fnan
sI3
Fnan
sI4
Fnan
sI5
Fnan
sI6
Fnan
sI7
Fnan
sI8
Fnan
sI9
Fnan
sI10
Fnan
sI11
Fnan
sI12
Fnan
sI13
Fnan
sI14
Fnan
ssg64
(dp406
I0
F-0.9192565
sI1
F1.552906
sI2
F-4.157345
sI3
F4.264838
sI4
F2.820881
sI5
F1.93857
sI6
F-3.159289
sI7
F3.012362
sI8
F3.327931
sI9
F-2.612535
sI10
F3.610568
sI11
F2.66164
sI12
F2.594063
sI13
F3.379088
sI14
F3.296056
ssg66
(dp407
I0
F11.361733333333335
sI1
Fnan
sI2
Fnan
sI3
Fnan
sI4
Fnan
sI5
Fnan
sI6
Fnan
sI7
Fnan
sI8
Fnan
sI9
Fnan
sI10
Fnan
sI11
Fnan
sI12
Fnan
sI13
Fnan
sI14
Fnan
ssg68
(dp408
I0
g370
sI1
g371
sI2
g372
sI3
g373
sI4
g374
sI5
g375
sI6
g376
sI7
g377
sI8
g378
sI9
g379
sI10
g380
sI11
g381
sI12
g382
sI13
g383
sI14
g384
ssg70
(dp409
I0
F7151.123333333334
sI1
F7458.6866666666665
sI2
F7145.803333333333
sI3
F7229.406666666667
sI4
F7176.35
sI5
F7192.1
sI6
F7470.52
sI7
F6469.5633333333335
sI8
F7106.593333333333
sI9
F7178.503333333333
sI10
F7377.03
sI11
F7144.923333333334
sI12
F7105.293333333333
sI13
F7075.993333333333
sI14
F7269.306666666667
ssg72
(dp410
I0
F1.341821
sI1
F1.158449
sI2
F1.3459020000000002
sI3
F1.1608209999999999
sI4
F1.236158
sI5
F1.3337370000000002
sI6
F1.156115
sI7
F1.22958
sI8
F1.153827
sI9
F1.329756
sI10
F1.163231
sI11
F1.242406
sI12
F1.337774
sI13
F1.239311
sI14
F1.233114
ssg74
(dp411
I0
F6176.490000000001
sI1
F6452.626666666666
sI2
F6163.673333333334
sI3
F6259.3533333333335
sI4
F6187.6900000000005
sI5
F6195.679999999999
sI6
F6415.536666666667
sI7
F5588.993333333333
sI8
F6165.79
sI9
F6196.1433333333325
sI10
F6329.509999999999
sI11
F6172.323333333334
sI12
F6140.85
sI13
F6170.443333333333
sI14
F6303.4766666666665
ssg76
(dp412
I0
F10120.66
sI1
F10534.023333333334
sI2
F10122.140000000001
sI3
F10255.093333333332
sI4
F10156.373333333333
sI5
F10188.866666666667
sI6
F10486.96
sI7
F9201.93
sI8
F10102.03
sI9
F10137.880000000001
sI10
F10362.933333333332
sI11
F10110.506666666666
sI12
F10020.303333333333
sI13
F10081.003333333332
sI14
F10319.226666666666
ssg78
(dp413
I0
F12.49794
sI1
F11.35337
sI2
F12.33853
sI3
F11.44144
sI4
F12.88211
sI5
F12.90508
sI6
F11.71499
sI7
F15.81984
sI8
F12.22577
sI9
F12.78506
sI10
F11.614
sI11
F11.90087
sI12
F12.93491
sI13
F12.02383
sI14
F11.5609
ssg80
(dp414
I0
F11.523
sI1
F11.476
sI2
F11.525
sI3
F11.509
sI4
F11.521
sI5
F11.52
sI6
F11.482
sI7
F11.632
sI8
F11.525
sI9
F11.52
sI10
F11.497
sI11
F11.524
sI12
F11.529
sI13
F11.524
sI14
F11.501
ssg82
(dp415
I0
F0.002
sI1
F0.002
sI2
F0.002
sI3
F0.002
sI4
F0.002
sI5
F0.002
sI6
F0.002
sI7
F0.002
sI8
F0.002
sI9
F0.002
sI10
F0.002
sI11
F0.002
sI12
F0.002
sI13
F0.002
sI14
F0.002
ssg84
(dp416
I0
F0.8664164774700388
sI1
Fnan
sI2
Fnan
sI3
Fnan
sI4
Fnan
sI5
Fnan
sI6
Fnan
sI7
Fnan
sI8
Fnan
sI9
Fnan
sI10
Fnan
sI11
Fnan
sI12
Fnan
sI13
Fnan
sI14
Fnan
ssg86
(dp417
I0
F11.520533333333333
sI1
Fnan
sI2
Fnan
sI3
Fnan
sI4
Fnan
sI5
Fnan
sI6
Fnan
sI7
Fnan
sI8
Fnan
sI9
Fnan
sI10
Fnan
sI11
Fnan
sI12
Fnan
sI13
Fnan
sI14
Fnan
ssg88
(dp418
I0
F11.364
sI1
F11.318
sI2
F11.365
sI3
F11.352
sI4
F11.36
sI5
F11.358
sI6
F11.317
sI7
F11.473
sI8
F11.371
sI9
F11.36
sI10
F11.33
sI11
F11.365
sI12
F11.371
sI13
F11.376
sI14
F11.346
ssg90
(dp419
I0
F2.35803
sI1
F-1.601635
sI2
F5.894613
sI3
F-3.132379
sI4
F3.726277
sI5
F-4.039528
sI6
F4.359057
sI7
F5.465351
sI8
F-2.772302
sI9
F-2.497149
sI10
F1.864125
sI11
F4.854057
sI12
F3.345196
sI13
F-4.041946
sI14
F3.857975
ssg92
(dp420
I0
F0.03318921224620733
sI1
Fnan
sI2
Fnan
sI3
Fnan
sI4
Fnan
sI5
Fnan
sI6
Fnan
sI7
Fnan
sI8
Fnan
sI9
Fnan
sI10
Fnan
sI11
Fnan
sI12
Fnan
sI13
Fnan
sI14
Fnan
ssg94
(dp421
I0
F0.715211612003007
sI1
F0.7172490043652864
sI2
F0.713886212660338
sI3
F0.7159888282002155
sI4
F0.713989357702396
sI5
F0.7129269756764582
sI6
F0.7145252748900922
sI7
F0.7132687631555213
sI8
F0.7165930569305661
sI9
F0.7156394281715869
sI10
F0.7135877206811212
sI11
F0.7154064932990176
sI12
F0.7171545750522756
sI13
F0.7192917796995938
sI14
F0.7167711539336235
ssg96
(dp422
I0
F30.0
sI1
F30.0
sI2
F30.0
sI3
F30.0
sI4
F30.0
sI5
F30.0
sI6
F30.0
sI7
F30.0
sI8
F30.0
sI9
F30.0
sI10
F30.0
sI11
F30.0
sI12
F30.0
sI13
F30.0
sI14
F30.0
ssg98
(dp423
I0
F0.002
sI1
F0.002
sI2
F0.002
sI3
F0.002
sI4
F0.002
sI5
F0.002
sI6
F0.002
sI7
F0.003
sI8
F0.002
sI9
F0.002
sI10
F0.002
sI11
F0.002
sI12
F0.002
sI13
F0.002
sI14
F0.002
ssg100
(dp424
I0
F0.002
sI1
F0.002
sI2
F0.002
sI3
F0.002
sI4
F0.002
sI5
F0.002
sI6
F0.002
sI7
F0.002
sI8
F0.002
sI9
F0.002
sI10
F0.002
sI11
F0.002
sI12
F0.002
sI13
F0.002
sI14
F0.002
ssg102
(dp425
I0
F-1.554216
sI1
F4.141419
sI2
F2.399478
sI3
F2.299325
sI4
F0.9593399
sI5
F3.044571
sI6
F-1.760568
sI7
F-2.177287
sI8
F-3.258272
sI9
F4.353467
sI10
F3.394938
sI11
F3.063127
sI12
F1.578633
sI13
F2.481909
sI14
F3.34109
ssg104
(dp426
I0
S"KIC8462852-20181017at054725_-25-1X1-030-g'_cal.fts.mag.1"
p427
sI1
S"KIC8462852-20181017at044212_-25-1X1-030-g'_cal.fts.mag.1"
p428
sI2
S"KIC8462852-20181017at054832_-25-1X1-030-g'_cal.fts.mag.1"
p429
sI3
S"KIC8462852-20181017at044319_-25-1X1-030-g'_cal.fts.mag.1"
p430
sI4
S"KIC8462852-20181017at051416_-25-1X1-030-g'_cal.fts.mag.1"
p431
sI5
S"KIC8462852-20181017at054510_-25-1X1-030-g'_cal.fts.mag.1"
p432
sI6
S"KIC8462852-20181017at044106_-25-1X1-030-g'_cal.fts.mag.1"
p433
sI7
S"KIC8462852-20181017at051140_-25-1X1-030-g'_cal.fts.mag.1"
p434
sI8
S"KIC8462852-20181017at043947_-25-1X1-030-g'_cal.fts.mag.1"
p435
sI9
S"KIC8462852-20181017at054352_-25-1X1-030-g'_cal.fts.mag.1"
p436
sI10
S"KIC8462852-20181017at044426_-25-1X1-030-g'_cal.fts.mag.1"
p437
sI11
S"KIC8462852-20181017at051630_-25-1X1-030-g'_cal.fts.mag.1"
p438
sI12
S"KIC8462852-20181017at054617_-25-1X1-030-g'_cal.fts.mag.1"
p439
sI13
S"KIC8462852-20181017at051523_-25-1X1-030-g'_cal.fts.mag.1"
p440
sI14
S"KIC8462852-20181017at051309_-25-1X1-030-g'_cal.fts.mag.1"
p441
ssg121
(dp442
I0
F0.004440081657343075
sI1
Fnan
sI2
Fnan
sI3
Fnan
sI4
Fnan
sI5
Fnan
sI6
Fnan
sI7
Fnan
sI8
Fnan
sI9
Fnan
sI10
Fnan
sI11
Fnan
sI12
Fnan
sI13
Fnan
sI14
Fnan
ssg123
(dp443
I0
F6740.633333333333
sI1
F7026.426666666666
sI2
F6799.5233333333335
sI3
F6846.6033333333335
sI4
F6824.1
sI5
F6809.746666666667
sI6
F7034.526666666667
sI7
F6105.006666666667
sI8
F6754.536666666667
sI9
F6809.533333333334
sI10
F6957.903333333334
sI11
F6730.196666666667
sI12
F6762.8966666666665
sI13
F6741.92
sI14
F6911.5
ssg125
(dp444
I0
F0.034952757231658166
sI1
Fnan
sI2
Fnan
sI3
Fnan
sI4
Fnan
sI5
Fnan
sI6
Fnan
sI7
Fnan
sI8
Fnan
sI9
Fnan
sI10
Fnan
sI11
Fnan
sI12
Fnan
sI13
Fnan
sI14
Fnan
ssg127
(dp445
I0
S"g'"
p446
sI1
S"g'"
p447
sI2
S"g'"
p448
sI3
S"g'"
p449
sI4
S"g'"
p450
sI5
S"g'"
p451
sI6
S"g'"
p452
sI7
S"g'"
p453
sI8
S"g'"
p454
sI9
S"g'"
p455
sI10
S"g'"
p456
sI11
S"g'"
p457
sI12
S"g'"
p458
sI13
S"g'"
p459
sI14
S"g'"
p460
ssg144
(dp461
I0
F0.003321568742304674
sI1
Fnan
sI2
Fnan
sI3
Fnan
sI4
Fnan
sI5
Fnan
sI6
Fnan
sI7
Fnan
sI8
Fnan
sI9
Fnan
sI10
Fnan
sI11
Fnan
sI12
Fnan
sI13
Fnan
sI14
Fnan
ssg146
(dp462
I0
F3.35815
sI1
F3.014391
sI2
F1.984601
sI3
F1.00931
sI4
F-3.235523
sI5
F-2.485789
sI6
F2.85446
sI7
F-1.739518
sI8
F-3.110098
sI9
F2.975638
sI10
F3.021964
sI11
F-2.562734
sI12
F2.299684
sI13
F1.704805
sI14
F4.270426
ssg148
(dp463
I0
F1.5185233739515474
sI1
Fnan
sI2
Fnan
sI3
Fnan
sI4
Fnan
sI5
Fnan
sI6
Fnan
sI7
Fnan
sI8
Fnan
sI9
Fnan
sI10
Fnan
sI11
Fnan
sI12
Fnan
sI13
Fnan
sI14
Fnan
ssg150
(dp464
I0
F2458408.7182407407
sI1
Fnan
sI2
Fnan
sI3
Fnan
sI4
Fnan
sI5
Fnan
sI6
Fnan
sI7
Fnan
sI8
Fnan
sI9
Fnan
sI10
Fnan
sI11
Fnan
sI12
Fnan
sI13
Fnan
sI14
Fnan
ssg152
(dp465
I0
F0.003321568742304674
sI1
Fnan
sI2
Fnan
sI3
Fnan
sI4
Fnan
sI5
Fnan
sI6
Fnan
sI7
Fnan
sI8
Fnan
sI9
Fnan
sI10
Fnan
sI11
Fnan
sI12
Fnan
sI13
Fnan
sI14
Fnan
ssg154
(dp466
I0
F14.65402
sI1
F13.25533
sI2
F13.18094
sI3
F15.82844
sI4
F14.28957
sI5
F14.51199
sI6
F13.41154
sI7
F18.96446
sI8
F16.08149
sI9
F14.16798
sI10
F13.8663
sI11
F14.18708
sI12
F14.66408
sI13
F15.09335
sI14
F12.49467
ssg156
(dp467
I0
F10.987
sI1
F10.944
sI2
F10.987
sI3
F10.973
sI4
F10.983
sI5
F10.98
sI6
F10.948
sI7
F11.09
sI8
F10.989
sI9
F10.985
sI10
F10.961
sI11
F10.988
sI12
F10.998
sI13
F10.991
sI14
F10.966
ssg158
(dp468
I0
F0.8664164774700388
sI1
Fnan
sI2
Fnan
sI3
Fnan
sI4
Fnan
sI5
Fnan
sI6
Fnan
sI7
Fnan
sI8
Fnan
sI9
Fnan
sI10
Fnan
sI11
Fnan
sI12
Fnan
sI13
Fnan
sI14
Fnan
sssS'V'
p469
(dp470
g3
(dp471
I0
F0.6926884940429686
sI1
Fnan
sI2
Fnan
sI3
Fnan
sI4
Fnan
sI5
Fnan
sI6
Fnan
sI7
Fnan
sI8
Fnan
sI9
Fnan
sI10
Fnan
sI11
Fnan
sI12
Fnan
sI13
Fnan
sI14
Fnan
ssg5
(dp472
I0
S'NoError'
p473
sI1
S'NoError'
p474
sI2
S'NoError'
p475
sI3
S'NoError'
p476
sI4
S'NoError'
p477
sI5
S'NoError'
p478
sI6
S'NoError'
p479
sI7
S'NoError'
p480
sI8
S'NoError'
p481
sI9
S'NoError'
p482
sI10
S'NoError'
p483
sI11
S'NoError'
p484
sI12
S'NoError'
p485
sI13
S'NoError'
p486
sI14
S'NoError'
p487
ssg22
(dp488
I0
F0.002
sI1
F0.002
sI2
F0.002
sI3
F0.002
sI4
F0.002
sI5
F0.002
sI6
F0.002
sI7
F0.002
sI8
F0.002
sI9
F0.002
sI10
F0.002
sI11
F0.002
sI12
F0.002
sI13
F0.002
sI14
F0.002
ssg24
(dp489
I0
F0.8825441165849731
sI1
F0.8885917533030107
sI2
F0.88235720833948
sI3
F0.8869756791445288
sI4
F0.8839175818676086
sI5
F0.8838754305575516
sI6
F0.8846830993480703
sI7
F0.888302770446939
sI8
F0.8866782950052023
sI9
F0.8831401785824003
sI10
F0.8838204912597444
sI11
F0.8831212931265565
sI12
F0.8850501242348289
sI13
F0.8782556695218555
sI14
F0.8873524155313759
ssg26
(dp490
I0
F0.002709888286206619
sI1
Fnan
sI2
Fnan
sI3
Fnan
sI4
Fnan
sI5
Fnan
sI6
Fnan
sI7
Fnan
sI8
Fnan
sI9
Fnan
sI10
Fnan
sI11
Fnan
sI12
Fnan
sI13
Fnan
sI14
Fnan
ssg28
(dp491
I0
F0.8845777404569417
sI1
Fnan
sI2
Fnan
sI3
Fnan
sI4
Fnan
sI5
Fnan
sI6
Fnan
sI7
Fnan
sI8
Fnan
sI9
Fnan
sI10
Fnan
sI11
Fnan
sI12
Fnan
sI13
Fnan
sI14
Fnan
ssg30
(dp492
I0
F11.43
sI1
F11.455
sI2
F11.412
sI3
F11.474
sI4
F11.415
sI5
F11.43
sI6
F11.48
sI7
F11.49
sI8
F11.435
sI9
F11.493
sI10
F11.436
sI11
F11.471
sI12
F11.415
sI13
F11.432
sI14
F11.433
ssg32
(dp493
I0
F14.94492
sI1
F12.06526
sI2
F12.00303
sI3
F12.24893
sI4
F12.46663
sI5
F12.87053
sI6
F11.80191
sI7
F12.05223
sI8
F13.94476
sI9
F14.00717
sI10
F12.70977
sI11
F15.59302
sI12
F12.99743
sI13
F13.82925
sI14
F13.36351
ssg34
(dp494
I0
F2458408.734039352
sI1
F2458408.754710648
sI2
F2458408.7133217594
sI3
F2458408.7579166666
sI4
F2458408.712523148
sI5
F2458408.710127315
sI6
F2458408.7571180556
sI7
F2458408.755497685
sI8
F2458408.733217593
sI9
F2458408.75630787
sI10
F2458408.710925926
sI11
F2458408.735648148
sI12
F2458408.711724537
sI13
F2458408.7324074074
sI14
F2458408.7348495373
ssg36
(dp495
I0
F1.5381061333333335
sI1
Fnan
sI2
Fnan
sI3
Fnan
sI4
Fnan
sI5
Fnan
sI6
Fnan
sI7
Fnan
sI8
Fnan
sI9
Fnan
sI10
Fnan
sI11
Fnan
sI12
Fnan
sI13
Fnan
sI14
Fnan
ssg38
(dp496
I0
F0.8454129333333332
sI1
Fnan
sI2
Fnan
sI3
Fnan
sI4
Fnan
sI5
Fnan
sI6
Fnan
sI7
Fnan
sI8
Fnan
sI9
Fnan
sI10
Fnan
sI11
Fnan
sI12
Fnan
sI13
Fnan
sI14
Fnan
ssg40
(dp497
I0
F0.6869247720742068
sI1
F0.6932488089076113
sI2
F0.6935704597547772
sI3
F0.6946833600010323
sI4
F0.6907727132606245
sI5
F0.69454947352172
sI6
F0.6891611781658643
sI7
F0.6919875181576184
sI8
F0.6909384180324045
sI9
F0.6864420973214936
sI10
F0.6927955744405636
sI11
F0.6937267765959839
sI12
F0.6927432335260189
sI13
F0.6940844141514048
sI14
F0.6980628785061509
ssg42
(dp498
I0
F0.0016135350384681312
sI1
Fnan
sI2
Fnan
sI3
Fnan
sI4
Fnan
sI5
Fnan
sI6
Fnan
sI7
Fnan
sI8
Fnan
sI9
Fnan
sI10
Fnan
sI11
Fnan
sI12
Fnan
sI13
Fnan
sI14
Fnan
ssg44
(dp499
I0
F0.3333974666666667
sI1
Fnan
sI2
Fnan
sI3
Fnan
sI4
Fnan
sI5
Fnan
sI6
Fnan
sI7
Fnan
sI8
Fnan
sI9
Fnan
sI10
Fnan
sI11
Fnan
sI12
Fnan
sI13
Fnan
sI14
Fnan
ssg46
(dp500
I0
g473
sI1
g474
sI2
g475
sI3
g476
sI4
g477
sI5
g478
sI6
g479
sI7
g480
sI8
g481
sI9
g482
sI10
g483
sI11
g484
sI12
g485
sI13
g486
sI14
g487
ssg48
(dp501
I0
F0.002396188596131786
sI1
Fnan
sI2
Fnan
sI3
Fnan
sI4
Fnan
sI5
Fnan
sI6
Fnan
sI7
Fnan
sI8
Fnan
sI9
Fnan
sI10
Fnan
sI11
Fnan
sI12
Fnan
sI13
Fnan
sI14
Fnan
ssg50
(dp502
I0
F0.02619705545067454
sI1
Fnan
sI2
Fnan
sI3
Fnan
sI4
Fnan
sI5
Fnan
sI6
Fnan
sI7
Fnan
sI8
Fnan
sI9
Fnan
sI10
Fnan
sI11
Fnan
sI12
Fnan
sI13
Fnan
sI14
Fnan
ssg52
(dp503
I0
F2.2089865933333335
sI1
Fnan
sI2
Fnan
sI3
Fnan
sI4
Fnan
sI5
Fnan
sI6
Fnan
sI7
Fnan
sI8
Fnan
sI9
Fnan
sI10
Fnan
sI11
Fnan
sI12
Fnan
sI13
Fnan
sI14
Fnan
ssg54
(dp504
I0
F1.5080374816010296
sI1
F1.5032935821425422
sI2
F1.5129012811090021
sI3
F1.5122815556385394
sI4
F1.5104614747230478
sI5
F1.504955028105424
sI6
F1.5032589366880185
sI7
F1.497976158127175
sI8
F1.5099152067770207
sI9
F1.514510850198961
sI10
F1.5109864830354074
sI11
F1.514130801049191
sI12
F1.5034314414029448
sI13
F1.5139596338166996
sI14
F1.503785640367203
ssg56
(dp505
I0
g473
sI1
g474
sI2
g475
sI3
g476
sI4
g477
sI5
g478
sI6
g479
sI7
g480
sI8
g481
sI9
g482
sI10
g483
sI11
g484
sI12
g485
sI13
g486
sI14
g487
ssg58
(dp506
I0
F13.78154
sI1
F13.07518
sI2
F13.88297
sI3
F12.88961
sI4
F12.83342
sI5
F14.18819
sI6
F13.07646
sI7
F14.27923
sI8
F14.40523
sI9
F14.40537
sI10
F13.61578
sI11
F16.83479
sI12
F13.51334
sI13
F15.88926
sI14
F15.55762
ssg60
(dp507
I0
F10.771133333333333
sI1
Fnan
sI2
Fnan
sI3
Fnan
sI4
Fnan
sI5
Fnan
sI6
Fnan
sI7
Fnan
sI8
Fnan
sI9
Fnan
sI10
Fnan
sI11
Fnan
sI12
Fnan
sI13
Fnan
sI14
Fnan
ssg62
(dp508
I0
F0.7152809055548822
sI1
Fnan
sI2
Fnan
sI3
Fnan
sI4
Fnan
sI5
Fnan
sI6
Fnan
sI7
Fnan
sI8
Fnan
sI9
Fnan
sI10
Fnan
sI11
Fnan
sI12
Fnan
sI13
Fnan
sI14
Fnan
ssg64
(dp509
I0
F-3.210292
sI1
F3.062435
sI2
F1.632937
sI3
F3.370967
sI4
F3.464574
sI5
F2.095512
sI6
F-1.206919
sI7
F3.917085
sI8
F-2.213596
sI9
F-4.022546
sI10
F4.421862
sI11
F3.292104
sI12
F4.315179
sI13
F-3.568007
sI14
F-2.670101
ssg66
(dp510
I0
F11.138000000000002
sI1
Fnan
sI2
Fnan
sI3
Fnan
sI4
Fnan
sI5
Fnan
sI6
Fnan
sI7
Fnan
sI8
Fnan
sI9
Fnan
sI10
Fnan
sI11
Fnan
sI12
Fnan
sI13
Fnan
sI14
Fnan
ssg68
(dp511
I0
g473
sI1
g474
sI2
g475
sI3
g476
sI4
g477
sI5
g478
sI6
g479
sI7
g480
sI8
g481
sI9
g482
sI10
g483
sI11
g484
sI12
g485
sI13
g486
sI14
g487
ssg70
(dp512
I0
F9002.0
sI1
F8752.273333333334
sI2
F9061.76
sI3
F8572.763333333332
sI4
F9080.97
sI5
F8908.140000000001
sI6
F8578.416666666666
sI7
F8492.236666666668
sI8
F8932.44
sI9
F8504.4
sI10
F8883.366666666667
sI11
F8582.306666666667
sI12
F9067.083333333334
sI13
F8858.363333333335
sI14
F8861.806666666667
ssg72
(dp513
I0
F1.305501
sI1
F1.4183059999999998
sI2
F1.21715
sI3
F1.438497
sI4
F1.214172
sI5
F1.205384
sI6
F1.4334049999999998
sI7
F1.4232719999999999
sI8
F1.301632
sI9
F1.428288
sI10
F1.208289
sI11
F1.313334
sI12
F1.211223
sI13
F1.297765
sI14
F1.309381
ssg74
(dp514
I0
F7760.713333333333
sI1
F7490.426666666666
sI2
F7791.346666666666
sI3
F7316.1033333333335
sI4
F7798.9
sI5
F7677.033333333334
sI6
F7390.493333333333
sI7
F7295.3933333333325
sI8
F7638.066666666667
sI9
F7295.156666666667
sI10
F7627.983333333334
sI11
F7363.946666666667
sI12
F7805.806666666667
sI13
F7664.873333333334
sI14
F7597.759999999999
ssg76
(dp515
I0
F12639.4
sI1
F12208.773333333334
sI2
F12748.543333333333
sI3
F12014.22
sI4
F12748.196666666667
sI5
F12479.97
sI6
F12002.703333333333
sI7
F11824.746666666668
sI8
F12510.03
sI9
F11964.3
sI10
F12474.213333333335
sI11
F12072.356666666667
sI12
F12683.616666666667
sI13
F12507.756666666666
sI14
F12375.83
ssg78
(dp516
I0
F14.57899
sI1
F12.25279
sI2
F12.53984
sI3
F13.27758
sI4
F12.34012
sI5
F14.29928
sI6
F12.43379
sI7
F13.09358
sI8
F14.76676
sI9
F13.58183
sI10
F13.94582
sI11
F16.40637
sI12
F11.82667
sI13
F15.06088
sI14
F14.6922
ssg80
(dp517
I0
F11.275
sI1
F11.314
sI2
F11.271
sI3
F11.339
sI4
F11.27
sI5
F11.287
sI6
F11.328
sI7
F11.342
sI8
F11.293
sI9
F11.342
sI10
F11.294
sI11
F11.332
sI12
F11.269
sI13
F11.289
sI14
F11.298
ssg82
(dp518
I0
F0.002
sI1
F0.002
sI2
F0.002
sI3
F0.002
sI4
F0.002
sI5
F0.002
sI6
F0.002
sI7
F0.002
sI8
F0.002
sI9
F0.002
sI10
F0.002
sI11
F0.002
sI12
F0.002
sI13
F0.002
sI14
F0.002
ssg84
(dp519
I0
F0.692246111761165
sI1
Fnan
sI2
Fnan
sI3
Fnan
sI4
Fnan
sI5
Fnan
sI6
Fnan
sI7
Fnan
sI8
Fnan
sI9
Fnan
sI10
Fnan
sI11
Fnan
sI12
Fnan
sI13
Fnan
sI14
Fnan
ssg86
(dp520
I0
F11.302866666666665
sI1
Fnan
sI2
Fnan
sI3
Fnan
sI4
Fnan
sI5
Fnan
sI6
Fnan
sI7
Fnan
sI8
Fnan
sI9
Fnan
sI10
Fnan
sI11
Fnan
sI12
Fnan
sI13
Fnan
sI14
Fnan
ssg88
(dp521
I0
F11.114
sI1
F11.145
sI2
F11.107
sI3
F11.167
sI4
F11.105
sI5
F11.126
sI6
F11.166
sI7
F11.177
sI8
F11.123
sI9
F11.176
sI10
F11.129
sI11
F11.166
sI12
F11.106
sI13
F11.132
sI14
F11.131
ssg90
(dp522
I0
F-4.353572
sI1
F2.334115
sI2
F-1.704353
sI3
F2.143945
sI4
F-3.237788
sI5
F2.629953
sI6
F5.668276
sI7
F4.704319
sI8
F4.098494
sI9
F-3.869299
sI10
F-2.922918
sI11
F5.338167
sI12
F5.400824
sI13
F3.240888
sI14
F3.600541
ssg92
(dp523
I0
F0.02747951618067157
sI1
Fnan
sI2
Fnan
sI3
Fnan
sI4
Fnan
sI5
Fnan
sI6
Fnan
sI7
Fnan
sI8
Fnan
sI9
Fnan
sI10
Fnan
sI11
Fnan
sI12
Fnan
sI13
Fnan
sI14
Fnan
ssg94
(dp524
I0
F0.7172099155630719
sI1
F0.7146996794371272
sI2
F0.714464769021247
sI3
F0.7107504013458343
sI4
F0.7145394159190686
sI5
F0.717878609501572
sI6
F0.7181818417397433
sI7
F0.7181571411110079
sI8
F0.7124241439224741
sI9
F0.7128109422353807
sI10
F0.7143115777474164
sI11
F0.7130541464486067
sI12
F0.7177522255988696
sI13
F0.7174791991557974
sI14
F0.7154995745760161
ssg96
(dp525
I0
F30.0
sI1
F30.0
sI2
F30.0
sI3
F30.0
sI4
F30.0
sI5
F30.0
sI6
F30.0
sI7
F30.0
sI8
F30.0
sI9
F30.0
sI10
F30.0
sI11
F30.0
sI12
F30.0
sI13
F30.0
sI14
F30.0
ssg98
(dp526
I0
F0.002
sI1
F0.002
sI2
F0.002
sI3
F0.002
sI4
F0.002
sI5
F0.002
sI6
F0.002
sI7
F0.002
sI8
F0.002
sI9
F0.002
sI10
F0.002
sI11
F0.002
sI12
F0.002
sI13
F0.002
sI14
F0.002
ssg100
(dp527
I0
F0.002
sI1
F0.002
sI2
F0.002
sI3
F0.002
sI4
F0.002
sI5
F0.002
sI6
F0.002
sI7
F0.002
sI8
F0.002
sI9
F0.002
sI10
F0.002
sI11
F0.002
sI12
F0.002
sI13
F0.002
sI14
F0.002
ssg102
(dp528
I0
F2.171324
sI1
F-0.4640251
sI2
F4.361829
sI3
F3.450915
sI4
F2.871133
sI5
F3.163882
sI6
F4.279011
sI7
F3.296308
sI8
F-2.298688
sI9
F2.417968
sI10
F2.556066
sI11
F4.170093
sI12
F3.807813
sI13
F-2.343073
sI14
F1.694243
ssg104
(dp529
I0
S'KIC8462852-20181017at053701_-25-1X1-030-V_cal.fts.mag.1'
p530
sI1
S'KIC8462852-20181017at060638_-25-1X1-030-V_cal.fts.mag.1'
p531
sI2
S'KIC8462852-20181017at050711_-25-1X1-030-V_cal.fts.mag.1'
p532
sI3
S'KIC8462852-20181017at061124_-25-1X1-030-V_cal.fts.mag.1'
p533
sI4
S'KIC8462852-20181017at050602_-25-1X1-030-V_cal.fts.mag.1'
p534
sI5
S'KIC8462852-20181017at050227_-25-1X1-030-V_cal.fts.mag.1'
p535
sI6
S'KIC8462852-20181017at061015_-25-1X1-030-V_cal.fts.mag.1'
p536
sI7
S'KIC8462852-20181017at060755_-25-1X1-030-V_cal.fts.mag.1'
p537
sI8
S'KIC8462852-20181017at053550_-25-1X1-030-V_cal.fts.mag.1'
p538
sI9
S'KIC8462852-20181017at060905_-25-1X1-030-V_cal.fts.mag.1'
p539
sI10
S'KIC8462852-20181017at050344_-25-1X1-030-V_cal.fts.mag.1'
p540
sI11
S'KIC8462852-20181017at053920_-25-1X1-030-V_cal.fts.mag.1'
p541
sI12
S'KIC8462852-20181017at050453_-25-1X1-030-V_cal.fts.mag.1'
p542
sI13
S'KIC8462852-20181017at053431_-25-1X1-030-V_cal.fts.mag.1'
p543
sI14
S'KIC8462852-20181017at053811_-25-1X1-030-V_cal.fts.mag.1'
p544
ssg121
(dp545
I0
F0.005130442234653832
sI1
Fnan
sI2
Fnan
sI3
Fnan
sI4
Fnan
sI5
Fnan
sI6
Fnan
sI7
Fnan
sI8
Fnan
sI9
Fnan
sI10
Fnan
sI11
Fnan
sI12
Fnan
sI13
Fnan
sI14
Fnan
ssg123
(dp546
I0
F6732.346666666666
sI1
F6574.65
sI2
F6843.61
sI3
F6461.27
sI4
F6822.086666666667
sI5
F6729.0599999999995
sI6
F6425.65
sI7
F6369.14
sI8
F6697.62
sI9
F6352.759999999999
sI10
F6693.6900000000005
sI11
F6479.086666666667
sI12
F6825.0233333333335
sI13
F6716.653333333334
sI14
F6709.64
ssg125
(dp547
I0
F0.027562569511844187
sI1
Fnan
sI2
Fnan
sI3
Fnan
sI4
Fnan
sI5
Fnan
sI6
Fnan
sI7
Fnan
sI8
Fnan
sI9
Fnan
sI10
Fnan
sI11
Fnan
sI12
Fnan
sI13
Fnan
sI14
Fnan
ssg127
(dp548
I0
g469
sI1
g469
sI2
g469
sI3
g469
sI4
g469
sI5
g469
sI6
g469
sI7
g469
sI8
g469
sI9
g469
sI10
g469
sI11
g469
sI12
g469
sI13
g469
sI14
g469
ssg144
(dp549
I0
F0.0030405401762668744
sI1
Fnan
sI2
Fnan
sI3
Fnan
sI4
Fnan
sI5
Fnan
sI6
Fnan
sI7
Fnan
sI8
Fnan
sI9
Fnan
sI10
Fnan
sI11
Fnan
sI12
Fnan
sI13
Fnan
sI14
Fnan
ssg146
(dp550
I0
F-3.865751
sI1
F-3.476948
sI2
F-3.793421
sI3
F-2.929303
sI4
F-2.233174
sI5
F2.762952
sI6
F3.394503
sI7
F4.829401
sI8
F1.676549
sI9
F-3.828551
sI10
F3.962107
sI11
F3.87778
sI12
F-1.689552
sI13
F2.015433
sI14
F4.298937
ssg148
(dp551
I0
F1.5082590369854805
sI1
Fnan
sI2
Fnan
sI3
Fnan
sI4
Fnan
sI5
Fnan
sI6
Fnan
sI7
Fnan
sI8
Fnan
sI9
Fnan
sI10
Fnan
sI11
Fnan
sI12
Fnan
sI13
Fnan
sI14
Fnan
ssg150
(dp552
I0
F2458408.734039352
sI1
Fnan
sI2
Fnan
sI3
Fnan
sI4
Fnan
sI5
Fnan
sI6
Fnan
sI7
Fnan
sI8
Fnan
sI9
Fnan
sI10
Fnan
sI11
Fnan
sI12
Fnan
sI13
Fnan
sI14
Fnan
ssg152
(dp553
I0
F0.0030405401762668744
sI1
Fnan
sI2
Fnan
sI3
Fnan
sI4
Fnan
sI5
Fnan
sI6
Fnan
sI7
Fnan
sI8
Fnan
sI9
Fnan
sI10
Fnan
sI11
Fnan
sI12
Fnan
sI13
Fnan
sI14
Fnan
ssg154
(dp554
I0
F16.0649
sI1
F15.00228
sI2
F14.40475
sI3
F16.43033
sI4
F15.27992
sI5
F16.23018
sI6
F14.61198
sI7
F15.5349
sI8
F17.50254
sI9
F15.95406
sI10
F16.47808
sI11
F18.82776
sI12
F14.72552
sI13
F16.81535
sI14
F16.60362
ssg156
(dp555
I0
F10.746
sI1
F10.783
sI2
F10.736
sI3
F10.801
sI4
F10.736
sI5
F10.759
sI6
F10.802
sI7
F10.818
sI8
F10.757
sI9
F10.805
sI10
F10.76
sI11
F10.796
sI12
F10.742
sI13
F10.757
sI14
F10.769
ssg158
(dp556
I0
F0.692246111761165
sI1
Fnan
sI2
Fnan
sI3
Fnan
sI4
Fnan
sI5
Fnan
sI6
Fnan
sI7
Fnan
sI8
Fnan
sI9
Fnan
sI10
Fnan
sI11
Fnan
sI12
Fnan
sI13
Fnan
sI14
Fnan
sss.