(dp0
S'i'
p1
(dp2
S'sigmean'
p3
(dp4
I0
F0.4345417126051094
sI1
Fnan
sI2
Fnan
sI3
Fnan
sI4
Fnan
sI5
Fnan
sI6
Fnan
sI7
Fnan
sI8
Fnan
sI9
Fnan
sI10
Fnan
sI11
Fnan
sI12
Fnan
sI13
Fnan
sI14
Fnan
ssS'ref3flag'
p5
(dp6
I0
S'NoError'
p7
sI1
S'NoError'
p8
sI2
S'NoError'
p9
sI3
S'NoError'
p10
sI4
S'NoError'
p11
sI5
S'NoError'
p12
sI6
S'NoError'
p13
sI7
S'NoError'
p14
sI8
S'NoError'
p15
sI9
S'NoError'
p16
sI10
S'NoError'
p17
sI11
S'NoError'
p18
sI12
S'NoError'
p19
sI13
S'NoError'
p20
sI14
S'NoError'
p21
ssS'tabbyerr'
p22
(dp23
I0
F0.004
sI1
F0.004
sI2
F0.005
sI3
F0.004
sI4
F0.004
sI5
F0.004
sI6
F0.004
sI7
F0.004
sI8
F0.004
sI9
F0.004
sI10
F0.004
sI11
F0.004
sI12
F0.004
sI13
F0.004
sI14
F0.004
ssS'ref2rel'
p24
(dp25
I0
F0.9093577838012389
sI1
F0.9059075514446547
sI2
F0.9076096041725069
sI3
F0.9130061684372316
sI4
F0.908546195146289
sI5
F0.9060500062859129
sI6
F0.9098966945155873
sI7
F0.908959863201732
sI8
F0.90707919807023
sI9
F0.9106725798893853
sI10
F0.9083251035398227
sI11
F0.9098246918322285
sI12
F0.9111303261079617
sI13
F0.9070033702165969
sI14
F0.9109552496823285
ssS'ref2err'
p26
(dp27
I0
F0.0020235736329207686
sI1
Fnan
sI2
Fnan
sI3
Fnan
sI4
Fnan
sI5
Fnan
sI6
Fnan
sI7
Fnan
sI8
Fnan
sI9
Fnan
sI10
Fnan
sI11
Fnan
sI12
Fnan
sI13
Fnan
sI14
Fnan
ssS'ref2mean'
p28
(dp29
I0
F0.9089549590895807
sI1
Fnan
sI2
Fnan
sI3
Fnan
sI4
Fnan
sI5
Fnan
sI6
Fnan
sI7
Fnan
sI8
Fnan
sI9
Fnan
sI10
Fnan
sI11
Fnan
sI12
Fnan
sI13
Fnan
sI14
Fnan
ssS'tabbymag'
p30
(dp31
I0
F12.533
sI1
F12.311
sI2
F12.66
sI3
F12.486
sI4
F12.57
sI5
F12.566
sI6
F12.239
sI7
F12.452
sI8
F12.548
sI9
F12.597
sI10
F12.234
sI11
F12.26
sI12
F12.512
sI13
F12.486
sI14
F12.204
ssS'tabbybkg'
p32
(dp33
I0
F5.221567
sI1
F6.030445
sI2
F5.145733
sI3
F5.002119
sI4
F4.614414
sI5
F5.613847
sI6
F4.684165
sI7
F4.903996
sI8
F5.831944
sI9
F4.950561
sI10
F5.142305
sI11
F5.327588
sI12
F5.371057
sI13
F5.44267
sI14
F4.805867
ssS'JD'
p34
(dp35
I0
F2458423.578726852
sI1
F2458423.6172453705
sI2
F2458423.577222222
sI3
F2458423.5986805554
sI4
F2458423.5803125
sI5
F2458423.596446759
sI6
F2458423.617986111
sI7
F2458423.5994212963
sI8
F2458423.5794675928
sI9
F2458423.577974537
sI10
F2458423.618738426
sI11
F2458423.6157523147
sI12
F2458423.5971875
sI13
F2458423.597928241
sI14
F2458423.6164930556
ssS'ref3rmsmean'
p36
(dp37
I0
F0.1578816666666666
sI1
Fnan
sI2
Fnan
sI3
Fnan
sI4
Fnan
sI5
Fnan
sI6
Fnan
sI7
Fnan
sI8
Fnan
sI9
Fnan
sI10
Fnan
sI11
Fnan
sI12
Fnan
sI13
Fnan
sI14
Fnan
ssS'ref1rmsmean'
p38
(dp39
I0
F1.3999068
sI1
Fnan
sI2
Fnan
sI3
Fnan
sI4
Fnan
sI5
Fnan
sI6
Fnan
sI7
Fnan
sI8
Fnan
sI9
Fnan
sI10
Fnan
sI11
Fnan
sI12
Fnan
sI13
Fnan
sI14
Fnan
ssS'relflux'
p40
(dp41
I0
F0.4337954942770339
sI1
F0.43271749630377215
sI2
F0.431360697878833
sI3
F0.43510975972479626
sI4
F0.4340732135242207
sI5
F0.43292750902879856
sI6
F0.43583640394479156
sI7
F0.43523511235116774
sI8
F0.4329586951326855
sI9
F0.4369603838340944
sI10
F0.43507600394553275
sI11
F0.43658791736220914
sI12
F0.4332595473997581
sI13
F0.4345047270375618
sI14
F0.43773669867949305
ssS'sigerr'
p42
(dp43
I0
F0.0013491624013331558
sI1
Fnan
sI2
Fnan
sI3
Fnan
sI4
Fnan
sI5
Fnan
sI6
Fnan
sI7
Fnan
sI8
Fnan
sI9
Fnan
sI10
Fnan
sI11
Fnan
sI12
Fnan
sI13
Fnan
sI14
Fnan
ssS'tabbyrmsmean'
p44
(dp45
I0
F2.0385922000000005
sI1
Fnan
sI2
Fnan
sI3
Fnan
sI4
Fnan
sI5
Fnan
sI6
Fnan
sI7
Fnan
sI8
Fnan
sI9
Fnan
sI10
Fnan
sI11
Fnan
sI12
Fnan
sI13
Fnan
sI14
Fnan
ssS'tabbyflag'
p46
(dp47
I0
g7
sI1
g8
sI2
g9
sI3
g10
sI4
g11
sI5
g12
sI6
g13
sI7
g14
sI8
g15
sI9
g16
sI10
g17
sI11
g18
sI12
g19
sI13
g20
sI14
g21
ssS'ref1err'
p48
(dp49
I0
F0.0028670307401627735
sI1
Fnan
sI2
Fnan
sI3
Fnan
sI4
Fnan
sI5
Fnan
sI6
Fnan
sI7
Fnan
sI8
Fnan
sI9
Fnan
sI10
Fnan
sI11
Fnan
sI12
Fnan
sI13
Fnan
sI14
Fnan
ssS'ref2magmeanerr'
p50
(dp51
I0
F0.14983155621595623
sI1
Fnan
sI2
Fnan
sI3
Fnan
sI4
Fnan
sI5
Fnan
sI6
Fnan
sI7
Fnan
sI8
Fnan
sI9
Fnan
sI10
Fnan
sI11
Fnan
sI12
Fnan
sI13
Fnan
sI14
Fnan
ssS'ref2rmsmean'
p52
(dp53
I0
F1.1860452000000001
sI1
Fnan
sI2
Fnan
sI3
Fnan
sI4
Fnan
sI5
Fnan
sI6
Fnan
sI7
Fnan
sI8
Fnan
sI9
Fnan
sI10
Fnan
sI11
Fnan
sI12
Fnan
sI13
Fnan
sI14
Fnan
ssS'ref3rel'
p54
(dp55
I0
F1.5062892121904996
sI1
F1.5184227725463149
sI2
F1.5081101690609238
sI3
F1.5033800834748703
sI4
F1.5022612197495282
sI5
F1.5060636244275147
sI6
F1.5028553969032221
sI7
F1.5052757427543895
sI8
F1.4974774545863079
sI9
F1.502735115598595
sI10
F1.5095147237070616
sI11
F1.5069375080218286
sI12
F1.51041963622954
sI13
F1.5098292436983745
sI14
F1.5076430875116202
ssS'ref1flag'
p56
(dp57
I0
g7
sI1
g8
sI2
g9
sI3
g10
sI4
g11
sI5
g12
sI6
g13
sI7
g14
sI8
g15
sI9
g16
sI10
g17
sI11
g18
sI12
g19
sI13
g20
sI14
g21
ssS'ref2bkg'
p58
(dp59
I0
F5.932477
sI1
F6.998789
sI2
F6.906104
sI3
F5.866174
sI4
F6.02077
sI5
F7.366723
sI6
F6.920656
sI7
F5.831361
sI8
F5.697038
sI9
F5.3796
sI10
F6.859847
sI11
F5.719524
sI12
F5.335141
sI13
F5.962889
sI14
F6.310997
ssS'ref3magmean'
p60
(dp61
I0
F11.2634
sI1
Fnan
sI2
Fnan
sI3
Fnan
sI4
Fnan
sI5
Fnan
sI6
Fnan
sI7
Fnan
sI8
Fnan
sI9
Fnan
sI10
Fnan
sI11
Fnan
sI12
Fnan
sI13
Fnan
sI14
Fnan
ssS'ref1mean'
p62
(dp63
I0
F0.6950786093241657
sI1
Fnan
sI2
Fnan
sI3
Fnan
sI4
Fnan
sI5
Fnan
sI6
Fnan
sI7
Fnan
sI8
Fnan
sI9
Fnan
sI10
Fnan
sI11
Fnan
sI12
Fnan
sI13
Fnan
sI14
Fnan
ssS'ref1rms'
p64
(dp65
I0
F3.772751
sI1
F-2.464328
sI2
F4.144937
sI3
F2.760533
sI4
F4.569671
sI5
F1.685243
sI6
F2.488399
sI7
F1.81215
sI8
F3.176742
sI9
F-3.207228
sI10
F3.039199
sI11
F2.957573
sI12
F-2.933232
sI13
F2.902469
sI14
F-3.706277
ssS'ref2magmean'
p66
(dp67
I0
F11.609066666666667
sI1
Fnan
sI2
Fnan
sI3
Fnan
sI4
Fnan
sI5
Fnan
sI6
Fnan
sI7
Fnan
sI8
Fnan
sI9
Fnan
sI10
Fnan
sI11
Fnan
sI12
Fnan
sI13
Fnan
sI14
Fnan
ssS'ref2flag'
p68
(dp69
I0
g7
sI1
g8
sI2
g9
sI3
g10
sI4
g11
sI5
g12
sI6
g13
sI7
g14
sI8
g15
sI9
g16
sI10
g17
sI11
g18
sI12
g19
sI13
g20
sI14
g21
ssS'ref2'
p70
(dp71
I0
F5266.033333333334
sI1
F6464.1033333333335
sI2
F4705.423333333334
sI3
F5500.64
sI4
F5083.656666666667
sI5
F5104.95
sI6
F6876.8566666666675
sI7
F5654.05
sI8
F5196.820000000001
sI9
F4936.41
sI10
F6908.876666666666
sI11
F6734.966666666666
sI12
F5382.783333333334
sI13
F5480.693333333333
sI14
F7077.003333333333
ssS'airmass'
p72
(dp73
I0
F1.018889
sI1
F1.06837
sI2
F1.017702
sI3
F1.039779
sI4
F1.0201930000000001
sI5
F1.036958
sI6
F1.069711
sI7
F1.040748
sI8
F1.0194969999999999
sI9
F1.01829
sI10
F1.0710979999999999
sI11
F1.065721
sI12
F1.037882
sI13
F1.038826
sI14
F1.067034
ssS'ref1'
p74
(dp75
I0
F4344.073333333333
sI1
F5322.486666666667
sI2
F3888.52
sI3
F4518.343333333333
sI4
F4210.0
sI5
F4235.173333333333
sI6
F5680.066666666667
sI7
F4670.246666666667
sI8
F4327.29
sI9
F4072.35
sI10
F5697.55
sI11
F5549.223333333333
sI12
F4415.703333333334
sI13
F4528.8933333333325
sI14
F5817.4366666666665
ssS'ref3'
p76
(dp77
I0
F7237.8
sI1
F8948.513333333334
sI2
F6480.306666666667
sI3
F7531.17
sI4
F6980.75
sI5
F7033.41
sI6
F9435.619999999999
sI7
F7770.456666666667
sI8
F7131.070000000001
sI9
F6768.89
sI10
F9514.793333333333
sI11
F9255.753333333332
sI12
F7399.913333333333
sI13
F7556.383333333333
sI14
F9720.106666666667
ssS'ref1bkg'
p78
(dp79
I0
F5.397117
sI1
F6.798992
sI2
F5.701097
sI3
F5.960113
sI4
F5.235869
sI5
F5.390606
sI6
F5.687213
sI7
F5.989926
sI8
F5.403996
sI9
F6.072079
sI10
F7.214658
sI11
F6.279094
sI12
F5.865081
sI13
F5.59582
sI14
F7.202634
ssS'ref1mag'
p80
(dp81
I0
F11.905
sI1
F11.685
sI2
F12.026
sI3
F11.863
sI4
F11.939
sI5
F11.933
sI6
F11.614
sI7
F11.827
sI8
F11.909
sI9
F11.975
sI10
F11.611
sI11
F11.639
sI12
F11.887
sI13
F11.86
sI14
F11.588
ssS'ref3magerr'
p82
(dp83
I0
F0.002
sI1
F0.002
sI2
F0.002
sI3
F0.002
sI4
F0.002
sI5
F0.002
sI6
F0.002
sI7
F0.002
sI8
F0.002
sI9
F0.002
sI10
F0.002
sI11
F0.002
sI12
F0.002
sI13
F0.002
sI14
F0.002
ssS'tabbymagmean'
p84
(dp85
I0
F0.43454264402831655
sI1
Fnan
sI2
Fnan
sI3
Fnan
sI4
Fnan
sI5
Fnan
sI6
Fnan
sI7
Fnan
sI8
Fnan
sI9
Fnan
sI10
Fnan
sI11
Fnan
sI12
Fnan
sI13
Fnan
sI14
Fnan
ssS'ref1magmean'
p86
(dp87
I0
F11.8174
sI1
Fnan
sI2
Fnan
sI3
Fnan
sI4
Fnan
sI5
Fnan
sI6
Fnan
sI7
Fnan
sI8
Fnan
sI9
Fnan
sI10
Fnan
sI11
Fnan
sI12
Fnan
sI13
Fnan
sI14
Fnan
ssS'ref2mag'
p88
(dp89
I0
F11.696
sI1
F11.474
sI2
F11.819
sI3
F11.649
sI4
F11.735
sI5
F11.73
sI6
F11.407
sI7
F11.619
sI8
F11.711
sI9
F11.766
sI10
F11.401
sI11
F11.429
sI12
F11.672
sI13
F11.653
sI14
F11.375
ssS'ref3rms'
p90
(dp91
I0
F4.424243
sI1
F2.563667
sI2
F-3.522153
sI3
F2.707953
sI4
F4.041273
sI5
F3.772831
sI6
F-2.826965
sI7
F-3.133705
sI8
F-1.834495
sI9
F-2.695853
sI10
F3.741008
sI11
F-1.925731
sI12
F-2.414546
sI13
F-3.015212
sI14
F2.48591
ssS'ref3magmeanerr'
p92
(dp93
I0
F0.15015839256312924
sI1
Fnan
sI2
Fnan
sI3
Fnan
sI4
Fnan
sI5
Fnan
sI6
Fnan
sI7
Fnan
sI8
Fnan
sI9
Fnan
sI10
Fnan
sI11
Fnan
sI12
Fnan
sI13
Fnan
sI14
Fnan
ssS'ref1rel'
p94
(dp95
I0
F0.6948386494808257
sI1
F0.6906661966332777
sI2
F0.6952644127830726
sI3
F0.6934329664618089
sI4
F0.6979207707962983
sI5
F0.6978163991401364
sI6
F0.6964076372625208
sI7
F0.6957792614104751
sI8
F0.7020325457154468
sI9
F0.6958130077827993
sI10
F0.6938217828292946
sI11
F0.6940554688385931
sI12
F0.6908876035286243
sI13
F0.6947712971440683
sI14
F0.6926711400552436
ssS'exposure'
p96
(dp97
I0
F30.0
sI1
F30.0
sI2
F30.0
sI3
F30.0
sI4
F30.0
sI5
F30.0
sI6
F30.0
sI7
F30.0
sI8
F30.0
sI9
F30.0
sI10
F30.0
sI11
F30.0
sI12
F30.0
sI13
F30.0
sI14
F30.0
ssS'ref1magerr'
p98
(dp99
I0
F0.003
sI1
F0.003
sI2
F0.003
sI3
F0.003
sI4
F0.003
sI5
F0.003
sI6
F0.003
sI7
F0.003
sI8
F0.003
sI9
F0.003
sI10
F0.003
sI11
F0.003
sI12
F0.003
sI13
F0.003
sI14
F0.002
ssS'ref2magerr'
p100
(dp101
I0
F0.003
sI1
F0.002
sI2
F0.003
sI3
F0.003
sI4
F0.003
sI5
F0.003
sI6
F0.002
sI7
F0.003
sI8
F0.003
sI9
F0.003
sI10
F0.002
sI11
F0.002
sI12
F0.003
sI13
F0.003
sI14
F0.002
ssS'ref2rms'
p102
(dp103
I0
F3.056232
sI1
F-1.540212
sI2
F1.953622
sI3
F2.933386
sI4
F2.488477
sI5
F2.325634
sI6
F-2.54388
sI7
F3.884686
sI8
F-1.835555
sI9
F-1.429145
sI10
F2.385885
sI11
F3.90333
sI12
F4.386801
sI13
F1.27282
sI14
F-3.451403
ssS'name'
p104
(dp105
I0
S"KIC8462852-20181101at015322_-25-1X1-030-i'_cal.fts.mag.1"
p106
sI1
S"KIC8462852-20181101at024850_-25-1X1-030-i'_cal.fts.mag.1"
p107
sI2
S"KIC8462852-20181101at015110_-25-1X1-030-i'_cal.fts.mag.1"
p108
sI3
S"KIC8462852-20181101at022205_-25-1X1-030-i'_cal.fts.mag.1"
p109
sI4
S"KIC8462852-20181101at015538_-25-1X1-030-i'_cal.fts.mag.1"
p110
sI5
S"KIC8462852-20181101at021851_-25-1X1-030-i'_cal.fts.mag.1"
p111
sI6
S"KIC8462852-20181101at024954_-25-1X1-030-i'_cal.fts.mag.1"
p112
sI7
S"KIC8462852-20181101at022310_-25-1X1-030-i'_cal.fts.mag.1"
p113
sI8
S"KIC8462852-20181101at015426_-25-1X1-030-i'_cal.fts.mag.1"
p114
sI9
S"KIC8462852-20181101at015217_-25-1X1-030-i'_cal.fts.mag.1"
p115
sI10
S"KIC8462852-20181101at025059_-25-1X1-030-i'_cal.fts.mag.1"
p116
sI11
S"KIC8462852-20181101at024640_-25-1X1-030-i'_cal.fts.mag.1"
p117
sI12
S"KIC8462852-20181101at021957_-25-1X1-030-i'_cal.fts.mag.1"
p118
sI13
S"KIC8462852-20181101at022101_-25-1X1-030-i'_cal.fts.mag.1"
p119
sI14
S"KIC8462852-20181101at024745_-25-1X1-030-i'_cal.fts.mag.1"
p120
ssS'ref3err'
p121
(dp122
I0
F0.00478145507946976
sI1
Fnan
sI2
Fnan
sI3
Fnan
sI4
Fnan
sI5
Fnan
sI6
Fnan
sI7
Fnan
sI8
Fnan
sI9
Fnan
sI10
Fnan
sI11
Fnan
sI12
Fnan
sI13
Fnan
sI14
Fnan
ssS'tabby'
p123
(dp124
I0
F2436.1820000000002
sI1
F2990.814
sI2
F2167.4796666666666
sI3
F2545.414333333333
sI4
F2354.7613333333334
sI5
F2362.851
sI6
F3195.050333333333
sI7
F2625.1573333333336
sI8
F2403.6683333333335
sI9
F2298.0693333333334
sI10
F3208.137333333333
sI11
F3134.6929999999998
sI12
F2483.7903333333334
sI13
F2544.1656666666668
sI14
F3299.739
ssS'ref1magmeanerr'
p125
(dp126
I0
F0.14816727998158982
sI1
Fnan
sI2
Fnan
sI3
Fnan
sI4
Fnan
sI5
Fnan
sI6
Fnan
sI7
Fnan
sI8
Fnan
sI9
Fnan
sI10
Fnan
sI11
Fnan
sI12
Fnan
sI13
Fnan
sI14
Fnan
ssS'filter'
p127
(dp128
I0
S"i'"
p129
sI1
S"i'"
p130
sI2
S"i'"
p131
sI3
S"i'"
p132
sI4
S"i'"
p133
sI5
S"i'"
p134
sI6
S"i'"
p135
sI7
S"i'"
p136
sI8
S"i'"
p137
sI9
S"i'"
p138
sI10
S"i'"
p139
sI11
S"i'"
p140
sI12
S"i'"
p141
sI13
S"i'"
p142
sI14
S"i'"
p143
ssS'tabbymagerr'
p144
(dp145
I0
F0.0017726067789372156
sI1
Fnan
sI2
Fnan
sI3
Fnan
sI4
Fnan
sI5
Fnan
sI6
Fnan
sI7
Fnan
sI8
Fnan
sI9
Fnan
sI10
Fnan
sI11
Fnan
sI12
Fnan
sI13
Fnan
sI14
Fnan
ssS'tabbyrms'
p146
(dp147
I0
F2.101045
sI1
F2.468491
sI2
F3.327721
sI3
F1.856317
sI4
F4.448298
sI5
F3.692729
sI6
F4.112568
sI7
F3.06706
sI8
F-3.783354
sI9
F2.941202
sI10
F2.781924
sI11
F4.709413
sI12
F-2.101222
sI13
F-2.308424
sI14
F3.265115
ssS'ref3mean'
p148
(dp149
I0
F1.5064809993640393
sI1
Fnan
sI2
Fnan
sI3
Fnan
sI4
Fnan
sI5
Fnan
sI6
Fnan
sI7
Fnan
sI8
Fnan
sI9
Fnan
sI10
Fnan
sI11
Fnan
sI12
Fnan
sI13
Fnan
sI14
Fnan
ssS'median_JD'
p150
(dp151
I0
F2458423.597928241
sI1
Fnan
sI2
Fnan
sI3
Fnan
sI4
Fnan
sI5
Fnan
sI6
Fnan
sI7
Fnan
sI8
Fnan
sI9
Fnan
sI10
Fnan
sI11
Fnan
sI12
Fnan
sI13
Fnan
sI14
Fnan
ssS'error'
p152
(dp153
I0
F0.0017726067789372156
sI1
Fnan
sI2
Fnan
sI3
Fnan
sI4
Fnan
sI5
Fnan
sI6
Fnan
sI7
Fnan
sI8
Fnan
sI9
Fnan
sI10
Fnan
sI11
Fnan
sI12
Fnan
sI13
Fnan
sI14
Fnan
ssS'ref3bkg'
p154
(dp155
I0
F5.566424
sI1
F8.409213
sI2
F7.228176
sI3
F6.754887
sI4
F6.631264
sI5
F6.847673
sI6
F7.782666
sI7
F6.84873
sI8
F6.587437
sI9
F6.967828
sI10
F7.759951
sI11
F7.8557
sI12
F5.748479
sI13
F7.494752
sI14
F6.600766
ssS'ref3mag'
p156
(dp157
I0
F11.351
sI1
F11.121
sI2
F11.471
sI3
F11.308
sI4
F11.39
sI5
F11.382
sI6
F11.063
sI7
F11.274
sI8
F11.367
sI9
F11.424
sI10
F11.054
sI11
F11.084
sI12
F11.327
sI13
F11.304
sI14
F11.031
ssS'mean'
p158
(dp159
I0
F0.43454264402831655
sI1
Fnan
sI2
Fnan
sI3
Fnan
sI4
Fnan
sI5
Fnan
sI6
Fnan
sI7
Fnan
sI8
Fnan
sI9
Fnan
sI10
Fnan
sI11
Fnan
sI12
Fnan
sI13
Fnan
sI14
Fnan
sssS'r'
p160
(dp161
g3
(dp162
I0
F0.5453114731872785
sI1
Fnan
sI2
Fnan
sI3
Fnan
sI4
Fnan
sI5
Fnan
sI6
Fnan
sI7
Fnan
sI8
Fnan
sI9
Fnan
sI10
Fnan
sI11
Fnan
sI12
Fnan
sI13
Fnan
sI14
Fnan
ssg5
(dp163
I0
S'NoError'
p164
sI1
S'NoError'
p165
sI2
S'NoError'
p166
sI3
S'NoError'
p167
sI4
S'NoError'
p168
sI5
S'NoError'
p169
sI6
S'NoError'
p170
sI7
S'NoError'
p171
sI8
S'NoError'
p172
sI9
S'NoError'
p173
sI10
S'NoError'
p174
sI11
S'NoError'
p175
sI12
S'NoError'
p176
sI13
S'NoError'
p177
sI14
S'NoError'
p178
ssg22
(dp179
I0
F0.003
sI1
F0.002
sI2
F0.003
sI3
F0.003
sI4
F0.003
sI5
F0.002
sI6
F0.003
sI7
F0.002
sI8
F0.003
sI9
F0.002
sI10
F0.003
sI11
F0.003
sI12
F0.002
sI13
F0.003
sI14
F0.003
ssg24
(dp180
I0
F0.8924291457057585
sI1
F0.8961395118298884
sI2
F0.8906634797743297
sI3
F0.8940797223089575
sI4
F0.8915841429327673
sI5
F0.8931871588947936
sI6
F0.8957705789307867
sI7
F0.8980074901556281
sI8
F0.8970149888917325
sI9
F0.8957899972961204
sI10
F0.8908381006343028
sI11
F0.8962643641871628
sI12
F0.8960952784403614
sI13
F0.8922561369007825
sI14
F0.8907284827530613
ssg26
(dp181
I0
F0.002526729827636816
sI1
Fnan
sI2
Fnan
sI3
Fnan
sI4
Fnan
sI5
Fnan
sI6
Fnan
sI7
Fnan
sI8
Fnan
sI9
Fnan
sI10
Fnan
sI11
Fnan
sI12
Fnan
sI13
Fnan
sI14
Fnan
ssg28
(dp182
I0
F0.8940565719757622
sI1
Fnan
sI2
Fnan
sI3
Fnan
sI4
Fnan
sI5
Fnan
sI6
Fnan
sI7
Fnan
sI8
Fnan
sI9
Fnan
sI10
Fnan
sI11
Fnan
sI12
Fnan
sI13
Fnan
sI14
Fnan
ssg30
(dp183
I0
F11.9
sI1
F11.511
sI2
F11.881
sI3
F11.76
sI4
F11.863
sI5
F11.591
sI6
F11.782
sI7
F11.532
sI8
F11.851
sI9
F11.478
sI10
F11.811
sI11
F11.813
sI12
F11.551
sI13
F11.796
sI14
F11.778
ssg32
(dp184
I0
F6.214142
sI1
F4.540705
sI2
F7.131048
sI3
F6.198404
sI4
F6.160155
sI5
F4.919453
sI6
F6.871871
sI7
F5.42761
sI8
F6.430562
sI9
F4.174904
sI10
F6.185273
sI11
F5.565635
sI12
F5.17476
sI13
F7.883605
sI14
F8.057956
ssg34
(dp185
I0
F2458423.5764699075
sI1
F2458423.6135300924
sI2
F2458423.5741898147
sI3
F2458423.5941435187
sI4
F2458423.594884259
sI5
F2458423.612048611
sI6
F2458423.592638889
sI7
F2458423.6142592593
sI8
F2458423.595625
sI9
F2458423.615
sI10
F2458423.59337963
sI11
F2458423.5757175926
sI12
F2458423.612789352
sI13
F2458423.5749305557
sI14
F2458423.5734490743
ssg36
(dp186
I0
F1.9110195333333335
sI1
Fnan
sI2
Fnan
sI3
Fnan
sI4
Fnan
sI5
Fnan
sI6
Fnan
sI7
Fnan
sI8
Fnan
sI9
Fnan
sI10
Fnan
sI11
Fnan
sI12
Fnan
sI13
Fnan
sI14
Fnan
ssg38
(dp187
I0
F1.0863583999999997
sI1
Fnan
sI2
Fnan
sI3
Fnan
sI4
Fnan
sI5
Fnan
sI6
Fnan
sI7
Fnan
sI8
Fnan
sI9
Fnan
sI10
Fnan
sI11
Fnan
sI12
Fnan
sI13
Fnan
sI14
Fnan
ssg40
(dp188
I0
F0.5427096951688922
sI1
F0.550207966100733
sI2
F0.542372285921543
sI3
F0.5459153812336099
sI4
F0.5426462794244367
sI5
F0.5467724429472502
sI6
F0.5443771834419298
sI7
F0.5505442149639376
sI8
F0.5462147449059561
sI9
F0.5509179613884291
sI10
F0.543613380021171
sI11
F0.5456313837179059
sI12
F0.547985954042613
sI13
F0.5459234414896317
sI14
F0.5446790130189485
ssg42
(dp189
I0
F0.002176590983812322
sI1
Fnan
sI2
Fnan
sI3
Fnan
sI4
Fnan
sI5
Fnan
sI6
Fnan
sI7
Fnan
sI8
Fnan
sI9
Fnan
sI10
Fnan
sI11
Fnan
sI12
Fnan
sI13
Fnan
sI14
Fnan
ssg44
(dp190
I0
F2.314950746666667
sI1
Fnan
sI2
Fnan
sI3
Fnan
sI4
Fnan
sI5
Fnan
sI6
Fnan
sI7
Fnan
sI8
Fnan
sI9
Fnan
sI10
Fnan
sI11
Fnan
sI12
Fnan
sI13
Fnan
sI14
Fnan
ssg46
(dp191
I0
g164
sI1
g165
sI2
g166
sI3
g167
sI4
g168
sI5
g169
sI6
g170
sI7
g171
sI8
g172
sI9
g173
sI10
g174
sI11
g175
sI12
g176
sI13
g177
sI14
g178
ssg48
(dp192
I0
F0.002756303791009507
sI1
Fnan
sI2
Fnan
sI3
Fnan
sI4
Fnan
sI5
Fnan
sI6
Fnan
sI7
Fnan
sI8
Fnan
sI9
Fnan
sI10
Fnan
sI11
Fnan
sI12
Fnan
sI13
Fnan
sI14
Fnan
ssg50
(dp193
I0
F0.14487048402920877
sI1
Fnan
sI2
Fnan
sI3
Fnan
sI4
Fnan
sI5
Fnan
sI6
Fnan
sI7
Fnan
sI8
Fnan
sI9
Fnan
sI10
Fnan
sI11
Fnan
sI12
Fnan
sI13
Fnan
sI14
Fnan
ssg52
(dp194
I0
F2.791856066666667
sI1
Fnan
sI2
Fnan
sI3
Fnan
sI4
Fnan
sI5
Fnan
sI6
Fnan
sI7
Fnan
sI8
Fnan
sI9
Fnan
sI10
Fnan
sI11
Fnan
sI12
Fnan
sI13
Fnan
sI14
Fnan
ssg54
(dp195
I0
F1.5082681698777791
sI1
F1.4952422662350622
sI2
F1.5055943415851885
sI3
F1.5006980743072724
sI4
F1.502682974913454
sI5
F1.4984671311035649
sI6
F1.5084406940906203
sI7
F1.4987862032497028
sI8
F1.5033760787558423
sI9
F1.501519677945078
sI10
F1.5049159914757897
sI11
F1.4970571845978424
sI12
F1.4959285391967836
sI13
F1.5001362042945114
sI14
F1.49787253044344
ssg56
(dp196
I0
g164
sI1
g165
sI2
g166
sI3
g167
sI4
g168
sI5
g169
sI6
g170
sI7
g171
sI8
g172
sI9
g173
sI10
g174
sI11
g175
sI12
g176
sI13
g177
sI14
g178
ssg58
(dp197
I0
F7.523098
sI1
F6.171012
sI2
F8.448857
sI3
F7.199428
sI4
F7.552503
sI5
F5.973202
sI6
F8.107418
sI7
F5.887872
sI8
F8.821603
sI9
F6.448639
sI10
F8.258455
sI11
F6.616744
sI12
F5.722307
sI13
F8.423539
sI14
F9.70125
ssg60
(dp198
I0
F10.79626666666667
sI1
Fnan
sI2
Fnan
sI3
Fnan
sI4
Fnan
sI5
Fnan
sI6
Fnan
sI7
Fnan
sI8
Fnan
sI9
Fnan
sI10
Fnan
sI11
Fnan
sI12
Fnan
sI13
Fnan
sI14
Fnan
ssg62
(dp199
I0
F0.7111125200710635
sI1
Fnan
sI2
Fnan
sI3
Fnan
sI4
Fnan
sI5
Fnan
sI6
Fnan
sI7
Fnan
sI8
Fnan
sI9
Fnan
sI10
Fnan
sI11
Fnan
sI12
Fnan
sI13
Fnan
sI14
Fnan
ssg64
(dp200
I0
F3.527704
sI1
F-2.393749
sI2
F3.515332
sI3
F4.689667
sI4
F3.929933
sI5
F-3.674196
sI6
F2.330494
sI7
F4.535451
sI8
F-3.921068
sI9
F1.66069
sI10
F3.329544
sI11
F2.446209
sI12
F-3.18879
sI13
F3.010371
sI14
F-3.502216
ssg66
(dp201
I0
F11.1522
sI1
Fnan
sI2
Fnan
sI3
Fnan
sI4
Fnan
sI5
Fnan
sI6
Fnan
sI7
Fnan
sI8
Fnan
sI9
Fnan
sI10
Fnan
sI11
Fnan
sI12
Fnan
sI13
Fnan
sI14
Fnan
ssg68
(dp202
I0
g164
sI1
g165
sI2
g166
sI3
g167
sI4
g168
sI5
g169
sI6
g170
sI7
g171
sI8
g172
sI9
g173
sI10
g174
sI11
g175
sI12
g176
sI13
g177
sI14
g178
ssg70
(dp203
I0
F7446.64
sI1
F10540.533333333333
sI2
F7571.966666666666
sI3
F8427.866666666667
sI4
F7696.929999999999
sI5
F9827.32
sI6
F8297.390000000001
sI7
F10347.053333333333
sI8
F7763.633333333333
sI9
F10850.01
sI10
F8055.1466666666665
sI11
F8043.333333333333
sI12
F10195.79
sI13
F8145.706666666667
sI14
F8286.966666666667
ssg72
(dp204
I0
F1.01712
sI1
F1.061882
sI2
F1.015463
sI3
F1.034183
sI4
F1.035064
sI5
F1.059425
sI6
F1.032427
sI7
F1.063138
sI8
F1.035959
sI9
F1.0644069999999999
sI10
F1.033284
sI11
F1.01657
sI12
F1.060648
sI13
F1.015997
sI14
F1.014953
ssg74
(dp205
I0
F6312.35
sI1
F8951.59
sI2
F6448.45
sI3
F7157.866666666667
sI4
F6556.526666666667
sI5
F8370.583333333334
sI6
F6993.216666666666
sI7
F8740.436666666666
sI8
F6550.3099999999995
sI9
F9183.84
sI10
F6860.8
sI11
F6821.683333333333
sI12
F8655.756666666666
sI13
F6941.923333333334
sI14
F7090.456666666667
ssg76
(dp206
I0
F10376.123333333333
sI1
F14572.723333333333
sI2
F10554.53
sI3
F11694.74
sI4
F10709.213333333335
sI5
F13634.480000000001
sI6
F11532.486666666666
sI7
F14304.033333333333
sI8
F10759.619999999999
sI9
F15040.609999999999
sI10
F11223.623333333333
sI11
F11126.890000000001
sI12
F14100.283333333333
sI13
F11316.75
sI14
F11516.71
ssg78
(dp207
I0
F6.788314
sI1
F5.456042
sI2
F7.924619
sI3
F6.814212
sI4
F7.26638
sI5
F6.477189
sI6
F7.987411
sI7
F5.914651
sI8
F8.384506
sI9
F5.166623
sI10
F8.111513
sI11
F6.960549
sI12
F6.367556
sI13
F8.012861
sI14
F8.886651
ssg80
(dp208
I0
F11.5
sI1
F11.12
sI2
F11.476
sI3
F11.363
sI4
F11.458
sI5
F11.193
sI6
F11.388
sI7
F11.146
sI8
F11.459
sI9
F11.092
sI10
F11.409
sI11
F11.415
sI12
F11.157
sI13
F11.396
sI14
F11.373
ssg82
(dp209
I0
F0.002
sI1
F0.001
sI2
F0.002
sI3
F0.002
sI4
F0.002
sI5
F0.002
sI6
F0.002
sI7
F0.002
sI8
F0.002
sI9
F0.001
sI10
F0.002
sI11
F0.002
sI12
F0.002
sI13
F0.002
sI14
F0.002
ssg84
(dp210
I0
F0.5460340885191325
sI1
Fnan
sI2
Fnan
sI3
Fnan
sI4
Fnan
sI5
Fnan
sI6
Fnan
sI7
Fnan
sI8
Fnan
sI9
Fnan
sI10
Fnan
sI11
Fnan
sI12
Fnan
sI13
Fnan
sI14
Fnan
ssg86
(dp211
I0
F11.329666666666666
sI1
Fnan
sI2
Fnan
sI3
Fnan
sI4
Fnan
sI5
Fnan
sI6
Fnan
sI7
Fnan
sI8
Fnan
sI9
Fnan
sI10
Fnan
sI11
Fnan
sI12
Fnan
sI13
Fnan
sI14
Fnan
ssg88
(dp212
I0
F11.32
sI1
F10.943
sI2
F11.302
sI3
F11.186
sI4
F11.284
sI5
F11.019
sI6
F11.203
sI7
F10.963
sI8
F11.275
sI9
F10.911
sI10
F11.235
sI11
F11.236
sI12
F10.979
sI13
F11.223
sI14
F11.204
ssg90
(dp213
I0
F3.33465
sI1
F1.997988
sI2
F3.665556
sI3
F3.327123
sI4
F2.700812
sI5
F-1.720541
sI6
F-3.18832
sI7
F2.538495
sI8
F3.982319
sI9
F-2.513437
sI10
F1.181395
sI11
F1.950421
sI12
F3.660468
sI13
F3.425796
sI14
F4.322568
ssg92
(dp214
I0
F0.14270572451560523
sI1
Fnan
sI2
Fnan
sI3
Fnan
sI4
Fnan
sI5
Fnan
sI6
Fnan
sI7
Fnan
sI8
Fnan
sI9
Fnan
sI10
Fnan
sI11
Fnan
sI12
Fnan
sI13
Fnan
sI14
Fnan
ssg94
(dp215
I0
F0.7083469473214873
sI1
F0.7128975838391861
sI2
F0.7114943520066114
sI3
F0.7114253918726898
sI4
F0.7124280788135411
sI5
F0.7135499691697426
sI6
F0.7053212467450208
sI7
F0.7091319571307607
sI8
F0.7072526496425393
sI9
F0.7094337640427306
sI10
F0.7117466518870239
sI11
F0.7116957601085154
sI12
F0.7125230935808282
sI13
F0.7133655788914625
sI14
F0.7160747760138143
ssg96
(dp216
I0
F30.0
sI1
F30.0
sI2
F30.0
sI3
F30.0
sI4
F30.0
sI5
F30.0
sI6
F30.0
sI7
F30.0
sI8
F30.0
sI9
F30.0
sI10
F30.0
sI11
F30.0
sI12
F30.0
sI13
F30.0
sI14
F30.0
ssg98
(dp217
I0
F0.002
sI1
F0.002
sI2
F0.002
sI3
F0.002
sI4
F0.002
sI5
F0.002
sI6
F0.002
sI7
F0.002
sI8
F0.002
sI9
F0.002
sI10
F0.002
sI11
F0.002
sI12
F0.002
sI13
F0.002
sI14
F0.002
ssg100
(dp218
I0
F0.002
sI1
F0.002
sI2
F0.002
sI3
F0.002
sI4
F0.002
sI5
F0.002
sI6
F0.002
sI7
F0.002
sI8
F0.002
sI9
F0.002
sI10
F0.002
sI11
F0.002
sI12
F0.002
sI13
F0.002
sI14
F0.002
ssg102
(dp219
I0
F3.162532
sI1
F4.321191
sI2
F3.272981
sI3
F3.017896
sI4
F3.010225
sI5
F3.456257
sI6
F3.806417
sI7
F3.88169
sI8
F2.937794
sI9
F2.108441
sI10
F2.553765
sI11
F4.189508
sI12
F1.315775
sI13
F3.429536
sI14
F-2.586167
ssg104
(dp220
I0
S"KIC8462852-20181101at015006_-25-1X1-030-r'_cal.fts.mag.1"
p221
sI1
S"KIC8462852-20181101at024329_-25-1X1-030-r'_cal.fts.mag.1"
p222
sI2
S"KIC8462852-20181101at014650_-25-1X1-030-r'_cal.fts.mag.1"
p223
sI3
S"KIC8462852-20181101at021534_-25-1X1-030-r'_cal.fts.mag.1"
p224
sI4
S"KIC8462852-20181101at021638_-25-1X1-030-r'_cal.fts.mag.1"
p225
sI5
S"KIC8462852-20181101at024119_-25-1X1-030-r'_cal.fts.mag.1"
p226
sI6
S"KIC8462852-20181101at021322_-25-1X1-030-r'_cal.fts.mag.1"
p227
sI7
S"KIC8462852-20181101at024432_-25-1X1-030-r'_cal.fts.mag.1"
p228
sI8
S"KIC8462852-20181101at021742_-25-1X1-030-r'_cal.fts.mag.1"
p229
sI9
S"KIC8462852-20181101at024536_-25-1X1-030-r'_cal.fts.mag.1"
p230
sI10
S"KIC8462852-20181101at021428_-25-1X1-030-r'_cal.fts.mag.1"
p231
sI11
S"KIC8462852-20181101at014902_-25-1X1-030-r'_cal.fts.mag.1"
p232
sI12
S"KIC8462852-20181101at024225_-25-1X1-030-r'_cal.fts.mag.1"
p233
sI13
S"KIC8462852-20181101at014754_-25-1X1-030-r'_cal.fts.mag.1"
p234
sI14
S"KIC8462852-20181101at014545_-25-1X1-030-r'_cal.fts.mag.1"
p235
ssg121
(dp236
I0
F0.004214548396737217
sI1
Fnan
sI2
Fnan
sI3
Fnan
sI4
Fnan
sI5
Fnan
sI6
Fnan
sI7
Fnan
sI8
Fnan
sI9
Fnan
sI10
Fnan
sI11
Fnan
sI12
Fnan
sI13
Fnan
sI14
Fnan
ssg123
(dp237
I0
F4366.12
sI1
F6247.583333333333
sI2
F4442.923333333334
sI3
F4964.276666666667
sI4
F4515.3
sI5
F5801.6900000000005
sI6
F4867.293333333333
sI7
F6127.836666666667
sI8
F4565.183333333333
sI9
F6441.05
sI10
F4736.6066666666675
sI11
F4727.333333333333
sI12
F6019.046666666666
sI13
F4804.923333333334
sI14
F4882.89
ssg125
(dp238
I0
F0.14408859708361316
sI1
Fnan
sI2
Fnan
sI3
Fnan
sI4
Fnan
sI5
Fnan
sI6
Fnan
sI7
Fnan
sI8
Fnan
sI9
Fnan
sI10
Fnan
sI11
Fnan
sI12
Fnan
sI13
Fnan
sI14
Fnan
ssg127
(dp239
I0
S"r'"
p240
sI1
S"r'"
p241
sI2
S"r'"
p242
sI3
S"r'"
p243
sI4
S"r'"
p244
sI5
S"r'"
p245
sI6
S"r'"
p246
sI7
S"r'"
p247
sI8
S"r'"
p248
sI9
S"r'"
p249
sI10
S"r'"
p250
sI11
S"r'"
p251
sI12
S"r'"
p252
sI13
S"r'"
p253
sI14
S"r'"
p254
ssg144
(dp255
I0
F0.0028356131955130336
sI1
Fnan
sI2
Fnan
sI3
Fnan
sI4
Fnan
sI5
Fnan
sI6
Fnan
sI7
Fnan
sI8
Fnan
sI9
Fnan
sI10
Fnan
sI11
Fnan
sI12
Fnan
sI13
Fnan
sI14
Fnan
ssg146
(dp256
I0
F3.438889
sI1
F4.146934
sI2
F2.719427
sI3
F-3.618548
sI4
F2.918247
sI5
F2.380711
sI6
F0.3322112
sI7
F3.218073
sI8
F2.449837
sI9
F1.646194
sI10
F3.752999
sI11
F4.032669
sI12
F3.082248
sI13
F2.423294
sI14
F1.801076
ssg148
(dp257
I0
F1.5012657374714624
sI1
Fnan
sI2
Fnan
sI3
Fnan
sI4
Fnan
sI5
Fnan
sI6
Fnan
sI7
Fnan
sI8
Fnan
sI9
Fnan
sI10
Fnan
sI11
Fnan
sI12
Fnan
sI13
Fnan
sI14
Fnan
ssg150
(dp258
I0
F2458423.5941435187
sI1
Fnan
sI2
Fnan
sI3
Fnan
sI4
Fnan
sI5
Fnan
sI6
Fnan
sI7
Fnan
sI8
Fnan
sI9
Fnan
sI10
Fnan
sI11
Fnan
sI12
Fnan
sI13
Fnan
sI14
Fnan
ssg152
(dp259
I0
F0.0028356131955130336
sI1
Fnan
sI2
Fnan
sI3
Fnan
sI4
Fnan
sI5
Fnan
sI6
Fnan
sI7
Fnan
sI8
Fnan
sI9
Fnan
sI10
Fnan
sI11
Fnan
sI12
Fnan
sI13
Fnan
sI14
Fnan
ssg154
(dp260
I0
F8.361738
sI1
F7.028096
sI2
F9.547384
sI3
F7.816758
sI4
F10.1601
sI5
F7.037331
sI6
F11.3721
sI7
F7.974399
sI8
F10.1313
sI9
F7.195934
sI10
F9.739221
sI11
F8.096369
sI12
F6.926444
sI13
F9.53913
sI14
F10.34254
ssg156
(dp261
I0
F10.96
sI1
F10.591
sI2
F10.941
sI3
F10.83
sI4
F10.926
sI5
F10.663
sI6
F10.845
sI7
F10.611
sI8
F10.921
sI9
F10.557
sI10
F10.875
sI11
F10.884
sI12
F10.627
sI13
F10.866
sI14
F10.847
ssg158
(dp262
I0
F0.5460340885191325
sI1
Fnan
sI2
Fnan
sI3
Fnan
sI4
Fnan
sI5
Fnan
sI6
Fnan
sI7
Fnan
sI8
Fnan
sI9
Fnan
sI10
Fnan
sI11
Fnan
sI12
Fnan
sI13
Fnan
sI14
Fnan
sssS'z'
p263
(dp264
g3
(dp265
I0
F0.3662725245616154
sI1
Fnan
sI2
Fnan
sI3
Fnan
sI4
Fnan
sI5
Fnan
sI6
Fnan
sI7
Fnan
sI8
Fnan
sI9
Fnan
sI10
Fnan
sI11
Fnan
sI12
Fnan
sI13
Fnan
sI14
Fnan
ssg5
(dp266
I0
S'NoError'
p267
sI1
S'NoError'
p268
sI2
S'NoError'
p269
sI3
S'NoError'
p270
sI4
S'NoError'
p271
sI5
S'NoError'
p272
sI6
S'NoError'
p273
sI7
S'NoError'
p274
sI8
S'NoError'
p275
sI9
S'NoError'
p276
sI10
S'NoError'
p277
sI11
S'NoError'
p278
sI12
S'NoError'
p279
sI13
S'NoError'
p280
sI14
S'NoError'
p281
ssg22
(dp282
I0
F0.009
sI1
F0.012
sI2
F0.009
sI3
F0.01
sI4
F0.011
sI5
F0.009
sI6
F0.011
sI7
F0.008
sI8
F0.011
sI9
F0.011
sI10
F0.009
sI11
F0.011
sI12
F0.01
sI13
F0.011
sI14
F0.01
ssg24
(dp283
I0
F0.9224642332193556
sI1
F0.9065293496676117
sI2
F0.9193952955778516
sI3
F0.9068291517362288
sI4
F0.9127907543084396
sI5
F0.9096718468479156
sI6
F0.9108948265629248
sI7
F0.9196677263393618
sI8
F0.9131644834610132
sI9
F0.9026318814264868
sI10
F0.9152604772085757
sI11
F0.905711843837835
sI12
F0.9196445611451429
sI13
F0.9177197523410816
sI14
F0.9077686008150775
ssg26
(dp284
I0
F0.006143551108544577
sI1
Fnan
sI2
Fnan
sI3
Fnan
sI4
Fnan
sI5
Fnan
sI6
Fnan
sI7
Fnan
sI8
Fnan
sI9
Fnan
sI10
Fnan
sI11
Fnan
sI12
Fnan
sI13
Fnan
sI14
Fnan
ssg28
(dp285
I0
F0.9126763189663267
sI1
Fnan
sI2
Fnan
sI3
Fnan
sI4
Fnan
sI5
Fnan
sI6
Fnan
sI7
Fnan
sI8
Fnan
sI9
Fnan
sI10
Fnan
sI11
Fnan
sI12
Fnan
sI13
Fnan
sI14
Fnan
ssg30
(dp286
I0
F13.638
sI1
F13.966
sI2
F13.692
sI3
F13.832
sI4
F13.968
sI5
F13.623
sI6
F13.938
sI7
F13.515
sI8
F13.863
sI9
F13.906
sI10
F13.687
sI11
F13.875
sI12
F13.855
sI13
F13.894
sI14
F13.807
ssg32
(dp287
I0
F3.023072
sI1
F2.965128
sI2
F2.737373
sI3
F1.982792
sI4
F1.814985
sI5
F3.641206
sI6
F2.902411
sI7
F1.563674
sI8
F1.824344
sI9
F2.347502
sI10
F3.631988
sI11
F2.106652
sI12
F1.596291
sI13
F1.902899
sI14
F1.851898
ssg34
(dp288
I0
F2458423.619513889
sI1
F2458423.583310185
sI2
F2458423.620277778
sI3
F2458423.5818171296
sI4
F2458423.5810648147
sI5
F2458423.621770833
sI6
F2458423.584050926
sI7
F2458423.6210185187
sI8
F2458423.6016782406
sI9
F2458423.6009143516
sI10
F2458423.622523148
sI11
F2458423.600173611
sI12
F2458423.6024189815
sI13
F2458423.5825694446
sI14
F2458423.6031597224
ssg36
(dp289
I0
F2.0506997333333334
sI1
Fnan
sI2
Fnan
sI3
Fnan
sI4
Fnan
sI5
Fnan
sI6
Fnan
sI7
Fnan
sI8
Fnan
sI9
Fnan
sI10
Fnan
sI11
Fnan
sI12
Fnan
sI13
Fnan
sI14
Fnan
ssg38
(dp290
I0
F1.0144960733333332
sI1
Fnan
sI2
Fnan
sI3
Fnan
sI4
Fnan
sI5
Fnan
sI6
Fnan
sI7
Fnan
sI8
Fnan
sI9
Fnan
sI10
Fnan
sI11
Fnan
sI12
Fnan
sI13
Fnan
sI14
Fnan
ssg40
(dp291
I0
F0.36373379473845
sI1
F0.36386500123446913
sI2
F0.3636029095432539
sI3
F0.3676918638625183
sI4
F0.3690288163742744
sI5
F0.3691191865712327
sI6
F0.36596732738410953
sI7
F0.3759105368316896
sI8
F0.36611573544392007
sI9
F0.3661420026388069
sI10
F0.3628829255264305
sI11
F0.3643913586708794
sI12
F0.37006581451123455
sI13
F0.3680962613230699
sI14
F0.36711234603996556
ssg42
(dp292
I0
F0.002246689796978076
sI1
Fnan
sI2
Fnan
sI3
Fnan
sI4
Fnan
sI5
Fnan
sI6
Fnan
sI7
Fnan
sI8
Fnan
sI9
Fnan
sI10
Fnan
sI11
Fnan
sI12
Fnan
sI13
Fnan
sI14
Fnan
ssg44
(dp293
I0
F0.9435509333333332
sI1
Fnan
sI2
Fnan
sI3
Fnan
sI4
Fnan
sI5
Fnan
sI6
Fnan
sI7
Fnan
sI8
Fnan
sI9
Fnan
sI10
Fnan
sI11
Fnan
sI12
Fnan
sI13
Fnan
sI14
Fnan
ssg46
(dp294
I0
g267
sI1
g268
sI2
g269
sI3
g270
sI4
g271
sI5
g272
sI6
g273
sI7
g274
sI8
g275
sI9
g276
sI10
g277
sI11
g278
sI12
g279
sI13
g280
sI14
g281
ssg48
(dp295
I0
F0.00437145314110953
sI1
Fnan
sI2
Fnan
sI3
Fnan
sI4
Fnan
sI5
Fnan
sI6
Fnan
sI7
Fnan
sI8
Fnan
sI9
Fnan
sI10
Fnan
sI11
Fnan
sI12
Fnan
sI13
Fnan
sI14
Fnan
ssg50
(dp296
I0
F0.139273557467036
sI1
Fnan
sI2
Fnan
sI3
Fnan
sI4
Fnan
sI5
Fnan
sI6
Fnan
sI7
Fnan
sI8
Fnan
sI9
Fnan
sI10
Fnan
sI11
Fnan
sI12
Fnan
sI13
Fnan
sI14
Fnan
ssg52
(dp297
I0
F1.687432
sI1
Fnan
sI2
Fnan
sI3
Fnan
sI4
Fnan
sI5
Fnan
sI6
Fnan
sI7
Fnan
sI8
Fnan
sI9
Fnan
sI10
Fnan
sI11
Fnan
sI12
Fnan
sI13
Fnan
sI14
Fnan
ssg54
(dp298
I0
F1.5139204106140582
sI1
F1.5262941115545714
sI2
F1.5042265746897674
sI3
F1.5221705238633225
sI4
F1.5175635950439044
sI5
F1.5207663742160118
sI6
F1.5289323444870244
sI7
F1.5027976408473214
sI8
F1.5071455501822555
sI9
F1.5198675486348112
sI10
F1.5170791324180382
sI11
F1.5161078974324742
sI12
F1.5046969220434028
sI13
F1.495493714199155
sI14
F1.5143552764887023
ssg56
(dp299
I0
g267
sI1
g268
sI2
g269
sI3
g270
sI4
g271
sI5
g272
sI6
g273
sI7
g274
sI8
g275
sI9
g276
sI10
g277
sI11
g278
sI12
g279
sI13
g280
sI14
g281
ssg58
(dp300
I0
F2.577485
sI1
F2.53653
sI2
F2.850689
sI3
F1.296973
sI4
F2.280422
sI5
F3.5552
sI6
F2.566793
sI7
F3.252382
sI8
F2.47223
sI9
F2.233458
sI10
F4.164015
sI11
F2.320949
sI12
F1.463518
sI13
F2.042452
sI14
F3.051115
ssg60
(dp301
I0
F12.436666666666667
sI1
Fnan
sI2
Fnan
sI3
Fnan
sI4
Fnan
sI5
Fnan
sI6
Fnan
sI7
Fnan
sI8
Fnan
sI9
Fnan
sI10
Fnan
sI11
Fnan
sI12
Fnan
sI13
Fnan
sI14
Fnan
ssg62
(dp302
I0
F0.6874455813146849
sI1
Fnan
sI2
Fnan
sI3
Fnan
sI4
Fnan
sI5
Fnan
sI6
Fnan
sI7
Fnan
sI8
Fnan
sI9
Fnan
sI10
Fnan
sI11
Fnan
sI12
Fnan
sI13
Fnan
sI14
Fnan
ssg64
(dp303
I0
F3.45467
sI1
F-3.103754
sI2
F3.55828
sI3
F3.177567
sI4
F-2.882557
sI5
F0.7592961
sI6
F-3.408852
sI7
F-1.943295
sI8
F3.834964
sI9
F1.344577
sI10
F3.646576
sI11
F3.633304
sI12
F-1.797888
sI13
F3.094462
sI14
F1.850091
ssg66
(dp304
I0
F12.782533333333332
sI1
Fnan
sI2
Fnan
sI3
Fnan
sI4
Fnan
sI5
Fnan
sI6
Fnan
sI7
Fnan
sI8
Fnan
sI9
Fnan
sI10
Fnan
sI11
Fnan
sI12
Fnan
sI13
Fnan
sI14
Fnan
ssg68
(dp305
I0
g267
sI1
g268
sI2
g269
sI3
g270
sI4
g271
sI5
g272
sI6
g273
sI7
g274
sI8
g275
sI9
g276
sI10
g277
sI11
g278
sI12
g279
sI13
g280
sI14
g281
ssg70
(dp306
I0
F2291.635
sI1
F1674.2566666666667
sI2
F2176.5603333333333
sI3
F1875.464
sI4
F1655.465
sI5
F2268.3733333333334
sI6
F1714.0883333333334
sI7
F2479.434
sI8
F1838.9373333333335
sI9
F1752.512
sI10
F2185.257
sI11
F1816.9199999999998
sI12
F1841.5546666666667
sI13
F1783.0753333333334
sI14
F1923.0613333333333
ssg72
(dp307
I0
F1.072533
sI1
F1.022836
sI2
F1.0739319999999999
sI3
F1.0214969999999999
sI4
F1.0208469999999998
sI5
F1.076784
sI6
F1.0235299999999998
sI7
F1.0753549999999998
sI8
F1.0437809999999998
sI9
F1.0427620000000002
sI10
F1.078231
sI11
F1.04175
sI12
F1.044805
sI13
F1.022162
sI14
F1.045856
ssg74
(dp308
I0
F1840.5826666666667
sI1
F1370.316
sI2
F1768.005
sI3
F1538.2126666666666
sI4
F1348.1626666666666
sI5
F1853.2336666666667
sI6
F1390.3149999999998
sI7
F2014.948
sI8
F1506.548
sI9
F1449.6696666666664
sI10
F1772.809
sI11
F1498.7103333333332
sI12
F1494.8146666666667
sI13
F1460.505
sI14
F1582.537
ssg76
(dp309
I0
F3127.9243333333334
sI1
F2323.4566666666665
sI2
F2966.76
sI3
F2598.099
sI4
F2279.098
sI5
F3134.000666666667
sI6
F2373.211333333333
sI7
F3377.0733333333333
sI8
F2521.0666666666666
sI9
F2433.4460000000004
sI10
F3002.349666666667
sI11
F2513.4266666666667
sI12
F2510.112333333333
sI13
F2425.377
sI14
F2654.360666666667
ssg78
(dp310
I0
F2.918307
sI1
F2.72115
sI2
F2.819869
sI3
F1.73717
sI4
F2.600066
sI5
F4.079547
sI6
F3.189929
sI7
F2.846001
sI8
F1.64529
sI9
F2.896232
sI10
F4.701004
sI11
F1.959302
sI12
F2.052448
sI13
F2.084134
sI14
F2.077036
ssg80
(dp311
I0
F12.838
sI1
F13.158
sI2
F12.881
sI3
F13.032
sI4
F13.176
sI5
F12.83
sI6
F13.142
sI7
F12.739
sI8
F13.055
sI9
F13.097
sI10
F12.878
sI11
F13.061
sI12
F13.064
sI13
F13.089
sI14
F13.002
ssg82
(dp312
I0
F0.004
sI1
F0.004
sI2
F0.004
sI3
F0.004
sI4
F0.005
sI5
F0.004
sI6
F0.004
sI7
F0.003
sI8
F0.004
sI9
F0.004
sI10
F0.004
sI11
F0.004
sI12
F0.004
sI13
F0.004
sI14
F0.004
ssg84
(dp313
I0
F0.3669150587129536
sI1
Fnan
sI2
Fnan
sI3
Fnan
sI4
Fnan
sI5
Fnan
sI6
Fnan
sI7
Fnan
sI8
Fnan
sI9
Fnan
sI10
Fnan
sI11
Fnan
sI12
Fnan
sI13
Fnan
sI14
Fnan
ssg86
(dp314
I0
F13.002800000000002
sI1
Fnan
sI2
Fnan
sI3
Fnan
sI4
Fnan
sI5
Fnan
sI6
Fnan
sI7
Fnan
sI8
Fnan
sI9
Fnan
sI10
Fnan
sI11
Fnan
sI12
Fnan
sI13
Fnan
sI14
Fnan
ssg88
(dp315
I0
F12.6
sI1
F12.94
sI2
F12.656
sI3
F12.817
sI4
F12.953
sI5
F12.611
sI6
F12.915
sI7
F12.514
sI8
F12.839
sI9
F12.891
sI10
F12.651
sI11
F12.852
sI12
F12.837
sI13
F12.872
sI14
F12.79
ssg90
(dp316
I0
F3.925138
sI1
F4.165932
sI2
F3.238141
sI3
F3.78264
sI4
F-2.688759
sI5
F2.093659
sI6
F3.900978
sI7
F-2.787824
sI8
F2.286282
sI9
F2.692737
sI10
F2.982866
sI11
F3.059868
sI12
F3.083852
sI13
F-2.117248
sI14
F3.142234
ssg92
(dp317
I0
F0.13559586311992744
sI1
Fnan
sI2
Fnan
sI3
Fnan
sI4
Fnan
sI5
Fnan
sI6
Fnan
sI7
Fnan
sI8
Fnan
sI9
Fnan
sI10
Fnan
sI11
Fnan
sI12
Fnan
sI13
Fnan
sI14
Fnan
ssg94
(dp318
I0
F0.6792370203776715
sI1
F0.6855499060296136
sI2
F0.6874955808378259
sI3
F0.6876901774566119
sI4
F0.6852921997521283
sI5
F0.6860812178744629
sI6
F0.6803097954077095
sI7
F0.6881056866544236
sI8
F0.6910764302051099
sI9
F0.692634597225613
sI10
F0.6834785726494299
sI11
F0.6921895398674779
sI12
F0.6870078370733178
sI13
F0.6940817594306442
sI14
F0.6914533988782331
ssg96
(dp319
I0
F30.0
sI1
F30.0
sI2
F30.0
sI3
F30.0
sI4
F30.0
sI5
F30.0
sI6
F30.0
sI7
F30.0
sI8
F30.0
sI9
F30.0
sI10
F30.0
sI11
F30.0
sI12
F30.0
sI13
F30.0
sI14
F30.0
ssg98
(dp320
I0
F0.005
sI1
F0.007
sI2
F0.005
sI3
F0.006
sI4
F0.006
sI5
F0.005
sI6
F0.006
sI7
F0.005
sI8
F0.006
sI9
F0.006
sI10
F0.006
sI11
F0.006
sI12
F0.006
sI13
F0.006
sI14
F0.006
ssg100
(dp321
I0
F0.004
sI1
F0.006
sI2
F0.005
sI3
F0.005
sI4
F0.005
sI5
F0.005
sI6
F0.005
sI7
F0.004
sI8
F0.005
sI9
F0.005
sI10
F0.005
sI11
F0.005
sI12
F0.005
sI13
F0.005
sI14
F0.005
ssg102
(dp322
I0
F2.850987
sI1
F1.555562
sI2
F3.447102
sI3
F3.984839
sI4
F2.718785
sI5
F-3.736271
sI6
F3.813808
sI7
F3.17728
sI8
F1.898234
sI9
F-2.081323
sI10
F2.158874
sI11
F-3.742014
sI12
F3.538097
sI13
F3.528556
sI14
F2.198964
ssg104
(dp323
I0
S"KIC8462852-20181101at025204_-25-1X1-030-z'_cal.fts.mag.1"
p324
sI1
S"KIC8462852-20181101at015958_-25-1X1-030-z'_cal.fts.mag.1"
p325
sI2
S"KIC8462852-20181101at025311_-25-1X1-030-z'_cal.fts.mag.1"
p326
sI3
S"KIC8462852-20181101at015749_-25-1X1-030-z'_cal.fts.mag.1"
p327
sI4
S"KIC8462852-20181101at015643_-25-1X1-030-z'_cal.fts.mag.1"
p328
sI5
S"KIC8462852-20181101at025521_-25-1X1-030-z'_cal.fts.mag.1"
p329
sI6
S"KIC8462852-20181101at020102_-25-1X1-030-z'_cal.fts.mag.1"
p330
sI7
S"KIC8462852-20181101at025416_-25-1X1-030-z'_cal.fts.mag.1"
p331
sI8
S"KIC8462852-20181101at022624_-25-1X1-030-z'_cal.fts.mag.1"
p332
sI9
S"KIC8462852-20181101at022519_-25-1X1-030-z'_cal.fts.mag.1"
p333
sI10
S"KIC8462852-20181101at025626_-25-1X1-030-z'_cal.fts.mag.1"
p334
sI11
S"KIC8462852-20181101at022414_-25-1X1-030-z'_cal.fts.mag.1"
p335
sI12
S"KIC8462852-20181101at022729_-25-1X1-030-z'_cal.fts.mag.1"
p336
sI13
S"KIC8462852-20181101at015854_-25-1X1-030-z'_cal.fts.mag.1"
p337
sI14
S"KIC8462852-20181101at022833_-25-1X1-030-z'_cal.fts.mag.1"
p338
ssg121
(dp339
I0
F0.009429200937654226
sI1
Fnan
sI2
Fnan
sI3
Fnan
sI4
Fnan
sI5
Fnan
sI6
Fnan
sI7
Fnan
sI8
Fnan
sI9
Fnan
sI10
Fnan
sI11
Fnan
sI12
Fnan
sI13
Fnan
sI14
Fnan
ssg123
(dp340
I0
F880.253
sI1
F651.0793333333334
sI2
F837.6593333333333
sI3
F736.827
sI4
F649.8259999999999
sI5
F892.728
sI6
F668.2093333333333
sI7
F986.321
sI8
F715.9456666666666
sI9
F687.8133333333334
sI10
F841.9386666666667
sI11
F708.0193333333334
sI12
F721.1943333333334
sI13
F695.5740000000001
sI14
F753.7990000000001
ssg125
(dp341
I0
F0.13561932015756442
sI1
Fnan
sI2
Fnan
sI3
Fnan
sI4
Fnan
sI5
Fnan
sI6
Fnan
sI7
Fnan
sI8
Fnan
sI9
Fnan
sI10
Fnan
sI11
Fnan
sI12
Fnan
sI13
Fnan
sI14
Fnan
ssg127
(dp342
I0
S"z'"
p343
sI1
S"z'"
p344
sI2
S"z'"
p345
sI3
S"z'"
p346
sI4
S"z'"
p347
sI5
S"z'"
p348
sI6
S"z'"
p349
sI7
S"z'"
p350
sI8
S"z'"
p351
sI9
S"z'"
p352
sI10
S"z'"
p353
sI11
S"z'"
p354
sI12
S"z'"
p355
sI13
S"z'"
p356
sI14
S"z'"
p357
ssg144
(dp358
I0
F0.003352665667552543
sI1
Fnan
sI2
Fnan
sI3
Fnan
sI4
Fnan
sI5
Fnan
sI6
Fnan
sI7
Fnan
sI8
Fnan
sI9
Fnan
sI10
Fnan
sI11
Fnan
sI12
Fnan
sI13
Fnan
sI14
Fnan
ssg146
(dp359
I0
F-3.325244
sI1
F-2.476134
sI2
F3.085114
sI3
F-1.99296
sI4
F2.104565
sI5
F-1.510608
sI6
F-2.543801
sI7
F3.695563
sI8
F2.377673
sI9
F1.337791
sI10
F4.040323
sI11
F1.542572
sI12
F2.866314
sI13
F2.485539
sI14
F2.466557
ssg148
(dp360
I0
F1.514094507780988
sI1
Fnan
sI2
Fnan
sI3
Fnan
sI4
Fnan
sI5
Fnan
sI6
Fnan
sI7
Fnan
sI8
Fnan
sI9
Fnan
sI10
Fnan
sI11
Fnan
sI12
Fnan
sI13
Fnan
sI14
Fnan
ssg150
(dp361
I0
F2458423.6016782406
sI1
Fnan
sI2
Fnan
sI3
Fnan
sI4
Fnan
sI5
Fnan
sI6
Fnan
sI7
Fnan
sI8
Fnan
sI9
Fnan
sI10
Fnan
sI11
Fnan
sI12
Fnan
sI13
Fnan
sI14
Fnan
ssg152
(dp362
I0
F0.003352665667552543
sI1
Fnan
sI2
Fnan
sI3
Fnan
sI4
Fnan
sI5
Fnan
sI6
Fnan
sI7
Fnan
sI8
Fnan
sI9
Fnan
sI10
Fnan
sI11
Fnan
sI12
Fnan
sI13
Fnan
sI14
Fnan
ssg154
(dp363
I0
F3.404902
sI1
F2.46401
sI2
F3.92888
sI3
F1.439181
sI4
F2.741889
sI5
F4.156817
sI6
F2.296514
sI7
F3.212759
sI8
F2.601163
sI9
F1.918949
sI10
F5.005397
sI11
F2.876027
sI12
F2.499051
sI13
F2.595896
sI14
F2.06443
ssg156
(dp364
I0
F12.262
sI1
F12.585
sI2
F12.319
sI3
F12.463
sI4
F12.606
sI5
F12.26
sI6
F12.562
sI7
F12.179
sI8
F12.496
sI9
F12.534
sI10
F12.306
sI11
F12.499
sI12
F12.501
sI13
F12.538
sI14
F12.44
ssg158
(dp365
I0
F0.3669150587129536
sI1
Fnan
sI2
Fnan
sI3
Fnan
sI4
Fnan
sI5
Fnan
sI6
Fnan
sI7
Fnan
sI8
Fnan
sI9
Fnan
sI10
Fnan
sI11
Fnan
sI12
Fnan
sI13
Fnan
sI14
Fnan
sssS'g'
p366
(dp367
g3
(dp368
I0
F0.8668126359514702
sI1
Fnan
sI2
Fnan
sI3
Fnan
sI4
Fnan
sI5
Fnan
sI6
Fnan
sI7
Fnan
sI8
Fnan
sI9
Fnan
ssg5
(dp369
I0
S'NoError'
p370
sI1
S'NoError'
p371
sI2
S'NoError'
p372
sI3
S'NoError'
p373
sI4
S'NoError'
p374
sI5
S'NoError'
p375
sI6
S'NoError'
p376
sI7
S'NoError'
p377
sI8
S'NoError'
p378
sI9
S'NoError'
p379
ssg22
(dp380
I0
F0.003
sI1
F0.003
sI2
F0.003
sI3
F0.003
sI4
F0.003
sI5
F0.003
sI6
F0.003
sI7
F0.003
sI8
F0.003
sI9
F0.003
ssg24
(dp381
I0
F0.8800578343904593
sI1
F0.8745392831406318
sI2
F0.8774110532072316
sI3
F0.8690168195875757
sI4
F0.8779244075983176
sI5
F0.8776016659917857
sI6
F0.8791702294998011
sI7
F0.8788995828829599
sI8
F0.877516952352943
sI9
F0.8814564077723
ssg26
(dp382
I0
F0.003458892113308169
sI1
Fnan
sI2
Fnan
sI3
Fnan
sI4
Fnan
sI5
Fnan
sI6
Fnan
sI7
Fnan
sI8
Fnan
sI9
Fnan
ssg28
(dp383
I0
F0.8773594236424005
sI1
Fnan
sI2
Fnan
sI3
Fnan
sI4
Fnan
sI5
Fnan
sI6
Fnan
sI7
Fnan
sI8
Fnan
sI9
Fnan
ssg30
(dp384
I0
F11.938
sI1
F11.789
sI2
F11.81
sI3
F11.989
sI4
F11.987
sI5
F12.038
sI6
F11.787
sI7
F11.766
sI8
F11.75
sI9
F11.922
ssg32
(dp385
I0
F6.733032
sI1
F-0.9316345
sI2
F-0.1185649
sI3
F6.46603
sI4
F11.28536
sI5
F13.21568
sI6
F-0.9260806
sI7
F-0.2384668
sI8
F-0.2155325
sI9
F7.953336
ssg34
(dp386
I0
F2458423.5717592593
sI1
F2458423.6096643517
sI2
F2458423.6088310187
sI3
F2458423.572650463
sI4
F2458423.5702662035
sI5
F2458423.5694328705
sI6
F2458423.607997685
sI7
F2458423.6105439817
sI8
F2458423.611273148
sI9
F2458423.5710069444
ssg36
(dp387
I0
F1.8731716000000003
sI1
Fnan
sI2
Fnan
sI3
Fnan
sI4
Fnan
sI5
Fnan
sI6
Fnan
sI7
Fnan
sI8
Fnan
sI9
Fnan
ssg38
(dp388
I0
F2.6751113999999996
sI1
Fnan
sI2
Fnan
sI3
Fnan
sI4
Fnan
sI5
Fnan
sI6
Fnan
sI7
Fnan
sI8
Fnan
sI9
Fnan
ssg40
(dp389
I0
F0.867126032853804
sI1
F0.8683203935699976
sI2
F0.8677816227186137
sI3
F0.8643110694732138
sI4
F0.8656164031820518
sI5
F0.868974532164977
sI6
F0.865673132184621
sI7
F0.8636303496479855
sI8
F0.8727429941574668
sI9
F0.8698801877679677
ssg42
(dp390
I0
F0.002014072105907933
sI1
Fnan
sI2
Fnan
sI3
Fnan
sI4
Fnan
sI5
Fnan
sI6
Fnan
sI7
Fnan
sI8
Fnan
sI9
Fnan
ssg44
(dp391
I0
F3.0199854999999998
sI1
Fnan
sI2
Fnan
sI3
Fnan
sI4
Fnan
sI5
Fnan
sI6
Fnan
sI7
Fnan
sI8
Fnan
sI9
Fnan
ssg46
(dp392
I0
g370
sI1
g371
sI2
g372
sI3
g373
sI4
g374
sI5
g375
sI6
g376
sI7
g377
sI8
g378
sI9
g379
ssg48
(dp393
I0
F0.002419303474384972
sI1
Fnan
sI2
Fnan
sI3
Fnan
sI4
Fnan
sI5
Fnan
sI6
Fnan
sI7
Fnan
sI8
Fnan
sI9
Fnan
ssg50
(dp394
I0
F0.10828952960569295
sI1
Fnan
sI2
Fnan
sI3
Fnan
sI4
Fnan
sI5
Fnan
sI6
Fnan
sI7
Fnan
sI8
Fnan
sI9
Fnan
ssg52
(dp395
I0
F-0.3653527599999999
sI1
Fnan
sI2
Fnan
sI3
Fnan
sI4
Fnan
sI5
Fnan
sI6
Fnan
sI7
Fnan
sI8
Fnan
sI9
Fnan
ssg54
(dp396
I0
F1.5116030207109925
sI1
F1.5222956579938092
sI2
F1.516909897876134
sI3
F1.5279711326590435
sI4
F1.5158700626949384
sI5
F1.5199749508769185
sI6
F1.522890551757394
sI7
F1.5192761919739084
sI8
F1.5242194191268794
sI9
F1.5071574723155121
ssg56
(dp397
I0
g370
sI1
g371
sI2
g372
sI3
g373
sI4
g374
sI5
g375
sI6
g376
sI7
g377
sI8
g378
sI9
g379
ssg58
(dp398
I0
F7.859667
sI1
F0.3603159
sI2
F0.01652425
sI3
F6.401772
sI4
F10.71613
sI5
F13.88335
sI6
F-1.160713
sI7
F-0.1658541
sI8
F0.03639899
sI9
F7.969633
ssg60
(dp399
I0
F11.442699999999999
sI1
Fnan
sI2
Fnan
sI3
Fnan
sI4
Fnan
sI5
Fnan
sI6
Fnan
sI7
Fnan
sI8
Fnan
sI9
Fnan
ssg62
(dp400
I0
F0.7153902354292379
sI1
Fnan
sI2
Fnan
sI3
Fnan
sI4
Fnan
sI5
Fnan
sI6
Fnan
sI7
Fnan
sI8
Fnan
sI9
Fnan
ssg64
(dp401
I0
F3.17275
sI1
F2.0156
sI2
F-2.53446
sI3
F3.24703
sI4
F3.899404
sI5
F4.78118
sI6
F2.522023
sI7
F3.330637
sI8
F2.691366
sI9
F3.625584
ssg66
(dp402
I0
F11.819799999999999
sI1
Fnan
sI2
Fnan
sI3
Fnan
sI4
Fnan
sI5
Fnan
sI6
Fnan
sI7
Fnan
sI8
Fnan
sI9
Fnan
ssg68
(dp403
I0
g370
sI1
g371
sI2
g372
sI3
g373
sI4
g374
sI5
g375
sI6
g376
sI7
g377
sI8
g378
sI9
g379
ssg70
(dp404
I0
F4455.496666666667
sI1
F5080.886666666667
sI2
F5000.453333333334
sI3
F4228.94
sI4
F4261.11
sI5
F4045.6266666666666
sI6
F5127.156666666667
sI7
F5237.8533333333335
sI8
F5251.429999999999
sI9
F4512.8099999999995
ssg72
(dp405
I0
F1.013831
sI1
F1.0555889999999999
sI2
F1.0542639999999999
sI3
F1.014414
sI4
F1.01289
sI5
F1.012386
sI6
F1.052978
sI7
F1.056973
sI8
F1.058176
sI9
F1.013354
ssg74
(dp406
I0
F3848.95
sI1
F4401.826666666666
sI2
F4325.15
sI3
F3685.8866666666668
sI4
F3684.773333333333
sI5
F3491.563333333333
sI6
F4405.233333333334
sI7
F4512.429999999999
sI8
F4521.1
sI9
F3899.8433333333332
ssg76
(dp407
I0
F6276.513333333333
sI1
F7217.746666666667
sI2
F7073.05
sI3
F6046.8133333333335
sI4
F6022.463333333333
sI5
F5728.17
sI6
F7258.3933333333325
sI7
F7406.6866666666665
sI8
F7447.740000000001
sI9
F6339.596666666666
ssg78
(dp408
I0
F7.102001
sI1
F-0.7658132
sI2
F-0.725579
sI3
F5.288318
sI4
F9.97641
sI5
F13.23606
sI6
F-0.2374457
sI7
F-0.2108932
sI8
F-0.3106019
sI9
F7.652591
ssg80
(dp409
I0
F12.037
sI1
F11.891
sI2
F11.91
sI3
F12.084
sI4
F12.084
sI5
F12.142
sI6
F11.89
sI7
F11.864
sI8
F11.862
sI9
F12.022
ssg82
(dp410
I0
F0.002
sI1
F0.002
sI2
F0.002
sI3
F0.002
sI4
F0.002
sI5
F0.003
sI6
F0.002
sI7
F0.002
sI8
F0.002
sI9
F0.002
ssg84
(dp411
I0
F0.86740567177207
sI1
Fnan
sI2
Fnan
sI3
Fnan
sI4
Fnan
sI5
Fnan
sI6
Fnan
sI7
Fnan
sI8
Fnan
sI9
Fnan
ssg86
(dp412
I0
F11.9786
sI1
Fnan
sI2
Fnan
sI3
Fnan
sI4
Fnan
sI5
Fnan
sI6
Fnan
sI7
Fnan
sI8
Fnan
sI9
Fnan
ssg88
(dp413
I0
F11.878
sI1
F11.735
sI2
F11.752
sI3
F11.934
sI4
F11.926
sI5
F11.983
sI6
F11.725
sI7
F11.702
sI8
F11.699
sI9
F11.864
ssg90
(dp414
I0
F-2.786203
sI1
F-2.501768
sI2
F4.323872
sI3
F3.201361
sI4
F2.604035
sI5
F3.795761
sI6
F3.000348
sI7
F1.895488
sI8
F4.025916
sI9
F1.172906
ssg92
(dp415
I0
F0.10823949782260113
sI1
Fnan
sI2
Fnan
sI3
Fnan
sI4
Fnan
sI5
Fnan
sI6
Fnan
sI7
Fnan
sI8
Fnan
sI9
Fnan
ssg94
(dp416
I0
F0.7172840875101681
sI1
F0.7158237094094464
sI2
F0.7164697570520127
sI3
F0.717394929033589
sI4
F0.7166328695083939
sI5
F0.714474313802995
sI6
F0.711350458127953
sI7
F0.7137357309953544
sI8
F0.7120307862639842
sI9
F0.7187057125884827
ssg96
(dp417
I0
F30.0
sI1
F30.0
sI2
F30.0
sI3
F30.0
sI4
F30.0
sI5
F30.0
sI6
F30.0
sI7
F30.0
sI8
F30.0
sI9
F30.0
ssg98
(dp418
I0
F0.003
sI1
F0.003
sI2
F0.003
sI3
F0.003
sI4
F0.003
sI5
F0.003
sI6
F0.003
sI7
F0.003
sI8
F0.003
sI9
F0.003
ssg100
(dp419
I0
F0.003
sI1
F0.003
sI2
F0.003
sI3
F0.003
sI4
F0.003
sI5
F0.003
sI6
F0.003
sI7
F0.003
sI8
F0.003
sI9
F0.003
ssg102
(dp420
I0
F-1.994461
sI1
F-2.725862
sI2
F-1.177574
sI3
F0.9593534
sI4
F2.837845
sI5
F-2.546024
sI6
F-2.987533
sI7
F-1.968633
sI8
F2.676312
sI9
F3.273049
ssg104
(dp421
I0
S"KIC8462852-20181101at014320_-25-1X1-030-g'_cal.fts.mag.1"
p422
sI1
S"KIC8462852-20181101at023755_-25-1X1-030-g'_cal.fts.mag.1"
p423
sI2
S"KIC8462852-20181101at023643_-25-1X1-030-g'_cal.fts.mag.1"
p424
sI3
S"KIC8462852-20181101at014437_-25-1X1-030-g'_cal.fts.mag.1"
p425
sI4
S"KIC8462852-20181101at014111_-25-1X1-030-g'_cal.fts.mag.1"
p426
sI5
S"KIC8462852-20181101at013948_-25-1X1-030-g'_cal.fts.mag.1"
p427
sI6
S"KIC8462852-20181101at023526_-25-1X1-030-g'_cal.fts.mag.1"
p428
sI7
S"KIC8462852-20181101at023911_-25-1X1-030-g'_cal.fts.mag.1"
p429
sI8
S"KIC8462852-20181101at024014_-25-1X1-030-g'_cal.fts.mag.1"
p430
sI9
S"KIC8462852-20181101at014215_-25-1X1-030-g'_cal.fts.mag.1"
p431
ssg121
(dp432
I0
F0.006178263247070541
sI1
Fnan
sI2
Fnan
sI3
Fnan
sI4
Fnan
sI5
Fnan
sI6
Fnan
sI7
Fnan
sI8
Fnan
sI9
Fnan
ssg123
(dp433
I0
F4214.51
sI1
F4833.783333333334
sI2
F4743.483333333334
sI3
F4022.4
sI4
F4030.4100000000003
sI5
F3842.42
sI6
F4845.11
sI7
F4939.093333333333
sI8
F5009.623333333334
sI9
F4277.5633333333335
ssg125
(dp434
I0
F0.1060243158693113
sI1
Fnan
sI2
Fnan
sI3
Fnan
sI4
Fnan
sI5
Fnan
sI6
Fnan
sI7
Fnan
sI8
Fnan
sI9
Fnan
ssg127
(dp435
I0
S"g'"
p436
sI1
S"g'"
p437
sI2
S"g'"
p438
sI3
S"g'"
p439
sI4
S"g'"
p440
sI5
S"g'"
p441
sI6
S"g'"
p442
sI7
S"g'"
p443
sI8
S"g'"
p444
sI9
S"g'"
p445
ssg144
(dp446
I0
F0.0027519813394969663
sI1
Fnan
sI2
Fnan
sI3
Fnan
sI4
Fnan
sI5
Fnan
sI6
Fnan
sI7
Fnan
sI8
Fnan
sI9
Fnan
ssg146
(dp447
I0
F3.76661
sI1
F3.793674
sI2
F2.514477
sI3
F3.345832
sI4
F-1.207923
sI5
F4.065723
sI6
F3.030475
sI7
F2.683321
sI8
F3.482056
sI9
F4.72561
ssg148
(dp448
I0
F1.5188168357985528
sI1
Fnan
sI2
Fnan
sI3
Fnan
sI4
Fnan
sI5
Fnan
sI6
Fnan
sI7
Fnan
sI8
Fnan
sI9
Fnan
ssg150
(dp449
I0
F2458423.590324074
sI1
Fnan
sI2
Fnan
sI3
Fnan
sI4
Fnan
sI5
Fnan
sI6
Fnan
sI7
Fnan
sI8
Fnan
sI9
Fnan
ssg152
(dp450
I0
F0.0027519813394969663
sI1
Fnan
sI2
Fnan
sI3
Fnan
sI4
Fnan
sI5
Fnan
sI6
Fnan
sI7
Fnan
sI8
Fnan
sI9
Fnan
ssg154
(dp451
I0
F7.440597
sI1
F0.01195429
sI2
F-0.8688945
sI3
F6.100526
sI4
F11.13309
sI5
F13.61848
sI6
F-0.3848113
sI7
F-0.2585791
sI8
F-0.4019633
sI9
F9.370752
ssg156
(dp452
I0
F11.506
sI1
F11.354
sI2
F11.376
sI3
F11.546
sI4
F11.551
sI5
F11.605
sI6
F11.348
sI7
F11.326
sI8
F11.32
sI9
F11.495
ssg158
(dp453
I0
F0.86740567177207
sI1
Fnan
sI2
Fnan
sI3
Fnan
sI4
Fnan
sI5
Fnan
sI6
Fnan
sI7
Fnan
sI8
Fnan
sI9
Fnan
sssS'V'
p454
(dp455
g3
(dp456
I0
F0.6899451370080402
sI1
Fnan
sI2
Fnan
sI3
Fnan
sI4
Fnan
sI5
Fnan
sI6
Fnan
sI7
Fnan
sI8
Fnan
sI9
Fnan
sI10
Fnan
sI11
Fnan
sI12
Fnan
sI13
Fnan
sI14
Fnan
ssg5
(dp457
I0
S'NoError'
p458
sI1
S'NoError'
p459
sI2
S'NoError'
p460
sI3
S'NoError'
p461
sI4
S'NoError'
p462
sI5
S'NoError'
p463
sI6
S'NoError'
p464
sI7
S'NoError'
p465
sI8
S'NoError'
p466
sI9
S'NoError'
p467
sI10
S'NoError'
p468
sI11
S'NoError'
p469
sI12
S'NoError'
p470
sI13
S'NoError'
p471
sI14
S'NoError'
p472
ssg22
(dp473
I0
F0.003
sI1
F0.003
sI2
F0.003
sI3
F0.003
sI4
F0.003
sI5
F0.003
sI6
F0.003
sI7
F0.003
sI8
F0.003
sI9
F0.003
sI10
F0.003
sI11
F0.003
sI12
F0.003
sI13
F0.003
sI14
F0.003
ssg24
(dp474
I0
F0.8861292881465899
sI1
F0.8855370862353701
sI2
F0.8836065752165845
sI3
F0.8831545644962027
sI4
F0.8866035722650658
sI5
F0.8859913414214862
sI6
F0.8826042572031729
sI7
F0.8823927610618485
sI8
F0.8795336689772718
sI9
F0.884794650880888
sI10
F0.8923632007946479
sI11
F0.8821731354817898
sI12
F0.8860316672842512
sI13
F0.8821795710427185
sI14
F0.8850181342662188
ssg26
(dp475
I0
F0.002939766765595161
sI1
Fnan
sI2
Fnan
sI3
Fnan
sI4
Fnan
sI5
Fnan
sI6
Fnan
sI7
Fnan
sI8
Fnan
sI9
Fnan
sI10
Fnan
sI11
Fnan
sI12
Fnan
sI13
Fnan
sI14
Fnan
ssg28
(dp476
I0
F0.8845408983182738
sI1
Fnan
sI2
Fnan
sI3
Fnan
sI4
Fnan
sI5
Fnan
sI6
Fnan
sI7
Fnan
sI8
Fnan
sI9
Fnan
sI10
Fnan
sI11
Fnan
sI12
Fnan
sI13
Fnan
sI14
Fnan
ssg30
(dp477
I0
F11.879
sI1
F11.716
sI2
F11.848
sI3
F11.89
sI4
F12.041
sI5
F12.044
sI6
F12.114
sI7
F11.666
sI8
F11.759
sI9
F11.927
sI10
F12.053
sI11
F11.722
sI12
F11.909
sI13
F11.639
sI14
F12.01
ssg32
(dp478
I0
F2.233986
sI1
F2.80167
sI2
F1.305664
sI3
F1.892497
sI4
F0.6215109
sI5
F2.174602
sI6
F1.712559
sI7
F2.037876
sI8
F3.758482
sI9
F3.351191
sI10
F2.036027
sI11
F2.438594
sI12
F1.9726
sI13
F2.711481
sI14
F1.771175
ssg34
(dp479
I0
F2458423.606261574
sI1
F2458423.6264467593
sI2
F2458423.6039930554
sI3
F2458423.6055092593
sI4
F2458423.5856481483
sI5
F2458423.586400463
sI6
F2458423.5848842594
sI7
F2458423.6249537035
sI8
F2458423.6233449075
sI9
F2458423.607025463
sI10
F2458423.5871527777
sI11
F2458423.624189815
sI12
F2458423.6047453703
sI13
F2458423.6257060184
sI14
F2458423.5879513887
ssg36
(dp480
I0
F0.8575552533333333
sI1
Fnan
sI2
Fnan
sI3
Fnan
sI4
Fnan
sI5
Fnan
sI6
Fnan
sI7
Fnan
sI8
Fnan
sI9
Fnan
sI10
Fnan
sI11
Fnan
sI12
Fnan
sI13
Fnan
sI14
Fnan
ssg38
(dp481
I0
F1.5499085999999997
sI1
Fnan
sI2
Fnan
sI3
Fnan
sI4
Fnan
sI5
Fnan
sI6
Fnan
sI7
Fnan
sI8
Fnan
sI9
Fnan
sI10
Fnan
sI11
Fnan
sI12
Fnan
sI13
Fnan
sI14
Fnan
ssg40
(dp482
I0
F0.6839778144814674
sI1
F0.6896481393845271
sI2
F0.6909718104834455
sI3
F0.6912164094328308
sI4
F0.6914890356083532
sI5
F0.6880730421067603
sI6
F0.6898039773547693
sI7
F0.6952688040675279
sI8
F0.6898099167996584
sI9
F0.687347234798534
sI10
F0.6894157432070034
sI11
F0.6927702109150455
sI12
F0.6887523552263121
sI13
F0.6923550326806801
sI14
F0.6876338731066
ssg42
(dp483
I0
F0.0016702748500707816
sI1
Fnan
sI2
Fnan
sI3
Fnan
sI4
Fnan
sI5
Fnan
sI6
Fnan
sI7
Fnan
sI8
Fnan
sI9
Fnan
sI10
Fnan
sI11
Fnan
sI12
Fnan
sI13
Fnan
sI14
Fnan
ssg44
(dp484
I0
F0.7532324
sI1
Fnan
sI2
Fnan
sI3
Fnan
sI4
Fnan
sI5
Fnan
sI6
Fnan
sI7
Fnan
sI8
Fnan
sI9
Fnan
sI10
Fnan
sI11
Fnan
sI12
Fnan
sI13
Fnan
sI14
Fnan
ssg46
(dp485
I0
g458
sI1
g459
sI2
g460
sI3
g461
sI4
g462
sI5
g463
sI6
g464
sI7
g465
sI8
g466
sI9
g467
sI10
g468
sI11
g469
sI12
g470
sI13
g471
sI14
g472
ssg48
(dp486
I0
F0.002511927690960083
sI1
Fnan
sI2
Fnan
sI3
Fnan
sI4
Fnan
sI5
Fnan
sI6
Fnan
sI7
Fnan
sI8
Fnan
sI9
Fnan
sI10
Fnan
sI11
Fnan
sI12
Fnan
sI13
Fnan
sI14
Fnan
ssg50
(dp487
I0
F0.15003079049061255
sI1
Fnan
sI2
Fnan
sI3
Fnan
sI4
Fnan
sI5
Fnan
sI6
Fnan
sI7
Fnan
sI8
Fnan
sI9
Fnan
sI10
Fnan
sI11
Fnan
sI12
Fnan
sI13
Fnan
sI14
Fnan
ssg52
(dp488
I0
F1.926071766666667
sI1
Fnan
sI2
Fnan
sI3
Fnan
sI4
Fnan
sI5
Fnan
sI6
Fnan
sI7
Fnan
sI8
Fnan
sI9
Fnan
sI10
Fnan
sI11
Fnan
sI12
Fnan
sI13
Fnan
sI14
Fnan
ssg54
(dp489
I0
F1.512317824531973
sI1
F1.5152988037436705
sI2
F1.5086802184001797
sI3
F1.507765179647142
sI4
F1.5032081605610317
sI5
F1.5077686465411435
sI6
F1.5100912829546336
sI7
F1.5128093285643665
sI8
F1.512082195653952
sI9
F1.5046519002159937
sI10
F1.5003793742058065
sI11
F1.505905156586057
sI12
F1.5002469912259306
sI13
F1.5103464103739803
sI14
F1.5106051796770605
ssg56
(dp490
I0
g458
sI1
g459
sI2
g460
sI3
g461
sI4
g462
sI5
g463
sI6
g464
sI7
g465
sI8
g466
sI9
g467
sI10
g468
sI11
g469
sI12
g470
sI13
g471
sI14
g472
ssg58
(dp491
I0
F1.901867
sI1
F3.549348
sI2
F2.134979
sI3
F1.729377
sI4
F1.742946
sI5
F0.8397586
sI6
F2.07363
sI7
F3.01923
sI8
F4.348243
sI9
F3.505416
sI10
F1.947289
sI11
F2.71083
sI12
F1.441389
sI13
F2.794374
sI14
F1.890278
ssg60
(dp492
I0
F11.201933333333333
sI1
Fnan
sI2
Fnan
sI3
Fnan
sI4
Fnan
sI5
Fnan
sI6
Fnan
sI7
Fnan
sI8
Fnan
sI9
Fnan
sI10
Fnan
sI11
Fnan
sI12
Fnan
sI13
Fnan
sI14
Fnan
ssg62
(dp493
I0
F0.7153822187175075
sI1
Fnan
sI2
Fnan
sI3
Fnan
sI4
Fnan
sI5
Fnan
sI6
Fnan
sI7
Fnan
sI8
Fnan
sI9
Fnan
sI10
Fnan
sI11
Fnan
sI12
Fnan
sI13
Fnan
sI14
Fnan
ssg64
(dp494
I0
F3.045005
sI1
F-2.561998
sI2
F3.133707
sI3
F4.088006
sI4
F4.176331
sI5
F2.776551
sI6
F-2.385022
sI7
F1.741288
sI8
F3.801203
sI9
F1.770468
sI10
F3.662456
sI11
F3.053313
sI12
F2.385747
sI13
F-2.970143
sI14
F-2.468283
ssg66
(dp495
I0
F11.568666666666667
sI1
Fnan
sI2
Fnan
sI3
Fnan
sI4
Fnan
sI5
Fnan
sI6
Fnan
sI7
Fnan
sI8
Fnan
sI9
Fnan
sI10
Fnan
sI11
Fnan
sI12
Fnan
sI13
Fnan
sI14
Fnan
ssg68
(dp496
I0
g458
sI1
g459
sI2
g460
sI3
g461
sI4
g462
sI5
g463
sI6
g464
sI7
g465
sI8
g466
sI9
g467
sI10
g468
sI11
g469
sI12
g470
sI13
g471
sI14
g472
ssg70
(dp497
I0
F5991.276666666667
sI1
F6906.41
sI2
F6089.8533333333335
sI3
F5859.3566666666675
sI4
F5110.25
sI5
F5115.240000000001
sI6
F4771.0599999999995
sI7
F7149.73
sI8
F6601.753333333333
sI9
F5700.67
sI10
F5090.783333333334
sI11
F6818.736666666667
sI12
F5786.513333333333
sI13
F7365.733333333334
sI14
F5278.926666666666
ssg72
(dp498
I0
F1.050354
sI1
F1.086093
sI2
F1.047028
sI3
F1.04924
sI4
F1.025042
sI5
F1.025779
sI6
F1.024318
sI7
F1.083038
sI8
F1.0798510000000001
sI9
F1.051483
sI10
F1.02653
sI11
F1.081537
sI12
F1.048108
sI13
F1.084555
sI14
F1.027342
ssg74
(dp499
I0
F5120.263333333333
sI1
F5897.423333333334
sI2
F5238.586666666667
sI3
F5047.0233333333335
sI4
F4388.443333333333
sI5
F4384.913333333333
sI6
F4107.56
sI7
F6147.35
sI8
F5706.4400000000005
sI9
F4906.1066666666675
sI10
F4337.0233333333335
sI11
F5889.929999999999
sI12
F4983.1
sI13
F6344.98
sI14
F4524.7733333333335
ssg76
(dp500
I0
F8402.09
sI1
F9700.816666666668
sI2
F8545.496666666666
sI3
F8222.13
sI4
F7139.256666666667
sI5
F7162.016666666666
sI6
F6703.763333333333
sI7
F10057.973333333333
sI8
F9305.5
sI9
F7979.753333333333
sI10
F7072.6433333333325
sI11
F9569.023333333334
sI12
F8078.54
sI13
F10353.963333333335
sI14
F7404.759999999999
ssg78
(dp501
I0
F2.70495
sI1
F2.42256
sI2
F1.596022
sI3
F2.19104
sI4
F0.9709388
sI5
F1.197066
sI6
F2.013264
sI7
F2.318027
sI8
F3.710286
sI9
F2.62704
sI10
F1.467944
sI11
F2.225109
sI12
F0.6634954
sI13
F2.210963
sI14
F1.634734
ssg80
(dp502
I0
F11.727
sI1
F11.573
sI2
F11.702
sI3
F11.742
sI4
F11.894
sI5
F11.895
sI6
F11.966
sI7
F11.528
sI8
F11.609
sI9
F11.773
sI10
F11.907
sI11
F11.575
sI12
F11.756
sI13
F11.494
sI14
F11.861
ssg82
(dp503
I0
F0.002
sI1
F0.002
sI2
F0.002
sI3
F0.002
sI4
F0.002
sI5
F0.002
sI6
F0.002
sI7
F0.002
sI8
F0.002
sI9
F0.002
sI10
F0.002
sI11
F0.002
sI12
F0.002
sI13
F0.002
sI14
F0.002
ssg84
(dp504
I0
F0.6899022266435677
sI1
Fnan
sI2
Fnan
sI3
Fnan
sI4
Fnan
sI5
Fnan
sI6
Fnan
sI7
Fnan
sI8
Fnan
sI9
Fnan
sI10
Fnan
sI11
Fnan
sI12
Fnan
sI13
Fnan
sI14
Fnan
ssg86
(dp505
I0
F11.733466666666665
sI1
Fnan
sI2
Fnan
sI3
Fnan
sI4
Fnan
sI5
Fnan
sI6
Fnan
sI7
Fnan
sI8
Fnan
sI9
Fnan
sI10
Fnan
sI11
Fnan
sI12
Fnan
sI13
Fnan
sI14
Fnan
ssg88
(dp506
I0
F11.556
sI1
F11.402
sI2
F11.538
sI3
F11.58
sI4
F11.729
sI5
F11.728
sI6
F11.803
sI7
F11.364
sI8
F11.451
sI9
F11.61
sI10
F11.733
sI11
F11.416
sI12
F11.594
sI13
F11.332
sI14
F11.694
ssg90
(dp507
I0
F0.9842798
sI1
F3.729685
sI2
F-2.128651
sI3
F-2.576624
sI4
F-1.209288
sI5
F2.121758
sI6
F4.35317
sI7
F-1.907306
sI8
F3.027416
sI9
F2.930967
sI10
F2.748687
sI11
F2.71829
sI12
F-2.844304
sI13
F-2.864581
sI14
F3.77983
ssg92
(dp508
I0
F0.15224250704839615
sI1
Fnan
sI2
Fnan
sI3
Fnan
sI4
Fnan
sI5
Fnan
sI6
Fnan
sI7
Fnan
sI8
Fnan
sI9
Fnan
sI10
Fnan
sI11
Fnan
sI12
Fnan
sI13
Fnan
sI14
Fnan
ssg94
(dp509
I0
F0.7114754250221745
sI1
F0.7102237419533023
sI2
F0.7158812965411374
sI3
F0.7168310353594294
sI4
F0.7165093995622135
sI5
F0.7143148428652762
sI6
F0.7159256191889084
sI7
F0.7144881430041702
sI8
F0.7174638990682658
sI9
F0.7172448610873886
sI10
F0.7131252486963652
sI11
F0.7188206319838707
sI12
F0.7187999757664113
sI13
F0.7161499566678058
sI14
F0.713479203995894
ssg96
(dp510
I0
F30.0
sI1
F30.0
sI2
F30.0
sI3
F30.0
sI4
F30.0
sI5
F30.0
sI6
F30.0
sI7
F30.0
sI8
F30.0
sI9
F30.0
sI10
F30.0
sI11
F30.0
sI12
F30.0
sI13
F30.0
sI14
F30.0
ssg98
(dp511
I0
F0.003
sI1
F0.002
sI2
F0.003
sI3
F0.003
sI4
F0.003
sI5
F0.003
sI6
F0.003
sI7
F0.002
sI8
F0.003
sI9
F0.003
sI10
F0.003
sI11
F0.002
sI12
F0.003
sI13
F0.002
sI14
F0.003
ssg100
(dp512
I0
F0.002
sI1
F0.002
sI2
F0.002
sI3
F0.003
sI4
F0.003
sI5
F0.003
sI6
F0.003
sI7
F0.002
sI8
F0.002
sI9
F0.003
sI10
F0.003
sI11
F0.002
sI12
F0.003
sI13
F0.002
sI14
F0.003
ssg102
(dp513
I0
F0.9144355
sI1
F2.064819
sI2
F-2.051539
sI3
F3.655924
sI4
F-2.213596
sI5
F2.907546
sI6
F3.389002
sI7
F2.862
sI8
F-1.931877
sI9
F3.20031
sI10
F4.074952
sI11
F3.045554
sI12
F2.517804
sI13
F2.499869
sI14
F3.955873
ssg104
(dp514
I0
S'KIC8462852-20181101at023301_-25-1X1-030-V_cal.fts.mag.1'
p515
sI1
S'KIC8462852-20181101at030205_-25-1X1-030-V_cal.fts.mag.1'
p516
sI2
S'KIC8462852-20181101at022938_-25-1X1-030-V_cal.fts.mag.1'
p517
sI3
S'KIC8462852-20181101at023156_-25-1X1-030-V_cal.fts.mag.1'
p518
sI4
S'KIC8462852-20181101at020320_-25-1X1-030-V_cal.fts.mag.1'
p519
sI5
S'KIC8462852-20181101at020425_-25-1X1-030-V_cal.fts.mag.1'
p520
sI6
S'KIC8462852-20181101at020207_-25-1X1-030-V_cal.fts.mag.1'
p521
sI7
S'KIC8462852-20181101at025956_-25-1X1-030-V_cal.fts.mag.1'
p522
sI8
S'KIC8462852-20181101at025730_-25-1X1-030-V_cal.fts.mag.1'
p523
sI9
S'KIC8462852-20181101at023407_-25-1X1-030-V_cal.fts.mag.1'
p524
sI10
S'KIC8462852-20181101at020530_-25-1X1-030-V_cal.fts.mag.1'
p525
sI11
S'KIC8462852-20181101at025850_-25-1X1-030-V_cal.fts.mag.1'
p526
sI12
S'KIC8462852-20181101at023050_-25-1X1-030-V_cal.fts.mag.1'
p527
sI13
S'KIC8462852-20181101at030100_-25-1X1-030-V_cal.fts.mag.1'
p528
sI14
S'KIC8462852-20181101at020639_-25-1X1-030-V_cal.fts.mag.1'
p529
ssg121
(dp530
I0
F0.00451489921361279
sI1
Fnan
sI2
Fnan
sI3
Fnan
sI4
Fnan
sI5
Fnan
sI6
Fnan
sI7
Fnan
sI8
Fnan
sI9
Fnan
sI10
Fnan
sI11
Fnan
sI12
Fnan
sI13
Fnan
sI14
Fnan
ssg123
(dp531
I0
F4448.963333333333
sI1
F5173.429999999999
sI2
F4577.443333333333
sI3
F4407.3133333333335
sI4
F3834.9866666666667
sI5
F3821.5966666666664
sI6
F3582.93
sI7
F5412.679999999999
sI8
F4969.78
sI9
F4258.466666666666
sI10
F3791.89
sI11
F5144.4400000000005
sI12
F4327.236666666667
sI13
F5553.766666666666
sI14
F3944.3733333333334
ssg125
(dp532
I0
F0.1515170271745374
sI1
Fnan
sI2
Fnan
sI3
Fnan
sI4
Fnan
sI5
Fnan
sI6
Fnan
sI7
Fnan
sI8
Fnan
sI9
Fnan
sI10
Fnan
sI11
Fnan
sI12
Fnan
sI13
Fnan
sI14
Fnan
ssg127
(dp533
I0
g454
sI1
g454
sI2
g454
sI3
g454
sI4
g454
sI5
g454
sI6
g454
sI7
g454
sI8
g454
sI9
g454
sI10
g454
sI11
g454
sI12
g454
sI13
g454
sI14
g454
ssg144
(dp534
I0
F0.0026751553303080255
sI1
Fnan
sI2
Fnan
sI3
Fnan
sI4
Fnan
sI5
Fnan
sI6
Fnan
sI7
Fnan
sI8
Fnan
sI9
Fnan
sI10
Fnan
sI11
Fnan
sI12
Fnan
sI13
Fnan
sI14
Fnan
ssg146
(dp535
I0
F2.717229
sI1
F1.708618
sI2
F2.077723
sI3
F2.71264
sI4
F3.317415
sI5
F-3.2008
sI6
F2.085065
sI7
F2.696074
sI8
F3.191198
sI9
F-3.573494
sI10
F2.472559
sI11
F3.427881
sI12
F-1.690471
sI13
F-3.599861
sI14
F-3.04329
ssg148
(dp536
I0
F1.5081437768588615
sI1
Fnan
sI2
Fnan
sI3
Fnan
sI4
Fnan
sI5
Fnan
sI6
Fnan
sI7
Fnan
sI8
Fnan
sI9
Fnan
sI10
Fnan
sI11
Fnan
sI12
Fnan
sI13
Fnan
sI14
Fnan
ssg150
(dp537
I0
F2458423.6055092593
sI1
Fnan
sI2
Fnan
sI3
Fnan
sI4
Fnan
sI5
Fnan
sI6
Fnan
sI7
Fnan
sI8
Fnan
sI9
Fnan
sI10
Fnan
sI11
Fnan
sI12
Fnan
sI13
Fnan
sI14
Fnan
ssg152
(dp538
I0
F0.0026751553303080255
sI1
Fnan
sI2
Fnan
sI3
Fnan
sI4
Fnan
sI5
Fnan
sI6
Fnan
sI7
Fnan
sI8
Fnan
sI9
Fnan
sI10
Fnan
sI11
Fnan
sI12
Fnan
sI13
Fnan
sI14
Fnan
ssg154
(dp539
I0
F2.914702
sI1
F3.568909
sI2
F2.935803
sI3
F2.823946
sI4
F1.927783
sI5
F1.965485
sI6
F2.829698
sI7
F3.718248
sI8
F5.565644
sI9
F4.47376
sI10
F3.30966
sI11
F4.457139
sI12
F3.358048
sI13
F2.741572
sI14
F1.970785
ssg156
(dp540
I0
F11.189
sI1
F11.033
sI2
F11.171
sI3
F11.213
sI4
F11.366
sI5
F11.362
sI6
F11.434
sI7
F10.994
sI8
F11.078
sI9
F11.245
sI10
F11.376
sI11
F11.048
sI12
F11.232
sI13
F10.962
sI14
F11.326
ssg158
(dp541
I0
F0.6899022266435677
sI1
Fnan
sI2
Fnan
sI3
Fnan
sI4
Fnan
sI5
Fnan
sI6
Fnan
sI7
Fnan
sI8
Fnan
sI9
Fnan
sI10
Fnan
sI11
Fnan
sI12
Fnan
sI13
Fnan
sI14
Fnan
sss.