(dp0
S'i'
p1
(dp2
S'sigmean'
p3
(dp4
I0
F0.43727666888096206
sI1
Fnan
sI2
Fnan
sI3
Fnan
sI4
Fnan
sI5
Fnan
sI6
Fnan
sI7
Fnan
sI8
Fnan
sI9
Fnan
sI10
Fnan
sI11
Fnan
sI12
Fnan
sI13
Fnan
sI14
Fnan
ssS'ref3flag'
p5
(dp6
I0
S'NoError'
p7
sI1
S'NoError'
p8
sI2
S'NoError'
p9
sI3
S'NoError'
p10
sI4
S'NoError'
p11
sI5
S'NoError'
p12
sI6
S'NoError'
p13
sI7
S'NoError'
p14
sI8
S'NoError'
p15
sI9
S'NoError'
p16
sI10
S'NoError'
p17
sI11
S'NoError'
p18
sI12
S'NoError'
p19
sI13
S'NoError'
p20
sI14
S'NoError'
p21
ssS'tabbyerr'
p22
(dp23
I0
F0.003
sI1
F0.003
sI2
F0.003
sI3
F0.003
sI4
F0.003
sI5
F0.003
sI6
F0.003
sI7
F0.003
sI8
F0.003
sI9
F0.003
sI10
F0.003
sI11
F0.003
sI12
F0.003
sI13
F0.003
sI14
F0.003
ssS'ref2rel'
p24
(dp25
I0
F0.9095531983786715
sI1
F0.9140694079923077
sI2
F0.9120270738359769
sI3
F0.9151645044084437
sI4
F0.9184063594083245
sI5
F0.9143942171639712
sI6
F0.9095862595920009
sI7
F0.9146963688951364
sI8
F0.9067280998851328
sI9
F0.9114996926103939
sI10
F0.9124549425681947
sI11
F0.907274241236214
sI12
F0.9115660649062816
sI13
F0.9090038627653849
sI14
F0.9072197427146234
ssS'ref2err'
p26
(dp27
I0
F0.0033812525133329508
sI1
Fnan
sI2
Fnan
sI3
Fnan
sI4
Fnan
sI5
Fnan
sI6
Fnan
sI7
Fnan
sI8
Fnan
sI9
Fnan
sI10
Fnan
sI11
Fnan
sI12
Fnan
sI13
Fnan
sI14
Fnan
ssS'ref2mean'
p28
(dp29
I0
F0.9115762690907372
sI1
Fnan
sI2
Fnan
sI3
Fnan
sI4
Fnan
sI5
Fnan
sI6
Fnan
sI7
Fnan
sI8
Fnan
sI9
Fnan
sI10
Fnan
sI11
Fnan
sI12
Fnan
sI13
Fnan
sI14
Fnan
ssS'tabbymag'
p30
(dp31
I0
F11.899
sI1
F11.997
sI2
F11.91
sI3
F11.917
sI4
F11.924
sI5
F11.991
sI6
F11.922
sI7
F11.896
sI8
F11.91
sI9
F11.929
sI10
F11.989
sI11
F11.896
sI12
F11.897
sI13
F11.904
sI14
F11.888
ssS'tabbybkg'
p32
(dp33
I0
F10.32277
sI1
F11.76718
sI2
F9.268936
sI3
F10.01188
sI4
F10.3058
sI5
F12.69966
sI6
F10.75488
sI7
F10.09866
sI8
F10.90419
sI9
F11.01804
sI10
F11.22507
sI11
F9.649477
sI12
F9.016899
sI13
F9.068189
sI14
F9.868816
ssS'JD'
p34
(dp35
I0
F2458404.7408449072
sI1
F2458404.7423032406
sI2
F2458404.740104167
sI3
F2458404.7235069443
sI4
F2458404.739363426
sI5
F2458404.703310185
sI6
F2458404.7018287037
sI7
F2458404.741574074
sI8
F2458404.704050926
sI9
F2458404.7025694447
sI10
F2458404.722766204
sI11
F2458404.7047916665
sI12
F2458404.7205671296
sI13
F2458404.722037037
sI14
F2458404.7213078705
ssS'ref3rmsmean'
p36
(dp37
I0
F3.8111121333333338
sI1
Fnan
sI2
Fnan
sI3
Fnan
sI4
Fnan
sI5
Fnan
sI6
Fnan
sI7
Fnan
sI8
Fnan
sI9
Fnan
sI10
Fnan
sI11
Fnan
sI12
Fnan
sI13
Fnan
sI14
Fnan
ssS'ref1rmsmean'
p38
(dp39
I0
F2.1449662
sI1
Fnan
sI2
Fnan
sI3
Fnan
sI4
Fnan
sI5
Fnan
sI6
Fnan
sI7
Fnan
sI8
Fnan
sI9
Fnan
sI10
Fnan
sI11
Fnan
sI12
Fnan
sI13
Fnan
sI14
Fnan
ssS'relflux'
p40
(dp41
I0
F0.4395647309082888
sI1
F0.4334812546084697
sI2
F0.43822202185870457
sI3
F0.43586479408440865
sI4
F0.4353977026030045
sI5
F0.4342333140743081
sI6
F0.4380170722114922
sI7
F0.43710738616846156
sI8
F0.43988518863585757
sI9
F0.43649848717512596
sI10
F0.4355345268960553
sI11
F0.4392950707960431
sI12
F0.4375526168969978
sI13
F0.43599674611172495
sI14
F0.4387037059129971
ssS'sigerr'
p42
(dp43
I0
F0.0016852600133210017
sI1
Fnan
sI2
Fnan
sI3
Fnan
sI4
Fnan
sI5
Fnan
sI6
Fnan
sI7
Fnan
sI8
Fnan
sI9
Fnan
sI10
Fnan
sI11
Fnan
sI12
Fnan
sI13
Fnan
sI14
Fnan
ssS'tabbyrmsmean'
p44
(dp45
I0
F1.9285498666666667
sI1
Fnan
sI2
Fnan
sI3
Fnan
sI4
Fnan
sI5
Fnan
sI6
Fnan
sI7
Fnan
sI8
Fnan
sI9
Fnan
sI10
Fnan
sI11
Fnan
sI12
Fnan
sI13
Fnan
sI14
Fnan
ssS'tabbyflag'
p46
(dp47
I0
g7
sI1
g8
sI2
g9
sI3
g10
sI4
g11
sI5
g12
sI6
g13
sI7
g14
sI8
g15
sI9
g16
sI10
g17
sI11
g18
sI12
g19
sI13
g20
sI14
g21
ssS'ref1err'
p48
(dp49
I0
F0.003027531206305944
sI1
Fnan
sI2
Fnan
sI3
Fnan
sI4
Fnan
sI5
Fnan
sI6
Fnan
sI7
Fnan
sI8
Fnan
sI9
Fnan
sI10
Fnan
sI11
Fnan
sI12
Fnan
sI13
Fnan
sI14
Fnan
ssS'ref2magmeanerr'
p50
(dp51
I0
F0.03226822113532279
sI1
Fnan
sI2
Fnan
sI3
Fnan
sI4
Fnan
sI5
Fnan
sI6
Fnan
sI7
Fnan
sI8
Fnan
sI9
Fnan
sI10
Fnan
sI11
Fnan
sI12
Fnan
sI13
Fnan
sI14
Fnan
ssS'ref2rmsmean'
p52
(dp53
I0
F1.6644751333333334
sI1
Fnan
sI2
Fnan
sI3
Fnan
sI4
Fnan
sI5
Fnan
sI6
Fnan
sI7
Fnan
sI8
Fnan
sI9
Fnan
sI10
Fnan
sI11
Fnan
sI12
Fnan
sI13
Fnan
sI14
Fnan
ssS'ref3rel'
p54
(dp55
I0
F1.5105509429107242
sI1
F1.494200842218998
sI2
F1.4934529731166277
sI3
F1.5009349449204286
sI4
F1.490404737909005
sI5
F1.506557265095621
sI6
F1.5045681774881041
sI7
F1.5034986536617427
sI8
F1.5038219790215688
sI9
F1.510817347646192
sI10
F1.5016231660413786
sI11
F1.5097334669471878
sI12
F1.5038147748299013
sI13
F1.5101178808234434
sI14
F1.5041681504993418
ssS'ref1flag'
p56
(dp57
I0
g7
sI1
g8
sI2
g9
sI3
g10
sI4
g11
sI5
g12
sI6
g13
sI7
g14
sI8
g15
sI9
g16
sI10
g17
sI11
g18
sI12
g19
sI13
g20
sI14
g21
ssS'ref2bkg'
p58
(dp59
I0
F13.32997
sI1
F14.59606
sI2
F11.67619
sI3
F11.98184
sI4
F12.48472
sI5
F16.54405
sI6
F14.37152
sI7
F12.26034
sI8
F14.48106
sI9
F14.07178
sI10
F14.56784
sI11
F14.7224
sI12
F10.38111
sI13
F12.00542
sI14
F10.55016
ssS'ref3magmean'
p60
(dp61
I0
F10.7516
sI1
Fnan
sI2
Fnan
sI3
Fnan
sI4
Fnan
sI5
Fnan
sI6
Fnan
sI7
Fnan
sI8
Fnan
sI9
Fnan
sI10
Fnan
sI11
Fnan
sI12
Fnan
sI13
Fnan
sI14
Fnan
ssS'ref1mean'
p62
(dp63
I0
F0.6947653465965544
sI1
Fnan
sI2
Fnan
sI3
Fnan
sI4
Fnan
sI5
Fnan
sI6
Fnan
sI7
Fnan
sI8
Fnan
sI9
Fnan
sI10
Fnan
sI11
Fnan
sI12
Fnan
sI13
Fnan
sI14
Fnan
ssS'ref1rms'
p64
(dp65
I0
F3.039773
sI1
F4.73616
sI2
F5.185264
sI3
F3.477635
sI4
F2.802659
sI5
F-2.65114
sI6
F4.235242
sI7
F3.645384
sI8
F2.512813
sI9
F-3.906848
sI10
F4.581501
sI11
F-1.593722
sI12
F-2.848273
sI13
F4.343744
sI14
F4.614301
ssS'ref2magmean'
p66
(dp67
I0
F11.09366666666667
sI1
Fnan
sI2
Fnan
sI3
Fnan
sI4
Fnan
sI5
Fnan
sI6
Fnan
sI7
Fnan
sI8
Fnan
sI9
Fnan
sI10
Fnan
sI11
Fnan
sI12
Fnan
sI13
Fnan
sI14
Fnan
ssS'ref2flag'
p68
(dp69
I0
g7
sI1
g8
sI2
g9
sI3
g10
sI4
g11
sI5
g12
sI6
g13
sI7
g14
sI8
g15
sI9
g16
sI10
g17
sI11
g18
sI12
g19
sI13
g20
sI14
g21
ssS'ref2'
p70
(dp71
I0
F9325.94
sI1
F8669.753333333334
sI2
F9276.856666666667
sI3
F9283.756666666666
sI4
F9260.4
sI5
F8699.456666666667
sI6
F9162.32
sI7
F9434.25
sI8
F9204.07
sI9
F9147.923333333334
sI10
F8682.586666666666
sI11
F9337.730000000001
sI12
F9393.980000000001
sI13
F9351.016666666666
sI14
F9416.51
ssS'airmass'
p72
(dp73
I0
F1.286127
sI1
F1.292869
sI2
F1.282767
sI3
F1.214353
sI4
F1.2794299999999998
sI5
F1.147805
sI6
F1.143571
sI7
F1.289488
sI8
F1.149961
sI9
F1.1456819999999999
sI10
F1.21164
sI11
F1.152117
sI12
F1.203629
sI13
F1.208956
sI14
F1.2062680000000001
ssS'ref1'
p74
(dp75
I0
F7670.013333333333
sI1
F7150.36
sI2
F7680.713333333333
sI3
F7610.286666666667
sI4
F7601.046666666666
sI5
F7115.0633333333335
sI6
F7563.533333333334
sI7
F7727.113333333333
sI8
F7637.990000000001
sI9
F7497.87
sI10
F7146.5599999999995
sI11
F7713.0633333333335
sI12
F7732.85
sI13
F7699.820000000001
sI14
F7806.156666666667
ssS'ref3'
p76
(dp77
I0
F12836.626666666667
sI1
F11819.213333333335
sI2
F12662.666666666666
sI3
F12678.43
sI4
F12565.19
sI5
F11912.74
sI6
F12582.593333333332
sI7
F12901.043333333333
sI8
F12663.730000000001
sI9
F12574.376666666667
sI10
F11884.706666666667
sI11
F12871.076666666666
sI12
F12877.79
sI13
F12874.386666666665
sI14
F12952.893333333333
ssS'ref1bkg'
p78
(dp79
I0
F11.84281
sI1
F14.78167
sI2
F11.0281
sI3
F11.64549
sI4
F12.19331
sI5
F16.19431
sI6
F13.29868
sI7
F11.29465
sI8
F12.53043
sI9
F14.44812
sI10
F13.98093
sI11
F12.43576
sI12
F10.68583
sI13
F10.32285
sI14
F10.32457
ssS'ref1mag'
p80
(dp81
I0
F11.288
sI1
F11.364
sI2
F11.286
sI3
F11.296
sI4
F11.298
sI5
F11.37
sI6
F11.303
sI7
F11.28
sI8
F11.293
sI9
F11.313
sI10
F11.365
sI11
F11.282
sI12
F11.279
sI13
F11.284
sI14
F11.269
ssS'ref3magerr'
p82
(dp83
I0
F0.002
sI1
F0.002
sI2
F0.002
sI3
F0.002
sI4
F0.002
sI5
F0.002
sI6
F0.002
sI7
F0.002
sI8
F0.002
sI9
F0.002
sI10
F0.002
sI11
F0.002
sI12
F0.002
sI13
F0.002
sI14
F0.002
ssS'tabbymagmean'
p84
(dp85
I0
F0.43702364126279597
sI1
Fnan
sI2
Fnan
sI3
Fnan
sI4
Fnan
sI5
Fnan
sI6
Fnan
sI7
Fnan
sI8
Fnan
sI9
Fnan
sI10
Fnan
sI11
Fnan
sI12
Fnan
sI13
Fnan
sI14
Fnan
ssS'ref1magmean'
p86
(dp87
I0
F11.304666666666666
sI1
Fnan
sI2
Fnan
sI3
Fnan
sI4
Fnan
sI5
Fnan
sI6
Fnan
sI7
Fnan
sI8
Fnan
sI9
Fnan
sI10
Fnan
sI11
Fnan
sI12
Fnan
sI13
Fnan
sI14
Fnan
ssS'ref2mag'
p88
(dp89
I0
F11.076
sI1
F11.155
sI2
F11.081
sI3
F11.081
sI4
F11.083
sI5
F11.151
sI6
F11.095
sI7
F11.063
sI8
F11.09
sI9
F11.097
sI10
F11.153
sI11
F11.074
sI12
F11.068
sI13
F11.073
sI14
F11.065
ssS'ref3rms'
p90
(dp91
I0
F4.82244
sI1
F6.35991
sI2
F4.290667
sI3
F3.976338
sI4
F4.492829
sI5
F-2.663188
sI6
F3.858494
sI7
F4.141252
sI8
F1.012775
sI9
F5.045035
sI10
F5.097231
sI11
F4.448784
sI12
F4.129788
sI13
F3.649302
sI14
F4.505025
ssS'ref3magmeanerr'
p92
(dp93
I0
F0.03416514514614503
sI1
Fnan
sI2
Fnan
sI3
Fnan
sI4
Fnan
sI5
Fnan
sI6
Fnan
sI7
Fnan
sI8
Fnan
sI9
Fnan
sI10
Fnan
sI11
Fnan
sI12
Fnan
sI13
Fnan
sI14
Fnan
ssS'ref1rel'
p94
(dp95
I0
F0.6921593016452667
sI1
F0.6979717539033202
sI2
F0.7001713953979858
sI3
F0.6930354233093972
sI4
F0.6965261114743442
sI5
F0.6903740972780033
sI6
F0.6956600118280537
sI7
F0.6919195748194038
sI8
F0.6985604404649759
sI9
F0.6903385000667516
sI10
F0.6949441410861386
sI11
F0.6945950270178106
sI12
F0.6944082127284898
sI13
F0.6928846135675679
sI14
F0.6979315943608091
ssS'exposure'
p96
(dp97
I0
F30.0
sI1
F30.0
sI2
F30.0
sI3
F30.0
sI4
F30.0
sI5
F30.0
sI6
F30.0
sI7
F30.0
sI8
F30.0
sI9
F30.0
sI10
F30.0
sI11
F30.0
sI12
F30.0
sI13
F30.0
sI14
F30.0
ssS'ref1magerr'
p98
(dp99
I0
F0.002
sI1
F0.002
sI2
F0.002
sI3
F0.002
sI4
F0.002
sI5
F0.002
sI6
F0.002
sI7
F0.002
sI8
F0.002
sI9
F0.002
sI10
F0.002
sI11
F0.002
sI12
F0.002
sI13
F0.002
sI14
F0.002
ssS'ref2magerr'
p100
(dp101
I0
F0.002
sI1
F0.002
sI2
F0.002
sI3
F0.002
sI4
F0.002
sI5
F0.002
sI6
F0.002
sI7
F0.002
sI8
F0.002
sI9
F0.002
sI10
F0.002
sI11
F0.002
sI12
F0.002
sI13
F0.002
sI14
F0.002
ssS'ref2rms'
p102
(dp103
I0
F-4.501935
sI1
F3.508497
sI2
F4.064552
sI3
F-2.948548
sI4
F4.735522
sI5
F4.116435
sI6
F-3.331684
sI7
F3.827604
sI8
F-1.176871
sI9
F3.558763
sI10
F4.614332
sI11
F-1.086458
sI12
F4.29862
sI13
F1.325402
sI14
F3.962896
ssS'name'
p104
(dp105
I0
S"KIC8462852-20181013at054649_-25-1X1-030-i'_cal.fts.mag.1"
p106
sI1
S"KIC8462852-20181013at054855_-25-1X1-030-i'_cal.fts.mag.1"
p107
sI2
S"KIC8462852-20181013at054545_-25-1X1-030-i'_cal.fts.mag.1"
p108
sI3
S"KIC8462852-20181013at052151_-25-1X1-030-i'_cal.fts.mag.1"
p109
sI4
S"KIC8462852-20181013at054440_-25-1X1-030-i'_cal.fts.mag.1"
p110
sI5
S"KIC8462852-20181013at045246_-25-1X1-030-i'_cal.fts.mag.1"
p111
sI6
S"KIC8462852-20181013at045037_-25-1X1-030-i'_cal.fts.mag.1"
p112
sI7
S"KIC8462852-20181013at054752_-25-1X1-030-i'_cal.fts.mag.1"
p113
sI8
S"KIC8462852-20181013at045350_-25-1X1-030-i'_cal.fts.mag.1"
p114
sI9
S"KIC8462852-20181013at045142_-25-1X1-030-i'_cal.fts.mag.1"
p115
sI10
S"KIC8462852-20181013at052047_-25-1X1-030-i'_cal.fts.mag.1"
p116
sI11
S"KIC8462852-20181013at045454_-25-1X1-030-i'_cal.fts.mag.1"
p117
sI12
S"KIC8462852-20181013at051736_-25-1X1-030-i'_cal.fts.mag.1"
p118
sI13
S"KIC8462852-20181013at051944_-25-1X1-030-i'_cal.fts.mag.1"
p119
sI14
S"KIC8462852-20181013at051841_-25-1X1-030-i'_cal.fts.mag.1"
p120
ssS'ref3err'
p121
(dp122
I0
F0.006351930862259938
sI1
Fnan
sI2
Fnan
sI3
Fnan
sI4
Fnan
sI5
Fnan
sI6
Fnan
sI7
Fnan
sI8
Fnan
sI9
Fnan
sI10
Fnan
sI11
Fnan
sI12
Fnan
sI13
Fnan
sI14
Fnan
ssS'tabby'
p123
(dp124
I0
F4371.116666666667
sI1
F3993.71
sI2
F4326.746666666667
sI3
F4296.533333333334
sI4
F4270.763333333333
sI5
F4013.366666666667
sI6
F4279.2
sI7
F4380.166666666667
sI8
F4326.386666666667
sI9
F4251.52
sI10
F4023.4466666666663
sI11
F4381.509999999999
sI12
F4376.2
sI13
F4349.1
sI14
F4412.71
ssS'ref1magmeanerr'
p125
(dp126
I0
F0.0336614800342356
sI1
Fnan
sI2
Fnan
sI3
Fnan
sI4
Fnan
sI5
Fnan
sI6
Fnan
sI7
Fnan
sI8
Fnan
sI9
Fnan
sI10
Fnan
sI11
Fnan
sI12
Fnan
sI13
Fnan
sI14
Fnan
ssS'filter'
p127
(dp128
I0
S"i'"
p129
sI1
S"i'"
p130
sI2
S"i'"
p131
sI3
S"i'"
p132
sI4
S"i'"
p133
sI5
S"i'"
p134
sI6
S"i'"
p135
sI7
S"i'"
p136
sI8
S"i'"
p137
sI9
S"i'"
p138
sI10
S"i'"
p139
sI11
S"i'"
p140
sI12
S"i'"
p141
sI13
S"i'"
p142
sI14
S"i'"
p143
ssS'tabbymagerr'
p144
(dp145
I0
F0.0019494732482958905
sI1
Fnan
sI2
Fnan
sI3
Fnan
sI4
Fnan
sI5
Fnan
sI6
Fnan
sI7
Fnan
sI8
Fnan
sI9
Fnan
sI10
Fnan
sI11
Fnan
sI12
Fnan
sI13
Fnan
sI14
Fnan
ssS'tabbyrms'
p146
(dp147
I0
F3.175218
sI1
F3.750238
sI2
F3.948397
sI3
F-2.11855
sI4
F-1.643235
sI5
F3.610872
sI6
F3.897057
sI7
F3.714768
sI8
F3.219779
sI9
F3.752489
sI10
F-3.108644
sI11
F-1.843128
sI12
F2.502755
sI13
F2.093875
sI14
F3.976357
ssS'ref3mean'
p148
(dp149
I0
F1.5032176868753513
sI1
Fnan
sI2
Fnan
sI3
Fnan
sI4
Fnan
sI5
Fnan
sI6
Fnan
sI7
Fnan
sI8
Fnan
sI9
Fnan
sI10
Fnan
sI11
Fnan
sI12
Fnan
sI13
Fnan
sI14
Fnan
ssS'median_JD'
p150
(dp151
I0
F2458404.722037037
sI1
Fnan
sI2
Fnan
sI3
Fnan
sI4
Fnan
sI5
Fnan
sI6
Fnan
sI7
Fnan
sI8
Fnan
sI9
Fnan
sI10
Fnan
sI11
Fnan
sI12
Fnan
sI13
Fnan
sI14
Fnan
ssS'error'
p152
(dp153
I0
F0.0019494732482958905
sI1
Fnan
sI2
Fnan
sI3
Fnan
sI4
Fnan
sI5
Fnan
sI6
Fnan
sI7
Fnan
sI8
Fnan
sI9
Fnan
sI10
Fnan
sI11
Fnan
sI12
Fnan
sI13
Fnan
sI14
Fnan
ssS'ref3bkg'
p154
(dp155
I0
F14.03813
sI1
F19.02347
sI2
F14.41822
sI3
F14.23213
sI4
F15.39077
sI5
F20.10244
sI6
F16.55207
sI7
F13.48873
sI8
F15.9047
sI9
F16.82693
sI10
F18.38095
sI11
F15.42861
sI12
F12.89661
sI13
F12.36378
sI14
F12.41513
ssS'ref3mag'
p156
(dp157
I0
F10.729
sI1
F10.819
sI2
F10.744
sI3
F10.742
sI4
F10.752
sI5
F10.81
sI6
F10.751
sI7
F10.723
sI8
F10.744
sI9
F10.751
sI10
F10.813
sI11
F10.726
sI12
F10.725
sI13
F10.726
sI14
F10.719
ssS'mean'
p158
(dp159
I0
F0.43702364126279597
sI1
Fnan
sI2
Fnan
sI3
Fnan
sI4
Fnan
sI5
Fnan
sI6
Fnan
sI7
Fnan
sI8
Fnan
sI9
Fnan
sI10
Fnan
sI11
Fnan
sI12
Fnan
sI13
Fnan
sI14
Fnan
sssS'r'
p160
(dp161
g3
(dp162
I0
F0.5481272507347126
sI1
Fnan
sI2
Fnan
sI3
Fnan
sI4
Fnan
sI5
Fnan
sI6
Fnan
sI7
Fnan
sI8
Fnan
sI9
Fnan
sI10
Fnan
sI11
Fnan
sI12
Fnan
sI13
Fnan
sI14
Fnan
ssg5
(dp163
I0
S'NoError'
p164
sI1
S'NoError'
p165
sI2
S'NoError'
p166
sI3
S'NoError'
p167
sI4
S'NoError'
p168
sI5
S'NoError'
p169
sI6
S'NoError'
p170
sI7
S'NoError'
p171
sI8
S'NoError'
p172
sI9
S'NoError'
p173
sI10
S'NoError'
p174
sI11
S'NoError'
p175
sI12
S'NoError'
p176
sI13
S'NoError'
p177
sI14
S'NoError'
p178
ssg22
(dp179
I0
F0.002
sI1
F0.002
sI2
F0.002
sI3
F0.002
sI4
F0.002
sI5
F0.002
sI6
F0.002
sI7
F0.002
sI8
F0.002
sI9
F0.002
sI10
F0.002
sI11
F0.002
sI12
F0.002
sI13
F0.002
sI14
F0.002
ssg24
(dp180
I0
F0.8885220885888212
sI1
F0.8976938108264424
sI2
F0.8974282018820207
sI3
F0.8943804144671065
sI4
F0.8957995047774782
sI5
F0.8935960670733911
sI6
F0.8964962550941317
sI7
F0.8992567238976271
sI8
F0.8992457120776847
sI9
F0.8964771991416813
sI10
F0.8945596926351315
sI11
F0.8987329887951988
sI12
F0.9013554578542511
sI13
F0.8951625099910149
sI14
F0.8948108263791512
ssg26
(dp181
I0
F0.003051934783293281
sI1
Fnan
sI2
Fnan
sI3
Fnan
sI4
Fnan
sI5
Fnan
sI6
Fnan
sI7
Fnan
sI8
Fnan
sI9
Fnan
sI10
Fnan
sI11
Fnan
sI12
Fnan
sI13
Fnan
sI14
Fnan
ssg28
(dp182
I0
F0.8962344968987422
sI1
Fnan
sI2
Fnan
sI3
Fnan
sI4
Fnan
sI5
Fnan
sI6
Fnan
sI7
Fnan
sI8
Fnan
sI9
Fnan
sI10
Fnan
sI11
Fnan
sI12
Fnan
sI13
Fnan
sI14
Fnan
ssg30
(dp183
I0
F11.217
sI1
F11.237
sI2
F11.207
sI3
F11.208
sI4
F11.196
sI5
F11.199
sI6
F11.219
sI7
F11.202
sI8
F11.219
sI9
F11.21
sI10
F11.211
sI11
F11.234
sI12
F11.211
sI13
F11.232
sI14
F11.231
ssg32
(dp184
I0
F9.335515
sI1
F10.43996
sI2
F9.547128
sI3
F9.473387
sI4
F10.23438
sI5
F9.543016
sI6
F11.68069
sI7
F10.84701
sI8
F10.27466
sI9
F10.20312
sI10
F11.78586
sI11
F11.75144
sI12
F9.193925
sI13
F10.01594
sI14
F10.19356
ssg34
(dp185
I0
F2458404.7378703705
sI1
F2458404.716898148
sI2
F2458404.7371296296
sI3
F2458404.719085648
sI4
F2458404.6996064815
sI5
F2458404.7198148146
sI6
F2458404.698877315
sI7
F2458404.7003356484
sI8
F2458404.7363888887
sI9
F2458404.717627315
sI10
F2458404.701064815
sI11
F2458404.698136574
sI12
F2458404.738611111
sI13
F2458404.7183564813
sI14
F2458404.735648148
ssg36
(dp186
I0
F5.812225199999999
sI1
Fnan
sI2
Fnan
sI3
Fnan
sI4
Fnan
sI5
Fnan
sI6
Fnan
sI7
Fnan
sI8
Fnan
sI9
Fnan
sI10
Fnan
sI11
Fnan
sI12
Fnan
sI13
Fnan
sI14
Fnan
ssg38
(dp187
I0
F3.472798066666667
sI1
Fnan
sI2
Fnan
sI3
Fnan
sI4
Fnan
sI5
Fnan
sI6
Fnan
sI7
Fnan
sI8
Fnan
sI9
Fnan
sI10
Fnan
sI11
Fnan
sI12
Fnan
sI13
Fnan
sI14
Fnan
ssg40
(dp188
I0
F0.5479072895649024
sI1
F0.5471818548912356
sI2
F0.5493915892915933
sI3
F0.5455177850846228
sI4
F0.549679374179125
sI5
F0.5508070479770087
sI6
F0.5476155416031958
sI7
F0.548903080359219
sI8
F0.547052763815545
sI9
F0.5488625887142629
sI10
F0.5509442244816252
sI11
F0.5491403163221849
sI12
F0.5489764995196977
sI13
F0.5461616405858858
sI14
F0.5466544699697041
ssg42
(dp189
I0
F0.0011287540748408347
sI1
Fnan
sI2
Fnan
sI3
Fnan
sI4
Fnan
sI5
Fnan
sI6
Fnan
sI7
Fnan
sI8
Fnan
sI9
Fnan
sI10
Fnan
sI11
Fnan
sI12
Fnan
sI13
Fnan
sI14
Fnan
ssg44
(dp190
I0
F1.6438880933333335
sI1
Fnan
sI2
Fnan
sI3
Fnan
sI4
Fnan
sI5
Fnan
sI6
Fnan
sI7
Fnan
sI8
Fnan
sI9
Fnan
sI10
Fnan
sI11
Fnan
sI12
Fnan
sI13
Fnan
sI14
Fnan
ssg46
(dp191
I0
g164
sI1
g165
sI2
g166
sI3
g167
sI4
g168
sI5
g169
sI6
g170
sI7
g171
sI8
g172
sI9
g173
sI10
g174
sI11
g175
sI12
g176
sI13
g177
sI14
g178
ssg48
(dp192
I0
F0.003100327223669407
sI1
Fnan
sI2
Fnan
sI3
Fnan
sI4
Fnan
sI5
Fnan
sI6
Fnan
sI7
Fnan
sI8
Fnan
sI9
Fnan
sI10
Fnan
sI11
Fnan
sI12
Fnan
sI13
Fnan
sI14
Fnan
ssg50
(dp193
I0
F0.011709987597082045
sI1
Fnan
sI2
Fnan
sI3
Fnan
sI4
Fnan
sI5
Fnan
sI6
Fnan
sI7
Fnan
sI8
Fnan
sI9
Fnan
sI10
Fnan
sI11
Fnan
sI12
Fnan
sI13
Fnan
sI14
Fnan
ssg52
(dp194
I0
F4.4053884000000005
sI1
Fnan
sI2
Fnan
sI3
Fnan
sI4
Fnan
sI5
Fnan
sI6
Fnan
sI7
Fnan
sI8
Fnan
sI9
Fnan
sI10
Fnan
sI11
Fnan
sI12
Fnan
sI13
Fnan
sI14
Fnan
ssg54
(dp195
I0
F1.5003330433081192
sI1
F1.5091756410458907
sI2
F1.4930386005172098
sI3
F1.5004457421249764
sI4
F1.4980601426152753
sI5
F1.4994872659911813
sI6
F1.49187476587945
sI7
F1.493925270351654
sI8
F1.4972199051513881
sI9
F1.495281904661182
sI10
F1.4978751856098769
sI11
F1.4872410620933747
sI12
F1.4918729971523677
sI13
F1.5009392198390175
sI14
F1.4983877622671304
ssg56
(dp196
I0
g164
sI1
g165
sI2
g166
sI3
g167
sI4
g168
sI5
g169
sI6
g170
sI7
g171
sI8
g172
sI9
g173
sI10
g174
sI11
g175
sI12
g176
sI13
g177
sI14
g178
ssg58
(dp197
I0
F11.74052
sI1
F13.11423
sI2
F11.72497
sI3
F12.09988
sI4
F13.53344
sI5
F12.05543
sI6
F14.66013
sI7
F13.34698
sI8
F11.12641
sI9
F11.83036
sI10
F14.71119
sI11
F14.28135
sI12
F11.64054
sI13
F11.39666
sI14
F12.49042
ssg60
(dp198
I0
F10.2914
sI1
Fnan
sI2
Fnan
sI3
Fnan
sI4
Fnan
sI5
Fnan
sI6
Fnan
sI7
Fnan
sI8
Fnan
sI9
Fnan
sI10
Fnan
sI11
Fnan
sI12
Fnan
sI13
Fnan
sI14
Fnan
ssg62
(dp199
I0
F0.7117601898482754
sI1
Fnan
sI2
Fnan
sI3
Fnan
sI4
Fnan
sI5
Fnan
sI6
Fnan
sI7
Fnan
sI8
Fnan
sI9
Fnan
sI10
Fnan
sI11
Fnan
sI12
Fnan
sI13
Fnan
sI14
Fnan
ssg64
(dp200
I0
F4.590014
sI1
F4.764369
sI2
F3.711601
sI3
F5.108362
sI4
F3.516797
sI5
F-2.792329
sI6
F5.39054
sI7
F4.318034
sI8
F-2.453342
sI9
F4.851382
sI10
F3.837812
sI11
F5.181467
sI12
F4.172441
sI13
F4.240142
sI14
F3.654681
ssg66
(dp201
I0
F10.643866666666668
sI1
Fnan
sI2
Fnan
sI3
Fnan
sI4
Fnan
sI5
Fnan
sI6
Fnan
sI7
Fnan
sI8
Fnan
sI9
Fnan
sI10
Fnan
sI11
Fnan
sI12
Fnan
sI13
Fnan
sI14
Fnan
ssg68
(dp202
I0
g164
sI1
g165
sI2
g166
sI3
g167
sI4
g168
sI5
g169
sI6
g170
sI7
g171
sI8
g172
sI9
g173
sI10
g174
sI11
g175
sI12
g176
sI13
g177
sI14
g178
ssg70
(dp203
I0
F13793.99
sI1
F13650.95
sI2
F13974.04
sI3
F14028.033333333333
sI4
F14097.226666666666
sI5
F14009.4
sI6
F13858.536666666665
sI7
F14071.83
sI8
F13901.196666666667
sI9
F13945.593333333332
sI10
F13850.476666666666
sI11
F13657.026666666667
sI12
F13980.92
sI13
F13712.036666666665
sI14
F13711.466666666667
ssg72
(dp204
I0
F1.272737
sI1
F1.190711
sI2
F1.269477
sI3
F1.1983469999999998
sI4
F1.137307
sI5
F1.20095
sI6
F1.135297
sI7
F1.139335
sI8
F1.266248
sI9
F1.193227
sI10
F1.14143
sI11
F1.133317
sI12
F1.276043
sI13
F1.195773
sI14
F1.2630569999999999
ssg74
(dp205
I0
F11828.303333333333
sI1
F11462.826666666666
sI2
F11858.17
sI3
F11909.983333333334
sI4
F11957.953333333333
sI5
F11916.973333333333
sI6
F11787.083333333334
sI7
F11898.05
sI8
F11729.823333333334
sI9
F11836.35
sI10
F11774.506666666666
sI11
F11605.786666666665
sI12
F11794.880000000001
sI13
F11622.82
sI14
F11647.696666666667
ssg76
(dp206
I0
F19220.986666666668
sI1
F18950.55
sI2
F19284.243333333336
sI3
F19459.293333333335
sI4
F19516.113333333335
sI5
F19438.133333333335
sI6
F19130.02666666667
sI7
F19398.530000000002
sI8
F19187.636666666665
sI9
F19275.636666666665
sI10
F19191.513333333332
sI11
F18785.946666666667
sI12
F19227.11
sI13
F19013.039999999997
sI14
F18998.93
ssg78
(dp207
I0
F10.56746
sI1
F12.27868
sI2
F11.43185
sI3
F11.06859
sI4
F12.77895
sI5
F10.59237
sI6
F12.69504
sI7
F12.79101
sI8
F11.95543
sI9
F11.46947
sI10
F12.7046
sI11
F14.7376
sI12
F10.90858
sI13
F12.00033
sI14
F10.03672
ssg80
(dp208
I0
F10.818
sI1
F10.852
sI2
F10.815
sI3
F10.81
sI4
F10.806
sI5
F10.81
sI6
F10.821
sI7
F10.811
sI8
F10.827
sI9
F10.817
sI10
F10.823
sI11
F10.838
sI12
F10.821
sI13
F10.837
sI14
F10.834
ssg82
(dp209
I0
F0.001
sI1
F0.001
sI2
F0.001
sI3
F0.001
sI4
F0.001
sI5
F0.001
sI6
F0.001
sI7
F0.001
sI8
F0.001
sI9
F0.001
sI10
F0.001
sI11
F0.001
sI12
F0.001
sI13
F0.001
sI14
F0.001
ssg84
(dp210
I0
F0.5483197377573206
sI1
Fnan
sI2
Fnan
sI3
Fnan
sI4
Fnan
sI5
Fnan
sI6
Fnan
sI7
Fnan
sI8
Fnan
sI9
Fnan
sI10
Fnan
sI11
Fnan
sI12
Fnan
sI13
Fnan
sI14
Fnan
ssg86
(dp211
I0
F10.822666666666667
sI1
Fnan
sI2
Fnan
sI3
Fnan
sI4
Fnan
sI5
Fnan
sI6
Fnan
sI7
Fnan
sI8
Fnan
sI9
Fnan
sI10
Fnan
sI11
Fnan
sI12
Fnan
sI13
Fnan
sI14
Fnan
ssg88
(dp212
I0
F10.651
sI1
F10.662
sI2
F10.637
sI3
F10.633
sI4
F10.627
sI5
F10.634
sI6
F10.646
sI7
F10.629
sI8
F10.642
sI9
F10.639
sI10
F10.646
sI11
F10.662
sI12
F10.636
sI13
F10.657
sI14
F10.657
ssg90
(dp213
I0
F5.216741
sI1
F5.694388
sI2
F5.606256
sI3
F7.219599
sI4
F5.893629
sI5
F4.334758
sI6
F5.288885
sI7
F6.067214
sI8
F7.474282
sI9
F4.949157
sI10
F5.398949
sI11
F6.596198
sI12
F4.834374
sI13
F6.657895
sI14
F5.951053
ssg92
(dp214
I0
F0.011580772241706668
sI1
Fnan
sI2
Fnan
sI3
Fnan
sI4
Fnan
sI5
Fnan
sI6
Fnan
sI7
Fnan
sI8
Fnan
sI9
Fnan
sI10
Fnan
sI11
Fnan
sI12
Fnan
sI13
Fnan
sI14
Fnan
ssg94
(dp215
I0
F0.7165416745713283
sI1
F0.7032085435741708
sI2
F0.7130957350474593
sI3
F0.7113128767718893
sI4
F0.7115004538872564
sI5
F0.7125771108183364
sI6
F0.7146163483526463
sI7
F0.7109603840532339
sI8
F0.7089898404799203
sI9
F0.7125774692869591
sI10
F0.7126996083871865
sI11
F0.7154576460932679
sI12
F0.7103631260270483
sI13
F0.7103311089772849
sI14
F0.7121709213961432
ssg96
(dp216
I0
F30.0
sI1
F30.0
sI2
F30.0
sI3
F30.0
sI4
F30.0
sI5
F30.0
sI6
F30.0
sI7
F30.0
sI8
F30.0
sI9
F30.0
sI10
F30.0
sI11
F30.0
sI12
F30.0
sI13
F30.0
sI14
F30.0
ssg98
(dp217
I0
F0.002
sI1
F0.002
sI2
F0.002
sI3
F0.002
sI4
F0.002
sI5
F0.002
sI6
F0.002
sI7
F0.002
sI8
F0.002
sI9
F0.002
sI10
F0.002
sI11
F0.002
sI12
F0.002
sI13
F0.002
sI14
F0.002
ssg100
(dp218
I0
F0.002
sI1
F0.002
sI2
F0.002
sI3
F0.002
sI4
F0.002
sI5
F0.002
sI6
F0.002
sI7
F0.002
sI8
F0.002
sI9
F0.002
sI10
F0.002
sI11
F0.002
sI12
F0.002
sI13
F0.002
sI14
F0.002
ssg102
(dp219
I0
F4.528954
sI1
F3.656142
sI2
F4.847897
sI3
F3.717562
sI4
F3.903049
sI5
F4.811226
sI6
F3.893355
sI7
F4.789231
sI8
F4.518584
sI9
F3.791573
sI10
F4.259034
sI11
F5.396465
sI12
F3.891185
sI13
F5.784419
sI14
F4.29215
ssg104
(dp220
I0
S"KIC8462852-20181013at054232_-25-1X1-030-r'_cal.fts.mag.1"
p221
sI1
S"KIC8462852-20181013at051218_-25-1X1-030-r'_cal.fts.mag.1"
p222
sI2
S"KIC8462852-20181013at054128_-25-1X1-030-r'_cal.fts.mag.1"
p223
sI3
S"KIC8462852-20181013at051529_-25-1X1-030-r'_cal.fts.mag.1"
p224
sI4
S"KIC8462852-20181013at044726_-25-1X1-030-r'_cal.fts.mag.1"
p225
sI5
S"KIC8462852-20181013at051632_-25-1X1-030-r'_cal.fts.mag.1"
p226
sI6
S"KIC8462852-20181013at044623_-25-1X1-030-r'_cal.fts.mag.1"
p227
sI7
S"KIC8462852-20181013at044829_-25-1X1-030-r'_cal.fts.mag.1"
p228
sI8
S"KIC8462852-20181013at054024_-25-1X1-030-r'_cal.fts.mag.1"
p229
sI9
S"KIC8462852-20181013at051323_-25-1X1-030-r'_cal.fts.mag.1"
p230
sI10
S"KIC8462852-20181013at044932_-25-1X1-030-r'_cal.fts.mag.1"
p231
sI11
S"KIC8462852-20181013at044518_-25-1X1-030-r'_cal.fts.mag.1"
p232
sI12
S"KIC8462852-20181013at054336_-25-1X1-030-r'_cal.fts.mag.1"
p233
sI13
S"KIC8462852-20181013at051426_-25-1X1-030-r'_cal.fts.mag.1"
p234
sI14
S"KIC8462852-20181013at053918_-25-1X1-030-r'_cal.fts.mag.1"
p235
ssg121
(dp236
I0
F0.005159488263245429
sI1
Fnan
sI2
Fnan
sI3
Fnan
sI4
Fnan
sI5
Fnan
sI6
Fnan
sI7
Fnan
sI8
Fnan
sI9
Fnan
sI10
Fnan
sI11
Fnan
sI12
Fnan
sI13
Fnan
sI14
Fnan
ssg123
(dp237
I0
F8189.986666666667
sI1
F8037.066666666667
sI2
F8262.2
sI3
F8255.013333333332
sI4
F8349.866666666667
sI5
F8329.03
sI6
F8173.28
sI7
F8300.953333333333
sI8
F8172.723333333333
sI9
F8243.473333333333
sI10
F8230.463333333333
sI11
F8062.983333333334
sI12
F8235.18
sI13
F8073.706666666667
sI14
F8082.85
ssg125
(dp238
I0
F0.012821113539039886
sI1
Fnan
sI2
Fnan
sI3
Fnan
sI4
Fnan
sI5
Fnan
sI6
Fnan
sI7
Fnan
sI8
Fnan
sI9
Fnan
sI10
Fnan
sI11
Fnan
sI12
Fnan
sI13
Fnan
sI14
Fnan
ssg127
(dp239
I0
S"r'"
p240
sI1
S"r'"
p241
sI2
S"r'"
p242
sI3
S"r'"
p243
sI4
S"r'"
p244
sI5
S"r'"
p245
sI6
S"r'"
p246
sI7
S"r'"
p247
sI8
S"r'"
p248
sI9
S"r'"
p249
sI10
S"r'"
p250
sI11
S"r'"
p251
sI12
S"r'"
p252
sI13
S"r'"
p253
sI14
S"r'"
p254
ssg144
(dp255
I0
F0.0016181829681811478
sI1
Fnan
sI2
Fnan
sI3
Fnan
sI4
Fnan
sI5
Fnan
sI6
Fnan
sI7
Fnan
sI8
Fnan
sI9
Fnan
sI10
Fnan
sI11
Fnan
sI12
Fnan
sI13
Fnan
sI14
Fnan
ssg146
(dp256
I0
F4.556243
sI1
F4.229637
sI2
F-2.303997
sI3
F2.516673
sI4
F3.849696
sI5
F3.67559
sI6
F-2.350642
sI7
F-2.827012
sI8
F-0.7845056
sI9
F2.995749
sI10
F2.720407
sI11
F3.943746
sI12
F3.079082
sI13
F3.333061
sI14
F-1.975406
ssg148
(dp257
I0
F1.4970105672405396
sI1
Fnan
sI2
Fnan
sI3
Fnan
sI4
Fnan
sI5
Fnan
sI6
Fnan
sI7
Fnan
sI8
Fnan
sI9
Fnan
sI10
Fnan
sI11
Fnan
sI12
Fnan
sI13
Fnan
sI14
Fnan
ssg150
(dp258
I0
F2458404.7183564813
sI1
Fnan
sI2
Fnan
sI3
Fnan
sI4
Fnan
sI5
Fnan
sI6
Fnan
sI7
Fnan
sI8
Fnan
sI9
Fnan
sI10
Fnan
sI11
Fnan
sI12
Fnan
sI13
Fnan
sI14
Fnan
ssg152
(dp259
I0
F0.0016181829681811478
sI1
Fnan
sI2
Fnan
sI3
Fnan
sI4
Fnan
sI5
Fnan
sI6
Fnan
sI7
Fnan
sI8
Fnan
sI9
Fnan
sI10
Fnan
sI11
Fnan
sI12
Fnan
sI13
Fnan
sI14
Fnan
ssg154
(dp260
I0
F15.43617
sI1
F15.46304
sI2
F14.03359
sI3
F13.15746
sI4
F16.35964
sI5
F13.1937
sI6
F17.04889
sI7
F14.89615
sI8
F13.45544
sI9
F13.7508
sI10
F15.54224
sI11
F17.83311
sI12
F14.04415
sI13
F14.21129
sI14
F14.64721
ssg156
(dp261
I0
F10.291
sI1
F10.306
sI2
F10.287
sI3
F10.277
sI4
F10.274
sI5
F10.278
sI6
F10.296
sI7
F10.281
sI8
F10.292
sI9
F10.287
sI10
F10.292
sI11
F10.315
sI12
F10.29
sI13
F10.302
sI14
F10.303
ssg158
(dp262
I0
F0.5483197377573206
sI1
Fnan
sI2
Fnan
sI3
Fnan
sI4
Fnan
sI5
Fnan
sI6
Fnan
sI7
Fnan
sI8
Fnan
sI9
Fnan
sI10
Fnan
sI11
Fnan
sI12
Fnan
sI13
Fnan
sI14
Fnan
sssS'z'
p263
(dp264
g3
(dp265
I0
F0.3699993511095403
sI1
Fnan
sI2
Fnan
sI3
Fnan
sI4
Fnan
sI5
Fnan
sI6
Fnan
sI7
Fnan
sI8
Fnan
sI9
Fnan
sI10
Fnan
sI11
Fnan
sI12
Fnan
sI13
Fnan
sI14
Fnan
ssg5
(dp266
I0
S'NoError'
p267
sI1
S'NoError'
p268
sI2
S'NoError'
p269
sI3
S'NoError'
p270
sI4
S'NoError'
p271
sI5
S'NoError'
p272
sI6
S'NoError'
p273
sI7
S'NoError'
p274
sI8
S'NoError'
p275
sI9
S'NoError'
p276
sI10
S'NoError'
p277
sI11
S'NoError'
p278
sI12
S'NoError'
p279
sI13
S'NoError'
p280
sI14
S'NoError'
p281
ssg22
(dp282
I0
F0.008
sI1
F0.007
sI2
F0.007
sI3
F0.007
sI4
F0.007
sI5
F0.007
sI6
F0.007
sI7
F0.007
sI8
F0.007
sI9
F0.007
sI10
F0.007
sI11
F0.007
sI12
F0.007
sI13
F0.007
sI14
F0.007
ssg24
(dp283
I0
F0.922953533603562
sI1
F0.9311251940670526
sI2
F0.9228231795518275
sI3
F0.9185753703775726
sI4
F0.9088701119795488
sI5
F0.915782436935325
sI6
F0.9254210618145268
sI7
F0.9248754256978136
sI8
F0.9188029236179842
sI9
F0.9153120740817324
sI10
F0.9280738343611992
sI11
F0.9147565193241557
sI12
F0.9163280537030061
sI13
F0.9144489752687602
sI14
F0.9166091341598972
ssg26
(dp284
I0
F0.006020006484269489
sI1
Fnan
sI2
Fnan
sI3
Fnan
sI4
Fnan
sI5
Fnan
sI6
Fnan
sI7
Fnan
sI8
Fnan
sI9
Fnan
sI10
Fnan
sI11
Fnan
sI12
Fnan
sI13
Fnan
sI14
Fnan
ssg28
(dp285
I0
F0.919650521902931
sI1
Fnan
sI2
Fnan
sI3
Fnan
sI4
Fnan
sI5
Fnan
sI6
Fnan
sI7
Fnan
sI8
Fnan
sI9
Fnan
sI10
Fnan
sI11
Fnan
sI12
Fnan
sI13
Fnan
sI14
Fnan
ssg30
(dp286
I0
F13.301
sI1
F13.294
sI2
F13.31
sI3
F13.262
sI4
F13.341
sI5
F13.258
sI6
F13.335
sI7
F13.287
sI8
F13.302
sI9
F13.283
sI10
F13.338
sI11
F13.283
sI12
F13.293
sI13
F13.257
sI14
F13.26
ssg32
(dp287
I0
F6.465209
sI1
F7.278986
sI2
F7.221557
sI3
F6.509019
sI4
F6.405281
sI5
F6.216636
sI6
F6.391891
sI7
F5.408515
sI8
F7.058067
sI9
F6.766204
sI10
F6.619321
sI11
F5.979513
sI12
F5.774025
sI13
F6.241421
sI14
F6.768056
ssg34
(dp288
I0
F2458404.74599537
sI1
F2458404.7055439814
sI2
F2458404.745266204
sI3
F2458404.724988426
sI4
F2458404.7272106484
sI5
F2458404.7062962963
sI6
F2458404.7085185186
sI7
F2458404.724247685
sI8
F2458404.744525463
sI9
F2458404.7430555555
sI10
F2458404.7437962964
sI11
F2458404.7077662037
sI12
F2458404.7264814815
sI13
F2458404.7257407405
sI14
F2458404.7070254628
ssg36
(dp289
I0
F2.2891666
sI1
Fnan
sI2
Fnan
sI3
Fnan
sI4
Fnan
sI5
Fnan
sI6
Fnan
sI7
Fnan
sI8
Fnan
sI9
Fnan
sI10
Fnan
sI11
Fnan
sI12
Fnan
sI13
Fnan
sI14
Fnan
ssg38
(dp290
I0
F2.5962720666666663
sI1
Fnan
sI2
Fnan
sI3
Fnan
sI4
Fnan
sI5
Fnan
sI6
Fnan
sI7
Fnan
sI8
Fnan
sI9
Fnan
sI10
Fnan
sI11
Fnan
sI12
Fnan
sI13
Fnan
sI14
Fnan
ssg40
(dp291
I0
F0.3747561221032327
sI1
F0.36541490839343
sI2
F0.37039454439789143
sI3
F0.3725288165576294
sI4
F0.3636704742876923
sI5
F0.3684000639941384
sI6
F0.3689281795803152
sI7
F0.3732550578256309
sI8
F0.3710448339466351
sI9
F0.3695133033192712
sI10
F0.3639630802186074
sI11
F0.36841942425164137
sI12
F0.36933062840717573
sI13
F0.37188607661304857
sI14
F0.37087637602767626
ssg42
(dp292
I0
F0.0020509709840283614
sI1
Fnan
sI2
Fnan
sI3
Fnan
sI4
Fnan
sI5
Fnan
sI6
Fnan
sI7
Fnan
sI8
Fnan
sI9
Fnan
sI10
Fnan
sI11
Fnan
sI12
Fnan
sI13
Fnan
sI14
Fnan
ssg44
(dp293
I0
F0.55976708
sI1
Fnan
sI2
Fnan
sI3
Fnan
sI4
Fnan
sI5
Fnan
sI6
Fnan
sI7
Fnan
sI8
Fnan
sI9
Fnan
sI10
Fnan
sI11
Fnan
sI12
Fnan
sI13
Fnan
sI14
Fnan
ssg46
(dp294
I0
g267
sI1
g268
sI2
g269
sI3
g270
sI4
g271
sI5
g272
sI6
g273
sI7
g274
sI8
g275
sI9
g276
sI10
g277
sI11
g278
sI12
g279
sI13
g280
sI14
g281
ssg48
(dp295
I0
F0.004991871197107422
sI1
Fnan
sI2
Fnan
sI3
Fnan
sI4
Fnan
sI5
Fnan
sI6
Fnan
sI7
Fnan
sI8
Fnan
sI9
Fnan
sI10
Fnan
sI11
Fnan
sI12
Fnan
sI13
Fnan
sI14
Fnan
ssg50
(dp296
I0
F0.023558033712110942
sI1
Fnan
sI2
Fnan
sI3
Fnan
sI4
Fnan
sI5
Fnan
sI6
Fnan
sI7
Fnan
sI8
Fnan
sI9
Fnan
sI10
Fnan
sI11
Fnan
sI12
Fnan
sI13
Fnan
sI14
Fnan
ssg52
(dp297
I0
F2.2680673333333337
sI1
Fnan
sI2
Fnan
sI3
Fnan
sI4
Fnan
sI5
Fnan
sI6
Fnan
sI7
Fnan
sI8
Fnan
sI9
Fnan
sI10
Fnan
sI11
Fnan
sI12
Fnan
sI13
Fnan
sI14
Fnan
ssg54
(dp298
I0
F1.5012645233222974
sI1
F1.4966772656556955
sI2
F1.5144940817690113
sI3
F1.4994504553295367
sI4
F1.5214752586346523
sI5
F1.5169348086248424
sI6
F1.5135527623684202
sI7
F1.4925475109567419
sI8
F1.527264741365145
sI9
F1.5083984269110233
sI10
F1.5006516629509217
sI11
F1.5167248058725786
sI12
F1.5165012431647396
sI13
F1.5045910819848352
sI14
F1.5102834659829165
ssg56
(dp299
I0
g267
sI1
g268
sI2
g269
sI3
g270
sI4
g271
sI5
g272
sI6
g273
sI7
g274
sI8
g275
sI9
g276
sI10
g277
sI11
g278
sI12
g279
sI13
g280
sI14
g281
ssg58
(dp300
I0
F7.6783
sI1
F7.806881
sI2
F8.548265
sI3
F7.477587
sI4
F6.518999
sI5
F7.614676
sI6
F8.229108
sI7
F7.534373
sI8
F7.649166
sI9
F7.533051
sI10
F7.308968
sI11
F7.892111
sI12
F8.005571
sI13
F7.124462
sI14
F7.391894
ssg60
(dp301
I0
F11.935733333333333
sI1
Fnan
sI2
Fnan
sI3
Fnan
sI4
Fnan
sI5
Fnan
sI6
Fnan
sI7
Fnan
sI8
Fnan
sI9
Fnan
sI10
Fnan
sI11
Fnan
sI12
Fnan
sI13
Fnan
sI14
Fnan
ssg62
(dp302
I0
F0.6842859617745989
sI1
Fnan
sI2
Fnan
sI3
Fnan
sI4
Fnan
sI5
Fnan
sI6
Fnan
sI7
Fnan
sI8
Fnan
sI9
Fnan
sI10
Fnan
sI11
Fnan
sI12
Fnan
sI13
Fnan
sI14
Fnan
ssg64
(dp303
I0
F3.046846
sI1
F3.141608
sI2
F-1.949913
sI3
F4.303176
sI4
F3.522024
sI5
F4.469227
sI6
F3.984233
sI7
F3.182634
sI8
F3.031787
sI9
F3.429745
sI10
F2.742855
sI11
F2.251711
sI12
F3.293428
sI13
F-2.808998
sI14
F3.303718
ssg66
(dp304
I0
F12.273866666666667
sI1
Fnan
sI2
Fnan
sI3
Fnan
sI4
Fnan
sI5
Fnan
sI6
Fnan
sI7
Fnan
sI8
Fnan
sI9
Fnan
sI10
Fnan
sI11
Fnan
sI12
Fnan
sI13
Fnan
sI14
Fnan
ssg68
(dp305
I0
g267
sI1
g268
sI2
g269
sI3
g270
sI4
g271
sI5
g272
sI6
g273
sI7
g274
sI8
g275
sI9
g276
sI10
g277
sI11
g278
sI12
g279
sI13
g280
sI14
g281
ssg70
(dp306
I0
F3035.538333333333
sI1
F3154.1563333333334
sI2
F3045.2426666666665
sI3
F3156.9466666666663
sI4
F2983.3293333333336
sI5
F3196.034
sI6
F2994.109
sI7
F3092.710666666667
sI8
F3055.450333333333
sI9
F3111.9553333333333
sI10
F3032.7103333333334
sI11
F3120.860333333333
sI12
F3089.5646666666667
sI13
F3165.7156666666665
sI14
F3171.578666666667
ssg72
(dp307
I0
F1.310454
sI1
F1.154395
sI2
F1.306906
sI3
F1.219975
sI4
F1.228533
sI5
F1.156599
sI6
F1.1634010000000001
sI7
F1.21718
sI8
F1.3033709999999998
sI9
F1.296406
sI10
F1.29988
sI11
F1.161108
sI12
F1.225611
sI13
F1.22278
sI14
F1.1588459999999998
ssg74
(dp308
I0
F2455.859
sI1
F2525.0016666666666
sI2
F2443.5033333333336
sI3
F2575.678
sI4
F2439.5389999999998
sI5
F2590.7846666666665
sI6
F2393.550333333333
sI7
F2508.1026666666667
sI8
F2448.184
sI9
F2538.3289999999997
sI10
F2433.817
sI11
F2534.5316666666668
sI12
F2502.8826666666664
sI13
F2592.15
sI14
F2578.2823333333336
ssg76
(dp309
I0
F4122.02
sI1
F4249.933333333333
sI2
F4156.336666666667
sI3
F4297.893333333333
sI4
F4125.38
sI5
F4389.113333333333
sI6
F4077.2533333333336
sI7
F4179.74
sI8
F4202.753333333333
sI9
F4261.44
sI10
F4101.676666666667
sI11
F4288.836666666667
sI12
F4240.4766666666665
sI13
F4331.616666666667
sI14
F4341.96
ssg78
(dp310
I0
F7.38369
sI1
F7.03854
sI2
F8.190384
sI3
F6.060683
sI4
F7.007775
sI5
F7.002264
sI6
F7.926896
sI7
F6.840388
sI8
F8.038201
sI9
F6.962501
sI10
F7.903994
sI11
F7.297752
sI12
F6.644226
sI13
F6.224001
sI14
F7.363308
ssg80
(dp311
I0
F12.524
sI1
F12.494
sI2
F12.53
sI3
F12.473
sI4
F12.532
sI5
F12.466
sI6
F12.552
sI7
F12.502
sI8
F12.528
sI9
F12.489
sI10
F12.534
sI11
F12.49
sI12
F12.504
sI13
F12.466
sI14
F12.472
ssg82
(dp312
I0
F0.003
sI1
F0.003
sI2
F0.003
sI3
F0.003
sI4
F0.003
sI5
F0.003
sI6
F0.003
sI7
F0.003
sI8
F0.003
sI9
F0.003
sI10
F0.003
sI11
F0.003
sI12
F0.003
sI13
F0.003
sI14
F0.003
ssg84
(dp313
I0
F0.3694921259949344
sI1
Fnan
sI2
Fnan
sI3
Fnan
sI4
Fnan
sI5
Fnan
sI6
Fnan
sI7
Fnan
sI8
Fnan
sI9
Fnan
sI10
Fnan
sI11
Fnan
sI12
Fnan
sI13
Fnan
sI14
Fnan
ssg86
(dp314
I0
F12.503733333333336
sI1
Fnan
sI2
Fnan
sI3
Fnan
sI4
Fnan
sI5
Fnan
sI6
Fnan
sI7
Fnan
sI8
Fnan
sI9
Fnan
sI10
Fnan
sI11
Fnan
sI12
Fnan
sI13
Fnan
sI14
Fnan
ssg88
(dp315
I0
F12.294
sI1
F12.253
sI2
F12.291
sI3
F12.252
sI4
F12.313
sI5
F12.238
sI6
F12.309
sI7
F12.274
sI8
F12.287
sI9
F12.267
sI10
F12.295
sI11
F12.264
sI12
F12.275
sI13
F12.249
sI14
F12.247
ssg90
(dp316
I0
F2.485403
sI1
F4.026326
sI2
F-1.189109
sI3
F4.177315
sI4
F3.10795
sI5
F1.334762
sI6
F3.670283
sI7
F2.417957
sI8
F5.166454
sI9
F3.852561
sI10
F-1.324888
sI11
F-2.233166
sI12
F2.256861
sI13
F3.253831
sI14
F3.334959
ssg92
(dp317
I0
F0.024603909871245628
sI1
Fnan
sI2
Fnan
sI3
Fnan
sI4
Fnan
sI5
Fnan
sI6
Fnan
sI7
Fnan
sI8
Fnan
sI9
Fnan
sI10
Fnan
sI11
Fnan
sI12
Fnan
sI13
Fnan
sI14
Fnan
ssg94
(dp318
I0
F0.6862281480998524
sI1
F0.6820559394449976
sI2
F0.6786020733044762
sI3
F0.6910082577224997
sI4
F0.6863521591917668
sI5
F0.6831204597124504
sI6
F0.6769700718206727
sI7
F0.6897544669948947
sI8
F0.6745977689337367
sI9
F0.6885102141546188
sI10
F0.6822778186829506
sI11
F0.68411209437219
sI12
F0.6829109285604756
sI13
F0.6914859538706145
sI14
F0.6863030717527862
ssg96
(dp319
I0
F30.0
sI1
F30.0
sI2
F30.0
sI3
F30.0
sI4
F30.0
sI5
F30.0
sI6
F30.0
sI7
F30.0
sI8
F30.0
sI9
F30.0
sI10
F30.0
sI11
F30.0
sI12
F30.0
sI13
F30.0
sI14
F30.0
ssg98
(dp320
I0
F0.004
sI1
F0.004
sI2
F0.004
sI3
F0.004
sI4
F0.004
sI5
F0.004
sI6
F0.004
sI7
F0.004
sI8
F0.004
sI9
F0.004
sI10
F0.004
sI11
F0.004
sI12
F0.004
sI13
F0.004
sI14
F0.004
ssg100
(dp321
I0
F0.004
sI1
F0.004
sI2
F0.004
sI3
F0.004
sI4
F0.004
sI5
F0.004
sI6
F0.004
sI7
F0.004
sI8
F0.004
sI9
F0.004
sI10
F0.004
sI11
F0.004
sI12
F0.004
sI13
F0.004
sI14
F0.004
ssg102
(dp322
I0
F3.572134
sI1
F4.070157
sI2
F-2.347169
sI3
F3.146019
sI4
F4.60643
sI5
F2.638777
sI6
F1.23931
sI7
F-3.547323
sI8
F4.288883
sI9
F4.152993
sI10
F4.289211
sI11
F3.698627
sI12
F-1.277985
sI13
F3.123339
sI14
F2.367607
ssg104
(dp323
I0
S"KIC8462852-20181013at055414_-25-1X1-030-z'_cal.fts.mag.1"
p324
sI1
S"KIC8462852-20181013at045557_-25-1X1-030-z'_cal.fts.mag.1"
p325
sI2
S"KIC8462852-20181013at055311_-25-1X1-030-z'_cal.fts.mag.1"
p326
sI3
S"KIC8462852-20181013at052359_-25-1X1-030-z'_cal.fts.mag.1"
p327
sI4
S"KIC8462852-20181013at052711_-25-1X1-030-z'_cal.fts.mag.1"
p328
sI5
S"KIC8462852-20181013at045704_-25-1X1-030-z'_cal.fts.mag.1"
p329
sI6
S"KIC8462852-20181013at050016_-25-1X1-030-z'_cal.fts.mag.1"
p330
sI7
S"KIC8462852-20181013at052254_-25-1X1-030-z'_cal.fts.mag.1"
p331
sI8
S"KIC8462852-20181013at055207_-25-1X1-030-z'_cal.fts.mag.1"
p332
sI9
S"KIC8462852-20181013at054959_-25-1X1-030-z'_cal.fts.mag.1"
p333
sI10
S"KIC8462852-20181013at055104_-25-1X1-030-z'_cal.fts.mag.1"
p334
sI11
S"KIC8462852-20181013at045911_-25-1X1-030-z'_cal.fts.mag.1"
p335
sI12
S"KIC8462852-20181013at052608_-25-1X1-030-z'_cal.fts.mag.1"
p336
sI13
S"KIC8462852-20181013at052504_-25-1X1-030-z'_cal.fts.mag.1"
p337
sI14
S"KIC8462852-20181013at045807_-25-1X1-030-z'_cal.fts.mag.1"
p338
ssg121
(dp339
I0
F0.009933722912539526
sI1
Fnan
sI2
Fnan
sI3
Fnan
sI4
Fnan
sI5
Fnan
sI6
Fnan
sI7
Fnan
sI8
Fnan
sI9
Fnan
sI10
Fnan
sI11
Fnan
sI12
Fnan
sI13
Fnan
sI14
Fnan
ssg123
(dp340
I0
F1200.8956666666668
sI1
F1209.4126666666666
sI2
F1190.8286666666668
sI3
F1245.5523333333333
sI4
F1157.4720000000002
sI5
F1249.6046666666666
sI6
F1163.9576666666667
sI7
F1216.8803333333335
sI8
F1200.5016666666668
sI9
F1220.838
sI10
F1160.8243333333335
sI11
F1221.2156666666667
sI12
F1210.5333333333333
sI13
F1250.7126666666666
sI14
F1247.606
ssg125
(dp341
I0
F0.02807761351953514
sI1
Fnan
sI2
Fnan
sI3
Fnan
sI4
Fnan
sI5
Fnan
sI6
Fnan
sI7
Fnan
sI8
Fnan
sI9
Fnan
sI10
Fnan
sI11
Fnan
sI12
Fnan
sI13
Fnan
sI14
Fnan
ssg127
(dp342
I0
S"z'"
p343
sI1
S"z'"
p344
sI2
S"z'"
p345
sI3
S"z'"
p346
sI4
S"z'"
p347
sI5
S"z'"
p348
sI6
S"z'"
p349
sI7
S"z'"
p350
sI8
S"z'"
p351
sI9
S"z'"
p352
sI10
S"z'"
p353
sI11
S"z'"
p354
sI12
S"z'"
p355
sI13
S"z'"
p356
sI14
S"z'"
p357
ssg144
(dp358
I0
F0.003226417101234003
sI1
Fnan
sI2
Fnan
sI3
Fnan
sI4
Fnan
sI5
Fnan
sI6
Fnan
sI7
Fnan
sI8
Fnan
sI9
Fnan
sI10
Fnan
sI11
Fnan
sI12
Fnan
sI13
Fnan
sI14
Fnan
ssg146
(dp359
I0
F4.672415
sI1
F-3.356291
sI2
F3.445954
sI3
F-3.188097
sI4
F1.864126
sI5
F-3.369246
sI6
F2.796694
sI7
F3.142433
sI8
F-1.627022
sI9
F0.8021882
sI10
F3.95476
sI11
F-3.660878
sI12
F-1.527184
sI13
F3.29713
sI14
F1.149524
ssg148
(dp360
I0
F1.5093874729928902
sI1
Fnan
sI2
Fnan
sI3
Fnan
sI4
Fnan
sI5
Fnan
sI6
Fnan
sI7
Fnan
sI8
Fnan
sI9
Fnan
sI10
Fnan
sI11
Fnan
sI12
Fnan
sI13
Fnan
sI14
Fnan
ssg150
(dp361
I0
F2458404.7257407405
sI1
Fnan
sI2
Fnan
sI3
Fnan
sI4
Fnan
sI5
Fnan
sI6
Fnan
sI7
Fnan
sI8
Fnan
sI9
Fnan
sI10
Fnan
sI11
Fnan
sI12
Fnan
sI13
Fnan
sI14
Fnan
ssg152
(dp362
I0
F0.003226417101234003
sI1
Fnan
sI2
Fnan
sI3
Fnan
sI4
Fnan
sI5
Fnan
sI6
Fnan
sI7
Fnan
sI8
Fnan
sI9
Fnan
sI10
Fnan
sI11
Fnan
sI12
Fnan
sI13
Fnan
sI14
Fnan
ssg154
(dp363
I0
F9.195748
sI1
F9.327821
sI2
F10.00668
sI3
F8.099041
sI4
F8.533656
sI5
F9.188635
sI6
F9.756129
sI7
F8.313972
sI8
F8.164433
sI9
F7.504906
sI10
F9.186877
sI11
F8.180579
sI12
F7.89452
sI13
F7.268963
sI14
F8.430447
ssg156
(dp364
I0
F11.962
sI1
F11.929
sI2
F11.953
sI3
F11.917
sI4
F11.961
sI5
F11.894
sI6
F11.974
sI7
F11.947
sI8
F11.941
sI9
F11.926
sI10
F11.968
sI11
F11.919
sI12
F11.931
sI13
F11.908
sI14
F11.906
ssg158
(dp365
I0
F0.3694921259949344
sI1
Fnan
sI2
Fnan
sI3
Fnan
sI4
Fnan
sI5
Fnan
sI6
Fnan
sI7
Fnan
sI8
Fnan
sI9
Fnan
sI10
Fnan
sI11
Fnan
sI12
Fnan
sI13
Fnan
sI14
Fnan
sssS'g'
p366
(dp367
g3
(dp368
I0
F0.8640795853207618
sI1
Fnan
sI2
Fnan
sI3
Fnan
sI4
Fnan
sI5
Fnan
sI6
Fnan
sI7
Fnan
sI8
Fnan
sI9
Fnan
sI10
Fnan
sI11
Fnan
sI12
Fnan
sI13
Fnan
sI14
Fnan
ssg5
(dp369
I0
S'NoError'
p370
sI1
S'NoError'
p371
sI2
S'NoError'
p372
sI3
S'NoError'
p373
sI4
S'NoError'
p374
sI5
S'NoError'
p375
sI6
S'NoError'
p376
sI7
S'NoError'
p377
sI8
S'NoError'
p378
sI9
S'NoError'
p379
sI10
S'NoError'
p380
sI11
S'NoError'
p381
sI12
S'NoError'
p382
sI13
S'NoError'
p383
sI14
S'NoError'
p384
ssg22
(dp385
I0
F0.002
sI1
F0.002
sI2
F0.002
sI3
F0.002
sI4
F0.002
sI5
F0.002
sI6
F0.002
sI7
F0.002
sI8
F0.002
sI9
F0.002
sI10
F0.002
sI11
F0.003
sI12
F0.002
sI13
F0.002
sI14
F0.002
ssg24
(dp386
I0
F0.881072045247717
sI1
F0.8769941066355312
sI2
F0.88197747402264
sI3
F0.882561819256325
sI4
F0.877356282130867
sI5
F0.8811276194284429
sI6
F0.8801276837237278
sI7
F0.8843296857215537
sI8
F0.8805714546638607
sI9
F0.8737801460336454
sI10
F0.8823055106520904
sI11
F0.8794922271440011
sI12
F0.8789499954005445
sI13
F0.881725496159575
sI14
F0.8757089076782612
ssg26
(dp387
I0
F0.0028600110047384618
sI1
Fnan
sI2
Fnan
sI3
Fnan
sI4
Fnan
sI5
Fnan
sI6
Fnan
sI7
Fnan
sI8
Fnan
sI9
Fnan
sI10
Fnan
sI11
Fnan
sI12
Fnan
sI13
Fnan
sI14
Fnan
ssg28
(dp388
I0
F0.8798720302599189
sI1
Fnan
sI2
Fnan
sI3
Fnan
sI4
Fnan
sI5
Fnan
sI6
Fnan
sI7
Fnan
sI8
Fnan
sI9
Fnan
sI10
Fnan
sI11
Fnan
sI12
Fnan
sI13
Fnan
sI14
Fnan
ssg30
(dp389
I0
F11.459
sI1
F11.468
sI2
F11.47
sI3
F11.512
sI4
F11.514
sI5
F11.447
sI6
F11.511
sI7
F11.523
sI8
F11.506
sI9
F11.485
sI10
F11.484
sI11
F11.54
sI12
F11.469
sI13
F11.535
sI14
F11.452
ssg32
(dp390
I0
F4.151208
sI1
F5.129388
sI2
F3.784569
sI3
F3.41449
sI4
F3.568856
sI5
F5.052838
sI6
F3.98879
sI7
F6.840749
sI8
F6.015328
sI9
F3.172383
sI10
F5.610559
sI11
F6.409612
sI12
F2.973253
sI13
F4.581951
sI14
F4.706696
ssg34
(dp391
I0
F2458404.714675926
sI1
F2458404.695902778
sI2
F2458404.7161458335
sI3
F2458404.7341550924
sI4
F2458404.7348958333
sI5
F2458404.695162037
sI6
F2458404.733425926
sI7
F2458404.7139583332
sI8
F2458404.6966435187
sI9
F2458404.732685185
sI10
F2458404.697395833
sI11
F2458404.713217593
sI12
F2458404.7154050926
sI13
F2458404.7319444446
sI14
F2458404.6944212965
ssg36
(dp392
I0
F4.0074385999999995
sI1
Fnan
sI2
Fnan
sI3
Fnan
sI4
Fnan
sI5
Fnan
sI6
Fnan
sI7
Fnan
sI8
Fnan
sI9
Fnan
sI10
Fnan
sI11
Fnan
sI12
Fnan
sI13
Fnan
sI14
Fnan
ssg38
(dp393
I0
F2.691619333333334
sI1
Fnan
sI2
Fnan
sI3
Fnan
sI4
Fnan
sI5
Fnan
sI6
Fnan
sI7
Fnan
sI8
Fnan
sI9
Fnan
sI10
Fnan
sI11
Fnan
sI12
Fnan
sI13
Fnan
sI14
Fnan
ssg40
(dp394
I0
F0.8672266231568584
sI1
F0.867574442171527
sI2
F0.8619144305842233
sI3
F0.8565217563680803
sI4
F0.8675836490737104
sI5
F0.8624080531556853
sI6
F0.8566350656711841
sI7
F0.8650997710692364
sI8
F0.8694216493883887
sI9
F0.8658316659022864
sI10
F0.8634747835812107
sI11
F0.8585559186116024
sI12
F0.8642075515741395
sI13
F0.863270591793955
sI14
F0.861807543174706
ssg42
(dp395
I0
F0.0026251748343585285
sI1
Fnan
sI2
Fnan
sI3
Fnan
sI4
Fnan
sI5
Fnan
sI6
Fnan
sI7
Fnan
sI8
Fnan
sI9
Fnan
sI10
Fnan
sI11
Fnan
sI12
Fnan
sI13
Fnan
sI14
Fnan
ssg44
(dp396
I0
F2.0567461333333332
sI1
Fnan
sI2
Fnan
sI3
Fnan
sI4
Fnan
sI5
Fnan
sI6
Fnan
sI7
Fnan
sI8
Fnan
sI9
Fnan
sI10
Fnan
sI11
Fnan
sI12
Fnan
sI13
Fnan
sI14
Fnan
ssg46
(dp397
I0
g370
sI1
g371
sI2
g372
sI3
g373
sI4
g374
sI5
g375
sI6
g376
sI7
g377
sI8
g378
sI9
g379
sI10
g380
sI11
g381
sI12
g382
sI13
g383
sI14
g384
ssg48
(dp398
I0
F0.0028888582506517158
sI1
Fnan
sI2
Fnan
sI3
Fnan
sI4
Fnan
sI5
Fnan
sI6
Fnan
sI7
Fnan
sI8
Fnan
sI9
Fnan
sI10
Fnan
sI11
Fnan
sI12
Fnan
sI13
Fnan
sI14
Fnan
ssg50
(dp399
I0
F0.02924575671297103
sI1
Fnan
sI2
Fnan
sI3
Fnan
sI4
Fnan
sI5
Fnan
sI6
Fnan
sI7
Fnan
sI8
Fnan
sI9
Fnan
sI10
Fnan
sI11
Fnan
sI12
Fnan
sI13
Fnan
sI14
Fnan
ssg52
(dp400
I0
F2.0782148666666664
sI1
Fnan
sI2
Fnan
sI3
Fnan
sI4
Fnan
sI5
Fnan
sI6
Fnan
sI7
Fnan
sI8
Fnan
sI9
Fnan
sI10
Fnan
sI11
Fnan
sI12
Fnan
sI13
Fnan
sI14
Fnan
ssg54
(dp401
I0
F1.5153252606064365
sI1
F1.5256846152840084
sI2
F1.5098135716676182
sI3
F1.5201487085427432
sI4
F1.5259582059373749
sI5
F1.5299322953000682
sI6
F1.5148823254869372
sI7
F1.5131553062759018
sI8
F1.5192028037702068
sI9
F1.5231584901223703
sI10
F1.5150345269276329
sI11
F1.5183677883395168
sI12
F1.5202475810930405
sI13
F1.5237675427892143
sI14
F1.5247852775180277
ssg56
(dp402
I0
g370
sI1
g371
sI2
g372
sI3
g373
sI4
g374
sI5
g375
sI6
g376
sI7
g377
sI8
g378
sI9
g379
sI10
g380
sI11
g381
sI12
g382
sI13
g383
sI14
g384
ssg58
(dp403
I0
F4.236399
sI1
F5.700273
sI2
F4.474086
sI3
F3.175583
sI4
F3.926682
sI5
F4.58178
sI6
F4.39472
sI7
F6.502406
sI8
F8.071204
sI9
F4.044489
sI10
F6.285323
sI11
F6.653257
sI12
F3.669871
sI13
F4.283801
sI14
F6.076352
ssg60
(dp404
I0
F11.051266666666665
sI1
Fnan
sI2
Fnan
sI3
Fnan
sI4
Fnan
sI5
Fnan
sI6
Fnan
sI7
Fnan
sI8
Fnan
sI9
Fnan
sI10
Fnan
sI11
Fnan
sI12
Fnan
sI13
Fnan
sI14
Fnan
ssg62
(dp405
I0
F0.7124736651137547
sI1
Fnan
sI2
Fnan
sI3
Fnan
sI4
Fnan
sI5
Fnan
sI6
Fnan
sI7
Fnan
sI8
Fnan
sI9
Fnan
sI10
Fnan
sI11
Fnan
sI12
Fnan
sI13
Fnan
sI14
Fnan
ssg64
(dp406
I0
F3.338427
sI1
F-3.557822
sI2
F2.971239
sI3
F3.385837
sI4
F2.554883
sI5
F3.761498
sI6
F-1.346968
sI7
F3.758754
sI8
F3.928175
sI9
F3.826811
sI10
F3.698087
sI11
F3.953651
sI12
F2.716313
sI13
F4.518956
sI14
F2.866449
ssg66
(dp407
I0
F11.426800000000002
sI1
Fnan
sI2
Fnan
sI3
Fnan
sI4
Fnan
sI5
Fnan
sI6
Fnan
sI7
Fnan
sI8
Fnan
sI9
Fnan
sI10
Fnan
sI11
Fnan
sI12
Fnan
sI13
Fnan
sI14
Fnan
ssg68
(dp408
I0
g370
sI1
g371
sI2
g372
sI3
g373
sI4
g374
sI5
g375
sI6
g376
sI7
g377
sI8
g378
sI9
g379
sI10
g380
sI11
g381
sI12
g382
sI13
g383
sI14
g384
ssg70
(dp409
I0
F6933.656666666667
sI1
F6847.759999999999
sI2
F6911.166666666667
sI3
F6692.876666666666
sI4
F6565.033333333334
sI5
F7051.4
sI6
F6681.6433333333325
sI7
F6570.413333333333
sI8
F6621.066666666667
sI9
F6742.3133333333335
sI10
F6809.8133333333335
sI11
F6492.216666666666
sI12
F6879.553333333333
sI13
F6493.97
sI14
F6990.473333333333
ssg72
(dp410
I0
F1.1832120000000002
sI1
F1.127326
sI2
F1.188159
sI3
F1.256704
sI4
F1.259794
sI5
F1.1254
sI6
F1.253586
sI7
F1.1807809999999999
sI8
F1.129313
sI9
F1.2504870000000001
sI10
F1.131276
sI11
F1.178377
sI12
F1.185664
sI13
F1.247433
sI14
F1.1234620000000002
ssg74
(dp411
I0
F5965.743333333333
sI1
F5895.406666666667
sI2
F5957.406666666667
sI3
F5726.943333333333
sI4
F5647.546666666666
sI5
F6012.193333333333
sI6
F5759.736666666667
sI7
F5629.48
sI8
F5688.073333333334
sI9
F5845.7266666666665
sI10
F5847.9400000000005
sI11
F5590.53
sI12
F5922.716666666666
sI13
F5552.29
sI14
F6034.866666666667
ssg76
(dp412
I0
F9773.393333333333
sI1
F9721.026666666667
sI2
F9714.573333333334
sI3
F9439.986666666666
sI4
F9317.943333333333
sI5
F9993.206666666667
sI6
F9423.613333333335
sI7
F9230.166666666666
sI8
F9350.04
sI9
F9586.79
sI10
F9588.466666666667
sI11
F9173.026666666667
sI12
F9731.31
sI13
F9177.85
sI14
F9930.423333333334
ssg78
(dp413
I0
F3.539459
sI1
F5.441378
sI2
F3.196912
sI3
F3.91328
sI4
F3.848347
sI5
F4.749117
sI6
F3.469266
sI7
F5.532469
sI8
F6.253653
sI9
F2.586329
sI10
F4.481358
sI11
F4.88198
sI12
F3.547799
sI13
F3.666504
sI14
F4.691402
ssg80
(dp414
I0
F11.561
sI1
F11.574
sI2
F11.562
sI3
F11.605
sI4
F11.62
sI5
F11.552
sI6
F11.599
sI7
F11.624
sI8
F11.613
sI9
F11.583
sI10
F11.582
sI11
F11.631
sI12
F11.569
sI13
F11.639
sI14
F11.548
ssg82
(dp415
I0
F0.002
sI1
F0.002
sI2
F0.002
sI3
F0.002
sI4
F0.002
sI5
F0.002
sI6
F0.002
sI7
F0.002
sI8
F0.002
sI9
F0.002
sI10
F0.002
sI11
F0.002
sI12
F0.002
sI13
F0.002
sI14
F0.002
ssg84
(dp416
I0
F0.8634355663517862
sI1
Fnan
sI2
Fnan
sI3
Fnan
sI4
Fnan
sI5
Fnan
sI6
Fnan
sI7
Fnan
sI8
Fnan
sI9
Fnan
sI10
Fnan
sI11
Fnan
sI12
Fnan
sI13
Fnan
sI14
Fnan
ssg86
(dp417
I0
F11.5908
sI1
Fnan
sI2
Fnan
sI3
Fnan
sI4
Fnan
sI5
Fnan
sI6
Fnan
sI7
Fnan
sI8
Fnan
sI9
Fnan
sI10
Fnan
sI11
Fnan
sI12
Fnan
sI13
Fnan
sI14
Fnan
ssg88
(dp418
I0
F11.398
sI1
F11.411
sI2
F11.401
sI3
F11.436
sI4
F11.457
sI5
F11.379
sI6
F11.438
sI7
F11.456
sI8
F11.448
sI9
F11.428
sI10
F11.417
sI11
F11.469
sI12
F11.406
sI13
F11.469
sI14
F11.389
ssg90
(dp419
I0
F5.445444
sI1
F3.65146
sI2
F3.689291
sI3
F4.08182
sI4
F3.773297
sI5
F-3.195292
sI6
F4.978207
sI7
F4.890161
sI8
F4.562878
sI9
F3.999177
sI10
F4.815275
sI11
F5.057049
sI12
F4.283843
sI13
F5.570337
sI14
F4.508632
ssg92
(dp420
I0
F0.030115175734566357
sI1
Fnan
sI2
Fnan
sI3
Fnan
sI4
Fnan
sI5
Fnan
sI6
Fnan
sI7
Fnan
sI8
Fnan
sI9
Fnan
sI10
Fnan
sI11
Fnan
sI12
Fnan
sI13
Fnan
sI14
Fnan
ssg94
(dp421
I0
F0.7141587932439698
sI1
F0.7116280492073851
sI2
F0.716648602307827
sI3
F0.7099723359709447
sI4
F0.7111446154194858
sI5
F0.7054657758798384
sI6
F0.7152617044083122
sI7
F0.7125662475681273
sI8
F0.7122954535398508
sI9
F0.7159886917652755
sI10
F0.713238217666731
sI11
F0.7137495257547867
sI12
F0.7131136471132645
sI13
F0.7085699044527055
sI14
F0.7133034124078137
ssg96
(dp422
I0
F30.0
sI1
F30.0
sI2
F30.0
sI3
F30.0
sI4
F30.0
sI5
F30.0
sI6
F30.0
sI7
F30.0
sI8
F30.0
sI9
F30.0
sI10
F30.0
sI11
F30.0
sI12
F30.0
sI13
F30.0
sI14
F30.0
ssg98
(dp423
I0
F0.002
sI1
F0.002
sI2
F0.002
sI3
F0.003
sI4
F0.003
sI5
F0.002
sI6
F0.003
sI7
F0.003
sI8
F0.003
sI9
F0.003
sI10
F0.003
sI11
F0.003
sI12
F0.002
sI13
F0.003
sI14
F0.002
ssg100
(dp424
I0
F0.002
sI1
F0.002
sI2
F0.002
sI3
F0.002
sI4
F0.002
sI5
F0.002
sI6
F0.002
sI7
F0.002
sI8
F0.002
sI9
F0.002
sI10
F0.002
sI11
F0.002
sI12
F0.002
sI13
F0.002
sI14
F0.002
ssg102
(dp425
I0
F3.526063
sI1
F3.004561
sI2
F4.081561
sI3
F3.789068
sI4
F5.71628
sI5
F3.096904
sI6
F3.127649
sI7
F-3.267308
sI8
F-4.31717
sI9
F1.757705
sI10
F2.795598
sI11
F-1.479137
sI12
F2.908957
sI13
F3.951871
sI14
F2.480621
ssg104
(dp426
I0
S"KIC8462852-20181013at050908_-25-1X1-030-g'_cal.fts.mag.1"
p427
sI1
S"KIC8462852-20181013at044206_-25-1X1-030-g'_cal.fts.mag.1"
p428
sI2
S"KIC8462852-20181013at051115_-25-1X1-030-g'_cal.fts.mag.1"
p429
sI3
S"KIC8462852-20181013at053711_-25-1X1-030-g'_cal.fts.mag.1"
p430
sI4
S"KIC8462852-20181013at053815_-25-1X1-030-g'_cal.fts.mag.1"
p431
sI5
S"KIC8462852-20181013at044102_-25-1X1-030-g'_cal.fts.mag.1"
p432
sI6
S"KIC8462852-20181013at053607_-25-1X1-030-g'_cal.fts.mag.1"
p433
sI7
S"KIC8462852-20181013at050805_-25-1X1-030-g'_cal.fts.mag.1"
p434
sI8
S"KIC8462852-20181013at044309_-25-1X1-030-g'_cal.fts.mag.1"
p435
sI9
S"KIC8462852-20181013at053504_-25-1X1-030-g'_cal.fts.mag.1"
p436
sI10
S"KIC8462852-20181013at044414_-25-1X1-030-g'_cal.fts.mag.1"
p437
sI11
S"KIC8462852-20181013at050657_-25-1X1-030-g'_cal.fts.mag.1"
p438
sI12
S"KIC8462852-20181013at051011_-25-1X1-030-g'_cal.fts.mag.1"
p439
sI13
S"KIC8462852-20181013at053355_-25-1X1-030-g'_cal.fts.mag.1"
p440
sI14
S"KIC8462852-20181013at043947_-25-1X1-030-g'_cal.fts.mag.1"
p441
ssg121
(dp442
I0
F0.005607467291780469
sI1
Fnan
sI2
Fnan
sI3
Fnan
sI4
Fnan
sI5
Fnan
sI6
Fnan
sI7
Fnan
sI8
Fnan
sI9
Fnan
sI10
Fnan
sI11
Fnan
sI12
Fnan
sI13
Fnan
sI14
Fnan
ssg123
(dp443
I0
F6554.15
sI1
F6496.453333333334
sI2
F6488.246666666667
sI3
F6241.133333333333
sI4
F6226.509999999999
sI5
F6628.123333333334
sI6
F6243.4400000000005
sI7
F6179.713333333333
sI8
F6276.986666666667
sI9
F6399.89
sI10
F6403.016666666666
sI11
F6083.09
sI12
F6491.23
sI13
F6107.383333333333
sI14
F6594.483333333334
ssg125
(dp444
I0
F0.030007618080366526
sI1
Fnan
sI2
Fnan
sI3
Fnan
sI4
Fnan
sI5
Fnan
sI6
Fnan
sI7
Fnan
sI8
Fnan
sI9
Fnan
sI10
Fnan
sI11
Fnan
sI12
Fnan
sI13
Fnan
sI14
Fnan
ssg127
(dp445
I0
S"g'"
p446
sI1
S"g'"
p447
sI2
S"g'"
p448
sI3
S"g'"
p449
sI4
S"g'"
p450
sI5
S"g'"
p451
sI6
S"g'"
p452
sI7
S"g'"
p453
sI8
S"g'"
p454
sI9
S"g'"
p455
sI10
S"g'"
p456
sI11
S"g'"
p457
sI12
S"g'"
p458
sI13
S"g'"
p459
sI14
S"g'"
p460
ssg144
(dp461
I0
F0.003942048128275436
sI1
Fnan
sI2
Fnan
sI3
Fnan
sI4
Fnan
sI5
Fnan
sI6
Fnan
sI7
Fnan
sI8
Fnan
sI9
Fnan
sI10
Fnan
sI11
Fnan
sI12
Fnan
sI13
Fnan
sI14
Fnan
ssg146
(dp462
I0
F-3.934402
sI1
F3.321192
sI2
F-2.977976
sI3
F3.524457
sI4
F1.646292
sI5
F3.514545
sI6
F3.829034
sI7
F-3.60906
sI8
F3.613313
sI9
F3.609992
sI10
F3.49699
sI11
F1.901104
sI12
F3.452806
sI13
F4.402618
sI14
F5.060287
ssg148
(dp463
I0
F1.5199642866440732
sI1
Fnan
sI2
Fnan
sI3
Fnan
sI4
Fnan
sI5
Fnan
sI6
Fnan
sI7
Fnan
sI8
Fnan
sI9
Fnan
sI10
Fnan
sI11
Fnan
sI12
Fnan
sI13
Fnan
sI14
Fnan
ssg150
(dp464
I0
F2458404.714675926
sI1
Fnan
sI2
Fnan
sI3
Fnan
sI4
Fnan
sI5
Fnan
sI6
Fnan
sI7
Fnan
sI8
Fnan
sI9
Fnan
sI10
Fnan
sI11
Fnan
sI12
Fnan
sI13
Fnan
sI14
Fnan
ssg152
(dp465
I0
F0.003942048128275436
sI1
Fnan
sI2
Fnan
sI3
Fnan
sI4
Fnan
sI5
Fnan
sI6
Fnan
sI7
Fnan
sI8
Fnan
sI9
Fnan
sI10
Fnan
sI11
Fnan
sI12
Fnan
sI13
Fnan
sI14
Fnan
ssg154
(dp466
I0
F5.191647
sI1
F7.579408
sI2
F5.900538
sI3
F5.435187
sI4
F6.167537
sI5
F5.732383
sI6
F5.11265
sI7
F8.380898
sI8
F8.524632
sI9
F4.48807
sI10
F7.448825
sI11
F7.640231
sI12
F6.074242
sI13
F5.723555
sI14
F6.609158
ssg156
(dp467
I0
F11.025
sI1
F11.031
sI2
F11.031
sI3
F11.063
sI4
F11.077
sI5
F11.001
sI6
F11.064
sI7
F11.087
sI8
F11.073
sI9
F11.046
sI10
F11.046
sI11
F11.094
sI12
F11.03
sI13
F11.093
sI14
F11.008
ssg158
(dp468
I0
F0.8634355663517862
sI1
Fnan
sI2
Fnan
sI3
Fnan
sI4
Fnan
sI5
Fnan
sI6
Fnan
sI7
Fnan
sI8
Fnan
sI9
Fnan
sI10
Fnan
sI11
Fnan
sI12
Fnan
sI13
Fnan
sI14
Fnan
sssS'V'
p469
(dp470
g3
(dp471
I0
F0.6905638567025979
sI1
Fnan
sI2
Fnan
sI3
Fnan
sI4
Fnan
sI5
Fnan
sI6
Fnan
sI7
Fnan
sI8
Fnan
sI9
Fnan
sI10
Fnan
sI11
Fnan
sI12
Fnan
sI13
Fnan
sI14
Fnan
ssg5
(dp472
I0
S'NoError'
p473
sI1
S'NoError'
p474
sI2
S'NoError'
p475
sI3
S'NoError'
p476
sI4
S'NoError'
p477
sI5
S'NoError'
p478
sI6
S'NoError'
p479
sI7
S'NoError'
p480
sI8
S'NoError'
p481
sI9
S'NoError'
p482
sI10
S'NoError'
p483
sI11
S'NoError'
p484
sI12
S'NoError'
p485
sI13
S'NoError'
p486
sI14
S'NoError'
p487
ssg22
(dp488
I0
F0.002
sI1
F0.002
sI2
F0.002
sI3
F0.002
sI4
F0.002
sI5
F0.002
sI6
F0.002
sI7
F0.003
sI8
F0.002
sI9
F0.002
sI10
F0.002
sI11
F0.002
sI12
F0.002
sI13
F0.002
sI14
F0.002
ssg24
(dp489
I0
F0.8881350110865996
sI1
F0.8822181263674335
sI2
F0.8871574170999095
sI3
F0.8835139649437432
sI4
F0.8837752604871241
sI5
F0.8879955000318444
sI6
F0.8903938617404727
sI7
F0.8891186950364592
sI8
F0.8930361682358
sI9
F0.8868150157184245
sI10
F0.8817835364510747
sI11
F0.8915973704090562
sI12
F0.8836618179560054
sI13
F0.9010586013546656
sI14
F0.8873063692178591
ssg26
(dp490
I0
F0.004977802203673158
sI1
Fnan
sI2
Fnan
sI3
Fnan
sI4
Fnan
sI5
Fnan
sI6
Fnan
sI7
Fnan
sI8
Fnan
sI9
Fnan
sI10
Fnan
sI11
Fnan
sI12
Fnan
sI13
Fnan
sI14
Fnan
ssg28
(dp491
I0
F0.8878377810757647
sI1
Fnan
sI2
Fnan
sI3
Fnan
sI4
Fnan
sI5
Fnan
sI6
Fnan
sI7
Fnan
sI8
Fnan
sI9
Fnan
sI10
Fnan
sI11
Fnan
sI12
Fnan
sI13
Fnan
sI14
Fnan
ssg30
(dp492
I0
F11.505
sI1
F11.512
sI2
F11.504
sI3
F11.492
sI4
F11.527
sI5
F11.522
sI6
F11.509
sI7
F11.533
sI8
F11.527
sI9
F11.552
sI10
F11.5
sI11
F11.513
sI12
F11.501
sI13
F11.533
sI14
F11.539
ssg32
(dp493
I0
F8.0337
sI1
F6.476857
sI2
F5.212563
sI3
F6.08479
sI4
F7.174315
sI5
F6.496802
sI6
F5.905554
sI7
F7.350952
sI8
F5.911789
sI9
F5.871468
sI10
F6.955805
sI11
F5.624128
sI12
F5.500542
sI13
F6.375879
sI14
F6.758821
ssg34
(dp494
I0
F2458404.7108449074
sI1
F2458404.7303125
sI2
F2458404.7310532406
sI3
F2458404.7100925925
sI4
F2458404.7468171297
sI5
F2458404.748298611
sI6
F2458404.712337963
sI7
F2458404.7115972224
sI8
F2458404.749837963
sI9
F2458404.749097222
sI10
F2458404.7093402776
sI11
F2458404.7280439814
sI12
F2458404.7287962963
sI13
F2458404.729560185
sI14
F2458404.7475578706
ssg36
(dp495
I0
F5.381462066666667
sI1
Fnan
sI2
Fnan
sI3
Fnan
sI4
Fnan
sI5
Fnan
sI6
Fnan
sI7
Fnan
sI8
Fnan
sI9
Fnan
sI10
Fnan
sI11
Fnan
sI12
Fnan
sI13
Fnan
sI14
Fnan
ssg38
(dp496
I0
F3.7055557333333335
sI1
Fnan
sI2
Fnan
sI3
Fnan
sI4
Fnan
sI5
Fnan
sI6
Fnan
sI7
Fnan
sI8
Fnan
sI9
Fnan
sI10
Fnan
sI11
Fnan
sI12
Fnan
sI13
Fnan
sI14
Fnan
ssg40
(dp497
I0
F0.6903787207727157
sI1
F0.6887757261510818
sI2
F0.6863602553399407
sI3
F0.6913374857740195
sI4
F0.6901701249766072
sI5
F0.6872900488822417
sI6
F0.6899565351215252
sI7
F0.69164323102014
sI8
F0.6896488886137514
sI9
F0.6898142824763459
sI10
F0.6941303280547759
sI11
F0.6907572721439227
sI12
F0.6899921197985287
sI13
F0.6918647939029953
sI14
F0.6924270996795411
ssg42
(dp498
I0
F0.001018435644726629
sI1
Fnan
sI2
Fnan
sI3
Fnan
sI4
Fnan
sI5
Fnan
sI6
Fnan
sI7
Fnan
sI8
Fnan
sI9
Fnan
sI10
Fnan
sI11
Fnan
sI12
Fnan
sI13
Fnan
sI14
Fnan
ssg44
(dp499
I0
F3.7879323333333335
sI1
Fnan
sI2
Fnan
sI3
Fnan
sI4
Fnan
sI5
Fnan
sI6
Fnan
sI7
Fnan
sI8
Fnan
sI9
Fnan
sI10
Fnan
sI11
Fnan
sI12
Fnan
sI13
Fnan
sI14
Fnan
ssg46
(dp500
I0
g473
sI1
g474
sI2
g475
sI3
g476
sI4
g477
sI5
g478
sI6
g479
sI7
g480
sI8
g481
sI9
g482
sI10
g483
sI11
g484
sI12
g485
sI13
g486
sI14
g487
ssg48
(dp501
I0
F0.003431651126257094
sI1
Fnan
sI2
Fnan
sI3
Fnan
sI4
Fnan
sI5
Fnan
sI6
Fnan
sI7
Fnan
sI8
Fnan
sI9
Fnan
sI10
Fnan
sI11
Fnan
sI12
Fnan
sI13
Fnan
sI14
Fnan
ssg50
(dp502
I0
F0.01626945721575373
sI1
Fnan
sI2
Fnan
sI3
Fnan
sI4
Fnan
sI5
Fnan
sI6
Fnan
sI7
Fnan
sI8
Fnan
sI9
Fnan
sI10
Fnan
sI11
Fnan
sI12
Fnan
sI13
Fnan
sI14
Fnan
ssg52
(dp503
I0
F3.2942091999999996
sI1
Fnan
sI2
Fnan
sI3
Fnan
sI4
Fnan
sI5
Fnan
sI6
Fnan
sI7
Fnan
sI8
Fnan
sI9
Fnan
sI10
Fnan
sI11
Fnan
sI12
Fnan
sI13
Fnan
sI14
Fnan
ssg54
(dp504
I0
F1.5093837898380715
sI1
F1.5096277925248494
sI2
F1.5151262164003465
sI3
F1.5125274822344896
sI4
F1.5169529254839
sI5
F1.5097892039721392
sI6
F1.5058197216349627
sI7
F1.5133606405678093
sI8
F1.5073110966022365
sI9
F1.5219058039319038
sI10
F1.5101411622661076
sI11
F1.5032855308542292
sI12
F1.5093410698808347
sI13
F1.4977351826814964
sI14
F1.5065048074578766
ssg56
(dp505
I0
g473
sI1
g474
sI2
g475
sI3
g476
sI4
g477
sI5
g478
sI6
g479
sI7
g480
sI8
g481
sI9
g482
sI10
g483
sI11
g484
sI12
g485
sI13
g486
sI14
g487
ssg58
(dp506
I0
F8.953361
sI1
F7.299347
sI2
F5.245586
sI3
F7.80869
sI4
F8.020673
sI5
F8.35851
sI6
F7.556126
sI7
F9.001698
sI8
F7.272373
sI9
F8.412432
sI10
F9.370767
sI11
F6.233318
sI12
F7.178978
sI13
F6.975911
sI14
F7.991632
ssg60
(dp507
I0
F10.838866666666666
sI1
Fnan
sI2
Fnan
sI3
Fnan
sI4
Fnan
sI5
Fnan
sI6
Fnan
sI7
Fnan
sI8
Fnan
sI9
Fnan
sI10
Fnan
sI11
Fnan
sI12
Fnan
sI13
Fnan
sI14
Fnan
ssg62
(dp508
I0
F0.7114142576139741
sI1
Fnan
sI2
Fnan
sI3
Fnan
sI4
Fnan
sI5
Fnan
sI6
Fnan
sI7
Fnan
sI8
Fnan
sI9
Fnan
sI10
Fnan
sI11
Fnan
sI12
Fnan
sI13
Fnan
sI14
Fnan
ssg64
(dp509
I0
F3.84848
sI1
F4.929542
sI2
F4.749109
sI3
F2.482871
sI4
F2.183871
sI5
F2.958124
sI6
F3.677734
sI7
F4.246967
sI8
F4.987107
sI9
F3.585051
sI10
F3.340456
sI11
F3.748366
sI12
F2.049531
sI13
F4.329563
sI14
F4.466564
ssg66
(dp510
I0
F11.203533333333333
sI1
Fnan
sI2
Fnan
sI3
Fnan
sI4
Fnan
sI5
Fnan
sI6
Fnan
sI7
Fnan
sI8
Fnan
sI9
Fnan
sI10
Fnan
sI11
Fnan
sI12
Fnan
sI13
Fnan
sI14
Fnan
ssg68
(dp511
I0
g473
sI1
g474
sI2
g475
sI3
g476
sI4
g477
sI5
g478
sI6
g479
sI7
g480
sI8
g481
sI9
g482
sI10
g483
sI11
g484
sI12
g485
sI13
g486
sI14
g487
ssg70
(dp512
I0
F8395.41
sI1
F8316.56
sI2
F8439.713333333333
sI3
F8447.456666666667
sI4
F8198.933333333332
sI5
F8295.91
sI6
F8383.68
sI7
F8169.3099999999995
sI8
F8260.72
sI9
F8032.63
sI10
F8341.216666666667
sI11
F8348.186666666666
sI12
F8395.703333333333
sI13
F8241.676666666666
sI14
F8103.04
ssg72
(dp513
I0
F1.170718
sI1
F1.2407549999999998
sI2
F1.2438
sI3
F1.168333
sI4
F1.314452
sI5
F1.321879
sI6
F1.17553
sI7
F1.173109
sI8
F1.329633
sI9
F1.325841
sI10
F1.1659629999999999
sI11
F1.2317639999999999
sI12
F1.234773
sI13
F1.2377719999999999
sI14
F1.318128
ssg74
(dp514
I0
F7163.513333333333
sI1
F7166.740000000001
sI2
F7187.679999999999
sI3
F7250.5633333333335
sI4
F7014.96
sI5
F7078.509999999999
sI6
F7141.9766666666665
sI7
F6941.866666666667
sI8
F6999.416666666667
sI9
F6816.326666666666
sI10
F7191.026666666667
sI11
F7108.473333333333
sI12
F7218.496666666667
sI13
F6930.996666666667
sI14
F6936.093333333333
ssg76
(dp515
I0
F11742.193333333333
sI1
F11687.01
sI2
F11838.736666666666
sI3
F11871.843333333332
sI4
F11539.380000000001
sI5
F11606.066666666668
sI6
F11689.42
sI7
F11434.33
sI8
F11500.886666666665
sI9
F11299.356666666667
sI10
F11727.94
sI11
F11617.886666666665
sI12
F11783.576666666666
sI13
F11362.323333333334
sI14
F11328.263333333334
ssg78
(dp516
I0
F7.629082
sI1
F5.542627
sI2
F5.239301
sI3
F6.244804
sI4
F8.007148
sI5
F7.584475
sI6
F7.67258
sI7
F7.943829
sI8
F7.621936
sI9
F8.203891
sI10
F7.290956
sI11
F6.58777
sI12
F6.829387
sI13
F7.633377
sI14
F7.895531
ssg80
(dp517
I0
F11.362
sI1
F11.362
sI2
F11.359
sI3
F11.349
sI4
F11.385
sI5
F11.375
sI6
F11.365
sI7
F11.396
sI8
F11.387
sI9
F11.416
sI10
F11.358
sI11
F11.371
sI12
F11.354
sI13
F11.398
sI14
F11.397
ssg82
(dp518
I0
F0.002
sI1
F0.002
sI2
F0.002
sI3
F0.002
sI4
F0.002
sI5
F0.002
sI6
F0.002
sI7
F0.002
sI8
F0.002
sI9
F0.002
sI10
F0.002
sI11
F0.002
sI12
F0.002
sI13
F0.002
sI14
F0.002
ssg84
(dp519
I0
F0.6903031275138755
sI1
Fnan
sI2
Fnan
sI3
Fnan
sI4
Fnan
sI5
Fnan
sI6
Fnan
sI7
Fnan
sI8
Fnan
sI9
Fnan
sI10
Fnan
sI11
Fnan
sI12
Fnan
sI13
Fnan
sI14
Fnan
ssg86
(dp520
I0
F11.375599999999999
sI1
Fnan
sI2
Fnan
sI3
Fnan
sI4
Fnan
sI5
Fnan
sI6
Fnan
sI7
Fnan
sI8
Fnan
sI9
Fnan
sI10
Fnan
sI11
Fnan
sI12
Fnan
sI13
Fnan
sI14
Fnan
ssg88
(dp521
I0
F11.19
sI1
F11.2
sI2
F11.184
sI3
F11.183
sI4
F11.216
sI5
F11.203
sI6
F11.191
sI7
F11.22
sI8
F11.207
sI9
F11.238
sI10
F11.197
sI11
F11.196
sI12
F11.19
sI13
F11.21
sI14
F11.228
ssg90
(dp522
I0
F5.692917
sI1
F6.430439
sI2
F4.896127
sI3
F4.622393
sI4
F5.097637
sI5
F4.472492
sI6
F5.381827
sI7
F6.772826
sI8
F5.717547
sI9
F6.175067
sI10
F5.587039
sI11
F5.404915
sI12
F4.787613
sI13
F4.203241
sI14
F5.479851
ssg92
(dp523
I0
F0.017175009530738555
sI1
Fnan
sI2
Fnan
sI3
Fnan
sI4
Fnan
sI5
Fnan
sI6
Fnan
sI7
Fnan
sI8
Fnan
sI9
Fnan
sI10
Fnan
sI11
Fnan
sI12
Fnan
sI13
Fnan
sI14
Fnan
ssg94
(dp524
I0
F0.7114563947613097
sI1
F0.7165460965217709
sI2
F0.7088983625474334
sI3
F0.7136627081969688
sI4
F0.7107962956645739
sI5
F0.7113373830706596
sI6
F0.7115967804341797
sI7
F0.7082222145139032
sI8
F0.7083853843192912
sI9
F0.7051863612568874
sI10
F0.7166246978987822
sI11
F0.7120552163319711
sI12
F0.7154364939350331
sI13
F0.7071002516493233
sI14
F0.7139092231075252
ssg96
(dp525
I0
F30.0
sI1
F30.0
sI2
F30.0
sI3
F30.0
sI4
F30.0
sI5
F30.0
sI6
F30.0
sI7
F30.0
sI8
F30.0
sI9
F30.0
sI10
F30.0
sI11
F30.0
sI12
F30.0
sI13
F30.0
sI14
F30.0
ssg98
(dp526
I0
F0.002
sI1
F0.002
sI2
F0.002
sI3
F0.002
sI4
F0.002
sI5
F0.002
sI6
F0.002
sI7
F0.002
sI8
F0.002
sI9
F0.002
sI10
F0.002
sI11
F0.002
sI12
F0.002
sI13
F0.002
sI14
F0.002
ssg100
(dp527
I0
F0.002
sI1
F0.002
sI2
F0.002
sI3
F0.002
sI4
F0.002
sI5
F0.002
sI6
F0.002
sI7
F0.002
sI8
F0.002
sI9
F0.002
sI10
F0.002
sI11
F0.002
sI12
F0.002
sI13
F0.002
sI14
F0.002
ssg102
(dp528
I0
F3.222426
sI1
F3.197374
sI2
F4.662733
sI3
F3.462289
sI4
F4.851336
sI5
F1.842109
sI6
F4.039607
sI7
F4.607975
sI8
F4.224066
sI9
F4.575423
sI10
F-3.202571
sI11
F5.635486
sI12
F4.540716
sI13
F-2.283509
sI14
F6.037678
ssg104
(dp529
I0
S'KIC8462852-20181013at050337_-25-1X1-030-V_cal.fts.mag.1'
p530
sI1
S'KIC8462852-20181013at053139_-25-1X1-030-V_cal.fts.mag.1'
p531
sI2
S'KIC8462852-20181013at053243_-25-1X1-030-V_cal.fts.mag.1'
p532
sI3
S'KIC8462852-20181013at050232_-25-1X1-030-V_cal.fts.mag.1'
p533
sI4
S'KIC8462852-20181013at055518_-25-1X1-030-V_cal.fts.mag.1'
p534
sI5
S'KIC8462852-20181013at055733_-25-1X1-030-V_cal.fts.mag.1'
p535
sI6
S'KIC8462852-20181013at050546_-25-1X1-030-V_cal.fts.mag.1'
p536
sI7
S'KIC8462852-20181013at050442_-25-1X1-030-V_cal.fts.mag.1'
p537
sI8
S'KIC8462852-20181013at055946_-25-1X1-030-V_cal.fts.mag.1'
p538
sI9
S'KIC8462852-20181013at055842_-25-1X1-030-V_cal.fts.mag.1'
p539
sI10
S'KIC8462852-20181013at050120_-25-1X1-030-V_cal.fts.mag.1'
p540
sI11
S'KIC8462852-20181013at052816_-25-1X1-030-V_cal.fts.mag.1'
p541
sI12
S'KIC8462852-20181013at052928_-25-1X1-030-V_cal.fts.mag.1'
p542
sI13
S'KIC8462852-20181013at053034_-25-1X1-030-V_cal.fts.mag.1'
p543
sI14
S'KIC8462852-20181013at055629_-25-1X1-030-V_cal.fts.mag.1'
p544
ssg121
(dp545
I0
F0.005778070781646844
sI1
Fnan
sI2
Fnan
sI3
Fnan
sI4
Fnan
sI5
Fnan
sI6
Fnan
sI7
Fnan
sI8
Fnan
sI9
Fnan
sI10
Fnan
sI11
Fnan
sI12
Fnan
sI13
Fnan
sI14
Fnan
ssg123
(dp546
I0
F6282.703333333334
sI1
F6238.083333333333
sI2
F6283.886666666667
sI3
F6353.36
sI4
F6154.77
sI5
F6181.14
sI6
F6259.073333333334
sI7
F6120.006666666667
sI8
F6151.903333333334
sI9
F6012.493333333333
sI10
F6307.373333333334
sI11
F6233.98
sI12
F6301.416666666667
sI13
F6119.543333333333
sI14
F6085.833333333333
ssg125
(dp547
I0
F0.01980187581302059
sI1
Fnan
sI2
Fnan
sI3
Fnan
sI4
Fnan
sI5
Fnan
sI6
Fnan
sI7
Fnan
sI8
Fnan
sI9
Fnan
sI10
Fnan
sI11
Fnan
sI12
Fnan
sI13
Fnan
sI14
Fnan
ssg127
(dp548
I0
g469
sI1
g469
sI2
g469
sI3
g469
sI4
g469
sI5
g469
sI6
g469
sI7
g469
sI8
g469
sI9
g469
sI10
g469
sI11
g469
sI12
g469
sI13
g469
sI14
g469
ssg144
(dp549
I0
F0.0019371303936545842
sI1
Fnan
sI2
Fnan
sI3
Fnan
sI4
Fnan
sI5
Fnan
sI6
Fnan
sI7
Fnan
sI8
Fnan
sI9
Fnan
sI10
Fnan
sI11
Fnan
sI12
Fnan
sI13
Fnan
sI14
Fnan
ssg146
(dp550
I0
F4.547742
sI1
F1.731194
sI2
F4.242421
sI3
F3.13897
sI4
F2.929763
sI5
F4.185966
sI6
F3.530904
sI7
F4.142449
sI8
F5.25843
sI9
F4.133323
sI10
F3.199863
sI11
F3.608559
sI12
F3.489378
sI13
F3.59011
sI14
F5.089913
ssg148
(dp551
I0
F1.5099208284220835
sI1
Fnan
sI2
Fnan
sI3
Fnan
sI4
Fnan
sI5
Fnan
sI6
Fnan
sI7
Fnan
sI8
Fnan
sI9
Fnan
sI10
Fnan
sI11
Fnan
sI12
Fnan
sI13
Fnan
sI14
Fnan
ssg150
(dp552
I0
F2458404.729560185
sI1
Fnan
sI2
Fnan
sI3
Fnan
sI4
Fnan
sI5
Fnan
sI6
Fnan
sI7
Fnan
sI8
Fnan
sI9
Fnan
sI10
Fnan
sI11
Fnan
sI12
Fnan
sI13
Fnan
sI14
Fnan
ssg152
(dp553
I0
F0.0019371303936545842
sI1
Fnan
sI2
Fnan
sI3
Fnan
sI4
Fnan
sI5
Fnan
sI6
Fnan
sI7
Fnan
sI8
Fnan
sI9
Fnan
sI10
Fnan
sI11
Fnan
sI12
Fnan
sI13
Fnan
sI14
Fnan
ssg154
(dp554
I0
F10.61291
sI1
F7.737328
sI2
F7.889211
sI3
F9.120862
sI4
F10.77273
sI5
F10.6189
sI6
F10.37432
sI7
F10.1588
sI8
F9.4365
sI9
F10.55623
sI10
F11.01275
sI11
F9.580847
sI12
F10.0668
sI13
F9.641276
sI14
F10.81927
ssg156
(dp555
I0
F10.826
sI1
F10.831
sI2
F10.817
sI3
F10.814
sI4
F10.845
sI5
F10.838
sI6
F10.831
sI7
F10.854
sI8
F10.848
sI9
F10.867
sI10
F10.827
sI11
F10.837
sI12
F10.822
sI13
F10.861
sI14
F10.865
ssg158
(dp556
I0
F0.6903031275138755
sI1
Fnan
sI2
Fnan
sI3
Fnan
sI4
Fnan
sI5
Fnan
sI6
Fnan
sI7
Fnan
sI8
Fnan
sI9
Fnan
sI10
Fnan
sI11
Fnan
sI12
Fnan
sI13
Fnan
sI14
Fnan
sss.