(dp0
S'i'
p1
(dp2
S'sigmean'
p3
(dp4
I0
F0.4398768877332982
sI1
Fnan
sI2
Fnan
sI3
Fnan
sI4
Fnan
sI5
Fnan
sI6
Fnan
sI7
Fnan
sI8
Fnan
sI9
Fnan
sI10
Fnan
sI11
Fnan
sI12
Fnan
sI13
Fnan
sI14
Fnan
ssS'ref3flag'
p5
(dp6
I0
S'NoError'
p7
sI1
S'NoError'
p8
sI2
S'NoError'
p9
sI3
S'NoError'
p10
sI4
S'NoError'
p11
sI5
S'NoError'
p12
sI6
S'NoError'
p13
sI7
S'NoError'
p14
sI8
S'NoError'
p15
sI9
S'NoError'
p16
sI10
S'NoError'
p17
sI11
S'NoError'
p18
sI12
S'NoError'
p19
sI13
S'NoError'
p20
sI14
S'NoError'
p21
ssS'tabbyerr'
p22
(dp23
I0
F0.003
sI1
F0.003
sI2
F0.003
sI3
F0.003
sI4
F0.003
sI5
F0.003
sI6
F0.003
sI7
F0.003
sI8
F0.003
sI9
F0.003
sI10
F0.003
sI11
F0.003
sI12
F0.003
sI13
F0.003
sI14
F0.003
ssS'ref2rel'
p24
(dp25
I0
F0.9112059962088171
sI1
F0.916418749453843
sI2
F0.9108492339761104
sI3
F0.9138500380295973
sI4
F0.9141002007886398
sI5
F0.9134952332609195
sI6
F0.9127305235281075
sI7
F0.9191435030484688
sI8
F0.9115007777960461
sI9
F0.9167344895730407
sI10
F0.9105222898219562
sI11
F0.9122555426034005
sI12
F0.916578603962143
sI13
F0.9106476174902158
sI14
F0.9168215380408641
ssS'ref2err'
p26
(dp27
I0
F0.002751478224638724
sI1
Fnan
sI2
Fnan
sI3
Fnan
sI4
Fnan
sI5
Fnan
sI6
Fnan
sI7
Fnan
sI8
Fnan
sI9
Fnan
sI10
Fnan
sI11
Fnan
sI12
Fnan
sI13
Fnan
sI14
Fnan
ssS'ref2mean'
p28
(dp29
I0
F0.9137902891721449
sI1
Fnan
sI2
Fnan
sI3
Fnan
sI4
Fnan
sI5
Fnan
sI6
Fnan
sI7
Fnan
sI8
Fnan
sI9
Fnan
sI10
Fnan
sI11
Fnan
sI12
Fnan
sI13
Fnan
sI14
Fnan
ssS'tabbymag'
p30
(dp31
I0
F11.955
sI1
F11.894
sI2
F11.894
sI3
F11.945
sI4
F11.882
sI5
F11.894
sI6
F11.918
sI7
F11.904
sI8
F11.913
sI9
F11.893
sI10
F11.961
sI11
F11.902
sI12
F11.882
sI13
F11.953
sI14
F11.956
ssS'tabbybkg'
p32
(dp33
I0
F34.8521
sI1
F46.11505
sI2
F41.12429
sI3
F31.3663
sI4
F49.19486
sI5
F49.03318
sI6
F49.77008
sI7
F49.27908
sI8
F39.42174
sI9
F45.08203
sI10
F35.16777
sI11
F49.53628
sI12
F44.09048
sI13
F31.52067
sI14
F34.11687
ssS'JD'
p34
(dp35
I0
F2458328.683287037
sI1
F2458328.7023032405
sI2
F2458328.700833333
sI3
F2458328.6818171297
sI4
F2458328.718935185
sI5
F2458328.7218865743
sI6
F2458328.719675926
sI7
F2458328.7211574074
sI8
F2458328.7000925927
sI9
F2458328.7030439815
sI10
F2458328.6840162035
sI11
F2458328.7204166665
sI12
F2458328.701574074
sI13
F2458328.681076389
sI14
F2458328.682546296
ssS'ref3rmsmean'
p36
(dp37
I0
F-0.4448289333333333
sI1
Fnan
sI2
Fnan
sI3
Fnan
sI4
Fnan
sI5
Fnan
sI6
Fnan
sI7
Fnan
sI8
Fnan
sI9
Fnan
sI10
Fnan
sI11
Fnan
sI12
Fnan
sI13
Fnan
sI14
Fnan
ssS'ref1rmsmean'
p38
(dp39
I0
F1.7849500666666667
sI1
Fnan
sI2
Fnan
sI3
Fnan
sI4
Fnan
sI5
Fnan
sI6
Fnan
sI7
Fnan
sI8
Fnan
sI9
Fnan
sI10
Fnan
sI11
Fnan
sI12
Fnan
sI13
Fnan
sI14
Fnan
ssS'relflux'
p40
(dp41
I0
F0.4389266417600391
sI1
F0.44159174573175947
sI2
F0.4403840915114876
sI3
F0.43708526102703416
sI4
F0.44206250431677985
sI5
F0.44256701076553084
sI6
F0.43920397485032403
sI7
F0.44094282828214565
sI8
F0.4396119564994522
sI9
F0.4405125531801561
sI10
F0.43756839950116083
sI11
F0.44022384244150115
sI12
F0.4425786314046949
sI13
F0.43718381309955207
sI14
F0.4377100616278549
ssS'sigerr'
p42
(dp43
I0
F0.0018378941447782541
sI1
Fnan
sI2
Fnan
sI3
Fnan
sI4
Fnan
sI5
Fnan
sI6
Fnan
sI7
Fnan
sI8
Fnan
sI9
Fnan
sI10
Fnan
sI11
Fnan
sI12
Fnan
sI13
Fnan
sI14
Fnan
ssS'tabbyrmsmean'
p44
(dp45
I0
F2.7277151999999996
sI1
Fnan
sI2
Fnan
sI3
Fnan
sI4
Fnan
sI5
Fnan
sI6
Fnan
sI7
Fnan
sI8
Fnan
sI9
Fnan
sI10
Fnan
sI11
Fnan
sI12
Fnan
sI13
Fnan
sI14
Fnan
ssS'tabbyflag'
p46
(dp47
I0
g7
sI1
g8
sI2
g9
sI3
g10
sI4
g11
sI5
g12
sI6
g13
sI7
g14
sI8
g15
sI9
g16
sI10
g17
sI11
g18
sI12
g19
sI13
g20
sI14
g21
ssS'ref1err'
p48
(dp49
I0
F0.0018546257322317686
sI1
Fnan
sI2
Fnan
sI3
Fnan
sI4
Fnan
sI5
Fnan
sI6
Fnan
sI7
Fnan
sI8
Fnan
sI9
Fnan
sI10
Fnan
sI11
Fnan
sI12
Fnan
sI13
Fnan
sI14
Fnan
ssS'ref2magmeanerr'
p50
(dp51
I0
F0.025989558342864025
sI1
Fnan
sI2
Fnan
sI3
Fnan
sI4
Fnan
sI5
Fnan
sI6
Fnan
sI7
Fnan
sI8
Fnan
sI9
Fnan
sI10
Fnan
sI11
Fnan
sI12
Fnan
sI13
Fnan
sI14
Fnan
ssS'ref2rmsmean'
p52
(dp53
I0
F1.8127930666666665
sI1
Fnan
sI2
Fnan
sI3
Fnan
sI4
Fnan
sI5
Fnan
sI6
Fnan
sI7
Fnan
sI8
Fnan
sI9
Fnan
sI10
Fnan
sI11
Fnan
sI12
Fnan
sI13
Fnan
sI14
Fnan
ssS'ref3rel'
p54
(dp55
I0
F1.5004136881497123
sI1
F1.48938844633715
sI2
F1.4974206038142617
sI3
F1.500640260999976
sI4
F1.4960224067090109
sI5
F1.4973784096789104
sI6
F1.4960584633283562
sI7
F1.49321446034514
sI8
F1.4946336848064259
sI9
F1.4901429020085233
sI10
F1.5062679327988697
sI11
F1.4964277073100278
sI12
F1.4902464746655077
sI13
F1.500190312345282
sI14
F1.4946661109485826
ssS'ref1flag'
p56
(dp57
I0
g7
sI1
g8
sI2
g9
sI3
g10
sI4
g11
sI5
g12
sI6
g13
sI7
g14
sI8
g15
sI9
g16
sI10
g17
sI11
g18
sI12
g19
sI13
g20
sI14
g21
ssS'ref2bkg'
p58
(dp59
I0
F35.32134
sI1
F47.19466
sI2
F43.6335
sI3
F33.31414
sI4
F50.92664
sI5
F51.58447
sI6
F52.45677
sI7
F51.72102
sI8
F42.11212
sI9
F49.72515
sI10
F38.80799
sI11
F51.61688
sI12
F46.34311
sI13
F33.10127
sI14
F36.19318
ssS'ref3magmean'
p60
(dp61
I0
F10.753400000000001
sI1
Fnan
sI2
Fnan
sI3
Fnan
sI4
Fnan
sI5
Fnan
sI6
Fnan
sI7
Fnan
sI8
Fnan
sI9
Fnan
sI10
Fnan
sI11
Fnan
sI12
Fnan
sI13
Fnan
sI14
Fnan
ssS'ref1mean'
p62
(dp63
I0
F0.6970223069510945
sI1
Fnan
sI2
Fnan
sI3
Fnan
sI4
Fnan
sI5
Fnan
sI6
Fnan
sI7
Fnan
sI8
Fnan
sI9
Fnan
sI10
Fnan
sI11
Fnan
sI12
Fnan
sI13
Fnan
sI14
Fnan
ssS'ref1rms'
p64
(dp65
I0
F4.9177
sI1
F3.717339
sI2
F3.343159
sI3
F1.724429
sI4
F-2.60957
sI5
F5.049349
sI6
F3.704834
sI7
F2.695194
sI8
F2.780627
sI9
F2.308656
sI10
F-4.189913
sI11
F5.058969
sI12
F4.587965
sI13
F-3.116671
sI14
F-3.197816
ssS'ref2magmean'
p66
(dp67
I0
F11.091199999999997
sI1
Fnan
sI2
Fnan
sI3
Fnan
sI4
Fnan
sI5
Fnan
sI6
Fnan
sI7
Fnan
sI8
Fnan
sI9
Fnan
sI10
Fnan
sI11
Fnan
sI12
Fnan
sI13
Fnan
sI14
Fnan
ssS'ref2flag'
p68
(dp69
I0
g7
sI1
g8
sI2
g9
sI3
g10
sI4
g11
sI5
g12
sI6
g13
sI7
g14
sI8
g15
sI9
g16
sI10
g17
sI11
g18
sI12
g19
sI13
g20
sI14
g21
ssS'ref2'
p70
(dp71
I0
F8874.476666666666
sI1
F9368.5
sI2
F9354.046666666667
sI3
F9015.243333333334
sI4
F9446.54
sI5
F9328.05
sI6
F9187.166666666666
sI7
F9320.173333333334
sI8
F9212.126666666667
sI9
F9401.54
sI10
F8850.09
sI11
F9302.336666666666
sI12
F9454.16
sI13
F8928.609999999999
sI14
F8929.99
ssS'airmass'
p72
(dp73
I0
F1.180854
sI1
F1.124822
sI2
F1.128673
sI3
F1.185743
sI4
F1.086135
sI5
F1.080202
sI6
F1.084609
sI7
F1.081656
sI8
F1.130635
sI9
F1.122894
sI10
F1.1784459999999999
sI11
F1.083124
sI12
F1.126741
sI13
F1.188235
sI14
F1.183296
ssS'ref1'
p74
(dp75
I0
F7325.326666666666
sI1
F7720.1066666666675
sI2
F7740.3933333333325
sI3
F7407.746666666667
sI4
F7781.633333333333
sI5
F7685.16
sI6
F7585.056666666667
sI7
F7627.14
sI8
F7628.1066666666675
sI9
F7739.576666666666
sI10
F7286.543333333333
sI11
F7684.42
sI12
F7784.3933333333325
sI13
F7377.916666666667
sI14
F7329.253333333333
ssS'ref3'
p76
(dp77
I0
F12153.203333333333
sI1
F12725.786666666665
sI2
F12798.783333333333
sI3
F12322.5
sI4
F12886.866666666667
sI5
F12737.606666666667
sI6
F12546.113333333335
sI7
F12652.986666666666
sI8
F12584.99
sI9
F12771.356666666667
sI10
F12153.046666666667
sI11
F12709.726666666666
sI12
F12844.846666666668
sI13
F12231.446666666667
sI14
F12151.07
ssS'ref1bkg'
p78
(dp79
I0
F35.49139
sI1
F46.10076
sI2
F42.16859
sI3
F31.82651
sI4
F50.4696
sI5
F51.41938
sI6
F50.96015
sI7
F50.70918
sI8
F41.94671
sI9
F46.53596
sI10
F37.40044
sI11
F49.50776
sI12
F45.12481
sI13
F32.04785
sI14
F34.76452
ssS'ref1mag'
p80
(dp81
I0
F11.338
sI1
F11.281
sI2
F11.278
sI3
F11.326
sI4
F11.272
sI5
F11.286
sI6
F11.3
sI7
F11.294
sI8
F11.294
sI9
F11.278
sI10
F11.344
sI11
F11.286
sI12
F11.272
sI13
F11.33
sI14
F11.337
ssS'ref3magerr'
p82
(dp83
I0
F0.002
sI1
F0.002
sI2
F0.002
sI3
F0.002
sI4
F0.002
sI5
F0.002
sI6
F0.002
sI7
F0.002
sI8
F0.002
sI9
F0.002
sI10
F0.002
sI11
F0.002
sI12
F0.002
sI13
F0.002
sI14
F0.002
ssS'tabbymagmean'
p84
(dp85
I0
F0.4398768877332982
sI1
Fnan
sI2
Fnan
sI3
Fnan
sI4
Fnan
sI5
Fnan
sI6
Fnan
sI7
Fnan
sI8
Fnan
sI9
Fnan
sI10
Fnan
sI11
Fnan
sI12
Fnan
sI13
Fnan
sI14
Fnan
ssS'ref1magmean'
p86
(dp87
I0
F11.301066666666665
sI1
Fnan
sI2
Fnan
sI3
Fnan
sI4
Fnan
sI5
Fnan
sI6
Fnan
sI7
Fnan
sI8
Fnan
sI9
Fnan
sI10
Fnan
sI11
Fnan
sI12
Fnan
sI13
Fnan
sI14
Fnan
ssS'ref2mag'
p88
(dp89
I0
F11.13
sI1
F11.071
sI2
F11.073
sI3
F11.113
sI4
F11.062
sI5
F11.076
sI6
F11.092
sI7
F11.076
sI8
F11.089
sI9
F11.067
sI10
F11.133
sI11
F11.079
sI12
F11.061
sI13
F11.123
sI14
F11.123
ssS'ref3rms'
p90
(dp91
I0
F3.439991
sI1
F6.35841
sI2
F-3.886867
sI3
F-1.261792
sI4
F3.01712
sI5
F-4.276289
sI6
F-3.740413
sI7
F4.360137
sI8
F5.157181
sI9
F-2.357928
sI10
F-4.229735
sI11
F-2.412436
sI12
F-1.150324
sI13
F-3.345088
sI14
F-2.344401
ssS'ref3magmeanerr'
p92
(dp93
I0
F0.02359116057219034
sI1
Fnan
sI2
Fnan
sI3
Fnan
sI4
Fnan
sI5
Fnan
sI6
Fnan
sI7
Fnan
sI8
Fnan
sI9
Fnan
sI10
Fnan
sI11
Fnan
sI12
Fnan
sI13
Fnan
sI14
Fnan
ssS'ref1rel'
p94
(dp95
I0
F0.6967317998625303
sI1
F0.6988328506042136
sI2
F0.6988175626620465
sI3
F0.6943327184083666
sI4
F0.6968603983688411
sI5
F0.6965720636458134
sI6
F0.6980130626087427
sI7
F0.6942233160819837
sI8
F0.699918873061957
sI9
F0.69811146310909
sI10
F0.6938528705474309
sI11
F0.6982007895973406
sI12
F0.6981829683893243
sI13
F0.6973437531752043
sI14
F0.695340114143533
ssS'exposure'
p96
(dp97
I0
F30.0
sI1
F30.0
sI2
F30.0
sI3
F30.0
sI4
F30.0
sI5
F30.0
sI6
F30.0
sI7
F30.0
sI8
F30.0
sI9
F30.0
sI10
F30.0
sI11
F30.0
sI12
F30.0
sI13
F30.0
sI14
F30.0
ssS'ref1magerr'
p98
(dp99
I0
F0.002
sI1
F0.002
sI2
F0.002
sI3
F0.002
sI4
F0.002
sI5
F0.002
sI6
F0.002
sI7
F0.002
sI8
F0.002
sI9
F0.002
sI10
F0.002
sI11
F0.002
sI12
F0.002
sI13
F0.002
sI14
F0.002
ssS'ref2magerr'
p100
(dp101
I0
F0.002
sI1
F0.002
sI2
F0.002
sI3
F0.002
sI4
F0.002
sI5
F0.002
sI6
F0.002
sI7
F0.002
sI8
F0.002
sI9
F0.002
sI10
F0.002
sI11
F0.002
sI12
F0.002
sI13
F0.002
sI14
F0.002
ssS'ref2rms'
p102
(dp103
I0
F5.670679
sI1
F-2.825282
sI2
F4.426863
sI3
F3.418812
sI4
F3.247428
sI5
F5.356646
sI6
F-2.51609
sI7
F5.258346
sI8
F2.316844
sI9
F-2.598372
sI10
F-2.727034
sI11
F5.00161
sI12
F3.797136
sI13
F-3.947681
sI14
F3.311991
ssS'name'
p104
(dp105
I0
S"KIC8462852-20180729at042356_-25-1X1-030-i'_cal.fts.mag.1"
p106
sI1
S"KIC8462852-20180729at045119_-25-1X1-030-i'_cal.fts.mag.1"
p107
sI2
S"KIC8462852-20180729at044912_-25-1X1-030-i'_cal.fts.mag.1"
p108
sI3
S"KIC8462852-20180729at042149_-25-1X1-030-i'_cal.fts.mag.1"
p109
sI4
S"KIC8462852-20180729at051515_-25-1X1-030-i'_cal.fts.mag.1"
p110
sI5
S"KIC8462852-20180729at051931_-25-1X1-030-i'_cal.fts.mag.1"
p111
sI6
S"KIC8462852-20180729at051620_-25-1X1-030-i'_cal.fts.mag.1"
p112
sI7
S"KIC8462852-20180729at051827_-25-1X1-030-i'_cal.fts.mag.1"
p113
sI8
S"KIC8462852-20180729at044807_-25-1X1-030-i'_cal.fts.mag.1"
p114
sI9
S"KIC8462852-20180729at045223_-25-1X1-030-i'_cal.fts.mag.1"
p115
sI10
S"KIC8462852-20180729at042459_-25-1X1-030-i'_cal.fts.mag.1"
p116
sI11
S"KIC8462852-20180729at051724_-25-1X1-030-i'_cal.fts.mag.1"
p117
sI12
S"KIC8462852-20180729at045016_-25-1X1-030-i'_cal.fts.mag.1"
p118
sI13
S"KIC8462852-20180729at042043_-25-1X1-030-i'_cal.fts.mag.1"
p119
sI14
S"KIC8462852-20180729at042252_-25-1X1-030-i'_cal.fts.mag.1"
p120
ssS'ref3err'
p121
(dp122
I0
F0.004551199446936027
sI1
Fnan
sI2
Fnan
sI3
Fnan
sI4
Fnan
sI5
Fnan
sI6
Fnan
sI7
Fnan
sI8
Fnan
sI9
Fnan
sI10
Fnan
sI11
Fnan
sI12
Fnan
sI13
Fnan
sI14
Fnan
ssS'tabby'
p123
(dp124
I0
F4148.296666666666
sI1
F4388.596666666666
sI2
F4388.166666666667
sI3
F4188.076666666667
sI4
F4437.576666666666
sI5
F4388.91
sI6
F4292.243333333334
sI7
F4350.679999999999
sI8
F4311.893333333333
sI9
F4392.2733333333335
sI10
F4126.223333333333
sI11
F4357.7
sI12
F4438.09
sI13
F4158.78
sI14
F4145.16
ssS'ref1magmeanerr'
p125
(dp126
I0
F0.026279994201637145
sI1
Fnan
sI2
Fnan
sI3
Fnan
sI4
Fnan
sI5
Fnan
sI6
Fnan
sI7
Fnan
sI8
Fnan
sI9
Fnan
sI10
Fnan
sI11
Fnan
sI12
Fnan
sI13
Fnan
sI14
Fnan
ssS'filter'
p127
(dp128
I0
S"i'"
p129
sI1
S"i'"
p130
sI2
S"i'"
p131
sI3
S"i'"
p132
sI4
S"i'"
p133
sI5
S"i'"
p134
sI6
S"i'"
p135
sI7
S"i'"
p136
sI8
S"i'"
p137
sI9
S"i'"
p138
sI10
S"i'"
p139
sI11
S"i'"
p140
sI12
S"i'"
p141
sI13
S"i'"
p142
sI14
S"i'"
p143
ssS'tabbymagerr'
p144
(dp145
I0
F0.0019024011765426654
sI1
Fnan
sI2
Fnan
sI3
Fnan
sI4
Fnan
sI5
Fnan
sI6
Fnan
sI7
Fnan
sI8
Fnan
sI9
Fnan
sI10
Fnan
sI11
Fnan
sI12
Fnan
sI13
Fnan
sI14
Fnan
ssS'tabbyrms'
p146
(dp147
I0
F3.721552
sI1
F1.825777
sI2
F3.113006
sI3
F1.353181
sI4
F4.624422
sI5
F4.248068
sI6
F3.950127
sI7
F5.183647
sI8
F4.600387
sI9
F3.882976
sI10
F3.786836
sI11
F3.158705
sI12
F4.181688
sI13
F-3.903456
sI14
F-2.811188
ssS'ref3mean'
p148
(dp149
I0
F1.4962074576163824
sI1
Fnan
sI2
Fnan
sI3
Fnan
sI4
Fnan
sI5
Fnan
sI6
Fnan
sI7
Fnan
sI8
Fnan
sI9
Fnan
sI10
Fnan
sI11
Fnan
sI12
Fnan
sI13
Fnan
sI14
Fnan
ssS'median_JD'
p150
(dp151
I0
F2458328.701574074
sI1
Fnan
sI2
Fnan
sI3
Fnan
sI4
Fnan
sI5
Fnan
sI6
Fnan
sI7
Fnan
sI8
Fnan
sI9
Fnan
sI10
Fnan
sI11
Fnan
sI12
Fnan
sI13
Fnan
sI14
Fnan
ssS'error'
p152
(dp153
I0
F0.0019024011765426654
sI1
Fnan
sI2
Fnan
sI3
Fnan
sI4
Fnan
sI5
Fnan
sI6
Fnan
sI7
Fnan
sI8
Fnan
sI9
Fnan
sI10
Fnan
sI11
Fnan
sI12
Fnan
sI13
Fnan
sI14
Fnan
ssS'ref3bkg'
p154
(dp155
I0
F38.17435
sI1
F47.94073
sI2
F45.0886
sI3
F35.72867
sI4
F52.88348
sI5
F55.32789
sI6
F54.45044
sI7
F54.37382
sI8
F43.88102
sI9
F49.26167
sI10
F39.91925
sI11
F54.08913
sI12
F47.50406
sI13
F35.10666
sI14
F38.3903
ssS'ref3mag'
p156
(dp157
I0
F10.788
sI1
F10.738
sI2
F10.732
sI3
F10.773
sI4
F10.725
sI5
F10.737
sI6
F10.754
sI7
F10.745
sI8
F10.75
sI9
F10.734
sI10
F10.788
sI11
F10.74
sI12
F10.728
sI13
F10.781
sI14
F10.788
ssS'mean'
p158
(dp159
I0
F0.4398768877332982
sI1
Fnan
sI2
Fnan
sI3
Fnan
sI4
Fnan
sI5
Fnan
sI6
Fnan
sI7
Fnan
sI8
Fnan
sI9
Fnan
sI10
Fnan
sI11
Fnan
sI12
Fnan
sI13
Fnan
sI14
Fnan
sssS'r'
p160
(dp161
g3
(dp162
I0
F0.5493299249214739
sI1
Fnan
sI2
Fnan
sI3
Fnan
sI4
Fnan
sI5
Fnan
sI6
Fnan
sI7
Fnan
sI8
Fnan
sI9
Fnan
sI10
Fnan
sI11
Fnan
sI12
Fnan
sI13
Fnan
sI14
Fnan
ssg5
(dp163
I0
S'NoError'
p164
sI1
S'NoError'
p165
sI2
S'NoError'
p166
sI3
S'NoError'
p167
sI4
S'NoError'
p168
sI5
S'NoError'
p169
sI6
S'NoError'
p170
sI7
S'NoError'
p171
sI8
S'NoError'
p172
sI9
S'NoError'
p173
sI10
S'NoError'
p174
sI11
S'NoError'
p175
sI12
S'NoError'
p176
sI13
S'NoError'
p177
sI14
S'NoError'
p178
ssg22
(dp179
I0
F0.002
sI1
F0.002
sI2
F0.002
sI3
F0.002
sI4
F0.002
sI5
F0.002
sI6
F0.002
sI7
F0.003
sI8
F0.002
sI9
F0.002
sI10
F0.002
sI11
F0.002
sI12
F0.002
sI13
F0.002
sI14
F0.002
ssg24
(dp180
I0
F0.9007403814154695
sI1
F0.8983486912831566
sI2
F0.8979104542502323
sI3
F0.8978513256901607
sI4
F0.9001453756844306
sI5
F0.8971617737062563
sI6
F0.9000641933544594
sI7
F0.9020906326132017
sI8
F0.8954352635460633
sI9
F0.8965694786620763
sI10
F0.9002232620656584
sI11
F0.8927355763511702
sI12
F0.895065858323846
sI13
F0.8998767761791091
sI14
F0.9060928689522452
ssg26
(dp181
I0
F0.003226886066171184
sI1
Fnan
sI2
Fnan
sI3
Fnan
sI4
Fnan
sI5
Fnan
sI6
Fnan
sI7
Fnan
sI8
Fnan
sI9
Fnan
sI10
Fnan
sI11
Fnan
sI12
Fnan
sI13
Fnan
sI14
Fnan
ssg28
(dp182
I0
F0.898687460805169
sI1
Fnan
sI2
Fnan
sI3
Fnan
sI4
Fnan
sI5
Fnan
sI6
Fnan
sI7
Fnan
sI8
Fnan
sI9
Fnan
sI10
Fnan
sI11
Fnan
sI12
Fnan
sI13
Fnan
sI14
Fnan
ssg30
(dp183
I0
F11.225
sI1
F11.251
sI2
F11.294
sI3
F11.255
sI4
F11.284
sI5
F11.21
sI6
F11.465
sI7
F11.534
sI8
F11.37
sI9
F11.223
sI10
F11.227
sI11
F11.23
sI12
F11.231
sI13
F11.213
sI14
F11.237
ssg32
(dp184
I0
F97.16122
sI1
F75.05918
sI2
F48.49684
sI3
F74.52198
sI4
F49.08982
sI5
F96.42416
sI6
F52.03888
sI7
F53.49058
sI8
F50.59723
sI9
F91.60465
sI10
F76.0276
sI11
F77.86034
sI12
F92.03185
sI13
F93.56767
sI14
F75.07057
ssg34
(dp185
I0
F2458328.7181944447
sI1
F2458328.6971180555
sI2
F2458328.6795949074
sI3
F2458328.696388889
sI4
F2458328.680324074
sI5
F2458328.7174537037
sI6
F2458328.678136574
sI7
F2458328.677395833
sI8
F2458328.6788657405
sI9
F2458328.7159837964
sI10
F2458328.698611111
sI11
F2458328.699340278
sI12
F2458328.7152430555
sI13
F2458328.716724537
sI14
F2458328.6978587965
ssg36
(dp186
I0
F2.501854553333333
sI1
Fnan
sI2
Fnan
sI3
Fnan
sI4
Fnan
sI5
Fnan
sI6
Fnan
sI7
Fnan
sI8
Fnan
sI9
Fnan
sI10
Fnan
sI11
Fnan
sI12
Fnan
sI13
Fnan
sI14
Fnan
ssg38
(dp187
I0
F-0.45736673333333316
sI1
Fnan
sI2
Fnan
sI3
Fnan
sI4
Fnan
sI5
Fnan
sI6
Fnan
sI7
Fnan
sI8
Fnan
sI9
Fnan
sI10
Fnan
sI11
Fnan
sI12
Fnan
sI13
Fnan
sI14
Fnan
ssg40
(dp188
I0
F0.5492274834187306
sI1
F0.5474648790604549
sI2
F0.5476631019764017
sI3
F0.5479927646436029
sI4
F0.5439882585100515
sI5
F0.5503639600443977
sI6
F0.5495526591692924
sI7
F0.5453683120038485
sI8
F0.5513024728555167
sI9
F0.5513316838143294
sI10
F0.5476255466392664
sI11
F0.5501570132588974
sI12
F0.5525580362699049
sI13
F0.552092824382442
sI14
F0.5479182113635498
ssg42
(dp189
I0
F0.002007176743173457
sI1
Fnan
sI2
Fnan
sI3
Fnan
sI4
Fnan
sI5
Fnan
sI6
Fnan
sI7
Fnan
sI8
Fnan
sI9
Fnan
sI10
Fnan
sI11
Fnan
sI12
Fnan
sI13
Fnan
sI14
Fnan
ssg44
(dp190
I0
F1.5859728
sI1
Fnan
sI2
Fnan
sI3
Fnan
sI4
Fnan
sI5
Fnan
sI6
Fnan
sI7
Fnan
sI8
Fnan
sI9
Fnan
sI10
Fnan
sI11
Fnan
sI12
Fnan
sI13
Fnan
sI14
Fnan
ssg46
(dp191
I0
g164
sI1
g165
sI2
g166
sI3
g167
sI4
g168
sI5
g169
sI6
g170
sI7
g171
sI8
g172
sI9
g173
sI10
g174
sI11
g175
sI12
g176
sI13
g177
sI14
g178
ssg48
(dp192
I0
F0.003320039830430673
sI1
Fnan
sI2
Fnan
sI3
Fnan
sI4
Fnan
sI5
Fnan
sI6
Fnan
sI7
Fnan
sI8
Fnan
sI9
Fnan
sI10
Fnan
sI11
Fnan
sI12
Fnan
sI13
Fnan
sI14
Fnan
ssg50
(dp193
I0
F0.09558406920462359
sI1
Fnan
sI2
Fnan
sI3
Fnan
sI4
Fnan
sI5
Fnan
sI6
Fnan
sI7
Fnan
sI8
Fnan
sI9
Fnan
sI10
Fnan
sI11
Fnan
sI12
Fnan
sI13
Fnan
sI14
Fnan
ssg52
(dp194
I0
F1.802785666666667
sI1
Fnan
sI2
Fnan
sI3
Fnan
sI4
Fnan
sI5
Fnan
sI6
Fnan
sI7
Fnan
sI8
Fnan
sI9
Fnan
sI10
Fnan
sI11
Fnan
sI12
Fnan
sI13
Fnan
sI14
Fnan
ssg54
(dp195
I0
F1.4920854801173096
sI1
F1.4948001755332574
sI2
F1.5013111347120016
sI3
F1.4948683657010409
sI4
F1.5011987414143126
sI5
F1.4931655487088409
sI6
F1.4915889831652076
sI7
F1.4930927685897495
sI8
F1.4970411609000578
sI9
F1.4894571781773587
sI10
F1.4911906958861474
sI11
F1.489946542161898
sI12
F1.4923526967364893
sI13
F1.4892176292510564
sI14
F1.4854580163405298
ssg56
(dp196
I0
g164
sI1
g165
sI2
g166
sI3
g167
sI4
g168
sI5
g169
sI6
g170
sI7
g171
sI8
g172
sI9
g173
sI10
g174
sI11
g175
sI12
g176
sI13
g177
sI14
g178
ssg58
(dp197
I0
F98.75047
sI1
F77.70925
sI2
F51.66269
sI3
F76.63033
sI4
F52.11512
sI5
F99.60554
sI6
F53.81615
sI7
F55.19458
sI8
F54.15517
sI9
F95.63806
sI10
F77.36118
sI11
F82.69812
sI12
F97.30643
sI13
F96.80886
sI14
F77.01867
ssg60
(dp198
I0
F10.3622
sI1
Fnan
sI2
Fnan
sI3
Fnan
sI4
Fnan
sI5
Fnan
sI6
Fnan
sI7
Fnan
sI8
Fnan
sI9
Fnan
sI10
Fnan
sI11
Fnan
sI12
Fnan
sI13
Fnan
sI14
Fnan
ssg62
(dp199
I0
F0.7119541696349495
sI1
Fnan
sI2
Fnan
sI3
Fnan
sI4
Fnan
sI5
Fnan
sI6
Fnan
sI7
Fnan
sI8
Fnan
sI9
Fnan
sI10
Fnan
sI11
Fnan
sI12
Fnan
sI13
Fnan
sI14
Fnan
ssg64
(dp200
I0
F-3.879568
sI1
F-4.207393
sI2
F-3.358612
sI3
F5.473672
sI4
F-2.79034
sI5
F2.852468
sI6
F-2.260809
sI7
F5.037846
sI8
F-4.069005
sI9
F-3.306151
sI10
F1.321673
sI11
F4.422734
sI12
F3.967388
sI13
F-2.396953
sI14
F-3.667451
ssg66
(dp201
I0
F10.7108
sI1
Fnan
sI2
Fnan
sI3
Fnan
sI4
Fnan
sI5
Fnan
sI6
Fnan
sI7
Fnan
sI8
Fnan
sI9
Fnan
sI10
Fnan
sI11
Fnan
sI12
Fnan
sI13
Fnan
sI14
Fnan
ssg68
(dp202
I0
g164
sI1
g165
sI2
g166
sI3
g167
sI4
g168
sI5
g169
sI6
g170
sI7
g171
sI8
g172
sI9
g173
sI10
g174
sI11
g175
sI12
g176
sI13
g177
sI14
g178
ssg70
(dp203
I0
F13790.246666666668
sI1
F13477.516666666666
sI2
F12942.390000000001
sI3
F13410.753333333332
sI4
F13174.206666666667
sI5
F13908.85
sI6
F11041.65
sI7
F10456.769999999999
sI8
F11973.206666666667
sI9
F13709.94
sI10
F13801.333333333334
sI11
F13621.063333333334
sI12
F13563.256666666666
sI13
F13857.03
sI14
F13718.513333333334
ssg72
(dp204
I0
F1.087696
sI1
F1.1387530000000001
sI2
F1.193333
sI3
F1.140823
sI4
F1.1908290000000001
sI5
F1.089238
sI6
F1.198484
sI7
F1.201064
sI8
F1.195894
sI9
F1.092371
sI10
F1.1346610000000001
sI11
F1.132679
sI12
F1.093967
sI13
F1.090794
sI14
F1.1366829999999999
ssg74
(dp205
I0
F11644.44
sI1
F11406.656666666668
sI2
F10917.35
sI3
F11359.133333333333
sI4
F11072.056666666667
sI5
F11807.186666666666
sI6
F9336.980000000001
sI7
F8804.203333333333
sI8
F10168.923333333334
sI9
F11676.843333333332
sI10
F11670.41
sI11
F11672.390000000001
sI12
F11560.196666666667
sI13
F11738.763333333334
sI14
F11528.730000000001
ssg76
(dp206
I0
F18975.363333333335
sI1
F18598.433333333334
sI2
F17910.446666666667
sI3
F18513.86
sI4
F18199.23
sI5
F19199.15
sI6
F15198.269999999999
sI7
F14379.21
sI8
F16573.84
sI9
F18906.263333333332
sI10
F18991.613333333335
sI11
F18842.946666666667
sI12
F18746.52666666667
sI13
F19058.853333333333
sI14
F18751.86
ssg78
(dp207
I0
F98.56988
sI1
F76.23797
sI2
F50.45139
sI3
F76.46275
sI4
F52.12943
sI5
F97.59547
sI6
F53.54626
sI7
F55.25985
sI8
F52.89688
sI9
F95.01407
sI10
F78.73872
sI11
F79.14823
sI12
F93.45759
sI13
F95.18587
sI14
F77.74924
ssg80
(dp208
I0
F10.835
sI1
F10.857
sI2
F10.905
sI3
F10.862
sI4
F10.889
sI5
F10.82
sI6
F11.074
sI7
F11.138
sI8
F10.982
sI9
F10.832
sI10
F10.832
sI11
F10.832
sI12
F10.843
sI13
F10.826
sI14
F10.846
ssg82
(dp209
I0
F0.001
sI1
F0.001
sI2
F0.001
sI3
F0.001
sI4
F0.001
sI5
F0.001
sI6
F0.001
sI7
F0.002
sI8
F0.001
sI9
F0.001
sI10
F0.001
sI11
F0.001
sI12
F0.001
sI13
F0.001
sI14
F0.001
ssg84
(dp210
I0
F0.5489738138273791
sI1
Fnan
sI2
Fnan
sI3
Fnan
sI4
Fnan
sI5
Fnan
sI6
Fnan
sI7
Fnan
sI8
Fnan
sI9
Fnan
sI10
Fnan
sI11
Fnan
sI12
Fnan
sI13
Fnan
sI14
Fnan
ssg86
(dp211
I0
F10.891533333333332
sI1
Fnan
sI2
Fnan
sI3
Fnan
sI4
Fnan
sI5
Fnan
sI6
Fnan
sI7
Fnan
sI8
Fnan
sI9
Fnan
sI10
Fnan
sI11
Fnan
sI12
Fnan
sI13
Fnan
sI14
Fnan
ssg88
(dp212
I0
F10.651
sI1
F10.676
sI2
F10.72
sI3
F10.681
sI4
F10.701
sI5
F10.642
sI6
F10.892
sI7
F10.952
sI8
F10.804
sI9
F10.657
sI10
F10.65
sI11
F10.664
sI12
F10.669
sI13
F10.646
sI14
F10.657
ssg90
(dp213
I0
F-5.555849
sI1
F3.664837
sI2
F4.835815
sI3
F4.918555
sI4
F-3.426666
sI5
F4.525776
sI6
F-2.163915
sI7
F-0.5466797
sI8
F4.676293
sI9
F3.383696
sI10
F6.584058
sI11
F5.462261
sI12
F4.061382
sI13
F2.506914
sI14
F4.601341
ssg92
(dp214
I0
F0.0957945718712704
sI1
Fnan
sI2
Fnan
sI3
Fnan
sI4
Fnan
sI5
Fnan
sI6
Fnan
sI7
Fnan
sI8
Fnan
sI9
Fnan
sI10
Fnan
sI11
Fnan
sI12
Fnan
sI13
Fnan
sI14
Fnan
ssg94
(dp215
I0
F0.7107720564335595
sI1
F0.711227986492476
sI2
F0.707704780468052
sI3
F0.7116222968610217
sI4
F0.7058236421023263
sI5
F0.7132527888526439
sI6
F0.7116622306775328
sI7
F0.7089877937841257
sI8
F0.7124325995660497
sI9
F0.71601487236252
sI10
F0.7117634239232745
sI11
F0.7190972402977944
sI12
F0.7155849079767893
sI13
F0.7132582901972858
sI14
F0.7101076345287889
ssg96
(dp216
I0
F30.0
sI1
F30.0
sI2
F30.0
sI3
F30.0
sI4
F30.0
sI5
F30.0
sI6
F30.0
sI7
F30.0
sI8
F30.0
sI9
F30.0
sI10
F30.0
sI11
F30.0
sI12
F30.0
sI13
F30.0
sI14
F30.0
ssg98
(dp217
I0
F0.002
sI1
F0.002
sI2
F0.002
sI3
F0.002
sI4
F0.002
sI5
F0.002
sI6
F0.002
sI7
F0.002
sI8
F0.002
sI9
F0.002
sI10
F0.002
sI11
F0.002
sI12
F0.002
sI13
F0.002
sI14
F0.002
ssg100
(dp218
I0
F0.002
sI1
F0.002
sI2
F0.002
sI3
F0.002
sI4
F0.002
sI5
F0.002
sI6
F0.002
sI7
F0.002
sI8
F0.002
sI9
F0.002
sI10
F0.002
sI11
F0.002
sI12
F0.002
sI13
F0.002
sI14
F0.002
ssg102
(dp219
I0
F4.941507
sI1
F-3.993104
sI2
F3.760709
sI3
F5.614779
sI4
F2.393682
sI5
F-3.819742
sI6
F2.56077
sI7
F4.514572
sI8
F2.15222
sI9
F4.52822
sI10
F4.789645
sI11
F-5.37217
sI12
F4.255924
sI13
F-4.355242
sI14
F5.070015
ssg104
(dp220
I0
S"KIC8462852-20180729at051412_-25-1X1-030-r'_cal.fts.mag.1"
p221
sI1
S"KIC8462852-20180729at044351_-25-1X1-030-r'_cal.fts.mag.1"
p222
sI2
S"KIC8462852-20180729at041837_-25-1X1-030-r'_cal.fts.mag.1"
p223
sI3
S"KIC8462852-20180729at044246_-25-1X1-030-r'_cal.fts.mag.1"
p224
sI4
S"KIC8462852-20180729at041940_-25-1X1-030-r'_cal.fts.mag.1"
p225
sI5
S"KIC8462852-20180729at051308_-25-1X1-030-r'_cal.fts.mag.1"
p226
sI6
S"KIC8462852-20180729at041631_-25-1X1-030-r'_cal.fts.mag.1"
p227
sI7
S"KIC8462852-20180729at041526_-25-1X1-030-r'_cal.fts.mag.1"
p228
sI8
S"KIC8462852-20180729at041734_-25-1X1-030-r'_cal.fts.mag.1"
p229
sI9
S"KIC8462852-20180729at051101_-25-1X1-030-r'_cal.fts.mag.1"
p230
sI10
S"KIC8462852-20180729at044600_-25-1X1-030-r'_cal.fts.mag.1"
p231
sI11
S"KIC8462852-20180729at044703_-25-1X1-030-r'_cal.fts.mag.1"
p232
sI12
S"KIC8462852-20180729at050955_-25-1X1-030-r'_cal.fts.mag.1"
p233
sI13
S"KIC8462852-20180729at051205_-25-1X1-030-r'_cal.fts.mag.1"
p234
sI14
S"KIC8462852-20180729at044455_-25-1X1-030-r'_cal.fts.mag.1"
p235
ssg121
(dp236
I0
F0.004299215899705488
sI1
Fnan
sI2
Fnan
sI3
Fnan
sI4
Fnan
sI5
Fnan
sI6
Fnan
sI7
Fnan
sI8
Fnan
sI9
Fnan
sI10
Fnan
sI11
Fnan
sI12
Fnan
sI13
Fnan
sI14
Fnan
ssg123
(dp237
I0
F8130.406666666667
sI1
F7935.066666666667
sI2
F7625.33
sI3
F7906.3933333333325
sI4
F7696.616666666667
sI5
F8239.9
sI6
F6517.126666666666
sI7
F6115.429999999999
sI8
F7114.736666666667
sI9
F8140.053333333333
sI10
F8116.423333333334
sI11
F8093.983333333334
sI12
F8080.236666666667
sI13
F8217.836666666666
sI14
F8035.97
ssg125
(dp238
I0
F0.09715441807957528
sI1
Fnan
sI2
Fnan
sI3
Fnan
sI4
Fnan
sI5
Fnan
sI6
Fnan
sI7
Fnan
sI8
Fnan
sI9
Fnan
sI10
Fnan
sI11
Fnan
sI12
Fnan
sI13
Fnan
sI14
Fnan
ssg127
(dp239
I0
S"r'"
p240
sI1
S"r'"
p241
sI2
S"r'"
p242
sI3
S"r'"
p243
sI4
S"r'"
p244
sI5
S"r'"
p245
sI6
S"r'"
p246
sI7
S"r'"
p247
sI8
S"r'"
p248
sI9
S"r'"
p249
sI10
S"r'"
p250
sI11
S"r'"
p251
sI12
S"r'"
p252
sI13
S"r'"
p253
sI14
S"r'"
p254
ssg144
(dp255
I0
F0.002435361399956413
sI1
Fnan
sI2
Fnan
sI3
Fnan
sI4
Fnan
sI5
Fnan
sI6
Fnan
sI7
Fnan
sI8
Fnan
sI9
Fnan
sI10
Fnan
sI11
Fnan
sI12
Fnan
sI13
Fnan
sI14
Fnan
ssg146
(dp256
I0
F-4.652649
sI1
F1.54155
sI2
F4.249249
sI3
F-2.98392
sI4
F3.810697
sI5
F-6.131047
sI6
F-4.011324
sI7
F3.672943
sI8
F5.233887
sI9
F4.960309
sI10
F-3.417658
sI11
F4.779418
sI12
F6.119035
sI13
F6.030055
sI14
F4.589047
ssg148
(dp257
I0
F1.4931183411596838
sI1
Fnan
sI2
Fnan
sI3
Fnan
sI4
Fnan
sI5
Fnan
sI6
Fnan
sI7
Fnan
sI8
Fnan
sI9
Fnan
sI10
Fnan
sI11
Fnan
sI12
Fnan
sI13
Fnan
sI14
Fnan
ssg150
(dp258
I0
F2458328.6978587965
sI1
Fnan
sI2
Fnan
sI3
Fnan
sI4
Fnan
sI5
Fnan
sI6
Fnan
sI7
Fnan
sI8
Fnan
sI9
Fnan
sI10
Fnan
sI11
Fnan
sI12
Fnan
sI13
Fnan
sI14
Fnan
ssg152
(dp259
I0
F0.002435361399956413
sI1
Fnan
sI2
Fnan
sI3
Fnan
sI4
Fnan
sI5
Fnan
sI6
Fnan
sI7
Fnan
sI8
Fnan
sI9
Fnan
sI10
Fnan
sI11
Fnan
sI12
Fnan
sI13
Fnan
sI14
Fnan
ssg154
(dp260
I0
F102.6814
sI1
F80.08474
sI2
F53.66084
sI3
F80.11343
sI4
F54.8933
sI5
F100.9117
sI6
F55.96944
sI7
F58.97235
sI8
F55.98868
sI9
F98.39127
sI10
F80.47982
sI11
F83.3434
sI12
F98.91058
sI13
F99.34821
sI14
F78.76572
ssg156
(dp261
I0
F10.305
sI1
F10.326
sI2
F10.367
sI3
F10.331
sI4
F10.35
sI5
F10.292
sI6
F10.546
sI7
F10.606
sI8
F10.451
sI9
F10.308
sI10
F10.304
sI11
F10.312
sI12
F10.318
sI13
F10.3
sI14
F10.317
ssg158
(dp262
I0
F0.5489738138273791
sI1
Fnan
sI2
Fnan
sI3
Fnan
sI4
Fnan
sI5
Fnan
sI6
Fnan
sI7
Fnan
sI8
Fnan
sI9
Fnan
sI10
Fnan
sI11
Fnan
sI12
Fnan
sI13
Fnan
sI14
Fnan
sssS'z'
p263
(dp264
g3
(dp265
I0
F0.370844809869714
sI1
Fnan
sI2
Fnan
sI3
Fnan
sI4
Fnan
sI5
Fnan
sI6
Fnan
sI7
Fnan
sI8
Fnan
sI9
Fnan
sI10
Fnan
sI11
Fnan
sI12
Fnan
sI13
Fnan
sI14
Fnan
ssg5
(dp266
I0
S'NoError'
p267
sI1
S'NoError'
p268
sI2
S'NoError'
p269
sI3
S'NoError'
p270
sI4
S'NoError'
p271
sI5
S'NoError'
p272
sI6
S'NoError'
p273
sI7
S'NoError'
p274
sI8
S'NoError'
p275
sI9
S'NoError'
p276
sI10
S'NoError'
p277
sI11
S'NoError'
p278
sI12
S'NoError'
p279
sI13
S'NoError'
p280
sI14
S'NoError'
p281
ssg22
(dp282
I0
F0.01
sI1
F0.008
sI2
F0.007
sI3
F0.007
sI4
F0.007
sI5
F0.008
sI6
F0.007
sI7
F0.007
sI8
F0.007
sI9
F0.007
sI10
F0.007
sI11
F0.008
sI12
F0.007
sI13
F0.007
sI14
F0.009
ssg24
(dp283
I0
F0.9164329089645343
sI1
F0.9088411595274801
sI2
F0.9148867118784899
sI3
F0.9120849160652815
sI4
F0.9145387429542194
sI5
F0.9211979044472196
sI6
F0.9168015244756759
sI7
F0.9240687911491996
sI8
F0.9059359551464973
sI9
F0.9131290432022339
sI10
F0.9170965028688833
sI11
F0.9259321657341362
sI12
F0.9224927132126024
sI13
F0.9194214483283633
sI14
F0.9088840722254065
ssg26
(dp284
I0
F0.005834489837903146
sI1
Fnan
sI2
Fnan
sI3
Fnan
sI4
Fnan
sI5
Fnan
sI6
Fnan
sI7
Fnan
sI8
Fnan
sI9
Fnan
sI10
Fnan
sI11
Fnan
sI12
Fnan
sI13
Fnan
sI14
Fnan
ssg28
(dp285
I0
F0.9161163040120148
sI1
Fnan
sI2
Fnan
sI3
Fnan
sI4
Fnan
sI5
Fnan
sI6
Fnan
sI7
Fnan
sI8
Fnan
sI9
Fnan
sI10
Fnan
sI11
Fnan
sI12
Fnan
sI13
Fnan
sI14
Fnan
ssg30
(dp286
I0
F13.682
sI1
F13.431
sI2
F13.289
sI3
F13.295
sI4
F13.25
sI5
F13.542
sI6
F13.295
sI7
F13.297
sI8
F13.299
sI9
F13.273
sI10
F13.282
sI11
F13.512
sI12
F13.288
sI13
F13.31
sI14
F13.576
ssg32
(dp287
I0
F17.29051
sI1
F16.12593
sI2
F17.68734
sI3
F16.93942
sI4
F16.62193
sI5
F16.56164
sI6
F18.3717
sI7
F17.49706
sI8
F16.41612
sI9
F17.65349
sI10
F16.53529
sI11
F15.78262
sI12
F16.76174
sI13
F17.44855
sI14
F17.96558
ssg34
(dp288
I0
F2458328.6854976853
sI1
F2458328.6847685184
sI2
F2458328.724108796
sI3
F2458328.7226388888
sI4
F2458328.7052777777
sI5
F2458328.6869907407
sI6
F2458328.7233680557
sI7
F2458328.7038078704
sI8
F2458328.725590278
sI9
F2458328.7060185187
sI10
F2458328.704537037
sI11
F2458328.6877314816
sI12
F2458328.706747685
sI13
F2458328.724849537
sI14
F2458328.686238426
ssg36
(dp289
I0
F1.3679480866666665
sI1
Fnan
sI2
Fnan
sI3
Fnan
sI4
Fnan
sI5
Fnan
sI6
Fnan
sI7
Fnan
sI8
Fnan
sI9
Fnan
sI10
Fnan
sI11
Fnan
sI12
Fnan
sI13
Fnan
sI14
Fnan
ssg38
(dp290
I0
F1.65823
sI1
Fnan
sI2
Fnan
sI3
Fnan
sI4
Fnan
sI5
Fnan
sI6
Fnan
sI7
Fnan
sI8
Fnan
sI9
Fnan
sI10
Fnan
sI11
Fnan
sI12
Fnan
sI13
Fnan
sI14
Fnan
ssg40
(dp291
I0
F0.36732928431077455
sI1
F0.36970197663619603
sI2
F0.37285616250141845
sI3
F0.3738982922618761
sI4
F0.3748523934782029
sI5
F0.3632987084259162
sI6
F0.3719572499284735
sI7
F0.3660642815364546
sI8
F0.3744355363191161
sI9
F0.3680895257543441
sI10
F0.373003109507235
sI11
F0.36855455902780637
sI12
F0.37288560931802617
sI13
F0.36936253968372085
sI14
F0.3688368179123518
ssg42
(dp292
I0
F0.0027770541241745697
sI1
Fnan
sI2
Fnan
sI3
Fnan
sI4
Fnan
sI5
Fnan
sI6
Fnan
sI7
Fnan
sI8
Fnan
sI9
Fnan
sI10
Fnan
sI11
Fnan
sI12
Fnan
sI13
Fnan
sI14
Fnan
ssg44
(dp293
I0
F1.3225381333333337
sI1
Fnan
sI2
Fnan
sI3
Fnan
sI4
Fnan
sI5
Fnan
sI6
Fnan
sI7
Fnan
sI8
Fnan
sI9
Fnan
sI10
Fnan
sI11
Fnan
sI12
Fnan
sI13
Fnan
sI14
Fnan
ssg46
(dp294
I0
g267
sI1
g268
sI2
g269
sI3
g270
sI4
g271
sI5
g272
sI6
g273
sI7
g274
sI8
g275
sI9
g276
sI10
g277
sI11
g278
sI12
g279
sI13
g280
sI14
g281
ssg48
(dp295
I0
F0.004948892238966511
sI1
Fnan
sI2
Fnan
sI3
Fnan
sI4
Fnan
sI5
Fnan
sI6
Fnan
sI7
Fnan
sI8
Fnan
sI9
Fnan
sI10
Fnan
sI11
Fnan
sI12
Fnan
sI13
Fnan
sI14
Fnan
ssg50
(dp296
I0
F0.13121730431761272
sI1
Fnan
sI2
Fnan
sI3
Fnan
sI4
Fnan
sI5
Fnan
sI6
Fnan
sI7
Fnan
sI8
Fnan
sI9
Fnan
sI10
Fnan
sI11
Fnan
sI12
Fnan
sI13
Fnan
sI14
Fnan
ssg52
(dp297
I0
F1.0055912666666666
sI1
Fnan
sI2
Fnan
sI3
Fnan
sI4
Fnan
sI5
Fnan
sI6
Fnan
sI7
Fnan
sI8
Fnan
sI9
Fnan
sI10
Fnan
sI11
Fnan
sI12
Fnan
sI13
Fnan
sI14
Fnan
ssg54
(dp298
I0
F1.5161765047819658
sI1
F1.5178190467502637
sI2
F1.5136911398308999
sI3
F1.5131928671531436
sI4
F1.5026672839583413
sI5
F1.519474135339001
sI6
F1.5131120789802355
sI7
F1.508019525905081
sI8
F1.5219912273656702
sI9
F1.4985572376237875
sI10
F1.510428658745218
sI11
F1.4967943775785109
sI12
F1.4963081593338021
sI13
F1.4929107092864644
sI14
F1.5249050271237654
ssg56
(dp299
I0
g267
sI1
g268
sI2
g269
sI3
g270
sI4
g271
sI5
g272
sI6
g273
sI7
g274
sI8
g275
sI9
g276
sI10
g277
sI11
g278
sI12
g279
sI13
g280
sI14
g281
ssg58
(dp300
I0
F21.45184
sI1
F17.86383
sI2
F19.73071
sI3
F19.22857
sI4
F18.41549
sI5
F19.19445
sI6
F18.20884
sI7
F17.0513
sI8
F18.6095
sI9
F17.91105
sI10
F18.18405
sI11
F18.99881
sI12
F18.07158
sI13
F17.39329
sI14
F20.58215
ssg60
(dp301
I0
F12.019333333333334
sI1
Fnan
sI2
Fnan
sI3
Fnan
sI4
Fnan
sI5
Fnan
sI6
Fnan
sI7
Fnan
sI8
Fnan
sI9
Fnan
sI10
Fnan
sI11
Fnan
sI12
Fnan
sI13
Fnan
sI14
Fnan
ssg62
(dp302
I0
F0.687075463620202
sI1
Fnan
sI2
Fnan
sI3
Fnan
sI4
Fnan
sI5
Fnan
sI6
Fnan
sI7
Fnan
sI8
Fnan
sI9
Fnan
sI10
Fnan
sI11
Fnan
sI12
Fnan
sI13
Fnan
sI14
Fnan
ssg64
(dp303
I0
F1.677148
sI1
F4.25839
sI2
F2.151995
sI3
F4.634718
sI4
F3.277911
sI5
F3.516295
sI6
F-3.392279
sI7
F2.117315
sI8
F1.94726
sI9
F3.429973
sI10
F-3.034885
sI11
F-1.202914
sI12
F3.959409
sI13
F2.751722
sI14
F-1.218608
ssg66
(dp304
I0
F12.360466666666667
sI1
Fnan
sI2
Fnan
sI3
Fnan
sI4
Fnan
sI5
Fnan
sI6
Fnan
sI7
Fnan
sI8
Fnan
sI9
Fnan
sI10
Fnan
sI11
Fnan
sI12
Fnan
sI13
Fnan
sI14
Fnan
ssg68
(dp305
I0
g267
sI1
g268
sI2
g269
sI3
g270
sI4
g271
sI5
g272
sI6
g273
sI7
g274
sI8
g275
sI9
g276
sI10
g277
sI11
g278
sI12
g279
sI13
g280
sI14
g281
ssg70
(dp306
I0
F2170.0176666666666
sI1
F2700.9173333333333
sI2
F3067.5539999999996
sI3
F3035.9556666666667
sI4
F3162.159
sI5
F2505.73
sI6
F3062.9096666666665
sI7
F3123.4946666666665
sI8
F3005.412333333333
sI9
F3148.5576666666666
sI10
F3090.038666666667
sI11
F2546.4649999999997
sI12
F3086.301
sI13
F3047.153
sI14
F2369.809333333333
ssg72
(dp307
I0
F1.1735879999999999
sI1
F1.176
sI2
F1.075858
sI3
F1.078719
sI4
F1.1172469999999999
sI5
F1.168854
sI6
F1.077278
sI7
F1.1209639999999998
sI8
F1.0730680000000001
sI9
F1.115412
sI10
F1.1190950000000002
sI11
F1.16654
sI12
F1.1135979999999999
sI13
F1.0744559999999999
sI14
F1.171211
ssg74
(dp308
I0
F1758.0043333333333
sI1
F2213.8143333333333
sI2
F2495.4963333333335
sI3
F2482.177666666667
sI4
F2592.009
sI5
F2009.6523333333332
sI6
F2484.6723333333334
sI7
F2511.4809999999998
sI8
F2468.96
sI9
F2593.6676666666667
sI10
F2509.7226666666666
sI11
F2055.9173333333333
sI12
F2506.7536666666665
sI13
F2492.964
sI14
F1933.6123333333335
ssg76
(dp309
I0
F2977.787333333333
sI1
F3729.836666666667
sI2
F4210.37
sI3
F4175.0
sI4
F4323.3
sI5
F3430.5033333333336
sI6
F4197.056666666666
sI7
F4248.826666666667
sI8
F4165.973333333333
sI9
F4302.526666666667
sI10
F4229.02
sI11
F3444.4100000000003
sI12
F4184.466666666666
sI13
F4135.45
sI14
F3281.154666666667
ssg78
(dp310
I0
F20.60561
sI1
F17.03309
sI2
F18.80005
sI3
F17.32388
sI4
F18.11774
sI5
F18.85449
sI6
F19.62081
sI7
F17.30787
sI8
F18.00212
sI9
F16.67945
sI10
F18.3523
sI11
F18.51499
sI12
F17.86529
sI13
F16.96141
sI14
F20.12322
ssg80
(dp311
I0
F12.887
sI1
F12.637
sI2
F12.507
sI3
F12.513
sI4
F12.466
sI5
F12.742
sI6
F12.512
sI7
F12.5
sI8
F12.519
sI9
F12.465
sI10
F12.501
sI11
F12.717
sI12
F12.502
sI13
F12.508
sI14
F12.784
ssg82
(dp312
I0
F0.004
sI1
F0.003
sI2
F0.003
sI3
F0.003
sI4
F0.003
sI5
F0.004
sI6
F0.003
sI7
F0.003
sI8
F0.003
sI9
F0.003
sI10
F0.003
sI11
F0.004
sI12
F0.003
sI13
F0.003
sI14
F0.004
ssg84
(dp313
I0
F0.3703417364401275
sI1
Fnan
sI2
Fnan
sI3
Fnan
sI4
Fnan
sI5
Fnan
sI6
Fnan
sI7
Fnan
sI8
Fnan
sI9
Fnan
sI10
Fnan
sI11
Fnan
sI12
Fnan
sI13
Fnan
sI14
Fnan
ssg86
(dp314
I0
F12.584000000000001
sI1
Fnan
sI2
Fnan
sI3
Fnan
sI4
Fnan
sI5
Fnan
sI6
Fnan
sI7
Fnan
sI8
Fnan
sI9
Fnan
sI10
Fnan
sI11
Fnan
sI12
Fnan
sI13
Fnan
sI14
Fnan
ssg88
(dp315
I0
F12.659
sI1
F12.421
sI2
F12.283
sI3
F12.294
sI4
F12.25
sI5
F12.503
sI6
F12.285
sI7
F12.263
sI8
F12.305
sI9
F12.255
sI10
F12.275
sI11
F12.485
sI12
F12.276
sI13
F12.29
sI14
F12.563
ssg90
(dp316
I0
F-3.944675
sI1
F-4.047581
sI2
F3.096406
sI3
F5.331632
sI4
F3.721032
sI5
F-2.186444
sI6
F3.25266
sI7
F0.8924783
sI8
F-3.058256
sI9
F3.144171
sI10
F4.469018
sI11
F3.442615
sI12
F3.975994
sI13
F-2.279004
sI14
F4.709175
ssg92
(dp317
I0
F0.12952587533366605
sI1
Fnan
sI2
Fnan
sI3
Fnan
sI4
Fnan
sI5
Fnan
sI6
Fnan
sI7
Fnan
sI8
Fnan
sI9
Fnan
sI10
Fnan
sI11
Fnan
sI12
Fnan
sI13
Fnan
sI14
Fnan
ssg94
(dp318
I0
F0.6830112381231741
sI1
F0.6885084807577254
sI2
F0.6857714736601629
sI3
F0.6884462424698493
sI4
F0.6925451064523899
sI5
F0.6770799665332112
sI6
F0.6844859106095947
sI7
F0.681327057366463
sI8
F0.688558701138046
sI9
F0.6961852934783139
sI10
F0.6858047683363288
sI11
F0.6863496011294955
sI12
F0.6895430528358238
sI13
F0.6941672816943941
sI14
F0.6843477797180564
ssg96
(dp319
I0
F30.0
sI1
F30.0
sI2
F30.0
sI3
F30.0
sI4
F30.0
sI5
F30.0
sI6
F30.0
sI7
F30.0
sI8
F30.0
sI9
F30.0
sI10
F30.0
sI11
F30.0
sI12
F30.0
sI13
F30.0
sI14
F30.0
ssg98
(dp320
I0
F0.006
sI1
F0.005
sI2
F0.004
sI3
F0.004
sI4
F0.004
sI5
F0.005
sI6
F0.004
sI7
F0.004
sI8
F0.004
sI9
F0.004
sI10
F0.004
sI11
F0.005
sI12
F0.004
sI13
F0.004
sI14
F0.005
ssg100
(dp321
I0
F0.005
sI1
F0.004
sI2
F0.004
sI3
F0.004
sI4
F0.004
sI5
F0.004
sI6
F0.004
sI7
F0.004
sI8
F0.004
sI9
F0.004
sI10
F0.004
sI11
F0.004
sI12
F0.004
sI13
F0.004
sI14
F0.005
ssg102
(dp322
I0
F3.906443
sI1
F2.094418
sI2
F-2.30154
sI3
F-3.807388
sI4
F-2.219666
sI5
F1.948893
sI6
F-2.222871
sI7
F3.373994
sI8
F-2.230356
sI9
F1.61671
sI10
F2.697592
sI11
F2.575705
sI12
F2.998489
sI13
F4.507212
sI14
F2.146234
ssg104
(dp323
I0
S"KIC8462852-20180729at042707_-25-1X1-030-z'_cal.fts.mag.1"
p324
sI1
S"KIC8462852-20180729at042602_-25-1X1-030-z'_cal.fts.mag.1"
p325
sI2
S"KIC8462852-20180729at052243_-25-1X1-030-z'_cal.fts.mag.1"
p326
sI3
S"KIC8462852-20180729at052034_-25-1X1-030-z'_cal.fts.mag.1"
p327
sI4
S"KIC8462852-20180729at045536_-25-1X1-030-z'_cal.fts.mag.1"
p328
sI5
S"KIC8462852-20180729at042916_-25-1X1-030-z'_cal.fts.mag.1"
p329
sI6
S"KIC8462852-20180729at052139_-25-1X1-030-z'_cal.fts.mag.1"
p330
sI7
S"KIC8462852-20180729at045327_-25-1X1-030-z'_cal.fts.mag.1"
p331
sI8
S"KIC8462852-20180729at052451_-25-1X1-030-z'_cal.fts.mag.1"
p332
sI9
S"KIC8462852-20180729at045640_-25-1X1-030-z'_cal.fts.mag.1"
p333
sI10
S"KIC8462852-20180729at045432_-25-1X1-030-z'_cal.fts.mag.1"
p334
sI11
S"KIC8462852-20180729at043019_-25-1X1-030-z'_cal.fts.mag.1"
p335
sI12
S"KIC8462852-20180729at045743_-25-1X1-030-z'_cal.fts.mag.1"
p336
sI13
S"KIC8462852-20180729at052347_-25-1X1-030-z'_cal.fts.mag.1"
p337
sI14
S"KIC8462852-20180729at042811_-25-1X1-030-z'_cal.fts.mag.1"
p338
ssg121
(dp339
I0
F0.010107170059070426
sI1
Fnan
sI2
Fnan
sI3
Fnan
sI4
Fnan
sI5
Fnan
sI6
Fnan
sI7
Fnan
sI8
Fnan
sI9
Fnan
sI10
Fnan
sI11
Fnan
sI12
Fnan
sI13
Fnan
sI14
Fnan
ssg123
(dp340
I0
F845.5686666666667
sI1
F1065.3046666666667
sI2
F1214.6933333333334
sI3
F1208.0819999999999
sI4
F1259.1876666666665
sI5
F962.2433333333333
sI6
F1208.1963333333333
sI7
F1206.0356666666667
sI8
F1203.2293333333332
sI9
F1232.456
sI10
F1222.0553333333335
sI11
F988.5606666666666
sI12
F1215.299
sI13
F1191.264
sI14
F932.4903333333333
ssg125
(dp341
I0
F0.13421198583903465
sI1
Fnan
sI2
Fnan
sI3
Fnan
sI4
Fnan
sI5
Fnan
sI6
Fnan
sI7
Fnan
sI8
Fnan
sI9
Fnan
sI10
Fnan
sI11
Fnan
sI12
Fnan
sI13
Fnan
sI14
Fnan
ssg127
(dp342
I0
S"z'"
p343
sI1
S"z'"
p344
sI2
S"z'"
p345
sI3
S"z'"
p346
sI4
S"z'"
p347
sI5
S"z'"
p348
sI6
S"z'"
p349
sI7
S"z'"
p350
sI8
S"z'"
p351
sI9
S"z'"
p352
sI10
S"z'"
p353
sI11
S"z'"
p354
sI12
S"z'"
p355
sI13
S"z'"
p356
sI14
S"z'"
p357
ssg144
(dp358
I0
F0.0033923845215326274
sI1
Fnan
sI2
Fnan
sI3
Fnan
sI4
Fnan
sI5
Fnan
sI6
Fnan
sI7
Fnan
sI8
Fnan
sI9
Fnan
sI10
Fnan
sI11
Fnan
sI12
Fnan
sI13
Fnan
sI14
Fnan
ssg146
(dp359
I0
F2.682089
sI1
F2.559725
sI2
F3.97043
sI3
F3.741232
sI4
F3.780311
sI5
F3.52498
sI6
F-3.065924
sI7
F-1.697557
sI8
F3.561924
sI9
F1.841321
sI10
F2.387775
sI11
F-2.181386
sI12
F2.910486
sI13
F-2.769485
sI14
F-1.407849
ssg148
(dp360
I0
F1.5097365319837432
sI1
Fnan
sI2
Fnan
sI3
Fnan
sI4
Fnan
sI5
Fnan
sI6
Fnan
sI7
Fnan
sI8
Fnan
sI9
Fnan
sI10
Fnan
sI11
Fnan
sI12
Fnan
sI13
Fnan
sI14
Fnan
ssg150
(dp361
I0
F2458328.7052777777
sI1
Fnan
sI2
Fnan
sI3
Fnan
sI4
Fnan
sI5
Fnan
sI6
Fnan
sI7
Fnan
sI8
Fnan
sI9
Fnan
sI10
Fnan
sI11
Fnan
sI12
Fnan
sI13
Fnan
sI14
Fnan
ssg152
(dp362
I0
F0.0033923845215326274
sI1
Fnan
sI2
Fnan
sI3
Fnan
sI4
Fnan
sI5
Fnan
sI6
Fnan
sI7
Fnan
sI8
Fnan
sI9
Fnan
sI10
Fnan
sI11
Fnan
sI12
Fnan
sI13
Fnan
sI14
Fnan
ssg154
(dp363
I0
F23.97113
sI1
F18.88731
sI2
F19.82867
sI3
F19.23635
sI4
F17.96799
sI5
F20.99944
sI6
F20.07721
sI7
F18.61082
sI8
F18.83123
sI9
F18.74562
sI10
F17.50202
sI11
F20.77679
sI12
F18.02885
sI13
F19.59362
sI14
F21.75119
ssg156
(dp364
I0
F12.315
sI1
F12.071
sI2
F11.939
sI3
F11.948
sI4
F11.91
sI5
F12.162
sI6
F11.943
sI7
F11.929
sI8
F11.951
sI9
F11.916
sI10
F11.934
sI11
F12.157
sI12
F11.946
sI13
F11.959
sI14
F12.21
ssg158
(dp365
I0
F0.3703417364401275
sI1
Fnan
sI2
Fnan
sI3
Fnan
sI4
Fnan
sI5
Fnan
sI6
Fnan
sI7
Fnan
sI8
Fnan
sI9
Fnan
sI10
Fnan
sI11
Fnan
sI12
Fnan
sI13
Fnan
sI14
Fnan
sssS'g'
p366
(dp367
g3
(dp368
I0
F0.864248132245086
sI1
Fnan
sI2
Fnan
sI3
Fnan
sI4
Fnan
sI5
Fnan
sI6
Fnan
sI7
Fnan
sI8
Fnan
sI9
Fnan
sI10
Fnan
sI11
Fnan
sI12
Fnan
sI13
Fnan
sI14
Fnan
ssg5
(dp369
I0
S'NoError'
p370
sI1
S'NoError'
p371
sI2
S'NoError'
p372
sI3
S'NoError'
p373
sI4
S'NoError'
p374
sI5
S'NoError'
p375
sI6
S'NoError'
p376
sI7
S'NoError'
p377
sI8
S'NoError'
p378
sI9
S'NoError'
p379
sI10
S'NoError'
p380
sI11
S'NoError'
p381
sI12
S'NoError'
p382
sI13
S'NoError'
p383
sI14
S'NoError'
p384
ssg22
(dp385
I0
F0.003
sI1
F0.006
sI2
F0.003
sI3
F0.003
sI4
F0.003
sI5
F0.003
sI6
F0.007
sI7
F0.005
sI8
F0.004
sI9
F0.003
sI10
F0.003
sI11
F0.003
sI12
F0.003
sI13
F0.003
sI14
F0.003
ssg24
(dp386
I0
F0.8795660638071899
sI1
F0.8777716219109439
sI2
F0.8806367148643576
sI3
F0.8842308232828662
sI4
F0.8821816843445206
sI5
F0.8947828301271693
sI6
F0.8865750851566279
sI7
F0.8732694539091795
sI8
F0.8810538842271355
sI9
F0.8784398362464946
sI10
F0.8798395994909692
sI11
F0.8791151440472399
sI12
F0.8838356448379278
sI13
F0.8819265298449426
sI14
F0.8801020481238258
ssg26
(dp387
I0
F0.004794298319912317
sI1
Fnan
sI2
Fnan
sI3
Fnan
sI4
Fnan
sI5
Fnan
sI6
Fnan
sI7
Fnan
sI8
Fnan
sI9
Fnan
sI10
Fnan
sI11
Fnan
sI12
Fnan
sI13
Fnan
sI14
Fnan
ssg28
(dp388
I0
F0.8815551309480928
sI1
Fnan
sI2
Fnan
sI3
Fnan
sI4
Fnan
sI5
Fnan
sI6
Fnan
sI7
Fnan
sI8
Fnan
sI9
Fnan
sI10
Fnan
sI11
Fnan
sI12
Fnan
sI13
Fnan
sI14
Fnan
ssg30
(dp389
I0
F11.493
sI1
F12.781
sI2
F11.542
sI3
F11.565
sI4
F11.557
sI5
F12.003
sI6
F13.065
sI7
F12.485
sI8
F12.082
sI9
F11.505
sI10
F11.507
sI11
F11.566
sI12
F11.582
sI13
F11.524
sI14
F11.502
ssg32
(dp390
I0
F92.94307
sI1
F60.34524
sI2
F75.57311
sI3
F73.10069
sI4
F72.33108
sI5
F52.57298
sI6
F62.28407
sI7
F62.39683
sI8
F51.27722
sI9
F91.95222
sI10
F92.75916
sI11
F73.34829
sI12
F75.24738
sI13
F94.22103
sI14
F93.66741
ssg34
(dp391
I0
F2458328.713738426
sI1
F2458328.675162037
sI2
F2458328.695625
sI3
F2458328.692638889
sI4
F2458328.693391204
sI5
F2458328.6736921296
sI6
F2458328.675902778
sI7
F2458328.6744328705
sI8
F2458328.6766319443
sI9
F2458328.71150463
sI10
F2458328.7122569443
sI11
F2458328.6941319443
sI12
F2458328.6948842593
sI13
F2458328.712997685
sI14
F2458328.7144791665
ssg36
(dp392
I0
F1.2799241333333333
sI1
Fnan
sI2
Fnan
sI3
Fnan
sI4
Fnan
sI5
Fnan
sI6
Fnan
sI7
Fnan
sI8
Fnan
sI9
Fnan
sI10
Fnan
sI11
Fnan
sI12
Fnan
sI13
Fnan
sI14
Fnan
ssg38
(dp393
I0
F2.0058866666666666
sI1
Fnan
sI2
Fnan
sI3
Fnan
sI4
Fnan
sI5
Fnan
sI6
Fnan
sI7
Fnan
sI8
Fnan
sI9
Fnan
sI10
Fnan
sI11
Fnan
sI12
Fnan
sI13
Fnan
sI14
Fnan
ssg40
(dp394
I0
F0.8694491297926803
sI1
F0.8664261997261642
sI2
F0.8650421968752635
sI3
F0.8674567162320453
sI4
F0.8761965911934013
sI5
F0.8636864439241055
sI6
F0.8777015736372351
sI7
F0.8694857756722401
sI8
F0.8584125128585173
sI9
F0.8587921566529736
sI10
F0.8610325322563318
sI11
F0.86531894355208
sI12
F0.8606901730456694
sI13
F0.8624271808019015
sI14
F0.8670057577961452
ssg42
(dp395
I0
F0.0036093530813164133
sI1
Fnan
sI2
Fnan
sI3
Fnan
sI4
Fnan
sI5
Fnan
sI6
Fnan
sI7
Fnan
sI8
Fnan
sI9
Fnan
sI10
Fnan
sI11
Fnan
sI12
Fnan
sI13
Fnan
sI14
Fnan
ssg44
(dp396
I0
F0.5179895333333334
sI1
Fnan
sI2
Fnan
sI3
Fnan
sI4
Fnan
sI5
Fnan
sI6
Fnan
sI7
Fnan
sI8
Fnan
sI9
Fnan
sI10
Fnan
sI11
Fnan
sI12
Fnan
sI13
Fnan
sI14
Fnan
ssg46
(dp397
I0
g370
sI1
g371
sI2
g372
sI3
g373
sI4
g374
sI5
g375
sI6
g376
sI7
g377
sI8
g378
sI9
g379
sI10
g380
sI11
g381
sI12
g382
sI13
g383
sI14
g384
ssg48
(dp398
I0
F0.007611487628648034
sI1
Fnan
sI2
Fnan
sI3
Fnan
sI4
Fnan
sI5
Fnan
sI6
Fnan
sI7
Fnan
sI8
Fnan
sI9
Fnan
sI10
Fnan
sI11
Fnan
sI12
Fnan
sI13
Fnan
sI14
Fnan
ssg50
(dp399
I0
F0.5255857775128715
sI1
Fnan
sI2
Fnan
sI3
Fnan
sI4
Fnan
sI5
Fnan
sI6
Fnan
sI7
Fnan
sI8
Fnan
sI9
Fnan
sI10
Fnan
sI11
Fnan
sI12
Fnan
sI13
Fnan
sI14
Fnan
ssg52
(dp400
I0
F0.5996739133333332
sI1
Fnan
sI2
Fnan
sI3
Fnan
sI4
Fnan
sI5
Fnan
sI6
Fnan
sI7
Fnan
sI8
Fnan
sI9
Fnan
sI10
Fnan
sI11
Fnan
sI12
Fnan
sI13
Fnan
sI14
Fnan
ssg54
(dp401
I0
F1.5190952829274742
sI1
F1.5245722896224014
sI2
F1.5082376518540201
sI3
F1.5188666972495908
sI4
F1.5045989190181488
sI5
F1.5028693232562056
sI6
F1.4791732772111599
sI7
F1.4894630043641073
sI8
F1.5080399317972302
sI9
F1.5042118186530968
sI10
F1.5077771868294112
sI11
F1.5197922053634096
sI12
F1.5057774514144777
sI13
F1.5104343035378738
sI14
F1.5163210551363402
ssg56
(dp402
I0
g370
sI1
g371
sI2
g372
sI3
g373
sI4
g374
sI5
g375
sI6
g376
sI7
g377
sI8
g378
sI9
g379
sI10
g380
sI11
g381
sI12
g382
sI13
g383
sI14
g384
ssg58
(dp403
I0
F94.00425
sI1
F60.21706
sI2
F74.43999
sI3
F72.32381
sI4
F73.60467
sI5
F51.98705
sI6
F62.85881
sI7
F61.66285
sI8
F50.57727
sI9
F92.14216
sI10
F93.17966
sI11
F73.8838
sI12
F74.12863
sI13
F94.15107
sI14
F94.87924
ssg60
(dp404
I0
F11.418133333333337
sI1
Fnan
sI2
Fnan
sI3
Fnan
sI4
Fnan
sI5
Fnan
sI6
Fnan
sI7
Fnan
sI8
Fnan
sI9
Fnan
sI10
Fnan
sI11
Fnan
sI12
Fnan
sI13
Fnan
sI14
Fnan
ssg62
(dp405
I0
F0.7181914942148105
sI1
Fnan
sI2
Fnan
sI3
Fnan
sI4
Fnan
sI5
Fnan
sI6
Fnan
sI7
Fnan
sI8
Fnan
sI9
Fnan
sI10
Fnan
sI11
Fnan
sI12
Fnan
sI13
Fnan
sI14
Fnan
ssg64
(dp406
I0
F-3.513023
sI1
F4.561887
sI2
F4.103705
sI3
F4.162717
sI4
F2.955179
sI5
F-3.427945
sI6
F4.025972
sI7
F4.93582
sI8
F3.255279
sI9
F5.156678
sI10
F-1.699774
sI11
F2.764274
sI12
F3.205026
sI13
F3.827264
sI14
F-4.224759
ssg66
(dp407
I0
F11.787466666666665
sI1
Fnan
sI2
Fnan
sI3
Fnan
sI4
Fnan
sI5
Fnan
sI6
Fnan
sI7
Fnan
sI8
Fnan
sI9
Fnan
sI10
Fnan
sI11
Fnan
sI12
Fnan
sI13
Fnan
sI14
Fnan
ssg68
(dp408
I0
g370
sI1
g371
sI2
g372
sI3
g373
sI4
g374
sI5
g375
sI6
g376
sI7
g377
sI8
g378
sI9
g379
sI10
g380
sI11
g381
sI12
g382
sI13
g383
sI14
g384
ssg70
(dp409
I0
F6694.333333333333
sI1
F2048.5583333333334
sI2
F6436.183333333333
sI3
F6302.3566666666675
sI4
F6271.863333333333
sI5
F4263.443333333334
sI6
F1567.6529999999998
sI7
F2670.7473333333332
sI8
F3944.9466666666663
sI9
F6694.0599999999995
sI10
F6673.009999999999
sI11
F6283.1033333333335
sI12
F6252.71
sI13
F6567.92
sI14
F6656.873333333334
ssg72
(dp410
I0
F1.097278
sI1
F1.209144
sI2
F1.142954
sI3
F1.151546
sI4
F1.149383
sI5
F1.214561
sI6
F1.2064469999999998
sI7
F1.211841
sI8
F1.2037579999999999
sI9
F1.1023100000000001
sI10
F1.100619
sI11
F1.147208
sI12
F1.145066
sI13
F1.098933
sI14
F1.095638
ssg74
(dp411
I0
F5761.2733333333335
sI1
F1762.5096666666666
sI2
F5566.0233333333335
sI3
F5381.723333333333
sI4
F5421.826666666666
sI5
F3611.8166666666666
sI6
F1366.422
sI7
F2365.7926666666667
sI8
F3409.5933333333332
sI9
F5825.076666666666
sI10
F5780.293333333333
sI11
F5409.21
sI12
F5386.216666666666
sI13
F5659.8566666666675
sI14
F5733.5633333333335
ssg76
(dp412
I0
F9460.626666666667
sI1
F2905.124333333333
sI2
F9051.09
sI3
F8873.28
sI4
F8797.156666666668
sI5
F5917.743333333333
sI6
F2170.0026666666668
sI7
F3750.8700000000003
sI8
F5545.47
sI9
F9415.716666666667
sI10
F9388.403333333332
sI11
F8884.943333333333
sI12
F8762.816666666668
sI13
F9234.626666666667
sI14
F9393.94
ssg78
(dp413
I0
F92.85714
sI1
F59.93945
sI2
F75.10326
sI3
F72.41412
sI4
F72.85005
sI5
F51.96431
sI6
F60.90215
sI7
F62.09801
sI8
F49.83435
sI9
F90.0634
sI10
F91.7963
sI11
F73.05775
sI12
F73.96101
sI13
F92.87327
sI14
F93.75224
ssg80
(dp414
I0
F11.599
sI1
F12.885
sI2
F11.636
sI3
F11.673
sI4
F11.665
sI5
F12.106
sI6
F13.161
sI7
F12.565
sI8
F12.168
sI9
F11.587
sI10
F11.595
sI11
F11.667
sI12
F11.672
sI13
F11.618
sI14
F11.604
ssg82
(dp415
I0
F0.002
sI1
F0.004
sI2
F0.002
sI3
F0.002
sI4
F0.002
sI5
F0.003
sI6
F0.005
sI7
F0.004
sI8
F0.003
sI9
F0.002
sI10
F0.002
sI11
F0.002
sI12
F0.002
sI13
F0.002
sI14
F0.002
ssg84
(dp416
I0
F0.8659415922677837
sI1
Fnan
sI2
Fnan
sI3
Fnan
sI4
Fnan
sI5
Fnan
sI6
Fnan
sI7
Fnan
sI8
Fnan
sI9
Fnan
sI10
Fnan
sI11
Fnan
sI12
Fnan
sI13
Fnan
sI14
Fnan
ssg86
(dp417
I0
F11.946733333333334
sI1
Fnan
sI2
Fnan
sI3
Fnan
sI4
Fnan
sI5
Fnan
sI6
Fnan
sI7
Fnan
sI8
Fnan
sI9
Fnan
sI10
Fnan
sI11
Fnan
sI12
Fnan
sI13
Fnan
sI14
Fnan
ssg88
(dp418
I0
F11.436
sI1
F12.721
sI2
F11.478
sI3
F11.501
sI4
F11.507
sI5
F11.926
sI6
F13.012
sI7
F12.433
sI8
F12.01
sI9
F11.436
sI10
F11.439
sI11
F11.505
sI12
F11.51
sI13
F11.456
sI14
F11.442
ssg90
(dp419
I0
F-3.533502
sI1
F4.847373
sI2
F5.54355
sI3
F3.622365
sI4
F4.823924
sI5
F-3.335671
sI6
F4.969706
sI7
F-2.712872
sI8
F3.812839
sI9
F-5.701722
sI10
F5.558346
sI11
F-3.937322
sI12
F2.944914
sI13
F-1.338732
sI14
F3.635666
ssg92
(dp420
I0
F0.5283912060837753
sI1
Fnan
sI2
Fnan
sI3
Fnan
sI4
Fnan
sI5
Fnan
sI6
Fnan
sI7
Fnan
sI8
Fnan
sI9
Fnan
sI10
Fnan
sI11
Fnan
sI12
Fnan
sI13
Fnan
sI14
Fnan
ssg94
(dp421
I0
F0.7132513275592554
sI1
F0.7115957098045844
sI2
F0.7187867371532153
sI3
F0.7092583265589515
sI4
F0.7195991068651665
sI5
F0.7095079944839436
sI6
F0.7311652660709694
sI7
F0.7368214404138688
sI8
F0.7185339596961847
sI9
F0.7231728641799916
sI10
F0.7197739343818644
sI11
F0.7132375208057993
sI12
F0.7174196132092602
sI13
F0.7163220949197219
sI14
F0.7144265171193817
ssg96
(dp422
I0
F30.0
sI1
F30.0
sI2
F30.0
sI3
F30.0
sI4
F30.0
sI5
F30.0
sI6
F30.0
sI7
F30.0
sI8
F30.0
sI9
F30.0
sI10
F30.0
sI11
F30.0
sI12
F30.0
sI13
F30.0
sI14
F30.0
ssg98
(dp423
I0
F0.003
sI1
F0.006
sI2
F0.003
sI3
F0.003
sI4
F0.003
sI5
F0.004
sI6
F0.008
sI7
F0.005
sI8
F0.004
sI9
F0.003
sI10
F0.003
sI11
F0.003
sI12
F0.003
sI13
F0.003
sI14
F0.003
ssg100
(dp424
I0
F0.003
sI1
F0.005
sI2
F0.002
sI3
F0.003
sI4
F0.003
sI5
F0.003
sI6
F0.007
sI7
F0.004
sI8
F0.003
sI9
F0.003
sI10
F0.002
sI11
F0.003
sI12
F0.003
sI13
F0.003
sI14
F0.003
ssg102
(dp425
I0
F5.135017
sI1
F2.736901
sI2
F-4.147965
sI3
F-4.155751
sI4
F-4.210557
sI5
F-1.889356
sI6
F-2.835419
sI7
F5.149296
sI8
F0.7449577
sI9
F5.803301
sI10
F-1.362982
sI11
F4.497437
sI12
F2.678308
sI13
F3.762165
sI14
F-2.910244
ssg104
(dp426
I0
S"KIC8462852-20180729at050747_-25-1X1-030-g'_cal.fts.mag.1"
p427
sI1
S"KIC8462852-20180729at041214_-25-1X1-030-g'_cal.fts.mag.1"
p428
sI2
S"KIC8462852-20180729at044142_-25-1X1-030-g'_cal.fts.mag.1"
p429
sI3
S"KIC8462852-20180729at043719_-25-1X1-030-g'_cal.fts.mag.1"
p430
sI4
S"KIC8462852-20180729at043829_-25-1X1-030-g'_cal.fts.mag.1"
p431
sI5
S"KIC8462852-20180729at040956_-25-1X1-030-g'_cal.fts.mag.1"
p432
sI6
S"KIC8462852-20180729at041318_-25-1X1-030-g'_cal.fts.mag.1"
p433
sI7
S"KIC8462852-20180729at041111_-25-1X1-030-g'_cal.fts.mag.1"
p434
sI8
S"KIC8462852-20180729at041421_-25-1X1-030-g'_cal.fts.mag.1"
p435
sI9
S"KIC8462852-20180729at050429_-25-1X1-030-g'_cal.fts.mag.1"
p436
sI10
S"KIC8462852-20180729at050539_-25-1X1-030-g'_cal.fts.mag.1"
p437
sI11
S"KIC8462852-20180729at043933_-25-1X1-030-g'_cal.fts.mag.1"
p438
sI12
S"KIC8462852-20180729at044038_-25-1X1-030-g'_cal.fts.mag.1"
p439
sI13
S"KIC8462852-20180729at050643_-25-1X1-030-g'_cal.fts.mag.1"
p440
sI14
S"KIC8462852-20180729at050851_-25-1X1-030-g'_cal.fts.mag.1"
p441
ssg121
(dp442
I0
F0.011837901352250537
sI1
Fnan
sI2
Fnan
sI3
Fnan
sI4
Fnan
sI5
Fnan
sI6
Fnan
sI7
Fnan
sI8
Fnan
sI9
Fnan
sI10
Fnan
sI11
Fnan
sI12
Fnan
sI13
Fnan
sI14
Fnan
ssg123
(dp443
I0
F6351.683333333333
sI1
F1939.695
sI2
F6070.663333333333
sI3
F5944.206666666667
sI4
F5984.67
sI5
F3970.9433333333336
sI6
F1493.2856666666667
sI7
F2546.8426666666664
sI8
F3691.1766666666667
sI9
F6279.16
sI10
F6268.806666666667
sI11
F5935.296666666666
sI12
F5853.193333333333
sI13
F6169.92
sI14
F6295.7266666666665
ssg125
(dp444
I0
F0.5220515117805722
sI1
Fnan
sI2
Fnan
sI3
Fnan
sI4
Fnan
sI5
Fnan
sI6
Fnan
sI7
Fnan
sI8
Fnan
sI9
Fnan
sI10
Fnan
sI11
Fnan
sI12
Fnan
sI13
Fnan
sI14
Fnan
ssg127
(dp445
I0
S"g'"
p446
sI1
S"g'"
p447
sI2
S"g'"
p448
sI3
S"g'"
p449
sI4
S"g'"
p450
sI5
S"g'"
p451
sI6
S"g'"
p452
sI7
S"g'"
p453
sI8
S"g'"
p454
sI9
S"g'"
p455
sI10
S"g'"
p456
sI11
S"g'"
p457
sI12
S"g'"
p458
sI13
S"g'"
p459
sI14
S"g'"
p460
ssg144
(dp461
I0
F0.005670098509205676
sI1
Fnan
sI2
Fnan
sI3
Fnan
sI4
Fnan
sI5
Fnan
sI6
Fnan
sI7
Fnan
sI8
Fnan
sI9
Fnan
sI10
Fnan
sI11
Fnan
sI12
Fnan
sI13
Fnan
sI14
Fnan
ssg146
(dp462
I0
F5.5116
sI1
F-3.316018
sI2
F-2.526389
sI3
F-2.033696
sI4
F-3.934219
sI5
F-3.834411
sI6
F4.180742
sI7
F4.093955
sI8
F2.94275
sI9
F-3.11834
sI10
F4.808018
sI11
F2.978515
sI12
F4.420046
sI13
F1.928227
sI14
F-4.330937
ssg148
(dp463
I0
F1.5079486932156632
sI1
Fnan
sI2
Fnan
sI3
Fnan
sI4
Fnan
sI5
Fnan
sI6
Fnan
sI7
Fnan
sI8
Fnan
sI9
Fnan
sI10
Fnan
sI11
Fnan
sI12
Fnan
sI13
Fnan
sI14
Fnan
ssg150
(dp464
I0
F2458328.6941319443
sI1
Fnan
sI2
Fnan
sI3
Fnan
sI4
Fnan
sI5
Fnan
sI6
Fnan
sI7
Fnan
sI8
Fnan
sI9
Fnan
sI10
Fnan
sI11
Fnan
sI12
Fnan
sI13
Fnan
sI14
Fnan
ssg152
(dp465
I0
F0.005670098509205676
sI1
Fnan
sI2
Fnan
sI3
Fnan
sI4
Fnan
sI5
Fnan
sI6
Fnan
sI7
Fnan
sI8
Fnan
sI9
Fnan
sI10
Fnan
sI11
Fnan
sI12
Fnan
sI13
Fnan
sI14
Fnan
ssg154
(dp466
I0
F95.26177
sI1
F60.76953
sI2
F75.81559
sI3
F74.4604
sI4
F75.90542
sI5
F54.22731
sI6
F62.267
sI7
F64.49742
sI8
F52.24445
sI9
F95.36929
sI10
F94.52126
sI11
F76.20904
sI12
F77.61919
sI13
F96.43419
sI14
F94.42325
ssg156
(dp467
I0
F11.06
sI1
F12.342
sI2
F11.108
sI3
F11.13
sI4
F11.139
sI5
F11.57
sI6
F12.659
sI7
F12.065
sI8
F11.64
sI9
F11.065
sI10
F11.069
sI11
F11.128
sI12
F11.143
sI13
F11.086
sI14
F11.068
ssg158
(dp468
I0
F0.8659415922677837
sI1
Fnan
sI2
Fnan
sI3
Fnan
sI4
Fnan
sI5
Fnan
sI6
Fnan
sI7
Fnan
sI8
Fnan
sI9
Fnan
sI10
Fnan
sI11
Fnan
sI12
Fnan
sI13
Fnan
sI14
Fnan
sssS'V'
p469
(dp470
g3
(dp471
I0
F0.6924153354428545
sI1
Fnan
sI2
Fnan
sI3
Fnan
sI4
Fnan
sI5
Fnan
sI6
Fnan
sI7
Fnan
sI8
Fnan
sI9
Fnan
sI10
Fnan
sI11
Fnan
sI12
Fnan
sI13
Fnan
sI14
Fnan
ssg5
(dp472
I0
S'NoError'
p473
sI1
S'NoError'
p474
sI2
S'NoError'
p475
sI3
S'NoError'
p476
sI4
S'NoError'
p477
sI5
S'NoError'
p478
sI6
S'NoError'
p479
sI7
S'NoError'
p480
sI8
S'NoError'
p481
sI9
S'NoError'
p482
sI10
S'NoError'
p483
sI11
S'NoError'
p484
sI12
S'NoError'
p485
sI13
S'NoError'
p486
sI14
S'NoError'
p487
ssg22
(dp488
I0
F0.003
sI1
F0.003
sI2
F0.003
sI3
F0.003
sI4
F0.003
sI5
F0.003
sI6
F0.003
sI7
F0.003
sI8
F0.003
sI9
F0.003
sI10
F0.003
sI11
F0.003
sI12
F0.003
sI13
F0.003
sI14
F0.003
ssg24
(dp489
I0
F0.8918845407136919
sI1
F0.8919568358286291
sI2
F0.8938500142182149
sI3
F0.885100246628036
sI4
F0.8941396254280326
sI5
F0.8825109887630869
sI6
F0.8871807338017553
sI7
F0.8898442191543
sI8
F0.8883142435279412
sI9
F0.8830870992661258
sI10
F0.8881634295427752
sI11
F0.8841630495404833
sI12
F0.8837325346454633
sI13
F0.8881318828406262
sI14
F0.8886499638301126
ssg26
(dp490
I0
F0.003806721734598211
sI1
Fnan
sI2
Fnan
sI3
Fnan
sI4
Fnan
sI5
Fnan
sI6
Fnan
sI7
Fnan
sI8
Fnan
sI9
Fnan
sI10
Fnan
sI11
Fnan
sI12
Fnan
sI13
Fnan
sI14
Fnan
ssg28
(dp491
I0
F0.8880472938486184
sI1
Fnan
sI2
Fnan
sI3
Fnan
sI4
Fnan
sI5
Fnan
sI6
Fnan
sI7
Fnan
sI8
Fnan
sI9
Fnan
sI10
Fnan
sI11
Fnan
sI12
Fnan
sI13
Fnan
sI14
Fnan
ssg30
(dp492
I0
F11.647
sI1
F11.506
sI2
F11.489
sI3
F11.496
sI4
F11.489
sI5
F11.687
sI6
F11.488
sI7
F11.628
sI8
F11.507
sI9
F11.654
sI10
F11.525
sI11
F11.482
sI12
F11.586
sI13
F11.488
sI14
F11.505
ssg32
(dp493
I0
F66.11272
sI1
F80.84039
sI2
F89.32444
sI3
F89.53833
sI4
F89.64224
sI5
F60.87852
sI6
F81.04221
sI7
F62.85053
sI8
F82.62985
sI9
F61.85604
sI10
F82.37571
sI11
F90.7025
sI12
F64.69098
sI13
F89.99329
sI14
F81.60751
ssg34
(dp494
I0
F2458328.6909953705
sI1
F2458328.7076157406
sI2
F2458328.727152778
sI3
F2458328.729409722
sI4
F2458328.726412037
sI5
F2458328.6885416666
sI6
F2458328.710613426
sI7
F2458328.6902199076
sI8
F2458328.7098726854
sI9
F2458328.689386574
sI10
F2458328.7083680555
sI11
F2458328.728657407
sI12
F2458328.6917592594
sI13
F2458328.727916667
sI14
F2458328.7091087964
ssg36
(dp495
I0
F2.0316590666666667
sI1
Fnan
sI2
Fnan
sI3
Fnan
sI4
Fnan
sI5
Fnan
sI6
Fnan
sI7
Fnan
sI8
Fnan
sI9
Fnan
sI10
Fnan
sI11
Fnan
sI12
Fnan
sI13
Fnan
sI14
Fnan
ssg38
(dp496
I0
F0.4347152666666665
sI1
Fnan
sI2
Fnan
sI3
Fnan
sI4
Fnan
sI5
Fnan
sI6
Fnan
sI7
Fnan
sI8
Fnan
sI9
Fnan
sI10
Fnan
sI11
Fnan
sI12
Fnan
sI13
Fnan
sI14
Fnan
ssg40
(dp497
I0
F0.6842795607756347
sI1
F0.6939062614054374
sI2
F0.698540624071916
sI3
F0.6964186203390492
sI4
F0.6951853698747239
sI5
F0.686498390532055
sI6
F0.6920440725883588
sI7
F0.6826934208561716
sI8
F0.6911069237253249
sI9
F0.6879581173751768
sI10
F0.691317055371969
sI11
F0.693604338321843
sI12
F0.6920365422644565
sI13
F0.6946286334935191
sI14
F0.6942797000223407
ssg42
(dp498
I0
F0.002795636824118073
sI1
Fnan
sI2
Fnan
sI3
Fnan
sI4
Fnan
sI5
Fnan
sI6
Fnan
sI7
Fnan
sI8
Fnan
sI9
Fnan
sI10
Fnan
sI11
Fnan
sI12
Fnan
sI13
Fnan
sI14
Fnan
ssg44
(dp499
I0
F1.2033840333333332
sI1
Fnan
sI2
Fnan
sI3
Fnan
sI4
Fnan
sI5
Fnan
sI6
Fnan
sI7
Fnan
sI8
Fnan
sI9
Fnan
sI10
Fnan
sI11
Fnan
sI12
Fnan
sI13
Fnan
sI14
Fnan
ssg46
(dp500
I0
g473
sI1
g474
sI2
g475
sI3
g476
sI4
g477
sI5
g478
sI6
g479
sI7
g480
sI8
g481
sI9
g482
sI10
g483
sI11
g484
sI12
g485
sI13
g486
sI14
g487
ssg48
(dp501
I0
F0.0034920571686332764
sI1
Fnan
sI2
Fnan
sI3
Fnan
sI4
Fnan
sI5
Fnan
sI6
Fnan
sI7
Fnan
sI8
Fnan
sI9
Fnan
sI10
Fnan
sI11
Fnan
sI12
Fnan
sI13
Fnan
sI14
Fnan
ssg50
(dp502
I0
F0.06854765460889947
sI1
Fnan
sI2
Fnan
sI3
Fnan
sI4
Fnan
sI5
Fnan
sI6
Fnan
sI7
Fnan
sI8
Fnan
sI9
Fnan
sI10
Fnan
sI11
Fnan
sI12
Fnan
sI13
Fnan
sI14
Fnan
ssg52
(dp503
I0
F0.7874338666666664
sI1
Fnan
sI2
Fnan
sI3
Fnan
sI4
Fnan
sI5
Fnan
sI6
Fnan
sI7
Fnan
sI8
Fnan
sI9
Fnan
sI10
Fnan
sI11
Fnan
sI12
Fnan
sI13
Fnan
sI14
Fnan
ssg54
(dp504
I0
F1.504989107248767
sI1
F1.4900663117943125
sI2
F1.4946810525128778
sI3
F1.5045069313850907
sI4
F1.498827202294093
sI5
F1.5080803114446226
sI6
F1.4994551110415573
sI7
F1.50193211661374
sI8
F1.505871159853401
sI9
F1.5185076979355148
sI10
F1.5026421470300864
sI11
F1.4977510466513144
sI12
F1.500285295377661
sI13
F1.4969540802714574
sI14
F1.5032559292247103
ssg56
(dp505
I0
g473
sI1
g474
sI2
g475
sI3
g476
sI4
g477
sI5
g478
sI6
g479
sI7
g480
sI8
g481
sI9
g482
sI10
g483
sI11
g484
sI12
g485
sI13
g486
sI14
g487
ssg58
(dp506
I0
F67.90733
sI1
F81.48422
sI2
F89.94099
sI3
F92.06274
sI4
F90.13215
sI5
F62.49202
sI6
F82.21304
sI7
F64.77607
sI8
F82.51846
sI9
F62.93098
sI10
F83.50256
sI11
F92.19947
sI12
F65.65417
sI13
F90.16232
sI14
F82.63458
ssg60
(dp507
I0
F10.871333333333334
sI1
Fnan
sI2
Fnan
sI3
Fnan
sI4
Fnan
sI5
Fnan
sI6
Fnan
sI7
Fnan
sI8
Fnan
sI9
Fnan
sI10
Fnan
sI11
Fnan
sI12
Fnan
sI13
Fnan
sI14
Fnan
ssg62
(dp508
I0
F0.7160614757260613
sI1
Fnan
sI2
Fnan
sI3
Fnan
sI4
Fnan
sI5
Fnan
sI6
Fnan
sI7
Fnan
sI8
Fnan
sI9
Fnan
sI10
Fnan
sI11
Fnan
sI12
Fnan
sI13
Fnan
sI14
Fnan
ssg64
(dp509
I0
F3.702323
sI1
F-5.732532
sI2
F-4.463942
sI3
F3.011386
sI4
F-3.143756
sI5
F3.960474
sI6
F4.928863
sI7
F3.470702
sI8
F2.288631
sI9
F3.653734
sI10
F-5.161422
sI11
F-5.613104
sI12
F3.607052
sI13
F3.58363
sI14
F-1.57131
ssg66
(dp510
I0
F11.232266666666668
sI1
Fnan
sI2
Fnan
sI3
Fnan
sI4
Fnan
sI5
Fnan
sI6
Fnan
sI7
Fnan
sI8
Fnan
sI9
Fnan
sI10
Fnan
sI11
Fnan
sI12
Fnan
sI13
Fnan
sI14
Fnan
ssg68
(dp511
I0
g473
sI1
g474
sI2
g475
sI3
g476
sI4
g477
sI5
g478
sI6
g479
sI7
g480
sI8
g481
sI9
g482
sI10
g483
sI11
g484
sI12
g485
sI13
g486
sI14
g487
ssg70
(dp512
I0
F7454.406666666667
sI1
F8366.143333333333
sI2
F8455.55
sI3
F8367.9
sI4
F8500.293333333333
sI5
F7106.793333333333
sI6
F8497.433333333332
sI7
F7589.263333333333
sI8
F8367.616666666667
sI9
F7316.2
sI10
F8225.783333333333
sI11
F8507.8
sI12
F7745.363333333333
sI13
F8471.056666666667
sI14
F8349.29
ssg72
(dp513
I0
F1.1564860000000001
sI1
F1.111501
sI2
F1.070182
sI3
F1.066165
sI4
F1.0715620000000001
sI5
F1.163972
sI6
F1.10437
sI7
F1.15883
sI8
F1.1061299999999998
sI9
F1.161375
sI10
F1.109692
sI11
F1.067491
sI12
F1.154188
sI13
F1.068829
sI14
F1.107896
ssg74
(dp514
I0
F6337.64
sI1
F7178.1
sI2
F7211.083333333333
sI3
F7198.493333333333
sI4
F7227.056666666667
sI5
F6127.02
sI6
F7307.009999999999
sI7
F6486.836666666667
sI8
F7153.166666666667
sI9
F6261.033333333334
sI10
F7047.78
sI11
F7361.0633333333335
sI12
F6695.8099999999995
sI13
F7283.9
sI14
F7145.006666666667
ssg76
(dp515
I0
F10378.44
sI1
F11580.976666666666
sI2
F11708.31
sI3
F11709.873333333333
sI4
F11786.29
sI5
F9978.826666666666
sI6
F11849.026666666667
sI7
F10570.673333333334
sI8
F11686.15
sI9
F10308.566666666668
sI10
F11475.35
sI11
F11883.803333333333
sI12
F10832.94
sI13
F11792.223333333333
sI14
F11645.946666666667
ssg78
(dp516
I0
F66.44187
sI1
F82.93736
sI2
F89.96956
sI3
F91.88313
sI4
F89.95704
sI5
F62.1762
sI6
F82.34771
sI7
F63.09707
sI8
F82.52145
sI9
F63.3164
sI10
F83.13927
sI11
F90.49313
sI12
F65.63731
sI13
F90.22198
sI14
F81.79805
ssg80
(dp517
I0
F11.495
sI1
F11.36
sI2
F11.355
sI3
F11.357
sI4
F11.353
sI5
F11.532
sI6
F11.341
sI7
F11.47
sI8
F11.364
sI9
F11.508
sI10
F11.38
sI11
F11.333
sI12
F11.435
sI13
F11.344
sI14
F11.365
ssg82
(dp518
I0
F0.002
sI1
F0.002
sI2
F0.002
sI3
F0.002
sI4
F0.002
sI5
F0.002
sI6
F0.002
sI7
F0.002
sI8
F0.002
sI9
F0.002
sI10
F0.002
sI11
F0.002
sI12
F0.002
sI13
F0.002
sI14
F0.002
ssg84
(dp519
I0
F0.6916331754011985
sI1
Fnan
sI2
Fnan
sI3
Fnan
sI4
Fnan
sI5
Fnan
sI6
Fnan
sI7
Fnan
sI8
Fnan
sI9
Fnan
sI10
Fnan
sI11
Fnan
sI12
Fnan
sI13
Fnan
sI14
Fnan
ssg86
(dp520
I0
F11.399466666666665
sI1
Fnan
sI2
Fnan
sI3
Fnan
sI4
Fnan
sI5
Fnan
sI6
Fnan
sI7
Fnan
sI8
Fnan
sI9
Fnan
sI10
Fnan
sI11
Fnan
sI12
Fnan
sI13
Fnan
sI14
Fnan
ssg88
(dp521
I0
F11.319
sI1
F11.194
sI2
F11.182
sI3
F11.193
sI4
F11.176
sI5
F11.371
sI6
F11.177
sI7
F11.3
sI8
F11.193
sI9
F11.339
sI10
F11.212
sI11
F11.175
sI12
F11.277
sI13
F11.18
sI14
F11.196
ssg90
(dp522
I0
F5.264865
sI1
F-2.802435
sI2
F-3.201965
sI3
F6.433612
sI4
F3.673127
sI5
F6.237181
sI6
F5.062038
sI7
F4.636332
sI8
F-2.75606
sI9
F5.047601
sI10
F4.43609
sI11
F-3.125336
sI12
F2.018875
sI13
F-3.610127
sI14
F3.161088
ssg92
(dp523
I0
F0.06537547231915343
sI1
Fnan
sI2
Fnan
sI3
Fnan
sI4
Fnan
sI5
Fnan
sI6
Fnan
sI7
Fnan
sI8
Fnan
sI9
Fnan
sI10
Fnan
sI11
Fnan
sI12
Fnan
sI13
Fnan
sI14
Fnan
ssg94
(dp524
I0
F0.710782761548259
sI1
F0.7197129209630263
sI2
F0.7152483039788347
sI3
F0.7170609224263249
sI4
F0.7124961900106392
sI5
F0.7172136568646618
sI6
F0.7182586061653968
sI7
F0.7144118160470824
sI8
F0.7133988128580998
sI9
F0.7104812735109496
sI10
F0.7154694992166272
sI11
F0.7219700396290565
sI12
F0.7208203978440083
sI13
F0.7189260573806412
sI14
F0.7146708774473121
ssg96
(dp525
I0
F30.0
sI1
F30.0
sI2
F30.0
sI3
F30.0
sI4
F30.0
sI5
F30.0
sI6
F30.0
sI7
F30.0
sI8
F30.0
sI9
F30.0
sI10
F30.0
sI11
F30.0
sI12
F30.0
sI13
F30.0
sI14
F30.0
ssg98
(dp526
I0
F0.003
sI1
F0.002
sI2
F0.002
sI3
F0.002
sI4
F0.002
sI5
F0.003
sI6
F0.002
sI7
F0.002
sI8
F0.002
sI9
F0.003
sI10
F0.002
sI11
F0.002
sI12
F0.002
sI13
F0.002
sI14
F0.002
ssg100
(dp527
I0
F0.002
sI1
F0.002
sI2
F0.002
sI3
F0.002
sI4
F0.002
sI5
F0.002
sI6
F0.002
sI7
F0.002
sI8
F0.002
sI9
F0.002
sI10
F0.002
sI11
F0.002
sI12
F0.002
sI13
F0.002
sI14
F0.002
ssg102
(dp528
I0
F-4.320982
sI1
F5.146325
sI2
F4.052929
sI3
F-4.735381
sI4
F4.944092
sI5
F4.812276
sI6
F-3.650855
sI7
F3.391469
sI8
F-4.371628
sI9
F6.129587
sI10
F-4.213572
sI11
F-4.693547
sI12
F1.570778
sI13
F5.260006
sI14
F2.490011
ssg104
(dp529
I0
S'KIC8462852-20180729at043502_-25-1X1-030-V_cal.fts.mag.1'
p530
sI1
S'KIC8462852-20180729at045851_-25-1X1-030-V_cal.fts.mag.1'
p531
sI2
S'KIC8462852-20180729at052706_-25-1X1-030-V_cal.fts.mag.1'
p532
sI3
S'KIC8462852-20180729at053021_-25-1X1-030-V_cal.fts.mag.1'
p533
sI4
S'KIC8462852-20180729at052555_-25-1X1-030-V_cal.fts.mag.1'
p534
sI5
S'KIC8462852-20180729at043123_-25-1X1-030-V_cal.fts.mag.1'
p535
sI6
S'KIC8462852-20180729at050317_-25-1X1-030-V_cal.fts.mag.1'
p536
sI7
S'KIC8462852-20180729at043355_-25-1X1-030-V_cal.fts.mag.1'
p537
sI8
S'KIC8462852-20180729at050213_-25-1X1-030-V_cal.fts.mag.1'
p538
sI9
S'KIC8462852-20180729at043243_-25-1X1-030-V_cal.fts.mag.1'
p539
sI10
S'KIC8462852-20180729at050003_-25-1X1-030-V_cal.fts.mag.1'
p540
sI11
S'KIC8462852-20180729at052916_-25-1X1-030-V_cal.fts.mag.1'
p541
sI12
S'KIC8462852-20180729at043608_-25-1X1-030-V_cal.fts.mag.1'
p542
sI13
S'KIC8462852-20180729at052812_-25-1X1-030-V_cal.fts.mag.1'
p543
sI14
S'KIC8462852-20180729at050107_-25-1X1-030-V_cal.fts.mag.1'
p544
ssg121
(dp545
I0
F0.006548342331997766
sI1
Fnan
sI2
Fnan
sI3
Fnan
sI4
Fnan
sI5
Fnan
sI6
Fnan
sI7
Fnan
sI8
Fnan
sI9
Fnan
sI10
Fnan
sI11
Fnan
sI12
Fnan
sI13
Fnan
sI14
Fnan
ssg123
(dp546
I0
F5513.123333333334
sI1
F6274.12
sI2
F6374.17
sI3
F6331.9
sI4
F6375.693333333333
sI5
F5311.8133333333335
sI6
F6379.14
sI7
F5608.73
sI8
F6267.633333333333
sI9
F5477.4766666666665
sI10
F6163.993333333333
sI11
F6416.456666666667
sI12
F5830.203333333334
sI13
F6378.3533333333335
sI14
F6280.973333333333
ssg125
(dp547
I0
F0.06863138252043784
sI1
Fnan
sI2
Fnan
sI3
Fnan
sI4
Fnan
sI5
Fnan
sI6
Fnan
sI7
Fnan
sI8
Fnan
sI9
Fnan
sI10
Fnan
sI11
Fnan
sI12
Fnan
sI13
Fnan
sI14
Fnan
ssg127
(dp548
I0
g469
sI1
g469
sI2
g469
sI3
g469
sI4
g469
sI5
g469
sI6
g469
sI7
g469
sI8
g469
sI9
g469
sI10
g469
sI11
g469
sI12
g469
sI13
g469
sI14
g469
ssg144
(dp549
I0
F0.004494727240435432
sI1
Fnan
sI2
Fnan
sI3
Fnan
sI4
Fnan
sI5
Fnan
sI6
Fnan
sI7
Fnan
sI8
Fnan
sI9
Fnan
sI10
Fnan
sI11
Fnan
sI12
Fnan
sI13
Fnan
sI14
Fnan
ssg146
(dp550
I0
F3.87579
sI1
F-3.829271
sI2
F5.232343
sI3
F4.145921
sI4
F-5.256976
sI5
F4.455904
sI6
F5.039193
sI7
F5.423079
sI8
F-3.551975
sI9
F2.820969
sI10
F-4.796055
sI11
F-4.139869
sI12
F3.142843
sI13
F0.2863695
sI14
F5.202495
ssg148
(dp551
I0
F1.5018537000452805
sI1
Fnan
sI2
Fnan
sI3
Fnan
sI4
Fnan
sI5
Fnan
sI6
Fnan
sI7
Fnan
sI8
Fnan
sI9
Fnan
sI10
Fnan
sI11
Fnan
sI12
Fnan
sI13
Fnan
sI14
Fnan
ssg150
(dp552
I0
F2458328.7091087964
sI1
Fnan
sI2
Fnan
sI3
Fnan
sI4
Fnan
sI5
Fnan
sI6
Fnan
sI7
Fnan
sI8
Fnan
sI9
Fnan
sI10
Fnan
sI11
Fnan
sI12
Fnan
sI13
Fnan
sI14
Fnan
ssg152
(dp553
I0
F0.004494727240435432
sI1
Fnan
sI2
Fnan
sI3
Fnan
sI4
Fnan
sI5
Fnan
sI6
Fnan
sI7
Fnan
sI8
Fnan
sI9
Fnan
sI10
Fnan
sI11
Fnan
sI12
Fnan
sI13
Fnan
sI14
Fnan
ssg154
(dp554
I0
F70.20946
sI1
F83.32672
sI2
F94.3291
sI3
F92.36024
sI4
F92.95976
sI5
F67.33895
sI6
F83.74862
sI7
F67.70787
sI8
F84.73952
sI9
F66.0808
sI10
F84.593
sI11
F92.71579
sI12
F67.98723
sI13
F93.67178
sI14
F83.21806
ssg156
(dp555
I0
F10.96
sI1
F10.841
sI2
F10.829
sI3
F10.829
sI4
F10.822
sI5
F11.002
sI6
F10.816
sI7
F10.94
sI8
F10.831
sI9
F10.967
sI10
F10.851
sI11
F10.813
sI12
F10.913
sI13
F10.821
sI14
F10.835
ssg158
(dp556
I0
F0.6916331754011985
sI1
Fnan
sI2
Fnan
sI3
Fnan
sI4
Fnan
sI5
Fnan
sI6
Fnan
sI7
Fnan
sI8
Fnan
sI9
Fnan
sI10
Fnan
sI11
Fnan
sI12
Fnan
sI13
Fnan
sI14
Fnan
sss.