(dp0
S'r'
p1
(dp2
S'sigmean'
p3
(dp4
I0
F0.5502137251120526
sI1
Fnan
sI2
Fnan
sI3
Fnan
sI4
Fnan
sI5
Fnan
sI6
Fnan
sI7
Fnan
ssS'ref3flag'
p5
(dp6
I0
S'NoError'
p7
sI1
S'NoError'
p8
sI2
S'NoError'
p9
sI3
S'NoError'
p10
sI4
S'NoError'
p11
sI5
S'NoError'
p12
sI6
S'NoError'
p13
sI7
S'NoError'
p14
ssS'tabbyerr'
p15
(dp16
I0
F0.002
sI1
F0.002
sI2
F0.002
sI3
F0.002
sI4
F0.002
sI5
F0.002
sI6
F0.002
sI7
F0.002
ssS'ref2rel'
p17
(dp18
I0
F0.894212239468864
sI1
F0.8943304801226956
sI2
F0.8968886029987662
sI3
F0.8957990073374645
sI4
F0.8916767613792499
sI5
F0.8919741592874209
sI6
F0.8923556085230341
sI7
F0.8953804418894482
ssS'ref2err'
p19
(dp20
I0
F0.0019197543087993432
sI1
Fnan
sI2
Fnan
sI3
Fnan
sI4
Fnan
sI5
Fnan
sI6
Fnan
sI7
Fnan
ssS'ref2mean'
p21
(dp22
I0
F0.8940771626258679
sI1
Fnan
sI2
Fnan
sI3
Fnan
sI4
Fnan
sI5
Fnan
sI6
Fnan
sI7
Fnan
ssS'tabbymag'
p23
(dp24
I0
F11.187
sI1
F11.171
sI2
F11.16
sI3
F11.197
sI4
F11.173
sI5
F11.17
sI6
F11.172
sI7
F11.167
ssS'tabbybkg'
p25
(dp26
I0
F22.90731
sI1
F21.68476
sI2
F20.71295
sI3
F23.05122
sI4
F22.28378
sI5
F21.35722
sI6
F22.79757
sI7
F22.77577
ssS'JD'
p27
(dp28
I0
F2458289.7521412037
sI1
F2458289.759849537
sI2
F2458289.762349537
sI3
F2458289.74962963
sI4
F2458289.7512962963
sI5
F2458289.7615162036
sI6
F2458289.7504745373
sI7
F2458289.76068287
ssS'ref3rmsmean'
p29
(dp30
I0
F2.2974968749999998
sI1
Fnan
sI2
Fnan
sI3
Fnan
sI4
Fnan
sI5
Fnan
sI6
Fnan
sI7
Fnan
ssS'ref1rmsmean'
p31
(dp32
I0
F3.49417375
sI1
Fnan
sI2
Fnan
sI3
Fnan
sI4
Fnan
sI5
Fnan
sI6
Fnan
sI7
Fnan
ssS'relflux'
p33
(dp34
I0
F0.5481224511620433
sI1
F0.5525115008115474
sI2
F0.5498383016013093
sI3
F0.5502514926652653
sI4
F0.5504538807061027
sI5
F0.5506494875554636
sI6
F0.5498213726672979
sI7
F0.5502678154768765
ssS'sigerr'
p35
(dp36
I0
F0.00030188271050396947
sI1
Fnan
sI2
Fnan
sI3
Fnan
sI4
Fnan
sI5
Fnan
sI6
Fnan
sI7
Fnan
ssS'tabbyrmsmean'
p37
(dp38
I0
F0.8256037000000002
sI1
Fnan
sI2
Fnan
sI3
Fnan
sI4
Fnan
sI5
Fnan
sI6
Fnan
sI7
Fnan
ssS'tabbyflag'
p39
(dp40
I0
g7
sI1
g8
sI2
g9
sI3
g10
sI4
g11
sI5
g12
sI6
g13
sI7
g14
ssS'ref1err'
p41
(dp42
I0
F0.0011387352727348882
sI1
Fnan
sI2
Fnan
sI3
Fnan
sI4
Fnan
sI5
Fnan
sI6
Fnan
sI7
Fnan
ssS'ref2magmeanerr'
p43
(dp44
I0
F0.01112269237704104
sI1
Fnan
sI2
Fnan
sI3
Fnan
sI4
Fnan
sI5
Fnan
sI6
Fnan
sI7
Fnan
ssS'ref2rmsmean'
p45
(dp46
I0
F3.1807753749999996
sI1
Fnan
sI2
Fnan
sI3
Fnan
sI4
Fnan
sI5
Fnan
sI6
Fnan
sI7
Fnan
ssS'ref3rel'
p47
(dp48
I0
F1.4933375373483193
sI1
F1.4957452256683221
sI2
F1.4920452810689875
sI3
F1.4898546406024737
sI4
F1.495113163092091
sI5
F1.4970919593418115
sI6
F1.4965371262945624
sI7
F1.494948435939598
ssS'ref1flag'
p49
(dp50
I0
g7
sI1
g8
sI2
g9
sI3
g10
sI4
g11
sI5
g12
sI6
g13
sI7
g14
ssS'ref2bkg'
p51
(dp52
I0
F24.97307
sI1
F23.31954
sI2
F23.35742
sI3
F26.40961
sI4
F24.10808
sI5
F22.89067
sI6
F24.83766
sI7
F24.75437
ssS'ref3magmean'
p53
(dp54
I0
F10.25525
sI1
Fnan
sI2
Fnan
sI3
Fnan
sI4
Fnan
sI5
Fnan
sI6
Fnan
sI7
Fnan
ssS'ref1mean'
p55
(dp56
I0
F0.7152600694773344
sI1
Fnan
sI2
Fnan
sI3
Fnan
sI4
Fnan
sI5
Fnan
sI6
Fnan
sI7
Fnan
ssS'ref1rms'
p57
(dp58
I0
F4.353062
sI1
F3.034724
sI2
F4.203698
sI3
F4.344999
sI4
F2.821409
sI5
F2.78008
sI6
F3.999638
sI7
F2.41578
ssS'ref2magmean'
p59
(dp60
I0
F10.6085
sI1
Fnan
sI2
Fnan
sI3
Fnan
sI4
Fnan
sI5
Fnan
sI6
Fnan
sI7
Fnan
ssS'ref2flag'
p61
(dp62
I0
g7
sI1
g8
sI2
g9
sI3
g10
sI4
g11
sI5
g12
sI6
g13
sI7
g14
ssS'ref2'
p63
(dp64
I0
F14240.28222222222
sI1
F14337.648888888887
sI2
F14581.3
sI3
F14072.946666666667
sI4
F14327.626666666665
sI5
F14368.917777777779
sI6
F14366.324444444444
sI7
F14455.20888888889
ssS'airmass'
p65
(dp66
I0
F1.3377809999999999
sI1
F1.299459
sI2
F1.287773
sI3
F1.350985
sI4
F1.3421299999999998
sI5
F1.291647
sI6
F1.346538
sI7
F1.295542
ssS'ref1'
p67
(dp68
I0
F12147.191111111111
sI1
F12209.522222222222
sI2
F12392.346666666666
sI3
F11998.524444444443
sI4
F12260.351111111113
sI5
F12274.451111111111
sI6
F12268.586666666668
sI7
F12294.042222222222
ssS'ref3'
p69
(dp70
I0
F19702.702222222222
sI1
F19853.902222222223
sI2
F20122.951111111113
sI3
F19421.35111111111
sI4
F19876.01777777778
sI5
F19943.786666666667
sI6
F19930.066666666666
sI7
F19994.375555555554
ssS'ref1bkg'
p71
(dp72
I0
F23.76513
sI1
F23.21273
sI2
F22.47912
sI3
F24.01296
sI4
F23.95521
sI5
F23.15954
sI6
F23.4146
sI7
F23.69556
ssS'ref1mag'
p73
(dp74
I0
F10.789
sI1
F10.783
sI2
F10.767
sI3
F10.802
sI4
F10.779
sI5
F10.777
sI6
F10.778
sI7
F10.776
ssS'ref3magerr'
p75
(dp76
I0
F0.001
sI1
F0.001
sI2
F0.001
sI3
F0.001
sI4
F0.001
sI5
F0.001
sI6
F0.001
sI7
F0.001
ssS'tabbymagmean'
p77
(dp78
I0
F0.5502395378307383
sI1
Fnan
sI2
Fnan
sI3
Fnan
sI4
Fnan
sI5
Fnan
sI6
Fnan
sI7
Fnan
ssS'ref1magmean'
p79
(dp80
I0
F10.781375
sI1
Fnan
sI2
Fnan
sI3
Fnan
sI4
Fnan
sI5
Fnan
sI6
Fnan
sI7
Fnan
ssS'ref2mag'
p81
(dp82
I0
F10.616
sI1
F10.609
sI2
F10.591
sI3
F10.629
sI4
F10.61
sI5
F10.606
sI6
F10.607
sI7
F10.6
ssS'ref3rms'
p83
(dp84
I0
F3.559357
sI1
F5.647232
sI2
F4.069688
sI3
F4.533038
sI4
F4.010806
sI5
F-3.698497
sI6
F-3.646998
sI7
F3.905349
ssS'ref3magmeanerr'
p85
(dp86
I0
F0.011609724987514374
sI1
Fnan
sI2
Fnan
sI3
Fnan
sI4
Fnan
sI5
Fnan
sI6
Fnan
sI7
Fnan
ssS'ref1rel'
p87
(dp88
I0
F0.7157408996249462
sI1
F0.7141835819349264
sI2
F0.7141687989169179
sI3
F0.7164517688383972
sI4
F0.7169032019979679
sI5
F0.7154464394367178
sI6
F0.715444760757465
sI7
F0.7137411043113373
ssS'exposure'
p89
(dp90
I0
F45.0
sI1
F45.0
sI2
F45.0
sI3
F45.0
sI4
F45.0
sI5
F45.0
sI6
F45.0
sI7
F45.0
ssS'ref1magerr'
p91
(dp92
I0
F0.001
sI1
F0.001
sI2
F0.001
sI3
F0.001
sI4
F0.001
sI5
F0.001
sI6
F0.001
sI7
F0.001
ssS'ref2magerr'
p93
(dp94
I0
F0.001
sI1
F0.001
sI2
F0.001
sI3
F0.001
sI4
F0.001
sI5
F0.001
sI6
F0.001
sI7
F0.001
ssS'ref2rms'
p95
(dp96
I0
F3.953131
sI1
F5.458724
sI2
F4.106752
sI3
F-2.976824
sI4
F4.251287
sI5
F4.312723
sI6
F2.55895
sI7
F3.78146
ssS'name'
p97
(dp98
I0
S"KIC8462852-20180620at060305_-25-1-045-r'_cal.fts.mag.1"
p99
sI1
S"KIC8462852-20180620at061410_-25-1-045-r'_cal.fts.mag.1"
p100
sI2
S"KIC8462852-20180620at061747_-25-1-045-r'_cal.fts.mag.1"
p101
sI3
S"KIC8462852-20180620at055926_-25-1-045-r'_cal.fts.mag.1"
p102
sI4
S"KIC8462852-20180620at060152_-25-1-045-r'_cal.fts.mag.1"
p103
sI5
S"KIC8462852-20180620at061635_-25-1-045-r'_cal.fts.mag.1"
p104
sI6
S"KIC8462852-20180620at060041_-25-1-045-r'_cal.fts.mag.1"
p105
sI7
S"KIC8462852-20180620at061523_-25-1-045-r'_cal.fts.mag.1"
p106
ssS'ref3err'
p107
(dp108
I0
F0.002441665774335788
sI1
Fnan
sI2
Fnan
sI3
Fnan
sI4
Fnan
sI5
Fnan
sI6
Fnan
sI7
Fnan
ssS'tabby'
p109
(dp110
I0
F8421.02
sI1
F8545.70888888889
sI2
F8631.837777777779
sI3
F8344.164444444445
sI4
F8525.428888888888
sI5
F8551.064444444444
sI6
F8534.14
sI7
F8573.837777777779
ssS'ref1magmeanerr'
p111
(dp112
I0
F0.010405184147474612
sI1
Fnan
sI2
Fnan
sI3
Fnan
sI4
Fnan
sI5
Fnan
sI6
Fnan
sI7
Fnan
ssS'filter'
p113
(dp114
I0
S"r'"
p115
sI1
S"r'"
p116
sI2
S"r'"
p117
sI3
S"r'"
p118
sI4
S"r'"
p119
sI5
S"r'"
p120
sI6
S"r'"
p121
sI7
S"r'"
p122
ssS'tabbymagerr'
p123
(dp124
I0
F0.0012068062072509717
sI1
Fnan
sI2
Fnan
sI3
Fnan
sI4
Fnan
sI5
Fnan
sI6
Fnan
sI7
Fnan
ssS'tabbyrms'
p125
(dp126
I0
F2.339725
sI1
F0.6538626
sI2
F4.089749
sI3
F-1.680382
sI4
F3.422755
sI5
F-2.075033
sI6
F3.595635
sI7
F-3.741482
ssS'ref3mean'
p127
(dp128
I0
F1.4943341711695206
sI1
Fnan
sI2
Fnan
sI3
Fnan
sI4
Fnan
sI5
Fnan
sI6
Fnan
sI7
Fnan
ssS'median_JD'
p129
(dp130
I0
F2458289.7559953704
sI1
Fnan
sI2
Fnan
sI3
Fnan
sI4
Fnan
sI5
Fnan
sI6
Fnan
sI7
Fnan
ssS'error'
p131
(dp132
I0
F0.0012068062072509717
sI1
Fnan
sI2
Fnan
sI3
Fnan
sI4
Fnan
sI5
Fnan
sI6
Fnan
sI7
Fnan
ssS'ref3bkg'
p133
(dp134
I0
F27.36698
sI1
F26.9853
sI2
F26.65096
sI3
F28.55311
sI4
F27.17759
sI5
F26.76414
sI6
F26.92471
sI7
F26.88358
ssS'ref3mag'
p135
(dp136
I0
F10.264
sI1
F10.255
sI2
F10.241
sI3
F10.279
sI4
F10.254
sI5
F10.25
sI6
F10.251
sI7
F10.248
ssS'mean'
p137
(dp138
I0
F0.5502395378307383
sI1
Fnan
sI2
Fnan
sI3
Fnan
sI4
Fnan
sI5
Fnan
sI6
Fnan
sI7
Fnan
sssS'z'
p139
(dp140
g3
(dp141
I0
F0.3749370723692538
sI1
Fnan
sI2
Fnan
sI3
Fnan
sI4
Fnan
sI5
Fnan
sI6
Fnan
sI7
Fnan
ssg5
(dp142
I0
S'NoError'
p143
sI1
S'NoError'
p144
sI2
S'NoError'
p145
sI3
S'NoError'
p146
sI4
S'NoError'
p147
sI5
S'NoError'
p148
sI6
S'NoError'
p149
sI7
S'NoError'
p150
ssg15
(dp151
I0
F0.007
sI1
F0.007
sI2
F0.006
sI3
F0.007
sI4
F0.007
sI5
F0.007
sI6
F0.007
sI7
F0.007
ssg17
(dp152
I0
F0.9097346577587951
sI1
F0.9225007534203298
sI2
F0.9175146667372964
sI3
F0.9130140997934124
sI4
F0.9151761622080025
sI5
F0.9068715570678522
sI6
F0.9166885343864482
sI7
F0.9094382503797374
ssg19
(dp153
I0
F0.005125229862552351
sI1
Fnan
sI2
Fnan
sI3
Fnan
sI4
Fnan
sI5
Fnan
sI6
Fnan
sI7
Fnan
ssg21
(dp154
I0
F0.9138673352189842
sI1
Fnan
sI2
Fnan
sI3
Fnan
sI4
Fnan
sI5
Fnan
sI6
Fnan
sI7
Fnan
ssg23
(dp155
I0
F13.257
sI1
F13.274
sI2
F13.261
sI3
F13.28
sI4
F13.294
sI5
F13.272
sI6
F13.267
sI7
F13.264
ssg25
(dp156
I0
F12.39293
sI1
F12.17771
sI2
F11.64169
sI3
F12.95927
sI4
F12.44126
sI5
F12.70197
sI6
F13.78495
sI7
F12.53559
ssg27
(dp157
I0
F2458289.7632175926
sI1
F2458289.7538310187
sI2
F2458289.7546643517
sI3
F2458289.752997685
sI4
F2458289.755497685
sI5
F2458289.764039352
sI6
F2458289.7657175926
sI7
F2458289.764872685
ssg29
(dp158
I0
F1.21494575
sI1
Fnan
sI2
Fnan
sI3
Fnan
sI4
Fnan
sI5
Fnan
sI6
Fnan
sI7
Fnan
ssg31
(dp159
I0
F-0.513195125
sI1
Fnan
sI2
Fnan
sI3
Fnan
sI4
Fnan
sI5
Fnan
sI6
Fnan
sI7
Fnan
ssg33
(dp160
I0
F0.37914883560061974
sI1
F0.3763150340510904
sI2
F0.38185007157140954
sI3
F0.37278391841479175
sI4
F0.3719204592320735
sI5
F0.37457404216580936
sI6
F0.37262399015503467
sI7
F0.3771932269653566
ssg35
(dp161
I0
F0.0025055974053702235
sI1
Fnan
sI2
Fnan
sI3
Fnan
sI4
Fnan
sI5
Fnan
sI6
Fnan
sI7
Fnan
ssg37
(dp162
I0
F2.842607125
sI1
Fnan
sI2
Fnan
sI3
Fnan
sI4
Fnan
sI5
Fnan
sI6
Fnan
sI7
Fnan
ssg39
(dp163
I0
g143
sI1
g144
sI2
g145
sI3
g146
sI4
g147
sI5
g148
sI6
g149
sI7
g150
ssg41
(dp164
I0
F0.00376034983995235
sI1
Fnan
sI2
Fnan
sI3
Fnan
sI4
Fnan
sI5
Fnan
sI6
Fnan
sI7
Fnan
ssg43
(dp165
I0
F0.007704358692139162
sI1
Fnan
sI2
Fnan
sI3
Fnan
sI4
Fnan
sI5
Fnan
sI6
Fnan
sI7
Fnan
ssg45
(dp166
I0
F1.8315056250000001
sI1
Fnan
sI2
Fnan
sI3
Fnan
sI4
Fnan
sI5
Fnan
sI6
Fnan
sI7
Fnan
ssg47
(dp167
I0
F1.5128505036719386
sI1
F1.5013417810116685
sI2
F1.5060465349445757
sI3
F1.5013205144656447
sI4
F1.4926593922155915
sI5
F1.5139273772919433
sI6
F1.4953080430933796
sI7
F1.5101087849337562
ssg49
(dp168
I0
g143
sI1
g144
sI2
g145
sI3
g146
sI4
g147
sI5
g148
sI6
g149
sI7
g150
ssg51
(dp169
I0
F13.7046
sI1
F12.95678
sI2
F14.1143
sI3
F14.06391
sI4
F12.83585
sI5
F14.24799
sI6
F13.62008
sI7
F14.73777
ssg53
(dp170
I0
F11.933875
sI1
Fnan
sI2
Fnan
sI3
Fnan
sI4
Fnan
sI5
Fnan
sI6
Fnan
sI7
Fnan
ssg55
(dp171
I0
F0.6922362437606051
sI1
Fnan
sI2
Fnan
sI3
Fnan
sI4
Fnan
sI5
Fnan
sI6
Fnan
sI7
Fnan
ssg57
(dp172
I0
F1.575847
sI1
F-2.743208
sI2
F-4.343128
sI3
F-2.08526
sI4
F4.283987
sI5
F-1.798856
sI6
F3.022514
sI7
F-2.017457
ssg59
(dp173
I0
F12.274750000000001
sI1
Fnan
sI2
Fnan
sI3
Fnan
sI4
Fnan
sI5
Fnan
sI6
Fnan
sI7
Fnan
ssg61
(dp174
I0
g143
sI1
g144
sI2
g145
sI3
g146
sI4
g147
sI5
g148
sI6
g149
sI7
g150
ssg63
(dp175
I0
F3095.584444444444
sI1
F3098.4555555555557
sI2
F3079.22
sI3
F3088.2488888888893
sI4
F3060.0155555555557
sI5
F3081.242222222222
sI6
F3136.215555555556
sI7
F3090.1044444444447
ssg65
(dp176
I0
F1.283876
sI1
F1.329048
sI2
F1.3248309999999999
sI3
F1.333329
sI4
F1.3205879999999999
sI5
F1.280071
sI6
F1.272607
sI7
F1.276313
ssg67
(dp177
I0
F2541.4622222222224
sI1
F2508.52
sI2
F2506.164444444444
sI3
F2540.028888888889
sI4
F2521.568888888889
sI5
F2540.14
sI6
F2573.5555555555557
sI7
F2542.62
ssg69
(dp178
I0
F4264.004444444445
sI1
F4208.993333333334
sI2
F4205.924444444445
sI3
F4224.924444444445
sI4
F4165.702222222222
sI5
F4255.182222222223
sI6
F4268.933333333333
sI7
F4253.013333333333
ssg71
(dp179
I0
F13.89507
sI1
F14.14906
sI2
F14.0442
sI3
F12.51396
sI4
F11.99954
sI5
F13.42749
sI6
F13.80103
sI7
F13.75129
ssg73
(dp180
I0
F12.487
sI1
F12.501
sI2
F12.502
sI3
F12.488
sI4
F12.496
sI5
F12.488
sI6
F12.474
sI7
F12.487
ssg75
(dp181
I0
F0.003
sI1
F0.003
sI2
F0.003
sI3
F0.003
sI4
F0.003
sI5
F0.003
sI6
F0.003
sI7
F0.003
ssg77
(dp182
I0
F0.3758011972695232
sI1
Fnan
sI2
Fnan
sI3
Fnan
sI4
Fnan
sI5
Fnan
sI6
Fnan
sI7
Fnan
ssg79
(dp183
I0
F12.490375
sI1
Fnan
sI2
Fnan
sI3
Fnan
sI4
Fnan
sI5
Fnan
sI6
Fnan
sI7
Fnan
ssg81
(dp184
I0
F12.273
sI1
F12.272
sI2
F12.279
sI3
F12.276
sI4
F12.286
sI5
F12.278
sI6
F12.259
sI7
F12.275
ssg83
(dp185
I0
F4.343505
sI1
F2.38691
sI2
F3.428664
sI3
F3.129367
sI4
F-1.935315
sI5
F-2.239711
sI6
F-2.701371
sI7
F3.307517
ssg85
(dp186
I0
F0.009372261504796135
sI1
Fnan
sI2
Fnan
sI3
Fnan
sI4
Fnan
sI5
Fnan
sI6
Fnan
sI7
Fnan
ssg87
(dp187
I0
F0.6906533124585763
sI1
F0.6865651852356438
sI2
F0.6880205227380529
sI3
F0.6946447932011882
sI4
F0.6979428110640604
sI5
F0.6924735664451741
sI6
F0.6950719274306736
sI7
F0.6925178315114712
ssg89
(dp188
I0
F45.0
sI1
F45.0
sI2
F45.0
sI3
F45.0
sI4
F45.0
sI5
F45.0
sI6
F45.0
sI7
F45.0
ssg91
(dp189
I0
F0.004
sI1
F0.004
sI2
F0.004
sI3
F0.004
sI4
F0.004
sI5
F0.004
sI6
F0.004
sI7
F0.004
ssg93
(dp190
I0
F0.003
sI1
F0.003
sI2
F0.003
sI3
F0.003
sI4
F0.003
sI5
F0.003
sI6
F0.003
sI7
F0.003
ssg95
(dp191
I0
F-2.095858
sI1
F2.18965
sI2
F2.407863
sI3
F2.60635
sI4
F3.517467
sI5
F4.034049
sI6
F4.054798
sI7
F-2.062274
ssg97
(dp192
I0
S"KIC8462852-20180620at061900_-25-1-045-z'_cal.fts.mag.1"
p193
sI1
S"KIC8462852-20180620at060531_-25-1-045-z'_cal.fts.mag.1"
p194
sI2
S"KIC8462852-20180620at060643_-25-1-045-z'_cal.fts.mag.1"
p195
sI3
S"KIC8462852-20180620at060418_-25-1-045-z'_cal.fts.mag.1"
p196
sI4
S"KIC8462852-20180620at060755_-25-1-045-z'_cal.fts.mag.1"
p197
sI5
S"KIC8462852-20180620at062013_-25-1-045-z'_cal.fts.mag.1"
p198
sI6
S"KIC8462852-20180620at062238_-25-1-045-z'_cal.fts.mag.1"
p199
sI7
S"KIC8462852-20180620at062125_-25-1-045-z'_cal.fts.mag.1"
p200
ssg107
(dp201
I0
F0.007896560915862622
sI1
Fnan
sI2
Fnan
sI3
Fnan
sI4
Fnan
sI5
Fnan
sI6
Fnan
sI7
Fnan
ssg109
(dp202
I0
F1251.324
sI1
F1231.2988888888888
sI2
F1246.2706666666668
sI3
F1224.3717777777779
sI4
F1208.4051111111112
sI5
F1233.1682222222223
sI6
F1239.434888888889
sI7
F1242.9444444444443
ssg111
(dp203
I0
F0.009117291264405275
sI1
Fnan
sI2
Fnan
sI3
Fnan
sI4
Fnan
sI5
Fnan
sI6
Fnan
sI7
Fnan
ssg113
(dp204
I0
S"z'"
p205
sI1
S"z'"
p206
sI2
S"z'"
p207
sI3
S"z'"
p208
sI4
S"z'"
p209
sI5
S"z'"
p210
sI6
S"z'"
p211
sI7
S"z'"
p212
ssg123
(dp213
I0
F0.0035002447205765307
sI1
Fnan
sI2
Fnan
sI3
Fnan
sI4
Fnan
sI5
Fnan
sI6
Fnan
sI7
Fnan
ssg125
(dp214
I0
F3.385962
sI1
F2.683342
sI2
F3.500769
sI3
F3.39414
sI4
F3.707452
sI5
F4.266589
sI6
F-1.995718
sI7
F3.798321
ssg127
(dp215
I0
F1.5041953664535623
sI1
Fnan
sI2
Fnan
sI3
Fnan
sI4
Fnan
sI5
Fnan
sI6
Fnan
sI7
Fnan
ssg129
(dp216
I0
F2458289.7593576387
sI1
Fnan
sI2
Fnan
sI3
Fnan
sI4
Fnan
sI5
Fnan
sI6
Fnan
sI7
Fnan
ssg131
(dp217
I0
F0.0035002447205765307
sI1
Fnan
sI2
Fnan
sI3
Fnan
sI4
Fnan
sI5
Fnan
sI6
Fnan
sI7
Fnan
ssg133
(dp218
I0
F14.53335
sI1
F15.63164
sI2
F14.06557
sI3
F14.57505
sI4
F15.09882
sI5
F14.47414
sI6
F15.45118
sI7
F15.20784
ssg135
(dp219
I0
F11.925
sI1
F11.94
sI2
F11.94
sI3
F11.935
sI4
F11.951
sI5
F11.928
sI6
F11.924
sI7
F11.928
ssg137
(dp220
I0
F0.3758011972695232
sI1
Fnan
sI2
Fnan
sI3
Fnan
sI4
Fnan
sI5
Fnan
sI6
Fnan
sI7
Fnan
sssS'g'
p221
(dp222
g3
(dp223
I0
F0.8676537533415258
sI1
Fnan
sI2
Fnan
sI3
Fnan
sI4
Fnan
sI5
Fnan
sI6
Fnan
sI7
Fnan
ssg5
(dp224
I0
S'NoError'
p225
sI1
S'NoError'
p226
sI2
S'NoError'
p227
sI3
S'NoError'
p228
sI4
S'NoError'
p229
sI5
S'NoError'
p230
sI6
S'NoError'
p231
sI7
S'NoError'
p232
ssg15
(dp233
I0
F0.002
sI1
F0.002
sI2
F0.002
sI3
F0.002
sI4
F0.002
sI5
F0.002
sI6
F0.002
sI7
F0.002
ssg17
(dp234
I0
F0.8833119778729961
sI1
F0.8802780129516009
sI2
F0.8817369696428154
sI3
F0.875590438847961
sI4
F0.8781171738217229
sI5
F0.8755748171190022
sI6
F0.8789977439613719
sI7
F0.8797817244911493
ssg19
(dp235
I0
F0.002731400017570679
sI1
Fnan
sI2
Fnan
sI3
Fnan
sI4
Fnan
sI5
Fnan
sI6
Fnan
sI7
Fnan
ssg21
(dp236
I0
F0.8791736073385775
sI1
Fnan
sI2
Fnan
sI3
Fnan
sI4
Fnan
sI5
Fnan
sI6
Fnan
sI7
Fnan
ssg23
(dp237
I0
F11.4
sI1
F11.386
sI2
F11.393
sI3
F11.402
sI4
F11.39
sI5
F11.402
sI6
F11.388
sI7
F11.396
ssg25
(dp238
I0
F20.26166
sI1
F20.07074
sI2
F19.59897
sI3
F20.61179
sI4
F20.33179
sI5
F19.78462
sI6
F20.69558
sI7
F20.89815
ssg27
(dp239
I0
F2458289.74625
sI1
F2458289.7573263887
sI2
F2458289.758159722
sI3
F2458289.7564814813
sI4
F2458289.747928241
sI5
F2458289.7487615743
sI6
F2458289.7589814817
sI7
F2458289.7470833333
ssg29
(dp240
I0
F3.58990175
sI1
Fnan
sI2
Fnan
sI3
Fnan
sI4
Fnan
sI5
Fnan
sI6
Fnan
sI7
Fnan
ssg31
(dp241
I0
F0.3001545000000001
sI1
Fnan
sI2
Fnan
sI3
Fnan
sI4
Fnan
sI5
Fnan
sI6
Fnan
sI7
Fnan
ssg33
(dp242
I0
F0.8637966624497994
sI1
F0.8696124141269298
sI2
F0.8674071979582479
sI3
F0.8660322803439525
sI4
F0.8699904758037426
sI5
F0.8679171459372206
sI6
F0.864971331252658
sI7
F0.8676454279679288
ssg35
(dp243
I0
F0.0016583736185426844
sI1
Fnan
sI2
Fnan
sI3
Fnan
sI4
Fnan
sI5
Fnan
sI6
Fnan
sI7
Fnan
ssg37
(dp244
I0
F3.35629025
sI1
Fnan
sI2
Fnan
sI3
Fnan
sI4
Fnan
sI5
Fnan
sI6
Fnan
sI7
Fnan
ssg39
(dp245
I0
g225
sI1
g226
sI2
g227
sI3
g228
sI4
g229
sI5
g230
sI6
g231
sI7
g232
ssg41
(dp246
I0
F0.0024263642701708664
sI1
Fnan
sI2
Fnan
sI3
Fnan
sI4
Fnan
sI5
Fnan
sI6
Fnan
sI7
Fnan
ssg43
(dp247
I0
F0.007059694449073801
sI1
Fnan
sI2
Fnan
sI3
Fnan
sI4
Fnan
sI5
Fnan
sI6
Fnan
sI7
Fnan
ssg45
(dp248
I0
F-0.2460438749999998
sI1
Fnan
sI2
Fnan
sI3
Fnan
sI4
Fnan
sI5
Fnan
sI6
Fnan
sI7
Fnan
ssg47
(dp249
I0
F1.5097820179940824
sI1
F1.5065928158308133
sI2
F1.5049976743719669
sI3
F1.5234293175935971
sI4
F1.5091822635306638
sI5
F1.5122870571406346
sI6
F1.5108722567715236
sI7
F1.509512379388656
ssg49
(dp250
I0
g225
sI1
g226
sI2
g227
sI3
g228
sI4
g229
sI5
g230
sI6
g231
sI7
g232
ssg51
(dp251
I0
F20.76402
sI1
F20.54985
sI2
F20.97824
sI3
F21.48957
sI4
F20.90438
sI5
F21.49831
sI6
F20.01236
sI7
F20.88805
ssg53
(dp252
I0
F10.962375000000002
sI1
Fnan
sI2
Fnan
sI3
Fnan
sI4
Fnan
sI5
Fnan
sI6
Fnan
sI7
Fnan
ssg55
(dp253
I0
F0.7185423568524902
sI1
Fnan
sI2
Fnan
sI3
Fnan
sI4
Fnan
sI5
Fnan
sI6
Fnan
sI7
Fnan
ssg57
(dp254
I0
F-3.085479
sI1
F-3.845713
sI2
F3.522001
sI3
F4.170941
sI4
F3.026306
sI5
F-3.495317
sI6
F-1.125103
sI7
F3.2336
ssg59
(dp255
I0
F11.335125000000001
sI1
Fnan
sI2
Fnan
sI3
Fnan
sI4
Fnan
sI5
Fnan
sI6
Fnan
sI7
Fnan
ssg61
(dp256
I0
g225
sI1
g226
sI2
g227
sI3
g228
sI4
g229
sI5
g230
sI6
g231
sI7
g232
ssg63
(dp257
I0
F7360.2
sI1
F7391.457777777778
sI2
F7367.982222222223
sI3
F7283.131111111112
sI4
F7346.54
sI5
F7270.217777777778
sI6
F7407.10888888889
sI7
F7333.904444444444
ssg65
(dp258
I0
F1.369476
sI1
F1.311634
sI2
F1.307604
sI3
F1.315735
sI4
F1.360187
sI5
F1.3556620000000001
sI6
F1.3035809999999999
sI7
F1.364794
ssg67
(dp259
I0
F6330.226666666667
sI1
F6402.513333333332
sI2
F6372.631111111112
sI3
F6294.017777777777
sI4
F6376.897777777778
sI5
F6326.022222222222
sI6
F6413.184444444444
sI7
F6346.631111111112
ssg69
(dp260
I0
F10334.779999999999
sI1
F10390.94888888889
sI2
F10339.795555555555
sI3
F10341.913333333332
sI4
F10355.584444444445
sI5
F10280.70888888889
sI6
F10440.34888888889
sI7
F10325.468888888889
ssg71
(dp261
I0
F20.64076
sI1
F20.32281
sI2
F18.49713
sI3
F19.06028
sI4
F19.10999
sI5
F19.82237
sI6
F19.36429
sI7
F19.59591
ssg73
(dp262
I0
F11.496
sI1
F11.484
sI2
F11.489
sI3
F11.503
sI4
F11.488
sI5
F11.497
sI6
F11.482
sI7
F11.494
ssg75
(dp263
I0
F0.002
sI1
F0.002
sI2
F0.002
sI3
F0.002
sI4
F0.002
sI5
F0.002
sI6
F0.002
sI7
F0.002
ssg77
(dp264
I0
F0.8671716169800598
sI1
Fnan
sI2
Fnan
sI3
Fnan
sI4
Fnan
sI5
Fnan
sI6
Fnan
sI7
Fnan
ssg79
(dp265
I0
F11.491624999999999
sI1
Fnan
sI2
Fnan
sI3
Fnan
sI4
Fnan
sI5
Fnan
sI6
Fnan
sI7
Fnan
ssg81
(dp266
I0
F11.333
sI1
F11.328
sI2
F11.332
sI3
F11.344
sI4
F11.335
sI5
F11.346
sI6
F11.326
sI7
F11.337
ssg83
(dp267
I0
F3.772135
sI1
F3.392836
sI2
F3.681209
sI3
F4.001839
sI4
F3.588627
sI5
F2.866981
sI6
F4.12357
sI7
F3.292017
ssg85
(dp268
I0
F0.0050409041139181775
sI1
Fnan
sI2
Fnan
sI3
Fnan
sI4
Fnan
sI5
Fnan
sI6
Fnan
sI7
Fnan
ssg87
(dp269
I0
F0.7154827715732561
sI1
F0.7200952551979276
sI2
F0.7197550354520927
sI3
F0.7142129822840477
sI4
F0.7204669470933558
sI5
F0.7208761500025893
sI6
F0.7186664369005681
sI7
F0.7187832763160843
ssg89
(dp270
I0
F45.0
sI1
F45.0
sI2
F45.0
sI3
F45.0
sI4
F45.0
sI5
F45.0
sI6
F45.0
sI7
F45.0
ssg91
(dp271
I0
F0.002
sI1
F0.002
sI2
F0.002
sI3
F0.002
sI4
F0.002
sI5
F0.002
sI6
F0.002
sI7
F0.002
ssg93
(dp272
I0
F0.002
sI1
F0.002
sI2
F0.002
sI3
F0.002
sI4
F0.002
sI5
F0.002
sI6
F0.002
sI7
F0.002
ssg95
(dp273
I0
F3.079083
sI1
F3.281365
sI2
F3.985464
sI3
F-2.865404
sI4
F-2.135827
sI5
F-2.820517
sI6
F-2.692825
sI7
F-1.79969
ssg97
(dp274
I0
S"KIC8462852-20180620at055430_-25-1-045-g'_cal.fts.mag.1"
p275
sI1
S"KIC8462852-20180620at061032_-25-1-045-g'_cal.fts.mag.1"
p276
sI2
S"KIC8462852-20180620at061144_-25-1-045-g'_cal.fts.mag.1"
p277
sI3
S"KIC8462852-20180620at060911_-25-1-045-g'_cal.fts.mag.1"
p278
sI4
S"KIC8462852-20180620at055701_-25-1-045-g'_cal.fts.mag.1"
p279
sI5
S"KIC8462852-20180620at055813_-25-1-045-g'_cal.fts.mag.1"
p280
sI6
S"KIC8462852-20180620at061256_-25-1-045-g'_cal.fts.mag.1"
p281
sI7
S"KIC8462852-20180620at055548_-25-1-045-g'_cal.fts.mag.1"
p282
ssg107
(dp283
I0
F0.0055855265972653495
sI1
Fnan
sI2
Fnan
sI3
Fnan
sI4
Fnan
sI5
Fnan
sI6
Fnan
sI7
Fnan
ssg109
(dp284
I0
F6917.631111111112
sI1
F7010.5022222222215
sI2
F6962.506666666666
sI3
F6904.893333333333
sI4
F6982.84
sI5
F6907.737777777778
sI6
F6994.92
sI7
F6942.9
ssg111
(dp285
I0
F0.0071101034752367575
sI1
Fnan
sI2
Fnan
sI3
Fnan
sI4
Fnan
sI5
Fnan
sI6
Fnan
sI7
Fnan
ssg113
(dp286
I0
S"g'"
p287
sI1
S"g'"
p288
sI2
S"g'"
p289
sI3
S"g'"
p290
sI4
S"g'"
p291
sI5
S"g'"
p292
sI6
S"g'"
p293
sI7
S"g'"
p294
ssg123
(dp295
I0
F0.002147055385186462
sI1
Fnan
sI2
Fnan
sI3
Fnan
sI4
Fnan
sI5
Fnan
sI6
Fnan
sI7
Fnan
ssg125
(dp296
I0
F3.39802
sI1
F4.507193
sI2
F3.24971
sI3
F3.057118
sI4
F3.289288
sI5
F3.957029
sI6
F2.111216
sI7
F3.280748
ssg127
(dp297
I0
F1.5108319728277422
sI1
Fnan
sI2
Fnan
sI3
Fnan
sI4
Fnan
sI5
Fnan
sI6
Fnan
sI7
Fnan
ssg129
(dp298
I0
F2458289.7526215278
sI1
Fnan
sI2
Fnan
sI3
Fnan
sI4
Fnan
sI5
Fnan
sI6
Fnan
sI7
Fnan
ssg131
(dp299
I0
F0.002147055385186462
sI1
Fnan
sI2
Fnan
sI3
Fnan
sI4
Fnan
sI5
Fnan
sI6
Fnan
sI7
Fnan
ssg133
(dp300
I0
F22.09391
sI1
F21.56644
sI2
F22.46282
sI3
F22.02688
sI4
F21.16114
sI5
F22.87906
sI6
F21.8489
sI7
F22.13574
ssg135
(dp301
I0
F10.964
sI1
F10.958
sI2
F10.964
sI3
F10.963
sI4
F10.962
sI5
F10.97
sI6
F10.953
sI7
F10.965
ssg137
(dp302
I0
F0.8671716169800598
sI1
Fnan
sI2
Fnan
sI3
Fnan
sI4
Fnan
sI5
Fnan
sI6
Fnan
sI7
Fnan
sssS'V'
p303
(dp304
g3
(dp305
I0
F0.693346156813769
sI1
Fnan
sI2
Fnan
sI3
Fnan
sI4
Fnan
sI5
Fnan
sI6
Fnan
sI7
Fnan
ssg5
(dp306
I0
S'NoError'
p307
sI1
S'NoError'
p308
sI2
S'NoError'
p309
sI3
S'NoError'
p310
sI4
S'NoError'
p311
sI5
S'NoError'
p312
sI6
S'NoError'
p313
sI7
S'NoError'
p314
ssg15
(dp315
I0
F0.002
sI1
F0.002
sI2
F0.002
sI3
F0.002
sI4
F0.002
sI5
F0.002
sI6
F0.002
sI7
F0.002
ssg17
(dp316
I0
F0.8835888493354445
sI1
F0.8859248096894861
sI2
F0.884335458426255
sI3
F0.884033719090754
sI4
F0.891633321331277
sI5
F0.892775163636621
sI6
F0.889930738903573
sI7
F0.8866940920043043
ssg19
(dp317
I0
F0.00360813735062524
sI1
Fnan
sI2
Fnan
sI3
Fnan
sI4
Fnan
sI5
Fnan
sI6
Fnan
sI7
Fnan
ssg21
(dp318
I0
F0.8873645190522144
sI1
Fnan
sI2
Fnan
sI3
Fnan
sI4
Fnan
sI5
Fnan
sI6
Fnan
sI7
Fnan
ssg23
(dp319
I0
F11.382
sI1
F11.376
sI2
F11.379
sI3
F11.388
sI4
F11.391
sI5
F11.384
sI6
F11.369
sI7
F11.383
ssg25
(dp320
I0
F16.92894
sI1
F17.20613
sI2
F16.03494
sI3
F14.75379
sI4
F17.60264
sI5
F17.01599
sI6
F15.27799
sI7
F15.88273
ssg27
(dp321
I0
F2458289.779212963
sI1
F2458289.7800462963
sI2
F2458289.7927662036
sI3
F2458289.7952546296
sI4
F2458289.78087963
sI5
F2458289.781712963
sI6
F2458289.7944328706
sI7
F2458289.793599537
ssg29
(dp322
I0
F0.7883837499999999
sI1
Fnan
sI2
Fnan
sI3
Fnan
sI4
Fnan
sI5
Fnan
sI6
Fnan
sI7
Fnan
ssg31
(dp323
I0
F-0.796609125
sI1
Fnan
sI2
Fnan
sI3
Fnan
sI4
Fnan
sI5
Fnan
sI6
Fnan
sI7
Fnan
ssg33
(dp324
I0
F0.6950941792909838
sI1
F0.6950991703132701
sI2
F0.6936086098358446
sI3
F0.6933239018197934
sI4
F0.6916491587075689
sI5
F0.6925379413250131
sI6
F0.6913784030952812
sI7
F0.6940778901223965
ssg35
(dp325
I0
F0.0013294039530990826
sI1
Fnan
sI2
Fnan
sI3
Fnan
sI4
Fnan
sI5
Fnan
sI6
Fnan
sI7
Fnan
ssg37
(dp326
I0
F3.37395375
sI1
Fnan
sI2
Fnan
sI3
Fnan
sI4
Fnan
sI5
Fnan
sI6
Fnan
sI7
Fnan
ssg39
(dp327
I0
g307
sI1
g308
sI2
g309
sI3
g310
sI4
g311
sI5
g312
sI6
g313
sI7
g314
ssg41
(dp328
I0
F0.0019457553284942303
sI1
Fnan
sI2
Fnan
sI3
Fnan
sI4
Fnan
sI5
Fnan
sI6
Fnan
sI7
Fnan
ssg43
(dp329
I0
F0.008141603913585819
sI1
Fnan
sI2
Fnan
sI3
Fnan
sI4
Fnan
sI5
Fnan
sI6
Fnan
sI7
Fnan
ssg45
(dp330
I0
F1.067308625
sI1
Fnan
sI2
Fnan
sI3
Fnan
sI4
Fnan
sI5
Fnan
sI6
Fnan
sI7
Fnan
ssg47
(dp331
I0
F1.5023083219491336
sI1
F1.501370765106736
sI2
F1.5042826914495844
sI3
F1.503695145394667
sI4
F1.4962261574366416
sI5
F1.4993500631790728
sI6
F1.4974947477418499
sI7
F1.5039740915437252
ssg49
(dp332
I0
g307
sI1
g308
sI2
g309
sI3
g310
sI4
g311
sI5
g312
sI6
g313
sI7
g314
ssg51
(dp333
I0
F18.37874
sI1
F17.6134
sI2
F16.82966
sI3
F15.06585
sI4
F17.29748
sI5
F17.29645
sI6
F15.36658
sI7
F17.28145
ssg53
(dp334
I0
F10.7105
sI1
Fnan
sI2
Fnan
sI3
Fnan
sI4
Fnan
sI5
Fnan
sI6
Fnan
sI7
Fnan
ssg55
(dp335
I0
F0.7171177157960495
sI1
Fnan
sI2
Fnan
sI3
Fnan
sI4
Fnan
sI5
Fnan
sI6
Fnan
sI7
Fnan
ssg57
(dp336
I0
F-2.021598
sI1
F2.527769
sI2
F-3.423585
sI3
F2.720349
sI4
F-4.150271
sI5
F-2.287487
sI6
F3.639351
sI7
F-3.377401
ssg59
(dp337
I0
F11.072
sI1
Fnan
sI2
Fnan
sI3
Fnan
sI4
Fnan
sI5
Fnan
sI6
Fnan
sI7
Fnan
ssg61
(dp338
I0
g307
sI1
g308
sI2
g309
sI3
g310
sI4
g311
sI5
g312
sI6
g313
sI7
g314
ssg63
(dp339
I0
F9298.586666666668
sI1
F9372.506666666666
sI2
F9355.744444444445
sI3
F9282.08
sI4
F9333.031111111111
sI5
F9390.257777777777
sI6
F9509.062222222223
sI7
F9327.67111111111
ssg65
(dp340
I0
F1.217476
sI1
F1.214361
sI2
F1.170528
sI3
F1.162699
sI4
F1.211293
sI5
F1.208243
sI6
F1.165311
sI7
F1.167899
ssg67
(dp341
I0
F8030.5
sI1
F8067.064444444445
sI2
F8059.835555555555
sI3
F8003.362222222222
sI4
F7981.475555555556
sI5
F7999.466666666666
sI6
F8148.951111111111
sI7
F8005.151111111111
ssg69
(dp342
I0
F13016.815555555555
sI1
F13091.631111111112
sI2
F13098.977777777778
sI3
F12996.017777777779
sI4
F12953.20888888889
sI5
F13036.642222222223
sI6
F13221.39111111111
sI7
F13034.057777777778
ssg71
(dp343
I0
F17.46016
sI1
F16.90842
sI2
F16.11495
sI3
F15.71672
sI4
F17.74955
sI5
F18.01892
sI6
F14.88003
sI7
F16.11695
ssg73
(dp344
I0
F11.238
sI1
F11.233
sI2
F11.234
sI3
F11.242
sI4
F11.245
sI5
F11.242
sI6
F11.222
sI7
F11.242
ssg75
(dp345
I0
F0.001
sI1
F0.001
sI2
F0.001
sI3
F0.001
sI4
F0.001
sI5
F0.001
sI6
F0.001
sI7
F0.001
ssg77
(dp346
I0
F0.693346156813769
sI1
Fnan
sI2
Fnan
sI3
Fnan
sI4
Fnan
sI5
Fnan
sI6
Fnan
sI7
Fnan
ssg79
(dp347
I0
F11.23725
sI1
Fnan
sI2
Fnan
sI3
Fnan
sI4
Fnan
sI5
Fnan
sI6
Fnan
sI7
Fnan
ssg81
(dp348
I0
F11.079
sI1
F11.07
sI2
F11.072
sI3
F11.081
sI4
F11.075
sI5
F11.068
sI6
F11.055
sI7
F11.076
ssg83
(dp349
I0
F3.369295
sI1
F-2.392151
sI2
F-3.032083
sI3
F2.496236
sI4
F-3.557907
sI5
F4.253238
sI6
F2.028836
sI7
F3.141606
ssg85
(dp350
I0
F0.006654751256486992
sI1
Fnan
sI2
Fnan
sI3
Fnan
sI4
Fnan
sI5
Fnan
sI6
Fnan
sI7
Fnan
ssg87
(dp351
I0
F0.7197271122456428
sI1
F0.7182171445213121
sI2
F0.7178744386852555
sI3
F0.7184960136233454
sI4
F0.7162693711954601
sI5
F0.7133814006096845
sI6
F0.7170073549884717
sI7
F0.7159688904992241
ssg89
(dp352
I0
F45.0
sI1
F45.0
sI2
F45.0
sI3
F45.0
sI4
F45.0
sI5
F45.0
sI6
F45.0
sI7
F45.0
ssg91
(dp353
I0
F0.002
sI1
F0.002
sI2
F0.002
sI3
F0.002
sI4
F0.002
sI5
F0.002
sI6
F0.002
sI7
F0.002
ssg93
(dp354
I0
F0.002
sI1
F0.002
sI2
F0.002
sI3
F0.002
sI4
F0.002
sI5
F0.002
sI6
F0.002
sI7
F0.002
ssg95
(dp355
I0
F3.13066
sI1
F2.357883
sI2
F-2.267102
sI3
F3.749403
sI4
F-2.506335
sI5
F2.907172
sI6
F2.986822
sI7
F-1.820034
ssg97
(dp356
I0
S'KIC8462852-20180620at064203_-25-1-045-V_cal.fts.mag.1'
p357
sI1
S'KIC8462852-20180620at064316_-25-1-045-V_cal.fts.mag.1'
p358
sI2
S'KIC8462852-20180620at070134_-25-1-045-V_cal.fts.mag.1'
p359
sI3
S'KIC8462852-20180620at070510_-25-1-045-V_cal.fts.mag.1'
p360
sI4
S'KIC8462852-20180620at064428_-25-1-045-V_cal.fts.mag.1'
p361
sI5
S'KIC8462852-20180620at064540_-25-1-045-V_cal.fts.mag.1'
p362
sI6
S'KIC8462852-20180620at070358_-25-1-045-V_cal.fts.mag.1'
p363
sI7
S'KIC8462852-20180620at070247_-25-1-045-V_cal.fts.mag.1'
p364
ssg107
(dp365
I0
F0.0030815424133715545
sI1
Fnan
sI2
Fnan
sI3
Fnan
sI4
Fnan
sI5
Fnan
sI6
Fnan
sI7
Fnan
ssg109
(dp366
I0
F7031.086666666667
sI1
F7074.071111111111
sI2
F7055.053333333334
sI3
F6998.286666666667
sI4
F6978.213333333333
sI5
F7023.804444444445
sI6
F7116.451111111111
sI7
F7025.66
ssg111
(dp367
I0
F0.007459413994601741
sI1
Fnan
sI2
Fnan
sI3
Fnan
sI4
Fnan
sI5
Fnan
sI6
Fnan
sI7
Fnan
ssg113
(dp368
I0
g303
sI1
g303
sI2
g303
sI3
g303
sI4
g303
sI5
g303
sI6
g303
sI7
g303
ssg123
(dp369
I0
F0.0014211926060341887
sI1
Fnan
sI2
Fnan
sI3
Fnan
sI4
Fnan
sI5
Fnan
sI6
Fnan
sI7
Fnan
ssg125
(dp370
I0
F2.920553
sI1
F3.283057
sI2
F3.142766
sI3
F4.282557
sI4
F3.359905
sI5
F3.545102
sI6
F2.695752
sI7
F3.761938
ssg127
(dp371
I0
F1.5010877479751763
sI1
Fnan
sI2
Fnan
sI3
Fnan
sI4
Fnan
sI5
Fnan
sI6
Fnan
sI7
Fnan
ssg129
(dp372
I0
F2458289.787239583
sI1
Fnan
sI2
Fnan
sI3
Fnan
sI4
Fnan
sI5
Fnan
sI6
Fnan
sI7
Fnan
ssg131
(dp373
I0
F0.0014211926060341887
sI1
Fnan
sI2
Fnan
sI3
Fnan
sI4
Fnan
sI5
Fnan
sI6
Fnan
sI7
Fnan
ssg133
(dp374
I0
F20.18458
sI1
F19.41144
sI2
F18.15046
sI3
F18.23929
sI4
F20.56315
sI5
F19.97924
sI6
F17.37
sI7
F19.08668
ssg135
(dp375
I0
F10.714
sI1
F10.708
sI2
F10.707
sI3
F10.715
sI4
F10.719
sI5
F10.712
sI6
F10.697
sI7
F10.712
ssg137
(dp376
I0
F0.693346156813769
sI1
Fnan
sI2
Fnan
sI3
Fnan
sI4
Fnan
sI5
Fnan
sI6
Fnan
sI7
Fnan
sss.