(dp0
S'r'
p1
(dp2
S'sigmean'
p3
(dp4
I0
F0.5385253587688621
sI1
Fnan
sI2
Fnan
sI3
Fnan
sI4
Fnan
sI5
Fnan
sI6
Fnan
sI7
Fnan
sI8
Fnan
sI9
Fnan
ssS'ref3flag'
p5
(dp6
I0
S'NoError'
p7
sI1
S'NoError'
p8
sI2
S'NoError'
p9
sI3
S'NoError'
p10
sI4
S'NoError'
p11
sI5
S'NoError'
p12
sI6
S'NoError'
p13
sI7
S'NoError'
p14
sI8
S'NoError'
p15
sI9
S'NoError'
p16
ssS'tabbyerr'
p17
(dp18
I0
F0.004
sI1
F0.004
sI2
F0.005
sI3
F0.005
sI4
F0.004
sI5
F0.006
sI6
F0.006
sI7
F0.004
sI8
F0.005
sI9
F0.006
ssS'ref2rel'
p19
(dp20
I0
F0.8917890868696906
sI1
F0.8991524278526603
sI2
F0.8913298001359049
sI3
F0.8883303977757224
sI4
F0.8906897040856949
sI5
F0.8859621657527565
sI6
F0.8821694117762411
sI7
F0.8780315937090736
sI8
F0.8864356525525566
sI9
F0.8833727660467996
ssS'ref2err'
p21
(dp22
I0
F0.005942241263822882
sI1
Fnan
sI2
Fnan
sI3
Fnan
sI4
Fnan
sI5
Fnan
sI6
Fnan
sI7
Fnan
sI8
Fnan
sI9
Fnan
ssS'ref2mean'
p23
(dp24
I0
F0.8877263006557101
sI1
Fnan
sI2
Fnan
sI3
Fnan
sI4
Fnan
sI5
Fnan
sI6
Fnan
sI7
Fnan
sI8
Fnan
sI9
Fnan
ssS'tabbymag'
p25
(dp26
I0
F12.096
sI1
F12.2
sI2
F12.175
sI3
F12.321
sI4
F12.17
sI5
F12.503
sI6
F12.433
sI7
F12.13
sI8
F12.181
sI9
F12.482
ssS'tabbybkg'
p27
(dp28
I0
F67.80505
sI1
F70.16023
sI2
F60.66189
sI3
F73.49767
sI4
F70.60407
sI5
F79.50137
sI6
F71.93893
sI7
F59.22916
sI8
F69.68564
sI9
F78.40263
ssS'JD'
p29
(dp30
I0
F2458212.87787037
sI1
F2458212.8772685183
sI2
F2458212.863923611
sI3
F2458212.878460648
sI4
F2458212.876076389
sI5
F2458212.8657175926
sI6
F2458212.865115741
sI7
F2458212.864525463
sI8
F2458212.8766666665
sI9
F2458212.8663194445
ssS'ref3rmsmean'
p31
(dp32
I0
F5.5505497
sI1
Fnan
sI2
Fnan
sI3
Fnan
sI4
Fnan
sI5
Fnan
sI6
Fnan
sI7
Fnan
sI8
Fnan
sI9
Fnan
ssS'ref1rmsmean'
p33
(dp34
I0
F3.2862940000000003
sI1
Fnan
sI2
Fnan
sI3
Fnan
sI4
Fnan
sI5
Fnan
sI6
Fnan
sI7
Fnan
sI8
Fnan
sI9
Fnan
ssS'relflux'
p35
(dp36
I0
F0.5372904266838407
sI1
F0.53864594658755
sI2
F0.5424289172366097
sI3
F0.5441924786756158
sI4
F0.5389863551461044
sI5
F0.5413447531208166
sI6
F0.5323933828897757
sI7
F0.5335058222041097
sI8
F0.5390931795604089
sI9
F0.5369074696114571
ssS'sigerr'
p37
(dp38
I0
F0.0025757184109794174
sI1
Fnan
sI2
Fnan
sI3
Fnan
sI4
Fnan
sI5
Fnan
sI6
Fnan
sI7
Fnan
sI8
Fnan
sI9
Fnan
ssS'tabbyrmsmean'
p39
(dp40
I0
F0.8016770800000002
sI1
Fnan
sI2
Fnan
sI3
Fnan
sI4
Fnan
sI5
Fnan
sI6
Fnan
sI7
Fnan
sI8
Fnan
sI9
Fnan
ssS'tabbyflag'
p41
(dp42
I0
g7
sI1
g8
sI2
g9
sI3
g10
sI4
g11
sI5
g12
sI6
g13
sI7
g14
sI8
g15
sI9
g16
ssS'ref1err'
p43
(dp44
I0
F0.004638680301514275
sI1
Fnan
sI2
Fnan
sI3
Fnan
sI4
Fnan
sI5
Fnan
sI6
Fnan
sI7
Fnan
sI8
Fnan
sI9
Fnan
ssS'ref2magmeanerr'
p45
(dp46
I0
F0.1548292608004055
sI1
Fnan
sI2
Fnan
sI3
Fnan
sI4
Fnan
sI5
Fnan
sI6
Fnan
sI7
Fnan
sI8
Fnan
sI9
Fnan
ssS'ref2rmsmean'
p47
(dp48
I0
F2.7664158
sI1
Fnan
sI2
Fnan
sI3
Fnan
sI4
Fnan
sI5
Fnan
sI6
Fnan
sI7
Fnan
sI8
Fnan
sI9
Fnan
ssS'ref3rel'
p49
(dp50
I0
F1.4967679002849033
sI1
F1.498544673314713
sI2
F1.4950491503876526
sI3
F1.5127748769503127
sI4
F1.5115759235021113
sI5
F1.5245808662435378
sI6
F1.516656505426177
sI7
F1.5384242714407035
sI8
F1.5127582872504013
sI9
F1.5120971759651005
ssS'ref1flag'
p51
(dp52
I0
g7
sI1
g8
sI2
g9
sI3
g10
sI4
g11
sI5
g12
sI6
g13
sI7
g14
sI8
g15
sI9
g16
ssS'ref2bkg'
p53
(dp54
I0
F69.26678
sI1
F72.95714
sI2
F70.2731
sI3
F77.99018
sI4
F72.62707
sI5
F85.91301
sI6
F79.06784
sI7
F68.44788
sI8
F73.77126
sI9
F82.50419
ssS'ref3magmean'
p55
(dp56
I0
F11.3191
sI1
Fnan
sI2
Fnan
sI3
Fnan
sI4
Fnan
sI5
Fnan
sI6
Fnan
sI7
Fnan
sI8
Fnan
sI9
Fnan
ssS'ref1mean'
p57
(dp58
I0
F0.710346070732488
sI1
Fnan
sI2
Fnan
sI3
Fnan
sI4
Fnan
sI5
Fnan
sI6
Fnan
sI7
Fnan
sI8
Fnan
sI9
Fnan
ssS'ref1rms'
p59
(dp60
I0
F-1.111564
sI1
F3.213973
sI2
F7.856383
sI3
F5.077309
sI4
F4.981435
sI5
F-2.66613
sI6
F6.101841
sI7
F5.781019
sI8
F-3.272119
sI9
F6.900793
ssS'ref2magmean'
p61
(dp62
I0
F11.6849
sI1
Fnan
sI2
Fnan
sI3
Fnan
sI4
Fnan
sI5
Fnan
sI6
Fnan
sI7
Fnan
sI8
Fnan
sI9
Fnan
ssS'ref2flag'
p63
(dp64
I0
g7
sI1
g8
sI2
g9
sI3
g10
sI4
g11
sI5
g12
sI6
g13
sI7
g14
sI8
g15
sI9
g16
ssS'ref2'
p65
(dp66
I0
F6274.76
sI1
F5722.26
sI2
F5776.7119999999995
sI3
F5021.316
sI4
F5839.62
sI5
F4260.8240000000005
sI6
F4606.508
sI7
F6060.736
sI8
F5761.096
sI9
F4373.548
ssS'airmass'
p67
(dp68
I0
F2.1240919999999996
sI1
F2.133489
sI2
F2.3675200000000003
sI3
F2.1149299999999998
sI4
F2.1525849999999997
sI5
F2.333198
sI6
F2.344561
sI7
F2.355983
sI8
F2.142936
sI9
F2.321887
ssS'ref1'
p69
(dp70
I0
F5362.876
sI1
F4825.2
sI2
F4946.295999999999
sI3
F4274.116
sI4
F4954.508
sI5
F3614.9196
sI6
F3952.8144
sI7
F5168.0
sI8
F4919.648
sI9
F3755.7708000000002
ssS'ref3'
p71
(dp72
I0
F8709.42
sI1
F7902.92
sI2
F8015.7119999999995
sI3
F7030.948
sI4
F8158.071999999999
sI5
F6003.604
sI6
F6490.776
sI7
F8637.28
sI8
F8078.691999999999
sI9
F6146.16
ssS'ref1bkg'
p73
(dp74
I0
F68.40005
sI1
F72.37612
sI2
F65.9127
sI3
F76.41032
sI4
F70.5294
sI5
F82.69695
sI6
F76.87725
sI7
F63.56878
sI8
F71.29366
sI9
F79.58191
ssS'ref1mag'
p75
(dp76
I0
F11.677
sI1
F11.791
sI2
F11.764
sI3
F11.923
sI4
F11.762
sI5
F12.105
sI6
F12.008
sI7
F11.717
sI8
F11.77
sI9
F12.063
ssS'ref3magerr'
p77
(dp78
I0
F0.002
sI1
F0.003
sI2
F0.003
sI3
F0.003
sI4
F0.002
sI5
F0.003
sI6
F0.003
sI7
F0.003
sI8
F0.003
sI9
F0.003
ssS'tabbymagmean'
p79
(dp80
I0
F12.2691
sI1
Fnan
sI2
Fnan
sI3
Fnan
sI4
Fnan
sI5
Fnan
sI6
Fnan
sI7
Fnan
sI8
Fnan
sI9
Fnan
ssS'ref1magmean'
p81
(dp82
I0
F11.858
sI1
Fnan
sI2
Fnan
sI3
Fnan
sI4
Fnan
sI5
Fnan
sI6
Fnan
sI7
Fnan
sI8
Fnan
sI9
Fnan
ssS'ref2mag'
p83
(dp84
I0
F11.506
sI1
F11.606
sI2
F11.596
sI3
F11.748
sI4
F11.584
sI5
F11.926
sI6
F11.842
sI7
F11.544
sI8
F11.599
sI9
F11.898
ssS'ref3rms'
p85
(dp86
I0
F5.280767
sI1
F5.488898
sI2
F9.235685
sI3
F2.776446
sI4
F-4.694237
sI5
F6.207723
sI6
F10.0357
sI7
F9.036007
sI8
F5.424529
sI9
F6.713979
ssS'ref3magmeanerr'
p87
(dp88
I0
F0.15162779721703035
sI1
Fnan
sI2
Fnan
sI3
Fnan
sI4
Fnan
sI5
Fnan
sI6
Fnan
sI7
Fnan
sI8
Fnan
sI9
Fnan
ssS'ref1rel'
p89
(dp90
I0
F0.7158050690795226
sI1
F0.7082768814797309
sI2
F0.7172482516488762
sI3
F0.7092635873226807
sI4
F0.7079035601011938
sI5
F0.7043587036705796
sI6
F0.7123931224973606
sI7
F0.703224163043502
sI8
F0.7109426820699856
sI9
F0.714044686411448
ssS'exposure'
p91
(dp92
I0
F25.0
sI1
F25.0
sI2
F25.0
sI3
F25.0
sI4
F25.0
sI5
F25.0
sI6
F25.0
sI7
F25.0
sI8
F25.0
sI9
F25.0
ssS'ref1magerr'
p93
(dp94
I0
F0.003
sI1
F0.004
sI2
F0.004
sI3
F0.004
sI4
F0.003
sI5
F0.004
sI6
F0.004
sI7
F0.003
sI8
F0.003
sI9
F0.004
ssS'ref2magerr'
p95
(dp96
I0
F0.003
sI1
F0.003
sI2
F0.004
sI3
F0.003
sI4
F0.003
sI5
F0.004
sI6
F0.004
sI7
F0.003
sI8
F0.003
sI9
F0.004
ssS'ref2rms'
p97
(dp98
I0
F-3.943449
sI1
F5.194163
sI2
F8.218863
sI3
F-3.206364
sI4
F3.362164
sI5
F3.561678
sI6
F5.592472
sI7
F5.975849
sI8
F-4.34015
sI9
F7.248932
ssS'name'
p99
(dp100
I0
S"KIC8462852-20180404at090408_-35-1-025-r'_cal.fts.mag.1"
p101
sI1
S"KIC8462852-20180404at090316_-35-1-025-r'_cal.fts.mag.1"
p102
sI2
S"KIC8462852-20180404at084401_-35-1-025-r'_cal.fts.mag.1"
p103
sI3
S"KIC8462852-20180404at090459_-35-1-025-r'_cal.fts.mag.1"
p104
sI4
S"KIC8462852-20180404at090131_-35-1-025-r'_cal.fts.mag.1"
p105
sI5
S"KIC8462852-20180404at084638_-35-1-025-r'_cal.fts.mag.1"
p106
sI6
S"KIC8462852-20180404at084546_-35-1-025-r'_cal.fts.mag.1"
p107
sI7
S"KIC8462852-20180404at084455_-35-1-025-r'_cal.fts.mag.1"
p108
sI8
S"KIC8462852-20180404at090224_-35-1-025-r'_cal.fts.mag.1"
p109
sI9
S"KIC8462852-20180404at084730_-35-1-025-r'_cal.fts.mag.1"
p110
ssS'ref3err'
p111
(dp112
I0
F0.01324933000789692
sI1
Fnan
sI2
Fnan
sI3
Fnan
sI4
Fnan
sI5
Fnan
sI6
Fnan
sI7
Fnan
sI8
Fnan
sI9
Fnan
ssS'tabby'
p113
(dp114
I0
F3644.0928000000004
sI1
F3312.7408
sI2
F3388.1412
sI3
F2961.5644
sI4
F3404.9924
sI5
F2504.504
sI6
F2670.8576000000003
sI7
F3532.8784
sI8
F3371.028
sI9
F2554.8704000000002
ssS'ref1magmeanerr'
p115
(dp116
I0
F0.15372630802103393
sI1
Fnan
sI2
Fnan
sI3
Fnan
sI4
Fnan
sI5
Fnan
sI6
Fnan
sI7
Fnan
sI8
Fnan
sI9
Fnan
ssS'filter'
p117
(dp118
I0
S"r'"
p119
sI1
S"r'"
p120
sI2
S"r'"
p121
sI3
S"r'"
p122
sI4
S"r'"
p123
sI5
S"r'"
p124
sI6
S"r'"
p125
sI7
S"r'"
p126
sI8
S"r'"
p127
sI9
S"r'"
p128
ssS'tabbymagerr'
p129
(dp130
I0
F0.15279503336896189
sI1
Fnan
sI2
Fnan
sI3
Fnan
sI4
Fnan
sI5
Fnan
sI6
Fnan
sI7
Fnan
sI8
Fnan
sI9
Fnan
ssS'tabbyrms'
p131
(dp132
I0
F-3.484664
sI1
F-5.027111
sI2
F-4.120863
sI3
F-4.295778
sI4
F5.611387
sI5
F0.8904778
sI6
F5.939943
sI7
F4.8308
sI8
F1.62789
sI9
F6.044689
ssS'ref3mean'
p133
(dp134
I0
F1.5119229630765614
sI1
Fnan
sI2
Fnan
sI3
Fnan
sI4
Fnan
sI5
Fnan
sI6
Fnan
sI7
Fnan
sI8
Fnan
sI9
Fnan
ssS'median_JD'
p135
(dp136
I0
F2458212.8711979166
sI1
Fnan
sI2
Fnan
sI3
Fnan
sI4
Fnan
sI5
Fnan
sI6
Fnan
sI7
Fnan
sI8
Fnan
sI9
Fnan
ssS'error'
p137
(dp138
I0
F0.003693393046644049
sI1
Fnan
sI2
Fnan
sI3
Fnan
sI4
Fnan
sI5
Fnan
sI6
Fnan
sI7
Fnan
sI8
Fnan
sI9
Fnan
ssS'ref3bkg'
p139
(dp140
I0
F71.53074
sI1
F77.61974
sI2
F79.16375
sI3
F80.34988
sI4
F75.99078
sI5
F88.04551
sI6
F83.4191
sI7
F70.20059
sI8
F75.3818
sI9
F87.50663
ssS'ref3mag'
p141
(dp142
I0
F11.15
sI1
F11.256
sI2
F11.24
sI3
F11.382
sI4
F11.221
sI5
F11.554
sI6
F11.469
sI7
F11.159
sI8
F11.232
sI9
F11.528
ssS'mean'
p143
(dp144
I0
F0.5384788731716288
sI1
Fnan
sI2
Fnan
sI3
Fnan
sI4
Fnan
sI5
Fnan
sI6
Fnan
sI7
Fnan
sI8
Fnan
sI9
Fnan
sssS'g'
p145
(dp146
g3
(dp147
I0
F0.844461526679327
sI1
Fnan
sI2
Fnan
sI3
Fnan
sI4
Fnan
sI5
Fnan
sI6
Fnan
sI7
Fnan
sI8
Fnan
sI9
Fnan
ssg5
(dp148
I0
S'NoError'
p149
sI1
S'NoError'
p150
sI2
S'NoError'
p151
sI3
S'NoError'
p152
sI4
S'NoError'
p153
sI5
S'NoError'
p154
sI6
S'NoError'
p155
sI7
S'NoError'
p156
sI8
S'NoError'
p157
sI9
S'NoError'
p158
ssg17
(dp159
I0
F0.005
sI1
F0.005
sI2
F0.006
sI3
F0.005
sI4
F0.005
sI5
F0.006
sI6
F0.005
sI7
F0.006
sI8
F0.006
sI9
F0.004
ssg19
(dp160
I0
F0.8936278283360157
sI1
F0.8702969867151644
sI2
F0.8781728266179494
sI3
F0.8717505270755034
sI4
F0.8825189893303695
sI5
F0.8773544277447749
sI6
F0.8830147328931549
sI7
F0.8726028479607164
sI8
F0.875090155372195
sI9
F0.8872919735793696
ssg21
(dp161
I0
F0.007444872425696498
sI1
Fnan
sI2
Fnan
sI3
Fnan
sI4
Fnan
sI5
Fnan
sI6
Fnan
sI7
Fnan
sI8
Fnan
sI9
Fnan
ssg23
(dp162
I0
F0.8791721295625214
sI1
Fnan
sI2
Fnan
sI3
Fnan
sI4
Fnan
sI5
Fnan
sI6
Fnan
sI7
Fnan
sI8
Fnan
sI9
Fnan
ssg25
(dp163
I0
F12.37
sI1
F12.434
sI2
F12.603
sI3
F12.358
sI4
F12.345
sI5
F12.626
sI6
F12.442
sI7
F12.592
sI8
F12.428
sI9
F12.162
ssg27
(dp164
I0
F58.3942
sI1
F58.26197
sI2
F60.93327
sI3
F57.38297
sI4
F56.84686
sI5
F63.85838
sI6
F60.14246
sI7
F61.18358
sI8
F58.2441
sI9
F52.79511
ssg29
(dp165
I0
F2458212.8614930557
sI1
F2458212.874259259
sI2
F2458212.8730671294
sI3
F2458212.860891204
sI4
F2458212.8632986112
sI5
F2458212.875451389
sI6
F2458212.874849537
sI7
F2458212.8736689813
sI8
F2458212.8620949076
sI9
F2458212.8626967594
ssg31
(dp166
I0
F2.1597537
sI1
Fnan
sI2
Fnan
sI3
Fnan
sI4
Fnan
sI5
Fnan
sI6
Fnan
sI7
Fnan
sI8
Fnan
sI9
Fnan
ssg33
(dp167
I0
F3.1703318
sI1
Fnan
sI2
Fnan
sI3
Fnan
sI4
Fnan
sI5
Fnan
sI6
Fnan
sI7
Fnan
sI8
Fnan
sI9
Fnan
ssg35
(dp168
I0
F0.8407020369934409
sI1
F0.8507679824695211
sI2
F0.8387115374778537
sI3
F0.8421956530658049
sI4
F0.8417707329233644
sI5
F0.847997646113161
sI6
F0.8459098238100144
sI7
F0.8329738174236714
sI8
F0.8476368005814546
sI9
F0.8537843107875484
ssg37
(dp169
I0
F0.003937418999186345
sI1
Fnan
sI2
Fnan
sI3
Fnan
sI4
Fnan
sI5
Fnan
sI6
Fnan
sI7
Fnan
sI8
Fnan
sI9
Fnan
ssg39
(dp170
I0
F1.0430015999999998
sI1
Fnan
sI2
Fnan
sI3
Fnan
sI4
Fnan
sI5
Fnan
sI6
Fnan
sI7
Fnan
sI8
Fnan
sI9
Fnan
ssg41
(dp171
I0
g149
sI1
g150
sI2
g151
sI3
g152
sI4
g153
sI5
g154
sI6
g155
sI7
g156
sI8
g157
sI9
g158
ssg43
(dp172
I0
F0.005802115596557776
sI1
Fnan
sI2
Fnan
sI3
Fnan
sI4
Fnan
sI5
Fnan
sI6
Fnan
sI7
Fnan
sI8
Fnan
sI9
Fnan
ssg45
(dp173
I0
F0.14141825279016199
sI1
Fnan
sI2
Fnan
sI3
Fnan
sI4
Fnan
sI5
Fnan
sI6
Fnan
sI7
Fnan
sI8
Fnan
sI9
Fnan
ssg47
(dp174
I0
F2.2611402
sI1
Fnan
sI2
Fnan
sI3
Fnan
sI4
Fnan
sI5
Fnan
sI6
Fnan
sI7
Fnan
sI8
Fnan
sI9
Fnan
ssg49
(dp175
I0
F1.5234415502226033
sI1
F1.5346315245794708
sI2
F1.5426717577505127
sI3
F1.5408046605963068
sI4
F1.5161405874926324
sI5
F1.5214493019211897
sI6
F1.5197701154074041
sI7
F1.5244735601382213
sI8
F1.5346307146626448
sI9
F1.5224713184700462
ssg51
(dp176
I0
g149
sI1
g150
sI2
g151
sI3
g152
sI4
g153
sI5
g154
sI6
g155
sI7
g156
sI8
g157
sI9
g158
ssg53
(dp177
I0
F57.54358
sI1
F60.87223
sI2
F60.55308
sI3
F57.18465
sI4
F56.09595
sI5
F63.10508
sI6
F59.33572
sI7
F61.777
sI8
F58.6772
sI9
F53.33933
ssg55
(dp178
I0
F11.9678
sI1
Fnan
sI2
Fnan
sI3
Fnan
sI4
Fnan
sI5
Fnan
sI6
Fnan
sI7
Fnan
sI8
Fnan
sI9
Fnan
ssg57
(dp179
I0
F0.7083409502500613
sI1
Fnan
sI2
Fnan
sI3
Fnan
sI4
Fnan
sI5
Fnan
sI6
Fnan
sI7
Fnan
sI8
Fnan
sI9
Fnan
ssg59
(dp180
I0
F-2.770317
sI1
F3.279159
sI2
F3.015395
sI3
F5.332499
sI4
F5.92416
sI5
F3.785829
sI6
F5.417326
sI7
F4.645777
sI8
F6.446364
sI9
F-3.372874
ssg61
(dp181
I0
F12.347299999999999
sI1
Fnan
sI2
Fnan
sI3
Fnan
sI4
Fnan
sI5
Fnan
sI6
Fnan
sI7
Fnan
sI8
Fnan
sI9
Fnan
ssg63
(dp182
I0
g149
sI1
g150
sI2
g151
sI3
g152
sI4
g153
sI5
g154
sI6
g155
sI7
g156
sI8
g157
sI9
g158
ssg65
(dp183
I0
F3118.9688
sI1
F2854.3736
sI2
F2493.3320000000003
sI3
F3095.7596000000003
sI4
F3162.7036
sI5
F2411.6808
sI6
F2878.7459999999996
sI7
F2524.6636
sI8
F2892.5271999999995
sI9
F3702.438
ssg67
(dp184
I0
F2.415636
sI1
F2.182227
sI2
F2.2020470000000003
sI3
F2.427825
sI4
F2.379819
sI5
F2.1626689999999997
sI6
F2.17244
sI7
F2.192084
sI8
F2.403568
sI9
F2.391591
ssg69
(dp185
I0
F2613.7408
sI1
F2472.2992
sI2
F2120.0144
sI3
F2664.6020000000003
sI4
F2713.1420000000003
sI5
F2080.3907999999997
sI6
F2461.9512
sI7
F2191.6016
sI8
F2484.7456
sI9
F3138.1664
ssg71
(dp186
I0
F4366.724
sI1
F4087.24
sI2
F3558.4396
sI3
F4437.795999999999
sI4
F4454.304
sI5
F3417.2296
sI6
F4058.316
sI7
F3594.9108
sI8
F4126.064
sI9
F5207.312
ssg73
(dp187
I0
F56.51146
sI1
F58.85659
sI2
F60.86676
sI3
F56.07003
sI4
F55.54493
sI5
F62.08099
sI6
F59.87297
sI7
F60.59173
sI8
F57.21955
sI9
F53.11335
ssg75
(dp188
I0
F12.457
sI1
F12.517
sI2
F12.684
sI3
F12.436
sI4
F12.416
sI5
F12.705
sI6
F12.522
sI7
F12.648
sI8
F12.512
sI9
F12.258
ssg77
(dp189
I0
F0.004
sI1
F0.004
sI2
F0.004
sI3
F0.004
sI4
F0.004
sI5
F0.005
sI6
F0.004
sI7
F0.004
sI8
F0.004
sI9
F0.003
ssg79
(dp190
I0
F12.436
sI1
Fnan
sI2
Fnan
sI3
Fnan
sI4
Fnan
sI5
Fnan
sI6
Fnan
sI7
Fnan
sI8
Fnan
sI9
Fnan
ssg81
(dp191
I0
F12.5155
sI1
Fnan
sI2
Fnan
sI3
Fnan
sI4
Fnan
sI5
Fnan
sI6
Fnan
sI7
Fnan
sI8
Fnan
sI9
Fnan
ssg83
(dp192
I0
F12.265
sI1
F12.361
sI2
F12.508
sI3
F12.273
sI4
F12.25
sI5
F12.544
sI6
F12.352
sI7
F12.494
sI8
F12.347
sI9
F12.079
ssg85
(dp193
I0
F4.492103
sI1
F6.180714
sI2
F-3.277855
sI3
F-3.147943
sI4
F6.908984
sI5
F3.98114
sI6
F-2.598541
sI7
F4.027753
sI8
F6.907894
sI9
F-1.876712
ssg87
(dp194
I0
F0.13794829949417048
sI1
Fnan
sI2
Fnan
sI3
Fnan
sI4
Fnan
sI5
Fnan
sI6
Fnan
sI7
Fnan
sI8
Fnan
sI9
Fnan
ssg89
(dp195
I0
F0.6983296990226475
sI1
F0.712312537822618
sI2
F0.7006260447767064
sI3
F0.7073955888770505
sI4
F0.7123905193425304
sI5
F0.7138180748154919
sI6
F0.7097965103958996
sI7
F0.7162594836660536
sI8
F0.7080468228438779
sI9
F0.7044342209377368
ssg91
(dp196
I0
F25.0
sI1
F25.0
sI2
F25.0
sI3
F25.0
sI4
F25.0
sI5
F25.0
sI6
F25.0
sI7
F25.0
sI8
F25.0
sI9
F25.0
ssg93
(dp197
I0
F0.006
sI1
F0.005
sI2
F0.006
sI3
F0.005
sI4
F0.005
sI5
F0.006
sI6
F0.005
sI7
F0.006
sI8
F0.006
sI9
F0.004
ssg95
(dp198
I0
F0.005
sI1
F0.005
sI2
F0.006
sI3
F0.005
sI4
F0.005
sI5
F0.006
sI6
F0.005
sI7
F0.006
sI8
F0.005
sI9
F0.004
ssg97
(dp199
I0
F3.611637
sI1
F3.397354
sI2
F5.127819
sI3
F5.757319
sI4
F6.506359
sI5
F-1.803841
sI6
F2.496644
sI7
F-4.375664
sI8
F5.279262
sI9
F-3.385487
ssg99
(dp200
I0
S"KIC8462852-20180404at084033_-35-1-025-g'_cal.fts.mag.1"
p201
sI1
S"KIC8462852-20180404at085856_-35-1-025-g'_cal.fts.mag.1"
p202
sI2
S"KIC8462852-20180404at085709_-35-1-025-g'_cal.fts.mag.1"
p203
sI3
S"KIC8462852-20180404at083938_-35-1-025-g'_cal.fts.mag.1"
p204
sI4
S"KIC8462852-20180404at084309_-35-1-025-g'_cal.fts.mag.1"
p205
sI5
S"KIC8462852-20180404at090039_-35-1-025-g'_cal.fts.mag.1"
p206
sI6
S"KIC8462852-20180404at085947_-35-1-025-g'_cal.fts.mag.1"
p207
sI7
S"KIC8462852-20180404at085804_-35-1-025-g'_cal.fts.mag.1"
p208
sI8
S"KIC8462852-20180404at084125_-35-1-025-g'_cal.fts.mag.1"
p209
sI9
S"KIC8462852-20180404at084217_-35-1-025-g'_cal.fts.mag.1"
p210
ssg111
(dp211
I0
F0.009322670367259426
sI1
Fnan
sI2
Fnan
sI3
Fnan
sI4
Fnan
sI5
Fnan
sI6
Fnan
sI7
Fnan
sI8
Fnan
sI9
Fnan
ssg113
(dp212
I0
F2830.2048
sI1
F2669.6852000000003
sI2
F2284.5904
sI3
F2862.948
sI4
F2898.5391999999997
sI5
F2235.6895999999997
sI6
F2650.2392
sI7
F2307.6639999999998
sI8
F2685.1259999999997
sI9
F3428.7740000000003
ssg115
(dp213
I0
F0.13657090140696557
sI1
Fnan
sI2
Fnan
sI3
Fnan
sI4
Fnan
sI5
Fnan
sI6
Fnan
sI7
Fnan
sI8
Fnan
sI9
Fnan
ssg117
(dp214
I0
S"g'"
p215
sI1
S"g'"
p216
sI2
S"g'"
p217
sI3
S"g'"
p218
sI4
S"g'"
p219
sI5
S"g'"
p220
sI6
S"g'"
p221
sI7
S"g'"
p222
sI8
S"g'"
p223
sI9
S"g'"
p224
ssg129
(dp225
I0
F0.14229312468750294
sI1
Fnan
sI2
Fnan
sI3
Fnan
sI4
Fnan
sI5
Fnan
sI6
Fnan
sI7
Fnan
sI8
Fnan
sI9
Fnan
ssg131
(dp226
I0
F5.090444
sI1
F4.228504
sI2
F-3.532511
sI3
F4.883716
sI4
F6.01649
sI5
F-4.396986
sI6
F-4.115442
sI7
F-3.275658
sI8
F7.296061
sI9
F-1.764602
ssg133
(dp227
I0
F1.5280485091241034
sI1
Fnan
sI2
Fnan
sI3
Fnan
sI4
Fnan
sI5
Fnan
sI6
Fnan
sI7
Fnan
sI8
Fnan
sI9
Fnan
ssg135
(dp228
I0
F2458212.8681828706
sI1
Fnan
sI2
Fnan
sI3
Fnan
sI4
Fnan
sI5
Fnan
sI6
Fnan
sI7
Fnan
sI8
Fnan
sI9
Fnan
ssg137
(dp229
I0
F0.006168371155272763
sI1
Fnan
sI2
Fnan
sI3
Fnan
sI4
Fnan
sI5
Fnan
sI6
Fnan
sI7
Fnan
sI8
Fnan
sI9
Fnan
ssg139
(dp230
I0
F63.10022
sI1
F58.80588
sI2
F63.69626
sI3
F63.38832
sI4
F60.47675
sI5
F64.64173
sI6
F60.15197
sI7
F63.15328
sI8
F63.63536
sI9
F54.69459
ssg141
(dp231
I0
F11.9
sI1
F11.971
sI2
F12.122
sI3
F11.882
sI4
F11.878
sI5
F12.166
sI6
F11.979
sI7
F12.111
sI8
F11.961
sI9
F11.708
ssg143
(dp232
I0
F0.8442450341645834
sI1
Fnan
sI2
Fnan
sI3
Fnan
sI4
Fnan
sI5
Fnan
sI6
Fnan
sI7
Fnan
sI8
Fnan
sI9
Fnan
sss.