(dp0
S'r'
p1
(dp2
S'sigmean'
p3
(dp4
I0
F0.5395127413316569
sI1
Fnan
sI2
Fnan
sI3
Fnan
sI4
Fnan
sI5
Fnan
sI6
Fnan
sI7
Fnan
sI8
Fnan
sI9
Fnan
sI10
Fnan
sI11
Fnan
sI12
Fnan
sI13
Fnan
sI14
Fnan
ssS'ref3flag'
p5
(dp6
I0
S'NoError'
p7
sI1
S'NoError'
p8
sI2
S'NoError'
p9
sI3
S'NoError'
p10
sI4
S'NoError'
p11
sI5
S'NoError'
p12
sI6
S'NoError'
p13
sI7
S'NoError'
p14
sI8
S'NoError'
p15
sI9
S'NoError'
p16
sI10
S'NoError'
p17
sI11
S'NoError'
p18
sI12
S'NoError'
p19
sI13
S'NoError'
p20
sI14
S'NoError'
p21
ssS'tabbyerr'
p22
(dp23
I0
F0.003
sI1
F0.003
sI2
F0.003
sI3
F0.003
sI4
F0.002
sI5
F0.002
sI6
F0.003
sI7
F0.003
sI8
F0.003
sI9
F0.003
sI10
F0.003
sI11
F0.003
sI12
F0.003
sI13
F0.003
sI14
F0.003
ssS'ref2rel'
p24
(dp25
I0
F0.8957602448699432
sI1
F0.8963177635567334
sI2
F0.894708153531683
sI3
F0.8916719333718683
sI4
F0.8945144582140351
sI5
F0.8921703114530825
sI6
F0.8884613565041867
sI7
F0.8959432435717904
sI8
F0.8953572500750524
sI9
F0.8945668390804221
sI10
F0.8966271888244479
sI11
F0.8969675118993097
sI12
F0.9014270956030745
sI13
F0.8906769709299125
sI14
F0.8974139055689654
ssS'ref2err'
p26
(dp27
I0
F0.0031353998051947764
sI1
Fnan
sI2
Fnan
sI3
Fnan
sI4
Fnan
sI5
Fnan
sI6
Fnan
sI7
Fnan
sI8
Fnan
sI9
Fnan
sI10
Fnan
sI11
Fnan
sI12
Fnan
sI13
Fnan
sI14
Fnan
ssS'ref2mean'
p28
(dp29
I0
F0.8948389484703003
sI1
Fnan
sI2
Fnan
sI3
Fnan
sI4
Fnan
sI5
Fnan
sI6
Fnan
sI7
Fnan
sI8
Fnan
sI9
Fnan
sI10
Fnan
sI11
Fnan
sI12
Fnan
sI13
Fnan
sI14
Fnan
ssS'tabbymag'
p30
(dp31
I0
F11.562
sI1
F11.376
sI2
F11.466
sI3
F11.643
sI4
F11.351
sI5
F11.348
sI6
F11.552
sI7
F11.412
sI8
F11.643
sI9
F11.494
sI10
F11.553
sI11
F11.86
sI12
F11.586
sI13
F11.538
sI14
F11.559
ssS'tabbybkg'
p32
(dp33
I0
F12.86067
sI1
F12.46703
sI2
F11.71913
sI3
F13.21957
sI4
F11.84224
sI5
F12.33473
sI6
F12.68397
sI7
F12.80436
sI8
F12.85247
sI9
F14.93327
sI10
F11.87682
sI11
F11.70291
sI12
F11.94448
sI13
F12.71674
sI14
F11.16916
ssS'JD'
p34
(dp35
I0
F2458218.955208333
sI1
F2458218.9743287037
sI2
F2458218.9656828702
sI3
F2458218.966284722
sI4
F2458218.973136574
sI5
F2458218.973726852
sI6
F2458218.9650694444
sI7
F2458218.9749305556
sI8
F2458218.9644791665
sI9
F2458218.9755324074
sI10
F2458218.9545949074
sI11
F2458218.9638773147
sI12
F2458218.955821759
sI13
F2458218.9570254628
sI14
F2458218.956412037
ssS'ref3rmsmean'
p36
(dp37
I0
F0.8192192000000001
sI1
Fnan
sI2
Fnan
sI3
Fnan
sI4
Fnan
sI5
Fnan
sI6
Fnan
sI7
Fnan
sI8
Fnan
sI9
Fnan
sI10
Fnan
sI11
Fnan
sI12
Fnan
sI13
Fnan
sI14
Fnan
ssS'ref1rmsmean'
p38
(dp39
I0
F0.8193223733333332
sI1
Fnan
sI2
Fnan
sI3
Fnan
sI4
Fnan
sI5
Fnan
sI6
Fnan
sI7
Fnan
sI8
Fnan
sI9
Fnan
sI10
Fnan
sI11
Fnan
sI12
Fnan
sI13
Fnan
sI14
Fnan
ssS'relflux'
p40
(dp41
I0
F0.5378760013557761
sI1
F0.5356638278640303
sI2
F0.5434013907061672
sI3
F0.5375408390770222
sI4
F0.5397649985192075
sI5
F0.542682832614218
sI6
F0.5413608480771601
sI7
F0.5406728638585483
sI8
F0.5378316614710971
sI9
F0.5381465325682587
sI10
F0.542234529142964
sI11
F0.536353890312589
sI12
F0.5400517038487554
sI13
F0.5388297303186351
sI14
F0.5403192061473095
ssS'sigerr'
p42
(dp43
I0
F0.0018590362716273633
sI1
Fnan
sI2
Fnan
sI3
Fnan
sI4
Fnan
sI5
Fnan
sI6
Fnan
sI7
Fnan
sI8
Fnan
sI9
Fnan
sI10
Fnan
sI11
Fnan
sI12
Fnan
sI13
Fnan
sI14
Fnan
ssS'tabbyrmsmean'
p44
(dp45
I0
F0.8750887733333335
sI1
Fnan
sI2
Fnan
sI3
Fnan
sI4
Fnan
sI5
Fnan
sI6
Fnan
sI7
Fnan
sI8
Fnan
sI9
Fnan
sI10
Fnan
sI11
Fnan
sI12
Fnan
sI13
Fnan
sI14
Fnan
ssS'tabbyflag'
p46
(dp47
I0
g7
sI1
g8
sI2
g9
sI3
g10
sI4
g11
sI5
g12
sI6
g13
sI7
g14
sI8
g15
sI9
g16
sI10
g17
sI11
g18
sI12
g19
sI13
g20
sI14
g21
ssS'ref1err'
p48
(dp49
I0
F0.0020499345531433005
sI1
Fnan
sI2
Fnan
sI3
Fnan
sI4
Fnan
sI5
Fnan
sI6
Fnan
sI7
Fnan
sI8
Fnan
sI9
Fnan
sI10
Fnan
sI11
Fnan
sI12
Fnan
sI13
Fnan
sI14
Fnan
ssS'ref2magmeanerr'
p50
(dp51
I0
F0.13121458252292945
sI1
Fnan
sI2
Fnan
sI3
Fnan
sI4
Fnan
sI5
Fnan
sI6
Fnan
sI7
Fnan
sI8
Fnan
sI9
Fnan
sI10
Fnan
sI11
Fnan
sI12
Fnan
sI13
Fnan
sI14
Fnan
ssS'ref2rmsmean'
p52
(dp53
I0
F1.8852092066666664
sI1
Fnan
sI2
Fnan
sI3
Fnan
sI4
Fnan
sI5
Fnan
sI6
Fnan
sI7
Fnan
sI8
Fnan
sI9
Fnan
sI10
Fnan
sI11
Fnan
sI12
Fnan
sI13
Fnan
sI14
Fnan
ssS'ref3rel'
p54
(dp55
I0
F1.500614737267736
sI1
F1.5044302317906049
sI2
F1.5032452412063664
sI3
F1.5099587970682242
sI4
F1.5036345837811416
sI5
F1.503111808599501
sI6
F1.5061607741607606
sI7
F1.5051071128516038
sI8
F1.506076806029569
sI9
F1.505581123661606
sI10
F1.5026197671037158
sI11
F1.5033574500200295
sI12
F1.4950519140436171
sI13
F1.5085922970864791
sI14
F1.5072856860781094
ssS'ref1flag'
p56
(dp57
I0
g7
sI1
g8
sI2
g9
sI3
g10
sI4
g11
sI5
g12
sI6
g13
sI7
g14
sI8
g15
sI9
g16
sI10
g17
sI11
g18
sI12
g19
sI13
g20
sI14
g21
ssS'ref2bkg'
p58
(dp59
I0
F14.29974
sI1
F13.22722
sI2
F14.30649
sI3
F14.32137
sI4
F12.94699
sI5
F13.32977
sI6
F15.36268
sI7
F14.9975
sI8
F13.84528
sI9
F18.41306
sI10
F14.12424
sI11
F12.02061
sI12
F13.95261
sI13
F14.69413
sI14
F14.13474
ssS'ref3magmean'
p60
(dp61
I0
F10.584933333333336
sI1
Fnan
sI2
Fnan
sI3
Fnan
sI4
Fnan
sI5
Fnan
sI6
Fnan
sI7
Fnan
sI8
Fnan
sI9
Fnan
sI10
Fnan
sI11
Fnan
sI12
Fnan
sI13
Fnan
sI14
Fnan
ssS'ref1mean'
p62
(dp63
I0
F0.7085966068845292
sI1
Fnan
sI2
Fnan
sI3
Fnan
sI4
Fnan
sI5
Fnan
sI6
Fnan
sI7
Fnan
sI8
Fnan
sI9
Fnan
sI10
Fnan
sI11
Fnan
sI12
Fnan
sI13
Fnan
sI14
Fnan
ssS'ref1rms'
p64
(dp65
I0
F4.482247
sI1
F-3.60944
sI2
F2.869248
sI3
F-2.114326
sI4
F3.20124
sI5
F-3.535864
sI6
F3.539619
sI7
F1.179196
sI8
F2.895547
sI9
F-3.293565
sI10
F2.939792
sI11
F3.440365
sI12
F0.7074566
sI13
F3.000036
sI14
F-3.411716
ssS'ref2magmean'
p66
(dp67
I0
F10.941466666666667
sI1
Fnan
sI2
Fnan
sI3
Fnan
sI4
Fnan
sI5
Fnan
sI6
Fnan
sI7
Fnan
sI8
Fnan
sI9
Fnan
sI10
Fnan
sI11
Fnan
sI12
Fnan
sI13
Fnan
sI14
Fnan
ssS'ref2flag'
p68
(dp69
I0
g7
sI1
g8
sI2
g9
sI3
g10
sI4
g11
sI5
g12
sI6
g13
sI7
g14
sI8
g15
sI9
g16
sI10
g17
sI11
g18
sI12
g19
sI13
g20
sI14
g21
ssS'ref2'
p70
(dp71
I0
F10283.668
sI1
F12256.76
sI2
F11109.108
sI3
F9514.86
sI4
F12430.028
sI5
F12378.028
sI6
F10253.88
sI7
F11748.14
sI8
F9543.792
sI9
F10931.8
sI10
F10290.124
sI11
F7841.76
sI12
F10058.924
sI13
F10447.208
sI14
F10276.992
ssS'airmass'
p72
(dp73
I0
F1.293345
sI1
F1.213558
sI2
F1.247386
sI3
F1.244895
sI4
F1.218057
sI5
F1.215819
sI6
F1.2499
sI7
F1.211322
sI8
F1.252429
sI9
F1.209133
sI10
F1.2962040000000001
sI11
F1.254958
sI12
F1.290562
sI13
F1.284982
sI14
F1.287747
ssS'ref1'
p74
(dp75
I0
F8709.812
sI1
F10346.572
sI2
F9410.168
sI3
F8067.384
sI4
F10529.96
sI5
F10530.836000000001
sI6
F8761.912
sI7
F9919.288
sI8
F8061.18
sI9
F9248.724
sI10
F8691.716
sI11
F6616.831999999999
sI12
F8468.24
sI13
F8880.336
sI14
F8643.944
ssS'ref3'
p76
(dp77
I0
F14250.948
sI1
F17002.568
sI2
F15422.752
sI3
F13274.232
sI4
F17261.716
sI5
F17217.292
sI6
F14320.42
sI7
F16305.9
sI8
F13257.22
sI9
F15191.708
sI10
F14261.243999999999
sI11
F10868.216
sI12
F13849.536
sI13
F14578.692
sI14
F14259.628
ssS'ref1bkg'
p78
(dp79
I0
F12.41065
sI1
F12.94069
sI2
F12.84147
sI3
F14.84806
sI4
F13.09882
sI5
F13.48667
sI6
F13.89268
sI7
F14.62199
sI8
F13.17582
sI9
F18.02764
sI10
F13.27612
sI11
F12.47547
sI12
F13.82634
sI13
F14.0999
sI14
F13.95041
ssS'ref1mag'
p80
(dp81
I0
F11.15
sI1
F10.963
sI2
F11.066
sI3
F11.233
sI4
F10.944
sI5
F10.944
sI6
F11.144
sI7
F11.009
sI8
F11.234
sI9
F11.085
sI10
F11.152
sI11
F11.448
sI12
F11.181
sI13
F11.129
sI14
F11.158
ssS'ref3magerr'
p82
(dp83
I0
F0.002
sI1
F0.002
sI2
F0.002
sI3
F0.002
sI4
F0.002
sI5
F0.002
sI6
F0.002
sI7
F0.002
sI8
F0.002
sI9
F0.002
sI10
F0.002
sI11
F0.002
sI12
F0.002
sI13
F0.002
sI14
F0.002
ssS'tabbymagmean'
p84
(dp85
I0
F0.5395153903921159
sI1
Fnan
sI2
Fnan
sI3
Fnan
sI4
Fnan
sI5
Fnan
sI6
Fnan
sI7
Fnan
sI8
Fnan
sI9
Fnan
sI10
Fnan
sI11
Fnan
sI12
Fnan
sI13
Fnan
sI14
Fnan
ssS'ref1magmean'
p86
(dp87
I0
F11.122666666666666
sI1
Fnan
sI2
Fnan
sI3
Fnan
sI4
Fnan
sI5
Fnan
sI6
Fnan
sI7
Fnan
sI8
Fnan
sI9
Fnan
sI10
Fnan
sI11
Fnan
sI12
Fnan
sI13
Fnan
sI14
Fnan
ssS'ref2mag'
p88
(dp89
I0
F10.97
sI1
F10.779
sI2
F10.886
sI3
F11.054
sI4
F10.764
sI5
F10.768
sI6
F10.973
sI7
F10.825
sI8
F11.051
sI9
F10.903
sI10
F10.969
sI11
F11.264
sI12
F10.994
sI13
F10.952
sI14
F10.97
ssS'ref3rms'
p90
(dp91
I0
F2.617757
sI1
F2.800592
sI2
F-2.006508
sI3
F1.835682
sI4
F-2.800987
sI5
F-2.851919
sI6
F1.64376
sI7
F3.889437
sI8
F-3.639773
sI9
F5.453718
sI10
F3.562508
sI11
F3.305139
sI12
F-2.295486
sI13
F3.320279
sI14
F-2.545911
ssS'ref3magmeanerr'
p92
(dp93
I0
F0.13154818056333528
sI1
Fnan
sI2
Fnan
sI3
Fnan
sI4
Fnan
sI5
Fnan
sI6
Fnan
sI7
Fnan
sI8
Fnan
sI9
Fnan
sI10
Fnan
sI11
Fnan
sI12
Fnan
sI13
Fnan
sI14
Fnan
ssS'ref1rel'
p94
(dp95
I0
F0.7100019009875679
sI1
F0.7072323738945747
sI2
F0.7093485341774003
sI3
F0.7080039871707042
sI4
F0.7092853824955516
sI5
F0.7116554914763551
sI6
F0.713095551043163
sI7
F0.7071557608102077
sI8
F0.7070896677743953
sI9
F0.7080767253770053
sI10
F0.7080433155496672
sI11
F0.7073052365219494
sI12
F0.7083885787708619
sI13
F0.7096916394615178
sI14
F0.7045749577570177
ssS'exposure'
p96
(dp97
I0
F25.0
sI1
F25.0
sI2
F25.0
sI3
F25.0
sI4
F25.0
sI5
F25.0
sI6
F25.0
sI7
F25.0
sI8
F25.0
sI9
F25.0
sI10
F25.0
sI11
F25.0
sI12
F25.0
sI13
F25.0
sI14
F25.0
ssS'ref1magerr'
p98
(dp99
I0
F0.002
sI1
F0.002
sI2
F0.002
sI3
F0.002
sI4
F0.002
sI5
F0.002
sI6
F0.002
sI7
F0.002
sI8
F0.002
sI9
F0.002
sI10
F0.002
sI11
F0.003
sI12
F0.002
sI13
F0.002
sI14
F0.002
ssS'ref2magerr'
p100
(dp101
I0
F0.002
sI1
F0.002
sI2
F0.002
sI3
F0.002
sI4
F0.002
sI5
F0.002
sI6
F0.002
sI7
F0.002
sI8
F0.002
sI9
F0.002
sI10
F0.002
sI11
F0.002
sI12
F0.002
sI13
F0.002
sI14
F0.002
ssS'ref2rms'
p102
(dp103
I0
F-4.074883
sI1
F4.331645
sI2
F-3.763195
sI3
F3.696988
sI4
F-2.237994
sI5
F3.548277
sI6
F2.052636
sI7
F3.877187
sI8
F3.635331
sI9
F4.395549
sI10
F3.468203
sI11
F3.771548
sI12
F2.483378
sI13
F2.36942
sI14
F0.7240481
ssS'name'
p104
(dp105
I0
S"KIC8462852-20180410at105530_-35-1-025-r'_cal.fts.mag.1"
p106
sI1
S"KIC8462852-20180410at112302_-35-1-025-r'_cal.fts.mag.1"
p107
sI2
S"KIC8462852-20180410at111035_-35-1-025-r'_cal.fts.mag.1"
p108
sI3
S"KIC8462852-20180410at111127_-35-1-025-r'_cal.fts.mag.1"
p109
sI4
S"KIC8462852-20180410at112117_-35-1-025-r'_cal.fts.mag.1"
p110
sI5
S"KIC8462852-20180410at112210_-35-1-025-r'_cal.fts.mag.1"
p111
sI6
S"KIC8462852-20180410at110942_-35-1-025-r'_cal.fts.mag.1"
p112
sI7
S"KIC8462852-20180410at112354_-35-1-025-r'_cal.fts.mag.1"
p113
sI8
S"KIC8462852-20180410at110851_-35-1-025-r'_cal.fts.mag.1"
p114
sI9
S"KIC8462852-20180410at112446_-35-1-025-r'_cal.fts.mag.1"
p115
sI10
S"KIC8462852-20180410at105436_-35-1-025-r'_cal.fts.mag.1"
p116
sI11
S"KIC8462852-20180410at110757_-35-1-025-r'_cal.fts.mag.1"
p117
sI12
S"KIC8462852-20180410at105623_-35-1-025-r'_cal.fts.mag.1"
p118
sI13
S"KIC8462852-20180410at105807_-35-1-025-r'_cal.fts.mag.1"
p119
sI14
S"KIC8462852-20180410at105714_-35-1-025-r'_cal.fts.mag.1"
p120
ssS'ref3err'
p121
(dp122
I0
F0.0035261173972169426
sI1
Fnan
sI2
Fnan
sI3
Fnan
sI4
Fnan
sI5
Fnan
sI6
Fnan
sI7
Fnan
sI8
Fnan
sI9
Fnan
sI10
Fnan
sI11
Fnan
sI12
Fnan
sI13
Fnan
sI14
Fnan
ssS'tabby'
p123
(dp124
I0
F5960.46
sI1
F7071.816
sI2
F6510.316
sI3
F5528.871999999999
sI4
F7236.755999999999
sI5
F7258.592
sI6
F6015.64
sI7
F6843.715999999999
sI8
F5532.888000000001
sI9
F6345.148
sI10
F6008.516
sI11
F4528.044
sI12
F5828.3640000000005
sI13
F6089.896
sI14
F5976.031999999999
ssS'ref1magmeanerr'
p125
(dp126
I0
F0.13203120121864403
sI1
Fnan
sI2
Fnan
sI3
Fnan
sI4
Fnan
sI5
Fnan
sI6
Fnan
sI7
Fnan
sI8
Fnan
sI9
Fnan
sI10
Fnan
sI11
Fnan
sI12
Fnan
sI13
Fnan
sI14
Fnan
ssS'filter'
p127
(dp128
I0
S"r'"
p129
sI1
S"r'"
p130
sI2
S"r'"
p131
sI3
S"r'"
p132
sI4
S"r'"
p133
sI5
S"r'"
p134
sI6
S"r'"
p135
sI7
S"r'"
p136
sI8
S"r'"
p137
sI9
S"r'"
p138
sI10
S"r'"
p139
sI11
S"r'"
p140
sI12
S"r'"
p141
sI13
S"r'"
p142
sI14
S"r'"
p143
ssS'tabbymagerr'
p144
(dp145
I0
F0.002312448142218192
sI1
Fnan
sI2
Fnan
sI3
Fnan
sI4
Fnan
sI5
Fnan
sI6
Fnan
sI7
Fnan
sI8
Fnan
sI9
Fnan
sI10
Fnan
sI11
Fnan
sI12
Fnan
sI13
Fnan
sI14
Fnan
ssS'tabbyrms'
p146
(dp147
I0
F-1.237202
sI1
F-3.345121
sI2
F-4.105649
sI3
F-2.617871
sI4
F3.176885
sI5
F-2.969938
sI6
F2.410996
sI7
F1.8162
sI8
F1.787274
sI9
F3.162795
sI10
F4.981584
sI11
F-0.8482154
sI12
F3.36397
sI13
F3.363036
sI14
F4.187588
ssS'ref3mean'
p148
(dp149
I0
F1.5043218887166043
sI1
Fnan
sI2
Fnan
sI3
Fnan
sI4
Fnan
sI5
Fnan
sI6
Fnan
sI7
Fnan
sI8
Fnan
sI9
Fnan
sI10
Fnan
sI11
Fnan
sI12
Fnan
sI13
Fnan
sI14
Fnan
ssS'median_JD'
p150
(dp151
I0
F2458218.9650694444
sI1
Fnan
sI2
Fnan
sI3
Fnan
sI4
Fnan
sI5
Fnan
sI6
Fnan
sI7
Fnan
sI8
Fnan
sI9
Fnan
sI10
Fnan
sI11
Fnan
sI12
Fnan
sI13
Fnan
sI14
Fnan
ssS'error'
p152
(dp153
I0
F0.002312448142218192
sI1
Fnan
sI2
Fnan
sI3
Fnan
sI4
Fnan
sI5
Fnan
sI6
Fnan
sI7
Fnan
sI8
Fnan
sI9
Fnan
sI10
Fnan
sI11
Fnan
sI12
Fnan
sI13
Fnan
sI14
Fnan
ssS'ref3bkg'
p154
(dp155
I0
F14.35329
sI1
F15.73372
sI2
F16.75791
sI3
F17.57184
sI4
F15.09347
sI5
F15.2887
sI6
F18.16436
sI7
F17.07033
sI8
F15.51703
sI9
F23.1251
sI10
F15.7756
sI11
F14.46086
sI12
F17.21486
sI13
F16.83026
sI14
F17.47371
ssS'ref3mag'
p156
(dp157
I0
F10.615
sI1
F10.424
sI2
F10.53
sI3
F10.692
sI4
F10.407
sI5
F10.41
sI6
F10.61
sI7
F10.469
sI8
F10.694
sI9
F10.546
sI10
F10.615
sI11
F10.91
sI12
F10.646
sI13
F10.591
sI14
F10.615
ssS'mean'
p158
(dp159
I0
F0.5395153903921159
sI1
Fnan
sI2
Fnan
sI3
Fnan
sI4
Fnan
sI5
Fnan
sI6
Fnan
sI7
Fnan
sI8
Fnan
sI9
Fnan
sI10
Fnan
sI11
Fnan
sI12
Fnan
sI13
Fnan
sI14
Fnan
sssS'z'
p160
(dp161
g3
(dp162
I0
F0.36481266285942926
sI1
Fnan
sI2
Fnan
sI3
Fnan
sI4
Fnan
sI5
Fnan
sI6
Fnan
sI7
Fnan
sI8
Fnan
sI9
Fnan
sI10
Fnan
sI11
Fnan
sI12
Fnan
sI13
Fnan
sI14
Fnan
ssg5
(dp163
I0
S'NoError'
p164
sI1
S'NoError'
p165
sI2
S'NoError'
p166
sI3
S'NoError'
p167
sI4
S'NoError'
p168
sI5
S'NoError'
p169
sI6
S'NoError'
p170
sI7
S'NoError'
p171
sI8
S'NoError'
p172
sI9
S'NoError'
p173
sI10
S'NoError'
p174
sI11
S'NoError'
p175
sI12
S'NoError'
p176
sI13
S'NoError'
p177
sI14
S'NoError'
p178
ssg22
(dp179
I0
F0.01
sI1
F0.021
sI2
F0.011
sI3
F0.01
sI4
F0.01
sI5
F0.012
sI6
F0.014
sI7
F0.01
sI8
F0.012
sI9
F0.014
sI10
F0.011
sI11
F0.009
sI12
F0.01
sI13
F0.01
sI14
F0.01
ssg24
(dp180
I0
F0.9077766326882422
sI1
F0.909719269138354
sI2
F0.9121989510856362
sI3
F0.9093261509958456
sI4
F0.9268520888560637
sI5
F0.908228579412749
sI6
F0.9240913224791104
sI7
F0.9125072836694785
sI8
F0.9113762192789612
sI9
F0.9113836479360465
sI10
F0.9263759391428286
sI11
F0.9258925985099092
sI12
F0.9187698736446281
sI13
F0.9186961782625833
sI14
F0.919187468128374
ssg26
(dp181
I0
F0.007044896013888485
sI1
Fnan
sI2
Fnan
sI3
Fnan
sI4
Fnan
sI5
Fnan
sI6
Fnan
sI7
Fnan
sI8
Fnan
sI9
Fnan
sI10
Fnan
sI11
Fnan
sI12
Fnan
sI13
Fnan
sI14
Fnan
ssg28
(dp182
I0
F0.9161588135485874
sI1
Fnan
sI2
Fnan
sI3
Fnan
sI4
Fnan
sI5
Fnan
sI6
Fnan
sI7
Fnan
sI8
Fnan
sI9
Fnan
sI10
Fnan
sI11
Fnan
sI12
Fnan
sI13
Fnan
sI14
Fnan
ssg30
(dp183
I0
F13.543
sI1
F14.484
sI2
F13.683
sI3
F13.57
sI4
F13.602
sI5
F13.784
sI6
F13.965
sI7
F13.615
sI8
F13.86
sI9
F14.077
sI10
F13.796
sI11
F13.535
sI12
F13.609
sI13
F13.603
sI14
F13.569
ssg32
(dp184
I0
F5.121342
sI1
F5.200275
sI2
F6.899813
sI3
F5.256201
sI4
F5.268919
sI5
F6.573739
sI6
F4.985892
sI7
F6.23018
sI8
F6.202952
sI9
F5.080696
sI10
F7.196073
sI11
F5.155865
sI12
F5.781352
sI13
F4.798048
sI14
F4.298064
ssg34
(dp185
I0
F2458218.977951389
sI1
F2458218.9669212964
sI2
F2458218.957662037
sI3
F2458218.96875
sI4
F2458218.977361111
sI5
F2458218.958865741
sI6
F2458218.9600925925
sI7
F2458218.9761689813
sI8
F2458218.9594791667
sI9
F2458218.9675347223
sI10
F2458218.958263889
sI11
F2458218.968148148
sI12
F2458218.969351852
sI13
F2458218.9785648147
sI14
F2458218.976770833
ssg36
(dp186
I0
F1.4526648
sI1
Fnan
sI2
Fnan
sI3
Fnan
sI4
Fnan
sI5
Fnan
sI6
Fnan
sI7
Fnan
sI8
Fnan
sI9
Fnan
sI10
Fnan
sI11
Fnan
sI12
Fnan
sI13
Fnan
sI14
Fnan
ssg38
(dp187
I0
F1.8396827466666663
sI1
Fnan
sI2
Fnan
sI3
Fnan
sI4
Fnan
sI5
Fnan
sI6
Fnan
sI7
Fnan
sI8
Fnan
sI9
Fnan
sI10
Fnan
sI11
Fnan
sI12
Fnan
sI13
Fnan
sI14
Fnan
ssg40
(dp188
I0
F0.37138814699245243
sI1
F0.37245191197443667
sI2
F0.3558995574711314
sI3
F0.36961625078471183
sI4
F0.3648687775086917
sI5
F0.3589508445250717
sI6
F0.36299346833445867
sI7
F0.35990304606758183
sI8
F0.3629768950489622
sI9
F0.36721672775833586
sI10
F0.35837527457425034
sI11
F0.3751448997159656
sI12
F0.3582898620657251
sI13
F0.365961023709144
sI14
F0.3695723878287577
ssg42
(dp189
I0
F0.004832244489066379
sI1
Fnan
sI2
Fnan
sI3
Fnan
sI4
Fnan
sI5
Fnan
sI6
Fnan
sI7
Fnan
sI8
Fnan
sI9
Fnan
sI10
Fnan
sI11
Fnan
sI12
Fnan
sI13
Fnan
sI14
Fnan
ssg44
(dp190
I0
F1.529856066666667
sI1
Fnan
sI2
Fnan
sI3
Fnan
sI4
Fnan
sI5
Fnan
sI6
Fnan
sI7
Fnan
sI8
Fnan
sI9
Fnan
sI10
Fnan
sI11
Fnan
sI12
Fnan
sI13
Fnan
sI14
Fnan
ssg46
(dp191
I0
g164
sI1
g165
sI2
g166
sI3
g167
sI4
g168
sI5
g169
sI6
g170
sI7
g171
sI8
g172
sI9
g173
sI10
g174
sI11
g175
sI12
g176
sI13
g177
sI14
g178
ssg48
(dp192
I0
F0.005653957969972075
sI1
Fnan
sI2
Fnan
sI3
Fnan
sI4
Fnan
sI5
Fnan
sI6
Fnan
sI7
Fnan
sI8
Fnan
sI9
Fnan
sI10
Fnan
sI11
Fnan
sI12
Fnan
sI13
Fnan
sI14
Fnan
ssg50
(dp193
I0
F0.26399572507361324
sI1
Fnan
sI2
Fnan
sI3
Fnan
sI4
Fnan
sI5
Fnan
sI6
Fnan
sI7
Fnan
sI8
Fnan
sI9
Fnan
sI10
Fnan
sI11
Fnan
sI12
Fnan
sI13
Fnan
sI14
Fnan
ssg52
(dp194
I0
F1.3976771333333338
sI1
Fnan
sI2
Fnan
sI3
Fnan
sI4
Fnan
sI5
Fnan
sI6
Fnan
sI7
Fnan
sI8
Fnan
sI9
Fnan
sI10
Fnan
sI11
Fnan
sI12
Fnan
sI13
Fnan
sI14
Fnan
ssg54
(dp195
I0
F1.5241687537015596
sI1
F1.5272070921712044
sI2
F1.5281729735342107
sI3
F1.5176018974835406
sI4
F1.524906453341953
sI5
F1.5365748606501102
sI6
F1.5177024275920241
sI7
F1.5150847664790932
sI8
F1.5158164233761409
sI9
F1.5405011317219313
sI10
F1.5023125510816315
sI11
F1.4950615068353166
sI12
F1.515602111518332
sI13
F1.5192742110957325
sI14
F1.5094815142999525
ssg56
(dp196
I0
g164
sI1
g165
sI2
g166
sI3
g167
sI4
g168
sI5
g169
sI6
g170
sI7
g171
sI8
g172
sI9
g173
sI10
g174
sI11
g175
sI12
g176
sI13
g177
sI14
g178
ssg58
(dp197
I0
F6.283355
sI1
F6.387157
sI2
F6.533489
sI3
F6.657238
sI4
F6.519397
sI5
F8.402479
sI6
F5.97933
sI7
F5.99907
sI8
F6.642706
sI9
F5.778592
sI10
F7.919128
sI11
F5.500941
sI12
F5.756006
sI13
F5.947124
sI14
F6.405045
ssg60
(dp198
I0
F12.377799999999999
sI1
Fnan
sI2
Fnan
sI3
Fnan
sI4
Fnan
sI5
Fnan
sI6
Fnan
sI7
Fnan
sI8
Fnan
sI9
Fnan
sI10
Fnan
sI11
Fnan
sI12
Fnan
sI13
Fnan
sI14
Fnan
ssg62
(dp199
I0
F0.6814745596201195
sI1
Fnan
sI2
Fnan
sI3
Fnan
sI4
Fnan
sI5
Fnan
sI6
Fnan
sI7
Fnan
sI8
Fnan
sI9
Fnan
sI10
Fnan
sI11
Fnan
sI12
Fnan
sI13
Fnan
sI14
Fnan
ssg64
(dp200
I0
F2.948259
sI1
F1.806642
sI2
F4.64549
sI3
F3.553867
sI4
F-2.835518
sI5
F2.860974
sI6
F3.513997
sI7
F4.513748
sI8
F-0.7156358
sI9
F2.335649
sI10
F1.671787
sI11
F2.001276
sI12
F2.856498
sI13
F-2.830443
sI14
F1.268651
ssg66
(dp201
I0
F12.722800000000001
sI1
Fnan
sI2
Fnan
sI3
Fnan
sI4
Fnan
sI5
Fnan
sI6
Fnan
sI7
Fnan
sI8
Fnan
sI9
Fnan
sI10
Fnan
sI11
Fnan
sI12
Fnan
sI13
Fnan
sI14
Fnan
ssg68
(dp202
I0
g164
sI1
g165
sI2
g166
sI3
g167
sI4
g168
sI5
g169
sI6
g170
sI7
g171
sI8
g172
sI9
g173
sI10
g174
sI11
g175
sI12
g176
sI13
g177
sI14
g178
ssg70
(dp203
I0
F2423.8956
sI1
F1017.0172
sI2
F2230.9564
sI3
F2377.4896
sI4
F2370.3179999999998
sI5
F2009.8627999999999
sI6
F1701.7551999999998
sI7
F2348.084
sI8
F1856.5695999999998
sI9
F1502.872
sI10
F2018.2356
sI11
F2450.3468
sI12
F2384.9772
sI13
F2345.9323999999997
sI14
F2398.4320000000002
ssg72
(dp204
I0
F1.200374
sI1
F1.242298
sI2
F1.282108
sI3
F1.235
sI4
F1.202533
sI5
F1.276641
sI6
F1.2712649999999999
sI7
F1.20682
sI8
F1.273918
sI9
F1.239846
sI10
F1.27936
sI11
F1.237398
sI12
F1.232602
sI13
F1.198245
sI14
F1.20469
ssg74
(dp205
I0
F1982.3555999999999
sI1
F827.4504
sI2
F1806.4520000000002
sI3
F1947.3964
sI4
F1876.6535999999999
sI5
F1629.6807999999999
sI6
F1359.8136
sI7
F1916.1252
sI8
F1517.2020000000002
sI9
F1209.1016
sI10
F1622.5056
sI11
F1980.6404
sI12
F1925.3239999999998
sI13
F1889.6132
sI14
F1942.3935999999999
ssg76
(dp206
I0
F3357.9352000000003
sI1
F1408.442
sI2
F3084.9292
sI3
F3281.7276
sI4
F3238.1171999999997
sI5
F2796.2156
sI6
F2323.2752
sI7
F3230.3192
sI8
F2557.0092
sI9
F2088.8992000000003
sI10
F2734.7656
sI11
F3312.2992
sI12
F3266.3508
sI13
F3217.4776
sI14
F3276.198
ssg78
(dp207
I0
F4.797578
sI1
F6.24699
sI2
F7.00589
sI3
F5.689881
sI4
F6.954646
sI5
F6.76211
sI6
F5.989028
sI7
F6.062071
sI8
F6.731061
sI9
F7.267272
sI10
F7.399477
sI11
F5.905946
sI12
F6.773654
sI13
F6.194012
sI14
F6.692274
ssg80
(dp208
I0
F12.757
sI1
F13.706
sI2
F12.858
sI3
F12.776
sI4
F12.817
sI5
F12.97
sI6
F13.166
sI7
F12.794
sI8
F13.047
sI9
F13.294
sI10
F12.975
sI11
F12.758
sI12
F12.789
sI13
F12.809
sI14
F12.779
ssg82
(dp209
I0
F0.004
sI1
F0.007
sI2
F0.004
sI3
F0.004
sI4
F0.004
sI5
F0.004
sI6
F0.005
sI7
F0.004
sI8
F0.005
sI9
F0.005
sI10
F0.005
sI11
F0.004
sI12
F0.004
sI13
F0.004
sI14
F0.004
ssg84
(dp210
I0
F0.3649072716239784
sI1
Fnan
sI2
Fnan
sI3
Fnan
sI4
Fnan
sI5
Fnan
sI6
Fnan
sI7
Fnan
sI8
Fnan
sI9
Fnan
sI10
Fnan
sI11
Fnan
sI12
Fnan
sI13
Fnan
sI14
Fnan
ssg86
(dp211
I0
F12.953
sI1
Fnan
sI2
Fnan
sI3
Fnan
sI4
Fnan
sI5
Fnan
sI6
Fnan
sI7
Fnan
sI8
Fnan
sI9
Fnan
sI10
Fnan
sI11
Fnan
sI12
Fnan
sI13
Fnan
sI14
Fnan
ssg88
(dp212
I0
F12.539
sI1
F13.482
sI2
F12.629
sI3
F12.56
sI4
F12.563
sI5
F12.742
sI6
F12.923
sI7
F12.573
sI8
F12.828
sI9
F13.058
sI10
F12.738
sI11
F12.527
sI12
F12.556
sI13
F12.574
sI14
F12.55
ssg90
(dp213
I0
F1.416517
sI1
F3.021748
sI2
F4.165546
sI3
F-3.425673
sI4
F3.144521
sI5
F3.943229
sI6
F3.822387
sI7
F-1.989731
sI8
F3.621023
sI9
F2.693371
sI10
F-2.015501
sI11
F-2.592308
sI12
F1.921511
sI13
F2.11719
sI14
F1.946142
ssg92
(dp214
I0
F0.260519590708371
sI1
Fnan
sI2
Fnan
sI3
Fnan
sI4
Fnan
sI5
Fnan
sI6
Fnan
sI7
Fnan
sI8
Fnan
sI9
Fnan
sI10
Fnan
sI11
Fnan
sI12
Fnan
sI13
Fnan
sI14
Fnan
ssg94
(dp215
I0
F0.6857189940598054
sI1
F0.682304117917135
sI2
F0.6796429178235138
sI3
F0.6882211200517273
sI4
F0.6692253839359684
sI5
F0.6781748712214098
sI6
F0.6756786731349905
sI7
F0.6869798152991164
sI8
F0.6875155372778211
sI9
F0.6732620385173754
sI10
F0.682728882963463
sI11
F0.6874065837117186
sI12
F0.6813704672600847
sI13
F0.6793003571550542
sI14
F0.6845886339726114
ssg96
(dp216
I0
F25.0
sI1
F25.0
sI2
F25.0
sI3
F25.0
sI4
F25.0
sI5
F25.0
sI6
F25.0
sI7
F25.0
sI8
F25.0
sI9
F25.0
sI10
F25.0
sI11
F25.0
sI12
F25.0
sI13
F25.0
sI14
F25.0
ssg98
(dp217
I0
F0.006
sI1
F0.011
sI2
F0.006
sI3
F0.006
sI4
F0.006
sI5
F0.007
sI6
F0.007
sI7
F0.006
sI8
F0.007
sI9
F0.008
sI10
F0.006
sI11
F0.006
sI12
F0.006
sI13
F0.006
sI14
F0.006
ssg100
(dp218
I0
F0.005
sI1
F0.009
sI2
F0.005
sI3
F0.005
sI4
F0.005
sI5
F0.006
sI6
F0.006
sI7
F0.005
sI8
F0.006
sI9
F0.007
sI10
F0.005
sI11
F0.005
sI12
F0.005
sI13
F0.005
sI14
F0.005
ssg102
(dp219
I0
F3.059457
sI1
F-1.578461
sI2
F2.699375
sI3
F3.71502
sI4
F2.976267
sI5
F-3.879918
sI6
F2.610122
sI7
F-3.371632
sI8
F3.622718
sI9
F2.956101
sI10
F-3.386717
sI11
F4.058857
sI12
F2.004017
sI13
F2.58535
sI14
F2.894601
ssg104
(dp220
I0
S"KIC8462852-20180410at112815_-35-1-025-z'_cal.fts.mag.1"
p221
sI1
S"KIC8462852-20180410at111221_-35-1-025-z'_cal.fts.mag.1"
p222
sI2
S"KIC8462852-20180410at105900_-35-1-025-z'_cal.fts.mag.1"
p223
sI3
S"KIC8462852-20180410at111500_-35-1-025-z'_cal.fts.mag.1"
p224
sI4
S"KIC8462852-20180410at112724_-35-1-025-z'_cal.fts.mag.1"
p225
sI5
S"KIC8462852-20180410at110046_-35-1-025-z'_cal.fts.mag.1"
p226
sI6
S"KIC8462852-20180410at110232_-35-1-025-z'_cal.fts.mag.1"
p227
sI7
S"KIC8462852-20180410at112539_-35-1-025-z'_cal.fts.mag.1"
p228
sI8
S"KIC8462852-20180410at110139_-35-1-025-z'_cal.fts.mag.1"
p229
sI9
S"KIC8462852-20180410at111315_-35-1-025-z'_cal.fts.mag.1"
p230
sI10
S"KIC8462852-20180410at105954_-35-1-025-z'_cal.fts.mag.1"
p231
sI11
S"KIC8462852-20180410at111407_-35-1-025-z'_cal.fts.mag.1"
p232
sI12
S"KIC8462852-20180410at111552_-35-1-025-z'_cal.fts.mag.1"
p233
sI13
S"KIC8462852-20180410at112908_-35-1-025-z'_cal.fts.mag.1"
p234
sI14
S"KIC8462852-20180410at112633_-35-1-025-z'_cal.fts.mag.1"
p235
ssg121
(dp236
I0
F0.011849630934110525
sI1
Fnan
sI2
Fnan
sI3
Fnan
sI4
Fnan
sI5
Fnan
sI6
Fnan
sI7
Fnan
sI8
Fnan
sI9
Fnan
sI10
Fnan
sI11
Fnan
sI12
Fnan
sI13
Fnan
sI14
Fnan
ssg123
(dp237
I0
F961.1756
sI1
F403.8508
sI2
F844.9456
sI3
F937.176
sI4
F910.3584
sI5
F770.0404
sI6
F651.5544
sI7
F899.1012
sI8
F717.5788
sI9
F587.6536
sI10
F761.6080000000001
sI11
F968.2847999999999
sI12
F904.8792
sI13
F909.172
sI14
F938.3472
ssg125
(dp238
I0
F0.2641357875898575
sI1
Fnan
sI2
Fnan
sI3
Fnan
sI4
Fnan
sI5
Fnan
sI6
Fnan
sI7
Fnan
sI8
Fnan
sI9
Fnan
sI10
Fnan
sI11
Fnan
sI12
Fnan
sI13
Fnan
sI14
Fnan
ssg127
(dp239
I0
S"z'"
p240
sI1
S"z'"
p241
sI2
S"z'"
p242
sI3
S"z'"
p243
sI4
S"z'"
p244
sI5
S"z'"
p245
sI6
S"z'"
p246
sI7
S"z'"
p247
sI8
S"z'"
p248
sI9
S"z'"
p249
sI10
S"z'"
p250
sI11
S"z'"
p251
sI12
S"z'"
p252
sI13
S"z'"
p253
sI14
S"z'"
p254
ssg144
(dp255
I0
F0.0059137970173568965
sI1
Fnan
sI2
Fnan
sI3
Fnan
sI4
Fnan
sI5
Fnan
sI6
Fnan
sI7
Fnan
sI8
Fnan
sI9
Fnan
sI10
Fnan
sI11
Fnan
sI12
Fnan
sI13
Fnan
sI14
Fnan
ssg146
(dp256
I0
F2.795498
sI1
F3.615095
sI2
F-1.668199
sI3
F1.559031
sI4
F-2.811157
sI5
F-3.193202
sI6
F3.150323
sI7
F3.367131
sI8
F3.603845
sI9
F3.951719
sI10
F2.163882
sI11
F-2.378954
sI12
F2.661228
sI13
F2.436098
sI14
F3.695503
ssg148
(dp257
I0
F1.519297911658849
sI1
Fnan
sI2
Fnan
sI3
Fnan
sI4
Fnan
sI5
Fnan
sI6
Fnan
sI7
Fnan
sI8
Fnan
sI9
Fnan
sI10
Fnan
sI11
Fnan
sI12
Fnan
sI13
Fnan
sI14
Fnan
ssg150
(dp258
I0
F2458218.968148148
sI1
Fnan
sI2
Fnan
sI3
Fnan
sI4
Fnan
sI5
Fnan
sI6
Fnan
sI7
Fnan
sI8
Fnan
sI9
Fnan
sI10
Fnan
sI11
Fnan
sI12
Fnan
sI13
Fnan
sI14
Fnan
ssg152
(dp259
I0
F0.0059137970173568965
sI1
Fnan
sI2
Fnan
sI3
Fnan
sI4
Fnan
sI5
Fnan
sI6
Fnan
sI7
Fnan
sI8
Fnan
sI9
Fnan
sI10
Fnan
sI11
Fnan
sI12
Fnan
sI13
Fnan
sI14
Fnan
ssg154
(dp260
I0
F6.74461
sI1
F7.137658
sI2
F7.470262
sI3
F7.892183
sI4
F5.924961
sI5
F7.169135
sI6
F6.727032
sI7
F7.678946
sI8
F7.75908
sI9
F6.727169
sI10
F8.964503
sI11
F7.520451
sI12
F8.608327
sI13
F6.588027
sI14
F7.165012
ssg156
(dp261
I0
F12.185
sI1
F13.128
sI2
F12.277
sI3
F12.21
sI4
F12.224
sI5
F12.384
sI6
F12.585
sI7
F12.227
sI8
F12.481
sI9
F12.7
sI10
F12.408
sI11
F12.2
sI12
F12.215
sI13
F12.231
sI14
F12.212
ssg158
(dp262
I0
F0.3649072716239784
sI1
Fnan
sI2
Fnan
sI3
Fnan
sI4
Fnan
sI5
Fnan
sI6
Fnan
sI7
Fnan
sI8
Fnan
sI9
Fnan
sI10
Fnan
sI11
Fnan
sI12
Fnan
sI13
Fnan
sI14
Fnan
sssS'g'
p263
(dp264
g3
(dp265
I0
F0.8541667640518297
sI1
Fnan
sI2
Fnan
sI3
Fnan
sI4
Fnan
sI5
Fnan
sI6
Fnan
sI7
Fnan
sI8
Fnan
sI9
Fnan
sI10
Fnan
sI11
Fnan
sI12
Fnan
sI13
Fnan
sI14
Fnan
ssg5
(dp266
I0
S'NoError'
p267
sI1
S'NoError'
p268
sI2
S'NoError'
p269
sI3
S'NoError'
p270
sI4
S'NoError'
p271
sI5
S'NoError'
p272
sI6
S'NoError'
p273
sI7
S'NoError'
p274
sI8
S'NoError'
p275
sI9
S'NoError'
p276
sI10
S'NoError'
p277
sI11
S'NoError'
p278
sI12
S'NoError'
p279
sI13
S'NoError'
p280
sI14
S'NoError'
p281
ssg22
(dp282
I0
F0.003
sI1
F0.003
sI2
F0.003
sI3
F0.003
sI4
F0.003
sI5
F0.004
sI6
F0.003
sI7
F0.003
sI8
F0.003
sI9
F0.003
sI10
F0.003
sI11
F0.004
sI12
F0.003
sI13
F0.003
sI14
F0.003
ssg24
(dp283
I0
F0.8836322064814202
sI1
F0.878590411328221
sI2
F0.8769785231189882
sI3
F0.8769098470255191
sI4
F0.8768207373595697
sI5
F0.8790288467076646
sI6
F0.8778438679353668
sI7
F0.8878895963711965
sI8
F0.8703010794495635
sI9
F0.8809656943597584
sI10
F0.8804137280178882
sI11
F0.8723589856320852
sI12
F0.8754971583837361
sI13
F0.8761642818694497
sI14
F0.8636941584021097
ssg26
(dp284
I0
F0.0056282081258512105
sI1
Fnan
sI2
Fnan
sI3
Fnan
sI4
Fnan
sI5
Fnan
sI6
Fnan
sI7
Fnan
sI8
Fnan
sI9
Fnan
sI10
Fnan
sI11
Fnan
sI12
Fnan
sI13
Fnan
sI14
Fnan
ssg28
(dp285
I0
F0.8771392748295025
sI1
Fnan
sI2
Fnan
sI3
Fnan
sI4
Fnan
sI5
Fnan
sI6
Fnan
sI7
Fnan
sI8
Fnan
sI9
Fnan
sI10
Fnan
sI11
Fnan
sI12
Fnan
sI13
Fnan
sI14
Fnan
ssg30
(dp286
I0
F11.559
sI1
F11.909
sI2
F11.549
sI3
F11.811
sI4
F11.929
sI5
F12.395
sI6
F11.898
sI7
F11.823
sI8
F11.94
sI9
F11.582
sI10
F11.816
sI11
F11.988
sI12
F11.565
sI13
F11.843
sI14
F11.613
ssg32
(dp287
I0
F8.091281
sI1
F9.176476
sI2
F8.552137
sI3
F8.746213
sI4
F8.821652
sI5
F8.535852
sI6
F9.488603
sI7
F8.688675
sI8
F10.58039
sI9
F8.881049
sI10
F9.190047
sI11
F7.523762
sI12
F8.026584
sI13
F8.875567
sI14
F9.622151
ssg34
(dp288
I0
F2458218.9725
sI1
F2458218.952175926
sI2
F2458218.9718981483
sI3
F2458218.962638889
sI4
F2458218.962037037
sI5
F2458218.9608217594
sI6
F2458218.951574074
sI7
F2458218.9614236113
sI8
F2458218.952777778
sI9
F2458218.9706944446
sI10
F2458218.9539699075
sI11
F2458218.963240741
sI12
F2458218.9712962965
sI13
F2458218.9533680556
sI14
F2458218.9700925928
ssg36
(dp289
I0
F0.43523293333333335
sI1
Fnan
sI2
Fnan
sI3
Fnan
sI4
Fnan
sI5
Fnan
sI6
Fnan
sI7
Fnan
sI8
Fnan
sI9
Fnan
sI10
Fnan
sI11
Fnan
sI12
Fnan
sI13
Fnan
sI14
Fnan
ssg38
(dp290
I0
F1.2697428666666668
sI1
Fnan
sI2
Fnan
sI3
Fnan
sI4
Fnan
sI5
Fnan
sI6
Fnan
sI7
Fnan
sI8
Fnan
sI9
Fnan
sI10
Fnan
sI11
Fnan
sI12
Fnan
sI13
Fnan
sI14
Fnan
ssg40
(dp291
I0
F0.8537086944914428
sI1
F0.8532728543853912
sI2
F0.8537940722827994
sI3
F0.8540277422216134
sI4
F0.8524451451653499
sI5
F0.8508934408144502
sI6
F0.8585524171624516
sI7
F0.8515793978229274
sI8
F0.8516314229233014
sI9
F0.855893471594766
sI10
F0.8625941478940121
sI11
F0.8577540773678357
sI12
F0.857798462520745
sI13
F0.8528167339207121
sI14
F0.844861892023322
ssg42
(dp292
I0
F0.002450498658543268
sI1
Fnan
sI2
Fnan
sI3
Fnan
sI4
Fnan
sI5
Fnan
sI6
Fnan
sI7
Fnan
sI8
Fnan
sI9
Fnan
sI10
Fnan
sI11
Fnan
sI12
Fnan
sI13
Fnan
sI14
Fnan
ssg44
(dp293
I0
F0.30311180000000004
sI1
Fnan
sI2
Fnan
sI3
Fnan
sI4
Fnan
sI5
Fnan
sI6
Fnan
sI7
Fnan
sI8
Fnan
sI9
Fnan
sI10
Fnan
sI11
Fnan
sI12
Fnan
sI13
Fnan
sI14
Fnan
ssg46
(dp294
I0
g267
sI1
g268
sI2
g269
sI3
g270
sI4
g271
sI5
g272
sI6
g273
sI7
g274
sI8
g275
sI9
g276
sI10
g277
sI11
g278
sI12
g279
sI13
g280
sI14
g281
ssg48
(dp295
I0
F0.006270986940408259
sI1
Fnan
sI2
Fnan
sI3
Fnan
sI4
Fnan
sI5
Fnan
sI6
Fnan
sI7
Fnan
sI8
Fnan
sI9
Fnan
sI10
Fnan
sI11
Fnan
sI12
Fnan
sI13
Fnan
sI14
Fnan
ssg50
(dp296
I0
F0.22425516928798084
sI1
Fnan
sI2
Fnan
sI3
Fnan
sI4
Fnan
sI5
Fnan
sI6
Fnan
sI7
Fnan
sI8
Fnan
sI9
Fnan
sI10
Fnan
sI11
Fnan
sI12
Fnan
sI13
Fnan
sI14
Fnan
ssg52
(dp297
I0
F1.7469771333333335
sI1
Fnan
sI2
Fnan
sI3
Fnan
sI4
Fnan
sI5
Fnan
sI6
Fnan
sI7
Fnan
sI8
Fnan
sI9
Fnan
sI10
Fnan
sI11
Fnan
sI12
Fnan
sI13
Fnan
sI14
Fnan
ssg54
(dp298
I0
F1.5156353419422952
sI1
F1.5255416571973919
sI2
F1.516589020732128
sI3
F1.5259828264412796
sI4
F1.5393133856306493
sI5
F1.5256676517762249
sI6
F1.519801455635728
sI7
F1.5219023000007257
sI8
F1.5285907844886604
sI9
F1.5165007027486423
sI10
F1.5209312293658677
sI11
F1.5253200398080555
sI12
F1.531156479867836
sI13
F1.5326429087961877
sI14
F1.5144215122704243
ssg56
(dp299
I0
g267
sI1
g268
sI2
g269
sI3
g270
sI4
g271
sI5
g272
sI6
g273
sI7
g274
sI8
g275
sI9
g276
sI10
g277
sI11
g278
sI12
g279
sI13
g280
sI14
g281
ssg58
(dp300
I0
F7.394559
sI1
F9.087047
sI2
F7.741891
sI3
F8.082729
sI4
F9.202114
sI5
F8.56749
sI6
F8.550779
sI7
F8.418323
sI8
F9.286708
sI9
F8.321022
sI10
F9.352932
sI11
F8.498856
sI12
F8.572002
sI13
F9.102765
sI14
F9.618611
ssg60
(dp301
I0
F11.360733333333334
sI1
Fnan
sI2
Fnan
sI3
Fnan
sI4
Fnan
sI5
Fnan
sI6
Fnan
sI7
Fnan
sI8
Fnan
sI9
Fnan
sI10
Fnan
sI11
Fnan
sI12
Fnan
sI13
Fnan
sI14
Fnan
ssg62
(dp302
I0
F0.712526884504916
sI1
Fnan
sI2
Fnan
sI3
Fnan
sI4
Fnan
sI5
Fnan
sI6
Fnan
sI7
Fnan
sI8
Fnan
sI9
Fnan
sI10
Fnan
sI11
Fnan
sI12
Fnan
sI13
Fnan
sI14
Fnan
ssg64
(dp303
I0
F1.793528
sI1
F-1.570944
sI2
F3.150334
sI3
F2.057908
sI4
F2.593687
sI5
F-1.482001
sI6
F2.671112
sI7
F1.778177
sI8
F2.266397
sI9
F3.996711
sI10
F2.14481
sI11
F-2.601675
sI12
F-1.896671
sI13
F1.390994
sI14
F2.753776
ssg66
(dp304
I0
F11.740333333333334
sI1
Fnan
sI2
Fnan
sI3
Fnan
sI4
Fnan
sI5
Fnan
sI6
Fnan
sI7
Fnan
sI8
Fnan
sI9
Fnan
sI10
Fnan
sI11
Fnan
sI12
Fnan
sI13
Fnan
sI14
Fnan
ssg68
(dp305
I0
g267
sI1
g268
sI2
g269
sI3
g270
sI4
g271
sI5
g272
sI6
g273
sI7
g274
sI8
g275
sI9
g276
sI10
g277
sI11
g278
sI12
g279
sI13
g280
sI14
g281
ssg70
(dp306
I0
F6432.36
sI1
F4645.816
sI2
F6461.02
sI3
F5072.1359999999995
sI4
F4559.656
sI5
F2979.0808
sI6
F4660.984
sI7
F5075.215999999999
sI8
F4494.656
sI9
F6270.52
sI10
F5011.528
sI11
F4275.568
sI12
F6330.804
sI13
F4928.736
sI14
F6090.424
ssg72
(dp307
I0
F1.220432
sI1
F1.307799
sI2
F1.222751
sI3
F1.260192
sI4
F1.262772
sI5
F1.26803
sI6
F1.310726
sI7
F1.265385
sI8
F1.304938
sI9
F1.2273530000000001
sI10
F1.299228
sI11
F1.257609
sI12
F1.22504
sI13
F1.3020530000000001
sI14
F1.229715
ssg74
(dp308
I0
F5509.304
sI1
F3989.1288
sI2
F5593.7
sI3
F4366.56
sI4
F3894.0092
sI5
F2555.8704000000002
sI6
F4021.408
sI7
F4298.8679999999995
sI8
F3907.3520000000003
sI9
F5392.255999999999
sI10
F4301.924
sI11
F3711.1571999999996
sI12
F5446.071999999999
sI13
F4231.232
sI14
F5401.436
ssg76
(dp309
I0
F9049.604
sI1
F6586.484
sI2
F9141.028
sI3
F7201.644
sI4
F6506.42
sI5
F4222.248
sI6
F6597.755999999999
sI7
F7133.22
sI8
F6421.616
sI9
F8843.304
sI10
F7082.56
sI11
F6091.156
sI12
F9016.12
sI13
F7019.48
sI14
F8701.76
ssg78
(dp310
I0
F8.072809
sI1
F9.328554
sI2
F7.031729
sI3
F7.93432
sI4
F9.033936
sI5
F8.139972
sI6
F8.233002
sI7
F8.654085
sI8
F8.993878
sI9
F7.86616
sI10
F9.526138
sI11
F7.765753
sI12
F8.36141
sI13
F8.225505
sI14
F8.572751
ssg80
(dp311
I0
F11.647
sI1
F11.998
sI2
F11.631
sI3
F11.9
sI4
F12.024
sI5
F12.481
sI6
F11.989
sI7
F11.917
sI8
F12.02
sI9
F11.671
sI10
F11.916
sI11
F12.076
sI12
F11.66
sI13
F11.934
sI14
F11.669
ssg82
(dp312
I0
F0.002
sI1
F0.003
sI2
F0.002
sI3
F0.002
sI4
F0.003
sI5
F0.003
sI6
F0.003
sI7
F0.002
sI8
F0.003
sI9
F0.002
sI10
F0.003
sI11
F0.003
sI12
F0.002
sI13
F0.002
sI14
F0.002
ssg84
(dp313
I0
F0.8541082648394079
sI1
Fnan
sI2
Fnan
sI3
Fnan
sI4
Fnan
sI5
Fnan
sI6
Fnan
sI7
Fnan
sI8
Fnan
sI9
Fnan
sI10
Fnan
sI11
Fnan
sI12
Fnan
sI13
Fnan
sI14
Fnan
ssg86
(dp314
I0
F11.902199999999999
sI1
Fnan
sI2
Fnan
sI3
Fnan
sI4
Fnan
sI5
Fnan
sI6
Fnan
sI7
Fnan
sI8
Fnan
sI9
Fnan
sI10
Fnan
sI11
Fnan
sI12
Fnan
sI13
Fnan
sI14
Fnan
ssg88
(dp315
I0
F11.479
sI1
F11.832
sI2
F11.474
sI3
F11.737
sI4
F11.853
sI5
F12.315
sI6
F11.829
sI7
F11.736
sI8
F11.868
sI9
F11.507
sI10
F11.75
sI11
F11.923
sI12
F11.496
sI13
F11.768
sI14
F11.538
ssg90
(dp316
I0
F-3.283122
sI1
F3.750192
sI2
F-3.744101
sI3
F-2.318754
sI4
F3.034488
sI5
F-2.744364
sI6
F3.611039
sI7
F4.713299
sI8
F-4.008565
sI9
F2.582108
sI10
F2.66362
sI11
F3.372486
sI12
F-2.445397
sI13
F-2.651357
sI14
F3.996922
ssg92
(dp317
I0
F0.2230283347362798
sI1
Fnan
sI2
Fnan
sI3
Fnan
sI4
Fnan
sI5
Fnan
sI6
Fnan
sI7
Fnan
sI8
Fnan
sI9
Fnan
sI10
Fnan
sI11
Fnan
sI12
Fnan
sI13
Fnan
sI14
Fnan
ssg94
(dp318
I0
F0.7117060858686921
sI1
F0.7102959856841431
sI2
F0.7170468902544076
sI3
F0.7115265223916349
sI4
F0.7037741652958103
sI5
F0.7098329963770021
sI6
F0.7143619978789811
sI7
F0.7042454905771713
sI8
F0.7158766289443869
sI9
F0.7135528374552991
sI10
F0.7114094092915481
sI11
F0.7159749212962552
sI12
F0.7097281513872095
sI13
F0.7082617187369227
sI14
F0.7303094661342773
ssg96
(dp319
I0
F25.0
sI1
F25.0
sI2
F25.0
sI3
F25.0
sI4
F25.0
sI5
F25.0
sI6
F25.0
sI7
F25.0
sI8
F25.0
sI9
F25.0
sI10
F25.0
sI11
F25.0
sI12
F25.0
sI13
F25.0
sI14
F25.0
ssg98
(dp320
I0
F0.003
sI1
F0.004
sI2
F0.003
sI3
F0.003
sI4
F0.004
sI5
F0.005
sI6
F0.004
sI7
F0.003
sI8
F0.004
sI9
F0.003
sI10
F0.003
sI11
F0.004
sI12
F0.003
sI13
F0.003
sI14
F0.003
ssg100
(dp321
I0
F0.003
sI1
F0.003
sI2
F0.003
sI3
F0.003
sI4
F0.003
sI5
F0.004
sI6
F0.003
sI7
F0.003
sI8
F0.003
sI9
F0.003
sI10
F0.003
sI11
F0.003
sI12
F0.003
sI13
F0.003
sI14
F0.003
ssg102
(dp322
I0
F2.02946
sI1
F2.053142
sI2
F3.411998
sI3
F3.438873
sI4
F-2.414422
sI5
F3.278408
sI6
F3.187696
sI7
F3.310349
sI8
F2.535719
sI9
F-4.412348
sI10
F3.899459
sI11
F-1.713672
sI12
F3.019759
sI13
F2.84075
sI14
F1.739486
ssg104
(dp323
I0
S"KIC8462852-20180410at112023_-35-1-025-g'_cal.fts.mag.1"
p324
sI1
S"KIC8462852-20180410at105108_-36-1-025-g'_cal.fts.mag.1"
p325
sI2
S"KIC8462852-20180410at111932_-35-1-025-g'_cal.fts.mag.1"
p326
sI3
S"KIC8462852-20180410at110612_-35-1-025-g'_cal.fts.mag.1"
p327
sI4
S"KIC8462852-20180410at110520_-35-1-025-g'_cal.fts.mag.1"
p328
sI5
S"KIC8462852-20180410at110326_-35-1-025-g'_cal.fts.mag.1"
p329
sI6
S"KIC8462852-20180410at105011_-36-1-025-g'_cal.fts.mag.1"
p330
sI7
S"KIC8462852-20180410at110427_-35-1-025-g'_cal.fts.mag.1"
p331
sI8
S"KIC8462852-20180410at105200_-35-1-025-g'_cal.fts.mag.1"
p332
sI9
S"KIC8462852-20180410at111748_-35-1-025-g'_cal.fts.mag.1"
p333
sI10
S"KIC8462852-20180410at105343_-35-1-025-g'_cal.fts.mag.1"
p334
sI11
S"KIC8462852-20180410at110704_-35-1-025-g'_cal.fts.mag.1"
p335
sI12
S"KIC8462852-20180410at111840_-35-1-025-g'_cal.fts.mag.1"
p336
sI13
S"KIC8462852-20180410at105251_-35-1-025-g'_cal.fts.mag.1"
p337
sI14
S"KIC8462852-20180410at111647_-35-1-025-g'_cal.fts.mag.1"
p338
ssg121
(dp339
I0
F0.007054099673081791
sI1
Fnan
sI2
Fnan
sI3
Fnan
sI4
Fnan
sI5
Fnan
sI6
Fnan
sI7
Fnan
sI8
Fnan
sI9
Fnan
sI10
Fnan
sI11
Fnan
sI12
Fnan
sI13
Fnan
sI14
Fnan
ssg123
(dp340
I0
F5973.476
sI1
F4329.344
sI2
F6032.268
sI3
F4737.104
sI4
F4250.884
sI5
F2767.4456
sI6
F4372.936
sI7
F4685.76
sI8
F4208.088
sI9
F5850.34
sI10
F4714.3679999999995
sI11
F4025.12
sI12
F5945.4
sI13
F4599.3679999999995
sI14
F5686.94
ssg125
(dp341
I0
F0.2263433548521234
sI1
Fnan
sI2
Fnan
sI3
Fnan
sI4
Fnan
sI5
Fnan
sI6
Fnan
sI7
Fnan
sI8
Fnan
sI9
Fnan
sI10
Fnan
sI11
Fnan
sI12
Fnan
sI13
Fnan
sI14
Fnan
ssg127
(dp342
I0
S"g'"
p343
sI1
S"g'"
p344
sI2
S"g'"
p345
sI3
S"g'"
p346
sI4
S"g'"
p347
sI5
S"g'"
p348
sI6
S"g'"
p349
sI7
S"g'"
p350
sI8
S"g'"
p351
sI9
S"g'"
p352
sI10
S"g'"
p353
sI11
S"g'"
p354
sI12
S"g'"
p355
sI13
S"g'"
p356
sI14
S"g'"
p357
ssg144
(dp358
I0
F0.004102389349986562
sI1
Fnan
sI2
Fnan
sI3
Fnan
sI4
Fnan
sI5
Fnan
sI6
Fnan
sI7
Fnan
sI8
Fnan
sI9
Fnan
sI10
Fnan
sI11
Fnan
sI12
Fnan
sI13
Fnan
sI14
Fnan
ssg146
(dp359
I0
F2.886551
sI1
F-1.675571
sI2
F-3.414921
sI3
F-3.295705
sI4
F1.275101
sI5
F2.666077
sI6
F-2.067805
sI7
F1.603039
sI8
F-3.57631
sI9
F4.093388
sI10
F1.74293
sI11
F3.730891
sI12
F4.099698
sI13
F-1.894151
sI14
F-1.626535
ssg148
(dp360
I0
F1.5239998197801397
sI1
Fnan
sI2
Fnan
sI3
Fnan
sI4
Fnan
sI5
Fnan
sI6
Fnan
sI7
Fnan
sI8
Fnan
sI9
Fnan
sI10
Fnan
sI11
Fnan
sI12
Fnan
sI13
Fnan
sI14
Fnan
ssg150
(dp361
I0
F2458218.962037037
sI1
Fnan
sI2
Fnan
sI3
Fnan
sI4
Fnan
sI5
Fnan
sI6
Fnan
sI7
Fnan
sI8
Fnan
sI9
Fnan
sI10
Fnan
sI11
Fnan
sI12
Fnan
sI13
Fnan
sI14
Fnan
ssg152
(dp362
I0
F0.004102389349986562
sI1
Fnan
sI2
Fnan
sI3
Fnan
sI4
Fnan
sI5
Fnan
sI6
Fnan
sI7
Fnan
sI8
Fnan
sI9
Fnan
sI10
Fnan
sI11
Fnan
sI12
Fnan
sI13
Fnan
sI14
Fnan
ssg154
(dp363
I0
F9.898476
sI1
F10.56265
sI2
F9.337751
sI3
F9.128216
sI4
F10.47943
sI5
F9.604428
sI6
F10.26681
sI7
F9.464403
sI8
F11.0239
sI9
F9.931327
sI10
F10.6093
sI11
F9.393745
sI12
F9.958168
sI13
F10.66609
sI14
F10.52734
ssg156
(dp364
I0
F11.108
sI1
F11.453
sI2
F11.098
sI3
F11.356
sI4
F11.467
sI5
F11.936
sI6
F11.452
sI7
F11.367
sI8
F11.481
sI9
F11.133
sI10
F11.375
sI11
F11.538
sI12
F11.112
sI13
F11.384
sI14
F11.151
ssg158
(dp365
I0
F0.8541082648394079
sI1
Fnan
sI2
Fnan
sI3
Fnan
sI4
Fnan
sI5
Fnan
sI6
Fnan
sI7
Fnan
sI8
Fnan
sI9
Fnan
sI10
Fnan
sI11
Fnan
sI12
Fnan
sI13
Fnan
sI14
Fnan
sss.