(dp0
S'i'
p1
(dp2
S'sigmean'
p3
(dp4
I0
F0.4386564034134773
sI1
Fnan
sI2
Fnan
sI3
Fnan
sI4
Fnan
sI5
Fnan
sI6
Fnan
sI7
Fnan
sI8
Fnan
sI9
Fnan
sI10
Fnan
sI11
Fnan
sI12
Fnan
sI13
Fnan
sI14
Fnan
ssS'ref3flag'
p5
(dp6
I0
S'NoError'
p7
sI1
S'NoError'
p8
sI2
S'NoError'
p9
sI3
S'NoError'
p10
sI4
S'NoError'
p11
sI5
S'NoError'
p12
sI6
S'NoError'
p13
sI7
S'NoError'
p14
sI8
S'NoError'
p15
sI9
S'NoError'
p16
sI10
S'NoError'
p17
sI11
S'NoError'
p18
sI12
S'NoError'
p19
sI13
S'NoError'
p20
sI14
S'NoError'
p21
ssS'tabbyerr'
p22
(dp23
I0
F0.003
sI1
F0.003
sI2
F0.003
sI3
F0.003
sI4
F0.003
sI5
F0.003
sI6
F0.003
sI7
F0.003
sI8
F0.003
sI9
F0.003
sI10
F0.003
sI11
F0.003
sI12
F0.003
sI13
F0.003
sI14
F0.003
ssS'ref2rel'
p24
(dp25
I0
F0.9089761534546308
sI1
F0.9190205192898004
sI2
F0.9228054817317141
sI3
F0.9118497419832103
sI4
F0.9120993671111606
sI5
F0.9164892682396232
sI6
F0.9065019109579325
sI7
F0.9024643143692195
sI8
F0.9141751178178328
sI9
F0.907241872738099
sI10
F0.9108781989615883
sI11
F0.9059282937054614
sI12
F0.9122124908143214
sI13
F0.9065279451645556
sI14
F0.9071567907893923
ssS'ref2err'
p26
(dp27
I0
F0.0054713474375001556
sI1
Fnan
sI2
Fnan
sI3
Fnan
sI4
Fnan
sI5
Fnan
sI6
Fnan
sI7
Fnan
sI8
Fnan
sI9
Fnan
sI10
Fnan
sI11
Fnan
sI12
Fnan
sI13
Fnan
sI14
Fnan
ssS'ref2mean'
p28
(dp29
I0
F0.9109551644752362
sI1
Fnan
sI2
Fnan
sI3
Fnan
sI4
Fnan
sI5
Fnan
sI6
Fnan
sI7
Fnan
sI8
Fnan
sI9
Fnan
sI10
Fnan
sI11
Fnan
sI12
Fnan
sI13
Fnan
sI14
Fnan
ssS'tabbymag'
p30
(dp31
I0
F11.977
sI1
F11.899
sI2
F12.005
sI3
F11.974
sI4
F11.934
sI5
F12.043
sI6
F11.959
sI7
F11.988
sI8
F11.985
sI9
F11.933
sI10
F12.069
sI11
F12.054
sI12
F12.044
sI13
F12.047
sI14
F11.992
ssS'tabbybkg'
p32
(dp33
I0
F32.62525
sI1
F31.20867
sI2
F39.3838
sI3
F37.5275
sI4
F31.15397
sI5
F33.83006
sI6
F30.34166
sI7
F44.93621
sI8
F32.39093
sI9
F30.93653
sI10
F40.47134
sI11
F33.88348
sI12
F42.84053
sI13
F34.96772
sI14
F31.35955
ssS'JD'
p34
(dp35
I0
F2458353.6824768516
sI1
F2458353.664212963
sI2
F2458353.6452662037
sI3
F2458353.6460300926
sI4
F2458353.665752315
sI5
F2458353.683252315
sI6
F2458353.662685185
sI7
F2458353.6428703703
sI8
F2458353.6847800924
sI9
F2458353.6634375
sI10
F2458353.6445023147
sI11
F2458353.6840162035
sI12
F2458353.6436342592
sI13
F2458353.6855439814
sI14
F2458353.664976852
ssS'ref3rmsmean'
p36
(dp37
I0
F3.3146177999999993
sI1
Fnan
sI2
Fnan
sI3
Fnan
sI4
Fnan
sI5
Fnan
sI6
Fnan
sI7
Fnan
sI8
Fnan
sI9
Fnan
sI10
Fnan
sI11
Fnan
sI12
Fnan
sI13
Fnan
sI14
Fnan
ssS'ref1rmsmean'
p38
(dp39
I0
F2.7458563000000002
sI1
Fnan
sI2
Fnan
sI3
Fnan
sI4
Fnan
sI5
Fnan
sI6
Fnan
sI7
Fnan
sI8
Fnan
sI9
Fnan
sI10
Fnan
sI11
Fnan
sI12
Fnan
sI13
Fnan
sI14
Fnan
ssS'relflux'
p40
(dp41
I0
F0.4397819764664657
sI1
F0.4457177650332333
sI2
F0.4406458172781625
sI3
F0.43589721043096025
sI4
F0.437624381674932
sI5
F0.4393022118335415
sI6
F0.4381093957770301
sI7
F0.43379156153756354
sI8
F0.4360697234668213
sI9
F0.44144186215749753
sI10
F0.43307631198562285
sI11
F0.4391033603701728
sI12
F0.4387119607741857
sI13
F0.4381030425109857
sI14
F0.4390858982209725
ssS'sigerr'
p42
(dp43
I0
F0.0015748652761581453
sI1
Fnan
sI2
Fnan
sI3
Fnan
sI4
Fnan
sI5
Fnan
sI6
Fnan
sI7
Fnan
sI8
Fnan
sI9
Fnan
sI10
Fnan
sI11
Fnan
sI12
Fnan
sI13
Fnan
sI14
Fnan
ssS'tabbyrmsmean'
p44
(dp45
I0
F2.8891932
sI1
Fnan
sI2
Fnan
sI3
Fnan
sI4
Fnan
sI5
Fnan
sI6
Fnan
sI7
Fnan
sI8
Fnan
sI9
Fnan
sI10
Fnan
sI11
Fnan
sI12
Fnan
sI13
Fnan
sI14
Fnan
ssS'tabbyflag'
p46
(dp47
I0
g7
sI1
g8
sI2
g9
sI3
g10
sI4
g11
sI5
g12
sI6
g13
sI7
g14
sI8
g15
sI9
g16
sI10
g17
sI11
g18
sI12
g19
sI13
g20
sI14
g21
ssS'ref1err'
p48
(dp49
I0
F0.0035158062146911175
sI1
Fnan
sI2
Fnan
sI3
Fnan
sI4
Fnan
sI5
Fnan
sI6
Fnan
sI7
Fnan
sI8
Fnan
sI9
Fnan
sI10
Fnan
sI11
Fnan
sI12
Fnan
sI13
Fnan
sI14
Fnan
ssS'ref2magmeanerr'
p50
(dp51
I0
F0.04753565078168286
sI1
Fnan
sI2
Fnan
sI3
Fnan
sI4
Fnan
sI5
Fnan
sI6
Fnan
sI7
Fnan
sI8
Fnan
sI9
Fnan
sI10
Fnan
sI11
Fnan
sI12
Fnan
sI13
Fnan
sI14
Fnan
ssS'ref2rmsmean'
p52
(dp53
I0
F2.6085046666666667
sI1
Fnan
sI2
Fnan
sI3
Fnan
sI4
Fnan
sI5
Fnan
sI6
Fnan
sI7
Fnan
sI8
Fnan
sI9
Fnan
sI10
Fnan
sI11
Fnan
sI12
Fnan
sI13
Fnan
sI14
Fnan
ssS'ref3rel'
p54
(dp55
I0
F1.5072136858043286
sI1
F1.4998905721183313
sI2
F1.4922450046904518
sI3
F1.508258931456059
sI4
F1.505393887719335
sI5
F1.4940571538804757
sI6
F1.5006926409424368
sI7
F1.5159641290903194
sI8
F1.5047592173301618
sI9
F1.5090367502303028
sI10
F1.50530701485043
sI11
F1.5059865672777368
sI12
F1.4881968826352567
sI13
F1.5090137446921472
sI14
F1.512722175150147
ssS'ref1flag'
p56
(dp57
I0
g7
sI1
g8
sI2
g9
sI3
g10
sI4
g11
sI5
g12
sI6
g13
sI7
g14
sI8
g15
sI9
g16
sI10
g17
sI11
g18
sI12
g19
sI13
g20
sI14
g21
ssS'ref2bkg'
p58
(dp59
I0
F34.18909
sI1
F30.97083
sI2
F42.3431
sI3
F41.41357
sI4
F32.43014
sI5
F38.04423
sI6
F33.01755
sI7
F47.13525
sI8
F34.77504
sI9
F33.79045
sI10
F44.67744
sI11
F37.82604
sI12
F46.63918
sI13
F38.09769
sI14
F34.33871
ssS'ref3magmean'
p60
(dp61
I0
F10.8238
sI1
Fnan
sI2
Fnan
sI3
Fnan
sI4
Fnan
sI5
Fnan
sI6
Fnan
sI7
Fnan
sI8
Fnan
sI9
Fnan
sI10
Fnan
sI11
Fnan
sI12
Fnan
sI13
Fnan
sI14
Fnan
ssS'ref1mean'
p62
(dp63
I0
F0.6948935237447866
sI1
Fnan
sI2
Fnan
sI3
Fnan
sI4
Fnan
sI5
Fnan
sI6
Fnan
sI7
Fnan
sI8
Fnan
sI9
Fnan
sI10
Fnan
sI11
Fnan
sI12
Fnan
sI13
Fnan
sI14
Fnan
ssS'ref1rms'
p64
(dp65
I0
F-3.809968
sI1
F4.941477
sI2
F-2.998203
sI3
F5.123587
sI4
F3.946059
sI5
F4.625688
sI6
F3.582231
sI7
F3.139028
sI8
F2.639791
sI9
F3.913029
sI10
F3.683592
sI11
F5.708935
sI12
F4.288067
sI13
F-0.9355535
sI14
F3.340085
ssS'ref2magmean'
p66
(dp67
I0
F11.166733333333333
sI1
Fnan
sI2
Fnan
sI3
Fnan
sI4
Fnan
sI5
Fnan
sI6
Fnan
sI7
Fnan
sI8
Fnan
sI9
Fnan
sI10
Fnan
sI11
Fnan
sI12
Fnan
sI13
Fnan
sI14
Fnan
ssS'ref2flag'
p68
(dp69
I0
g7
sI1
g8
sI2
g9
sI3
g10
sI4
g11
sI5
g12
sI6
g13
sI7
g14
sI8
g15
sI9
g16
sI10
g17
sI11
g18
sI12
g19
sI13
g20
sI14
g21
ssS'ref2'
p70
(dp71
I0
F8667.463333333333
sI1
F9255.69
sI2
F8517.43
sI3
F8784.523333333334
sI4
F9086.806666666667
sI5
F8215.096666666666
sI6
F8830.01
sI7
F8657.156666666668
sI8
F8714.58
sI9
F8976.636666666665
sI10
F8097.286666666667
sI11
F8068.75
sI12
F8186.713333333333
sI13
F8142.456666666667
sI14
F8548.97
ssS'airmass'
p72
(dp73
I0
F1.034794
sI1
F1.060877
sI2
F1.0977299999999999
sI3
F1.096035
sI4
F1.0583280000000002
sI5
F1.03389
sI6
F1.063491
sI7
F1.103167
sI8
F1.032119
sI9
F1.062173
sI10
F1.099448
sI11
F1.0329979999999999
sI12
F1.101413
sI13
F1.031258
sI14
F1.059607
ssS'ref1'
p74
(dp75
I0
F7150.386666666667
sI1
F7543.806666666667
sI2
F6932.3966666666665
sI3
F7207.456666666667
sI4
F7465.88
sI5
F6748.833333333333
sI6
F7344.796666666666
sI7
F7180.746666666667
sI8
F7138.166666666667
sI9
F7418.453333333334
sI10
F6666.820000000001
sI11
F6695.693333333333
sI12
F6798.593333333333
sI13
F6737.2266666666665
sI14
F7049.6466666666665
ssS'ref3'
p76
(dp77
I0
F11920.44
sI1
F12598.703333333333
sI2
F11527.463333333335
sI3
F12060.023333333334
sI4
F12459.156666666668
sI5
F11178.483333333334
sI6
F12136.706666666667
sI7
F12004.846666666668
sI8
F11927.283333333333
sI9
F12370.396666666667
sI10
F11112.256666666666
sI11
F11117.526666666667
sI12
F11150.543333333333
sI13
F11226.823333333334
sI14
F11798.186666666666
ssS'ref1bkg'
p78
(dp79
I0
F34.11264
sI1
F31.31737
sI2
F41.37675
sI3
F38.5517
sI4
F32.12047
sI5
F36.72878
sI6
F32.60065
sI7
F46.56926
sI8
F34.67691
sI9
F32.47406
sI10
F43.39407
sI11
F35.1835
sI12
F45.80314
sI13
F37.06289
sI14
F33.4989
ssS'ref1mag'
p80
(dp81
I0
F11.364
sI1
F11.306
sI2
F11.398
sI3
F11.356
sI4
F11.317
sI5
F11.427
sI6
F11.335
sI7
F11.36
sI8
F11.366
sI9
F11.324
sI10
F11.44
sI11
F11.436
sI12
F11.419
sI13
F11.429
sI14
F11.38
ssS'ref3magerr'
p82
(dp83
I0
F0.002
sI1
F0.002
sI2
F0.002
sI3
F0.002
sI4
F0.002
sI5
F0.002
sI6
F0.002
sI7
F0.002
sI8
F0.002
sI9
F0.002
sI10
F0.002
sI11
F0.002
sI12
F0.002
sI13
F0.002
sI14
F0.002
ssS'tabbymagmean'
p84
(dp85
I0
F0.4384308319678765
sI1
Fnan
sI2
Fnan
sI3
Fnan
sI4
Fnan
sI5
Fnan
sI6
Fnan
sI7
Fnan
sI8
Fnan
sI9
Fnan
sI10
Fnan
sI11
Fnan
sI12
Fnan
sI13
Fnan
sI14
Fnan
ssS'ref1magmean'
p86
(dp87
I0
F11.377133333333335
sI1
Fnan
sI2
Fnan
sI3
Fnan
sI4
Fnan
sI5
Fnan
sI6
Fnan
sI7
Fnan
sI8
Fnan
sI9
Fnan
sI10
Fnan
sI11
Fnan
sI12
Fnan
sI13
Fnan
sI14
Fnan
ssS'ref2mag'
p88
(dp89
I0
F11.155
sI1
F11.084
sI2
F11.174
sI3
F11.141
sI4
F11.104
sI5
F11.213
sI6
F11.135
sI7
F11.157
sI8
F11.149
sI9
F11.117
sI10
F11.229
sI11
F11.233
sI12
F11.217
sI13
F11.223
sI14
F11.17
ssS'ref3rms'
p90
(dp91
I0
F3.172586
sI1
F1.716298
sI2
F6.607493
sI3
F2.939929
sI4
F4.063005
sI5
F5.268916
sI6
F1.234975
sI7
F4.651042
sI8
F3.505328
sI9
F-1.919243
sI10
F5.267271
sI11
F6.616768
sI12
F-3.642887
sI13
F3.837225
sI14
F6.400561
ssS'ref3magmeanerr'
p92
(dp93
I0
F0.04800922530395293
sI1
Fnan
sI2
Fnan
sI3
Fnan
sI4
Fnan
sI5
Fnan
sI6
Fnan
sI7
Fnan
sI8
Fnan
sI9
Fnan
sI10
Fnan
sI11
Fnan
sI12
Fnan
sI13
Fnan
sI14
Fnan
ssS'ref1rel'
p94
(dp95
I0
F0.6946201903998318
sI1
F0.6903698081758695
sI2
F0.6916870597798143
sI3
F0.6915436235600549
sI4
F0.6930189088783684
sI5
F0.6959863349967703
sI6
F0.7006148633985769
sI7
F0.6950678064292249
sI8
F0.6916203785866231
sI9
F0.6950336580727065
sI10
F0.6941154075673844
sI11
F0.6979669322673863
sI12
F0.7031600656211662
sI13
F0.6956610330034639
sI14
F0.6929367854345578
ssS'exposure'
p96
(dp97
I0
F30.0
sI1
F30.0
sI2
F30.0
sI3
F30.0
sI4
F30.0
sI5
F30.0
sI6
F30.0
sI7
F30.0
sI8
F30.0
sI9
F30.0
sI10
F30.0
sI11
F30.0
sI12
F30.0
sI13
F30.0
sI14
F30.0
ssS'ref1magerr'
p98
(dp99
I0
F0.002
sI1
F0.002
sI2
F0.002
sI3
F0.002
sI4
F0.002
sI5
F0.002
sI6
F0.002
sI7
F0.002
sI8
F0.002
sI9
F0.002
sI10
F0.002
sI11
F0.002
sI12
F0.002
sI13
F0.002
sI14
F0.002
ssS'ref2magerr'
p100
(dp101
I0
F0.002
sI1
F0.002
sI2
F0.002
sI3
F0.002
sI4
F0.002
sI5
F0.002
sI6
F0.002
sI7
F0.002
sI8
F0.002
sI9
F0.002
sI10
F0.002
sI11
F0.002
sI12
F0.002
sI13
F0.002
sI14
F0.002
ssS'ref2rms'
p102
(dp103
I0
F5.02163
sI1
F4.676703
sI2
F-2.698429
sI3
F-1.923365
sI4
F3.22621
sI5
F3.838352
sI6
F3.01657
sI7
F3.635039
sI8
F5.427583
sI9
F-4.076578
sI10
F3.594961
sI11
F4.505369
sI12
F2.056671
sI13
F5.330647
sI14
F3.496207
ssS'name'
p104
(dp105
I0
S"KIC8462852-20180823at042245_-25-1X1-030-i'_cal.fts.mag.1"
p106
sI1
S"KIC8462852-20180823at035628_-25-1X1-030-i'_cal.fts.mag.1"
p107
sI2
S"KIC8462852-20180823at032911_-25-1X1-030-i'_cal.fts.mag.1"
p108
sI3
S"KIC8462852-20180823at033017_-25-1X1-030-i'_cal.fts.mag.1"
p109
sI4
S"KIC8462852-20180823at035841_-25-1X1-030-i'_cal.fts.mag.1"
p110
sI5
S"KIC8462852-20180823at042353_-25-1X1-030-i'_cal.fts.mag.1"
p111
sI6
S"KIC8462852-20180823at035415_-25-1X1-030-i'_cal.fts.mag.1"
p112
sI7
S"KIC8462852-20180823at032543_-25-1X1-030-i'_cal.fts.mag.1"
p113
sI8
S"KIC8462852-20180823at042605_-25-1X1-030-i'_cal.fts.mag.1"
p114
sI9
S"KIC8462852-20180823at035521_-25-1X1-030-i'_cal.fts.mag.1"
p115
sI10
S"KIC8462852-20180823at032805_-25-1X1-030-i'_cal.fts.mag.1"
p116
sI11
S"KIC8462852-20180823at042459_-25-1X1-030-i'_cal.fts.mag.1"
p117
sI12
S"KIC8462852-20180823at032650_-25-1X1-030-i'_cal.fts.mag.1"
p118
sI13
S"KIC8462852-20180823at042711_-25-1X1-030-i'_cal.fts.mag.1"
p119
sI14
S"KIC8462852-20180823at035734_-25-1X1-030-i'_cal.fts.mag.1"
p120
ssS'ref3err'
p121
(dp122
I0
F0.007657219214447558
sI1
Fnan
sI2
Fnan
sI3
Fnan
sI4
Fnan
sI5
Fnan
sI6
Fnan
sI7
Fnan
sI8
Fnan
sI9
Fnan
sI10
Fnan
sI11
Fnan
sI12
Fnan
sI13
Fnan
sI14
Fnan
ssS'tabby'
p123
(dp124
I0
F4066.266666666667
sI1
F4367.766666666666
sI2
F3962.476666666667
sI3
F4075.93
sI4
F4232.096666666666
sI5
F3828.14
sI6
F4134.513333333333
sI7
F4025.983333333333
sI8
F4038.01
sI9
F4232.763333333333
sI10
F3735.48
sI11
F3788.286666666667
sI12
F3822.036666666667
sI13
F3812.4466666666663
sI14
F4009.85
ssS'ref1magmeanerr'
p125
(dp126
I0
F0.045592710361364114
sI1
Fnan
sI2
Fnan
sI3
Fnan
sI4
Fnan
sI5
Fnan
sI6
Fnan
sI7
Fnan
sI8
Fnan
sI9
Fnan
sI10
Fnan
sI11
Fnan
sI12
Fnan
sI13
Fnan
sI14
Fnan
ssS'filter'
p127
(dp128
I0
S"i'"
p129
sI1
S"i'"
p130
sI2
S"i'"
p131
sI3
S"i'"
p132
sI4
S"i'"
p133
sI5
S"i'"
p134
sI6
S"i'"
p135
sI7
S"i'"
p136
sI8
S"i'"
p137
sI9
S"i'"
p138
sI10
S"i'"
p139
sI11
S"i'"
p140
sI12
S"i'"
p141
sI13
S"i'"
p142
sI14
S"i'"
p143
ssS'tabbymagerr'
p144
(dp145
I0
F0.003089915685931867
sI1
Fnan
sI2
Fnan
sI3
Fnan
sI4
Fnan
sI5
Fnan
sI6
Fnan
sI7
Fnan
sI8
Fnan
sI9
Fnan
sI10
Fnan
sI11
Fnan
sI12
Fnan
sI13
Fnan
sI14
Fnan
ssS'tabbyrms'
p146
(dp147
I0
F4.253541
sI1
F3.457955
sI2
F1.351165
sI3
F3.664114
sI4
F-2.602726
sI5
F4.071497
sI6
F3.258179
sI7
F-3.023499
sI8
F4.458508
sI9
F2.303795
sI10
F2.753234
sI11
F5.801772
sI12
F4.646088
sI13
F3.659462
sI14
F5.284813
ssS'ref3mean'
p148
(dp149
I0
F1.5039158905245278
sI1
Fnan
sI2
Fnan
sI3
Fnan
sI4
Fnan
sI5
Fnan
sI6
Fnan
sI7
Fnan
sI8
Fnan
sI9
Fnan
sI10
Fnan
sI11
Fnan
sI12
Fnan
sI13
Fnan
sI14
Fnan
ssS'median_JD'
p150
(dp151
I0
F2458353.664212963
sI1
Fnan
sI2
Fnan
sI3
Fnan
sI4
Fnan
sI5
Fnan
sI6
Fnan
sI7
Fnan
sI8
Fnan
sI9
Fnan
sI10
Fnan
sI11
Fnan
sI12
Fnan
sI13
Fnan
sI14
Fnan
ssS'error'
p152
(dp153
I0
F0.003089915685931867
sI1
Fnan
sI2
Fnan
sI3
Fnan
sI4
Fnan
sI5
Fnan
sI6
Fnan
sI7
Fnan
sI8
Fnan
sI9
Fnan
sI10
Fnan
sI11
Fnan
sI12
Fnan
sI13
Fnan
sI14
Fnan
ssS'ref3bkg'
p154
(dp155
I0
F36.35343
sI1
F34.30976
sI2
F43.3575
sI3
F41.86894
sI4
F34.63632
sI5
F41.44389
sI6
F35.41235
sI7
F48.62442
sI8
F36.71532
sI9
F35.18251
sI10
F47.5107
sI11
F38.90698
sI12
F51.59138
sI13
F41.88798
sI14
F35.27605
ssS'ref3mag'
p156
(dp157
I0
F10.809
sI1
F10.749
sI2
F10.846
sI3
F10.797
sI4
F10.761
sI5
F10.879
sI6
F10.79
sI7
F10.802
sI8
F10.809
sI9
F10.769
sI10
F10.885
sI11
F10.885
sI12
F10.882
sI13
F10.874
sI14
F10.82
ssS'mean'
p158
(dp159
I0
F0.4384308319678765
sI1
Fnan
sI2
Fnan
sI3
Fnan
sI4
Fnan
sI5
Fnan
sI6
Fnan
sI7
Fnan
sI8
Fnan
sI9
Fnan
sI10
Fnan
sI11
Fnan
sI12
Fnan
sI13
Fnan
sI14
Fnan
sssS'r'
p160
(dp161
g3
(dp162
I0
F0.5514271460685927
sI1
Fnan
sI2
Fnan
sI3
Fnan
sI4
Fnan
sI5
Fnan
sI6
Fnan
sI7
Fnan
sI8
Fnan
sI9
Fnan
sI10
Fnan
sI11
Fnan
sI12
Fnan
sI13
Fnan
sI14
Fnan
ssg5
(dp163
I0
S'NoError'
p164
sI1
S'NoError'
p165
sI2
S'NoError'
p166
sI3
S'NoError'
p167
sI4
S'NoError'
p168
sI5
S'NoError'
p169
sI6
S'NoError'
p170
sI7
S'NoError'
p171
sI8
S'NoError'
p172
sI9
S'NoError'
p173
sI10
S'NoError'
p174
sI11
S'NoError'
p175
sI12
S'NoError'
p176
sI13
S'NoError'
p177
sI14
S'NoError'
p178
ssg22
(dp179
I0
F0.002
sI1
F0.002
sI2
F0.002
sI3
F0.002
sI4
F0.002
sI5
F0.002
sI6
F0.002
sI7
F0.002
sI8
F0.002
sI9
F0.002
sI10
F0.002
sI11
F0.002
sI12
F0.002
sI13
F0.002
sI14
F0.002
ssg24
(dp180
I0
F0.8930145846131898
sI1
F0.8882549587498165
sI2
F0.8861740060403861
sI3
F0.8887329740295217
sI4
F0.9003522857468718
sI5
F0.8887711479491927
sI6
F0.8971748630679044
sI7
F0.895668751887862
sI8
F0.8905910195247922
sI9
F0.8865588975780133
sI10
F0.8832902495899323
sI11
F0.8970139533418269
sI12
F0.8871671271744161
sI13
F0.8944685065730134
sI14
F0.8976318759535479
ssg26
(dp181
I0
F0.005155415050100324
sI1
Fnan
sI2
Fnan
sI3
Fnan
sI4
Fnan
sI5
Fnan
sI6
Fnan
sI7
Fnan
sI8
Fnan
sI9
Fnan
sI10
Fnan
sI11
Fnan
sI12
Fnan
sI13
Fnan
sI14
Fnan
ssg28
(dp182
I0
F0.8916576801213524
sI1
Fnan
sI2
Fnan
sI3
Fnan
sI4
Fnan
sI5
Fnan
sI6
Fnan
sI7
Fnan
sI8
Fnan
sI9
Fnan
sI10
Fnan
sI11
Fnan
sI12
Fnan
sI13
Fnan
sI14
Fnan
ssg30
(dp183
I0
F11.192
sI1
F11.258
sI2
F11.266
sI3
F11.335
sI4
F11.288
sI5
F11.25
sI6
F11.238
sI7
F11.222
sI8
F11.21
sI9
F11.309
sI10
F11.222
sI11
F11.247
sI12
F11.278
sI13
F11.226
sI14
F11.239
ssg32
(dp184
I0
F55.11993
sI1
F55.80556
sI2
F85.78465
sI3
F81.75868
sI4
F75.03015
sI5
F56.13992
sI6
F56.89373
sI7
F56.00259
sI8
F55.23987
sI9
F97.89903
sI10
F56.12314
sI11
F89.27238
sI12
F57.48919
sI13
F57.65018
sI14
F56.48268
ssg34
(dp185
I0
F2458353.6816898147
sI1
F2458353.6786458334
sI2
F2458353.640451389
sI3
F2458353.641215278
sI4
F2458353.6420949074
sI5
F2458353.6619097223
sI6
F2458353.6611342593
sI7
F2458353.6588425925
sI8
F2458353.6794097223
sI9
F2458353.638935185
sI10
F2458353.6596064814
sI11
F2458353.639699074
sI12
F2458353.6801620373
sI13
F2458353.6603703704
sI14
F2458353.6809259257
ssg36
(dp186
I0
F4.736528933333334
sI1
Fnan
sI2
Fnan
sI3
Fnan
sI4
Fnan
sI5
Fnan
sI6
Fnan
sI7
Fnan
sI8
Fnan
sI9
Fnan
sI10
Fnan
sI11
Fnan
sI12
Fnan
sI13
Fnan
sI14
Fnan
ssg38
(dp187
I0
F3.56629548
sI1
Fnan
sI2
Fnan
sI3
Fnan
sI4
Fnan
sI5
Fnan
sI6
Fnan
sI7
Fnan
sI8
Fnan
sI9
Fnan
sI10
Fnan
sI11
Fnan
sI12
Fnan
sI13
Fnan
sI14
Fnan
ssg40
(dp188
I0
F0.5499323340126193
sI1
F0.5500644720406264
sI2
F0.5552780797228578
sI3
F0.5479348942717751
sI4
F0.5513779084171905
sI5
F0.5536082900354423
sI6
F0.5492252533376666
sI7
F0.5543103254088683
sI8
F0.5495969453071221
sI9
F0.5543039676376644
sI10
F0.553189712758851
sI11
F0.5530292687464509
sI12
F0.5488878186722408
sI13
F0.5513793703053198
sI14
F0.5496472322116424
ssg42
(dp189
I0
F0.001940062384285964
sI1
Fnan
sI2
Fnan
sI3
Fnan
sI4
Fnan
sI5
Fnan
sI6
Fnan
sI7
Fnan
sI8
Fnan
sI9
Fnan
sI10
Fnan
sI11
Fnan
sI12
Fnan
sI13
Fnan
sI14
Fnan
ssg44
(dp190
I0
F2.6926648666666675
sI1
Fnan
sI2
Fnan
sI3
Fnan
sI4
Fnan
sI5
Fnan
sI6
Fnan
sI7
Fnan
sI8
Fnan
sI9
Fnan
sI10
Fnan
sI11
Fnan
sI12
Fnan
sI13
Fnan
sI14
Fnan
ssg46
(dp191
I0
g164
sI1
g165
sI2
g166
sI3
g167
sI4
g168
sI5
g169
sI6
g170
sI7
g171
sI8
g172
sI9
g173
sI10
g174
sI11
g175
sI12
g176
sI13
g177
sI14
g178
ssg48
(dp192
I0
F0.004770782379803907
sI1
Fnan
sI2
Fnan
sI3
Fnan
sI4
Fnan
sI5
Fnan
sI6
Fnan
sI7
Fnan
sI8
Fnan
sI9
Fnan
sI10
Fnan
sI11
Fnan
sI12
Fnan
sI13
Fnan
sI14
Fnan
ssg50
(dp193
I0
F0.03948212374275335
sI1
Fnan
sI2
Fnan
sI3
Fnan
sI4
Fnan
sI5
Fnan
sI6
Fnan
sI7
Fnan
sI8
Fnan
sI9
Fnan
sI10
Fnan
sI11
Fnan
sI12
Fnan
sI13
Fnan
sI14
Fnan
ssg52
(dp194
I0
F3.645126933333334
sI1
Fnan
sI2
Fnan
sI3
Fnan
sI4
Fnan
sI5
Fnan
sI6
Fnan
sI7
Fnan
sI8
Fnan
sI9
Fnan
sI10
Fnan
sI11
Fnan
sI12
Fnan
sI13
Fnan
sI14
Fnan
ssg54
(dp195
I0
F1.4915741666272941
sI1
F1.5087667896437038
sI2
F1.5026722453116086
sI3
F1.501068621131263
sI4
F1.4887141830274093
sI5
F1.4976333021401467
sI6
F1.5080568053168464
sI7
F1.4924939234637593
sI8
F1.4968451333462152
sI9
F1.5162264864582464
sI10
F1.5176416304110467
sI11
F1.4894952031806625
sI12
F1.4882121529370602
sI13
F1.4911815422548875
sI14
F1.4868148717560092
ssg56
(dp196
I0
g164
sI1
g165
sI2
g166
sI3
g167
sI4
g168
sI5
g169
sI6
g170
sI7
g171
sI8
g172
sI9
g173
sI10
g174
sI11
g175
sI12
g176
sI13
g177
sI14
g178
ssg58
(dp197
I0
F56.25177
sI1
F58.08471
sI2
F88.90397
sI3
F85.45074
sI4
F78.96902
sI5
F58.41459
sI6
F59.55888
sI7
F59.90409
sI8
F59.34264
sI9
F102.0593
sI10
F57.72155
sI11
F93.99096
sI12
F59.09322
sI13
F60.34108
sI14
F59.31441
ssg60
(dp198
I0
F10.333666666666668
sI1
Fnan
sI2
Fnan
sI3
Fnan
sI4
Fnan
sI5
Fnan
sI6
Fnan
sI7
Fnan
sI8
Fnan
sI9
Fnan
sI10
Fnan
sI11
Fnan
sI12
Fnan
sI13
Fnan
sI14
Fnan
ssg62
(dp199
I0
F0.7149132649667134
sI1
Fnan
sI2
Fnan
sI3
Fnan
sI4
Fnan
sI5
Fnan
sI6
Fnan
sI7
Fnan
sI8
Fnan
sI9
Fnan
sI10
Fnan
sI11
Fnan
sI12
Fnan
sI13
Fnan
sI14
Fnan
ssg64
(dp200
I0
F2.528366
sI1
F6.477951
sI2
F-4.650541
sI3
F6.945446
sI4
F2.262058
sI5
F3.402795
sI6
F0.9765872
sI7
F3.8524
sI8
F2.96744
sI9
F6.49445
sI10
F3.152533
sI11
F3.439426
sI12
F4.638478
sI13
F5.437511
sI14
F5.569532
ssg66
(dp201
I0
F10.690533333333336
sI1
Fnan
sI2
Fnan
sI3
Fnan
sI4
Fnan
sI5
Fnan
sI6
Fnan
sI7
Fnan
sI8
Fnan
sI9
Fnan
sI10
Fnan
sI11
Fnan
sI12
Fnan
sI13
Fnan
sI14
Fnan
ssg68
(dp202
I0
g164
sI1
g165
sI2
g166
sI3
g167
sI4
g168
sI5
g169
sI6
g170
sI7
g171
sI8
g172
sI9
g173
sI10
g174
sI11
g175
sI12
g176
sI13
g177
sI14
g178
ssg70
(dp203
I0
F14105.126666666667
sI1
F13222.019999999999
sI2
F12980.25
sI3
F12373.476666666666
sI4
F12959.753333333332
sI5
F13249.07
sI6
F13581.140000000001
sI7
F13640.019999999999
sI8
F13864.783333333333
sI9
F12506.15
sI10
F13537.96
sI11
F13380.95
sI12
F12999.043333333333
sI13
F13648.793333333333
sI14
F13564.41
ssg72
(dp204
I0
F1.035736
sI1
F1.039555
sI2
F1.1088200000000001
sI3
F1.1069930000000001
sI4
F1.104967
sI5
F1.064821
sI6
F1.066151
sI7
F1.070265
sI8
F1.038585
sI9
F1.112487
sI10
F1.068875
sI11
F1.11066
sI12
F1.0376290000000001
sI13
F1.06752
sI14
F1.036686
ssg74
(dp205
I0
F12069.336666666666
sI1
F11283.91
sI2
F11158.626666666667
sI3
F10601.613333333335
sI4
F10973.383333333333
sI5
F11375.253333333332
sI6
F11422.153333333332
sI7
F11612.853333333333
sI8
F11873.230000000001
sI9
F10654.44
sI10
F11587.646666666667
sI11
F11387.893333333333
sI12
F11256.163333333334
sI13
F11653.25
sI14
F11551.386666666665
ssg76
(dp206
I0
F19520.576666666668
sI1
F18486.866666666665
sI2
F18136.41
sI3
F17243.593333333334
sI4
F17814.8
sI5
F18439.103333333333
sI6
F18853.193333333336
sI7
F18844.88
sI8
F19262.91
sI9
F17558.35
sI10
F19065.833333333332
sI11
F18446.536666666667
sI12
F18048.446666666667
sI13
F18864.969999999998
sI14
F18671.27
ssg78
(dp207
I0
F56.86884
sI1
F55.42317
sI2
F87.42206
sI3
F84.42996
sI4
F77.8203
sI5
F58.47728
sI6
F58.52584
sI7
F58.66238
sI8
F56.55258
sI9
F99.11634
sI10
F57.52828
sI11
F91.69336
sI12
F59.01218
sI13
F57.98929
sI14
F57.36607
ssg80
(dp208
I0
F10.796
sI1
F10.869
sI2
F10.881
sI3
F10.937
sI4
F10.899
sI5
F10.86
sI6
F10.856
sI7
F10.838
sI8
F10.814
sI9
F10.931
sI10
F10.84
sI11
F10.859
sI12
F10.872
sI13
F10.834
sI14
F10.843
ssg82
(dp209
I0
F0.001
sI1
F0.001
sI2
F0.001
sI3
F0.001
sI4
F0.001
sI5
F0.001
sI6
F0.001
sI7
F0.001
sI8
F0.001
sI9
F0.001
sI10
F0.001
sI11
F0.001
sI12
F0.001
sI13
F0.001
sI14
F0.001
ssg84
(dp210
I0
F0.5514510581924225
sI1
Fnan
sI2
Fnan
sI3
Fnan
sI4
Fnan
sI5
Fnan
sI6
Fnan
sI7
Fnan
sI8
Fnan
sI9
Fnan
sI10
Fnan
sI11
Fnan
sI12
Fnan
sI13
Fnan
sI14
Fnan
ssg86
(dp211
I0
F10.861933333333333
sI1
Fnan
sI2
Fnan
sI3
Fnan
sI4
Fnan
sI5
Fnan
sI6
Fnan
sI7
Fnan
sI8
Fnan
sI9
Fnan
sI10
Fnan
sI11
Fnan
sI12
Fnan
sI13
Fnan
sI14
Fnan
ssg88
(dp212
I0
F10.627
sI1
F10.697
sI2
F10.717
sI3
F10.769
sI4
F10.719
sI5
F10.695
sI6
F10.668
sI7
F10.663
sI8
F10.645
sI9
F10.757
sI10
F10.671
sI11
F10.684
sI12
F10.715
sI13
F10.662
sI14
F10.669
ssg90
(dp213
I0
F-4.061653
sI1
F6.211044
sI2
F3.318789
sI3
F9.357532
sI4
F7.18357
sI5
F4.386333
sI6
F4.626007
sI7
F3.812517
sI8
F3.99851
sI9
F7.349646
sI10
F3.116176
sI11
F5.075324
sI12
F6.903724
sI13
F4.15055
sI14
F5.619865
ssg92
(dp214
I0
F0.03744837716618638
sI1
Fnan
sI2
Fnan
sI3
Fnan
sI4
Fnan
sI5
Fnan
sI6
Fnan
sI7
Fnan
sI8
Fnan
sI9
Fnan
sI10
Fnan
sI11
Fnan
sI12
Fnan
sI13
Fnan
sI14
Fnan
ssg94
(dp215
I0
F0.7178637453035678
sI1
F0.7117190911569901
sI2
F0.717212365765906
sI3
F0.7159123663031715
sI4
F0.7131465541985663
sI5
F0.7179494515935072
sI6
F0.7043248409607102
sI7
F0.7149693139479162
sI8
F0.7168159811509164
sI9
F0.7087721398992167
sI10
F0.7108158580320614
sI11
F0.7156011690524102
sI12
F0.725093289881619
sI13
F0.7168195130492944
sI14
F0.7166832942048479
ssg96
(dp216
I0
F30.0
sI1
F30.0
sI2
F30.0
sI3
F30.0
sI4
F30.0
sI5
F30.0
sI6
F30.0
sI7
F30.0
sI8
F30.0
sI9
F30.0
sI10
F30.0
sI11
F30.0
sI12
F30.0
sI13
F30.0
sI14
F30.0
ssg98
(dp217
I0
F0.002
sI1
F0.002
sI2
F0.002
sI3
F0.002
sI4
F0.002
sI5
F0.002
sI6
F0.002
sI7
F0.002
sI8
F0.002
sI9
F0.002
sI10
F0.002
sI11
F0.002
sI12
F0.002
sI13
F0.002
sI14
F0.002
ssg100
(dp218
I0
F0.002
sI1
F0.002
sI2
F0.002
sI3
F0.002
sI4
F0.002
sI5
F0.002
sI6
F0.002
sI7
F0.002
sI8
F0.002
sI9
F0.002
sI10
F0.002
sI11
F0.002
sI12
F0.002
sI13
F0.002
sI14
F0.002
ssg102
(dp219
I0
F4.784404
sI1
F6.165557
sI2
F6.090867
sI3
F6.200441
sI4
F2.865794
sI5
F6.837773
sI6
F2.970752
sI7
F3.751444
sI8
F-3.154274
sI9
F7.201648
sI10
F2.969671
sI11
F2.199626
sI12
F4.560783
sI13
F-3.366203
sI14
F4.598621
ssg104
(dp220
I0
S"KIC8462852-20180823at042138_-25-1X1-030-r'_cal.fts.mag.1"
p221
sI1
S"KIC8462852-20180823at041714_-25-1X1-030-r'_cal.fts.mag.1"
p222
sI2
S"KIC8462852-20180823at032215_-25-1X1-030-r'_cal.fts.mag.1"
p223
sI3
S"KIC8462852-20180823at032321_-25-1X1-030-r'_cal.fts.mag.1"
p224
sI4
S"KIC8462852-20180823at032437_-25-1X1-030-r'_cal.fts.mag.1"
p225
sI5
S"KIC8462852-20180823at035309_-25-1X1-030-r'_cal.fts.mag.1"
p226
sI6
S"KIC8462852-20180823at035202_-25-1X1-030-r'_cal.fts.mag.1"
p227
sI7
S"KIC8462852-20180823at034842_-25-1X1-030-r'_cal.fts.mag.1"
p228
sI8
S"KIC8462852-20180823at041821_-25-1X1-030-r'_cal.fts.mag.1"
p229
sI9
S"KIC8462852-20180823at032003_-25-1X1-030-r'_cal.fts.mag.1"
p230
sI10
S"KIC8462852-20180823at034950_-25-1X1-030-r'_cal.fts.mag.1"
p231
sI11
S"KIC8462852-20180823at032110_-25-1X1-030-r'_cal.fts.mag.1"
p232
sI12
S"KIC8462852-20180823at041926_-25-1X1-030-r'_cal.fts.mag.1"
p233
sI13
S"KIC8462852-20180823at035056_-25-1X1-030-r'_cal.fts.mag.1"
p234
sI14
S"KIC8462852-20180823at042032_-25-1X1-030-r'_cal.fts.mag.1"
p235
ssg121
(dp236
I0
F0.010217963412099903
sI1
Fnan
sI2
Fnan
sI3
Fnan
sI4
Fnan
sI5
Fnan
sI6
Fnan
sI7
Fnan
sI8
Fnan
sI9
Fnan
sI10
Fnan
sI11
Fnan
sI12
Fnan
sI13
Fnan
sI14
Fnan
ssg123
(dp237
I0
F8376.393333333333
sI1
F7882.9366666666665
sI2
F7824.846666666666
sI3
F7345.740000000001
sI4
F7672.963333333333
sI5
F7946.756666666667
sI6
F8029.03
sI7
F8147.946666666667
sI8
F8244.123333333333
sI9
F7523.556666666667
sI10
F8148.75
sI11
F7966.456666666667
sI12
F7739.986666666667
sI13
F8117.593333333333
sI14
F8022.48
ssg125
(dp238
I0
F0.03889448485815108
sI1
Fnan
sI2
Fnan
sI3
Fnan
sI4
Fnan
sI5
Fnan
sI6
Fnan
sI7
Fnan
sI8
Fnan
sI9
Fnan
sI10
Fnan
sI11
Fnan
sI12
Fnan
sI13
Fnan
sI14
Fnan
ssg127
(dp239
I0
S"r'"
p240
sI1
S"r'"
p241
sI2
S"r'"
p242
sI3
S"r'"
p243
sI4
S"r'"
p244
sI5
S"r'"
p245
sI6
S"r'"
p246
sI7
S"r'"
p247
sI8
S"r'"
p248
sI9
S"r'"
p249
sI10
S"r'"
p250
sI11
S"r'"
p251
sI12
S"r'"
p252
sI13
S"r'"
p253
sI14
S"r'"
p254
ssg144
(dp255
I0
F0.002329115136866267
sI1
Fnan
sI2
Fnan
sI3
Fnan
sI4
Fnan
sI5
Fnan
sI6
Fnan
sI7
Fnan
sI8
Fnan
sI9
Fnan
sI10
Fnan
sI11
Fnan
sI12
Fnan
sI13
Fnan
sI14
Fnan
ssg146
(dp256
I0
F-3.385716
sI1
F5.844157
sI2
F5.518848
sI3
F4.689995
sI4
F5.951973
sI5
F4.881476
sI6
F1.135253
sI7
F5.409794
sI8
F-3.279335
sI9
F7.92252
sI10
F1.552793
sI11
F5.206336
sI12
F4.693136
sI13
F-4.225142
sI14
F-1.526115
ssg148
(dp257
I0
F1.498493137133744
sI1
Fnan
sI2
Fnan
sI3
Fnan
sI4
Fnan
sI5
Fnan
sI6
Fnan
sI7
Fnan
sI8
Fnan
sI9
Fnan
sI10
Fnan
sI11
Fnan
sI12
Fnan
sI13
Fnan
sI14
Fnan
ssg150
(dp258
I0
F2458353.6603703704
sI1
Fnan
sI2
Fnan
sI3
Fnan
sI4
Fnan
sI5
Fnan
sI6
Fnan
sI7
Fnan
sI8
Fnan
sI9
Fnan
sI10
Fnan
sI11
Fnan
sI12
Fnan
sI13
Fnan
sI14
Fnan
ssg152
(dp259
I0
F0.002329115136866267
sI1
Fnan
sI2
Fnan
sI3
Fnan
sI4
Fnan
sI5
Fnan
sI6
Fnan
sI7
Fnan
sI8
Fnan
sI9
Fnan
sI10
Fnan
sI11
Fnan
sI12
Fnan
sI13
Fnan
sI14
Fnan
ssg154
(dp260
I0
F60.66867
sI1
F61.15379
sI2
F92.99121
sI3
F88.18987
sI4
F83.56891
sI5
F62.06844
sI6
F62.57725
sI7
F63.02881
sI8
F60.65518
sI9
F105.2531
sI10
F60.28166
sI11
F96.89654
sI12
F60.29076
sI13
F61.0829
sI14
F61.97943
ssg156
(dp261
I0
F10.274
sI1
F10.333
sI2
F10.354
sI3
F10.408
sI4
F10.373
sI5
F10.336
sI6
F10.312
sI7
F10.312
sI8
F10.288
sI9
F10.389
sI10
F10.299
sI11
F10.335
sI12
F10.359
sI13
F10.311
sI14
F10.322
ssg158
(dp262
I0
F0.5514510581924225
sI1
Fnan
sI2
Fnan
sI3
Fnan
sI4
Fnan
sI5
Fnan
sI6
Fnan
sI7
Fnan
sI8
Fnan
sI9
Fnan
sI10
Fnan
sI11
Fnan
sI12
Fnan
sI13
Fnan
sI14
Fnan
sssS'z'
p263
(dp264
g3
(dp265
I0
F0.3694346692607442
sI1
Fnan
sI2
Fnan
sI3
Fnan
sI4
Fnan
sI5
Fnan
sI6
Fnan
sI7
Fnan
sI8
Fnan
sI9
Fnan
sI10
Fnan
sI11
Fnan
sI12
Fnan
sI13
Fnan
sI14
Fnan
ssg5
(dp266
I0
S'NoError'
p267
sI1
S'NoError'
p268
sI2
S'NoError'
p269
sI3
S'NoError'
p270
sI4
S'NoError'
p271
sI5
S'NoError'
p272
sI6
S'NoError'
p273
sI7
S'NoError'
p274
sI8
S'NoError'
p275
sI9
S'NoError'
p276
sI10
S'NoError'
p277
sI11
S'NoError'
p278
sI12
S'NoError'
p279
sI13
S'NoError'
p280
sI14
S'NoError'
p281
ssg22
(dp282
I0
F0.008
sI1
F0.007
sI2
F0.008
sI3
F0.008
sI4
F0.007
sI5
F0.007
sI6
F0.008
sI7
F0.008
sI8
F0.008
sI9
F0.008
sI10
F0.007
sI11
F0.008
sI12
F0.009
sI13
F0.008
sI14
F0.008
ssg24
(dp283
I0
F0.9088402981105513
sI1
F0.9237891753531886
sI2
F0.9101854229026001
sI3
F0.9250643320728225
sI4
F0.9184226975786473
sI5
F0.9060499654500866
sI6
F0.9091093694377849
sI7
F0.9145129224652087
sI8
F0.9140410843181387
sI9
F0.9054860164399696
sI10
F0.9111181459505266
sI11
F0.9257585199649151
sI12
F0.9237159722494488
sI13
F0.9090100075200473
sI14
F0.9020388427333597
ssg26
(dp284
I0
F0.0077793143002814055
sI1
Fnan
sI2
Fnan
sI3
Fnan
sI4
Fnan
sI5
Fnan
sI6
Fnan
sI7
Fnan
sI8
Fnan
sI9
Fnan
sI10
Fnan
sI11
Fnan
sI12
Fnan
sI13
Fnan
sI14
Fnan
ssg28
(dp285
I0
F0.9138095181698198
sI1
Fnan
sI2
Fnan
sI3
Fnan
sI4
Fnan
sI5
Fnan
sI6
Fnan
sI7
Fnan
sI8
Fnan
sI9
Fnan
sI10
Fnan
sI11
Fnan
sI12
Fnan
sI13
Fnan
sI14
Fnan
ssg30
(dp286
I0
F13.332
sI1
F13.353
sI2
F13.377
sI3
F13.359
sI4
F13.329
sI5
F13.337
sI6
F13.396
sI7
F13.382
sI8
F13.337
sI9
F13.377
sI10
F13.295
sI11
F13.421
sI12
F13.484
sI13
F13.513
sI14
F13.342
ssg32
(dp287
I0
F13.68257
sI1
F14.65564
sI2
F13.55676
sI3
F14.06798
sI4
F13.09437
sI5
F15.39123
sI6
F14.11904
sI7
F13.42717
sI8
F11.67944
sI9
F12.09363
sI10
F12.95765
sI11
F15.61222
sI12
F12.26474
sI13
F16.06543
sI14
F15.67684
ssg34
(dp288
I0
F2458353.6498611113
sI1
F2458353.6475694445
sI2
F2458353.668888889
sI3
F2458353.689421296
sI4
F2458353.6696412037
sI5
F2458353.6483333334
sI6
F2458353.688645833
sI7
F2458353.6878935187
sI8
F2458353.666539352
sI9
F2458353.668125
sI10
F2458353.6863310183
sI11
F2458353.6468171296
sI12
F2458353.667303241
sI13
F2458353.6871064813
sI14
F2458353.6490972224
ssg36
(dp289
I0
F1.5769486
sI1
Fnan
sI2
Fnan
sI3
Fnan
sI4
Fnan
sI5
Fnan
sI6
Fnan
sI7
Fnan
sI8
Fnan
sI9
Fnan
sI10
Fnan
sI11
Fnan
sI12
Fnan
sI13
Fnan
sI14
Fnan
ssg38
(dp290
I0
F1.5410029333333337
sI1
Fnan
sI2
Fnan
sI3
Fnan
sI4
Fnan
sI5
Fnan
sI6
Fnan
sI7
Fnan
sI8
Fnan
sI9
Fnan
sI10
Fnan
sI11
Fnan
sI12
Fnan
sI13
Fnan
sI14
Fnan
ssg40
(dp291
I0
F0.3727421068326884
sI1
F0.3685216540687801
sI2
F0.36306091168616933
sI3
F0.3748051877063578
sI4
F0.37182887289869954
sI5
F0.3711431674291772
sI6
F0.3672175176935869
sI7
F0.3683907832815234
sI8
F0.3707848505581688
sI9
F0.3731596446338778
sI10
F0.37445328175594556
sI11
F0.3645773792179059
sI12
F0.3645714056745427
sI13
F0.35896780296229247
sI14
F0.36682860621299623
ssg42
(dp292
I0
F0.003691860704010298
sI1
Fnan
sI2
Fnan
sI3
Fnan
sI4
Fnan
sI5
Fnan
sI6
Fnan
sI7
Fnan
sI8
Fnan
sI9
Fnan
sI10
Fnan
sI11
Fnan
sI12
Fnan
sI13
Fnan
sI14
Fnan
ssg44
(dp293
I0
F0.7934269333333333
sI1
Fnan
sI2
Fnan
sI3
Fnan
sI4
Fnan
sI5
Fnan
sI6
Fnan
sI7
Fnan
sI8
Fnan
sI9
Fnan
sI10
Fnan
sI11
Fnan
sI12
Fnan
sI13
Fnan
sI14
Fnan
ssg46
(dp294
I0
g267
sI1
g268
sI2
g269
sI3
g270
sI4
g271
sI5
g272
sI6
g273
sI7
g274
sI8
g275
sI9
g276
sI10
g277
sI11
g278
sI12
g279
sI13
g280
sI14
g281
ssg48
(dp295
I0
F0.003937709921168777
sI1
Fnan
sI2
Fnan
sI3
Fnan
sI4
Fnan
sI5
Fnan
sI6
Fnan
sI7
Fnan
sI8
Fnan
sI9
Fnan
sI10
Fnan
sI11
Fnan
sI12
Fnan
sI13
Fnan
sI14
Fnan
ssg50
(dp296
I0
F0.04747610928015217
sI1
Fnan
sI2
Fnan
sI3
Fnan
sI4
Fnan
sI5
Fnan
sI6
Fnan
sI7
Fnan
sI8
Fnan
sI9
Fnan
sI10
Fnan
sI11
Fnan
sI12
Fnan
sI13
Fnan
sI14
Fnan
ssg52
(dp297
I0
F0.7758842000000002
sI1
Fnan
sI2
Fnan
sI3
Fnan
sI4
Fnan
sI5
Fnan
sI6
Fnan
sI7
Fnan
sI8
Fnan
sI9
Fnan
sI10
Fnan
sI11
Fnan
sI12
Fnan
sI13
Fnan
sI14
Fnan
ssg54
(dp298
I0
F1.5069147075959333
sI1
F1.4908160612996666
sI2
F1.521284646117006
sI3
F1.5002962475080854
sI4
F1.4908080478936276
sI5
F1.510173548009103
sI6
F1.5204307461459265
sI7
F1.51071517206481
sI8
F1.5081456257801709
sI9
F1.5222346072605657
sI10
F1.519548989292617
sI11
F1.4944997368759692
sI12
F1.4968637835576972
sI13
F1.5172056664801004
sI14
F1.5159624836765917
ssg56
(dp299
I0
g267
sI1
g268
sI2
g269
sI3
g270
sI4
g271
sI5
g272
sI6
g273
sI7
g274
sI8
g275
sI9
g276
sI10
g277
sI11
g278
sI12
g279
sI13
g280
sI14
g281
ssg58
(dp300
I0
F15.66256
sI1
F15.21207
sI2
F13.21515
sI3
F15.29812
sI4
F13.39097
sI5
F16.02534
sI6
F15.09005
sI7
F15.20864
sI8
F12.62882
sI9
F15.37182
sI10
F15.14545
sI11
F16.06998
sI12
F13.27077
sI13
F17.25715
sI14
F15.02102
ssg60
(dp301
I0
F12.016066666666665
sI1
Fnan
sI2
Fnan
sI3
Fnan
sI4
Fnan
sI5
Fnan
sI6
Fnan
sI7
Fnan
sI8
Fnan
sI9
Fnan
sI10
Fnan
sI11
Fnan
sI12
Fnan
sI13
Fnan
sI14
Fnan
ssg62
(dp302
I0
F0.6898341473681279
sI1
Fnan
sI2
Fnan
sI3
Fnan
sI4
Fnan
sI5
Fnan
sI6
Fnan
sI7
Fnan
sI8
Fnan
sI9
Fnan
sI10
Fnan
sI11
Fnan
sI12
Fnan
sI13
Fnan
sI14
Fnan
ssg64
(dp303
I0
F3.524954
sI1
F3.83565
sI2
F3.611798
sI3
F3.040847
sI4
F3.671053
sI5
F3.95893
sI6
F2.217606
sI7
F-2.07033
sI8
F-3.035656
sI9
F2.765996
sI10
F4.2343
sI11
F-2.978357
sI12
F5.698127
sI13
F-2.889589
sI14
F-2.470285
ssg66
(dp304
I0
F12.358466666666667
sI1
Fnan
sI2
Fnan
sI3
Fnan
sI4
Fnan
sI5
Fnan
sI6
Fnan
sI7
Fnan
sI8
Fnan
sI9
Fnan
sI10
Fnan
sI11
Fnan
sI12
Fnan
sI13
Fnan
sI14
Fnan
ssg68
(dp305
I0
g267
sI1
g268
sI2
g269
sI3
g270
sI4
g271
sI5
g272
sI6
g273
sI7
g274
sI8
g275
sI9
g276
sI10
g277
sI11
g278
sI12
g279
sI13
g280
sI14
g281
ssg70
(dp306
I0
F2935.7053333333333
sI1
F2944.8486666666668
sI2
F2894.685
sI3
F2881.296333333333
sI4
F2972.3706666666667
sI5
F2928.6073333333334
sI6
F2810.0409999999997
sI7
F2848.1666666666665
sI8
F2948.4293333333335
sI9
F2805.488
sI10
F3029.2149999999997
sI11
F2799.761
sI12
F2638.7683333333334
sI13
F2581.5559999999996
sI14
F2939.137666666667
ssg72
(dp307
I0
F1.087798
sI1
F1.09267
sI2
F1.05339
sI3
F1.027115
sI4
F1.052201
sI5
F1.09103
sI6
F1.027909
sI7
F1.028717
sI8
F1.057067
sI9
F1.054554
sI10
F1.030383
sI11
F1.094331
sI12
F1.05584
sI13
F1.02955
sI14
F1.089413
ssg74
(dp308
I0
F2422.8726666666666
sI1
F2395.1259999999997
sI2
F2362.109
sI3
F2324.3733333333334
sI4
F2439.066
sI5
F2423.360333333333
sI6
F2298.428
sI7
F2322.85
sI8
F2410.438666666667
sI9
F2306.1156666666666
sI10
F2470.7283333333335
sI11
F2264.3906666666667
sI12
F2138.166
sI13
F2116.1986666666667
sI14
F2439.641
ssg76
(dp309
I0
F4037.46
sI1
F3980.46
sI2
F3998.54
sI3
F3905.023333333333
sI4
F4033.7066666666665
sI5
F4041.2
sI6
F3883.536666666667
sI7
F3905.9666666666667
sI8
F4040.976666666667
sI9
F3890.5299999999997
sI10
F4178.716666666666
sI11
F3784.186666666667
sI12
F3575.21
sI13
F3563.73
sI14
F4077.0133333333333
ssg78
(dp310
I0
F14.25917
sI1
F15.02516
sI2
F12.96892
sI3
F14.20586
sI4
F13.32326
sI5
F14.69608
sI6
F14.28486
sI7
F14.87701
sI8
F13.07111
sI9
F14.15718
sI10
F14.81744
sI11
F15.22099
sI12
F14.27075
sI13
F15.58003
sI14
F14.48741
ssg80
(dp311
I0
F12.539
sI1
F12.552
sI2
F12.567
sI3
F12.584
sI4
F12.532
sI5
F12.539
sI6
F12.596
sI7
F12.585
sI8
F12.545
sI9
F12.593
sI10
F12.518
sI11
F12.613
sI12
F12.675
sI13
F12.686
sI14
F12.532
ssg82
(dp312
I0
F0.003
sI1
F0.003
sI2
F0.003
sI3
F0.003
sI4
F0.003
sI5
F0.003
sI6
F0.003
sI7
F0.003
sI8
F0.003
sI9
F0.003
sI10
F0.003
sI11
F0.003
sI12
F0.004
sI13
F0.004
sI14
F0.003
ssg84
(dp313
I0
F0.36873687817418077
sI1
Fnan
sI2
Fnan
sI3
Fnan
sI4
Fnan
sI5
Fnan
sI6
Fnan
sI7
Fnan
sI8
Fnan
sI9
Fnan
sI10
Fnan
sI11
Fnan
sI12
Fnan
sI13
Fnan
sI14
Fnan
ssg86
(dp314
I0
F12.577066666666669
sI1
Fnan
sI2
Fnan
sI3
Fnan
sI4
Fnan
sI5
Fnan
sI6
Fnan
sI7
Fnan
sI8
Fnan
sI9
Fnan
sI10
Fnan
sI11
Fnan
sI12
Fnan
sI13
Fnan
sI14
Fnan
ssg88
(dp315
I0
F12.331
sI1
F12.327
sI2
F12.346
sI3
F12.351
sI4
F12.317
sI5
F12.333
sI6
F12.378
sI7
F12.364
sI8
F12.326
sI9
F12.38
sI10
F12.297
sI11
F12.382
sI12
F12.446
sI13
F12.47
sI14
F12.329
ssg90
(dp316
I0
F-3.236564
sI1
F-1.353483
sI2
F1.574686
sI3
F-3.112304
sI4
F-1.665445
sI5
F4.222023
sI6
F3.985788
sI7
F4.020792
sI8
F-2.484621
sI9
F2.869831
sI10
F2.918389
sI11
F1.489116
sI12
F5.088064
sI13
F5.774924
sI14
F3.563033
ssg92
(dp317
I0
F0.04922320397458722
sI1
Fnan
sI2
Fnan
sI3
Fnan
sI4
Fnan
sI5
Fnan
sI6
Fnan
sI7
Fnan
sI8
Fnan
sI9
Fnan
sI10
Fnan
sI11
Fnan
sI12
Fnan
sI13
Fnan
sI14
Fnan
ssg94
(dp318
I0
F0.6949133000144937
sI1
F0.6917023096828511
sI2
F0.685342201944663
sI3
F0.6850173429790787
sI4
F0.6962715037116347
sI5
F0.6953880408554574
sI6
F0.6867562055628149
sI7
F0.6878306617182565
sI8
F0.6897406350887806
sI9
F0.6888021109461374
sI10
F0.6855582010465787
sI11
F0.6878519639914108
sI12
F0.6881794191429162
sI13
F0.6887225970171825
sI14
F0.6954357168196637
ssg96
(dp319
I0
F30.0
sI1
F30.0
sI2
F30.0
sI3
F30.0
sI4
F30.0
sI5
F30.0
sI6
F30.0
sI7
F30.0
sI8
F30.0
sI9
F30.0
sI10
F30.0
sI11
F30.0
sI12
F30.0
sI13
F30.0
sI14
F30.0
ssg98
(dp320
I0
F0.004
sI1
F0.004
sI2
F0.004
sI3
F0.004
sI4
F0.004
sI5
F0.004
sI6
F0.005
sI7
F0.004
sI8
F0.004
sI9
F0.005
sI10
F0.004
sI11
F0.005
sI12
F0.005
sI13
F0.005
sI14
F0.004
ssg100
(dp321
I0
F0.004
sI1
F0.004
sI2
F0.004
sI3
F0.004
sI4
F0.004
sI5
F0.004
sI6
F0.004
sI7
F0.004
sI8
F0.004
sI9
F0.004
sI10
F0.004
sI11
F0.004
sI12
F0.004
sI13
F0.004
sI14
F0.004
ssg102
(dp322
I0
F3.200791
sI1
F2.651639
sI2
F1.423023
sI3
F3.548421
sI4
F-2.115161
sI5
F-2.975974
sI6
F-1.396086
sI7
F4.158514
sI8
F4.57096
sI9
F-1.197341
sI10
F3.053904
sI11
F-2.506121
sI12
F5.184694
sI13
F-2.435785
sI14
F-3.527215
ssg104
(dp323
I0
S"KIC8462852-20180823at033548_-25-1X1-030-z'_cal.fts.mag.1"
p324
sI1
S"KIC8462852-20180823at033230_-25-1X1-030-z'_cal.fts.mag.1"
p325
sI2
S"KIC8462852-20180823at040312_-25-1X1-030-z'_cal.fts.mag.1"
p326
sI3
S"KIC8462852-20180823at043246_-25-1X1-030-z'_cal.fts.mag.1"
p327
sI4
S"KIC8462852-20180823at040417_-25-1X1-030-z'_cal.fts.mag.1"
p328
sI5
S"KIC8462852-20180823at033336_-25-1X1-030-z'_cal.fts.mag.1"
p329
sI6
S"KIC8462852-20180823at043139_-25-1X1-030-z'_cal.fts.mag.1"
p330
sI7
S"KIC8462852-20180823at043034_-25-1X1-030-z'_cal.fts.mag.1"
p331
sI8
S"KIC8462852-20180823at035948_-25-1X1-030-z'_cal.fts.mag.1"
p332
sI9
S"KIC8462852-20180823at040206_-25-1X1-030-z'_cal.fts.mag.1"
p333
sI10
S"KIC8462852-20180823at042817_-25-1X1-030-z'_cal.fts.mag.1"
p334
sI11
S"KIC8462852-20180823at033123_-25-1X1-030-z'_cal.fts.mag.1"
p335
sI12
S"KIC8462852-20180823at040055_-25-1X1-030-z'_cal.fts.mag.1"
p336
sI13
S"KIC8462852-20180823at042926_-25-1X1-030-z'_cal.fts.mag.1"
p337
sI14
S"KIC8462852-20180823at033442_-25-1X1-030-z'_cal.fts.mag.1"
p338
ssg121
(dp339
I0
F0.011283995989161636
sI1
Fnan
sI2
Fnan
sI3
Fnan
sI4
Fnan
sI5
Fnan
sI6
Fnan
sI7
Fnan
sI8
Fnan
sI9
Fnan
sI10
Fnan
sI11
Fnan
sI12
Fnan
sI13
Fnan
sI14
Fnan
ssg123
(dp340
I0
F1167.433
sI1
F1144.9273333333333
sI2
F1120.0833333333333
sI3
F1138.245
sI4
F1170.6589999999999
sI5
F1162.07
sI6
F1100.674
sI7
F1114.6256666666666
sI8
F1161.7733333333333
sI9
F1119.7443333333333
sI10
F1208.0686666666666
sI11
F1075.3013333333333
sI12
F1014.9843333333333
sI13
F988.5356666666667
sI14
F1156.2183333333335
ssg125
(dp341
I0
F0.05048262313009541
sI1
Fnan
sI2
Fnan
sI3
Fnan
sI4
Fnan
sI5
Fnan
sI6
Fnan
sI7
Fnan
sI8
Fnan
sI9
Fnan
sI10
Fnan
sI11
Fnan
sI12
Fnan
sI13
Fnan
sI14
Fnan
ssg127
(dp342
I0
S"z'"
p343
sI1
S"z'"
p344
sI2
S"z'"
p345
sI3
S"z'"
p346
sI4
S"z'"
p347
sI5
S"z'"
p348
sI6
S"z'"
p349
sI7
S"z'"
p350
sI8
S"z'"
p351
sI9
S"z'"
p352
sI10
S"z'"
p353
sI11
S"z'"
p354
sI12
S"z'"
p355
sI13
S"z'"
p356
sI14
S"z'"
p357
ssg144
(dp358
I0
F0.004575316542614999
sI1
Fnan
sI2
Fnan
sI3
Fnan
sI4
Fnan
sI5
Fnan
sI6
Fnan
sI7
Fnan
sI8
Fnan
sI9
Fnan
sI10
Fnan
sI11
Fnan
sI12
Fnan
sI13
Fnan
sI14
Fnan
ssg146
(dp359
I0
F2.687247
sI1
F3.34856
sI2
F-3.906597
sI3
F3.854057
sI4
F-3.081216
sI5
F-3.289342
sI6
F3.066463
sI7
F2.524042
sI8
F4.295309
sI9
F3.179127
sI10
F3.017292
sI11
F-1.259309
sI12
F3.802024
sI13
F-3.861106
sI14
F-2.475147
ssg148
(dp360
I0
F1.5083933379705248
sI1
Fnan
sI2
Fnan
sI3
Fnan
sI4
Fnan
sI5
Fnan
sI6
Fnan
sI7
Fnan
sI8
Fnan
sI9
Fnan
sI10
Fnan
sI11
Fnan
sI12
Fnan
sI13
Fnan
sI14
Fnan
ssg150
(dp361
I0
F2458353.668125
sI1
Fnan
sI2
Fnan
sI3
Fnan
sI4
Fnan
sI5
Fnan
sI6
Fnan
sI7
Fnan
sI8
Fnan
sI9
Fnan
sI10
Fnan
sI11
Fnan
sI12
Fnan
sI13
Fnan
sI14
Fnan
ssg152
(dp362
I0
F0.004575316542614999
sI1
Fnan
sI2
Fnan
sI3
Fnan
sI4
Fnan
sI5
Fnan
sI6
Fnan
sI7
Fnan
sI8
Fnan
sI9
Fnan
sI10
Fnan
sI11
Fnan
sI12
Fnan
sI13
Fnan
sI14
Fnan
ssg154
(dp363
I0
F15.76809
sI1
F16.99102
sI2
F14.31065
sI3
F17.07261
sI4
F14.89956
sI5
F15.98997
sI6
F15.60199
sI7
F15.78917
sI8
F14.39451
sI9
F15.03978
sI10
F15.25638
sI11
F17.33185
sI12
F15.22452
sI13
F18.27406
sI14
F15.10862
ssg156
(dp364
I0
F11.985
sI1
F12.0
sI2
F11.995
sI3
F12.021
sI4
F11.986
sI5
F11.984
sI6
F12.027
sI7
F12.021
sI8
F11.984
sI9
F12.025
sI10
F11.947
sI11
F12.055
sI12
F12.117
sI13
F12.12
sI14
F11.974
ssg158
(dp365
I0
F0.36873687817418077
sI1
Fnan
sI2
Fnan
sI3
Fnan
sI4
Fnan
sI5
Fnan
sI6
Fnan
sI7
Fnan
sI8
Fnan
sI9
Fnan
sI10
Fnan
sI11
Fnan
sI12
Fnan
sI13
Fnan
sI14
Fnan
sssS'g'
p366
(dp367
g3
(dp368
I0
F0.8703903841208103
sI1
Fnan
sI2
Fnan
sI3
Fnan
sI4
Fnan
sI5
Fnan
sI6
Fnan
sI7
Fnan
sI8
Fnan
sI9
Fnan
sI10
Fnan
sI11
Fnan
sI12
Fnan
sI13
Fnan
sI14
Fnan
ssg5
(dp369
I0
S'NoError'
p370
sI1
S'NoError'
p371
sI2
S'NoError'
p372
sI3
S'NoError'
p373
sI4
S'NoError'
p374
sI5
S'NoError'
p375
sI6
S'NoError'
p376
sI7
S'NoError'
p377
sI8
S'NoError'
p378
sI9
S'NoError'
p379
sI10
S'NoError'
p380
sI11
S'NoError'
p381
sI12
S'NoError'
p382
sI13
S'NoError'
p383
sI14
S'NoError'
p384
ssg22
(dp385
I0
F0.003
sI1
F0.002
sI2
F0.002
sI3
F0.003
sI4
F0.003
sI5
F0.002
sI6
F0.003
sI7
F0.003
sI8
F0.003
sI9
F0.003
sI10
F0.003
sI11
F0.002
sI12
F0.003
sI13
F0.002
sI14
F0.003
ssg24
(dp386
I0
F0.8797487735325453
sI1
F0.8799570848446489
sI2
F0.8843233071179175
sI3
F0.8877375948948211
sI4
F0.8815793346989502
sI5
F0.8869440289516396
sI6
F0.8751129558789296
sI7
F0.8712354479615936
sI8
F0.8883159658217289
sI9
F0.8865675876511517
sI10
F0.8823313305385706
sI11
F0.8873095732627599
sI12
F0.87870448811212
sI13
F0.8725238106765716
sI14
F0.8808193318127439
ssg26
(dp387
I0
F0.0055001411226894914
sI1
Fnan
sI2
Fnan
sI3
Fnan
sI4
Fnan
sI5
Fnan
sI6
Fnan
sI7
Fnan
sI8
Fnan
sI9
Fnan
sI10
Fnan
sI11
Fnan
sI12
Fnan
sI13
Fnan
sI14
Fnan
ssg28
(dp388
I0
F0.8815473743837796
sI1
Fnan
sI2
Fnan
sI3
Fnan
sI4
Fnan
sI5
Fnan
sI6
Fnan
sI7
Fnan
sI8
Fnan
sI9
Fnan
sI10
Fnan
sI11
Fnan
sI12
Fnan
sI13
Fnan
sI14
Fnan
ssg30
(dp389
I0
F11.538
sI1
F11.472
sI2
F11.468
sI3
F11.599
sI4
F11.499
sI5
F11.47
sI6
F11.542
sI7
F11.508
sI8
F11.535
sI9
F11.52
sI10
F11.483
sI11
F11.453
sI12
F11.549
sI13
F11.461
sI14
F11.54
ssg32
(dp390
I0
F61.74161
sI1
F58.264
sI2
F58.72379
sI3
F63.64854
sI4
F179.3328
sI5
F59.36216
sI6
F62.68996
sI7
F59.49877
sI8
F231.8447
sI9
F265.5237
sI10
F158.6572
sI11
F55.93192
sI12
F62.33634
sI13
F57.90365
sI14
F204.7267
ssg34
(dp391
I0
F2458353.6573032406
sI1
F2458353.674699074
sI2
F2458353.6763078705
sI3
F2458353.6556944447
sI4
F2458353.637395833
sI5
F2458353.6580671296
sI6
F2458353.6549421297
sI7
F2458353.675462963
sI8
F2458353.6358564813
sI9
F2458353.6350810183
sI10
F2458353.638159722
sI11
F2458353.6778587964
sI12
F2458353.656458333
sI13
F2458353.6770833335
sI14
F2458353.636608796
ssg36
(dp392
I0
F3.4975466
sI1
Fnan
sI2
Fnan
sI3
Fnan
sI4
Fnan
sI5
Fnan
sI6
Fnan
sI7
Fnan
sI8
Fnan
sI9
Fnan
sI10
Fnan
sI11
Fnan
sI12
Fnan
sI13
Fnan
sI14
Fnan
ssg38
(dp393
I0
F3.0860136
sI1
Fnan
sI2
Fnan
sI3
Fnan
sI4
Fnan
sI5
Fnan
sI6
Fnan
sI7
Fnan
sI8
Fnan
sI9
Fnan
sI10
Fnan
sI11
Fnan
sI12
Fnan
sI13
Fnan
sI14
Fnan
ssg40
(dp394
I0
F0.8680175117320599
sI1
F0.871523842183022
sI2
F0.8699495062135906
sI3
F0.87119545246272
sI4
F0.8728672972495095
sI5
F0.8754832456831854
sI6
F0.8708025973392589
sI7
F0.8593336680713982
sI8
F0.8736382874320046
sI9
F0.8698535403579605
sI10
F0.8708937477322904
sI11
F0.8702578187529149
sI12
F0.8681148180603672
sI13
F0.8624773283716513
sI14
F0.8610479629064193
ssg42
(dp395
I0
F0.0030242951375340204
sI1
Fnan
sI2
Fnan
sI3
Fnan
sI4
Fnan
sI5
Fnan
sI6
Fnan
sI7
Fnan
sI8
Fnan
sI9
Fnan
sI10
Fnan
sI11
Fnan
sI12
Fnan
sI13
Fnan
sI14
Fnan
ssg44
(dp396
I0
F2.7020036
sI1
Fnan
sI2
Fnan
sI3
Fnan
sI4
Fnan
sI5
Fnan
sI6
Fnan
sI7
Fnan
sI8
Fnan
sI9
Fnan
sI10
Fnan
sI11
Fnan
sI12
Fnan
sI13
Fnan
sI14
Fnan
ssg46
(dp397
I0
g370
sI1
g371
sI2
g372
sI3
g373
sI4
g374
sI5
g375
sI6
g376
sI7
g377
sI8
g378
sI9
g379
sI10
g380
sI11
g381
sI12
g382
sI13
g383
sI14
g384
ssg48
(dp398
I0
F0.004539356747212305
sI1
Fnan
sI2
Fnan
sI3
Fnan
sI4
Fnan
sI5
Fnan
sI6
Fnan
sI7
Fnan
sI8
Fnan
sI9
Fnan
sI10
Fnan
sI11
Fnan
sI12
Fnan
sI13
Fnan
sI14
Fnan
ssg50
(dp399
I0
F0.041155107303260254
sI1
Fnan
sI2
Fnan
sI3
Fnan
sI4
Fnan
sI5
Fnan
sI6
Fnan
sI7
Fnan
sI8
Fnan
sI9
Fnan
sI10
Fnan
sI11
Fnan
sI12
Fnan
sI13
Fnan
sI14
Fnan
ssg52
(dp400
I0
F1.3418198666666663
sI1
Fnan
sI2
Fnan
sI3
Fnan
sI4
Fnan
sI5
Fnan
sI6
Fnan
sI7
Fnan
sI8
Fnan
sI9
Fnan
sI10
Fnan
sI11
Fnan
sI12
Fnan
sI13
Fnan
sI14
Fnan
ssg54
(dp401
I0
F1.5123903393896716
sI1
F1.5181479081677887
sI2
F1.5084851067869898
sI3
F1.513705836094377
sI4
F1.505539166744751
sI5
F1.4913622060974328
sI6
F1.5298594895536304
sI7
F1.529006700296766
sI8
F1.4879431334380466
sI9
F1.5049613452271096
sI10
F1.5031108641395023
sI11
F1.4929934549193697
sI12
F1.5235692896907482
sI13
F1.5235410814393684
sI14
F1.512812028237797
ssg56
(dp402
I0
g370
sI1
g371
sI2
g372
sI3
g373
sI4
g374
sI5
g375
sI6
g376
sI7
g377
sI8
g378
sI9
g379
sI10
g380
sI11
g381
sI12
g382
sI13
g383
sI14
g384
ssg58
(dp403
I0
F60.80247
sI1
F58.35983
sI2
F58.31435
sI3
F64.05801
sI4
F179.5553
sI5
F59.52283
sI6
F63.08345
sI7
F60.00252
sI8
F232.3464
sI9
F269.8574
sI10
F159.0975
sI11
F57.1181
sI12
F61.78051
sI13
F57.86034
sI14
F204.2554
ssg60
(dp404
I0
F11.079533333333332
sI1
Fnan
sI2
Fnan
sI3
Fnan
sI4
Fnan
sI5
Fnan
sI6
Fnan
sI7
Fnan
sI8
Fnan
sI9
Fnan
sI10
Fnan
sI11
Fnan
sI12
Fnan
sI13
Fnan
sI14
Fnan
ssg62
(dp405
I0
F0.716666012285523
sI1
Fnan
sI2
Fnan
sI3
Fnan
sI4
Fnan
sI5
Fnan
sI6
Fnan
sI7
Fnan
sI8
Fnan
sI9
Fnan
sI10
Fnan
sI11
Fnan
sI12
Fnan
sI13
Fnan
sI14
Fnan
ssg64
(dp406
I0
F4.507504
sI1
F4.519819
sI2
F4.370975
sI3
F6.424524
sI4
F4.781618
sI5
F-2.434204
sI6
F2.81013
sI7
F3.913449
sI8
F-2.275006
sI9
F5.99955
sI10
F4.250676
sI11
F4.669903
sI12
F6.343233
sI13
F5.599355
sI14
F-7.191322
ssg66
(dp407
I0
F11.4498
sI1
Fnan
sI2
Fnan
sI3
Fnan
sI4
Fnan
sI5
Fnan
sI6
Fnan
sI7
Fnan
sI8
Fnan
sI9
Fnan
sI10
Fnan
sI11
Fnan
sI12
Fnan
sI13
Fnan
sI14
Fnan
ssg68
(dp408
I0
g370
sI1
g371
sI2
g372
sI3
g373
sI4
g374
sI5
g375
sI6
g376
sI7
g377
sI8
g378
sI9
g379
sI10
g380
sI11
g381
sI12
g382
sI13
g383
sI14
g384
ssg70
(dp409
I0
F6435.403333333334
sI1
F6810.253333333333
sI2
F6873.463333333333
sI3
F6098.656666666667
sI4
F6638.446666666667
sI5
F6828.009999999999
sI6
F6365.77
sI7
F6637.5
sI8
F6449.496666666667
sI9
F6561.929999999999
sI10
F6760.73
sI11
F6980.446666666667
sI12
F6361.703333333334
sI13
F6908.2
sI14
F6475.503333333333
ssg72
(dp410
I0
F1.073117
sI1
F1.0448540000000002
sI2
F1.042633
sI3
F1.076142
sI4
F1.1162809999999999
sI5
F1.071692
sI6
F1.077619
sI7
F1.043796
sI8
F1.120161
sI9
F1.122113
sI10
F1.114388
sI11
F1.0405659999999999
sI12
F1.0746719999999998
sI13
F1.041605
sI14
F1.1182219999999998
ssg74
(dp411
I0
F5559.5599999999995
sI1
F5860.536666666667
sI2
F5906.183333333333
sI3
F5193.37
sI4
F5741.2733333333335
sI5
F5903.25
sI6
F5484.12
sI7
F5759.463333333333
sI8
F5574.91
sI9
F5629.320000000001
sI10
F5848.306666666667
sI11
F6025.25
sI12
F5468.026666666667
sI13
F6001.076666666666
sI14
F5582.566666666667
ssg76
(dp412
I0
F9070.533333333333
sI1
F9618.066666666668
sI2
F9638.953333333333
sI3
F8546.403333333334
sI4
F9319.076666666666
sI5
F9493.46
sI6
F9064.333333333334
sI7
F9477.519999999999
sI8
F8945.816666666668
sI9
F9173.68
sI10
F9476.390000000001
sI11
F9708.71
sI12
F9011.706666666667
sI13
F9833.906666666668
sI14
F9120.796666666667
ssg78
(dp413
I0
F59.66658
sI1
F56.55366
sI2
F57.57573
sI3
F63.55256
sI4
F177.9836
sI5
F57.68397
sI6
F62.95574
sI7
F57.73831
sI8
F229.5076
sI9
F266.7069
sI10
F158.9852
sI11
F56.17767
sI12
F60.84896
sI13
F56.91514
sI14
F203.2085
ssg80
(dp414
I0
F11.637
sI1
F11.58
sI2
F11.572
sI3
F11.711
sI4
F11.602
sI5
F11.572
sI6
F11.652
sI7
F11.599
sI8
F11.634
sI9
F11.624
sI10
F11.582
sI11
F11.55
sI12
F11.655
sI13
F11.554
sI14
F11.633
ssg82
(dp415
I0
F0.002
sI1
F0.002
sI2
F0.002
sI3
F0.002
sI4
F0.002
sI5
F0.002
sI6
F0.002
sI7
F0.002
sI8
F0.002
sI9
F0.002
sI10
F0.002
sI11
F0.002
sI12
F0.002
sI13
F0.002
sI14
F0.002
ssg84
(dp416
I0
F0.8690304416365568
sI1
Fnan
sI2
Fnan
sI3
Fnan
sI4
Fnan
sI5
Fnan
sI6
Fnan
sI7
Fnan
sI8
Fnan
sI9
Fnan
sI10
Fnan
sI11
Fnan
sI12
Fnan
sI13
Fnan
sI14
Fnan
ssg86
(dp417
I0
F11.610466666666667
sI1
Fnan
sI2
Fnan
sI3
Fnan
sI4
Fnan
sI5
Fnan
sI6
Fnan
sI7
Fnan
sI8
Fnan
sI9
Fnan
sI10
Fnan
sI11
Fnan
sI12
Fnan
sI13
Fnan
sI14
Fnan
ssg88
(dp418
I0
F11.479
sI1
F11.417
sI2
F11.407
sI3
F11.537
sI4
F11.445
sI5
F11.414
sI6
F11.49
sI7
F11.445
sI8
F11.476
sI9
F11.457
sI10
F11.425
sI11
F11.39
sI12
F11.491
sI13
F11.402
sI14
F11.472
ssg90
(dp419
I0
F3.827692
sI1
F-3.774147
sI2
F1.932464
sI3
F5.932224
sI4
F5.955144
sI5
F2.639452
sI6
F3.577798
sI7
F2.352412
sI8
F7.632828
sI9
F4.766706
sI10
F3.937386
sI11
F5.37235
sI12
F5.743527
sI13
F-2.177049
sI14
F4.744412
ssg92
(dp420
I0
F0.04122562772053776
sI1
Fnan
sI2
Fnan
sI3
Fnan
sI4
Fnan
sI5
Fnan
sI6
Fnan
sI7
Fnan
sI8
Fnan
sI9
Fnan
sI10
Fnan
sI11
Fnan
sI12
Fnan
sI13
Fnan
sI14
Fnan
ssg94
(dp421
I0
F0.7170879282580155
sI1
F0.713467556836812
sI2
F0.7153626816183782
sI3
F0.709231645346622
sI4
F0.7195694737090572
sI5
F0.7233723432999603
sI6
F0.7108338656621656
sI7
F0.71479443814942
sI8
F0.7242346913368006
sI9
F0.7154879918859199
sI10
F0.7203625601912983
sI11
F0.7220556580949666
sI12
F0.7113615868784696
sI13
F0.7168842949274403
sI14
F0.7158834680875165
ssg96
(dp422
I0
F30.0
sI1
F30.0
sI2
F30.0
sI3
F30.0
sI4
F30.0
sI5
F30.0
sI6
F30.0
sI7
F30.0
sI8
F30.0
sI9
F30.0
sI10
F30.0
sI11
F30.0
sI12
F30.0
sI13
F30.0
sI14
F30.0
ssg98
(dp423
I0
F0.003
sI1
F0.003
sI2
F0.003
sI3
F0.003
sI4
F0.003
sI5
F0.003
sI6
F0.003
sI7
F0.003
sI8
F0.003
sI9
F0.003
sI10
F0.003
sI11
F0.003
sI12
F0.003
sI13
F0.003
sI14
F0.003
ssg100
(dp424
I0
F0.002
sI1
F0.002
sI2
F0.002
sI3
F0.003
sI4
F0.003
sI5
F0.002
sI6
F0.002
sI7
F0.002
sI8
F0.003
sI9
F0.003
sI10
F0.003
sI11
F0.002
sI12
F0.003
sI13
F0.002
sI14
F0.003
ssg102
(dp425
I0
F3.56058
sI1
F-4.40984
sI2
F-2.700142
sI3
F5.19502
sI4
F2.890338
sI5
F2.972591
sI6
F-1.592524
sI7
F1.28654
sI8
F7.552826
sI9
F-7.174426
sI10
F-3.10889
sI11
F4.779627
sI12
F5.727435
sI13
F2.654422
sI14
F2.493741
ssg104
(dp426
I0
S"KIC8462852-20180823at034631_-25-1X1-030-g'_cal.fts.mag.1"
p427
sI1
S"KIC8462852-20180823at041129_-25-1X1-030-g'_cal.fts.mag.1"
p428
sI2
S"KIC8462852-20180823at041353_-25-1X1-030-g'_cal.fts.mag.1"
p429
sI3
S"KIC8462852-20180823at034412_-25-1X1-030-g'_cal.fts.mag.1"
p430
sI4
S"KIC8462852-20180823at031751_-25-1X1-030-g'_cal.fts.mag.1"
p431
sI5
S"KIC8462852-20180823at034737_-25-1X1-030-g'_cal.fts.mag.1"
p432
sI6
S"KIC8462852-20180823at034301_-25-1X1-030-g'_cal.fts.mag.1"
p433
sI7
S"KIC8462852-20180823at041240_-25-1X1-030-g'_cal.fts.mag.1"
p434
sI8
S"KIC8462852-20180823at031538_-25-1X1-030-g'_cal.fts.mag.1"
p435
sI9
S"KIC8462852-20180823at031419_-25-1X1-030-g'_cal.fts.mag.1"
p436
sI10
S"KIC8462852-20180823at031857_-25-1X1-030-g'_cal.fts.mag.1"
p437
sI11
S"KIC8462852-20180823at041607_-25-1X1-030-g'_cal.fts.mag.1"
p438
sI12
S"KIC8462852-20180823at034518_-25-1X1-030-g'_cal.fts.mag.1"
p439
sI13
S"KIC8462852-20180823at041459_-25-1X1-030-g'_cal.fts.mag.1"
p440
sI14
S"KIC8462852-20180823at031643_-25-1X1-030-g'_cal.fts.mag.1"
p441
ssg121
(dp442
I0
F0.01317828982402831
sI1
Fnan
sI2
Fnan
sI3
Fnan
sI4
Fnan
sI5
Fnan
sI6
Fnan
sI7
Fnan
sI8
Fnan
sI9
Fnan
sI10
Fnan
sI11
Fnan
sI12
Fnan
sI13
Fnan
sI14
Fnan
ssg123
(dp443
I0
F6095.073333333334
sI1
F6475.09
sI2
F6501.016666666666
sI3
F5761.05
sI4
F6313.39
sI5
F6485.79
sI6
F6070.72
sI7
F6265.826666666666
sI8
F6106.796666666666
sI9
F6194.786666666667
sI10
F6411.3533333333335
sI11
F6589.13
sI12
F6030.92
sI13
F6538.493333333333
sI14
F6078.673333333334
ssg125
(dp444
I0
F0.04432810567101809
sI1
Fnan
sI2
Fnan
sI3
Fnan
sI4
Fnan
sI5
Fnan
sI6
Fnan
sI7
Fnan
sI8
Fnan
sI9
Fnan
sI10
Fnan
sI11
Fnan
sI12
Fnan
sI13
Fnan
sI14
Fnan
ssg127
(dp445
I0
S"g'"
p446
sI1
S"g'"
p447
sI2
S"g'"
p448
sI3
S"g'"
p449
sI4
S"g'"
p450
sI5
S"g'"
p451
sI6
S"g'"
p452
sI7
S"g'"
p453
sI8
S"g'"
p454
sI9
S"g'"
p455
sI10
S"g'"
p456
sI11
S"g'"
p457
sI12
S"g'"
p458
sI13
S"g'"
p459
sI14
S"g'"
p460
ssg144
(dp461
I0
F0.004634442827993172
sI1
Fnan
sI2
Fnan
sI3
Fnan
sI4
Fnan
sI5
Fnan
sI6
Fnan
sI7
Fnan
sI8
Fnan
sI9
Fnan
sI10
Fnan
sI11
Fnan
sI12
Fnan
sI13
Fnan
sI14
Fnan
ssg146
(dp462
I0
F-5.661281
sI1
F-4.404668
sI2
F3.138669
sI3
F-3.533205
sI4
F7.324603
sI5
F5.636086
sI6
F2.861664
sI7
F-2.498805
sI8
F8.151848
sI9
F8.874989
sI10
F3.740974
sI11
F4.778937
sI12
F5.079125
sI13
F3.945593
sI14
F3.095525
ssg148
(dp463
I0
F1.5104951966815563
sI1
Fnan
sI2
Fnan
sI3
Fnan
sI4
Fnan
sI5
Fnan
sI6
Fnan
sI7
Fnan
sI8
Fnan
sI9
Fnan
sI10
Fnan
sI11
Fnan
sI12
Fnan
sI13
Fnan
sI14
Fnan
ssg150
(dp464
I0
F2458353.656458333
sI1
Fnan
sI2
Fnan
sI3
Fnan
sI4
Fnan
sI5
Fnan
sI6
Fnan
sI7
Fnan
sI8
Fnan
sI9
Fnan
sI10
Fnan
sI11
Fnan
sI12
Fnan
sI13
Fnan
sI14
Fnan
ssg152
(dp465
I0
F0.004634442827993172
sI1
Fnan
sI2
Fnan
sI3
Fnan
sI4
Fnan
sI5
Fnan
sI6
Fnan
sI7
Fnan
sI8
Fnan
sI9
Fnan
sI10
Fnan
sI11
Fnan
sI12
Fnan
sI13
Fnan
sI14
Fnan
ssg154
(dp466
I0
F63.32663
sI1
F60.37872
sI2
F60.77667
sI3
F66.55956
sI4
F180.701
sI5
F62.36706
sI6
F64.82932
sI7
F61.81331
sI8
F235.9247
sI9
F270.2137
sI10
F159.535
sI11
F59.13716
sI12
F62.51701
sI13
F58.38536
sI14
F206.5159
ssg156
(dp467
I0
F11.106
sI1
F11.042
sI2
F11.04
sI3
F11.171
sI4
F11.077
sI5
F11.056
sI6
F11.107
sI7
F11.058
sI8
F11.121
sI9
F11.094
sI10
F11.058
sI11
F11.032
sI12
F11.113
sI13
F11.018
sI14
F11.1
ssg158
(dp468
I0
F0.8690304416365568
sI1
Fnan
sI2
Fnan
sI3
Fnan
sI4
Fnan
sI5
Fnan
sI6
Fnan
sI7
Fnan
sI8
Fnan
sI9
Fnan
sI10
Fnan
sI11
Fnan
sI12
Fnan
sI13
Fnan
sI14
Fnan
sssS'V'
p469
(dp470
g3
(dp471
I0
F0.6929655518175706
sI1
Fnan
sI2
Fnan
sI3
Fnan
sI4
Fnan
sI5
Fnan
sI6
Fnan
sI7
Fnan
sI8
Fnan
sI9
Fnan
sI10
Fnan
sI11
Fnan
sI12
Fnan
sI13
Fnan
sI14
Fnan
ssg5
(dp472
I0
S'NoError'
p473
sI1
S'NoError'
p474
sI2
S'NoError'
p475
sI3
S'NoError'
p476
sI4
S'NoError'
p477
sI5
S'NoError'
p478
sI6
S'NoError'
p479
sI7
S'NoError'
p480
sI8
S'NoError'
p481
sI9
S'NoError'
p482
sI10
S'NoError'
p483
sI11
S'NoError'
p484
sI12
S'NoError'
p485
sI13
S'NoError'
p486
sI14
S'NoError'
p487
ssg22
(dp488
I0
F0.002
sI1
F0.002
sI2
F0.002
sI3
F0.002
sI4
F0.002
sI5
F0.003
sI6
F0.003
sI7
F0.003
sI8
F0.003
sI9
F0.003
sI10
F0.002
sI11
F0.002
sI12
F0.003
sI13
F0.003
sI14
F0.003
ssg24
(dp489
I0
F0.8918762226749084
sI1
F0.8753758262700627
sI2
F0.8817802833607477
sI3
F0.8866413952169575
sI4
F0.8858469924379104
sI5
F0.8850323839623484
sI6
F0.8807264280087
sI7
F0.8791013822168916
sI8
F0.8839166200265263
sI9
F0.8883487387980346
sI10
F0.8940378026600866
sI11
F0.8872434006015232
sI12
F0.88719961231464
sI13
F0.8835362477092089
sI14
F0.8918930672224921
ssg26
(dp490
I0
F0.0050464597076511275
sI1
Fnan
sI2
Fnan
sI3
Fnan
sI4
Fnan
sI5
Fnan
sI6
Fnan
sI7
Fnan
sI8
Fnan
sI9
Fnan
sI10
Fnan
sI11
Fnan
sI12
Fnan
sI13
Fnan
sI14
Fnan
ssg28
(dp491
I0
F0.8855037602320692
sI1
Fnan
sI2
Fnan
sI3
Fnan
sI4
Fnan
sI5
Fnan
sI6
Fnan
sI7
Fnan
sI8
Fnan
sI9
Fnan
sI10
Fnan
sI11
Fnan
sI12
Fnan
sI13
Fnan
sI14
Fnan
ssg30
(dp492
I0
F11.491
sI1
F11.489
sI2
F11.47
sI3
F11.483
sI4
F11.493
sI5
F11.543
sI6
F11.524
sI7
F11.598
sI8
F11.528
sI9
F11.482
sI10
F11.456
sI11
F11.475
sI12
F11.584
sI13
F11.532
sI14
F11.527
ssg32
(dp493
I0
F52.48907
sI1
F50.85213
sI2
F51.69481
sI3
F52.79501
sI4
F51.77943
sI5
F51.42811
sI6
F52.97077
sI7
F55.60786
sI8
F50.63253
sI9
F52.71609
sI10
F48.67707
sI11
F52.63554
sI12
F55.68292
sI13
F53.98291
sI14
F54.22468
ssg34
(dp494
I0
F2458353.650729167
sI1
F2458353.670509259
sI2
F2458353.653125
sI3
F2458353.6523379628
sI4
F2458353.6720949076
sI5
F2458353.67130787
sI6
F2458353.691076389
sI7
F2458353.692673611
sI8
F2458353.6736921296
sI9
F2458353.651516204
sI10
F2458353.6728935186
sI11
F2458353.653912037
sI12
F2458353.693460648
sI13
F2458353.691875
sI14
F2458353.6902893516
ssg36
(dp495
I0
F2.6647534
sI1
Fnan
sI2
Fnan
sI3
Fnan
sI4
Fnan
sI5
Fnan
sI6
Fnan
sI7
Fnan
sI8
Fnan
sI9
Fnan
sI10
Fnan
sI11
Fnan
sI12
Fnan
sI13
Fnan
sI14
Fnan
ssg38
(dp496
I0
F2.6459636666666664
sI1
Fnan
sI2
Fnan
sI3
Fnan
sI4
Fnan
sI5
Fnan
sI6
Fnan
sI7
Fnan
sI8
Fnan
sI9
Fnan
sI10
Fnan
sI11
Fnan
sI12
Fnan
sI13
Fnan
sI14
Fnan
ssg40
(dp497
I0
F0.6895416102436259
sI1
F0.6936141350359984
sI2
F0.6971727207452191
sI3
F0.6927704615136328
sI4
F0.6912389452014774
sI5
F0.6815345769975335
sI6
F0.6910978844319217
sI7
F0.6967611881638912
sI8
F0.690864969342557
sI9
F0.6954298291274748
sI10
F0.6939547807273869
sI11
F0.6908629078803075
sI12
F0.6922242351813105
sI13
F0.6930185060336148
sI14
F0.6855163936211714
ssg42
(dp498
I0
F0.002273521888556625
sI1
Fnan
sI2
Fnan
sI3
Fnan
sI4
Fnan
sI5
Fnan
sI6
Fnan
sI7
Fnan
sI8
Fnan
sI9
Fnan
sI10
Fnan
sI11
Fnan
sI12
Fnan
sI13
Fnan
sI14
Fnan
ssg44
(dp499
I0
F3.0361086666666677
sI1
Fnan
sI2
Fnan
sI3
Fnan
sI4
Fnan
sI5
Fnan
sI6
Fnan
sI7
Fnan
sI8
Fnan
sI9
Fnan
sI10
Fnan
sI11
Fnan
sI12
Fnan
sI13
Fnan
sI14
Fnan
ssg46
(dp500
I0
g473
sI1
g474
sI2
g475
sI3
g476
sI4
g477
sI5
g478
sI6
g479
sI7
g480
sI8
g481
sI9
g482
sI10
g483
sI11
g484
sI12
g485
sI13
g486
sI14
g487
ssg48
(dp501
I0
F0.005133910432368903
sI1
Fnan
sI2
Fnan
sI3
Fnan
sI4
Fnan
sI5
Fnan
sI6
Fnan
sI7
Fnan
sI8
Fnan
sI9
Fnan
sI10
Fnan
sI11
Fnan
sI12
Fnan
sI13
Fnan
sI14
Fnan
ssg50
(dp502
I0
F0.042258501539701544
sI1
Fnan
sI2
Fnan
sI3
Fnan
sI4
Fnan
sI5
Fnan
sI6
Fnan
sI7
Fnan
sI8
Fnan
sI9
Fnan
sI10
Fnan
sI11
Fnan
sI12
Fnan
sI13
Fnan
sI14
Fnan
ssg52
(dp503
I0
F2.250635266666667
sI1
Fnan
sI2
Fnan
sI3
Fnan
sI4
Fnan
sI5
Fnan
sI6
Fnan
sI7
Fnan
sI8
Fnan
sI9
Fnan
sI10
Fnan
sI11
Fnan
sI12
Fnan
sI13
Fnan
sI14
Fnan
ssg54
(dp504
I0
F1.5036132854122015
sI1
F1.5192348046086406
sI2
F1.5111462532100466
sI3
F1.5104336618826266
sI4
F1.5024790325705895
sI5
F1.5066362945291387
sI6
F1.5170916964192962
sI7
F1.4895268750370323
sI8
F1.501199136123853
sI9
F1.5085220923812137
sI10
F1.4937104461606443
sI11
F1.4948847180796765
sI12
F1.4928514071009646
sI13
F1.5061326823169905
sI14
F1.4995061328960535
ssg56
(dp505
I0
g473
sI1
g474
sI2
g475
sI3
g476
sI4
g477
sI5
g478
sI6
g479
sI7
g480
sI8
g481
sI9
g482
sI10
g483
sI11
g484
sI12
g485
sI13
g486
sI14
g487
ssg58
(dp506
I0
F53.98049
sI1
F51.76757
sI2
F54.43118
sI3
F54.2093
sI4
F50.50434
sI5
F52.05377
sI6
F54.81062
sI7
F58.54182
sI8
F51.78038
sI9
F53.17908
sI10
F49.05044
sI11
F53.8493
sI12
F57.10787
sI13
F54.89225
sI14
F52.52483
ssg60
(dp507
I0
F10.836866666666667
sI1
Fnan
sI2
Fnan
sI3
Fnan
sI4
Fnan
sI5
Fnan
sI6
Fnan
sI7
Fnan
sI8
Fnan
sI9
Fnan
sI10
Fnan
sI11
Fnan
sI12
Fnan
sI13
Fnan
sI14
Fnan
ssg62
(dp508
I0
F0.7171580759787379
sI1
Fnan
sI2
Fnan
sI3
Fnan
sI4
Fnan
sI5
Fnan
sI6
Fnan
sI7
Fnan
sI8
Fnan
sI9
Fnan
sI10
Fnan
sI11
Fnan
sI12
Fnan
sI13
Fnan
sI14
Fnan
ssg64
(dp509
I0
F-2.719509
sI1
F2.836042
sI2
F2.349355
sI3
F-4.506898
sI4
F5.343945
sI5
F5.292818
sI6
F4.64222
sI7
F4.414264
sI8
F5.997911
sI9
F4.289844
sI10
F-1.138178
sI11
F3.043654
sI12
F2.327735
sI13
F3.510169
sI14
F4.006083
ssg66
(dp510
I0
F11.201066666666666
sI1
Fnan
sI2
Fnan
sI3
Fnan
sI4
Fnan
sI5
Fnan
sI6
Fnan
sI7
Fnan
sI8
Fnan
sI9
Fnan
sI10
Fnan
sI11
Fnan
sI12
Fnan
sI13
Fnan
sI14
Fnan
ssg68
(dp511
I0
g473
sI1
g474
sI2
g475
sI3
g476
sI4
g477
sI5
g478
sI6
g479
sI7
g480
sI8
g481
sI9
g482
sI10
g483
sI11
g484
sI12
g485
sI13
g486
sI14
g487
ssg70
(dp512
I0
F8535.286666666667
sI1
F8390.47
sI2
F8544.246666666666
sI3
F8526.363333333333
sI4
F8461.640000000001
sI5
F8186.276666666667
sI6
F8194.416666666666
sI7
F7582.596666666666
sI8
F8186.1433333333325
sI9
F8514.326666666666
sI10
F8772.936666666666
sI11
F8612.983333333334
sI12
F7774.636666666667
sI13
F8129.23
sI14
F8306.27
ssg72
(dp513
I0
F1.086025
sI1
F1.0509
sI2
F1.081161
sI3
F1.08274
sI4
F1.048548
sI5
F1.049721
sI6
F1.025448
sI7
F1.023916
sI8
F1.046239
sI9
F1.0843459999999998
sI10
F1.047382
sI11
F1.079624
sI12
F1.023181
sI13
F1.0246709999999999
sI14
F1.026242
ssg74
(dp514
I0
F7262.8933333333325
sI1
F7272.283333333334
sI2
F7361.546666666666
sI3
F7288.953333333334
sI4
F7279.043333333333
sI5
F7033.8133333333335
sI6
F7047.0
sI7
F6650.5
sI8
F7070.673333333334
sI9
F7266.2266666666665
sI10
F7483.913333333333
sI11
F7426.536666666667
sI12
F6712.596666666666
sI13
F7004.713333333333
sI14
F7085.86
ssg76
(dp515
I0
F11877.176666666666
sI1
F11897.7
sI2
F12017.99
sI3
F11943.993333333334
sI4
F11825.023333333334
sI5
F11465.57
sI6
F11561.313333333334
sI7
F10600.29
sI8
F11451.76
sI9
F11902.656666666668
sI10
F12141.513333333334
sI11
F11988.616666666667
sI12
F10813.643333333333
sI13
F11396.863333333335
sI14
F11540.296666666667
ssg78
(dp516
I0
F53.61376
sI1
F50.84141
sI2
F52.9654
sI3
F53.12579
sI4
F50.09084
sI5
F50.8124
sI6
F53.21535
sI7
F55.89688
sI8
F51.49634
sI9
F54.62683
sI10
F49.53429
sI11
F52.96058
sI12
F57.33359
sI13
F54.96265
sI14
F53.09455
ssg80
(dp517
I0
F11.347
sI1
F11.346
sI2
F11.333
sI3
F11.343
sI4
F11.345
sI5
F11.382
sI6
F11.38
sI7
F11.443
sI8
F11.376
sI9
F11.347
sI10
F11.315
sI11
F11.323
sI12
F11.433
sI13
F11.387
sI14
F11.374
ssg82
(dp518
I0
F0.002
sI1
F0.002
sI2
F0.002
sI3
F0.002
sI4
F0.002
sI5
F0.002
sI6
F0.002
sI7
F0.002
sI8
F0.002
sI9
F0.002
sI10
F0.002
sI11
F0.002
sI12
F0.002
sI13
F0.002
sI14
F0.002
ssg84
(dp519
I0
F0.6917068762831415
sI1
Fnan
sI2
Fnan
sI3
Fnan
sI4
Fnan
sI5
Fnan
sI6
Fnan
sI7
Fnan
sI8
Fnan
sI9
Fnan
sI10
Fnan
sI11
Fnan
sI12
Fnan
sI13
Fnan
sI14
Fnan
ssg86
(dp520
I0
F11.364933333333333
sI1
Fnan
sI2
Fnan
sI3
Fnan
sI4
Fnan
sI5
Fnan
sI6
Fnan
sI7
Fnan
sI8
Fnan
sI9
Fnan
sI10
Fnan
sI11
Fnan
sI12
Fnan
sI13
Fnan
sI14
Fnan
ssg88
(dp521
I0
F11.172
sI1
F11.191
sI2
F11.171
sI3
F11.173
sI4
F11.181
sI5
F11.217
sI6
F11.216
sI7
F11.3
sI8
F11.217
sI9
F11.175
sI10
F11.142
sI11
F11.162
sI12
F11.273
sI13
F11.225
sI14
F11.201
ssg90
(dp522
I0
F-3.364297
sI1
F4.640367
sI2
F4.99836
sI3
F-3.575475
sI4
F-3.813713
sI5
F4.853936
sI6
F4.66191
sI7
F5.621214
sI8
F7.675223
sI9
F3.34807
sI10
F-3.275258
sI11
F4.179135
sI12
F5.454265
sI13
F4.463334
sI14
F4.10423
ssg92
(dp523
I0
F0.04234023190885016
sI1
Fnan
sI2
Fnan
sI3
Fnan
sI4
Fnan
sI5
Fnan
sI6
Fnan
sI7
Fnan
sI8
Fnan
sI9
Fnan
sI10
Fnan
sI11
Fnan
sI12
Fnan
sI13
Fnan
sI14
Fnan
ssg94
(dp524
I0
F0.7116136073075615
sI1
F0.7168988955961365
sI2
F0.7160258668358226
sI3
F0.7121471747683277
sI4
F0.7176185865295079
sI5
F0.7158424806218382
sI6
F0.7134132730099065
sI7
F0.7315120114774589
sI8
F0.7201047090736605
sI9
F0.7117825927597857
sI10
F0.7156691505952423
sI11
F0.7209669799109455
sI12
F0.7222396764699764
sI13
F0.7174720732667466
sI14
F0.7140640614581532
ssg96
(dp525
I0
F30.0
sI1
F30.0
sI2
F30.0
sI3
F30.0
sI4
F30.0
sI5
F30.0
sI6
F30.0
sI7
F30.0
sI8
F30.0
sI9
F30.0
sI10
F30.0
sI11
F30.0
sI12
F30.0
sI13
F30.0
sI14
F30.0
ssg98
(dp526
I0
F0.002
sI1
F0.002
sI2
F0.002
sI3
F0.002
sI4
F0.002
sI5
F0.002
sI6
F0.002
sI7
F0.002
sI8
F0.002
sI9
F0.002
sI10
F0.002
sI11
F0.002
sI12
F0.002
sI13
F0.002
sI14
F0.002
ssg100
(dp527
I0
F0.002
sI1
F0.002
sI2
F0.002
sI3
F0.002
sI4
F0.002
sI5
F0.002
sI6
F0.002
sI7
F0.002
sI8
F0.002
sI9
F0.002
sI10
F0.002
sI11
F0.002
sI12
F0.002
sI13
F0.002
sI14
F0.002
ssg102
(dp528
I0
F4.388494
sI1
F2.606339
sI2
F-3.515514
sI3
F3.586257
sI4
F3.459015
sI5
F-3.007893
sI6
F3.846239
sI7
F-3.798015
sI8
F6.727592
sI9
F5.305939
sI10
F4.883374
sI11
F-2.642417
sI12
F2.357121
sI13
F4.098958
sI14
F5.46404
ssg104
(dp529
I0
S'KIC8462852-20180823at033654_-25-1X1-030-V_cal.fts.mag.1'
p530
sI1
S'KIC8462852-20180823at040524_-25-1X1-030-V_cal.fts.mag.1'
p531
sI2
S'KIC8462852-20180823at034030_-25-1X1-030-V_cal.fts.mag.1'
p532
sI3
S'KIC8462852-20180823at033922_-25-1X1-030-V_cal.fts.mag.1'
p533
sI4
S'KIC8462852-20180823at040749_-25-1X1-030-V_cal.fts.mag.1'
p534
sI5
S'KIC8462852-20180823at040641_-25-1X1-030-V_cal.fts.mag.1'
p535
sI6
S'KIC8462852-20180823at043509_-25-1X1-030-V_cal.fts.mag.1'
p536
sI7
S'KIC8462852-20180823at043727_-25-1X1-030-V_cal.fts.mag.1'
p537
sI8
S'KIC8462852-20180823at041007_-25-1X1-030-V_cal.fts.mag.1'
p538
sI9
S'KIC8462852-20180823at033811_-25-1X1-030-V_cal.fts.mag.1'
p539
sI10
S'KIC8462852-20180823at040858_-25-1X1-030-V_cal.fts.mag.1'
p540
sI11
S'KIC8462852-20180823at034138_-25-1X1-030-V_cal.fts.mag.1'
p541
sI12
S'KIC8462852-20180823at043835_-25-1X1-030-V_cal.fts.mag.1'
p542
sI13
S'KIC8462852-20180823at043618_-25-1X1-030-V_cal.fts.mag.1'
p543
sI14
S'KIC8462852-20180823at043352_-25-1X1-030-V_cal.fts.mag.1'
p544
ssg121
(dp545
I0
F0.008785198969252686
sI1
Fnan
sI2
Fnan
sI3
Fnan
sI4
Fnan
sI5
Fnan
sI6
Fnan
sI7
Fnan
sI8
Fnan
sI9
Fnan
sI10
Fnan
sI11
Fnan
sI12
Fnan
sI13
Fnan
sI14
Fnan
ssg123
(dp546
I0
F6361.1033333333335
sI1
F6372.1066666666675
sI2
F6489.233333333334
sI3
F6410.276666666667
sI4
F6351.496666666667
sI5
F6062.4
sI6
F6174.4366666666665
sI7
F5767.6466666666665
sI8
F6150.673333333334
sI9
F6417.243333333333
sI10
F6569.0599999999995
sI11
F6454.533333333334
sI12
F5837.96
sI13
F6128.78
sI14
F6154.206666666667
ssg125
(dp547
I0
F0.03692553639549783
sI1
Fnan
sI2
Fnan
sI3
Fnan
sI4
Fnan
sI5
Fnan
sI6
Fnan
sI7
Fnan
sI8
Fnan
sI9
Fnan
sI10
Fnan
sI11
Fnan
sI12
Fnan
sI13
Fnan
sI14
Fnan
ssg127
(dp548
I0
g469
sI1
g469
sI2
g469
sI3
g469
sI4
g469
sI5
g469
sI6
g469
sI7
g469
sI8
g469
sI9
g469
sI10
g469
sI11
g469
sI12
g469
sI13
g469
sI14
g469
ssg144
(dp549
I0
F0.004049593496067116
sI1
Fnan
sI2
Fnan
sI3
Fnan
sI4
Fnan
sI5
Fnan
sI6
Fnan
sI7
Fnan
sI8
Fnan
sI9
Fnan
sI10
Fnan
sI11
Fnan
sI12
Fnan
sI13
Fnan
sI14
Fnan
ssg146
(dp550
I0
F4.290993
sI1
F3.920771
sI2
F4.077941
sI3
F2.484228
sI4
F-4.715312
sI5
F3.326736
sI6
F3.888158
sI7
F1.890411
sI8
F3.680806
sI9
F5.987158
sI10
F4.80147
sI11
F4.35905
sI12
F3.24278
sI13
F1.201695
sI14
F3.104745
ssg148
(dp551
I0
F1.5037979012485982
sI1
Fnan
sI2
Fnan
sI3
Fnan
sI4
Fnan
sI5
Fnan
sI6
Fnan
sI7
Fnan
sI8
Fnan
sI9
Fnan
sI10
Fnan
sI11
Fnan
sI12
Fnan
sI13
Fnan
sI14
Fnan
ssg150
(dp552
I0
F2458353.6720949076
sI1
Fnan
sI2
Fnan
sI3
Fnan
sI4
Fnan
sI5
Fnan
sI6
Fnan
sI7
Fnan
sI8
Fnan
sI9
Fnan
sI10
Fnan
sI11
Fnan
sI12
Fnan
sI13
Fnan
sI14
Fnan
ssg152
(dp553
I0
F0.004049593496067116
sI1
Fnan
sI2
Fnan
sI3
Fnan
sI4
Fnan
sI5
Fnan
sI6
Fnan
sI7
Fnan
sI8
Fnan
sI9
Fnan
sI10
Fnan
sI11
Fnan
sI12
Fnan
sI13
Fnan
sI14
Fnan
ssg154
(dp554
I0
F56.35991
sI1
F53.63754
sI2
F54.9273
sI3
F55.98431
sI4
F53.803
sI5
F54.45047
sI6
F56.50269
sI7
F59.61693
sI8
F54.46605
sI9
F56.19072
sI10
F53.10499
sI11
F54.81872
sI12
F60.62954
sI13
F56.91541
sI14
F56.23506
ssg156
(dp555
I0
F10.813
sI1
F10.811
sI2
F10.8
sI3
F10.807
sI4
F10.818
sI5
F10.852
sI6
F10.842
sI7
F10.937
sI8
F10.853
sI9
F10.811
sI10
F10.789
sI11
F10.803
sI12
F10.915
sI13
F10.858
sI14
F10.844
ssg158
(dp556
I0
F0.6917068762831415
sI1
Fnan
sI2
Fnan
sI3
Fnan
sI4
Fnan
sI5
Fnan
sI6
Fnan
sI7
Fnan
sI8
Fnan
sI9
Fnan
sI10
Fnan
sI11
Fnan
sI12
Fnan
sI13
Fnan
sI14
Fnan
sss.