(dp0
S'V'
p1
(dp2
S'sigmean'
p3
(dp4
I0
F0.6938503025805046
sI1
Fnan
sI2
Fnan
sI3
Fnan
sI4
Fnan
sI5
Fnan
sI6
Fnan
sI7
Fnan
sI8
Fnan
sI9
Fnan
sI10
Fnan
sI11
Fnan
sI12
Fnan
sI13
Fnan
ssS'ref3flag'
p5
(dp6
I0
S'NoError'
p7
sI1
S'NoError'
p8
sI2
S'NoError'
p9
sI3
S'NoError'
p10
sI4
S'NoError'
p11
sI5
S'NoError'
p12
sI6
S'NoError'
p13
sI7
S'NoError'
p14
sI8
S'NoError'
p15
sI9
S'NoError'
p16
sI10
S'NoError'
p17
sI11
S'NoError'
p18
sI12
S'NoError'
p19
sI13
S'NoError'
p20
ssS'tabbyerr'
p21
(dp22
I0
F0.002
sI1
F0.002
sI2
F0.002
sI3
F0.002
sI4
F0.002
sI5
F0.002
sI6
F0.002
sI7
F0.002
sI8
F0.002
sI9
F0.002
sI10
F0.002
sI11
F0.002
sI12
F0.002
sI13
F0.002
ssS'ref2rel'
p23
(dp24
I0
F0.8876875769552661
sI1
F0.8850316639814355
sI2
F0.8855605329049602
sI3
F0.8849174771196066
sI4
F0.8817188000009603
sI5
F0.8862456360526383
sI6
F0.8793914837411505
sI7
F0.8863509301039945
sI8
F0.8830463654637112
sI9
F0.8899254274777713
sI10
F0.8844884890079294
sI11
F0.8848636060599938
sI12
F0.8838877194373752
sI13
F0.8863969901081791
ssS'ref2err'
p25
(dp26
I0
F0.0025521030146475393
sI1
Fnan
sI2
Fnan
sI3
Fnan
sI4
Fnan
sI5
Fnan
sI6
Fnan
sI7
Fnan
sI8
Fnan
sI9
Fnan
sI10
Fnan
sI11
Fnan
sI12
Fnan
sI13
Fnan
ssS'ref2mean'
p27
(dp28
I0
F0.8849651927439267
sI1
Fnan
sI2
Fnan
sI3
Fnan
sI4
Fnan
sI5
Fnan
sI6
Fnan
sI7
Fnan
sI8
Fnan
sI9
Fnan
sI10
Fnan
sI11
Fnan
sI12
Fnan
sI13
Fnan
ssS'tabbymag'
p29
(dp30
I0
F11.455
sI1
F11.526
sI2
F11.472
sI3
F11.462
sI4
F11.471
sI5
F11.472
sI6
F11.473
sI7
F11.485
sI8
F11.471
sI9
F11.482
sI10
F11.479
sI11
F11.473
sI12
F11.481
sI13
F11.467
ssS'tabbybkg'
p31
(dp32
I0
F14.80353
sI1
F17.10821
sI2
F15.14609
sI3
F16.38579
sI4
F15.95146
sI5
F15.87681
sI6
F15.65972
sI7
F17.56635
sI8
F15.12342
sI9
F15.5837
sI10
F16.88278
sI11
F16.48703
sI12
F16.94469
sI13
F14.96358
ssS'JD'
p33
(dp34
I0
F2458303.772048611
sI1
F2458303.7374305557
sI2
F2458303.7729629627
sI3
F2458303.775729167
sI4
F2458303.7738773148
sI5
F2458303.774803241
sI6
F2458303.7533217594
sI7
F2458303.734675926
sI8
F2458303.754247685
sI9
F2458303.756087963
sI10
F2458303.7356018517
sI11
F2458303.7383449073
sI12
F2458303.7365162037
sI13
F2458303.757002315
ssS'ref3rmsmean'
p35
(dp36
I0
F2.5572665000000003
sI1
Fnan
sI2
Fnan
sI3
Fnan
sI4
Fnan
sI5
Fnan
sI6
Fnan
sI7
Fnan
sI8
Fnan
sI9
Fnan
sI10
Fnan
sI11
Fnan
sI12
Fnan
sI13
Fnan
ssS'ref1rmsmean'
p37
(dp38
I0
F0.6202695499999998
sI1
Fnan
sI2
Fnan
sI3
Fnan
sI4
Fnan
sI5
Fnan
sI6
Fnan
sI7
Fnan
sI8
Fnan
sI9
Fnan
sI10
Fnan
sI11
Fnan
sI12
Fnan
sI13
Fnan
ssS'relflux'
p39
(dp40
I0
F0.6974499386073789
sI1
F0.6914121455255208
sI2
F0.6955898285260991
sI3
F0.6931786207257997
sI4
F0.6943011360593203
sI5
F0.6946664572024271
sI6
F0.6948050506750104
sI7
F0.6927199722238979
sI8
F0.6927222867938944
sI9
F0.6930738578486513
sI10
F0.6909765674471469
sI11
F0.6950502665401475
sI12
F0.6927916238127678
sI13
F0.6958923850325209
ssS'sigerr'
p41
(dp42
I0
F0.0013255931911360602
sI1
Fnan
sI2
Fnan
sI3
Fnan
sI4
Fnan
sI5
Fnan
sI6
Fnan
sI7
Fnan
sI8
Fnan
sI9
Fnan
sI10
Fnan
sI11
Fnan
sI12
Fnan
sI13
Fnan
ssS'tabbyrmsmean'
p43
(dp44
I0
F1.7417684999999998
sI1
Fnan
sI2
Fnan
sI3
Fnan
sI4
Fnan
sI5
Fnan
sI6
Fnan
sI7
Fnan
sI8
Fnan
sI9
Fnan
sI10
Fnan
sI11
Fnan
sI12
Fnan
sI13
Fnan
ssS'tabbyflag'
p45
(dp46
I0
g7
sI1
g8
sI2
g9
sI3
g10
sI4
g11
sI5
g12
sI6
g13
sI7
g14
sI8
g15
sI9
g16
sI10
g17
sI11
g18
sI12
g19
sI13
g20
ssS'ref1err'
p47
(dp48
I0
F0.0017810325823140202
sI1
Fnan
sI2
Fnan
sI3
Fnan
sI4
Fnan
sI5
Fnan
sI6
Fnan
sI7
Fnan
sI8
Fnan
sI9
Fnan
sI10
Fnan
sI11
Fnan
sI12
Fnan
sI13
Fnan
ssS'ref2magmeanerr'
p49
(dp50
I0
F0.014781373785579303
sI1
Fnan
sI2
Fnan
sI3
Fnan
sI4
Fnan
sI5
Fnan
sI6
Fnan
sI7
Fnan
sI8
Fnan
sI9
Fnan
sI10
Fnan
sI11
Fnan
sI12
Fnan
sI13
Fnan
ssS'ref2rmsmean'
p51
(dp52
I0
F2.8629080000000005
sI1
Fnan
sI2
Fnan
sI3
Fnan
sI4
Fnan
sI5
Fnan
sI6
Fnan
sI7
Fnan
sI8
Fnan
sI9
Fnan
sI10
Fnan
sI11
Fnan
sI12
Fnan
sI13
Fnan
ssS'ref3rel'
p53
(dp54
I0
F1.5042984957810375
sI1
F1.501493473946724
sI2
F1.5054897911606682
sI3
F1.5002647874254096
sI4
F1.510343344615024
sI5
F1.5039079842101928
sI6
F1.506822857083871
sI7
F1.5001582954021049
sI8
F1.505286608378456
sI9
F1.4959632590081917
sI10
F1.4994104267964017
sI11
F1.5032441260806495
sI12
F1.505671134850503
sI13
F1.5042837760332401
ssS'ref1flag'
p55
(dp56
I0
g7
sI1
g8
sI2
g9
sI3
g10
sI4
g11
sI5
g12
sI6
g13
sI7
g14
sI8
g15
sI9
g16
sI10
g17
sI11
g18
sI12
g19
sI13
g20
ssS'ref2bkg'
p57
(dp58
I0
F15.51107
sI1
F18.5545
sI2
F16.71826
sI3
F16.2869
sI4
F16.03971
sI5
F16.63928
sI6
F16.43903
sI7
F17.73744
sI8
F15.17692
sI9
F15.4982
sI10
F17.07777
sI11
F16.7987
sI12
F16.31193
sI13
F15.73401
ssS'ref3magmean'
p59
(dp60
I0
F10.805571428571428
sI1
Fnan
sI2
Fnan
sI3
Fnan
sI4
Fnan
sI5
Fnan
sI6
Fnan
sI7
Fnan
sI8
Fnan
sI9
Fnan
sI10
Fnan
sI11
Fnan
sI12
Fnan
sI13
Fnan
ssS'ref1mean'
p61
(dp62
I0
F0.7178928902573922
sI1
Fnan
sI2
Fnan
sI3
Fnan
sI4
Fnan
sI5
Fnan
sI6
Fnan
sI7
Fnan
sI8
Fnan
sI9
Fnan
sI10
Fnan
sI11
Fnan
sI12
Fnan
sI13
Fnan
ssS'ref1rms'
p63
(dp64
I0
F3.797221
sI1
F2.713285
sI2
F-3.636453
sI3
F3.693186
sI4
F1.871591
sI5
F3.786088
sI6
F-3.588902
sI7
F-2.174381
sI8
F3.245123
sI9
F2.845982
sI10
F2.364686
sI11
F-2.911562
sI12
F-2.423125
sI13
F-0.8989653
ssS'ref2magmean'
p65
(dp66
I0
F11.169785714285714
sI1
Fnan
sI2
Fnan
sI3
Fnan
sI4
Fnan
sI5
Fnan
sI6
Fnan
sI7
Fnan
sI8
Fnan
sI9
Fnan
sI10
Fnan
sI11
Fnan
sI12
Fnan
sI13
Fnan
ssS'ref2flag'
p67
(dp68
I0
g7
sI1
g8
sI2
g9
sI3
g10
sI4
g11
sI5
g12
sI6
g13
sI7
g14
sI8
g15
sI9
g16
sI10
g17
sI11
g18
sI12
g19
sI13
g20
ssS'ref2'
p69
(dp70
I0
F8698.595555555556
sI1
F8200.746666666666
sI2
F8567.964444444446
sI3
F8675.08888888889
sI4
F8569.039999999999
sI5
F8587.046666666665
sI6
F8530.953333333335
sI7
F8506.482222222223
sI8
F8594.34
sI9
F8554.6
sI10
F8560.246666666666
sI11
F8565.306666666667
sI12
F8520.168888888888
sI13
F8610.237777777778
ssS'airmass'
p71
(dp72
I0
F1.120519
sI1
F1.231163
sI2
F1.118207
sI3
F1.1113879999999998
sI4
F1.115925
sI5
F1.113642
sI6
F1.174373
sI7
F1.242117
sI8
F1.171441
sI9
F1.165611
sI10
F1.238426
sI11
F1.227592
sI12
F1.234782
sI13
F1.162795
ssS'ref1'
p73
(dp74
I0
F7451.24
sI1
F7068.648888888889
sI2
F7360.388888888889
sI3
F7484.624444444444
sI4
F7387.328888888888
sI5
F7375.431111111112
sI6
F7399.648888888889
sI7
F7321.8711111111115
sI8
F7415.504444444445
sI9
F7338.033333333334
sI10
F7394.797777777779
sI11
F7377.011111111111
sI12
F7339.286666666667
sI13
F7391.74
ssS'ref3'
p75
(dp76
I0
F12147.086666666668
sI1
F11463.44888888889
sI2
F11989.986666666668
sI3
F12121.924444444445
sI4
F12049.797777777778
sI5
F12003.048888888889
sI6
F12002.297777777778
sI7
F11872.517777777779
sI8
F12049.702222222222
sI9
F11887.397777777778
sI10
F11961.58
sI11
F11982.597777777779
sI12
F11939.562222222223
sI13
F12035.757777777777
ssS'ref1bkg'
p77
(dp78
I0
F14.6738
sI1
F17.41851
sI2
F16.61779
sI3
F15.42822
sI4
F16.62437
sI5
F15.50172
sI6
F16.40501
sI7
F17.1996
sI8
F16.0321
sI9
F16.43014
sI10
F16.36329
sI11
F16.90243
sI12
F18.0899
sI13
F15.79864
ssS'ref1mag'
p79
(dp80
I0
F11.319
sI1
F11.377
sI2
F11.333
sI3
F11.315
sI4
F11.329
sI5
F11.331
sI6
F11.327
sI7
F11.338
sI8
F11.325
sI9
F11.336
sI10
F11.328
sI11
F11.33
sI12
F11.336
sI13
F11.328
ssS'ref3magerr'
p81
(dp82
I0
F0.001
sI1
F0.001
sI2
F0.001
sI3
F0.001
sI4
F0.001
sI5
F0.001
sI6
F0.001
sI7
F0.001
sI8
F0.001
sI9
F0.001
sI10
F0.001
sI11
F0.001
sI12
F0.001
sI13
F0.001
ssS'tabbymagmean'
p83
(dp84
I0
F0.6939021526443273
sI1
Fnan
sI2
Fnan
sI3
Fnan
sI4
Fnan
sI5
Fnan
sI6
Fnan
sI7
Fnan
sI8
Fnan
sI9
Fnan
sI10
Fnan
sI11
Fnan
sI12
Fnan
sI13
Fnan
ssS'ref1magmean'
p85
(dp86
I0
F11.332285714285717
sI1
Fnan
sI2
Fnan
sI3
Fnan
sI4
Fnan
sI5
Fnan
sI6
Fnan
sI7
Fnan
sI8
Fnan
sI9
Fnan
sI10
Fnan
sI11
Fnan
sI12
Fnan
sI13
Fnan
ssS'ref2mag'
p87
(dp88
I0
F11.151
sI1
F11.215
sI2
F11.168
sI3
F11.154
sI4
F11.168
sI5
F11.165
sI6
F11.173
sI7
F11.176
sI8
F11.164
sI9
F11.17
sI10
F11.169
sI11
F11.168
sI12
F11.174
sI13
F11.162
ssS'ref3rms'
p89
(dp90
I0
F-2.586482
sI1
F3.52436
sI2
F3.971677
sI3
F4.269309
sI4
F4.754609
sI5
F4.566657
sI6
F-2.583013
sI7
F1.482003
sI8
F3.399932
sI9
F2.807299
sI10
F2.807563
sI11
F2.416305
sI12
F3.79377
sI13
F3.177742
ssS'ref3magmeanerr'
p91
(dp92
I0
F0.015072717511677023
sI1
Fnan
sI2
Fnan
sI3
Fnan
sI4
Fnan
sI5
Fnan
sI6
Fnan
sI7
Fnan
sI8
Fnan
sI9
Fnan
sI10
Fnan
sI11
Fnan
sI12
Fnan
sI13
Fnan
ssS'ref1rel'
p93
(dp94
I0
F0.7148952882009031
sI1
F0.718935983820792
sI2
F0.7160624956356436
sI3
F0.7197787802009176
sI4
F0.716561133901609
sI5
F0.7164057195568572
sI6
F0.7207479077567734
sI7
F0.7185702057128526
sI8
F0.7184159346915155
sI9
F0.7179370052872632
sI10
F0.7206763703729212
sI11
F0.7180305058412553
sI12
F0.7174372553391871
sI13
F0.7160458772850005
ssS'exposure'
p95
(dp96
I0
F45.0
sI1
F45.0
sI2
F45.0
sI3
F45.0
sI4
F45.0
sI5
F45.0
sI6
F45.0
sI7
F45.0
sI8
F45.0
sI9
F45.0
sI10
F45.0
sI11
F45.0
sI12
F45.0
sI13
F45.0
ssS'ref1magerr'
p97
(dp98
I0
F0.002
sI1
F0.002
sI2
F0.002
sI3
F0.002
sI4
F0.002
sI5
F0.002
sI6
F0.002
sI7
F0.002
sI8
F0.002
sI9
F0.002
sI10
F0.002
sI11
F0.002
sI12
F0.002
sI13
F0.002
ssS'ref2magerr'
p99
(dp100
I0
F0.002
sI1
F0.002
sI2
F0.002
sI3
F0.002
sI4
F0.002
sI5
F0.002
sI6
F0.002
sI7
F0.002
sI8
F0.002
sI9
F0.002
sI10
F0.002
sI11
F0.002
sI12
F0.002
sI13
F0.002
ssS'ref2rms'
p101
(dp102
I0
F4.206398
sI1
F1.220476
sI2
F2.414104
sI3
F3.711344
sI4
F3.065386
sI5
F4.119877
sI6
F3.278146
sI7
F-2.629441
sI8
F3.361359
sI9
F3.84236
sI10
F2.681555
sI11
F2.652717
sI12
F4.357348
sI13
F3.799083
ssS'name'
p103
(dp104
I0
S'KIC8462852-20180704at063144_-25-1-045-V_cal.fts.mag.1'
p105
sI1
S'KIC8462852-20180704at054154_-25-1-045-V_cal.fts.mag.1'
p106
sI2
S'KIC8462852-20180704at063304_-25-1-045-V_cal.fts.mag.1'
p107
sI3
S'KIC8462852-20180704at063703_-25-1-045-V_cal.fts.mag.1'
p108
sI4
S'KIC8462852-20180704at063423_-25-1-045-V_cal.fts.mag.1'
p109
sI5
S'KIC8462852-20180704at063543_-25-1-045-V_cal.fts.mag.1'
p110
sI6
S'KIC8462852-20180704at060446_-25-1-045-V_cal.fts.mag.1'
p111
sI7
S'KIC8462852-20180704at053755_-25-1-045-V_cal.fts.mag.1'
p112
sI8
S'KIC8462852-20180704at060607_-25-1-045-V_cal.fts.mag.1'
p113
sI9
S'KIC8462852-20180704at060846_-25-1-045-V_cal.fts.mag.1'
p114
sI10
S'KIC8462852-20180704at053916_-25-1-045-V_cal.fts.mag.1'
p115
sI11
S'KIC8462852-20180704at054312_-25-1-045-V_cal.fts.mag.1'
p116
sI12
S'KIC8462852-20180704at054035_-25-1-045-V_cal.fts.mag.1'
p117
sI13
S'KIC8462852-20180704at061005_-25-1-045-V_cal.fts.mag.1'
p118
ssS'ref3err'
p119
(dp120
I0
F0.0036163098675279933
sI1
Fnan
sI2
Fnan
sI3
Fnan
sI4
Fnan
sI5
Fnan
sI6
Fnan
sI7
Fnan
sI8
Fnan
sI9
Fnan
sI10
Fnan
sI11
Fnan
sI12
Fnan
sI13
Fnan
ssS'tabby'
p121
(dp122
I0
F6578.562222222222
sI1
F6161.137777777778
sI2
F6473.237777777778
sI3
F6534.742222222223
sI4
F6481.571111111111
sI5
F6475.571111111111
sI6
F6469.306666666666
sI7
F6396.315555555556
sI8
F6479.1577777777775
sI9
F6417.8711111111115
sI10
F6429.9111111111115
sI11
F6469.74
sI12
F6419.642222222223
sI13
F6503.748888888889
ssS'ref1magmeanerr'
p123
(dp124
I0
F0.014333546297080658
sI1
Fnan
sI2
Fnan
sI3
Fnan
sI4
Fnan
sI5
Fnan
sI6
Fnan
sI7
Fnan
sI8
Fnan
sI9
Fnan
sI10
Fnan
sI11
Fnan
sI12
Fnan
sI13
Fnan
ssS'filter'
p125
(dp126
I0
g1
sI1
g1
sI2
g1
sI3
g1
sI4
g1
sI5
g1
sI6
g1
sI7
g1
sI8
g1
sI9
g1
sI10
g1
sI11
g1
sI12
g1
sI13
g1
ssS'tabbymagerr'
p127
(dp128
I0
F0.0018030841704753382
sI1
Fnan
sI2
Fnan
sI3
Fnan
sI4
Fnan
sI5
Fnan
sI6
Fnan
sI7
Fnan
sI8
Fnan
sI9
Fnan
sI10
Fnan
sI11
Fnan
sI12
Fnan
sI13
Fnan
ssS'tabbyrms'
p129
(dp130
I0
F3.316271
sI1
F2.861149
sI2
F3.982071
sI3
F-2.132341
sI4
F2.983415
sI5
F1.922287
sI6
F-2.239778
sI7
F3.362107
sI8
F1.750581
sI9
F-3.025692
sI10
F2.99423
sI11
F3.098798
sI12
F3.458061
sI13
F2.0536
ssS'ref3mean'
p131
(dp132
I0
F1.503331311483748
sI1
Fnan
sI2
Fnan
sI3
Fnan
sI4
Fnan
sI5
Fnan
sI6
Fnan
sI7
Fnan
sI8
Fnan
sI9
Fnan
sI10
Fnan
sI11
Fnan
sI12
Fnan
sI13
Fnan
ssS'median_JD'
p133
(dp134
I0
F2458303.755167824
sI1
Fnan
sI2
Fnan
sI3
Fnan
sI4
Fnan
sI5
Fnan
sI6
Fnan
sI7
Fnan
sI8
Fnan
sI9
Fnan
sI10
Fnan
sI11
Fnan
sI12
Fnan
sI13
Fnan
ssS'error'
p135
(dp136
I0
F0.0018030841704753382
sI1
Fnan
sI2
Fnan
sI3
Fnan
sI4
Fnan
sI5
Fnan
sI6
Fnan
sI7
Fnan
sI8
Fnan
sI9
Fnan
sI10
Fnan
sI11
Fnan
sI12
Fnan
sI13
Fnan
ssS'ref3bkg'
p137
(dp138
I0
F17.4664
sI1
F20.12613
sI2
F18.49107
sI3
F17.69607
sI4
F18.38169
sI5
F18.18059
sI6
F17.43748
sI7
F18.60402
sI8
F17.71282
sI9
F17.74805
sI10
F18.08664
sI11
F18.35001
sI12
F18.08109
sI13
F17.25806
ssS'ref3mag'
p139
(dp140
I0
F10.789
sI1
F10.852
sI2
F10.803
sI3
F10.791
sI4
F10.798
sI5
F10.802
sI6
F10.802
sI7
F10.814
sI8
F10.798
sI9
F10.812
sI10
F10.806
sI11
F10.804
sI12
F10.808
sI13
F10.799
ssS'mean'
p141
(dp142
I0
F0.6939021526443273
sI1
Fnan
sI2
Fnan
sI3
Fnan
sI4
Fnan
sI5
Fnan
sI6
Fnan
sI7
Fnan
sI8
Fnan
sI9
Fnan
sI10
Fnan
sI11
Fnan
sI12
Fnan
sI13
Fnan
sss.