(dp0
S'V'
p1
(dp2
S'sigmean'
p3
(dp4
I0
F0.6932977652080403
sI1
Fnan
sI2
Fnan
sI3
Fnan
sI4
Fnan
sI5
Fnan
sI6
Fnan
sI7
Fnan
sI8
Fnan
sI9
Fnan
sI10
Fnan
sI11
Fnan
sI12
Fnan
sI13
Fnan
sI14
Fnan
ssS'ref3flag'
p5
(dp6
I0
S'NoError'
p7
sI1
S'NoError'
p8
sI2
S'NoError'
p9
sI3
S'NoError'
p10
sI4
S'NoError'
p11
sI5
S'NoError'
p12
sI6
S'NoError'
p13
sI7
S'NoError'
p14
sI8
S'NoError'
p15
sI9
S'NoError'
p16
sI10
S'NoError'
p17
sI11
S'NoError'
p18
sI12
S'NoError'
p19
sI13
S'NoError'
p20
sI14
S'NoError'
p21
ssS'tabbyerr'
p22
(dp23
I0
F0.003
sI1
F0.003
sI2
F0.003
sI3
F0.003
sI4
F0.003
sI5
F0.003
sI6
F0.003
sI7
F0.003
sI8
F0.003
sI9
F0.003
sI10
F0.004
sI11
F0.003
sI12
F0.003
sI13
F0.003
sI14
F0.003
ssS'ref2rel'
p24
(dp25
I0
F0.8875511903005028
sI1
F0.8935845947389103
sI2
F0.8880661392771857
sI3
F0.8805920033300189
sI4
F0.8792708577550209
sI5
F0.8886253584477226
sI6
F0.8907329563482791
sI7
F0.8865230254793406
sI8
F0.885417397128896
sI9
F0.8874032796180404
sI10
F0.8814064117388103
sI11
F0.8926906414934087
sI12
F0.8814113483670561
sI13
F0.8842381985721107
sI14
F0.8879127746570539
ssS'ref2err'
p26
(dp27
I0
F0.004328689674206401
sI1
Fnan
sI2
Fnan
sI3
Fnan
sI4
Fnan
sI5
Fnan
sI6
Fnan
sI7
Fnan
sI8
Fnan
sI9
Fnan
sI10
Fnan
sI11
Fnan
sI12
Fnan
sI13
Fnan
sI14
Fnan
ssS'ref2mean'
p28
(dp29
I0
F0.8863617451501572
sI1
Fnan
sI2
Fnan
sI3
Fnan
sI4
Fnan
sI5
Fnan
sI6
Fnan
sI7
Fnan
sI8
Fnan
sI9
Fnan
sI10
Fnan
sI11
Fnan
sI12
Fnan
sI13
Fnan
sI14
Fnan
ssS'tabbymag'
p30
(dp31
I0
F11.696
sI1
F11.645
sI2
F11.748
sI3
F11.803
sI4
F11.679
sI5
F11.705
sI6
F11.647
sI7
F11.737
sI8
F11.677
sI9
F11.668
sI10
F11.98
sI11
F11.694
sI12
F11.858
sI13
F11.727
sI14
F11.662
ssS'tabbybkg'
p32
(dp33
I0
F80.73253
sI1
F75.07521
sI2
F90.17539
sI3
F90.66579
sI4
F81.99583
sI5
F82.94096
sI6
F74.31318
sI7
F75.86951
sI8
F73.94003
sI9
F74.65848
sI10
F95.13172
sI11
F82.33823
sI12
F92.3604
sI13
F88.08997
sI14
F81.65691
ssS'JD'
p34
(dp35
I0
F2458591.869826389
sI1
F2458591.882175926
sI2
F2458591.8542939816
sI3
F2458591.8536805557
sI4
F2458591.8686226853
sI5
F2458591.867384259
sI6
F2458591.883425926
sI7
F2458591.8828125
sI8
F2458591.8840393517
sI9
F2458591.8846527776
sI10
F2458591.8524537035
sI11
F2458591.8680092595
sI12
F2458591.85306713
sI13
F2458591.855034722
sI14
F2458591.869224537
ssS'ref3rmsmean'
p36
(dp37
I0
F1.9850560666666666
sI1
Fnan
sI2
Fnan
sI3
Fnan
sI4
Fnan
sI5
Fnan
sI6
Fnan
sI7
Fnan
sI8
Fnan
sI9
Fnan
sI10
Fnan
sI11
Fnan
sI12
Fnan
sI13
Fnan
sI14
Fnan
ssS'ref1rmsmean'
p38
(dp39
I0
F2.4621733333333333
sI1
Fnan
sI2
Fnan
sI3
Fnan
sI4
Fnan
sI5
Fnan
sI6
Fnan
sI7
Fnan
sI8
Fnan
sI9
Fnan
sI10
Fnan
sI11
Fnan
sI12
Fnan
sI13
Fnan
sI14
Fnan
ssS'relflux'
p40
(dp41
I0
F0.6931947713752552
sI1
F0.7020948879716506
sI2
F0.6920415495229545
sI3
F0.6898508928319124
sI4
F0.6975870014743654
sI5
F0.694288954116737
sI6
F0.7034801427947247
sI7
F0.6904746277513911
sI8
F0.6959874622347562
sI9
F0.6964011138233899
sI10
F0.6846894987530624
sI11
F0.6942931653532255
sI12
F0.6927446525576849
sI13
F0.691532498017018
sI14
F0.6911764934377936
ssS'sigerr'
p42
(dp43
I0
F0.0023558028180512324
sI1
Fnan
sI2
Fnan
sI3
Fnan
sI4
Fnan
sI5
Fnan
sI6
Fnan
sI7
Fnan
sI8
Fnan
sI9
Fnan
sI10
Fnan
sI11
Fnan
sI12
Fnan
sI13
Fnan
sI14
Fnan
ssS'tabbyrmsmean'
p44
(dp45
I0
F2.719101933333333
sI1
Fnan
sI2
Fnan
sI3
Fnan
sI4
Fnan
sI5
Fnan
sI6
Fnan
sI7
Fnan
sI8
Fnan
sI9
Fnan
sI10
Fnan
sI11
Fnan
sI12
Fnan
sI13
Fnan
sI14
Fnan
ssS'tabbyflag'
p46
(dp47
I0
g7
sI1
g8
sI2
g9
sI3
g10
sI4
g11
sI5
g12
sI6
g13
sI7
g14
sI8
g15
sI9
g16
sI10
g17
sI11
g18
sI12
g19
sI13
g20
sI14
g21
ssS'ref1err'
p48
(dp49
I0
F0.004667286871529656
sI1
Fnan
sI2
Fnan
sI3
Fnan
sI4
Fnan
sI5
Fnan
sI6
Fnan
sI7
Fnan
sI8
Fnan
sI9
Fnan
sI10
Fnan
sI11
Fnan
sI12
Fnan
sI13
Fnan
sI14
Fnan
ssS'ref2magmeanerr'
p50
(dp51
I0
F0.0878388676308314
sI1
Fnan
sI2
Fnan
sI3
Fnan
sI4
Fnan
sI5
Fnan
sI6
Fnan
sI7
Fnan
sI8
Fnan
sI9
Fnan
sI10
Fnan
sI11
Fnan
sI12
Fnan
sI13
Fnan
sI14
Fnan
ssS'ref2rmsmean'
p52
(dp53
I0
F2.1230719999999996
sI1
Fnan
sI2
Fnan
sI3
Fnan
sI4
Fnan
sI5
Fnan
sI6
Fnan
sI7
Fnan
sI8
Fnan
sI9
Fnan
sI10
Fnan
sI11
Fnan
sI12
Fnan
sI13
Fnan
sI14
Fnan
ssS'ref3rel'
p54
(dp55
I0
F1.5131556471377277
sI1
F1.4945799070079666
sI2
F1.5138914119578126
sI3
F1.5135115924459412
sI4
F1.5121774481222545
sI5
F1.5082955564079445
sI6
F1.486085362489507
sI7
F1.4963052184839805
sI8
F1.507686431245573
sI9
F1.5031243223322923
sI10
F1.4991752607788307
sI11
F1.502838444890223
sI12
F1.5137757352502887
sI13
F1.5018534275928144
sI14
F1.5108367945929717
ssS'ref1flag'
p56
(dp57
I0
g7
sI1
g8
sI2
g9
sI3
g10
sI4
g11
sI5
g12
sI6
g13
sI7
g14
sI8
g15
sI9
g16
sI10
g17
sI11
g18
sI12
g19
sI13
g20
sI14
g21
ssS'ref2bkg'
p58
(dp59
I0
F81.72198
sI1
F75.23945
sI2
F91.13666
sI3
F92.1515
sI4
F82.05351
sI5
F82.99212
sI6
F75.16383
sI7
F76.77568
sI8
F74.81779
sI9
F74.74223
sI10
F96.24475
sI11
F82.47762
sI12
F93.63345
sI13
F89.42526
sI14
F80.57977
ssS'ref3magmean'
p60
(dp61
I0
F11.056666666666668
sI1
Fnan
sI2
Fnan
sI3
Fnan
sI4
Fnan
sI5
Fnan
sI6
Fnan
sI7
Fnan
sI8
Fnan
sI9
Fnan
sI10
Fnan
sI11
Fnan
sI12
Fnan
sI13
Fnan
sI14
Fnan
ssS'ref1mean'
p62
(dp63
I0
F0.715579431301185
sI1
Fnan
sI2
Fnan
sI3
Fnan
sI4
Fnan
sI5
Fnan
sI6
Fnan
sI7
Fnan
sI8
Fnan
sI9
Fnan
sI10
Fnan
sI11
Fnan
sI12
Fnan
sI13
Fnan
sI14
Fnan
ssS'ref1rms'
p64
(dp65
I0
F5.892429
sI1
F4.16058
sI2
F-3.479415
sI3
F4.696681
sI4
F2.381781
sI5
F3.169667
sI6
F-5.813391
sI7
F3.352112
sI8
F4.657511
sI9
F3.620344
sI10
F4.377846
sI11
F4.687712
sI12
F3.27316
sI13
F3.792238
sI14
F-1.836655
ssS'ref2magmean'
p66
(dp67
I0
F11.420666666666667
sI1
Fnan
sI2
Fnan
sI3
Fnan
sI4
Fnan
sI5
Fnan
sI6
Fnan
sI7
Fnan
sI8
Fnan
sI9
Fnan
sI10
Fnan
sI11
Fnan
sI12
Fnan
sI13
Fnan
sI14
Fnan
ssS'ref2flag'
p68
(dp69
I0
g7
sI1
g8
sI2
g9
sI3
g10
sI4
g11
sI5
g12
sI6
g13
sI7
g14
sI8
g15
sI9
g16
sI10
g17
sI11
g18
sI12
g19
sI13
g20
sI14
g21
ssS'ref2'
p70
(dp71
I0
F7006.466666666666
sI1
F7288.0
sI2
F6691.406666666667
sI3
F6346.573333333334
sI4
F7025.72
sI5
F6945.076666666666
sI6
F7242.71
sI7
F6769.423333333334
sI8
F7091.820000000001
sI9
F7157.596666666666
sI10
F5432.536666666667
sI11
F7035.003333333333
sI12
F6010.77
sI13
F6808.996666666667
sI14
F7255.5599999999995
ssS'airmass'
p72
(dp73
I0
F1.7471919999999999
sI1
F1.629484
sI2
F1.9255689999999999
sI3
F1.933619
sI4
F1.759844
sI5
F1.772718
sI6
F1.618634
sI7
F1.623983
sI8
F1.613378
sI9
F1.608055
sI10
F1.949502
sI11
F1.7662080000000002
sI12
F1.941548
sI13
F1.9163169999999998
sI14
F1.753497
ssS'ref1'
p74
(dp75
I0
F5970.343333333333
sI1
F6218.533333333334
sI2
F5694.303333333333
sI3
F5471.179999999999
sI4
F6075.2733333333335
sI5
F5925.066666666667
sI6
F6242.37
sI7
F5838.9
sI8
F6085.513333333333
sI9
F6138.62
sI10
F4718.1466666666665
sI11
F5980.926666666666
sI12
F5173.63
sI13
F5875.61
sI14
F6187.683333333333
ssS'ref3'
p76
(dp77
I0
F9817.966666666667
sI1
F10093.296666666667
sI2
F9375.31
sI3
F8943.153333333332
sI4
F9905.513333333334
sI5
F9705.99
sI6
F10019.99
sI7
F9432.95
sI8
F9933.643333333333
sI9
F9992.933333333332
sI10
F7608.826666666666
sI11
F9780.42
sI12
F8465.336666666666
sI13
F9525.21
sI14
F10155.273333333334
ssS'ref1bkg'
p78
(dp79
I0
F81.75679
sI1
F75.74261
sI2
F91.17313
sI3
F91.51379
sI4
F82.16142
sI5
F83.50438
sI6
F75.95006
sI7
F76.77635
sI8
F74.1001
sI9
F75.02441
sI10
F95.28377
sI11
F83.25295
sI12
F93.51718
sI13
F89.38313
sI14
F82.48332
ssS'ref1mag'
p80
(dp81
I0
F11.56
sI1
F11.516
sI2
F11.611
sI3
F11.655
sI4
F11.541
sI5
F11.568
sI6
F11.512
sI7
F11.584
sI8
F11.539
sI9
F11.53
sI10
F11.816
sI11
F11.558
sI12
F11.716
sI13
F11.577
sI14
F11.521
ssS'ref3magerr'
p82
(dp83
I0
F0.002
sI1
F0.002
sI2
F0.002
sI3
F0.002
sI4
F0.002
sI5
F0.002
sI6
F0.002
sI7
F0.002
sI8
F0.002
sI9
F0.002
sI10
F0.002
sI11
F0.002
sI12
F0.002
sI13
F0.002
sI14
F0.002
ssS'tabbymagmean'
p84
(dp85
I0
F11.728399999999999
sI1
Fnan
sI2
Fnan
sI3
Fnan
sI4
Fnan
sI5
Fnan
sI6
Fnan
sI7
Fnan
sI8
Fnan
sI9
Fnan
sI10
Fnan
sI11
Fnan
sI12
Fnan
sI13
Fnan
sI14
Fnan
ssS'ref1magmean'
p86
(dp87
I0
F11.586933333333336
sI1
Fnan
sI2
Fnan
sI3
Fnan
sI4
Fnan
sI5
Fnan
sI6
Fnan
sI7
Fnan
sI8
Fnan
sI9
Fnan
sI10
Fnan
sI11
Fnan
sI12
Fnan
sI13
Fnan
sI14
Fnan
ssS'ref2mag'
p88
(dp89
I0
F11.386
sI1
F11.343
sI2
F11.436
sI3
F11.494
sI4
F11.383
sI5
F11.396
sI6
F11.35
sI7
F11.424
sI8
F11.373
sI9
F11.363
sI10
F11.662
sI11
F11.382
sI12
F11.553
sI13
F11.417
sI14
F11.348
ssS'ref3rms'
p90
(dp91
I0
F3.79256
sI1
F3.359898
sI2
F4.102715
sI3
F4.548986
sI4
F-4.096403
sI5
F3.609806
sI6
F-3.939546
sI7
F3.15444
sI8
F5.163573
sI9
F6.584225
sI10
F-4.862164
sI11
F-4.378696
sI12
F2.84594
sI13
F5.308502
sI14
F4.582005
ssS'ref3magmeanerr'
p92
(dp93
I0
F0.08521625152404644
sI1
Fnan
sI2
Fnan
sI3
Fnan
sI4
Fnan
sI5
Fnan
sI6
Fnan
sI7
Fnan
sI8
Fnan
sI9
Fnan
sI10
Fnan
sI11
Fnan
sI12
Fnan
sI13
Fnan
sI14
Fnan
ssS'ref1rel'
p94
(dp95
I0
F0.7097229624375659
sI1
F0.715543086639681
sI2
F0.7088322339245832
sI3
F0.7156674699656719
sI4
F0.7176409672853129
sI5
F0.711674126982856
sI6
F0.7232205854240645
sI7
F0.7207462610415921
sI8
F0.7148719790102629
sI9
F0.7158519299403575
sI10
F0.7235664778401236
sI11
F0.7113620095202281
sI12
F0.7147819671587573
sI13
F0.7194239818197476
sI14
F0.7107854305269706
ssS'exposure'
p96
(dp97
I0
F30.0
sI1
F30.0
sI2
F30.0
sI3
F30.0
sI4
F30.0
sI5
F30.0
sI6
F30.0
sI7
F30.0
sI8
F30.0
sI9
F30.0
sI10
F30.0
sI11
F30.0
sI12
F30.0
sI13
F30.0
sI14
F30.0
ssS'ref1magerr'
p98
(dp99
I0
F0.003
sI1
F0.003
sI2
F0.003
sI3
F0.003
sI4
F0.003
sI5
F0.003
sI6
F0.003
sI7
F0.003
sI8
F0.003
sI9
F0.003
sI10
F0.003
sI11
F0.003
sI12
F0.003
sI13
F0.003
sI14
F0.003
ssS'ref2magerr'
p100
(dp101
I0
F0.002
sI1
F0.002
sI2
F0.002
sI3
F0.003
sI4
F0.002
sI5
F0.002
sI6
F0.002
sI7
F0.002
sI8
F0.002
sI9
F0.002
sI10
F0.003
sI11
F0.002
sI12
F0.003
sI13
F0.002
sI14
F0.002
ssS'ref2rms'
p102
(dp103
I0
F5.688071
sI1
F5.514779
sI2
F3.828768
sI3
F-5.603375
sI4
F4.183749
sI5
F1.16534
sI6
F3.328278
sI7
F-4.522629
sI8
F-4.781213
sI9
F2.436713
sI10
F4.5552
sI11
F4.821655
sI12
F3.478486
sI13
F2.913966
sI14
F4.838292
ssS'name'
p104
(dp105
I0
S'KIC8462852-20190418at085233_-35-1X1-030-V.fts.mag.1'
p106
sI1
S'KIC8462852-20190418at091014_-35-1X1-030-V.fts.mag.1'
p107
sI2
S'KIC8462852-20190418at083011_-35-1X1-030-V.fts.mag.1'
p108
sI3
S'KIC8462852-20190418at082918_-35-1X1-030-V.fts.mag.1'
p109
sI4
S'KIC8462852-20190418at085049_-35-1X1-030-V.fts.mag.1'
p110
sI5
S'KIC8462852-20190418at084856_-35-1X1-030-V.fts.mag.1'
p111
sI6
S'KIC8462852-20190418at091208_-35-1X1-030-V.fts.mag.1'
p112
sI7
S'KIC8462852-20190418at091115_-35-1X1-030-V.fts.mag.1'
p113
sI8
S'KIC8462852-20190418at091301_-35-1X1-030-V.fts.mag.1'
p114
sI9
S'KIC8462852-20190418at091354_-35-1X1-030-V.fts.mag.1'
p115
sI10
S'KIC8462852-20190418at082726_-35-1X1-030-V.fts.mag.1'
p116
sI11
S'KIC8462852-20190418at084956_-35-1X1-030-V.fts.mag.1'
p117
sI12
S'KIC8462852-20190418at082825_-35-1X1-030-V.fts.mag.1'
p118
sI13
S'KIC8462852-20190418at083115_-35-1X1-030-V.fts.mag.1'
p119
sI14
S'KIC8462852-20190418at085141_-35-1X1-030-V.fts.mag.1'
p120
ssS'ref3err'
p121
(dp122
I0
F0.008418957088407918
sI1
Fnan
sI2
Fnan
sI3
Fnan
sI4
Fnan
sI5
Fnan
sI6
Fnan
sI7
Fnan
sI8
Fnan
sI9
Fnan
sI10
Fnan
sI11
Fnan
sI12
Fnan
sI13
Fnan
sI14
Fnan
ssS'tabby'
p123
(dp124
I0
F5267.073333333334
sI1
F5523.1066666666675
sI2
F5019.843333333333
sI3
F4773.9766666666665
sI4
F5349.679999999999
sI5
F5224.786666666667
sI6
F5511.783333333334
sI7
F5072.98
sI8
F5361.65
sI9
F5406.196666666667
sI10
F4053.25
sI11
F5275.783333333334
sI12
F4537.416666666667
sI13
F5119.6033333333335
sI14
F5436.913333333333
ssS'ref1magmeanerr'
p125
(dp126
I0
F0.08409727927199773
sI1
Fnan
sI2
Fnan
sI3
Fnan
sI4
Fnan
sI5
Fnan
sI6
Fnan
sI7
Fnan
sI8
Fnan
sI9
Fnan
sI10
Fnan
sI11
Fnan
sI12
Fnan
sI13
Fnan
sI14
Fnan
ssS'filter'
p127
(dp128
I0
g1
sI1
g1
sI2
g1
sI3
g1
sI4
g1
sI5
g1
sI6
g1
sI7
g1
sI8
g1
sI9
g1
sI10
g1
sI11
g1
sI12
g1
sI13
g1
sI14
g1
ssS'tabbymagerr'
p129
(dp130
I0
F0.09087888329293808
sI1
Fnan
sI2
Fnan
sI3
Fnan
sI4
Fnan
sI5
Fnan
sI6
Fnan
sI7
Fnan
sI8
Fnan
sI9
Fnan
sI10
Fnan
sI11
Fnan
sI12
Fnan
sI13
Fnan
sI14
Fnan
ssS'tabbyrms'
p131
(dp132
I0
F5.411727
sI1
F3.786659
sI2
F2.992775
sI3
F-1.487424
sI4
F3.460007
sI5
F2.763941
sI6
F5.833105
sI7
F3.787428
sI8
F3.80297
sI9
F5.894299
sI10
F-4.145319
sI11
F4.00868
sI12
F3.504566
sI13
F5.715986
sI14
F-4.542871
ssS'ref3mean'
p133
(dp134
I0
F1.5051528373824083
sI1
Fnan
sI2
Fnan
sI3
Fnan
sI4
Fnan
sI5
Fnan
sI6
Fnan
sI7
Fnan
sI8
Fnan
sI9
Fnan
sI10
Fnan
sI11
Fnan
sI12
Fnan
sI13
Fnan
sI14
Fnan
ssS'median_JD'
p135
(dp136
I0
F2458591.8686226853
sI1
Fnan
sI2
Fnan
sI3
Fnan
sI4
Fnan
sI5
Fnan
sI6
Fnan
sI7
Fnan
sI8
Fnan
sI9
Fnan
sI10
Fnan
sI11
Fnan
sI12
Fnan
sI13
Fnan
sI14
Fnan
ssS'error'
p137
(dp138
I0
F0.004740398444465767
sI1
Fnan
sI2
Fnan
sI3
Fnan
sI4
Fnan
sI5
Fnan
sI6
Fnan
sI7
Fnan
sI8
Fnan
sI9
Fnan
sI10
Fnan
sI11
Fnan
sI12
Fnan
sI13
Fnan
sI14
Fnan
ssS'ref3bkg'
p139
(dp140
I0
F83.60552
sI1
F77.2309
sI2
F91.20789
sI3
F91.84522
sI4
F84.43295
sI5
F85.08733
sI6
F76.5241
sI7
F78.36296
sI8
F76.35744
sI9
F75.6643
sI10
F99.14138
sI11
F84.32882
sI12
F93.33292
sI13
F90.90544
sI14
F82.35783
ssS'ref3mag'
p141
(dp142
I0
F11.02
sI1
F10.99
sI2
F11.07
sI3
F11.121
sI4
F11.01
sI5
F11.032
sI6
F10.998
sI7
F11.063
sI8
F11.007
sI9
F11.001
sI10
F11.297
sI11
F11.024
sI12
F11.181
sI13
F11.053
sI14
F10.983
ssS'mean'
p143
(dp144
I0
F0.6939891808010615
sI1
Fnan
sI2
Fnan
sI3
Fnan
sI4
Fnan
sI5
Fnan
sI6
Fnan
sI7
Fnan
sI8
Fnan
sI9
Fnan
sI10
Fnan
sI11
Fnan
sI12
Fnan
sI13
Fnan
sI14
Fnan
sss.