(dp0
S'i'
p1
(dp2
S'sigmean'
p3
(dp4
I0
F0.4403439776965289
sI1
Fnan
sI2
Fnan
sI3
Fnan
sI4
Fnan
sI5
Fnan
sI6
Fnan
sI7
Fnan
sI8
Fnan
sI9
Fnan
sI10
Fnan
sI11
Fnan
sI12
Fnan
sI13
Fnan
sI14
Fnan
ssS'ref3flag'
p5
(dp6
I0
S'NoError'
p7
sI1
S'NoError'
p8
sI2
S'NoError'
p9
sI3
S'NoError'
p10
sI4
S'NoError'
p11
sI5
S'NoError'
p12
sI6
S'NoError'
p13
sI7
S'NoError'
p14
sI8
S'NoError'
p15
sI9
S'NoError'
p16
sI10
S'NoError'
p17
sI11
S'NoError'
p18
sI12
S'NoError'
p19
sI13
S'NoError'
p20
sI14
S'NoError'
p21
ssS'tabbyerr'
p22
(dp23
I0
F0.003
sI1
F0.003
sI2
F0.003
sI3
F0.003
sI4
F0.003
sI5
F0.003
sI6
F0.003
sI7
F0.003
sI8
F0.003
sI9
F0.003
sI10
F0.004
sI11
F0.003
sI12
F0.003
sI13
F0.003
sI14
F0.003
ssS'ref2rel'
p24
(dp25
I0
F0.9114545602115931
sI1
F0.9161362713458291
sI2
F0.9083557563489635
sI3
F0.9171708733504751
sI4
F0.9111055060889712
sI5
F0.910577612859429
sI6
F0.9098294359404603
sI7
F0.9101997646664727
sI8
F0.9148469300655143
sI9
F0.9134896686111252
sI10
F0.9175231437767637
sI11
F0.913347268695507
sI12
F0.9079500282952824
sI13
F0.916517890100155
sI14
F0.9083076625568244
ssS'ref2err'
p26
(dp27
I0
F0.003361522023432478
sI1
Fnan
sI2
Fnan
sI3
Fnan
sI4
Fnan
sI5
Fnan
sI6
Fnan
sI7
Fnan
sI8
Fnan
sI9
Fnan
sI10
Fnan
sI11
Fnan
sI12
Fnan
sI13
Fnan
sI14
Fnan
ssS'ref2mean'
p28
(dp29
I0
F0.9124541581942244
sI1
Fnan
sI2
Fnan
sI3
Fnan
sI4
Fnan
sI5
Fnan
sI6
Fnan
sI7
Fnan
sI8
Fnan
sI9
Fnan
sI10
Fnan
sI11
Fnan
sI12
Fnan
sI13
Fnan
sI14
Fnan
ssS'tabbymag'
p30
(dp31
I0
F11.811
sI1
F11.831
sI2
F11.941
sI3
F11.84
sI4
F11.813
sI5
F11.982
sI6
F11.828
sI7
F11.815
sI8
F11.817
sI9
F11.84
sI10
F12.155
sI11
F11.88
sI12
F11.856
sI13
F11.835
sI14
F11.816
ssS'tabbybkg'
p32
(dp33
I0
F40.63951
sI1
F37.76132
sI2
F54.63097
sI3
F34.46352
sI4
F41.65425
sI5
F61.68963
sI6
F38.76257
sI7
F43.72401
sI8
F43.544
sI9
F41.03396
sI10
F89.3416
sI11
F41.6614
sI12
F35.5303
sI13
F36.10796
sI14
F46.10061
ssS'JD'
p34
(dp35
I0
F2458356.7396064815
sI1
F2458356.7169328704
sI2
F2458356.6925347224
sI3
F2458356.7152662035
sI4
F2458356.738773148
sI5
F2458356.695115741
sI6
F2458356.6933796294
sI7
F2458356.7370833335
sI8
F2458356.736261574
sI9
F2458356.717766204
sI10
F2458356.6959606484
sI11
F2458356.6942592594
sI12
F2458356.7144328705
sI13
F2458356.716099537
sI14
F2458356.7379282406
ssS'ref3rmsmean'
p36
(dp37
I0
F3.0134361333333337
sI1
Fnan
sI2
Fnan
sI3
Fnan
sI4
Fnan
sI5
Fnan
sI6
Fnan
sI7
Fnan
sI8
Fnan
sI9
Fnan
sI10
Fnan
sI11
Fnan
sI12
Fnan
sI13
Fnan
sI14
Fnan
ssS'ref1rmsmean'
p38
(dp39
I0
F1.1505703333333335
sI1
Fnan
sI2
Fnan
sI3
Fnan
sI4
Fnan
sI5
Fnan
sI6
Fnan
sI7
Fnan
sI8
Fnan
sI9
Fnan
sI10
Fnan
sI11
Fnan
sI12
Fnan
sI13
Fnan
sI14
Fnan
ssS'relflux'
p40
(dp41
I0
F0.4420405173546614
sI1
F0.438239194841764
sI2
F0.44044647760764344
sI3
F0.44152293103442786
sI4
F0.44139236816390004
sI5
F0.4381636210788837
sI6
F0.4393355350252755
sI7
F0.4407688482523397
sI8
F0.4441097053347912
sI9
F0.43847876445347944
sI10
F0.4431857205127613
sI11
F0.4364967997659503
sI12
F0.44001541794504256
sI13
F0.4400498318670191
sI14
F0.4408324819176769
ssS'sigerr'
p42
(dp43
I0
F0.0014609527021692541
sI1
Fnan
sI2
Fnan
sI3
Fnan
sI4
Fnan
sI5
Fnan
sI6
Fnan
sI7
Fnan
sI8
Fnan
sI9
Fnan
sI10
Fnan
sI11
Fnan
sI12
Fnan
sI13
Fnan
sI14
Fnan
ssS'tabbyrmsmean'
p44
(dp45
I0
F1.1136133333333333
sI1
Fnan
sI2
Fnan
sI3
Fnan
sI4
Fnan
sI5
Fnan
sI6
Fnan
sI7
Fnan
sI8
Fnan
sI9
Fnan
sI10
Fnan
sI11
Fnan
sI12
Fnan
sI13
Fnan
sI14
Fnan
ssS'tabbyflag'
p46
(dp47
I0
g7
sI1
g8
sI2
g9
sI3
g10
sI4
g11
sI5
g12
sI6
g13
sI7
g14
sI8
g15
sI9
g16
sI10
g17
sI11
g18
sI12
g19
sI13
g20
sI14
g21
ssS'ref1err'
p48
(dp49
I0
F0.002219787336682861
sI1
Fnan
sI2
Fnan
sI3
Fnan
sI4
Fnan
sI5
Fnan
sI6
Fnan
sI7
Fnan
sI8
Fnan
sI9
Fnan
sI10
Fnan
sI11
Fnan
sI12
Fnan
sI13
Fnan
sI14
Fnan
ssS'ref2magmeanerr'
p50
(dp51
I0
F0.09309508707818721
sI1
Fnan
sI2
Fnan
sI3
Fnan
sI4
Fnan
sI5
Fnan
sI6
Fnan
sI7
Fnan
sI8
Fnan
sI9
Fnan
sI10
Fnan
sI11
Fnan
sI12
Fnan
sI13
Fnan
sI14
Fnan
ssS'ref2rmsmean'
p52
(dp53
I0
F0.653917933333333
sI1
Fnan
sI2
Fnan
sI3
Fnan
sI4
Fnan
sI5
Fnan
sI6
Fnan
sI7
Fnan
sI8
Fnan
sI9
Fnan
sI10
Fnan
sI11
Fnan
sI12
Fnan
sI13
Fnan
sI14
Fnan
ssS'ref3rel'
p54
(dp55
I0
F1.4985632332373435
sI1
F1.4934761250904367
sI2
F1.4961926203301958
sI3
F1.4904391742854104
sI4
F1.4876124073398955
sI5
F1.4970677238400911
sI6
F1.498554591746568
sI7
F1.5007992064256268
sI8
F1.492514417567561
sI9
F1.4940124804652504
sI10
F1.4922612563374258
sI11
F1.493553278544
sI12
F1.498531752026472
sI13
F1.4913523376066251
sI14
F1.4966352888522056
ssS'ref1flag'
p56
(dp57
I0
g7
sI1
g8
sI2
g9
sI3
g10
sI4
g11
sI5
g12
sI6
g13
sI7
g14
sI8
g15
sI9
g16
sI10
g17
sI11
g18
sI12
g19
sI13
g20
sI14
g21
ssS'ref2bkg'
p58
(dp59
I0
F42.79191
sI1
F38.92674
sI2
F56.81322
sI3
F36.67166
sI4
F42.48411
sI5
F62.60901
sI6
F39.96426
sI7
F47.44178
sI8
F45.56508
sI9
F42.18862
sI10
F92.27013
sI11
F43.15985
sI12
F38.08831
sI13
F36.99217
sI14
F48.39443
ssS'ref3magmean'
p60
(dp61
I0
F10.709466666666668
sI1
Fnan
sI2
Fnan
sI3
Fnan
sI4
Fnan
sI5
Fnan
sI6
Fnan
sI7
Fnan
sI8
Fnan
sI9
Fnan
sI10
Fnan
sI11
Fnan
sI12
Fnan
sI13
Fnan
sI14
Fnan
ssS'ref1mean'
p62
(dp63
I0
F0.6990245356636156
sI1
Fnan
sI2
Fnan
sI3
Fnan
sI4
Fnan
sI5
Fnan
sI6
Fnan
sI7
Fnan
sI8
Fnan
sI9
Fnan
sI10
Fnan
sI11
Fnan
sI12
Fnan
sI13
Fnan
sI14
Fnan
ssS'ref1rms'
p64
(dp65
I0
F3.960584
sI1
F-3.818899
sI2
F3.344012
sI3
F3.314696
sI4
F-3.66706
sI5
F-5.093458
sI6
F5.370723
sI7
F-3.480181
sI8
F4.320148
sI9
F-3.634835
sI10
F3.941288
sI11
F2.712105
sI12
F3.260858
sI13
F3.845516
sI14
F2.883058
ssS'ref2magmean'
p66
(dp67
I0
F11.047533333333332
sI1
Fnan
sI2
Fnan
sI3
Fnan
sI4
Fnan
sI5
Fnan
sI6
Fnan
sI7
Fnan
sI8
Fnan
sI9
Fnan
sI10
Fnan
sI11
Fnan
sI12
Fnan
sI13
Fnan
sI14
Fnan
ssS'ref2flag'
p68
(dp69
I0
g7
sI1
g8
sI2
g9
sI3
g10
sI4
g11
sI5
g12
sI6
g13
sI7
g14
sI8
g15
sI9
g16
sI10
g17
sI11
g18
sI12
g19
sI13
g20
sI14
g21
ssS'ref2'
p70
(dp71
I0
F10069.406666666668
sI1
F10001.856666666667
sI2
F8939.763333333334
sI3
F9859.183333333332
sI4
F10060.140000000001
sI5
F8667.346666666666
sI6
F9955.29
sI7
F10044.42
sI8
F9994.32
sI9
F9894.586666666666
sI10
F7344.636666666667
sI11
F9576.369999999999
sI12
F9677.323333333334
sI13
F9931.876666666667
sI14
F10020.253333333332
ssS'airmass'
p72
(dp73
I0
F1.0067190000000001
sI1
F1.0055290000000001
sI2
F1.017077
sI3
F1.005893
sI4
F1.006473
sI5
F1.01521
sI6
F1.016457
sI7
F1.006023
sI8
F1.005825
sI9
F1.005367
sI10
F1.0146389999999998
sI11
F1.015807
sI12
F1.006097
sI13
F1.005702
sI14
F1.006242
ssS'ref1'
p74
(dp75
I0
F8317.943333333333
sI1
F8224.53
sI2
F7434.14
sI3
F8108.929999999999
sI4
F8372.82
sI5
F7177.0
sI6
F8246.026666666667
sI7
F8302.946666666667
sI8
F8240.956666666667
sI9
F8169.376666666666
sI10
F6030.2733333333335
sI11
F7910.8133333333335
sI12
F8041.073333333334
sI13
F8172.823333333334
sI14
F8331.0
ssS'ref3'
p76
(dp77
I0
F13777.303333333333
sI1
F13610.336666666666
sI2
F12249.256666666666
sI3
F13390.19
sI4
F13710.55
sI5
F11860.03
sI6
F13637.833333333334
sI7
F13767.856666666667
sI8
F13608.206666666667
sI9
F13493.893333333333
sI10
F9979.43
sI11
F13059.019999999999
sI12
F13275.79
sI13
F13500.243333333334
sI14
F13732.566666666668
ssS'ref1bkg'
p78
(dp79
I0
F41.45047
sI1
F38.40384
sI2
F55.81312
sI3
F36.0784
sI4
F42.51699
sI5
F64.28484
sI6
F39.83959
sI7
F46.05958
sI8
F45.55361
sI9
F41.82027
sI10
F92.02163
sI11
F42.59737
sI12
F36.26534
sI13
F36.42006
sI14
F47.69721
ssS'ref1mag'
p80
(dp81
I0
F11.2
sI1
F11.212
sI2
F11.322
sI3
F11.228
sI4
F11.193
sI5
F11.36
sI6
F11.209
sI7
F11.202
sI8
F11.21
sI9
F11.22
sI10
F11.549
sI11
F11.254
sI12
F11.237
sI13
F11.219
sI14
F11.198
ssS'ref3magerr'
p82
(dp83
I0
F0.002
sI1
F0.002
sI2
F0.002
sI3
F0.002
sI4
F0.002
sI5
F0.002
sI6
F0.002
sI7
F0.002
sI8
F0.002
sI9
F0.002
sI10
F0.002
sI11
F0.002
sI12
F0.002
sI13
F0.002
sI14
F0.002
ssS'tabbymagmean'
p84
(dp85
I0
F0.4403385476770411
sI1
Fnan
sI2
Fnan
sI3
Fnan
sI4
Fnan
sI5
Fnan
sI6
Fnan
sI7
Fnan
sI8
Fnan
sI9
Fnan
sI10
Fnan
sI11
Fnan
sI12
Fnan
sI13
Fnan
sI14
Fnan
ssS'ref1magmean'
p86
(dp87
I0
F11.254199999999999
sI1
Fnan
sI2
Fnan
sI3
Fnan
sI4
Fnan
sI5
Fnan
sI6
Fnan
sI7
Fnan
sI8
Fnan
sI9
Fnan
sI10
Fnan
sI11
Fnan
sI12
Fnan
sI13
Fnan
sI14
Fnan
ssS'ref2mag'
p88
(dp89
I0
F10.992
sI1
F11.0
sI2
F11.122
sI3
F11.015
sI4
F10.993
sI5
F11.155
sI6
F11.005
sI7
F10.995
sI8
F11.001
sI9
F11.012
sI10
F11.335
sI11
F11.047
sI12
F11.036
sI13
F11.007
sI14
F10.998
ssS'ref3rms'
p90
(dp91
I0
F3.339926
sI1
F2.404305
sI2
F4.557996
sI3
F4.453445
sI4
F3.118012
sI5
F-5.3539
sI6
F4.346336
sI7
F4.098048
sI8
F3.709996
sI9
F4.973018
sI10
F3.096156
sI11
F2.793702
sI12
F1.765414
sI13
F3.945873
sI14
F3.953215
ssS'ref3magmeanerr'
p92
(dp93
I0
F0.09386758657557906
sI1
Fnan
sI2
Fnan
sI3
Fnan
sI4
Fnan
sI5
Fnan
sI6
Fnan
sI7
Fnan
sI8
Fnan
sI9
Fnan
sI10
Fnan
sI11
Fnan
sI12
Fnan
sI13
Fnan
sI14
Fnan
ssS'ref1rel'
p94
(dp95
I0
F0.6976176867444887
sI1
F0.6966341401575289
sI2
F0.701697388553128
sI3
F0.6975611672400632
sI4
F0.7044658779362315
sI5
F0.6992612954439867
sI6
F0.6990195024341131
sI7
F0.6973668904401273
sI8
F0.6983113954748913
sI9
F0.698581238854912
sI10
F0.696172954002332
sI11
F0.6989774272352571
sI12
F0.7006520829273124
sI13
F0.6975743836522972
sI14
F0.701474603857563
ssS'exposure'
p96
(dp97
I0
F30.0
sI1
F30.0
sI2
F30.0
sI3
F30.0
sI4
F30.0
sI5
F30.0
sI6
F30.0
sI7
F30.0
sI8
F30.0
sI9
F30.0
sI10
F30.0
sI11
F30.0
sI12
F30.0
sI13
F30.0
sI14
F30.0
ssS'ref1magerr'
p98
(dp99
I0
F0.002
sI1
F0.002
sI2
F0.002
sI3
F0.002
sI4
F0.002
sI5
F0.002
sI6
F0.002
sI7
F0.002
sI8
F0.002
sI9
F0.002
sI10
F0.003
sI11
F0.002
sI12
F0.002
sI13
F0.002
sI14
F0.002
ssS'ref2magerr'
p100
(dp101
I0
F0.002
sI1
F0.002
sI2
F0.002
sI3
F0.002
sI4
F0.002
sI5
F0.002
sI6
F0.002
sI7
F0.002
sI8
F0.002
sI9
F0.002
sI10
F0.002
sI11
F0.002
sI12
F0.002
sI13
F0.002
sI14
F0.002
ssS'ref2rms'
p102
(dp103
I0
F-2.363365
sI1
F-2.39264
sI2
F2.917833
sI3
F4.29428
sI4
F3.972758
sI5
F-3.79311
sI6
F2.618665
sI7
F3.5057
sI8
F-2.706062
sI9
F2.452425
sI10
F-5.123359
sI11
F-4.639464
sI12
F4.336948
sI13
F3.711049
sI14
F3.017111
ssS'name'
p104
(dp105
I0
S"KIC8462852-20180826at054502_-25-1X1-030-i'_cal.fts.mag.1"
p106
sI1
S"KIC8462852-20180826at051223_-25-1X1-030-i'_cal.fts.mag.1"
p107
sI2
S"KIC8462852-20180826at043710_-25-1X1-030-i'_cal.fts.mag.1"
p108
sI3
S"KIC8462852-20180826at050959_-25-1X1-030-i'_cal.fts.mag.1"
p109
sI4
S"KIC8462852-20180826at054350_-25-1X1-030-i'_cal.fts.mag.1"
p110
sI5
S"KIC8462852-20180826at044058_-25-1X1-030-i'_cal.fts.mag.1"
p111
sI6
S"KIC8462852-20180826at043828_-25-1X1-030-i'_cal.fts.mag.1"
p112
sI7
S"KIC8462852-20180826at054124_-25-1X1-030-i'_cal.fts.mag.1"
p113
sI8
S"KIC8462852-20180826at054008_-25-1X1-030-i'_cal.fts.mag.1"
p114
sI9
S"KIC8462852-20180826at051335_-25-1X1-030-i'_cal.fts.mag.1"
p115
sI10
S"KIC8462852-20180826at044211_-25-1X1-030-i'_cal.fts.mag.1"
p116
sI11
S"KIC8462852-20180826at043944_-25-1X1-030-i'_cal.fts.mag.1"
p117
sI12
S"KIC8462852-20180826at050846_-25-1X1-030-i'_cal.fts.mag.1"
p118
sI13
S"KIC8462852-20180826at051111_-25-1X1-030-i'_cal.fts.mag.1"
p119
sI14
S"KIC8462852-20180826at054237_-25-1X1-030-i'_cal.fts.mag.1"
p120
ssS'ref3err'
p121
(dp122
I0
F0.0036525327515806406
sI1
Fnan
sI2
Fnan
sI3
Fnan
sI4
Fnan
sI5
Fnan
sI6
Fnan
sI7
Fnan
sI8
Fnan
sI9
Fnan
sI10
Fnan
sI11
Fnan
sI12
Fnan
sI13
Fnan
sI14
Fnan
ssS'tabby'
p123
(dp124
I0
F4739.36
sI1
F4650.7
sI2
F4202.323333333333
sI3
F4615.136666666667
sI4
F4729.3
sI5
F4046.35
sI6
F4662.6900000000005
sI7
F4718.463333333333
sI8
F4714.0
sI9
F4612.483333333334
sI10
F3450.1033333333335
sI11
F4444.4400000000005
sI12
F4545.973333333333
sI13
F4635.916666666667
sI14
F4714.53
ssS'ref1magmeanerr'
p125
(dp126
I0
F0.09427634152547786
sI1
Fnan
sI2
Fnan
sI3
Fnan
sI4
Fnan
sI5
Fnan
sI6
Fnan
sI7
Fnan
sI8
Fnan
sI9
Fnan
sI10
Fnan
sI11
Fnan
sI12
Fnan
sI13
Fnan
sI14
Fnan
ssS'filter'
p127
(dp128
I0
S"i'"
p129
sI1
S"i'"
p130
sI2
S"i'"
p131
sI3
S"i'"
p132
sI4
S"i'"
p133
sI5
S"i'"
p134
sI6
S"i'"
p135
sI7
S"i'"
p136
sI8
S"i'"
p137
sI9
S"i'"
p138
sI10
S"i'"
p139
sI11
S"i'"
p140
sI12
S"i'"
p141
sI13
S"i'"
p142
sI14
S"i'"
p143
ssS'tabbymagerr'
p144
(dp145
I0
F0.002012958319987784
sI1
Fnan
sI2
Fnan
sI3
Fnan
sI4
Fnan
sI5
Fnan
sI6
Fnan
sI7
Fnan
sI8
Fnan
sI9
Fnan
sI10
Fnan
sI11
Fnan
sI12
Fnan
sI13
Fnan
sI14
Fnan
ssS'tabbyrms'
p146
(dp147
I0
F-2.031272
sI1
F-3.436751
sI2
F-2.583798
sI3
F5.446795
sI4
F3.078575
sI5
F-3.07149
sI6
F3.110551
sI7
F4.098711
sI8
F-2.550112
sI9
F-2.665653
sI10
F3.032976
sI11
F3.586625
sI12
F2.090888
sI13
F4.43452
sI14
F4.163635
ssS'ref3mean'
p148
(dp149
I0
F1.4947710595796735
sI1
Fnan
sI2
Fnan
sI3
Fnan
sI4
Fnan
sI5
Fnan
sI6
Fnan
sI7
Fnan
sI8
Fnan
sI9
Fnan
sI10
Fnan
sI11
Fnan
sI12
Fnan
sI13
Fnan
sI14
Fnan
ssS'median_JD'
p150
(dp151
I0
F2458356.716099537
sI1
Fnan
sI2
Fnan
sI3
Fnan
sI4
Fnan
sI5
Fnan
sI6
Fnan
sI7
Fnan
sI8
Fnan
sI9
Fnan
sI10
Fnan
sI11
Fnan
sI12
Fnan
sI13
Fnan
sI14
Fnan
ssS'error'
p152
(dp153
I0
F0.002012958319987784
sI1
Fnan
sI2
Fnan
sI3
Fnan
sI4
Fnan
sI5
Fnan
sI6
Fnan
sI7
Fnan
sI8
Fnan
sI9
Fnan
sI10
Fnan
sI11
Fnan
sI12
Fnan
sI13
Fnan
sI14
Fnan
ssS'ref3bkg'
p154
(dp155
I0
F43.64838
sI1
F40.2425
sI2
F58.3574
sI3
F38.76923
sI4
F44.22794
sI5
F65.86469
sI6
F41.54844
sI7
F47.46143
sI8
F48.53272
sI9
F42.67594
sI10
F94.28021
sI11
F44.8147
sI12
F39.74621
sI13
F39.17131
sI14
F49.3042
ssS'ref3mag'
p156
(dp157
I0
F10.652
sI1
F10.665
sI2
F10.78
sI3
F10.683
sI4
F10.657
sI5
F10.815
sI6
F10.663
sI7
F10.653
sI8
F10.665
sI9
F10.675
sI10
F11.002
sI11
F10.71
sI12
F10.692
sI13
F10.674
sI14
F10.656
ssS'mean'
p158
(dp159
I0
F0.4403385476770411
sI1
Fnan
sI2
Fnan
sI3
Fnan
sI4
Fnan
sI5
Fnan
sI6
Fnan
sI7
Fnan
sI8
Fnan
sI9
Fnan
sI10
Fnan
sI11
Fnan
sI12
Fnan
sI13
Fnan
sI14
Fnan
sssS'r'
p160
(dp161
g3
(dp162
I0
F0.5514726636063764
sI1
Fnan
sI2
Fnan
sI3
Fnan
sI4
Fnan
sI5
Fnan
sI6
Fnan
sI7
Fnan
sI8
Fnan
sI9
Fnan
sI10
Fnan
sI11
Fnan
sI12
Fnan
sI13
Fnan
sI14
Fnan
ssg5
(dp163
I0
S'NoError'
p164
sI1
S'NoError'
p165
sI2
S'NoError'
p166
sI3
S'NoError'
p167
sI4
S'NoError'
p168
sI5
S'NoError'
p169
sI6
S'NoError'
p170
sI7
S'NoError'
p171
sI8
S'NoError'
p172
sI9
S'NoError'
p173
sI10
S'NoError'
p174
sI11
S'NoError'
p175
sI12
S'NoError'
p176
sI13
S'NoError'
p177
sI14
S'NoError'
p178
ssg22
(dp179
I0
F0.002
sI1
F0.002
sI2
F0.003
sI3
F0.002
sI4
F0.002
sI5
F0.002
sI6
F0.002
sI7
F0.003
sI8
F0.002
sI9
F0.002
sI10
F0.002
sI11
F0.002
sI12
F0.002
sI13
F0.002
sI14
F0.002
ssg24
(dp180
I0
F0.8983787211546225
sI1
F0.8948420223707035
sI2
F0.8861424042306918
sI3
F0.8947554227957982
sI4
F0.8942400575452883
sI5
F0.8956821822740886
sI6
F0.8960573349668807
sI7
F0.8962605472389902
sI8
F0.8944068625449341
sI9
F0.8983890693566642
sI10
F0.8953952357982825
sI11
F0.8968926156351437
sI12
F0.8967839079874608
sI13
F0.8973229830337627
sI14
F0.8939183862695197
ssg26
(dp181
I0
F0.0028995185496872924
sI1
Fnan
sI2
Fnan
sI3
Fnan
sI4
Fnan
sI5
Fnan
sI6
Fnan
sI7
Fnan
sI8
Fnan
sI9
Fnan
sI10
Fnan
sI11
Fnan
sI12
Fnan
sI13
Fnan
sI14
Fnan
ssg28
(dp182
I0
F0.8952978502135219
sI1
Fnan
sI2
Fnan
sI3
Fnan
sI4
Fnan
sI5
Fnan
sI6
Fnan
sI7
Fnan
sI8
Fnan
sI9
Fnan
sI10
Fnan
sI11
Fnan
sI12
Fnan
sI13
Fnan
sI14
Fnan
ssg30
(dp183
I0
F11.21
sI1
F11.204
sI2
F11.459
sI3
F11.137
sI4
F11.208
sI5
F11.106
sI6
F11.168
sI7
F11.815
sI8
F11.115
sI9
F11.195
sI10
F11.104
sI11
F11.106
sI12
F11.108
sI13
F11.226
sI14
F11.109
ssg32
(dp184
I0
F100.3168
sI1
F94.19513
sI2
F165.5957
sI3
F81.49
sI4
F97.06272
sI5
F86.25594
sI6
F94.24551
sI7
F197.7395
sI8
F86.60504
sI9
F98.24966
sI10
F82.27455
sI11
F83.8129
sI12
F83.16534
sI13
F112.777
sI14
F83.03844
ssg34
(dp185
I0
F2458356.6915972224
sI1
F2458356.689791667
sI2
F2458356.6889467593
sI3
F2458356.713576389
sI4
F2458356.6906481483
sI5
F2458356.732800926
sI6
F2458356.711886574
sI7
F2458356.688113426
sI8
F2458356.733634259
sI9
F2458356.7127314815
sI10
F2458356.7319328706
sI11
F2458356.7344907406
sI12
F2458356.7110416666
sI13
F2458356.710185185
sI14
F2458356.735347222
ssg36
(dp186
I0
F1.8916247333333336
sI1
Fnan
sI2
Fnan
sI3
Fnan
sI4
Fnan
sI5
Fnan
sI6
Fnan
sI7
Fnan
sI8
Fnan
sI9
Fnan
sI10
Fnan
sI11
Fnan
sI12
Fnan
sI13
Fnan
sI14
Fnan
ssg38
(dp187
I0
F-0.2898082
sI1
Fnan
sI2
Fnan
sI3
Fnan
sI4
Fnan
sI5
Fnan
sI6
Fnan
sI7
Fnan
sI8
Fnan
sI9
Fnan
sI10
Fnan
sI11
Fnan
sI12
Fnan
sI13
Fnan
sI14
Fnan
ssg40
(dp188
I0
F0.555320043155975
sI1
F0.5502390174332498
sI2
F0.5490701331265173
sI3
F0.5537663851265884
sI4
F0.5505935658151604
sI5
F0.5493819393804174
sI6
F0.5549096208539915
sI7
F0.5467878848115206
sI8
F0.551974575044429
sI9
F0.5538558361150874
sI10
F0.5512039333991451
sI11
F0.5505621106774797
sI12
F0.5506838737098707
sI13
F0.5525759951643722
sI14
F0.5503276410365844
ssg42
(dp189
I0
F0.0017430116599731205
sI1
Fnan
sI2
Fnan
sI3
Fnan
sI4
Fnan
sI5
Fnan
sI6
Fnan
sI7
Fnan
sI8
Fnan
sI9
Fnan
sI10
Fnan
sI11
Fnan
sI12
Fnan
sI13
Fnan
sI14
Fnan
ssg44
(dp190
I0
F3.0865786666666666
sI1
Fnan
sI2
Fnan
sI3
Fnan
sI4
Fnan
sI5
Fnan
sI6
Fnan
sI7
Fnan
sI8
Fnan
sI9
Fnan
sI10
Fnan
sI11
Fnan
sI12
Fnan
sI13
Fnan
sI14
Fnan
ssg46
(dp191
I0
g164
sI1
g165
sI2
g166
sI3
g167
sI4
g168
sI5
g169
sI6
g170
sI7
g171
sI8
g172
sI9
g173
sI10
g174
sI11
g175
sI12
g176
sI13
g177
sI14
g178
ssg48
(dp192
I0
F0.0029608361486284708
sI1
Fnan
sI2
Fnan
sI3
Fnan
sI4
Fnan
sI5
Fnan
sI6
Fnan
sI7
Fnan
sI8
Fnan
sI9
Fnan
sI10
Fnan
sI11
Fnan
sI12
Fnan
sI13
Fnan
sI14
Fnan
ssg50
(dp193
I0
F0.18680058121659346
sI1
Fnan
sI2
Fnan
sI3
Fnan
sI4
Fnan
sI5
Fnan
sI6
Fnan
sI7
Fnan
sI8
Fnan
sI9
Fnan
sI10
Fnan
sI11
Fnan
sI12
Fnan
sI13
Fnan
sI14
Fnan
ssg52
(dp194
I0
F2.9101061333333336
sI1
Fnan
sI2
Fnan
sI3
Fnan
sI4
Fnan
sI5
Fnan
sI6
Fnan
sI7
Fnan
sI8
Fnan
sI9
Fnan
sI10
Fnan
sI11
Fnan
sI12
Fnan
sI13
Fnan
sI14
Fnan
ssg54
(dp195
I0
F1.4851925447393015
sI1
F1.4921746305974415
sI2
F1.5168604471242069
sI3
F1.4928083701084824
sI4
F1.4900676959288335
sI5
F1.4887829881648647
sI6
F1.486679328099835
sI7
F1.4935893226442234
sI8
F1.489988968337368
sI9
F1.4872044756336886
sI10
F1.4929036656833348
sI11
F1.482038403120883
sI12
F1.4969721710144852
sI13
F1.4950133681305195
sI14
F1.494729235668895
ssg56
(dp196
I0
g164
sI1
g165
sI2
g166
sI3
g167
sI4
g168
sI5
g169
sI6
g170
sI7
g171
sI8
g172
sI9
g173
sI10
g174
sI11
g175
sI12
g176
sI13
g177
sI14
g178
ssg58
(dp197
I0
F103.6464
sI1
F95.57053
sI2
F167.42
sI3
F84.07098
sI4
F97.85533
sI5
F88.42754
sI6
F96.00684
sI7
F198.2006
sI8
F89.90129
sI9
F100.6191
sI10
F84.60683
sI11
F85.74498
sI12
F86.67074
sI13
F114.1234
sI14
F84.17258
ssg60
(dp198
I0
F10.301933333333332
sI1
Fnan
sI2
Fnan
sI3
Fnan
sI4
Fnan
sI5
Fnan
sI6
Fnan
sI7
Fnan
sI8
Fnan
sI9
Fnan
sI10
Fnan
sI11
Fnan
sI12
Fnan
sI13
Fnan
sI14
Fnan
ssg62
(dp199
I0
F0.7154077793244642
sI1
Fnan
sI2
Fnan
sI3
Fnan
sI4
Fnan
sI5
Fnan
sI6
Fnan
sI7
Fnan
sI8
Fnan
sI9
Fnan
sI10
Fnan
sI11
Fnan
sI12
Fnan
sI13
Fnan
sI14
Fnan
ssg64
(dp200
I0
F5.929535
sI1
F3.243073
sI2
F-3.072843
sI3
F-3.626101
sI4
F-4.570376
sI5
F-5.202197
sI6
F4.20306
sI7
F-5.760627
sI8
F3.342278
sI9
F-2.279157
sI10
F1.990422
sI11
F4.052944
sI12
F-4.084941
sI13
F5.301173
sI14
F-3.813366
ssg66
(dp201
I0
F10.6532
sI1
Fnan
sI2
Fnan
sI3
Fnan
sI4
Fnan
sI5
Fnan
sI6
Fnan
sI7
Fnan
sI8
Fnan
sI9
Fnan
sI10
Fnan
sI11
Fnan
sI12
Fnan
sI13
Fnan
sI14
Fnan
ssg68
(dp202
I0
g164
sI1
g165
sI2
g166
sI3
g167
sI4
g168
sI5
g169
sI6
g170
sI7
g171
sI8
g172
sI9
g173
sI10
g174
sI11
g175
sI12
g176
sI13
g177
sI14
g178
ssg70
(dp203
I0
F13798.630000000001
sI1
F13971.283333333333
sI2
F10991.116666666667
sI3
F14763.346666666668
sI4
F13902.906666666668
sI5
F15324.01
sI6
F14326.506666666666
sI7
F8012.16
sI8
F15113.606666666667
sI9
F14026.756666666666
sI10
F15298.82
sI11
F15304.073333333334
sI12
F15266.640000000001
sI13
F13649.703333333333
sI14
F15232.756666666666
ssg72
(dp204
I0
F1.0177889999999998
sI1
F1.019216
sI2
F1.019916
sI3
F1.00632
sI4
F1.018546
sI5
F1.005163
sI6
F1.006812
sI7
F1.020643
sI8
F1.0053040000000002
sI9
F1.006559
sI10
F1.0050379999999999
sI11
F1.005459
sI12
F1.007085
sI13
F1.007374
sI14
F1.00563
ssg74
(dp205
I0
F11748.073333333334
sI1
F11913.756666666666
sI2
F9366.686666666666
sI3
F12586.04
sI4
F11882.986666666666
sI5
F13076.453333333333
sI6
F12233.59
sI7
F6809.986666666667
sI8
F12914.806666666667
sI9
F11927.109999999999
sI10
F13027.776666666667
sI11
F13087.890000000001
sI12
F12937.286666666665
sI13
F11570.726666666666
sI14
F12988.956666666667
ssg76
(dp206
I0
F18970.886666666665
sI1
F19312.5
sI2
F15439.973333333333
sI3
F20413.696666666667
sI4
F19211.363333333335
sI5
F21141.063333333335
sI6
F19743.173333333332
sI7
F11069.1
sI8
F20881.013333333332
sI9
F19299.353333333333
sI10
F21144.44
sI11
F21038.989999999998
sI12
F21110.246666666666
sI13
F18852.44
sI14
F21091.91
ssg78
(dp207
I0
F103.1624
sI1
F95.85607
sI2
F168.6244
sI3
F83.30299
sI4
F97.70237
sI5
F87.79099
sI6
F95.65402
sI7
F198.2686
sI8
F87.79048
sI9
F99.77074
sI10
F83.85458
sI11
F83.80807
sI12
F84.87549
sI13
F114.8685
sI14
F84.92929
ssg80
(dp208
I0
F10.825
sI1
F10.81
sI2
F11.071
sI3
F10.75
sI4
F10.813
sI5
F10.709
sI6
F10.781
sI7
F11.417
sI8
F10.722
sI9
F10.809
sI10
F10.713
sI11
F10.708
sI12
F10.72
sI13
F10.842
sI14
F10.716
ssg82
(dp209
I0
F0.001
sI1
F0.001
sI2
F0.002
sI3
F0.001
sI4
F0.001
sI5
F0.001
sI6
F0.001
sI7
F0.002
sI8
F0.001
sI9
F0.001
sI10
F0.001
sI11
F0.001
sI12
F0.001
sI13
F0.001
sI14
F0.001
ssg84
(dp210
I0
F0.551416836990026
sI1
Fnan
sI2
Fnan
sI3
Fnan
sI4
Fnan
sI5
Fnan
sI6
Fnan
sI7
Fnan
sI8
Fnan
sI9
Fnan
sI10
Fnan
sI11
Fnan
sI12
Fnan
sI13
Fnan
sI14
Fnan
ssg86
(dp211
I0
F10.827066666666667
sI1
Fnan
sI2
Fnan
sI3
Fnan
sI4
Fnan
sI5
Fnan
sI6
Fnan
sI7
Fnan
sI8
Fnan
sI9
Fnan
sI10
Fnan
sI11
Fnan
sI12
Fnan
sI13
Fnan
sI14
Fnan
ssg88
(dp212
I0
F10.65
sI1
F10.637
sI2
F10.897
sI3
F10.577
sI4
F10.642
sI5
F10.537
sI6
F10.61
sI7
F11.241
sI8
F10.552
sI9
F10.633
sI10
F10.538
sI11
F10.538
sI12
F10.541
sI13
F10.662
sI14
F10.543
ssg90
(dp213
I0
F6.210599
sI1
F5.713864
sI2
F7.620736
sI3
F4.242002
sI4
F5.970584
sI5
F-3.771963
sI6
F-2.253642
sI7
F-6.955375
sI8
F-4.207066
sI9
F6.017765
sI10
F4.229461
sI11
F3.656943
sI12
F4.331067
sI13
F-5.364012
sI14
F2.933408
ssg92
(dp214
I0
F0.18502295867836327
sI1
Fnan
sI2
Fnan
sI3
Fnan
sI4
Fnan
sI5
Fnan
sI6
Fnan
sI7
Fnan
sI8
Fnan
sI9
Fnan
sI10
Fnan
sI11
Fnan
sI12
Fnan
sI13
Fnan
sI14
Fnan
ssg94
(dp215
I0
F0.7170123046266068
sI1
F0.7158895698455754
sI2
F0.7087627991631572
sI3
F0.7155825963391087
sI4
F0.7176958251935897
sI5
F0.717204280040755
sI6
F0.7181511537531318
sI7
F0.7137879434237221
sI8
F0.7175965000695476
sI9
F0.7157817098965344
sI10
F0.7149621996861241
sI11
F0.7202414325925013
sI12
F0.7112915838683647
sI13
F0.7119977626090914
sI14
F0.7151590287591536
ssg96
(dp216
I0
F30.0
sI1
F30.0
sI2
F30.0
sI3
F30.0
sI4
F30.0
sI5
F30.0
sI6
F30.0
sI7
F30.0
sI8
F30.0
sI9
F30.0
sI10
F30.0
sI11
F30.0
sI12
F30.0
sI13
F30.0
sI14
F30.0
ssg98
(dp217
I0
F0.002
sI1
F0.002
sI2
F0.002
sI3
F0.002
sI4
F0.002
sI5
F0.002
sI6
F0.002
sI7
F0.003
sI8
F0.002
sI9
F0.002
sI10
F0.002
sI11
F0.002
sI12
F0.002
sI13
F0.002
sI14
F0.002
ssg100
(dp218
I0
F0.002
sI1
F0.002
sI2
F0.002
sI3
F0.002
sI4
F0.002
sI5
F0.002
sI6
F0.002
sI7
F0.002
sI8
F0.002
sI9
F0.002
sI10
F0.002
sI11
F0.002
sI12
F0.002
sI13
F0.002
sI14
F0.002
ssg102
(dp219
I0
F6.51473
sI1
F-2.749789
sI2
F6.107408
sI3
F-3.372392
sI4
F5.257004
sI5
F3.695302
sI6
F5.038701
sI7
F1.76673
sI8
F3.419845
sI9
F-3.901718
sI10
F4.521729
sI11
F3.731927
sI12
F5.206089
sI13
F5.748682
sI14
F2.667344
ssg104
(dp220
I0
S"KIC8462852-20180826at043554_-25-1X1-030-r'_cal.fts.mag.1"
p221
sI1
S"KIC8462852-20180826at043318_-25-1X1-030-r'_cal.fts.mag.1"
p222
sI2
S"KIC8462852-20180826at043205_-25-1X1-030-r'_cal.fts.mag.1"
p223
sI3
S"KIC8462852-20180826at050732_-25-1X1-030-r'_cal.fts.mag.1"
p224
sI4
S"KIC8462852-20180826at043432_-25-1X1-030-r'_cal.fts.mag.1"
p225
sI5
S"KIC8462852-20180826at053514_-25-1X1-030-r'_cal.fts.mag.1"
p226
sI6
S"KIC8462852-20180826at050507_-25-1X1-030-r'_cal.fts.mag.1"
p227
sI7
S"KIC8462852-20180826at043051_-25-1X1-030-r'_cal.fts.mag.1"
p228
sI8
S"KIC8462852-20180826at053626_-25-1X1-030-r'_cal.fts.mag.1"
p229
sI9
S"KIC8462852-20180826at050620_-25-1X1-030-r'_cal.fts.mag.1"
p230
sI10
S"KIC8462852-20180826at053354_-25-1X1-030-r'_cal.fts.mag.1"
p231
sI11
S"KIC8462852-20180826at053740_-25-1X1-030-r'_cal.fts.mag.1"
p232
sI12
S"KIC8462852-20180826at050354_-25-1X1-030-r'_cal.fts.mag.1"
p233
sI13
S"KIC8462852-20180826at050239_-25-1X1-030-r'_cal.fts.mag.1"
p234
sI14
S"KIC8462852-20180826at053854_-25-1X1-030-r'_cal.fts.mag.1"
p235
ssg121
(dp236
I0
F0.007913181634809181
sI1
Fnan
sI2
Fnan
sI3
Fnan
sI4
Fnan
sI5
Fnan
sI6
Fnan
sI7
Fnan
sI8
Fnan
sI9
Fnan
sI10
Fnan
sI11
Fnan
sI12
Fnan
sI13
Fnan
sI14
Fnan
ssg123
(dp237
I0
F8240.503333333334
sI1
F8289.816666666668
sI2
F6551.83
sI3
F8816.53
sI4
F8258.4
sI5
F9072.406666666668
sI6
F8564.71
sI7
F4719.006666666667
sI8
F8998.92
sI9
F8354.586666666666
sI10
F9089.543333333333
sI11
F9071.603333333333
sI12
F9052.173333333334
sI13
F8117.87
sI14
F9046.216666666667
ssg125
(dp238
I0
F0.1875775902951959
sI1
Fnan
sI2
Fnan
sI3
Fnan
sI4
Fnan
sI5
Fnan
sI6
Fnan
sI7
Fnan
sI8
Fnan
sI9
Fnan
sI10
Fnan
sI11
Fnan
sI12
Fnan
sI13
Fnan
sI14
Fnan
ssg127
(dp239
I0
S"r'"
p240
sI1
S"r'"
p241
sI2
S"r'"
p242
sI3
S"r'"
p243
sI4
S"r'"
p244
sI5
S"r'"
p245
sI6
S"r'"
p246
sI7
S"r'"
p247
sI8
S"r'"
p248
sI9
S"r'"
p249
sI10
S"r'"
p250
sI11
S"r'"
p251
sI12
S"r'"
p252
sI13
S"r'"
p253
sI14
S"r'"
p254
ssg144
(dp255
I0
F0.0023329609940623947
sI1
Fnan
sI2
Fnan
sI3
Fnan
sI4
Fnan
sI5
Fnan
sI6
Fnan
sI7
Fnan
sI8
Fnan
sI9
Fnan
sI10
Fnan
sI11
Fnan
sI12
Fnan
sI13
Fnan
sI14
Fnan
ssg146
(dp256
I0
F4.420053
sI1
F3.819095
sI2
F5.187172
sI3
F5.222852
sI4
F-3.707593
sI5
F4.724853
sI6
F4.630167
sI7
F6.350137
sI8
F4.484244
sI9
F5.385935
sI10
F-4.372372
sI11
F4.456053
sI12
F5.828484
sI13
F2.85592
sI14
F-2.98632
ssg148
(dp257
I0
F1.492333707666424
sI1
Fnan
sI2
Fnan
sI3
Fnan
sI4
Fnan
sI5
Fnan
sI6
Fnan
sI7
Fnan
sI8
Fnan
sI9
Fnan
sI10
Fnan
sI11
Fnan
sI12
Fnan
sI13
Fnan
sI14
Fnan
ssg150
(dp258
I0
F2458356.711886574
sI1
Fnan
sI2
Fnan
sI3
Fnan
sI4
Fnan
sI5
Fnan
sI6
Fnan
sI7
Fnan
sI8
Fnan
sI9
Fnan
sI10
Fnan
sI11
Fnan
sI12
Fnan
sI13
Fnan
sI14
Fnan
ssg152
(dp259
I0
F0.0023329609940623947
sI1
Fnan
sI2
Fnan
sI3
Fnan
sI4
Fnan
sI5
Fnan
sI6
Fnan
sI7
Fnan
sI8
Fnan
sI9
Fnan
sI10
Fnan
sI11
Fnan
sI12
Fnan
sI13
Fnan
sI14
Fnan
ssg154
(dp260
I0
F106.0488
sI1
F98.76036
sI2
F163.876
sI3
F84.74182
sI4
F99.94173
sI5
F90.97502
sI6
F97.83205
sI7
F199.8144
sI8
F93.20898
sI9
F103.1847
sI10
F86.31625
sI11
F88.30735
sI12
F87.75349
sI13
F118.6098
sI14
F87.44205
ssg156
(dp261
I0
F10.305
sI1
F10.285
sI2
F10.528
sI3
F10.225
sI4
F10.291
sI5
F10.187
sI6
F10.261
sI7
F10.89
sI8
F10.201
sI9
F10.286
sI10
F10.187
sI11
F10.192
sI12
F10.189
sI13
F10.312
sI14
F10.19
ssg158
(dp262
I0
F0.551416836990026
sI1
Fnan
sI2
Fnan
sI3
Fnan
sI4
Fnan
sI5
Fnan
sI6
Fnan
sI7
Fnan
sI8
Fnan
sI9
Fnan
sI10
Fnan
sI11
Fnan
sI12
Fnan
sI13
Fnan
sI14
Fnan
sssS'z'
p263
(dp264
g3
(dp265
I0
F0.3725654609251761
sI1
Fnan
sI2
Fnan
sI3
Fnan
sI4
Fnan
sI5
Fnan
sI6
Fnan
sI7
Fnan
sI8
Fnan
sI9
Fnan
sI10
Fnan
sI11
Fnan
sI12
Fnan
ssg5
(dp266
I0
S'NoError'
p267
sI1
S'NoError'
p268
sI2
S'NoError'
p269
sI3
S'NoError'
p270
sI4
S'NoError'
p271
sI5
S'NoError'
p272
sI6
S'NoError'
p273
sI7
S'NoError'
p274
sI8
S'NoError'
p275
sI9
S'NoError'
p276
sI10
S'NoError'
p277
sI11
S'NoError'
p278
sI12
S'NoError'
p279
ssg22
(dp280
I0
F0.007
sI1
F0.01
sI2
F0.012
sI3
F0.012
sI4
F0.008
sI5
F0.007
sI6
F0.015
sI7
F0.007
sI8
F0.007
sI9
F0.007
sI10
F0.007
sI11
F0.012
sI12
F0.009
ssg24
(dp281
I0
F0.9183695559940397
sI1
F0.9121951043342019
sI2
F0.9207612487103434
sI3
F0.9242735051476867
sI4
F0.9163764682731121
sI5
F0.9286821456330159
sI6
F0.9184880843756376
sI7
F0.9190034226494498
sI8
F0.9189096887598411
sI9
F0.9176811195241151
sI10
F0.9087550917809544
sI11
F0.926282779610063
sI12
F0.9189927743256341
ssg26
(dp282
I0
F0.005307292670699012
sI1
Fnan
sI2
Fnan
sI3
Fnan
sI4
Fnan
sI5
Fnan
sI6
Fnan
sI7
Fnan
sI8
Fnan
sI9
Fnan
sI10
Fnan
sI11
Fnan
sI12
Fnan
ssg28
(dp283
I0
F0.919136229932161
sI1
Fnan
sI2
Fnan
sI3
Fnan
sI4
Fnan
sI5
Fnan
sI6
Fnan
sI7
Fnan
sI8
Fnan
sI9
Fnan
sI10
Fnan
sI11
Fnan
sI12
Fnan
ssg30
(dp284
I0
F13.243
sI1
F13.62
sI2
F13.842
sI3
F13.785
sI4
F13.37
sI5
F13.239
sI6
F14.033
sI7
F13.222
sI8
F13.213
sI9
F13.23
sI10
F13.197
sI11
F13.79
sI12
F13.577
ssg32
(dp285
I0
F19.7744
sI1
F40.92781
sI2
F52.21365
sI3
F52.75848
sI4
F26.90352
sI5
F15.67136
sI6
F63.18154
sI7
F15.72022
sI8
F17.33204
sI9
F18.48795
sI10
F16.9842
sI11
F53.52571
sI12
F39.63402
ssg34
(dp286
I0
F2458356.740451389
sI1
F2458356.69681713
sI2
F2458356.7001967593
sI3
F2458356.743900463
sI4
F2458356.7412962965
sI5
F2458356.7211342594
sI6
F2458356.697650463
sI7
F2458356.7219675924
sI8
F2458356.7203125
sI9
F2458356.7194791664
sI10
F2458356.7186342594
sI11
F2458356.7430324075
sI12
F2458356.7421875
ssg36
(dp287
I0
F2.5334596153846154
sI1
Fnan
sI2
Fnan
sI3
Fnan
sI4
Fnan
sI5
Fnan
sI6
Fnan
sI7
Fnan
sI8
Fnan
sI9
Fnan
sI10
Fnan
sI11
Fnan
sI12
Fnan
ssg38
(dp288
I0
F0.47909761538461554
sI1
Fnan
sI2
Fnan
sI3
Fnan
sI4
Fnan
sI5
Fnan
sI6
Fnan
sI7
Fnan
sI8
Fnan
sI9
Fnan
sI10
Fnan
sI11
Fnan
sI12
Fnan
ssg40
(dp289
I0
F0.36554430958728784
sI1
F0.377033747990879
sI2
F0.37225441807375026
sI3
F0.3783268508454322
sI4
F0.37496337504541055
sI5
F0.3660461895583258
sI6
F0.37043488820850035
sI7
F0.3697498504154786
sI8
F0.36827942458033086
sI9
F0.3704877529674722
sI10
F0.37694487525027026
sI11
F0.3763774140424915
sI12
F0.36988674412377126
ssg42
(dp290
I0
F0.0038464984369403583
sI1
Fnan
sI2
Fnan
sI3
Fnan
sI4
Fnan
sI5
Fnan
sI6
Fnan
sI7
Fnan
sI8
Fnan
sI9
Fnan
sI10
Fnan
sI11
Fnan
sI12
Fnan
ssg44
(dp291
I0
F-0.06789484615384617
sI1
Fnan
sI2
Fnan
sI3
Fnan
sI4
Fnan
sI5
Fnan
sI6
Fnan
sI7
Fnan
sI8
Fnan
sI9
Fnan
sI10
Fnan
sI11
Fnan
sI12
Fnan
ssg46
(dp292
I0
g267
sI1
g268
sI2
g269
sI3
g270
sI4
g271
sI5
g272
sI6
g273
sI7
g274
sI8
g275
sI9
g276
sI10
g277
sI11
g278
sI12
g279
ssg48
(dp293
I0
F0.006954608016060603
sI1
Fnan
sI2
Fnan
sI3
Fnan
sI4
Fnan
sI5
Fnan
sI6
Fnan
sI7
Fnan
sI8
Fnan
sI9
Fnan
sI10
Fnan
sI11
Fnan
sI12
Fnan
ssg50
(dp294
I0
F0.3016462098177862
sI1
Fnan
sI2
Fnan
sI3
Fnan
sI4
Fnan
sI5
Fnan
sI6
Fnan
sI7
Fnan
sI8
Fnan
sI9
Fnan
sI10
Fnan
sI11
Fnan
sI12
Fnan
ssg52
(dp295
I0
F1.4055858461538462
sI1
Fnan
sI2
Fnan
sI3
Fnan
sI4
Fnan
sI5
Fnan
sI6
Fnan
sI7
Fnan
sI8
Fnan
sI9
Fnan
sI10
Fnan
sI11
Fnan
sI12
Fnan
ssg54
(dp296
I0
F1.5009948892468123
sI1
F1.4864256693677516
sI2
F1.5208538417801944
sI3
F1.4848609447340302
sI4
F1.486049761628827
sI5
F1.4927778284587683
sI6
F1.5020470802555306
sI7
F1.5029766347207363
sI8
F1.5085143001506727
sI9
F1.4987833063705522
sI10
F1.514820596471759
sI11
F1.4970728930255306
sI12
F1.4974580180820256
ssg56
(dp297
I0
g267
sI1
g268
sI2
g269
sI3
g270
sI4
g271
sI5
g272
sI6
g273
sI7
g274
sI8
g275
sI9
g276
sI10
g277
sI11
g278
sI12
g279
ssg58
(dp298
I0
F20.65643
sI1
F41.15547
sI2
F51.15813
sI3
F53.25617
sI4
F27.42984
sI5
F15.35946
sI6
F62.05893
sI7
F15.66602
sI8
F17.77349
sI9
F19.7701
sI10
F19.45956
sI11
F51.89135
sI12
F38.65296
ssg60
(dp299
I0
F12.143076923076924
sI1
Fnan
sI2
Fnan
sI3
Fnan
sI4
Fnan
sI5
Fnan
sI6
Fnan
sI7
Fnan
sI8
Fnan
sI9
Fnan
sI10
Fnan
sI11
Fnan
sI12
Fnan
ssg62
(dp300
I0
F0.6905386800651332
sI1
Fnan
sI2
Fnan
sI3
Fnan
sI4
Fnan
sI5
Fnan
sI6
Fnan
sI7
Fnan
sI8
Fnan
sI9
Fnan
sI10
Fnan
sI11
Fnan
sI12
Fnan
ssg64
(dp301
I0
F-1.844302
sI1
F2.558572
sI2
F-2.966952
sI3
F-4.854009
sI4
F4.08175
sI5
F3.740556
sI6
F-0.683303
sI7
F3.065051
sI8
F1.788902
sI9
F3.742018
sI10
F-3.220712
sI11
F-3.353314
sI12
F4.174012
ssg66
(dp302
I0
F12.477538461538462
sI1
Fnan
sI2
Fnan
sI3
Fnan
sI4
Fnan
sI5
Fnan
sI6
Fnan
sI7
Fnan
sI8
Fnan
sI9
Fnan
sI10
Fnan
sI11
Fnan
sI12
Fnan
ssg68
(dp303
I0
g267
sI1
g268
sI2
g269
sI3
g270
sI4
g271
sI5
g272
sI6
g273
sI7
g274
sI8
g275
sI9
g276
sI10
g277
sI11
g278
sI12
g279
ssg70
(dp304
I0
F3272.1026666666667
sI1
F2231.1363333333334
sI2
F1854.2096666666666
sI3
F1927.8416666666667
sI4
F2834.3953333333334
sI5
F3304.328
sI6
F1560.0953333333334
sI7
F3300.212666666667
sI8
F3340.9266666666667
sI9
F3266.9126666666666
sI10
F3287.1730000000002
sI11
F1931.4683333333335
sI12
F2378.432333333333
ssg72
(dp305
I0
F1.006987
sI1
F1.0140719999999999
sI2
F1.011978
sI3
F1.008242
sI4
F1.00727
sI5
F1.004889
sI6
F1.01352
sI7
F1.004808
sI8
F1.004981
sI9
F1.0050940000000002
sI10
F1.00522
sI11
F1.007909
sI12
F1.007584
ssg74
(dp306
I0
F2667.922
sI1
F1854.9583333333333
sI2
F1486.8933333333334
sI3
F1572.6850000000002
sI4
F2340.797
sI5
F2662.5523333333335
sI6
F1270.9286666666667
sI7
F2684.6220000000003
sI8
F2708.601666666667
sI9
F2670.49
sI10
F2699.833
sI11
F1558.2116666666666
sI12
F1941.622
ssg76
(dp307
I0
F4457.973333333333
sI1
F3036.838
sI2
F2540.6646666666666
sI3
F2598.8976666666663
sI4
F3845.2966666666666
sI5
F4453.613333333333
sI6
F2126.1656666666668
sI7
F4497.533333333334
sI8
F4562.9
sI9
F4449.4400000000005
sI10
F4534.62
sI11
F2612.152666666667
sI12
F3234.55
ssg78
(dp308
I0
F19.39544
sI1
F41.43687
sI2
F53.52456
sI3
F53.96188
sI4
F26.94314
sI5
F15.92955
sI6
F61.34005
sI7
F16.48806
sI8
F17.37629
sI9
F18.5857
sI10
F18.03533
sI11
F52.97461
sI12
F39.8681
ssg80
(dp309
I0
F12.435
sI1
F12.829
sI2
F13.069
sI3
F13.008
sI4
F12.577
sI5
F12.437
sI6
F13.24
sI7
F12.428
sI8
F12.418
sI9
F12.434
sI10
F12.422
sI11
F13.018
sI12
F12.78
ssg82
(dp310
I0
F0.003
sI1
F0.004
sI2
F0.005
sI3
F0.004
sI4
F0.003
sI5
F0.003
sI6
F0.005
sI7
F0.003
sI8
F0.003
sI9
F0.003
sI10
F0.003
sI11
F0.004
sI12
F0.004
ssg84
(dp311
I0
F0.37202537236072314
sI1
Fnan
sI2
Fnan
sI3
Fnan
sI4
Fnan
sI5
Fnan
sI6
Fnan
sI7
Fnan
sI8
Fnan
sI9
Fnan
sI10
Fnan
sI11
Fnan
sI12
Fnan
ssg86
(dp312
I0
F12.699615384615385
sI1
Fnan
sI2
Fnan
sI3
Fnan
sI4
Fnan
sI5
Fnan
sI6
Fnan
sI7
Fnan
sI8
Fnan
sI9
Fnan
sI10
Fnan
sI11
Fnan
sI12
Fnan
ssg88
(dp313
I0
F12.213
sI1
F12.629
sI2
F12.83
sI3
F12.787
sI4
F12.369
sI5
F12.202
sI6
F13.017
sI7
F12.204
sI8
F12.19
sI9
F12.215
sI10
F12.208
sI11
F12.785
sI12
F12.559
ssg90
(dp314
I0
F3.412986
sI1
F2.891213
sI2
F3.533123
sI3
F-4.620077
sI4
F4.065924
sI5
F4.046644
sI6
F5.546808
sI7
F2.005235
sI8
F3.160443
sI9
F-3.1408
sI10
F3.30759
sI11
F4.162831
sI12
F4.563055
ssg92
(dp315
I0
F0.3030790495174651
sI1
Fnan
sI2
Fnan
sI3
Fnan
sI4
Fnan
sI5
Fnan
sI6
Fnan
sI7
Fnan
sI8
Fnan
sI9
Fnan
sI10
Fnan
sI11
Fnan
sI12
Fnan
ssg94
(dp316
I0
F0.6902705743125941
sI1
F0.7042397004844936
sI2
F0.6766488507104071
sI3
F0.6948423066551658
sI4
F0.7008697407006191
sI5
F0.6864069265110883
sI6
F0.6895489313787964
sI7
F0.6885635926074022
sI8
F0.685389946135796
sI9
F0.6921638020864606
sI10
F0.6903360904590546
sI11
F0.6858898075639084
sI12
F0.6918325712409452
ssg96
(dp317
I0
F30.0
sI1
F30.0
sI2
F30.0
sI3
F30.0
sI4
F30.0
sI5
F30.0
sI6
F30.0
sI7
F30.0
sI8
F30.0
sI9
F30.0
sI10
F30.0
sI11
F30.0
sI12
F30.0
ssg98
(dp318
I0
F0.004
sI1
F0.006
sI2
F0.007
sI3
F0.007
sI4
F0.005
sI5
F0.004
sI6
F0.008
sI7
F0.004
sI8
F0.004
sI9
F0.004
sI10
F0.004
sI11
F0.007
sI12
F0.005
ssg100
(dp319
I0
F0.004
sI1
F0.005
sI2
F0.006
sI3
F0.005
sI4
F0.004
sI5
F0.004
sI6
F0.007
sI7
F0.004
sI8
F0.004
sI9
F0.004
sI10
F0.004
sI11
F0.006
sI12
F0.005
ssg102
(dp320
I0
F3.773874
sI1
F3.380919
sI2
F4.907255
sI3
F-3.194911
sI4
F-2.350732
sI5
F-1.486049
sI6
F4.517737
sI7
F2.824684
sI8
F3.470259
sI9
F-3.098347
sI10
F-2.419759
sI11
F3.739153
sI12
F4.208533
ssg104
(dp321
I0
S"KIC8462852-20180826at054614_-25-1X1-030-z'_cal.fts.mag.1"
p322
sI1
S"KIC8462852-20180826at044323_-25-1X1-030-z'_cal.fts.mag.1"
p323
sI2
S"KIC8462852-20180826at044817_-25-1X1-030-z'_cal.fts.mag.1"
p324
sI3
S"KIC8462852-20180826at055113_-25-1X1-030-z'_cal.fts.mag.1"
p325
sI4
S"KIC8462852-20180826at054728_-25-1X1-030-z'_cal.fts.mag.1"
p326
sI5
S"KIC8462852-20180826at051826_-25-1X1-030-z'_cal.fts.mag.1"
p327
sI6
S"KIC8462852-20180826at044437_-25-1X1-030-z'_cal.fts.mag.1"
p328
sI7
S"KIC8462852-20180826at051938_-25-1X1-030-z'_cal.fts.mag.1"
p329
sI8
S"KIC8462852-20180826at051715_-25-1X1-030-z'_cal.fts.mag.1"
p330
sI9
S"KIC8462852-20180826at051603_-25-1X1-030-z'_cal.fts.mag.1"
p331
sI10
S"KIC8462852-20180826at051448_-25-1X1-030-z'_cal.fts.mag.1"
p332
sI11
S"KIC8462852-20180826at054958_-25-1X1-030-z'_cal.fts.mag.1"
p333
sI12
S"KIC8462852-20180826at054845_-25-1X1-030-z'_cal.fts.mag.1"
p334
ssg121
(dp335
I0
F0.0108577294905073
sI1
Fnan
sI2
Fnan
sI3
Fnan
sI4
Fnan
sI5
Fnan
sI6
Fnan
sI7
Fnan
sI8
Fnan
sI9
Fnan
sI10
Fnan
sI11
Fnan
sI12
Fnan
ssg123
(dp336
I0
F1266.9763333333333
sI1
F895.1953333333333
sI2
F729.838
sI3
F769.1919999999999
sI4
F1127.451
sI5
F1271.4606666666666
sI6
F612.1053333333333
sI7
F1291.9513333333334
sI8
F1302.7796666666666
sI9
F1282.7326666666668
sI10
F1322.0243333333335
sI11
F765.5306666666667
sI12
F931.4493333333334
ssg125
(dp337
I0
F0.3031582475818911
sI1
Fnan
sI2
Fnan
sI3
Fnan
sI4
Fnan
sI5
Fnan
sI6
Fnan
sI7
Fnan
sI8
Fnan
sI9
Fnan
sI10
Fnan
sI11
Fnan
sI12
Fnan
ssg127
(dp338
I0
S"z'"
p339
sI1
S"z'"
p340
sI2
S"z'"
p341
sI3
S"z'"
p342
sI4
S"z'"
p343
sI5
S"z'"
p344
sI6
S"z'"
p345
sI7
S"z'"
p346
sI8
S"z'"
p347
sI9
S"z'"
p348
sI10
S"z'"
p349
sI11
S"z'"
p350
sI12
S"z'"
p351
ssg144
(dp352
I0
F0.004311333178063546
sI1
Fnan
sI2
Fnan
sI3
Fnan
sI4
Fnan
sI5
Fnan
sI6
Fnan
sI7
Fnan
sI8
Fnan
sI9
Fnan
sI10
Fnan
sI11
Fnan
sI12
Fnan
ssg146
(dp353
I0
F-3.083835
sI1
F3.014993
sI2
F-1.685627
sI3
F4.010595
sI4
F1.910811
sI5
F-3.025692
sI6
F-3.838724
sI7
F2.786584
sI8
F3.808917
sI9
F-1.921337
sI10
F4.068817
sI11
F-4.749831
sI12
F-2.178304
ssg148
(dp354
I0
F1.4995104434071682
sI1
Fnan
sI2
Fnan
sI3
Fnan
sI4
Fnan
sI5
Fnan
sI6
Fnan
sI7
Fnan
sI8
Fnan
sI9
Fnan
sI10
Fnan
sI11
Fnan
sI12
Fnan
ssg150
(dp355
I0
F2458356.7211342594
sI1
Fnan
sI2
Fnan
sI3
Fnan
sI4
Fnan
sI5
Fnan
sI6
Fnan
sI7
Fnan
sI8
Fnan
sI9
Fnan
sI10
Fnan
sI11
Fnan
sI12
Fnan
ssg152
(dp356
I0
F0.004311333178063546
sI1
Fnan
sI2
Fnan
sI3
Fnan
sI4
Fnan
sI5
Fnan
sI6
Fnan
sI7
Fnan
sI8
Fnan
sI9
Fnan
sI10
Fnan
sI11
Fnan
sI12
Fnan
ssg154
(dp357
I0
F19.17554
sI1
F42.30551
sI2
F51.89201
sI3
F54.44794
sI4
F28.27427
sI5
F16.19387
sI6
F61.92393
sI7
F17.35825
sI8
F18.9095
sI9
F20.84803
sI10
F18.91898
sI11
F53.02658
sI12
F39.59027
ssg156
(dp358
I0
F11.877
sI1
F12.294
sI2
F12.488
sI3
F12.463
sI4
F12.038
sI5
F11.878
sI6
F12.681
sI7
F11.868
sI8
F11.852
sI9
F11.879
sI10
F11.859
sI11
F12.458
sI12
F12.225
ssg158
(dp359
I0
F0.37202537236072314
sI1
Fnan
sI2
Fnan
sI3
Fnan
sI4
Fnan
sI5
Fnan
sI6
Fnan
sI7
Fnan
sI8
Fnan
sI9
Fnan
sI10
Fnan
sI11
Fnan
sI12
Fnan
sssS'g'
p360
(dp361
g3
(dp362
I0
F0.8740387751166229
sI1
Fnan
sI2
Fnan
sI3
Fnan
sI4
Fnan
sI5
Fnan
sI6
Fnan
sI7
Fnan
sI8
Fnan
sI9
Fnan
sI10
Fnan
sI11
Fnan
sI12
Fnan
sI13
Fnan
sI14
Fnan
ssg5
(dp363
I0
S'NoError'
p364
sI1
S'NoError'
p365
sI2
S'NoError'
p366
sI3
S'NoError'
p367
sI4
S'NoError'
p368
sI5
S'NoError'
p369
sI6
S'NoError'
p370
sI7
S'NoError'
p371
sI8
S'NoError'
p372
sI9
S'NoError'
p373
sI10
S'NoError'
p374
sI11
S'NoError'
p375
sI12
S'NoError'
p376
sI13
S'NoError'
p377
sI14
S'NoError'
p378
ssg22
(dp379
I0
F0.002
sI1
F0.002
sI2
F0.003
sI3
F0.006
sI4
F0.003
sI5
F0.003
sI6
F0.003
sI7
F0.002
sI8
F0.01
sI9
F0.002
sI10
F0.002
sI11
F0.01
sI12
F0.002
sI13
F0.002
sI14
F0.002
ssg24
(dp380
I0
F0.8775932485799697
sI1
F0.87963867487178
sI2
F0.8871282127811005
sI3
F0.8737985117808614
sI4
F0.8876453227703271
sI5
F0.8805158077800536
sI6
F0.880324942887048
sI7
F0.8801030761045361
sI8
F0.9070675851430081
sI9
F0.8775718672630937
sI10
F0.8816603187121784
sI11
F0.8971423948842157
sI12
F0.8804225281249187
sI13
F0.8835919445842929
sI14
F0.8794041927042656
ssg26
(dp381
I0
F0.00849805737973123
sI1
Fnan
sI2
Fnan
sI3
Fnan
sI4
Fnan
sI5
Fnan
sI6
Fnan
sI7
Fnan
sI8
Fnan
sI9
Fnan
sI10
Fnan
sI11
Fnan
sI12
Fnan
sI13
Fnan
sI14
Fnan
ssg28
(dp382
I0
F0.8835739085981101
sI1
Fnan
sI2
Fnan
sI3
Fnan
sI4
Fnan
sI5
Fnan
sI6
Fnan
sI7
Fnan
sI8
Fnan
sI9
Fnan
sI10
Fnan
sI11
Fnan
sI12
Fnan
sI13
Fnan
sI14
Fnan
ssg30
(dp383
I0
F11.308
sI1
F11.327
sI2
F11.531
sI3
F12.475
sI4
F11.517
sI5
F11.528
sI6
F11.716
sI7
F11.293
sI8
F12.939
sI9
F11.31
sI10
F11.282
sI11
F12.887
sI12
F11.288
sI13
F11.284
sI14
F11.315
ssg32
(dp384
I0
F85.4118
sI1
F86.775
sI2
F153.7778
sI3
F285.8427
sI4
F146.9972
sI5
F127.6139
sI6
F176.6655
sI7
F93.86048
sI8
F386.0594
sI9
F87.23683
sI10
F100.6996
sI11
F373.5556
sI12
F93.18967
sI13
F92.91273
sI14
F86.96489
ssg34
(dp385
I0
F2458356.7276273146
sI1
F2458356.7076157406
sI2
F2458356.685578704
sI3
F2458356.6872569444
sI4
F2458356.686423611
sI5
F2458356.708472222
sI6
F2458356.7093287036
sI7
F2458356.7059027776
sI8
F2458356.683900463
sI9
F2458356.728460648
sI10
F2458356.7310185186
sI11
F2458356.6847222224
sI12
F2458356.7293171296
sI13
F2458356.730173611
sI14
F2458356.706747685
ssg36
(dp386
I0
F-0.8292310000000003
sI1
Fnan
sI2
Fnan
sI3
Fnan
sI4
Fnan
sI5
Fnan
sI6
Fnan
sI7
Fnan
sI8
Fnan
sI9
Fnan
sI10
Fnan
sI11
Fnan
sI12
Fnan
sI13
Fnan
sI14
Fnan
ssg38
(dp387
I0
F1.3479132666666669
sI1
Fnan
sI2
Fnan
sI3
Fnan
sI4
Fnan
sI5
Fnan
sI6
Fnan
sI7
Fnan
sI8
Fnan
sI9
Fnan
sI10
Fnan
sI11
Fnan
sI12
Fnan
sI13
Fnan
sI14
Fnan
ssg40
(dp388
I0
F0.8714571089690432
sI1
F0.8730909846853824
sI2
F0.878089941250004
sI3
F0.865417745217675
sI4
F0.8779292487621587
sI5
F0.8750418292349245
sI6
F0.8736983826168391
sI7
F0.8706614536812193
sI8
F0.8809807864401856
sI9
F0.8785876024771824
sI10
F0.8741944556137646
sI11
F0.8749011449137188
sI12
F0.8705420347927552
sI13
F0.8763024609618861
sI14
F0.868007428557218
ssg42
(dp389
I0
F0.0031234556797131597
sI1
Fnan
sI2
Fnan
sI3
Fnan
sI4
Fnan
sI5
Fnan
sI6
Fnan
sI7
Fnan
sI8
Fnan
sI9
Fnan
sI10
Fnan
sI11
Fnan
sI12
Fnan
sI13
Fnan
sI14
Fnan
ssg44
(dp390
I0
F4.054957733333334
sI1
Fnan
sI2
Fnan
sI3
Fnan
sI4
Fnan
sI5
Fnan
sI6
Fnan
sI7
Fnan
sI8
Fnan
sI9
Fnan
sI10
Fnan
sI11
Fnan
sI12
Fnan
sI13
Fnan
sI14
Fnan
ssg46
(dp391
I0
g364
sI1
g365
sI2
g366
sI3
g367
sI4
g368
sI5
g369
sI6
g370
sI7
g371
sI8
g372
sI9
g373
sI10
g374
sI11
g375
sI12
g376
sI13
g377
sI14
g378
ssg48
(dp392
I0
F0.0056464724328549815
sI1
Fnan
sI2
Fnan
sI3
Fnan
sI4
Fnan
sI5
Fnan
sI6
Fnan
sI7
Fnan
sI8
Fnan
sI9
Fnan
sI10
Fnan
sI11
Fnan
sI12
Fnan
sI13
Fnan
sI14
Fnan
ssg50
(dp393
I0
F0.5872593569973594
sI1
Fnan
sI2
Fnan
sI3
Fnan
sI4
Fnan
sI5
Fnan
sI6
Fnan
sI7
Fnan
sI8
Fnan
sI9
Fnan
sI10
Fnan
sI11
Fnan
sI12
Fnan
sI13
Fnan
sI14
Fnan
ssg52
(dp394
I0
F-0.9542471999999999
sI1
Fnan
sI2
Fnan
sI3
Fnan
sI4
Fnan
sI5
Fnan
sI6
Fnan
sI7
Fnan
sI8
Fnan
sI9
Fnan
sI10
Fnan
sI11
Fnan
sI12
Fnan
sI13
Fnan
sI14
Fnan
ssg54
(dp395
I0
F1.5100826198705457
sI1
F1.5079789063421993
sI2
F1.4843204030237864
sI3
F1.4950935833273025
sI4
F1.5009629081089342
sI5
F1.5035415785194817
sI6
F1.495236445294915
sI7
F1.508299441549309
sI8
F1.4850487065627618
sI9
F1.5063422552027035
sI10
F1.5015148396094962
sI11
F1.4916497642543036
sI12
F1.5044758836190704
sI13
F1.4928620034434779
sI14
F1.5100412904212057
ssg56
(dp396
I0
g364
sI1
g365
sI2
g366
sI3
g367
sI4
g368
sI5
g369
sI6
g370
sI7
g371
sI8
g372
sI9
g373
sI10
g374
sI11
g375
sI12
g376
sI13
g377
sI14
g378
ssg58
(dp397
I0
F85.35226
sI1
F87.56639
sI2
F152.8644
sI3
F287.6819
sI4
F149.7778
sI5
F127.8489
sI6
F176.9299
sI7
F93.50949
sI8
F388.206
sI9
F88.77339
sI10
F100.51
sI11
F374.4209
sI12
F93.53513
sI13
F93.6537
sI14
F88.64633
ssg60
(dp398
I0
F11.2474
sI1
Fnan
sI2
Fnan
sI3
Fnan
sI4
Fnan
sI5
Fnan
sI6
Fnan
sI7
Fnan
sI8
Fnan
sI9
Fnan
sI10
Fnan
sI11
Fnan
sI12
Fnan
sI13
Fnan
sI14
Fnan
ssg62
(dp399
I0
F0.7212805173726322
sI1
Fnan
sI2
Fnan
sI3
Fnan
sI4
Fnan
sI5
Fnan
sI6
Fnan
sI7
Fnan
sI8
Fnan
sI9
Fnan
sI10
Fnan
sI11
Fnan
sI12
Fnan
sI13
Fnan
sI14
Fnan
ssg64
(dp400
I0
F-3.352765
sI1
F-2.944718
sI2
F6.319633
sI3
F10.21863
sI4
F6.226806
sI5
F5.930662
sI6
F4.515165
sI7
F2.632369
sI8
F-4.305989
sI9
F3.814032
sI10
F3.920484
sI11
F-8.761136
sI12
F-2.215141
sI13
F3.614364
sI14
F-5.393697
ssg66
(dp401
I0
F11.611866666666666
sI1
Fnan
sI2
Fnan
sI3
Fnan
sI4
Fnan
sI5
Fnan
sI6
Fnan
sI7
Fnan
sI8
Fnan
sI9
Fnan
sI10
Fnan
sI11
Fnan
sI12
Fnan
sI13
Fnan
sI14
Fnan
ssg68
(dp402
I0
g364
sI1
g365
sI2
g366
sI3
g367
sI4
g368
sI5
g369
sI6
g370
sI7
g371
sI8
g372
sI9
g373
sI10
g374
sI11
g375
sI12
g376
sI13
g377
sI14
g378
ssg70
(dp403
I0
F7909.243333333333
sI1
F7763.3933333333325
sI2
F6440.033333333334
sI3
F2709.374666666667
sI4
F6525.1
sI5
F6446.093333333333
sI6
F5426.283333333334
sI7
F8042.016666666666
sI8
F1781.2406666666668
sI9
F7826.443333333333
sI10
F8101.08
sI11
F1866.8456666666668
sI12
F8078.65
sI13
F8079.12
sI14
F7900.863333333333
ssg72
(dp404
I0
F1.004669
sI1
F1.008343
sI2
F1.022872
sI3
F1.021376
sI4
F1.0221200000000001
sI5
F1.008006
sI6
F1.007686
sI7
F1.009077
sI8
F1.024461
sI9
F1.00471
sI10
F1.0049290000000002
sI11
F1.02366
sI12
F1.004768
sI13
F1.004839
sI14
F1.008702
ssg74
(dp405
I0
F6867.67
sI1
F6726.27
sI2
F5590.3566666666675
sI3
F2389.6283333333336
sI4
F5601.36
sI5
F5591.8533333333335
sI6
F4732.796666666666
sI7
F6960.8
sI8
F1494.875
sI9
F6811.62
sI10
F7022.633333333333
sI11
F1586.3103333333333
sI12
F7005.15
sI13
F7018.02
sI14
F6839.4400000000005
ssg76
(dp406
I0
F11157.18
sI1
F10925.053333333333
sI2
F8928.476666666666
sI3
F3811.7433333333333
sI4
F9100.683333333332
sI5
F9049.776666666667
sI6
F7595.113333333333
sI7
F11314.369999999999
sI8
F2432.5956666666666
sI9
F11024.966666666667
sI10
F11354.24
sI11
F2575.449666666667
sI12
F11346.606666666667
sI13
F11268.973333333333
sI14
F11129.233333333334
ssg78
(dp407
I0
F83.99397
sI1
F86.80081
sI2
F152.527
sI3
F281.7014
sI4
F147.0211
sI5
F126.0774
sI6
F175.692
sI7
F94.03484
sI8
F389.7635
sI9
F88.25288
sI10
F100.6794
sI11
F375.4282
sI12
F91.85198
sI13
F92.78189
sI14
F87.48769
ssg80
(dp408
I0
F11.408
sI1
F11.431
sI2
F11.631
sI3
F12.554
sI4
F11.629
sI5
F11.631
sI6
F11.812
sI7
F11.393
sI8
F13.063
sI9
F11.417
sI10
F11.384
sI11
F12.999
sI12
F11.386
sI13
F11.384
sI14
F11.412
ssg82
(dp409
I0
F0.002
sI1
F0.002
sI2
F0.002
sI3
F0.005
sI4
F0.002
sI5
F0.002
sI6
F0.002
sI7
F0.002
sI8
F0.007
sI9
F0.002
sI10
F0.002
sI11
F0.007
sI12
F0.002
sI13
F0.002
sI14
F0.002
ssg84
(dp410
I0
F0.8739268405449305
sI1
Fnan
sI2
Fnan
sI3
Fnan
sI4
Fnan
sI5
Fnan
sI6
Fnan
sI7
Fnan
sI8
Fnan
sI9
Fnan
sI10
Fnan
sI11
Fnan
sI12
Fnan
sI13
Fnan
sI14
Fnan
ssg86
(dp411
I0
F11.768933333333335
sI1
Fnan
sI2
Fnan
sI3
Fnan
sI4
Fnan
sI5
Fnan
sI6
Fnan
sI7
Fnan
sI8
Fnan
sI9
Fnan
sI10
Fnan
sI11
Fnan
sI12
Fnan
sI13
Fnan
sI14
Fnan
ssg88
(dp412
I0
F11.255
sI1
F11.275
sI2
F11.478
sI3
F12.418
sI4
F11.464
sI5
F11.477
sI6
F11.664
sI7
F11.237
sI8
F12.873
sI9
F11.266
sI10
F11.229
sI11
F12.822
sI12
F11.232
sI13
F11.232
sI14
F11.256
ssg90
(dp413
I0
F-2.29724
sI1
F-2.172351
sI2
F-4.770145
sI3
F-5.6788
sI4
F-2.208468
sI5
F-5.53661
sI6
F-6.893903
sI7
F-4.143047
sI8
F-7.531102
sI9
F4.543153
sI10
F4.426894
sI11
F6.532247
sI12
F4.125546
sI13
F5.523626
sI14
F3.641735
ssg92
(dp414
I0
F0.5947026628012164
sI1
Fnan
sI2
Fnan
sI3
Fnan
sI4
Fnan
sI5
Fnan
sI6
Fnan
sI7
Fnan
sI8
Fnan
sI9
Fnan
sI10
Fnan
sI11
Fnan
sI12
Fnan
sI13
Fnan
sI14
Fnan
ssg94
(dp415
I0
F0.7203941588765032
sI1
F0.719831896141181
sI2
F0.7275079583728895
sI3
F0.7328891559187652
sI4
F0.7169381375013733
sI5
F0.721721766294288
sI6
F0.7269261182684191
sI7
F0.7192251446378767
sI8
F0.7095078601771354
sI9
F0.7226642463348896
sI10
F0.7219242174719648
sI11
F0.7141849941539231
sI12
F0.7212414353341019
sI13
F0.7254482267675644
sI14
F0.7188024443386083
ssg96
(dp416
I0
F30.0
sI1
F30.0
sI2
F30.0
sI3
F30.0
sI4
F30.0
sI5
F30.0
sI6
F30.0
sI7
F30.0
sI8
F30.0
sI9
F30.0
sI10
F30.0
sI11
F30.0
sI12
F30.0
sI13
F30.0
sI14
F30.0
ssg98
(dp417
I0
F0.002
sI1
F0.002
sI2
F0.003
sI3
F0.007
sI4
F0.003
sI5
F0.003
sI6
F0.003
sI7
F0.002
sI8
F0.011
sI9
F0.002
sI10
F0.002
sI11
F0.011
sI12
F0.002
sI13
F0.002
sI14
F0.002
ssg100
(dp418
I0
F0.002
sI1
F0.002
sI2
F0.003
sI3
F0.006
sI4
F0.003
sI5
F0.003
sI6
F0.003
sI7
F0.002
sI8
F0.01
sI9
F0.002
sI10
F0.002
sI11
F0.009
sI12
F0.002
sI13
F0.002
sI14
F0.002
ssg102
(dp419
I0
F-4.449172
sI1
F-5.320579
sI2
F3.957177
sI3
F-7.893425
sI4
F-5.137892
sI5
F2.665798
sI6
F-5.05482
sI7
F-4.221974
sI8
F7.635749
sI9
F5.750017
sI10
F1.257427
sI11
F-2.205381
sI12
F-2.965708
sI13
F5.658803
sI14
F-3.989728
ssg104
(dp420
I0
S"KIC8462852-20180826at052742_-25-1X1-030-g'_cal.fts.mag.1"
p421
sI1
S"KIC8462852-20180826at045858_-25-1X1-030-g'_cal.fts.mag.1"
p422
sI2
S"KIC8462852-20180826at042714_-25-1X1-030-g'_cal.fts.mag.1"
p423
sI3
S"KIC8462852-20180826at042939_-25-1X1-030-g'_cal.fts.mag.1"
p424
sI4
S"KIC8462852-20180826at042827_-25-1X1-030-g'_cal.fts.mag.1"
p425
sI5
S"KIC8462852-20180826at050012_-25-1X1-030-g'_cal.fts.mag.1"
p426
sI6
S"KIC8462852-20180826at050126_-25-1X1-030-g'_cal.fts.mag.1"
p427
sI7
S"KIC8462852-20180826at045625_-25-1X1-030-g'_cal.fts.mag.1"
p428
sI8
S"KIC8462852-20180826at042435_-25-1X1-030-g'_cal.fts.mag.1"
p429
sI9
S"KIC8462852-20180826at052859_-25-1X1-030-g'_cal.fts.mag.1"
p430
sI10
S"KIC8462852-20180826at053240_-25-1X1-030-g'_cal.fts.mag.1"
p431
sI11
S"KIC8462852-20180826at042600_-25-1X1-030-g'_cal.fts.mag.1"
p432
sI12
S"KIC8462852-20180826at053013_-25-1X1-030-g'_cal.fts.mag.1"
p433
sI13
S"KIC8462852-20180826at053127_-25-1X1-030-g'_cal.fts.mag.1"
p434
sI14
S"KIC8462852-20180826at045743_-25-1X1-030-g'_cal.fts.mag.1"
p435
ssg121
(dp436
I0
F0.00864974119531251
sI1
Fnan
sI2
Fnan
sI3
Fnan
sI4
Fnan
sI5
Fnan
sI6
Fnan
sI7
Fnan
sI8
Fnan
sI9
Fnan
sI10
Fnan
sI11
Fnan
sI12
Fnan
sI13
Fnan
sI14
Fnan
ssg123
(dp437
I0
F7533.483333333334
sI1
F7396.453333333334
sI2
F6134.59
sI3
F2570.506
sI4
F6211.9766666666665
sI5
F6150.88
sI6
F5170.6033333333335
sI7
F7637.786666666667
sI8
F1676.4216666666666
sI9
F7515.740000000001
sI10
F7715.626666666666
sI11
F1758.1446666666666
sI12
F7669.593333333333
sI13
F7701.5633333333335
sI14
F7484.983333333334
ssg125
(dp438
I0
F0.5942300500487606
sI1
Fnan
sI2
Fnan
sI3
Fnan
sI4
Fnan
sI5
Fnan
sI6
Fnan
sI7
Fnan
sI8
Fnan
sI9
Fnan
sI10
Fnan
sI11
Fnan
sI12
Fnan
sI13
Fnan
sI14
Fnan
ssg127
(dp439
I0
S"g'"
p440
sI1
S"g'"
p441
sI2
S"g'"
p442
sI3
S"g'"
p443
sI4
S"g'"
p444
sI5
S"g'"
p445
sI6
S"g'"
p446
sI7
S"g'"
p447
sI8
S"g'"
p448
sI9
S"g'"
p449
sI10
S"g'"
p450
sI11
S"g'"
p451
sI12
S"g'"
p452
sI13
S"g'"
p453
sI14
S"g'"
p454
ssg144
(dp455
I0
F0.004218610278030366
sI1
Fnan
sI2
Fnan
sI3
Fnan
sI4
Fnan
sI5
Fnan
sI6
Fnan
sI7
Fnan
sI8
Fnan
sI9
Fnan
sI10
Fnan
sI11
Fnan
sI12
Fnan
sI13
Fnan
sI14
Fnan
ssg146
(dp456
I0
F-3.848134
sI1
F4.057136
sI2
F5.206558
sI3
F7.14624
sI4
F5.118231
sI5
F6.373028
sI6
F5.896641
sI7
F4.698625
sI8
F-6.482767
sI9
F6.343261
sI10
F2.484644
sI11
F10.49779
sI12
F3.439912
sI13
F5.354795
sI14
F4.538406
ssg148
(dp457
I0
F1.4998300419432993
sI1
Fnan
sI2
Fnan
sI3
Fnan
sI4
Fnan
sI5
Fnan
sI6
Fnan
sI7
Fnan
sI8
Fnan
sI9
Fnan
sI10
Fnan
sI11
Fnan
sI12
Fnan
sI13
Fnan
sI14
Fnan
ssg150
(dp458
I0
F2458356.7076157406
sI1
Fnan
sI2
Fnan
sI3
Fnan
sI4
Fnan
sI5
Fnan
sI6
Fnan
sI7
Fnan
sI8
Fnan
sI9
Fnan
sI10
Fnan
sI11
Fnan
sI12
Fnan
sI13
Fnan
sI14
Fnan
ssg152
(dp459
I0
F0.004218610278030366
sI1
Fnan
sI2
Fnan
sI3
Fnan
sI4
Fnan
sI5
Fnan
sI6
Fnan
sI7
Fnan
sI8
Fnan
sI9
Fnan
sI10
Fnan
sI11
Fnan
sI12
Fnan
sI13
Fnan
sI14
Fnan
ssg154
(dp460
I0
F85.3436
sI1
F88.09912
sI2
F158.0881
sI3
F285.273
sI4
F151.3546
sI5
F130.4077
sI6
F178.9311
sI7
F95.3102
sI8
F389.9846
sI9
F89.97649
sI10
F101.9171
sI11
F374.4986
sI12
F93.51777
sI13
F96.24827
sI14
F87.92556
ssg156
(dp461
I0
F10.881
sI1
F10.904
sI2
F11.123
sI3
F12.047
sI4
F11.102
sI5
F11.108
sI6
F11.299
sI7
F10.866
sI8
F12.535
sI9
F10.894
sI10
F10.862
sI11
F12.473
sI12
F10.863
sI13
F10.87
sI14
F10.884
ssg158
(dp462
I0
F0.8739268405449305
sI1
Fnan
sI2
Fnan
sI3
Fnan
sI4
Fnan
sI5
Fnan
sI6
Fnan
sI7
Fnan
sI8
Fnan
sI9
Fnan
sI10
Fnan
sI11
Fnan
sI12
Fnan
sI13
Fnan
sI14
Fnan
sssS'V'
p463
(dp464
g3
(dp465
I0
F0.6954109684528446
sI1
Fnan
sI2
Fnan
sI3
Fnan
sI4
Fnan
sI5
Fnan
sI6
Fnan
sI7
Fnan
sI8
Fnan
sI9
Fnan
sI10
Fnan
sI11
Fnan
sI12
Fnan
sI13
Fnan
ssg5
(dp466
I0
S'NoError'
p467
sI1
S'NoError'
p468
sI2
S'NoError'
p469
sI3
S'NoError'
p470
sI4
S'NoError'
p471
sI5
S'NoError'
p472
sI6
S'NoError'
p473
sI7
S'NoError'
p474
sI8
S'NoError'
p475
sI9
S'NoError'
p476
sI10
S'NoError'
p477
sI11
S'NoError'
p478
sI12
S'NoError'
p479
sI13
S'NoError'
p480
ssg22
(dp481
I0
F0.002
sI1
F0.002
sI2
F0.002
sI3
F0.002
sI4
F0.002
sI5
F0.002
sI6
F0.002
sI7
F0.002
sI8
F0.004
sI9
F0.002
sI10
F0.002
sI11
F0.002
sI12
F0.002
sI13
F0.003
ssg24
(dp482
I0
F0.8850370964726624
sI1
F0.8868521796997773
sI2
F0.8890239841700117
sI3
F0.8869484463397477
sI4
F0.8881936068542899
sI5
F0.8843496717143284
sI6
F0.8892923209792626
sI7
F0.8906973206784937
sI8
F0.887059717958893
sI9
F0.8884195919259195
sI10
F0.8869453453176129
sI11
F0.8879100901394238
sI12
F0.8892211734988444
sI13
F0.8920557353139997
ssg26
(dp483
I0
F0.0020508802765711004
sI1
Fnan
sI2
Fnan
sI3
Fnan
sI4
Fnan
sI5
Fnan
sI6
Fnan
sI7
Fnan
sI8
Fnan
sI9
Fnan
sI10
Fnan
sI11
Fnan
sI12
Fnan
sI13
Fnan
ssg28
(dp484
I0
F0.8880004486473763
sI1
Fnan
sI2
Fnan
sI3
Fnan
sI4
Fnan
sI5
Fnan
sI6
Fnan
sI7
Fnan
sI8
Fnan
sI9
Fnan
sI10
Fnan
sI11
Fnan
sI12
Fnan
sI13
Fnan
ssg30
(dp485
I0
F11.338
sI1
F11.321
sI2
F11.383
sI3
F11.362
sI4
F11.423
sI5
F11.344
sI6
F11.342
sI7
F11.333
sI8
F11.951
sI9
F11.333
sI10
F11.332
sI11
F11.319
sI12
F11.322
sI13
F11.482
ssg32
(dp486
I0
F64.15877
sI1
F90.23521
sI2
F79.21687
sI3
F75.32681
sI4
F78.84931
sI5
F75.46768
sI6
F89.40263
sI7
F93.48844
sI8
F226.7311
sI9
F65.67822
sI10
F74.58392
sI11
F65.23721
sI12
F63.75992
sI13
F128.0314
ssg34
(dp487
I0
F2458356.722928241
sI1
F2458356.7475578706
sI2
F2458356.7011805554
sI3
F2458356.7047569444
sI4
F2458356.7020601854
sI5
F2458356.702974537
sI6
F2458356.748460648
sI7
F2458356.7466666666
sI8
F2458356.744872685
sI9
F2458356.724699074
sI10
F2458356.7038541664
sI11
F2458356.725590278
sI12
F2458356.7238078704
sI13
F2458356.745775463
ssg36
(dp488
I0
F2.155891857142857
sI1
Fnan
sI2
Fnan
sI3
Fnan
sI4
Fnan
sI5
Fnan
sI6
Fnan
sI7
Fnan
sI8
Fnan
sI9
Fnan
sI10
Fnan
sI11
Fnan
sI12
Fnan
sI13
Fnan
ssg38
(dp489
I0
F1.3155465714285712
sI1
Fnan
sI2
Fnan
sI3
Fnan
sI4
Fnan
sI5
Fnan
sI6
Fnan
sI7
Fnan
sI8
Fnan
sI9
Fnan
sI10
Fnan
sI11
Fnan
sI12
Fnan
sI13
Fnan
ssg40
(dp490
I0
F0.6926183617836764
sI1
F0.6990539636901211
sI2
F0.6864446006299999
sI3
F0.6934386504196137
sI4
F0.6938496783356016
sI5
F0.6943886240702069
sI6
F0.6955961130067211
sI7
F0.695635277819498
sI8
F0.6989238869276535
sI9
F0.6921941725580086
sI10
F0.6976172740763531
sI11
F0.6942710607727177
sI12
F0.6933160198741924
sI13
F0.6994395065526141
ssg42
(dp491
I0
F0.0024495052503301622
sI1
Fnan
sI2
Fnan
sI3
Fnan
sI4
Fnan
sI5
Fnan
sI6
Fnan
sI7
Fnan
sI8
Fnan
sI9
Fnan
sI10
Fnan
sI11
Fnan
sI12
Fnan
sI13
Fnan
ssg44
(dp492
I0
F1.7278516428571424
sI1
Fnan
sI2
Fnan
sI3
Fnan
sI4
Fnan
sI5
Fnan
sI6
Fnan
sI7
Fnan
sI8
Fnan
sI9
Fnan
sI10
Fnan
sI11
Fnan
sI12
Fnan
sI13
Fnan
ssg46
(dp493
I0
g467
sI1
g468
sI2
g469
sI3
g470
sI4
g471
sI5
g472
sI6
g473
sI7
g474
sI8
g475
sI9
g476
sI10
g477
sI11
g478
sI12
g479
sI13
g480
ssg48
(dp494
I0
F0.00264492639318247
sI1
Fnan
sI2
Fnan
sI3
Fnan
sI4
Fnan
sI5
Fnan
sI6
Fnan
sI7
Fnan
sI8
Fnan
sI9
Fnan
sI10
Fnan
sI11
Fnan
sI12
Fnan
sI13
Fnan
ssg50
(dp495
I0
F0.1674237894527695
sI1
Fnan
sI2
Fnan
sI3
Fnan
sI4
Fnan
sI5
Fnan
sI6
Fnan
sI7
Fnan
sI8
Fnan
sI9
Fnan
sI10
Fnan
sI11
Fnan
sI12
Fnan
sI13
Fnan
ssg52
(dp496
I0
F1.8476014999999997
sI1
Fnan
sI2
Fnan
sI3
Fnan
sI4
Fnan
sI5
Fnan
sI6
Fnan
sI7
Fnan
sI8
Fnan
sI9
Fnan
sI10
Fnan
sI11
Fnan
sI12
Fnan
sI13
Fnan
ssg54
(dp497
I0
F1.4910798797379512
sI1
F1.4915188808925215
sI2
F1.5018487681248005
sI3
F1.4943874440854392
sI4
F1.4871383807915894
sI5
F1.500236747954457
sI6
F1.491662806383937
sI7
F1.4920771732436848
sI8
F1.491340315602017
sI9
F1.4958232094407518
sI10
F1.4921064728649556
sI11
F1.4968865753559515
sI12
F1.493485169481934
sI13
F1.4891017992917432
ssg56
(dp498
I0
g467
sI1
g468
sI2
g469
sI3
g470
sI4
g471
sI5
g472
sI6
g473
sI7
g474
sI8
g475
sI9
g476
sI10
g477
sI11
g478
sI12
g479
sI13
g480
ssg58
(dp499
I0
F65.08633
sI1
F91.71297
sI2
F79.79301
sI3
F74.61514
sI4
F79.29946
sI5
F77.68387
sI6
F90.1554
sI7
F92.58121
sI8
F226.3887
sI9
F64.96717
sI10
F75.06497
sI11
F67.36121
sI12
F64.96973
sI13
F128.8574
ssg60
(dp500
I0
F10.733428571428572
sI1
Fnan
sI2
Fnan
sI3
Fnan
sI4
Fnan
sI5
Fnan
sI6
Fnan
sI7
Fnan
sI8
Fnan
sI9
Fnan
sI10
Fnan
sI11
Fnan
sI12
Fnan
sI13
Fnan
ssg62
(dp501
I0
F0.7211540081799989
sI1
Fnan
sI2
Fnan
sI3
Fnan
sI4
Fnan
sI5
Fnan
sI6
Fnan
sI7
Fnan
sI8
Fnan
sI9
Fnan
sI10
Fnan
sI11
Fnan
sI12
Fnan
sI13
Fnan
ssg64
(dp502
I0
F-2.417907
sI1
F3.872328
sI2
F1.618486
sI3
F7.720911
sI4
F5.895467
sI5
F-2.507372
sI6
F5.02599
sI7
F2.983174
sI8
F-7.687684
sI9
F3.976098
sI10
F3.439214
sI11
F-5.297636
sI12
F5.741363
sI13
F-3.94478
ssg66
(dp503
I0
F11.091428571428569
sI1
Fnan
sI2
Fnan
sI3
Fnan
sI4
Fnan
sI5
Fnan
sI6
Fnan
sI7
Fnan
sI8
Fnan
sI9
Fnan
sI10
Fnan
sI11
Fnan
sI12
Fnan
sI13
Fnan
ssg68
(dp504
I0
g467
sI1
g468
sI2
g469
sI3
g470
sI4
g471
sI5
g472
sI6
g473
sI7
g474
sI8
g475
sI9
g476
sI10
g477
sI11
g478
sI12
g479
sI13
g480
ssg70
(dp505
I0
F9728.58
sI1
F9808.390000000001
sI2
F9446.986666666666
sI3
F9518.893333333333
sI4
F9003.713333333335
sI5
F9647.769999999999
sI6
F9685.933333333332
sI7
F9778.986666666666
sI8
F5491.63
sI9
F9812.496666666668
sI10
F9732.356666666667
sI11
F9901.630000000001
sI12
F9895.56
sI13
F8489.593333333332
ssg72
(dp506
I0
F1.004734
sI1
F1.009858
sI2
F1.01144
sI3
F1.009606
sI4
F1.01095
sI5
F1.0104879999999998
sI6
F1.010298
sI7
F1.009433
sI8
F1.008642
sI9
F1.004653
sI10
F1.010034
sI11
F1.004638
sI12
F1.004685
sI13
F1.0090270000000001
ssg74
(dp507
I0
F8439.523333333334
sI1
F8480.47
sI2
F8086.3099999999995
sI3
F8214.263333333332
sI4
F7788.236666666667
sI5
F8331.97
sI6
F8339.516666666666
sI7
F8397.606666666667
sI8
F4747.003333333333
sI9
F8439.156666666668
sI10
F8410.356666666667
sI11
F8517.53
sI12
F8511.416666666666
sI13
F7287.17
ssg76
(dp508
I0
F13545.046666666667
sI1
F13639.09
sI2
F13166.18
sI3
F13250.103333333333
sI4
F12485.976666666666
sI5
F13486.933333333332
sI6
F13443.946666666667
sI7
F13560.44
sI8
F7634.6433333333325
sI9
F13650.623333333333
sI10
F13535.43
sI11
F13785.696666666667
sI12
F13745.273333333334
sI13
F11746.603333333333
ssg78
(dp509
I0
F63.84988
sI1
F89.59549
sI2
F79.96601
sI3
F74.88258
sI4
F79.251
sI5
F76.42941
sI6
F87.84604
sI7
F93.58459
sI8
F228.5835
sI9
F64.46149
sI10
F74.21796
sI11
F67.48879
sI12
F64.45065
sI13
F128.4971
ssg80
(dp510
I0
F11.184
sI1
F11.179
sI2
F11.231
sI3
F11.214
sI4
F11.271
sI5
F11.198
sI6
F11.197
sI7
F11.19
sI8
F11.809
sI9
F11.184
sI10
F11.188
sI11
F11.174
sI12
F11.175
sI13
F11.344
ssg82
(dp511
I0
F0.002
sI1
F0.002
sI2
F0.002
sI3
F0.002
sI4
F0.002
sI5
F0.002
sI6
F0.002
sI7
F0.002
sI8
F0.003
sI9
F0.002
sI10
F0.002
sI11
F0.002
sI12
F0.002
sI13
F0.002
ssg84
(dp512
I0
F0.6947705136083556
sI1
Fnan
sI2
Fnan
sI3
Fnan
sI4
Fnan
sI5
Fnan
sI6
Fnan
sI7
Fnan
sI8
Fnan
sI9
Fnan
sI10
Fnan
sI11
Fnan
sI12
Fnan
sI13
Fnan
ssg86
(dp513
I0
F11.252714285714287
sI1
Fnan
sI2
Fnan
sI3
Fnan
sI4
Fnan
sI5
Fnan
sI6
Fnan
sI7
Fnan
sI8
Fnan
sI9
Fnan
sI10
Fnan
sI11
Fnan
sI12
Fnan
sI13
Fnan
ssg88
(dp514
I0
F11.03
sI1
F11.021
sI2
F11.062
sI3
F11.054
sI4
F11.114
sI5
F11.039
sI6
F11.035
sI7
F11.024
sI8
F11.651
sI9
F11.021
sI10
F11.029
sI11
F11.011
sI12
F11.011
sI13
F11.178
ssg90
(dp515
I0
F-2.300813
sI1
F4.641467
sI2
F-4.099777
sI3
F5.5103
sI4
F4.94926
sI5
F2.605794
sI6
F4.507698
sI7
F4.224195
sI8
F5.857315
sI9
F-3.866794
sI10
F-4.518089
sI11
F5.158185
sI12
F4.514765
sI13
F2.99898
ssg92
(dp516
I0
F0.16781295186363515
sI1
Fnan
sI2
Fnan
sI3
Fnan
sI4
Fnan
sI5
Fnan
sI6
Fnan
sI7
Fnan
sI8
Fnan
sI9
Fnan
sI10
Fnan
sI11
Fnan
sI12
Fnan
sI13
Fnan
ssg94
(dp517
I0
F0.7252435088185656
sI1
F0.7233587575295937
sI2
F0.7151859904627835
sI3
F0.7215305490697218
sI4
F0.7248347153138706
sI5
F0.7203005700959209
sI6
F0.7211033232050202
sI7
F0.719606936931327
sI8
F0.7232827189844693
sI9
F0.719355027521205
sI10
F0.7229184956139647
sI11
F0.7191634682850098
sI12
F0.7200606295604356
sI13
F0.7202114231280945
ssg96
(dp518
I0
F30.0
sI1
F30.0
sI2
F30.0
sI3
F30.0
sI4
F30.0
sI5
F30.0
sI6
F30.0
sI7
F30.0
sI8
F30.0
sI9
F30.0
sI10
F30.0
sI11
F30.0
sI12
F30.0
sI13
F30.0
ssg98
(dp519
I0
F0.002
sI1
F0.002
sI2
F0.002
sI3
F0.002
sI4
F0.002
sI5
F0.002
sI6
F0.002
sI7
F0.002
sI8
F0.004
sI9
F0.002
sI10
F0.002
sI11
F0.002
sI12
F0.002
sI13
F0.002
ssg100
(dp520
I0
F0.002
sI1
F0.002
sI2
F0.002
sI3
F0.002
sI4
F0.002
sI5
F0.002
sI6
F0.002
sI7
F0.002
sI8
F0.003
sI9
F0.002
sI10
F0.002
sI11
F0.002
sI12
F0.002
sI13
F0.002
ssg102
(dp521
I0
F2.655757
sI1
F-1.574673
sI2
F4.852012
sI3
F6.412268
sI4
F4.312417
sI5
F-4.19718
sI6
F5.578325
sI7
F4.696082
sI8
F6.640028
sI9
F4.485454
sI10
F5.995881
sI11
F-3.89067
sI12
F-4.389107
sI13
F-5.710173
ssg104
(dp522
I0
S'KIC8462852-20180826at052051_-25-1X1-030-V_cal.fts.mag.1'
p523
sI1
S'KIC8462852-20180826at055629_-25-1X1-030-V_cal.fts.mag.1'
p524
sI2
S'KIC8462852-20180826at044932_-25-1X1-030-V_cal.fts.mag.1'
p525
sI3
S'KIC8462852-20180826at045451_-25-1X1-030-V_cal.fts.mag.1'
p526
sI4
S'KIC8462852-20180826at045058_-25-1X1-030-V_cal.fts.mag.1'
p527
sI5
S'KIC8462852-20180826at045217_-25-1X1-030-V_cal.fts.mag.1'
p528
sI6
S'KIC8462852-20180826at055747_-25-1X1-030-V_cal.fts.mag.1'
p529
sI7
S'KIC8462852-20180826at055512_-25-1X1-030-V_cal.fts.mag.1'
p530
sI8
S'KIC8462852-20180826at055227_-25-1X1-030-V_cal.fts.mag.1'
p531
sI9
S'KIC8462852-20180826at052334_-25-1X1-030-V_cal.fts.mag.1'
p532
sI10
S'KIC8462852-20180826at045333_-25-1X1-030-V_cal.fts.mag.1'
p533
sI11
S'KIC8462852-20180826at052451_-25-1X1-030-V_cal.fts.mag.1'
p534
sI12
S'KIC8462852-20180826at052217_-25-1X1-030-V_cal.fts.mag.1'
p535
sI13
S'KIC8462852-20180826at055355_-25-1X1-030-V_cal.fts.mag.1'
p536
ssg121
(dp537
I0
F0.004060456809226525
sI1
Fnan
sI2
Fnan
sI3
Fnan
sI4
Fnan
sI5
Fnan
sI6
Fnan
sI7
Fnan
sI8
Fnan
sI9
Fnan
sI10
Fnan
sI11
Fnan
sI12
Fnan
sI13
Fnan
ssg123
(dp538
I0
F7321.703333333334
sI1
F7439.786666666667
sI2
F7024.496666666667
sI3
F7161.663333333333
sI4
F6771.493333333333
sI5
F7283.366666666667
sI6
F7296.663333333333
sI7
F7359.133333333333
sI8
F4164.02
sI9
F7360.8566666666675
sI10
F7366.406666666667
sI11
F7452.966666666666
sI12
F7430.556666666667
sI13
F6416.9766666666665
ssg125
(dp539
I0
F0.1667385925386147
sI1
Fnan
sI2
Fnan
sI3
Fnan
sI4
Fnan
sI5
Fnan
sI6
Fnan
sI7
Fnan
sI8
Fnan
sI9
Fnan
sI10
Fnan
sI11
Fnan
sI12
Fnan
sI13
Fnan
ssg127
(dp540
I0
g463
sI1
g463
sI2
g463
sI3
g463
sI4
g463
sI5
g463
sI6
g463
sI7
g463
sI8
g463
sI9
g463
sI10
g463
sI11
g463
sI12
g463
sI13
g463
ssg144
(dp541
I0
F0.0034267520600424566
sI1
Fnan
sI2
Fnan
sI3
Fnan
sI4
Fnan
sI5
Fnan
sI6
Fnan
sI7
Fnan
sI8
Fnan
sI9
Fnan
sI10
Fnan
sI11
Fnan
sI12
Fnan
sI13
Fnan
ssg146
(dp542
I0
F3.998961
sI1
F4.03566
sI2
F5.092687
sI3
F4.873939
sI4
F5.497966
sI5
F-3.922613
sI6
F5.496426
sI7
F3.234643
sI8
F-6.609715
sI9
F-4.359301
sI10
F2.08274
sI11
F3.689472
sI12
F3.372911
sI13
F-2.293853
ssg148
(dp543
I0
F1.4934781159465522
sI1
Fnan
sI2
Fnan
sI3
Fnan
sI4
Fnan
sI5
Fnan
sI6
Fnan
sI7
Fnan
sI8
Fnan
sI9
Fnan
sI10
Fnan
sI11
Fnan
sI12
Fnan
sI13
Fnan
ssg150
(dp544
I0
F2458356.724253472
sI1
Fnan
sI2
Fnan
sI3
Fnan
sI4
Fnan
sI5
Fnan
sI6
Fnan
sI7
Fnan
sI8
Fnan
sI9
Fnan
sI10
Fnan
sI11
Fnan
sI12
Fnan
sI13
Fnan
ssg152
(dp545
I0
F0.0034267520600424566
sI1
Fnan
sI2
Fnan
sI3
Fnan
sI4
Fnan
sI5
Fnan
sI6
Fnan
sI7
Fnan
sI8
Fnan
sI9
Fnan
sI10
Fnan
sI11
Fnan
sI12
Fnan
sI13
Fnan
ssg154
(dp546
I0
F66.7248
sI1
F92.46266
sI2
F81.12498
sI3
F77.53721
sI4
F82.69984
sI5
F78.28101
sI6
F91.77729
sI7
F95.32452
sI8
F228.8996
sI9
F66.67628
sI10
F77.25056
sI11
F68.24898
sI12
F66.36252
sI13
F130.1245
ssg156
(dp547
I0
F10.671
sI1
F10.663
sI2
F10.701
sI3
F10.694
sI4
F10.759
sI5
F10.675
sI6
F10.679
sI7
F10.669
sI8
F11.293
sI9
F10.662
sI10
F10.671
sI11
F10.651
sI12
F10.655
sI13
F10.825
ssg158
(dp548
I0
F0.6947705136083556
sI1
Fnan
sI2
Fnan
sI3
Fnan
sI4
Fnan
sI5
Fnan
sI6
Fnan
sI7
Fnan
sI8
Fnan
sI9
Fnan
sI10
Fnan
sI11
Fnan
sI12
Fnan
sI13
Fnan
sss.