(dp0
S'i'
p1
(dp2
S'sigmean'
p3
(dp4
I0
F0.4410933641192583
sI1
Fnan
sI2
Fnan
sI3
Fnan
sI4
Fnan
sI5
Fnan
sI6
Fnan
sI7
Fnan
sI8
Fnan
sI9
Fnan
sI10
Fnan
sI11
Fnan
sI12
Fnan
sI13
Fnan
sI14
Fnan
ssS'ref3flag'
p5
(dp6
I0
S'NoError'
p7
sI1
S'NoError'
p8
sI2
S'NoError'
p9
sI3
S'NoError'
p10
sI4
S'NoError'
p11
sI5
S'NoError'
p12
sI6
S'NoError'
p13
sI7
S'NoError'
p14
sI8
S'NoError'
p15
sI9
S'NoError'
p16
sI10
S'NoError'
p17
sI11
S'NoError'
p18
sI12
S'NoError'
p19
sI13
S'NoError'
p20
sI14
S'NoError'
p21
ssS'tabbyerr'
p22
(dp23
I0
F0.003
sI1
F0.003
sI2
F0.003
sI3
F0.003
sI4
F0.003
sI5
F0.003
sI6
F0.003
sI7
F0.003
sI8
F0.003
sI9
F0.003
sI10
F0.003
sI11
F0.003
sI12
F0.003
sI13
F0.003
sI14
F0.003
ssS'ref2rel'
p24
(dp25
I0
F0.9166403943802613
sI1
F0.9114030795793161
sI2
F0.9131320533899444
sI3
F0.9170121164596665
sI4
F0.9092959631952888
sI5
F0.9131889382757477
sI6
F0.908854014509388
sI7
F0.9102102547606353
sI8
F0.9119083304971594
sI9
F0.9126430936626714
sI10
F0.9112897551452412
sI11
F0.910661620699051
sI12
F0.9149725517415955
sI13
F0.9107728563068759
sI14
F0.9130085215805341
ssS'ref2err'
p26
(dp27
I0
F0.0024280004654673067
sI1
Fnan
sI2
Fnan
sI3
Fnan
sI4
Fnan
sI5
Fnan
sI6
Fnan
sI7
Fnan
sI8
Fnan
sI9
Fnan
sI10
Fnan
sI11
Fnan
sI12
Fnan
sI13
Fnan
sI14
Fnan
ssS'ref2mean'
p28
(dp29
I0
F0.9123329029455584
sI1
Fnan
sI2
Fnan
sI3
Fnan
sI4
Fnan
sI5
Fnan
sI6
Fnan
sI7
Fnan
sI8
Fnan
sI9
Fnan
sI10
Fnan
sI11
Fnan
sI12
Fnan
sI13
Fnan
sI14
Fnan
ssS'tabbymag'
p30
(dp31
I0
F11.876
sI1
F11.927
sI2
F11.913
sI3
F11.933
sI4
F11.899
sI5
F11.875
sI6
F11.906
sI7
F11.897
sI8
F11.907
sI9
F11.91
sI10
F11.914
sI11
F11.891
sI12
F11.882
sI13
F11.915
sI14
F11.914
ssS'tabbybkg'
p32
(dp33
I0
F29.27277
sI1
F30.78625
sI2
F27.63519
sI3
F27.13217
sI4
F25.54575
sI5
F30.31286
sI6
F26.50877
sI7
F29.90245
sI8
F29.81995
sI9
F29.89203
sI10
F30.54739
sI11
F30.12577
sI12
F29.51808
sI13
F27.06883
sI14
F29.74005
ssS'JD'
p34
(dp35
I0
F2458415.623321759
sI1
F2458415.6038194443
sI2
F2458415.584351852
sI3
F2458415.5850810185
sI4
F2458415.582858796
sI5
F2458415.6211111112
sI6
F2458415.5858101854
sI7
F2458415.6203935184
sI8
F2458415.602349537
sI9
F2458415.6016087965
sI10
F2458415.604560185
sI11
F2458415.6225925926
sI12
F2458415.6218518517
sI13
F2458415.583611111
sI14
F2458415.603090278
ssS'ref3rmsmean'
p36
(dp37
I0
F2.2668073333333334
sI1
Fnan
sI2
Fnan
sI3
Fnan
sI4
Fnan
sI5
Fnan
sI6
Fnan
sI7
Fnan
sI8
Fnan
sI9
Fnan
sI10
Fnan
sI11
Fnan
sI12
Fnan
sI13
Fnan
sI14
Fnan
ssS'ref1rmsmean'
p38
(dp39
I0
F0.8403680666666666
sI1
Fnan
sI2
Fnan
sI3
Fnan
sI4
Fnan
sI5
Fnan
sI6
Fnan
sI7
Fnan
sI8
Fnan
sI9
Fnan
sI10
Fnan
sI11
Fnan
sI12
Fnan
sI13
Fnan
sI14
Fnan
ssS'relflux'
p40
(dp41
I0
F0.44294058377760714
sI1
F0.43840167889199355
sI2
F0.4381189669965942
sI3
F0.44072021910844283
sI4
F0.4425586814932343
sI5
F0.44190908242580956
sI6
F0.44329247132354826
sI7
F0.44177619647194133
sI8
F0.4385850990768472
sI9
F0.4410869205134823
sI10
F0.4409504325110755
sI11
F0.44100912262939024
sI12
F0.4428392471839269
sI13
F0.4396426493586177
sI14
F0.43959471290370045
ssS'sigerr'
p42
(dp43
I0
F0.001526646850414142
sI1
Fnan
sI2
Fnan
sI3
Fnan
sI4
Fnan
sI5
Fnan
sI6
Fnan
sI7
Fnan
sI8
Fnan
sI9
Fnan
sI10
Fnan
sI11
Fnan
sI12
Fnan
sI13
Fnan
sI14
Fnan
ssS'tabbyrmsmean'
p44
(dp45
I0
F1.8661321333333338
sI1
Fnan
sI2
Fnan
sI3
Fnan
sI4
Fnan
sI5
Fnan
sI6
Fnan
sI7
Fnan
sI8
Fnan
sI9
Fnan
sI10
Fnan
sI11
Fnan
sI12
Fnan
sI13
Fnan
sI14
Fnan
ssS'tabbyflag'
p46
(dp47
I0
g7
sI1
g8
sI2
g9
sI3
g10
sI4
g11
sI5
g12
sI6
g13
sI7
g14
sI8
g15
sI9
g16
sI10
g17
sI11
g18
sI12
g19
sI13
g20
sI14
g21
ssS'ref1err'
p48
(dp49
I0
F0.0018053852312374186
sI1
Fnan
sI2
Fnan
sI3
Fnan
sI4
Fnan
sI5
Fnan
sI6
Fnan
sI7
Fnan
sI8
Fnan
sI9
Fnan
sI10
Fnan
sI11
Fnan
sI12
Fnan
sI13
Fnan
sI14
Fnan
ssS'ref2magmeanerr'
p50
(dp51
I0
F0.015293322539125048
sI1
Fnan
sI2
Fnan
sI3
Fnan
sI4
Fnan
sI5
Fnan
sI6
Fnan
sI7
Fnan
sI8
Fnan
sI9
Fnan
sI10
Fnan
sI11
Fnan
sI12
Fnan
sI13
Fnan
sI14
Fnan
ssS'ref2rmsmean'
p52
(dp53
I0
F1.8595561999999999
sI1
Fnan
sI2
Fnan
sI3
Fnan
sI4
Fnan
sI5
Fnan
sI6
Fnan
sI7
Fnan
sI8
Fnan
sI9
Fnan
sI10
Fnan
sI11
Fnan
sI12
Fnan
sI13
Fnan
sI14
Fnan
ssS'ref3rel'
p54
(dp55
I0
F1.4947848797844299
sI1
F1.5033025840540215
sI2
F1.4976554968557632
sI3
F1.492764790261301
sI4
F1.4998131761531226
sI5
F1.4966004826311583
sI6
F1.5026209237059291
sI7
F1.500765168245724
sI8
F1.493973273229349
sI9
F1.5045558545564996
sI10
F1.4993834948558238
sI11
F1.4976823373314603
sI12
F1.4937915906466128
sI13
F1.498191190472505
sI14
F1.5009779876421707
ssS'ref1flag'
p56
(dp57
I0
g7
sI1
g8
sI2
g9
sI3
g10
sI4
g11
sI5
g12
sI6
g13
sI7
g14
sI8
g15
sI9
g16
sI10
g17
sI11
g18
sI12
g19
sI13
g20
sI14
g21
ssS'ref2bkg'
p58
(dp59
I0
F31.41313
sI1
F32.2105
sI2
F28.40442
sI3
F29.08163
sI4
F29.67876
sI5
F31.21483
sI6
F29.14248
sI7
F31.70395
sI8
F32.33838
sI9
F31.27138
sI10
F31.89111
sI11
F32.37147
sI12
F31.02762
sI13
F29.27011
sI14
F33.25415
ssS'ref3magmean'
p60
(dp61
I0
F10.742666666666668
sI1
Fnan
sI2
Fnan
sI3
Fnan
sI4
Fnan
sI5
Fnan
sI6
Fnan
sI7
Fnan
sI8
Fnan
sI9
Fnan
sI10
Fnan
sI11
Fnan
sI12
Fnan
sI13
Fnan
sI14
Fnan
ssS'ref1mean'
p62
(dp63
I0
F0.6969317103694923
sI1
Fnan
sI2
Fnan
sI3
Fnan
sI4
Fnan
sI5
Fnan
sI6
Fnan
sI7
Fnan
sI8
Fnan
sI9
Fnan
sI10
Fnan
sI11
Fnan
sI12
Fnan
sI13
Fnan
sI14
Fnan
ssS'ref1rms'
p64
(dp65
I0
F4.034873
sI1
F3.275344
sI2
F-1.695954
sI3
F-4.376874
sI4
F-2.433863
sI5
F-3.698806
sI6
F5.306827
sI7
F-2.785398
sI8
F3.777949
sI9
F2.615503
sI10
F3.243677
sI11
F-2.609142
sI12
F2.586188
sI13
F3.794106
sI14
F1.571091
ssS'ref2magmean'
p66
(dp67
I0
F11.082199999999998
sI1
Fnan
sI2
Fnan
sI3
Fnan
sI4
Fnan
sI5
Fnan
sI6
Fnan
sI7
Fnan
sI8
Fnan
sI9
Fnan
sI10
Fnan
sI11
Fnan
sI12
Fnan
sI13
Fnan
sI14
Fnan
ssS'ref2flag'
p68
(dp69
I0
g7
sI1
g8
sI2
g9
sI3
g10
sI4
g11
sI5
g12
sI6
g13
sI7
g14
sI8
g15
sI9
g16
sI10
g17
sI11
g18
sI12
g19
sI13
g20
sI14
g21
ssS'ref2'
p70
(dp71
I0
F9497.836666666666
sI1
F9118.136666666665
sI2
F9253.56
sI3
F9063.06
sI4
F9255.843333333332
sI5
F9506.526666666667
sI6
F9177.453333333333
sI7
F9295.19
sI8
F9288.576666666666
sI9
F9218.916666666666
sI10
F9173.943333333333
sI11
F9369.363333333335
sI12
F9433.926666666666
sI13
F9193.013333333334
sI14
F9220.890000000001
ssS'airmass'
p72
(dp73
I0
F1.0436020000000001
sI1
F1.021696
sI2
F1.0088780000000002
sI3
F1.0092020000000002
sI4
F1.00826
sI5
F1.040641
sI6
F1.0095379999999998
sI7
F1.039678
sI8
F1.020414
sI9
F1.019794
sI10
F1.022348
sI11
F1.042585
sI12
F1.041608
sI13
F1.008566
sI14
F1.021043
ssS'ref1'
p74
(dp75
I0
F7797.066666666667
sI1
F7510.256666666667
sI2
F7627.0599999999995
sI3
F7445.1
sI4
F7667.406666666667
sI5
F7840.053333333333
sI6
F7594.623333333334
sI7
F7683.6466666666665
sI8
F7689.406666666667
sI9
F7571.566666666667
sI10
F7576.39
sI11
F7754.21
sI12
F7770.963333333333
sI13
F7604.406666666667
sI14
F7585.73
ssS'ref3'
p76
(dp77
I0
F12926.08
sI1
F12498.753333333332
sI2
F12640.676666666666
sI3
F12321.4
sI4
F12690.856666666667
sI5
F12980.45
sI6
F12601.036666666665
sI7
F12740.623333333333
sI8
F12682.326666666666
sI9
F12631.109999999999
sI10
F12557.586666666666
sI11
F12822.836666666666
sI12
F12850.26
sI13
F12582.873333333333
sI14
F12613.183333333332
ssS'ref1bkg'
p78
(dp79
I0
F31.50399
sI1
F31.66408
sI2
F28.26237
sI3
F30.51759
sI4
F28.10871
sI5
F30.69087
sI6
F27.54662
sI7
F31.67987
sI8
F29.86109
sI9
F30.87427
sI10
F30.99967
sI11
F30.53413
sI12
F30.49928
sI13
F28.88286
sI14
F31.36384
ssS'ref1mag'
p80
(dp81
I0
F11.27
sI1
F11.311
sI2
F11.294
sI3
F11.32
sI4
F11.288
sI5
F11.264
sI6
F11.299
sI7
F11.286
sI8
F11.285
sI9
F11.302
sI10
F11.301
sI11
F11.276
sI12
F11.274
sI13
F11.297
sI14
F11.3
ssS'ref3magerr'
p82
(dp83
I0
F0.002
sI1
F0.002
sI2
F0.002
sI3
F0.002
sI4
F0.002
sI5
F0.002
sI6
F0.002
sI7
F0.002
sI8
F0.002
sI9
F0.002
sI10
F0.002
sI11
F0.002
sI12
F0.002
sI13
F0.002
sI14
F0.002
ssS'tabbymagmean'
p84
(dp85
I0
F0.44089507097774744
sI1
Fnan
sI2
Fnan
sI3
Fnan
sI4
Fnan
sI5
Fnan
sI6
Fnan
sI7
Fnan
sI8
Fnan
sI9
Fnan
sI10
Fnan
sI11
Fnan
sI12
Fnan
sI13
Fnan
sI14
Fnan
ssS'ref1magmean'
p86
(dp87
I0
F11.291133333333333
sI1
Fnan
sI2
Fnan
sI3
Fnan
sI4
Fnan
sI5
Fnan
sI6
Fnan
sI7
Fnan
sI8
Fnan
sI9
Fnan
sI10
Fnan
sI11
Fnan
sI12
Fnan
sI13
Fnan
sI14
Fnan
ssS'ref2mag'
p88
(dp89
I0
F11.056
sI1
F11.1
sI2
F11.084
sI3
F11.107
sI4
F11.084
sI5
F11.055
sI6
F11.093
sI7
F11.079
sI8
F11.08
sI9
F11.088
sI10
F11.094
sI11
F11.071
sI12
F11.063
sI13
F11.091
sI14
F11.088
ssS'ref3rms'
p90
(dp91
I0
F-1.205839
sI1
F4.001235
sI2
F4.849216
sI3
F2.032604
sI4
F4.443213
sI5
F2.451813
sI6
F3.716522
sI7
F1.754383
sI8
F4.825414
sI9
F-1.987194
sI10
F-5.114457
sI11
F4.216037
sI12
F2.916779
sI13
F4.160293
sI14
F2.942091
ssS'ref3magmeanerr'
p92
(dp93
I0
F0.014543858137502705
sI1
Fnan
sI2
Fnan
sI3
Fnan
sI4
Fnan
sI5
Fnan
sI6
Fnan
sI7
Fnan
sI8
Fnan
sI9
Fnan
sI10
Fnan
sI11
Fnan
sI12
Fnan
sI13
Fnan
sI14
Fnan
ssS'ref1rel'
p94
(dp95
I0
F0.6954241564995708
sI1
F0.6948508010788478
sI2
F0.6967185123756313
sI3
F0.696309376060934
sI4
F0.6987298014431935
sI5
F0.6972972355999242
sI6
F0.6974425989435755
sI7
F0.6973780863394499
sI8
F0.6999627234261799
sI9
F0.6930487346468532
sI10
F0.6972716601178105
sI11
F0.6988230098863565
sI12
F0.6974419528586489
sI13
F0.698424526456328
sI14
F0.6948524798090813
ssS'exposure'
p96
(dp97
I0
F30.0
sI1
F30.0
sI2
F30.0
sI3
F30.0
sI4
F30.0
sI5
F30.0
sI6
F30.0
sI7
F30.0
sI8
F30.0
sI9
F30.0
sI10
F30.0
sI11
F30.0
sI12
F30.0
sI13
F30.0
sI14
F30.0
ssS'ref1magerr'
p98
(dp99
I0
F0.002
sI1
F0.002
sI2
F0.002
sI3
F0.002
sI4
F0.002
sI5
F0.002
sI6
F0.002
sI7
F0.002
sI8
F0.002
sI9
F0.002
sI10
F0.002
sI11
F0.002
sI12
F0.002
sI13
F0.002
sI14
F0.002
ssS'ref2magerr'
p100
(dp101
I0
F0.002
sI1
F0.002
sI2
F0.002
sI3
F0.002
sI4
F0.002
sI5
F0.002
sI6
F0.002
sI7
F0.002
sI8
F0.002
sI9
F0.002
sI10
F0.002
sI11
F0.002
sI12
F0.002
sI13
F0.002
sI14
F0.002
ssS'ref2rms'
p102
(dp103
I0
F1.765417
sI1
F2.622788
sI2
F1.987484
sI3
F2.067328
sI4
F1.779174
sI5
F4.390865
sI6
F3.642598
sI7
F4.706446
sI8
F-3.322432
sI9
F4.279425
sI10
F-3.013406
sI11
F-3.466146
sI12
F4.475665
sI13
F3.481734
sI14
F2.496403
ssS'name'
p104
(dp105
I0
S"KIC8462852-20181024at025735_-25-1X1-030-i'_cal.fts.mag.1"
p106
sI1
S"KIC8462852-20181024at022930_-25-1X1-030-i'_cal.fts.mag.1"
p107
sI2
S"KIC8462852-20181024at020128_-25-1X1-030-i'_cal.fts.mag.1"
p108
sI3
S"KIC8462852-20181024at020231_-25-1X1-030-i'_cal.fts.mag.1"
p109
sI4
S"KIC8462852-20181024at015918_-25-1X1-030-i'_cal.fts.mag.1"
p110
sI5
S"KIC8462852-20181024at025424_-25-1X1-030-i'_cal.fts.mag.1"
p111
sI6
S"KIC8462852-20181024at020334_-25-1X1-030-i'_cal.fts.mag.1"
p112
sI7
S"KIC8462852-20181024at025320_-25-1X1-030-i'_cal.fts.mag.1"
p113
sI8
S"KIC8462852-20181024at022723_-25-1X1-030-i'_cal.fts.mag.1"
p114
sI9
S"KIC8462852-20181024at022617_-25-1X1-030-i'_cal.fts.mag.1"
p115
sI10
S"KIC8462852-20181024at023034_-25-1X1-030-i'_cal.fts.mag.1"
p116
sI11
S"KIC8462852-20181024at025632_-25-1X1-030-i'_cal.fts.mag.1"
p117
sI12
S"KIC8462852-20181024at025528_-25-1X1-030-i'_cal.fts.mag.1"
p118
sI13
S"KIC8462852-20181024at020024_-25-1X1-030-i'_cal.fts.mag.1"
p119
sI14
S"KIC8462852-20181024at022827_-25-1X1-030-i'_cal.fts.mag.1"
p120
ssS'ref3err'
p121
(dp122
I0
F0.0036342614048099175
sI1
Fnan
sI2
Fnan
sI3
Fnan
sI4
Fnan
sI5
Fnan
sI6
Fnan
sI7
Fnan
sI8
Fnan
sI9
Fnan
sI10
Fnan
sI11
Fnan
sI12
Fnan
sI13
Fnan
sI14
Fnan
ssS'tabby'
p123
(dp124
I0
F4462.033333333334
sI1
F4256.463333333333
sI2
F4311.28
sI3
F4235.256666666666
sI4
F4368.66
sI5
F4467.263333333333
sI6
F4340.293333333333
sI7
F4376.45
sI8
F4336.19
sI9
F4325.826666666667
sI10
F4307.78
sI11
F4402.213333333333
sI12
F4436.533333333334
sI13
F4305.61
sI14
F4310.929999999999
ssS'ref1magmeanerr'
p125
(dp126
I0
F0.015597008260133568
sI1
Fnan
sI2
Fnan
sI3
Fnan
sI4
Fnan
sI5
Fnan
sI6
Fnan
sI7
Fnan
sI8
Fnan
sI9
Fnan
sI10
Fnan
sI11
Fnan
sI12
Fnan
sI13
Fnan
sI14
Fnan
ssS'filter'
p127
(dp128
I0
S"i'"
p129
sI1
S"i'"
p130
sI2
S"i'"
p131
sI3
S"i'"
p132
sI4
S"i'"
p133
sI5
S"i'"
p134
sI6
S"i'"
p135
sI7
S"i'"
p136
sI8
S"i'"
p137
sI9
S"i'"
p138
sI10
S"i'"
p139
sI11
S"i'"
p140
sI12
S"i'"
p141
sI13
S"i'"
p142
sI14
S"i'"
p143
ssS'tabbymagerr'
p144
(dp145
I0
F0.001708933338499082
sI1
Fnan
sI2
Fnan
sI3
Fnan
sI4
Fnan
sI5
Fnan
sI6
Fnan
sI7
Fnan
sI8
Fnan
sI9
Fnan
sI10
Fnan
sI11
Fnan
sI12
Fnan
sI13
Fnan
sI14
Fnan
ssS'tabbyrms'
p146
(dp147
I0
F3.73446
sI1
F2.945826
sI2
F3.749996
sI3
F-2.585871
sI4
F4.653788
sI5
F-2.010535
sI6
F4.473129
sI7
F4.301898
sI8
F-2.142085
sI9
F-2.091665
sI10
F4.010442
sI11
F-2.78615
sI12
F4.392523
sI13
F3.076875
sI14
F4.269351
ssS'ref3mean'
p148
(dp149
I0
F1.498457548695058
sI1
Fnan
sI2
Fnan
sI3
Fnan
sI4
Fnan
sI5
Fnan
sI6
Fnan
sI7
Fnan
sI8
Fnan
sI9
Fnan
sI10
Fnan
sI11
Fnan
sI12
Fnan
sI13
Fnan
sI14
Fnan
ssS'median_JD'
p150
(dp151
I0
F2458415.603090278
sI1
Fnan
sI2
Fnan
sI3
Fnan
sI4
Fnan
sI5
Fnan
sI6
Fnan
sI7
Fnan
sI8
Fnan
sI9
Fnan
sI10
Fnan
sI11
Fnan
sI12
Fnan
sI13
Fnan
sI14
Fnan
ssS'error'
p152
(dp153
I0
F0.001708933338499082
sI1
Fnan
sI2
Fnan
sI3
Fnan
sI4
Fnan
sI5
Fnan
sI6
Fnan
sI7
Fnan
sI8
Fnan
sI9
Fnan
sI10
Fnan
sI11
Fnan
sI12
Fnan
sI13
Fnan
sI14
Fnan
ssS'ref3bkg'
p154
(dp155
I0
F34.02363
sI1
F34.23437
sI2
F31.58746
sI3
F33.6853
sI4
F30.5781
sI5
F32.15553
sI6
F29.91797
sI7
F33.46536
sI8
F33.1926
sI9
F33.62128
sI10
F36.21192
sI11
F33.7615
sI12
F33.33316
sI13
F30.58538
sI14
F33.52272
ssS'ref3mag'
p156
(dp157
I0
F10.721
sI1
F10.758
sI2
F10.746
sI3
F10.773
sI4
F10.741
sI5
F10.717
sI6
F10.749
sI7
F10.737
sI8
F10.742
sI9
F10.746
sI10
F10.753
sI11
F10.73
sI12
F10.728
sI13
F10.751
sI14
F10.748
ssS'mean'
p158
(dp159
I0
F0.44089507097774744
sI1
Fnan
sI2
Fnan
sI3
Fnan
sI4
Fnan
sI5
Fnan
sI6
Fnan
sI7
Fnan
sI8
Fnan
sI9
Fnan
sI10
Fnan
sI11
Fnan
sI12
Fnan
sI13
Fnan
sI14
Fnan
sssS'r'
p160
(dp161
g3
(dp162
I0
F0.5521894642157301
sI1
Fnan
sI2
Fnan
sI3
Fnan
sI4
Fnan
sI5
Fnan
sI6
Fnan
sI7
Fnan
sI8
Fnan
sI9
Fnan
sI10
Fnan
sI11
Fnan
sI12
Fnan
sI13
Fnan
sI14
Fnan
ssg5
(dp163
I0
S'NoError'
p164
sI1
S'NoError'
p165
sI2
S'NoError'
p166
sI3
S'NoError'
p167
sI4
S'NoError'
p168
sI5
S'NoError'
p169
sI6
S'NoError'
p170
sI7
S'NoError'
p171
sI8
S'NoError'
p172
sI9
S'NoError'
p173
sI10
S'NoError'
p174
sI11
S'NoError'
p175
sI12
S'NoError'
p176
sI13
S'NoError'
p177
sI14
S'NoError'
p178
ssg22
(dp179
I0
F0.002
sI1
F0.002
sI2
F0.002
sI3
F0.002
sI4
F0.002
sI5
F0.002
sI6
F0.002
sI7
F0.002
sI8
F0.002
sI9
F0.002
sI10
F0.002
sI11
F0.002
sI12
F0.002
sI13
F0.002
sI14
F0.002
ssg24
(dp180
I0
F0.8941479437054702
sI1
F0.8962024746925557
sI2
F0.8991558133156736
sI3
F0.8941058204646439
sI4
F0.8914770993397652
sI5
F0.8988211900924072
sI6
F0.8936736085792367
sI7
F0.8971829795278068
sI8
F0.8997932454591586
sI9
F0.8956916309052263
sI10
F0.8945568864490153
sI11
F0.8948445798613001
sI12
F0.8944250008480759
sI13
F0.8989481652642872
sI14
F0.8995303483558197
ssg26
(dp181
I0
F0.0025821736211220653
sI1
Fnan
sI2
Fnan
sI3
Fnan
sI4
Fnan
sI5
Fnan
sI6
Fnan
sI7
Fnan
sI8
Fnan
sI9
Fnan
sI10
Fnan
sI11
Fnan
sI12
Fnan
sI13
Fnan
sI14
Fnan
ssg28
(dp182
I0
F0.8961704524573627
sI1
Fnan
sI2
Fnan
sI3
Fnan
sI4
Fnan
sI5
Fnan
sI6
Fnan
sI7
Fnan
sI8
Fnan
sI9
Fnan
sI10
Fnan
sI11
Fnan
sI12
Fnan
sI13
Fnan
sI14
Fnan
ssg30
(dp183
I0
F11.187
sI1
F11.181
sI2
F11.176
sI3
F11.184
sI4
F11.181
sI5
F11.166
sI6
F11.218
sI7
F11.171
sI8
F11.236
sI9
F11.167
sI10
F11.193
sI11
F11.179
sI12
F11.16
sI13
F11.186
sI14
F11.181
ssg32
(dp184
I0
F50.81479
sI1
F48.5032
sI2
F55.45812
sI3
F51.79861
sI4
F52.56527
sI5
F55.88596
sI6
F49.13585
sI7
F56.0901
sI8
F50.46948
sI9
F52.82032
sI10
F57.93193
sI11
F49.03469
sI12
F55.57159
sI13
F48.2165
sI14
F51.2263
ssg34
(dp185
I0
F2458415.5986574073
sI1
F2458415.5813425924
sI2
F2458415.6174189816
sI3
F2458415.597916667
sI4
F2458415.6001157407
sI5
F2458415.618148148
sI6
F2458415.5791319446
sI7
F2458415.6166782407
sI8
F2458415.5820949073
sI9
F2458415.6008564816
sI10
F2458415.6196296294
sI11
F2458415.579861111
sI12
F2458415.618888889
sI13
F2458415.580601852
sI14
F2458415.5993865742
ssg36
(dp186
I0
F3.7958886666666656
sI1
Fnan
sI2
Fnan
sI3
Fnan
sI4
Fnan
sI5
Fnan
sI6
Fnan
sI7
Fnan
sI8
Fnan
sI9
Fnan
sI10
Fnan
sI11
Fnan
sI12
Fnan
sI13
Fnan
sI14
Fnan
ssg38
(dp187
I0
F2.1385474
sI1
Fnan
sI2
Fnan
sI3
Fnan
sI4
Fnan
sI5
Fnan
sI6
Fnan
sI7
Fnan
sI8
Fnan
sI9
Fnan
sI10
Fnan
sI11
Fnan
sI12
Fnan
sI13
Fnan
sI14
Fnan
ssg40
(dp188
I0
F0.5547230379908455
sI1
F0.5527919640694229
sI2
F0.5516450749705529
sI3
F0.552777066417607
sI4
F0.5517547306686987
sI5
F0.5520894876943985
sI6
F0.5501531263962914
sI7
F0.5520761800414785
sI8
F0.5511259263848894
sI9
F0.5525315010092026
sI10
F0.5502628431039471
sI11
F0.5514934132977983
sI12
F0.5534609333827029
sI13
F0.5520913806423132
sI14
F0.5524359120096959
ssg42
(dp189
I0
F0.0006215600968961084
sI1
Fnan
sI2
Fnan
sI3
Fnan
sI4
Fnan
sI5
Fnan
sI6
Fnan
sI7
Fnan
sI8
Fnan
sI9
Fnan
sI10
Fnan
sI11
Fnan
sI12
Fnan
sI13
Fnan
sI14
Fnan
ssg44
(dp190
I0
F1.8510853333333332
sI1
Fnan
sI2
Fnan
sI3
Fnan
sI4
Fnan
sI5
Fnan
sI6
Fnan
sI7
Fnan
sI8
Fnan
sI9
Fnan
sI10
Fnan
sI11
Fnan
sI12
Fnan
sI13
Fnan
sI14
Fnan
ssg46
(dp191
I0
g164
sI1
g165
sI2
g166
sI3
g167
sI4
g168
sI5
g169
sI6
g170
sI7
g171
sI8
g172
sI9
g173
sI10
g174
sI11
g175
sI12
g176
sI13
g177
sI14
g178
ssg48
(dp192
I0
F0.0020965940277172163
sI1
Fnan
sI2
Fnan
sI3
Fnan
sI4
Fnan
sI5
Fnan
sI6
Fnan
sI7
Fnan
sI8
Fnan
sI9
Fnan
sI10
Fnan
sI11
Fnan
sI12
Fnan
sI13
Fnan
sI14
Fnan
ssg50
(dp193
I0
F0.018599027112292933
sI1
Fnan
sI2
Fnan
sI3
Fnan
sI4
Fnan
sI5
Fnan
sI6
Fnan
sI7
Fnan
sI8
Fnan
sI9
Fnan
sI10
Fnan
sI11
Fnan
sI12
Fnan
sI13
Fnan
sI14
Fnan
ssg52
(dp194
I0
F2.558080666666667
sI1
Fnan
sI2
Fnan
sI3
Fnan
sI4
Fnan
sI5
Fnan
sI6
Fnan
sI7
Fnan
sI8
Fnan
sI9
Fnan
sI10
Fnan
sI11
Fnan
sI12
Fnan
sI13
Fnan
sI14
Fnan
ssg54
(dp195
I0
F1.4931816502086694
sI1
F1.4923036242785441
sI2
F1.4948218023935234
sI3
F1.4950666671414494
sI4
F1.4905352439158208
sI5
F1.4889515715300017
sI6
F1.4937631369284876
sI7
F1.4881561501575942
sI8
F1.4882274418434844
sI9
F1.4923105206944596
sI10
F1.49397691484463
sI11
F1.4911672709267212
sI12
F1.4927187739669543
sI13
F1.48967905261647
sI14
F1.491574403328851
ssg56
(dp196
I0
g164
sI1
g165
sI2
g166
sI3
g167
sI4
g168
sI5
g169
sI6
g170
sI7
g171
sI8
g172
sI9
g173
sI10
g174
sI11
g175
sI12
g176
sI13
g177
sI14
g178
ssg58
(dp197
I0
F54.48523
sI1
F51.48922
sI2
F57.86967
sI3
F55.63652
sI4
F54.86475
sI5
F58.57282
sI6
F53.21045
sI7
F57.99782
sI8
F53.79025
sI9
F54.7452
sI10
F58.86131
sI11
F51.92228
sI12
F57.43144
sI13
F51.92157
sI14
F54.61111
ssg60
(dp198
I0
F10.270199999999999
sI1
Fnan
sI2
Fnan
sI3
Fnan
sI4
Fnan
sI5
Fnan
sI6
Fnan
sI7
Fnan
sI8
Fnan
sI9
Fnan
sI10
Fnan
sI11
Fnan
sI12
Fnan
sI13
Fnan
sI14
Fnan
ssg62
(dp199
I0
F0.7149748159573187
sI1
Fnan
sI2
Fnan
sI3
Fnan
sI4
Fnan
sI5
Fnan
sI6
Fnan
sI7
Fnan
sI8
Fnan
sI9
Fnan
sI10
Fnan
sI11
Fnan
sI12
Fnan
sI13
Fnan
sI14
Fnan
ssg64
(dp200
I0
F-3.386157
sI1
F3.593585
sI2
F4.087902
sI3
F2.360721
sI4
F4.447609
sI5
F4.787838
sI6
F3.833391
sI7
F3.784571
sI8
F4.415855
sI9
F-2.670572
sI10
F4.677622
sI11
F-3.921909
sI12
F5.131506
sI13
F-3.902668
sI14
F4.838917
ssg66
(dp201
I0
F10.620266666666668
sI1
Fnan
sI2
Fnan
sI3
Fnan
sI4
Fnan
sI5
Fnan
sI6
Fnan
sI7
Fnan
sI8
Fnan
sI9
Fnan
sI10
Fnan
sI11
Fnan
sI12
Fnan
sI13
Fnan
sI14
Fnan
ssg68
(dp202
I0
g164
sI1
g165
sI2
g166
sI3
g167
sI4
g168
sI5
g169
sI6
g170
sI7
g171
sI8
g172
sI9
g173
sI10
g174
sI11
g175
sI12
g176
sI13
g177
sI14
g178
ssg70
(dp203
I0
F14066.753333333332
sI1
F14208.716666666667
sI2
F14337.866666666667
sI3
F14150.783333333333
sI4
F14187.896666666667
sI5
F14461.866666666667
sI6
F13775.603333333333
sI7
F14380.78
sI8
F13588.356666666667
sI9
F14395.706666666667
sI10
F14108.876666666667
sI11
F14253.859999999999
sI12
F14457.519999999999
sI13
F14198.69
sI14
F14255.043333333333
ssg72
(dp204
I0
F1.017433
sI1
F1.007676
sI2
F1.0359559999999999
sI3
F1.016877
sI4
F1.0185799999999998
sI5
F1.036859
sI6
F1.006912
sI7
F1.035073
sI8
F1.007959
sI9
F1.019168
sI10
F1.038719
sI11
F1.007152
sI12
F1.037787
sI13
F1.007408
sI14
F1.017997
ssg74
(dp205
I0
F12001.626666666667
sI1
F12087.643333333333
sI2
F12118.25
sI3
F12060.03
sI4
F12179.396666666667
sI5
F12274.816666666668
sI6
F11758.333333333334
sI7
F12245.556666666667
sI8
F11519.893333333333
sI9
F12257.16
sI10
F12023.356666666667
sI11
F12162.286666666665
sI12
F12332.84
sI13
F12043.41
sI14
F12065.15
ssg76
(dp206
I0
F19462.413333333334
sI1
F19621.076666666668
sI2
F19773.59
sI3
F19593.456666666665
sI4
F19650.69
sI5
F19904.813333333335
sI6
F19070.826666666668
sI7
F19812.07333333333
sI8
F18683.393333333333
sI9
F19887.17666666667
sI10
F19520.47666666667
sI11
F19695.446666666667
sI12
F19995.236666666668
sI13
F19546.153333333332
sI14
F19629.263333333332
ssg78
(dp207
I0
F53.56858
sI1
F50.65733
sI2
F57.61425
sI3
F54.10893
sI4
F53.24268
sI5
F56.20692
sI6
F51.46379
sI7
F56.50456
sI8
F52.27738
sI9
F54.6246
sI10
F56.81786
sI11
F51.29148
sI12
F56.98442
sI13
F52.35006
sI14
F53.54922
ssg80
(dp208
I0
F10.802
sI1
F10.794
sI2
F10.791
sI3
F10.797
sI4
F10.786
sI5
F10.777
sI6
F10.824
sI7
F10.78
sI8
F10.846
sI9
F10.779
sI10
F10.8
sI11
F10.787
sI12
F10.772
sI13
F10.798
sI14
F10.796
ssg82
(dp209
I0
F0.001
sI1
F0.001
sI2
F0.001
sI3
F0.001
sI4
F0.001
sI5
F0.001
sI6
F0.001
sI7
F0.001
sI8
F0.001
sI9
F0.001
sI10
F0.001
sI11
F0.001
sI12
F0.001
sI13
F0.001
sI14
F0.001
ssg84
(dp210
I0
F0.5520941718719896
sI1
Fnan
sI2
Fnan
sI3
Fnan
sI4
Fnan
sI5
Fnan
sI6
Fnan
sI7
Fnan
sI8
Fnan
sI9
Fnan
sI10
Fnan
sI11
Fnan
sI12
Fnan
sI13
Fnan
sI14
Fnan
ssg86
(dp211
I0
F10.795266666666665
sI1
Fnan
sI2
Fnan
sI3
Fnan
sI4
Fnan
sI5
Fnan
sI6
Fnan
sI7
Fnan
sI8
Fnan
sI9
Fnan
sI10
Fnan
sI11
Fnan
sI12
Fnan
sI13
Fnan
sI14
Fnan
ssg88
(dp212
I0
F10.63
sI1
F10.619
sI2
F10.609
sI3
F10.623
sI4
F10.62
sI5
F10.599
sI6
F10.652
sI7
F10.606
sI8
F10.667
sI9
F10.604
sI10
F10.626
sI11
F10.615
sI12
F10.6
sI13
F10.619
sI14
F10.615
ssg90
(dp213
I0
F5.128702
sI1
F4.083747
sI2
F4.984056
sI3
F4.750367
sI4
F3.535868
sI5
F4.604178
sI6
F5.200955
sI7
F5.9212
sI8
F6.145449
sI9
F4.421751
sI10
F1.84269
sI11
F2.957459
sI12
F4.4963
sI13
F-3.861462
sI14
F2.72707
ssg92
(dp214
I0
F0.018586477419272936
sI1
Fnan
sI2
Fnan
sI3
Fnan
sI4
Fnan
sI5
Fnan
sI6
Fnan
sI7
Fnan
sI8
Fnan
sI9
Fnan
sI10
Fnan
sI11
Fnan
sI12
Fnan
sI13
Fnan
sI14
Fnan
ssg94
(dp215
I0
F0.7158917360507022
sI1
F0.7146152631930552
sI2
F0.7105090889795872
sI3
F0.7147904353454101
sI4
F0.7198525627941907
sI5
F0.7143440487510966
sI6
F0.7159580711409632
sI7
F0.716264100412406
sI8
F0.7139305016513411
sI9
F0.7150600421104214
sI10
F0.7150513152894407
sI11
F0.7164969102952716
sI12
F0.7159276175965407
sI13
F0.7137926160174795
sI14
F0.712137929731876
ssg96
(dp216
I0
F30.0
sI1
F30.0
sI2
F30.0
sI3
F30.0
sI4
F30.0
sI5
F30.0
sI6
F30.0
sI7
F30.0
sI8
F30.0
sI9
F30.0
sI10
F30.0
sI11
F30.0
sI12
F30.0
sI13
F30.0
sI14
F30.0
ssg98
(dp217
I0
F0.002
sI1
F0.002
sI2
F0.002
sI3
F0.002
sI4
F0.002
sI5
F0.002
sI6
F0.002
sI7
F0.002
sI8
F0.002
sI9
F0.002
sI10
F0.002
sI11
F0.002
sI12
F0.002
sI13
F0.002
sI14
F0.002
ssg100
(dp218
I0
F0.002
sI1
F0.002
sI2
F0.002
sI3
F0.002
sI4
F0.002
sI5
F0.002
sI6
F0.002
sI7
F0.002
sI8
F0.002
sI9
F0.002
sI10
F0.002
sI11
F0.002
sI12
F0.002
sI13
F0.002
sI14
F0.002
ssg102
(dp219
I0
F3.455489
sI1
F3.415183
sI2
F4.187186
sI3
F3.792158
sI4
F2.375094
sI5
F3.951461
sI6
F3.153245
sI7
F3.017435
sI8
F6.139797
sI9
F1.126678
sI10
F4.019531
sI11
F-3.788181
sI12
F-4.54196
sI13
F5.174369
sI14
F2.893725
ssg104
(dp220
I0
S"KIC8462852-20181024at022203_-25-1X1-030-r'_cal.fts.mag.1"
p221
sI1
S"KIC8462852-20181024at015708_-25-1X1-030-r'_cal.fts.mag.1"
p222
sI2
S"KIC8462852-20181024at024905_-25-1X1-030-r'_cal.fts.mag.1"
p223
sI3
S"KIC8462852-20181024at022058_-25-1X1-030-r'_cal.fts.mag.1"
p224
sI4
S"KIC8462852-20181024at022410_-25-1X1-030-r'_cal.fts.mag.1"
p225
sI5
S"KIC8462852-20181024at025008_-25-1X1-030-r'_cal.fts.mag.1"
p226
sI6
S"KIC8462852-20181024at015355_-25-1X1-030-r'_cal.fts.mag.1"
p227
sI7
S"KIC8462852-20181024at024759_-25-1X1-030-r'_cal.fts.mag.1"
p228
sI8
S"KIC8462852-20181024at015813_-25-1X1-030-r'_cal.fts.mag.1"
p229
sI9
S"KIC8462852-20181024at022514_-25-1X1-030-r'_cal.fts.mag.1"
p230
sI10
S"KIC8462852-20181024at025216_-25-1X1-030-r'_cal.fts.mag.1"
p231
sI11
S"KIC8462852-20181024at015500_-25-1X1-030-r'_cal.fts.mag.1"
p232
sI12
S"KIC8462852-20181024at025112_-25-1X1-030-r'_cal.fts.mag.1"
p233
sI13
S"KIC8462852-20181024at015604_-25-1X1-030-r'_cal.fts.mag.1"
p234
sI14
S"KIC8462852-20181024at022307_-25-1X1-030-r'_cal.fts.mag.1"
p235
ssg121
(dp236
I0
F0.00227321239416769
sI1
Fnan
sI2
Fnan
sI3
Fnan
sI4
Fnan
sI5
Fnan
sI6
Fnan
sI7
Fnan
sI8
Fnan
sI9
Fnan
sI10
Fnan
sI11
Fnan
sI12
Fnan
sI13
Fnan
sI14
Fnan
ssg123
(dp237
I0
F8418.993333333334
sI1
F8460.93
sI2
F8500.796666666667
sI3
F8439.85
sI4
F8463.546666666667
sI5
F8583.426666666666
sI6
F8179.816666666667
sI7
F8545.846666666666
sI8
F8044.903333333334
sI9
F8571.613333333333
sI10
F8373.663333333334
sI11
F8476.746666666666
sI12
F8631.333333333334
sI13
F8426.433333333332
sI14
F8461.376666666667
ssg125
(dp238
I0
F0.018945284625040918
sI1
Fnan
sI2
Fnan
sI3
Fnan
sI4
Fnan
sI5
Fnan
sI6
Fnan
sI7
Fnan
sI8
Fnan
sI9
Fnan
sI10
Fnan
sI11
Fnan
sI12
Fnan
sI13
Fnan
sI14
Fnan
ssg127
(dp239
I0
S"r'"
p240
sI1
S"r'"
p241
sI2
S"r'"
p242
sI3
S"r'"
p243
sI4
S"r'"
p244
sI5
S"r'"
p245
sI6
S"r'"
p246
sI7
S"r'"
p247
sI8
S"r'"
p248
sI9
S"r'"
p249
sI10
S"r'"
p250
sI11
S"r'"
p251
sI12
S"r'"
p252
sI13
S"r'"
p253
sI14
S"r'"
p254
ssg144
(dp255
I0
F0.0011581194943344768
sI1
Fnan
sI2
Fnan
sI3
Fnan
sI4
Fnan
sI5
Fnan
sI6
Fnan
sI7
Fnan
sI8
Fnan
sI9
Fnan
sI10
Fnan
sI11
Fnan
sI12
Fnan
sI13
Fnan
sI14
Fnan
ssg146
(dp256
I0
F3.72974
sI1
F3.743412
sI2
F3.546409
sI3
F4.401184
sI4
F-3.659388
sI5
F1.768247
sI6
F3.840895
sI7
F3.112403
sI8
F3.272076
sI9
F-3.357337
sI10
F-4.584632
sI11
F2.32694
sI12
F1.431123
sI13
F3.382951
sI14
F4.812257
ssg148
(dp257
I0
F1.4917622816517104
sI1
Fnan
sI2
Fnan
sI3
Fnan
sI4
Fnan
sI5
Fnan
sI6
Fnan
sI7
Fnan
sI8
Fnan
sI9
Fnan
sI10
Fnan
sI11
Fnan
sI12
Fnan
sI13
Fnan
sI14
Fnan
ssg150
(dp258
I0
F2458415.5993865742
sI1
Fnan
sI2
Fnan
sI3
Fnan
sI4
Fnan
sI5
Fnan
sI6
Fnan
sI7
Fnan
sI8
Fnan
sI9
Fnan
sI10
Fnan
sI11
Fnan
sI12
Fnan
sI13
Fnan
sI14
Fnan
ssg152
(dp259
I0
F0.0011581194943344768
sI1
Fnan
sI2
Fnan
sI3
Fnan
sI4
Fnan
sI5
Fnan
sI6
Fnan
sI7
Fnan
sI8
Fnan
sI9
Fnan
sI10
Fnan
sI11
Fnan
sI12
Fnan
sI13
Fnan
sI14
Fnan
ssg154
(dp260
I0
F57.03323
sI1
F54.60598
sI2
F59.52166
sI3
F56.43493
sI4
F58.42411
sI5
F59.60453
sI6
F57.18519
sI7
F58.84027
sI8
F58.53294
sI9
F57.07689
sI10
F62.01704
sI11
F54.2659
sI12
F60.21215
sI13
F55.42023
sI14
F57.40413
ssg156
(dp261
I0
F10.277
sI1
F10.268
sI2
F10.26
sI3
F10.27
sI4
F10.267
sI5
F10.253
sI6
F10.299
sI7
F10.258
sI8
F10.321
sI9
F10.254
sI10
F10.274
sI11
F10.264
sI12
F10.248
sI13
F10.272
sI14
F10.268
ssg158
(dp262
I0
F0.5520941718719896
sI1
Fnan
sI2
Fnan
sI3
Fnan
sI4
Fnan
sI5
Fnan
sI6
Fnan
sI7
Fnan
sI8
Fnan
sI9
Fnan
sI10
Fnan
sI11
Fnan
sI12
Fnan
sI13
Fnan
sI14
Fnan
sssS'z'
p263
(dp264
g3
(dp265
I0
F0.37301902739334913
sI1
Fnan
sI2
Fnan
sI3
Fnan
sI4
Fnan
sI5
Fnan
sI6
Fnan
sI7
Fnan
sI8
Fnan
sI9
Fnan
sI10
Fnan
sI11
Fnan
sI12
Fnan
sI13
Fnan
sI14
Fnan
ssg5
(dp266
I0
S'NoError'
p267
sI1
S'NoError'
p268
sI2
S'NoError'
p269
sI3
S'NoError'
p270
sI4
S'NoError'
p271
sI5
S'NoError'
p272
sI6
S'NoError'
p273
sI7
S'NoError'
p274
sI8
S'NoError'
p275
sI9
S'NoError'
p276
sI10
S'NoError'
p277
sI11
S'NoError'
p278
sI12
S'NoError'
p279
sI13
S'NoError'
p280
sI14
S'NoError'
p281
ssg22
(dp282
I0
F0.007
sI1
F0.007
sI2
F0.008
sI3
F0.007
sI4
F0.007
sI5
F0.007
sI6
F0.007
sI7
F0.007
sI8
F0.007
sI9
F0.007
sI10
F0.007
sI11
F0.007
sI12
F0.007
sI13
F0.007
sI14
F0.007
ssg24
(dp283
I0
F0.9192125273916416
sI1
F0.9158789879117296
sI2
F0.9122029018161505
sI3
F0.9205574160201621
sI4
F0.9122236183799567
sI5
F0.9144428981986805
sI6
F0.9234574418424393
sI7
F0.9084733084262955
sI8
F0.9179689774472132
sI9
F0.9094815850217559
sI10
F0.918780693967638
sI11
F0.9144780776745776
sI12
F0.9167837199377381
sI13
F0.9114352478925465
sI14
F0.9235314417213427
ssg26
(dp284
I0
F0.004697892015581189
sI1
Fnan
sI2
Fnan
sI3
Fnan
sI4
Fnan
sI5
Fnan
sI6
Fnan
sI7
Fnan
sI8
Fnan
sI9
Fnan
sI10
Fnan
sI11
Fnan
sI12
Fnan
sI13
Fnan
sI14
Fnan
ssg28
(dp285
I0
F0.9159272562433246
sI1
Fnan
sI2
Fnan
sI3
Fnan
sI4
Fnan
sI5
Fnan
sI6
Fnan
sI7
Fnan
sI8
Fnan
sI9
Fnan
sI10
Fnan
sI11
Fnan
sI12
Fnan
sI13
Fnan
sI14
Fnan
ssg30
(dp286
I0
F13.264
sI1
F13.287
sI2
F13.315
sI3
F13.284
sI4
F13.271
sI5
F13.274
sI6
F13.248
sI7
F13.28
sI8
F13.247
sI9
F13.252
sI10
F13.28
sI11
F13.271
sI12
F13.269
sI13
F13.276
sI14
F13.259
ssg32
(dp287
I0
F14.74334
sI1
F12.57177
sI2
F13.53578
sI3
F15.35317
sI4
F13.17663
sI5
F14.58473
sI6
F14.20207
sI7
F12.26705
sI8
F13.33358
sI9
F13.35624
sI10
F12.01528
sI11
F14.75908
sI12
F15.20951
sI13
F14.35316
sI14
F14.74762
ssg34
(dp288
I0
F2458415.6067824075
sI1
F2458415.5865625
sI2
F2458415.588784722
sI3
F2458415.627048611
sI4
F2458415.587303241
sI5
F2458415.6263078703
sI6
F2458415.624085648
sI7
F2458415.5880439817
sI8
F2458415.624826389
sI9
F2458415.6053125
sI10
F2458415.589537037
sI11
F2458415.607523148
sI12
F2458415.608263889
sI13
F2458415.625578704
sI14
F2458415.6060416666
ssg36
(dp289
I0
F1.7242583333333337
sI1
Fnan
sI2
Fnan
sI3
Fnan
sI4
Fnan
sI5
Fnan
sI6
Fnan
sI7
Fnan
sI8
Fnan
sI9
Fnan
sI10
Fnan
sI11
Fnan
sI12
Fnan
sI13
Fnan
sI14
Fnan
ssg38
(dp290
I0
F1.6789430666666667
sI1
Fnan
sI2
Fnan
sI3
Fnan
sI4
Fnan
sI5
Fnan
sI6
Fnan
sI7
Fnan
sI8
Fnan
sI9
Fnan
sI10
Fnan
sI11
Fnan
sI12
Fnan
sI13
Fnan
sI14
Fnan
ssg40
(dp291
I0
F0.37443964142807024
sI1
F0.37132023258609353
sI2
F0.36808894241129264
sI3
F0.3709454818438138
sI4
F0.3751439658942178
sI5
F0.37251260736075786
sI6
F0.3751182333426904
sI7
F0.3731879041756201
sI8
F0.37443307756256256
sI9
F0.37437974640285704
sI10
F0.37419359746225844
sI11
F0.3693553494543072
sI12
F0.37087058542876944
sI13
F0.37152892581558994
sI14
F0.3748370347492789
ssg42
(dp292
I0
F0.0018362471505596375
sI1
Fnan
sI2
Fnan
sI3
Fnan
sI4
Fnan
sI5
Fnan
sI6
Fnan
sI7
Fnan
sI8
Fnan
sI9
Fnan
sI10
Fnan
sI11
Fnan
sI12
Fnan
sI13
Fnan
sI14
Fnan
ssg44
(dp293
I0
F-0.23996406666666664
sI1
Fnan
sI2
Fnan
sI3
Fnan
sI4
Fnan
sI5
Fnan
sI6
Fnan
sI7
Fnan
sI8
Fnan
sI9
Fnan
sI10
Fnan
sI11
Fnan
sI12
Fnan
sI13
Fnan
sI14
Fnan
ssg46
(dp294
I0
g267
sI1
g268
sI2
g269
sI3
g270
sI4
g271
sI5
g272
sI6
g273
sI7
g274
sI8
g275
sI9
g276
sI10
g277
sI11
g278
sI12
g279
sI13
g280
sI14
g281
ssg48
(dp295
I0
F0.0029398064308734056
sI1
Fnan
sI2
Fnan
sI3
Fnan
sI4
Fnan
sI5
Fnan
sI6
Fnan
sI7
Fnan
sI8
Fnan
sI9
Fnan
sI10
Fnan
sI11
Fnan
sI12
Fnan
sI13
Fnan
sI14
Fnan
ssg50
(dp296
I0
F0.014859660958767422
sI1
Fnan
sI2
Fnan
sI3
Fnan
sI4
Fnan
sI5
Fnan
sI6
Fnan
sI7
Fnan
sI8
Fnan
sI9
Fnan
sI10
Fnan
sI11
Fnan
sI12
Fnan
sI13
Fnan
sI14
Fnan
ssg52
(dp297
I0
F0.5033221333333331
sI1
Fnan
sI2
Fnan
sI3
Fnan
sI4
Fnan
sI5
Fnan
sI6
Fnan
sI7
Fnan
sI8
Fnan
sI9
Fnan
sI10
Fnan
sI11
Fnan
sI12
Fnan
sI13
Fnan
sI14
Fnan
ssg54
(dp298
I0
F1.498304010537605
sI1
F1.5061697258773832
sI2
F1.5104379925232745
sI3
F1.505758958101346
sI4
F1.5083590514654466
sI5
F1.5114348656481558
sI6
F1.5008141691530954
sI7
F1.5123622383647555
sI8
F1.5085260468830253
sI9
F1.5059109018631354
sI10
F1.5002275903174596
sI11
F1.506815645558681
sI12
F1.5106587171172319
sI13
F1.5063005197082782
sI14
F1.5005539060400943
ssg56
(dp299
I0
g267
sI1
g268
sI2
g269
sI3
g270
sI4
g271
sI5
g272
sI6
g273
sI7
g274
sI8
g275
sI9
g276
sI10
g277
sI11
g278
sI12
g279
sI13
g280
sI14
g281
ssg58
(dp300
I0
F16.33709
sI1
F13.84142
sI2
F15.03104
sI3
F14.39697
sI4
F13.64211
sI5
F14.84557
sI6
F14.94054
sI7
F14.02457
sI8
F14.0652
sI9
F15.58563
sI10
F13.99035
sI11
F14.91142
sI12
F14.89088
sI13
F16.03134
sI14
F15.05095
ssg60
(dp301
I0
F11.924666666666663
sI1
Fnan
sI2
Fnan
sI3
Fnan
sI4
Fnan
sI5
Fnan
sI6
Fnan
sI7
Fnan
sI8
Fnan
sI9
Fnan
sI10
Fnan
sI11
Fnan
sI12
Fnan
sI13
Fnan
sI14
Fnan
ssg62
(dp302
I0
F0.6893055426367916
sI1
Fnan
sI2
Fnan
sI3
Fnan
sI4
Fnan
sI5
Fnan
sI6
Fnan
sI7
Fnan
sI8
Fnan
sI9
Fnan
sI10
Fnan
sI11
Fnan
sI12
Fnan
sI13
Fnan
sI14
Fnan
ssg64
(dp303
I0
F2.361892
sI1
F3.472867
sI2
F-3.440157
sI3
F2.066767
sI4
F2.107765
sI5
F4.268032
sI6
F-2.835693
sI7
F2.481603
sI8
F2.42127
sI9
F3.627617
sI10
F3.497488
sI11
F3.622151
sI12
F-3.650434
sI13
F2.923697
sI14
F2.259281
ssg66
(dp304
I0
F12.264666666666667
sI1
Fnan
sI2
Fnan
sI3
Fnan
sI4
Fnan
sI5
Fnan
sI6
Fnan
sI7
Fnan
sI8
Fnan
sI9
Fnan
sI10
Fnan
sI11
Fnan
sI12
Fnan
sI13
Fnan
sI14
Fnan
ssg68
(dp305
I0
g267
sI1
g268
sI2
g269
sI3
g270
sI4
g271
sI5
g272
sI6
g273
sI7
g274
sI8
g275
sI9
g276
sI10
g277
sI11
g278
sI12
g279
sI13
g280
sI14
g281
ssg70
(dp306
I0
F3136.637333333333
sI1
F3088.686333333333
sI2
F3028.336666666667
sI3
F3110.824333333333
sI4
F3094.2453333333333
sI5
F3111.5073333333335
sI6
F3184.945
sI7
F3075.089333333333
sI8
F3182.0009999999997
sI9
F3146.5679999999998
sI10
F3089.895
sI11
F3145.684333333333
sI12
F3146.3656666666666
sI13
F3105.9036666666666
sI14
F3157.451333333333
ssg72
(dp307
I0
F1.02443
sI1
F1.009898
sI2
F1.011039
sI3
F1.048864
sI4
F1.010265
sI5
F1.047784
sI6
F1.044642
sI7
F1.010643
sI8
F1.045679
sI9
F1.023033
sI10
F1.011439
sI11
F1.025139
sI12
F1.0258610000000001
sI13
F1.046729
sI14
F1.023722
ssg74
(dp308
I0
F2558.2683333333334
sI1
F2520.531
sI2
F2479.7786666666666
sI3
F2519.563333333333
sI4
F2536.9956666666667
sI5
F2536.759
sI6
F2575.324
sI7
F2530.759
sI8
F2583.7816666666668
sI9
F2595.7593333333334
sI10
F2518.8673333333336
sI11
F2571.9936666666667
sI12
F2556.4313333333334
sI13
F2553.2326666666663
sI14
F2553.2043333333336
ssg76
(dp309
I0
F4266.35
sI1
F4224.216666666666
sI2
F4159.833333333333
sI3
F4239.003333333333
sI4
F4246.966666666666
sI5
F4268.493333333334
sI6
F4322.546666666666
sI7
F4239.036666666667
sI8
F4348.916666666667
sI9
F4323.716666666666
sI10
F4207.21
sI11
F4307.743333333334
sI12
F4307.49
sI13
F4262.179999999999
sI14
F4284.573333333333
ssg78
(dp310
I0
F15.17726
sI1
F13.12724
sI2
F14.27271
sI3
F14.4531
sI4
F13.59389
sI5
F14.28932
sI6
F15.38057
sI7
F13.2839
sI8
F14.74038
sI9
F13.97495
sI10
F13.69301
sI11
F15.9657
sI12
F15.89197
sI13
F14.18981
sI14
F15.38629
ssg80
(dp311
I0
F12.48
sI1
F12.496
sI2
F12.514
sI3
F12.497
sI4
F12.489
sI5
F12.489
sI6
F12.473
sI7
F12.492
sI8
F12.469
sI9
F12.464
sI10
F12.497
sI11
F12.474
sI12
F12.481
sI13
F12.482
sI14
F12.482
ssg82
(dp312
I0
F0.003
sI1
F0.003
sI2
F0.003
sI3
F0.003
sI4
F0.003
sI5
F0.003
sI6
F0.003
sI7
F0.003
sI8
F0.003
sI9
F0.003
sI10
F0.003
sI11
F0.003
sI12
F0.003
sI13
F0.003
sI14
F0.003
ssg84
(dp313
I0
F0.372690355061212
sI1
Fnan
sI2
Fnan
sI3
Fnan
sI4
Fnan
sI5
Fnan
sI6
Fnan
sI7
Fnan
sI8
Fnan
sI9
Fnan
sI10
Fnan
sI11
Fnan
sI12
Fnan
sI13
Fnan
sI14
Fnan
ssg86
(dp314
I0
F12.485266666666666
sI1
Fnan
sI2
Fnan
sI3
Fnan
sI4
Fnan
sI5
Fnan
sI6
Fnan
sI7
Fnan
sI8
Fnan
sI9
Fnan
sI10
Fnan
sI11
Fnan
sI12
Fnan
sI13
Fnan
sI14
Fnan
ssg88
(dp315
I0
F12.259
sI1
F12.276
sI2
F12.297
sI3
F12.268
sI4
F12.274
sI5
F12.268
sI6
F12.242
sI7
F12.28
sI8
F12.243
sI9
F12.255
sI10
F12.275
sI11
F12.256
sI12
F12.255
sI13
F12.27
sI14
F12.252
ssg90
(dp316
I0
F3.49329
sI1
F2.916765
sI2
F-3.064117
sI3
F3.692811
sI4
F3.293656
sI5
F5.395898
sI6
F3.249243
sI7
F3.632491
sI8
F3.312607
sI9
F3.388397
sI10
F3.238783
sI11
F-3.713779
sI12
F3.83636
sI13
F-3.236967
sI14
F-3.571563
ssg92
(dp317
I0
F0.012893335303097345
sI1
Fnan
sI2
Fnan
sI3
Fnan
sI4
Fnan
sI5
Fnan
sI6
Fnan
sI7
Fnan
sI8
Fnan
sI9
Fnan
sI10
Fnan
sI11
Fnan
sI12
Fnan
sI13
Fnan
sI14
Fnan
ssg94
(dp318
I0
F0.6911448630512314
sI1
F0.689338009816348
sI2
F0.6899610517465966
sI3
F0.6856115401889468
sI4
F0.6911653461762627
sI5
F0.6874685015836945
sI6
F0.6860677612029762
sI7
F0.6920195249575958
sI8
F0.6861797674679133
sI9
F0.6949559351910463
sI10
F0.6903744247433287
sI11
F0.6901505674145538
sI12
F0.6859352924596027
sI13
F0.6930520287703935
sI14
F0.6861585247813835
ssg96
(dp319
I0
F30.0
sI1
F30.0
sI2
F30.0
sI3
F30.0
sI4
F30.0
sI5
F30.0
sI6
F30.0
sI7
F30.0
sI8
F30.0
sI9
F30.0
sI10
F30.0
sI11
F30.0
sI12
F30.0
sI13
F30.0
sI14
F30.0
ssg98
(dp320
I0
F0.004
sI1
F0.004
sI2
F0.004
sI3
F0.004
sI4
F0.004
sI5
F0.004
sI6
F0.004
sI7
F0.004
sI8
F0.004
sI9
F0.004
sI10
F0.004
sI11
F0.004
sI12
F0.004
sI13
F0.004
sI14
F0.004
ssg100
(dp321
I0
F0.004
sI1
F0.004
sI2
F0.004
sI3
F0.004
sI4
F0.004
sI5
F0.004
sI6
F0.004
sI7
F0.004
sI8
F0.004
sI9
F0.004
sI10
F0.004
sI11
F0.004
sI12
F0.004
sI13
F0.004
sI14
F0.004
ssg102
(dp322
I0
F-2.547344
sI1
F3.162233
sI2
F2.260392
sI3
F2.564175
sI4
F2.283518
sI5
F-2.126017
sI6
F-3.940074
sI7
F3.436284
sI8
F3.274926
sI9
F-2.307755
sI10
F-1.10663
sI11
F4.299479
sI12
F5.162907
sI13
F-2.930903
sI14
F-3.935359
ssg104
(dp323
I0
S"KIC8462852-20181024at023346_-25-1X1-030-z'_cal.fts.mag.1"
p324
sI1
S"KIC8462852-20181024at020438_-25-1X1-030-z'_cal.fts.mag.1"
p325
sI2
S"KIC8462852-20181024at020751_-25-1X1-030-z'_cal.fts.mag.1"
p326
sI3
S"KIC8462852-20181024at030257_-25-1X1-030-z'_cal.fts.mag.1"
p327
sI4
S"KIC8462852-20181024at020543_-25-1X1-030-z'_cal.fts.mag.1"
p328
sI5
S"KIC8462852-20181024at030153_-25-1X1-030-z'_cal.fts.mag.1"
p329
sI6
S"KIC8462852-20181024at025840_-25-1X1-030-z'_cal.fts.mag.1"
p330
sI7
S"KIC8462852-20181024at020647_-25-1X1-030-z'_cal.fts.mag.1"
p331
sI8
S"KIC8462852-20181024at025945_-25-1X1-030-z'_cal.fts.mag.1"
p332
sI9
S"KIC8462852-20181024at023137_-25-1X1-030-z'_cal.fts.mag.1"
p333
sI10
S"KIC8462852-20181024at020856_-25-1X1-030-z'_cal.fts.mag.1"
p334
sI11
S"KIC8462852-20181024at023450_-25-1X1-030-z'_cal.fts.mag.1"
p335
sI12
S"KIC8462852-20181024at023554_-25-1X1-030-z'_cal.fts.mag.1"
p336
sI13
S"KIC8462852-20181024at030049_-25-1X1-030-z'_cal.fts.mag.1"
p337
sI14
S"KIC8462852-20181024at023242_-25-1X1-030-z'_cal.fts.mag.1"
p338
ssg121
(dp339
I0
F0.00441467387771485
sI1
Fnan
sI2
Fnan
sI3
Fnan
sI4
Fnan
sI5
Fnan
sI6
Fnan
sI7
Fnan
sI8
Fnan
sI9
Fnan
sI10
Fnan
sI11
Fnan
sI12
Fnan
sI13
Fnan
sI14
Fnan
ssg123
(dp340
I0
F1243.2963333333332
sI1
F1217.1176666666665
sI2
F1186.2216666666668
sI3
F1220.3353333333332
sI4
F1235.25
sI5
F1231.3726666666666
sI6
F1260.7493333333334
sI7
F1224.664
sI8
F1262.426
sI9
F1256.1743333333334
sI10
F1224.358
sI11
F1234.3143333333333
sI12
F1237.507
sI13
F1228.6853333333333
sI14
F1248.8606666666667
ssg125
(dp341
I0
F0.012958541952079624
sI1
Fnan
sI2
Fnan
sI3
Fnan
sI4
Fnan
sI5
Fnan
sI6
Fnan
sI7
Fnan
sI8
Fnan
sI9
Fnan
sI10
Fnan
sI11
Fnan
sI12
Fnan
sI13
Fnan
sI14
Fnan
ssg127
(dp342
I0
S"z'"
p343
sI1
S"z'"
p344
sI2
S"z'"
p345
sI3
S"z'"
p346
sI4
S"z'"
p347
sI5
S"z'"
p348
sI6
S"z'"
p349
sI7
S"z'"
p350
sI8
S"z'"
p351
sI9
S"z'"
p352
sI10
S"z'"
p353
sI11
S"z'"
p354
sI12
S"z'"
p355
sI13
S"z'"
p356
sI14
S"z'"
p357
ssg144
(dp358
I0
F0.0022343200591287173
sI1
Fnan
sI2
Fnan
sI3
Fnan
sI4
Fnan
sI5
Fnan
sI6
Fnan
sI7
Fnan
sI8
Fnan
sI9
Fnan
sI10
Fnan
sI11
Fnan
sI12
Fnan
sI13
Fnan
sI14
Fnan
ssg146
(dp359
I0
F-3.062891
sI1
F4.077418
sI2
F-2.780519
sI3
F-3.957209
sI4
F-1.591363
sI5
F-2.648574
sI6
F2.788076
sI7
F2.926852
sI8
F-3.701491
sI9
F2.536994
sI10
F3.666784
sI11
F-3.92666
sI12
F-3.306373
sI13
F2.650882
sI14
F2.728613
ssg148
(dp360
I0
F1.5061756226105978
sI1
Fnan
sI2
Fnan
sI3
Fnan
sI4
Fnan
sI5
Fnan
sI6
Fnan
sI7
Fnan
sI8
Fnan
sI9
Fnan
sI10
Fnan
sI11
Fnan
sI12
Fnan
sI13
Fnan
sI14
Fnan
ssg150
(dp361
I0
F2458415.6067824075
sI1
Fnan
sI2
Fnan
sI3
Fnan
sI4
Fnan
sI5
Fnan
sI6
Fnan
sI7
Fnan
sI8
Fnan
sI9
Fnan
sI10
Fnan
sI11
Fnan
sI12
Fnan
sI13
Fnan
sI14
Fnan
ssg152
(dp362
I0
F0.0022343200591287173
sI1
Fnan
sI2
Fnan
sI3
Fnan
sI4
Fnan
sI5
Fnan
sI6
Fnan
sI7
Fnan
sI8
Fnan
sI9
Fnan
sI10
Fnan
sI11
Fnan
sI12
Fnan
sI13
Fnan
sI14
Fnan
ssg154
(dp363
I0
F16.15743
sI1
F14.72705
sI2
F15.83522
sI3
F15.22387
sI4
F13.84299
sI5
F15.09881
sI6
F15.72666
sI7
F15.04804
sI8
F15.00021
sI9
F15.22349
sI10
F15.07201
sI11
F16.76086
sI12
F15.45658
sI13
F16.17006
sI14
F16.37375
ssg156
(dp364
I0
F11.925
sI1
F11.936
sI2
F11.952
sI3
F11.932
sI4
F11.93
sI5
F11.924
sI6
F11.911
sI7
F11.932
sI8
F11.904
sI9
F11.91
sI10
F11.94
sI11
F11.914
sI12
F11.914
sI13
F11.926
sI14
F11.92
ssg158
(dp365
I0
F0.372690355061212
sI1
Fnan
sI2
Fnan
sI3
Fnan
sI4
Fnan
sI5
Fnan
sI6
Fnan
sI7
Fnan
sI8
Fnan
sI9
Fnan
sI10
Fnan
sI11
Fnan
sI12
Fnan
sI13
Fnan
sI14
Fnan
sssS'g'
p366
(dp367
g3
(dp368
I0
F0.8719629598571615
sI1
Fnan
sI2
Fnan
sI3
Fnan
sI4
Fnan
sI5
Fnan
sI6
Fnan
sI7
Fnan
sI8
Fnan
sI9
Fnan
sI10
Fnan
sI11
Fnan
sI12
Fnan
sI13
Fnan
sI14
Fnan
ssg5
(dp369
I0
S'NoError'
p370
sI1
S'NoError'
p371
sI2
S'NoError'
p372
sI3
S'NoError'
p373
sI4
S'NoError'
p374
sI5
S'NoError'
p375
sI6
S'NoError'
p376
sI7
S'NoError'
p377
sI8
S'NoError'
p378
sI9
S'NoError'
p379
sI10
S'NoError'
p380
sI11
S'NoError'
p381
sI12
S'NoError'
p382
sI13
S'NoError'
p383
sI14
S'NoError'
p384
ssg22
(dp385
I0
F0.002
sI1
F0.002
sI2
F0.002
sI3
F0.002
sI4
F0.002
sI5
F0.002
sI6
F0.002
sI7
F0.002
sI8
F0.002
sI9
F0.002
sI10
F0.002
sI11
F0.002
sI12
F0.002
sI13
F0.002
sI14
F0.002
ssg24
(dp386
I0
F0.8808514260985132
sI1
F0.8803896949919803
sI2
F0.8812167291757946
sI3
F0.8801078886162339
sI4
F0.8795672619329654
sI5
F0.8827147998976154
sI6
F0.8795525721336903
sI7
F0.8779662848803003
sI8
F0.8786206272771783
sI9
F0.8768202590403333
sI10
F0.8799396872012694
sI11
F0.8814544792825597
sI12
F0.8806990785956642
sI13
F0.8827922171747822
sI14
F0.8813132352219692
ssg26
(dp387
I0
F0.0016330250989819764
sI1
Fnan
sI2
Fnan
sI3
Fnan
sI4
Fnan
sI5
Fnan
sI6
Fnan
sI7
Fnan
sI8
Fnan
sI9
Fnan
sI10
Fnan
sI11
Fnan
sI12
Fnan
sI13
Fnan
sI14
Fnan
ssg28
(dp388
I0
F0.8802670827680567
sI1
Fnan
sI2
Fnan
sI3
Fnan
sI4
Fnan
sI5
Fnan
sI6
Fnan
sI7
Fnan
sI8
Fnan
sI9
Fnan
sI10
Fnan
sI11
Fnan
sI12
Fnan
sI13
Fnan
sI14
Fnan
ssg30
(dp389
I0
F11.374
sI1
F11.4
sI2
F11.402
sI3
F11.377
sI4
F11.434
sI5
F11.406
sI6
F11.392
sI7
F11.406
sI8
F11.377
sI9
F11.399
sI10
F11.373
sI11
F11.397
sI12
F11.407
sI13
F11.399
sI14
F11.378
ssg32
(dp390
I0
F69.30563
sI1
F63.58324
sI2
F73.79055
sI3
F69.1137
sI4
F70.90941
sI5
F67.01373
sI6
F65.41967
sI7
F72.18837
sI8
F69.84875
sI9
F63.38478
sI10
F68.02541
sI11
F61.97473
sI12
F63.318
sI13
F62.61412
sI14
F69.97744
ssg34
(dp391
I0
F2458415.612962963
sI1
F2458415.597164352
sI2
F2458415.5754166665
sI3
F2458415.6144444444
sI4
F2458415.5769097223
sI5
F2458415.5776388887
sI6
F2458415.5783796296
sI7
F2458415.5761574074
sI8
F2458415.6151851853
sI9
F2458415.5949652777
sI10
F2458415.6137037035
sI11
F2458415.5942245373
sI12
F2458415.596435185
sI13
F2458415.5956944446
sI14
F2458415.615925926
ssg36
(dp392
I0
F2.9478632
sI1
Fnan
sI2
Fnan
sI3
Fnan
sI4
Fnan
sI5
Fnan
sI6
Fnan
sI7
Fnan
sI8
Fnan
sI9
Fnan
sI10
Fnan
sI11
Fnan
sI12
Fnan
sI13
Fnan
sI14
Fnan
ssg38
(dp393
I0
F1.749184333333333
sI1
Fnan
sI2
Fnan
sI3
Fnan
sI4
Fnan
sI5
Fnan
sI6
Fnan
sI7
Fnan
sI8
Fnan
sI9
Fnan
sI10
Fnan
sI11
Fnan
sI12
Fnan
sI13
Fnan
sI14
Fnan
ssg40
(dp394
I0
F0.8722087280016613
sI1
F0.8707252352307367
sI2
F0.8735144090481451
sI3
F0.8703923646336199
sI4
F0.8706264712543124
sI5
F0.8714548330783087
sI6
F0.8717996597946143
sI7
F0.8678868473139375
sI8
F0.8692120114261828
sI9
F0.8734752001681937
sI10
F0.8738742956070684
sI11
F0.8727656599931566
sI12
F0.8710611054659682
sI13
F0.8738560240473995
sI14
F0.8725154402508943
ssg42
(dp395
I0
F0.0013987641877650084
sI1
Fnan
sI2
Fnan
sI3
Fnan
sI4
Fnan
sI5
Fnan
sI6
Fnan
sI7
Fnan
sI8
Fnan
sI9
Fnan
sI10
Fnan
sI11
Fnan
sI12
Fnan
sI13
Fnan
sI14
Fnan
ssg44
(dp396
I0
F2.7495215333333336
sI1
Fnan
sI2
Fnan
sI3
Fnan
sI4
Fnan
sI5
Fnan
sI6
Fnan
sI7
Fnan
sI8
Fnan
sI9
Fnan
sI10
Fnan
sI11
Fnan
sI12
Fnan
sI13
Fnan
sI14
Fnan
ssg46
(dp397
I0
g370
sI1
g371
sI2
g372
sI3
g373
sI4
g374
sI5
g375
sI6
g376
sI7
g377
sI8
g378
sI9
g379
sI10
g380
sI11
g381
sI12
g382
sI13
g383
sI14
g384
ssg48
(dp398
I0
F0.002793057884039382
sI1
Fnan
sI2
Fnan
sI3
Fnan
sI4
Fnan
sI5
Fnan
sI6
Fnan
sI7
Fnan
sI8
Fnan
sI9
Fnan
sI10
Fnan
sI11
Fnan
sI12
Fnan
sI13
Fnan
sI14
Fnan
ssg50
(dp399
I0
F0.016578241620814123
sI1
Fnan
sI2
Fnan
sI3
Fnan
sI4
Fnan
sI5
Fnan
sI6
Fnan
sI7
Fnan
sI8
Fnan
sI9
Fnan
sI10
Fnan
sI11
Fnan
sI12
Fnan
sI13
Fnan
sI14
Fnan
ssg52
(dp400
I0
F0.006949399999999942
sI1
Fnan
sI2
Fnan
sI3
Fnan
sI4
Fnan
sI5
Fnan
sI6
Fnan
sI7
Fnan
sI8
Fnan
sI9
Fnan
sI10
Fnan
sI11
Fnan
sI12
Fnan
sI13
Fnan
sI14
Fnan
ssg54
(dp401
I0
F1.5112936581710226
sI1
F1.505397725532194
sI2
F1.5005047682395494
sI3
F1.5091481374613938
sI4
F1.5007012077042656
sI5
F1.5051734125928173
sI6
F1.5061068173863192
sI7
F1.5038334666759297
sI8
F1.5161643223665804
sI9
F1.5174170596545358
sI10
F1.5059024289468677
sI11
F1.5081817673833144
sI12
F1.5111016894294167
sI13
F1.5015034327358059
sI14
F1.511360746089067
ssg56
(dp402
I0
g370
sI1
g371
sI2
g372
sI3
g373
sI4
g374
sI5
g375
sI6
g376
sI7
g377
sI8
g378
sI9
g379
sI10
g380
sI11
g381
sI12
g382
sI13
g383
sI14
g384
ssg58
(dp403
I0
F67.22989
sI1
F65.07677
sI2
F76.10123
sI3
F69.17236
sI4
F70.63206
sI5
F67.78837
sI6
F65.53149
sI7
F73.10069
sI8
F69.55109
sI9
F64.08566
sI10
F69.79117
sI11
F62.81207
sI12
F64.2619
sI13
F63.83152
sI14
F70.0319
ssg60
(dp404
I0
F10.9694
sI1
Fnan
sI2
Fnan
sI3
Fnan
sI4
Fnan
sI5
Fnan
sI6
Fnan
sI7
Fnan
sI8
Fnan
sI9
Fnan
sI10
Fnan
sI11
Fnan
sI12
Fnan
sI13
Fnan
sI14
Fnan
ssg62
(dp405
I0
F0.7195154102763918
sI1
Fnan
sI2
Fnan
sI3
Fnan
sI4
Fnan
sI5
Fnan
sI6
Fnan
sI7
Fnan
sI8
Fnan
sI9
Fnan
sI10
Fnan
sI11
Fnan
sI12
Fnan
sI13
Fnan
sI14
Fnan
ssg64
(dp406
I0
F2.051211
sI1
F4.017007
sI2
F-4.198501
sI3
F6.602435
sI4
F4.983927
sI5
F-3.560735
sI6
F3.72932
sI7
F6.245903
sI8
F4.042135
sI9
F-2.684837
sI10
F-2.000633
sI11
F-4.912596
sI12
F4.560256
sI13
F4.985998
sI14
F2.376875
ssg66
(dp407
I0
F11.339866666666667
sI1
Fnan
sI2
Fnan
sI3
Fnan
sI4
Fnan
sI5
Fnan
sI6
Fnan
sI7
Fnan
sI8
Fnan
sI9
Fnan
sI10
Fnan
sI11
Fnan
sI12
Fnan
sI13
Fnan
sI14
Fnan
ssg68
(dp408
I0
g370
sI1
g371
sI2
g372
sI3
g373
sI4
g374
sI5
g375
sI6
g376
sI7
g377
sI8
g378
sI9
g379
sI10
g380
sI11
g381
sI12
g382
sI13
g383
sI14
g384
ssg70
(dp409
I0
F7449.66
sI1
F7286.596666666666
sI2
F7253.9
sI3
F7445.133333333333
sI4
F7054.076666666666
sI5
F7253.6
sI6
F7322.7266666666665
sI7
F7256.8566666666675
sI8
F7447.466666666666
sI9
F7248.493333333333
sI10
F7440.696666666667
sI11
F7298.1066666666675
sI12
F7240.993333333333
sI13
F7280.656666666667
sI14
F7424.97
ssg72
(dp410
I0
F1.0307819999999999
sI1
F1.016322
sI2
F1.0058850000000001
sI3
F1.032459
sI4
F1.00626
sI5
F1.0064629999999999
sI6
F1.006677
sI7
F1.006068
sI8
F1.03331
sI9
F1.014775
sI10
F1.031618
sI11
F1.014285
sI12
F1.0158
sI13
F1.015284
sI14
F1.034162
ssg74
(dp411
I0
F6428.04
sI1
F6315.12
sI2
F6296.873333333334
sI3
F6440.753333333333
sI4
F6139.826666666666
sI5
F6262.623333333334
sI6
F6352.7
sI7
F6321.366666666667
sI8
F6431.35
sI9
F6273.9766666666665
sI10
F6451.6066666666675
sI11
F6302.866666666667
sI12
F6250.346666666666
sI13
F6299.376666666666
sI14
F6401.4400000000005
ssg76
(dp412
I0
F10486.640000000001
sI1
F10237.996666666668
sI2
F10166.5
sI3
F10477.93
sI4
F9900.053333333333
sI5
F10172.130000000001
sI6
F10298.326666666666
sI7
F10209.693333333333
sI8
F10521.283333333333
sI9
F10259.613333333335
sI10
F10460.226666666666
sI11
F10256.369999999999
sI12
F10193.393333333333
sI13
F10195.233333333334
sI14
F10448.346666666668
ssg78
(dp413
I0
F67.27539
sI1
F63.6863
sI2
F74.20306
sI3
F68.05344
sI4
F69.6297
sI5
F66.99384
sI6
F65.82879
sI7
F72.08884
sI8
F67.83541
sI9
F63.26341
sI10
F69.65533
sI11
F63.49051
sI12
F63.06788
sI13
F62.32276
sI14
F69.19725
ssg80
(dp414
I0
F11.48
sI1
F11.499
sI2
F11.502
sI3
F11.478
sI4
F11.53
sI5
F11.508
sI6
F11.493
sI7
F11.498
sI8
F11.479
sI9
F11.506
sI10
F11.476
sI11
F11.501
sI12
F11.51
sI13
F11.502
sI14
F11.484
ssg82
(dp415
I0
F0.002
sI1
F0.002
sI2
F0.002
sI3
F0.002
sI4
F0.002
sI5
F0.002
sI6
F0.002
sI7
F0.002
sI8
F0.002
sI9
F0.002
sI10
F0.002
sI11
F0.002
sI12
F0.002
sI13
F0.002
sI14
F0.002
ssg84
(dp416
I0
F0.8716912190209466
sI1
Fnan
sI2
Fnan
sI3
Fnan
sI4
Fnan
sI5
Fnan
sI6
Fnan
sI7
Fnan
sI8
Fnan
sI9
Fnan
sI10
Fnan
sI11
Fnan
sI12
Fnan
sI13
Fnan
sI14
Fnan
ssg86
(dp417
I0
F11.4964
sI1
Fnan
sI2
Fnan
sI3
Fnan
sI4
Fnan
sI5
Fnan
sI6
Fnan
sI7
Fnan
sI8
Fnan
sI9
Fnan
sI10
Fnan
sI11
Fnan
sI12
Fnan
sI13
Fnan
sI14
Fnan
ssg88
(dp418
I0
F11.32
sI1
F11.344
sI2
F11.349
sI3
F11.32
sI4
F11.379
sI5
F11.349
sI6
F11.338
sI7
F11.348
sI8
F11.32
sI9
F11.349
sI10
F11.321
sI11
F11.342
sI12
F11.351
sI13
F11.345
sI14
F11.323
ssg90
(dp419
I0
F4.664767
sI1
F3.044602
sI2
F6.009736
sI3
F2.222706
sI4
F5.2346
sI5
F2.858386
sI6
F-3.957541
sI7
F4.373146
sI8
F2.748893
sI9
F5.385524
sI10
F1.605708
sI11
F3.622661
sI12
F3.512408
sI13
F-3.110347
sI14
F6.002699
ssg92
(dp420
I0
F0.01776754665916777
sI1
Fnan
sI2
Fnan
sI3
Fnan
sI4
Fnan
sI5
Fnan
sI6
Fnan
sI7
Fnan
sI8
Fnan
sI9
Fnan
sI10
Fnan
sI11
Fnan
sI12
Fnan
sI13
Fnan
sI14
Fnan
ssg94
(dp421
I0
F0.7167632120336969
sI1
F0.7207151549688837
sI2
F0.722930969820823
sI3
F0.7187112173346856
sI4
F0.7242868453487931
sI5
F0.7187788785127892
sI6
F0.7210352162072793
sI7
F0.7238254453989674
sI8
F0.7158372173913043
sI9
F0.7166939048425567
sI10
F0.7208127253026242
sI11
F0.7180922321238856
sI12
F0.7170136565362399
sI13
F0.7209219864243442
sI14
F0.7163124918990039
ssg96
(dp422
I0
F30.0
sI1
F30.0
sI2
F30.0
sI3
F30.0
sI4
F30.0
sI5
F30.0
sI6
F30.0
sI7
F30.0
sI8
F30.0
sI9
F30.0
sI10
F30.0
sI11
F30.0
sI12
F30.0
sI13
F30.0
sI14
F30.0
ssg98
(dp423
I0
F0.003
sI1
F0.003
sI2
F0.003
sI3
F0.003
sI4
F0.003
sI5
F0.003
sI6
F0.003
sI7
F0.003
sI8
F0.003
sI9
F0.003
sI10
F0.003
sI11
F0.003
sI12
F0.003
sI13
F0.003
sI14
F0.003
ssg100
(dp424
I0
F0.002
sI1
F0.002
sI2
F0.002
sI3
F0.002
sI4
F0.002
sI5
F0.002
sI6
F0.002
sI7
F0.002
sI8
F0.002
sI9
F0.002
sI10
F0.002
sI11
F0.002
sI12
F0.002
sI13
F0.002
sI14
F0.002
ssg102
(dp425
I0
F5.252788
sI1
F-4.774815
sI2
F4.087377
sI3
F2.263826
sI4
F-3.839902
sI5
F3.13667
sI6
F-1.804898
sI7
F3.986784
sI8
F-2.482581
sI9
F-4.874112
sI10
F4.18082
sI11
F-3.972944
sI12
F-3.387198
sI13
F-2.205355
sI14
F4.537781
ssg104
(dp426
I0
S"KIC8462852-20181024at024236_-25-1X1-030-g'_cal.fts.mag.1"
p427
sI1
S"KIC8462852-20181024at021955_-25-1X1-030-g'_cal.fts.mag.1"
p428
sI2
S"KIC8462852-20181024at014825_-25-1X1-030-g'_cal.fts.mag.1"
p429
sI3
S"KIC8462852-20181024at024448_-25-1X1-030-g'_cal.fts.mag.1"
p430
sI4
S"KIC8462852-20181024at015045_-25-1X1-030-g'_cal.fts.mag.1"
p431
sI5
S"KIC8462852-20181024at015148_-25-1X1-030-g'_cal.fts.mag.1"
p432
sI6
S"KIC8462852-20181024at015252_-25-1X1-030-g'_cal.fts.mag.1"
p433
sI7
S"KIC8462852-20181024at014940_-25-1X1-030-g'_cal.fts.mag.1"
p434
sI8
S"KIC8462852-20181024at024552_-25-1X1-030-g'_cal.fts.mag.1"
p435
sI9
S"KIC8462852-20181024at021645_-25-1X1-030-g'_cal.fts.mag.1"
p436
sI10
S"KIC8462852-20181024at024344_-25-1X1-030-g'_cal.fts.mag.1"
p437
sI11
S"KIC8462852-20181024at021537_-25-1X1-030-g'_cal.fts.mag.1"
p438
sI12
S"KIC8462852-20181024at021852_-25-1X1-030-g'_cal.fts.mag.1"
p439
sI13
S"KIC8462852-20181024at021748_-25-1X1-030-g'_cal.fts.mag.1"
p440
sI14
S"KIC8462852-20181024at024656_-25-1X1-030-g'_cal.fts.mag.1"
p441
ssg121
(dp442
I0
F0.005193697588546331
sI1
Fnan
sI2
Fnan
sI3
Fnan
sI4
Fnan
sI5
Fnan
sI6
Fnan
sI7
Fnan
sI8
Fnan
sI9
Fnan
sI10
Fnan
sI11
Fnan
sI12
Fnan
sI13
Fnan
sI14
Fnan
ssg123
(dp443
I0
F7083.596666666666
sI1
F6919.28
sI2
F6905.793333333333
sI3
F7068.693333333333
sI4
F6702.070000000001
sI5
F6881.11
sI6
F6966.77
sI7
F6881.740000000001
sI8
F7069.62
sI9
F6924.3533333333335
sI10
F7093.683333333333
sI11
F6940.623333333334
sI12
F6876.95
sI13
F6925.386666666667
sI14
F7060.033333333334
ssg125
(dp444
I0
F0.014941791822172396
sI1
Fnan
sI2
Fnan
sI3
Fnan
sI4
Fnan
sI5
Fnan
sI6
Fnan
sI7
Fnan
sI8
Fnan
sI9
Fnan
sI10
Fnan
sI11
Fnan
sI12
Fnan
sI13
Fnan
sI14
Fnan
ssg127
(dp445
I0
S"g'"
p446
sI1
S"g'"
p447
sI2
S"g'"
p448
sI3
S"g'"
p449
sI4
S"g'"
p450
sI5
S"g'"
p451
sI6
S"g'"
p452
sI7
S"g'"
p453
sI8
S"g'"
p454
sI9
S"g'"
p455
sI10
S"g'"
p456
sI11
S"g'"
p457
sI12
S"g'"
p458
sI13
S"g'"
p459
sI14
S"g'"
p460
ssg144
(dp461
I0
F0.001750482071880716
sI1
Fnan
sI2
Fnan
sI3
Fnan
sI4
Fnan
sI5
Fnan
sI6
Fnan
sI7
Fnan
sI8
Fnan
sI9
Fnan
sI10
Fnan
sI11
Fnan
sI12
Fnan
sI13
Fnan
sI14
Fnan
ssg146
(dp462
I0
F3.427071
sI1
F-3.708626
sI2
F-3.229747
sI3
F-3.905149
sI4
F2.146369
sI5
F7.245124
sI6
F4.535808
sI7
F3.677527
sI8
F2.758371
sI9
F4.60585
sI10
F5.268867
sI11
F5.039226
sI12
F3.875999
sI13
F4.127501
sI14
F5.378632
ssg148
(dp463
I0
F1.5075860426912717
sI1
Fnan
sI2
Fnan
sI3
Fnan
sI4
Fnan
sI5
Fnan
sI6
Fnan
sI7
Fnan
sI8
Fnan
sI9
Fnan
sI10
Fnan
sI11
Fnan
sI12
Fnan
sI13
Fnan
sI14
Fnan
ssg150
(dp464
I0
F2458415.5956944446
sI1
Fnan
sI2
Fnan
sI3
Fnan
sI4
Fnan
sI5
Fnan
sI6
Fnan
sI7
Fnan
sI8
Fnan
sI9
Fnan
sI10
Fnan
sI11
Fnan
sI12
Fnan
sI13
Fnan
sI14
Fnan
ssg152
(dp465
I0
F0.001750482071880716
sI1
Fnan
sI2
Fnan
sI3
Fnan
sI4
Fnan
sI5
Fnan
sI6
Fnan
sI7
Fnan
sI8
Fnan
sI9
Fnan
sI10
Fnan
sI11
Fnan
sI12
Fnan
sI13
Fnan
sI14
Fnan
ssg154
(dp466
I0
F69.9398
sI1
F65.60394
sI2
F75.83566
sI3
F70.01613
sI4
F73.8565
sI5
F69.75549
sI6
F67.82436
sI7
F73.2561
sI8
F71.01866
sI9
F65.30293
sI10
F71.14438
sI11
F65.01017
sI12
F66.42419
sI13
F66.98309
sI14
F70.83561
ssg156
(dp467
I0
F10.948
sI1
F10.974
sI2
F10.982
sI3
F10.949
sI4
F11.011
sI5
F10.981
sI6
F10.968
sI7
F10.977
sI8
F10.945
sI9
F10.972
sI10
F10.951
sI11
F10.973
sI12
F10.979
sI13
F10.979
sI14
F10.952
ssg158
(dp468
I0
F0.8716912190209466
sI1
Fnan
sI2
Fnan
sI3
Fnan
sI4
Fnan
sI5
Fnan
sI6
Fnan
sI7
Fnan
sI8
Fnan
sI9
Fnan
sI10
Fnan
sI11
Fnan
sI12
Fnan
sI13
Fnan
sI14
Fnan
sssS'V'
p469
(dp470
g3
(dp471
I0
F0.6959390210206339
sI1
Fnan
sI2
Fnan
sI3
Fnan
sI4
Fnan
sI5
Fnan
sI6
Fnan
sI7
Fnan
sI8
Fnan
sI9
Fnan
sI10
Fnan
sI11
Fnan
sI12
Fnan
sI13
Fnan
sI14
Fnan
ssg5
(dp472
I0
S'NoError'
p473
sI1
S'NoError'
p474
sI2
S'NoError'
p475
sI3
S'NoError'
p476
sI4
S'NoError'
p477
sI5
S'NoError'
p478
sI6
S'NoError'
p479
sI7
S'NoError'
p480
sI8
S'NoError'
p481
sI9
S'NoError'
p482
sI10
S'NoError'
p483
sI11
S'NoError'
p484
sI12
S'NoError'
p485
sI13
S'NoError'
p486
sI14
S'NoError'
p487
ssg22
(dp488
I0
F0.002
sI1
F0.002
sI2
F0.002
sI3
F0.002
sI4
F0.002
sI5
F0.002
sI6
F0.002
sI7
F0.002
sI8
F0.002
sI9
F0.002
sI10
F0.002
sI11
F0.002
sI12
F0.002
sI13
F0.002
sI14
F0.002
ssg24
(dp489
I0
F0.8860965381972515
sI1
F0.8866948774333606
sI2
F0.8868093683192732
sI3
F0.889694255667195
sI4
F0.8874253962380433
sI5
F0.8892582292939563
sI6
F0.8911452532235596
sI7
F0.8878316519379988
sI8
F0.8880083102355395
sI9
F0.8865768841430917
sI10
F0.8863201042525014
sI11
F0.886211452397543
sI12
F0.8874092766440171
sI13
F0.8889914539662961
sI14
F0.8880172716813438
ssg26
(dp490
I0
F0.0014640016595413214
sI1
Fnan
sI2
Fnan
sI3
Fnan
sI4
Fnan
sI5
Fnan
sI6
Fnan
sI7
Fnan
sI8
Fnan
sI9
Fnan
sI10
Fnan
sI11
Fnan
sI12
Fnan
sI13
Fnan
sI14
Fnan
ssg28
(dp491
I0
F0.8877660215753981
sI1
Fnan
sI2
Fnan
sI3
Fnan
sI4
Fnan
sI5
Fnan
sI6
Fnan
sI7
Fnan
sI8
Fnan
sI9
Fnan
sI10
Fnan
sI11
Fnan
sI12
Fnan
sI13
Fnan
sI14
Fnan
ssg30
(dp492
I0
F11.418
sI1
F11.426
sI2
F11.406
sI3
F11.425
sI4
F11.391
sI5
F11.42
sI6
F11.409
sI7
F11.394
sI8
F11.433
sI9
F11.416
sI10
F11.426
sI11
F11.391
sI12
F11.432
sI13
F11.397
sI14
F11.399
ssg32
(dp493
I0
F58.10054
sI1
F58.85793
sI2
F49.92534
sI3
F50.67886
sI4
F56.43324
sI5
F59.15903
sI6
F57.93976
sI7
F54.20437
sI8
F50.53468
sI9
F58.76463
sI10
F51.88094
sI11
F54.95561
sI12
F50.14707
sI13
F55.3595
sI14
F55.11436
ssg34
(dp494
I0
F2458415.628634259
sI1
F2458415.630127315
sI2
F2458415.591099537
sI3
F2458415.591863426
sI4
F2458415.6113310186
sI5
F2458415.6308680554
sI6
F2458415.629386574
sI7
F2458415.6090856483
sI8
F2458415.590358796
sI9
F2458415.6278819446
sI10
F2458415.5933449073
sI11
F2458415.6120833335
sI12
F2458415.592604167
sI13
F2458415.609826389
sI14
F2458415.6105787037
ssg36
(dp495
I0
F0.16877166666666651
sI1
Fnan
sI2
Fnan
sI3
Fnan
sI4
Fnan
sI5
Fnan
sI6
Fnan
sI7
Fnan
sI8
Fnan
sI9
Fnan
sI10
Fnan
sI11
Fnan
sI12
Fnan
sI13
Fnan
sI14
Fnan
ssg38
(dp496
I0
F1.5379281333333334
sI1
Fnan
sI2
Fnan
sI3
Fnan
sI4
Fnan
sI5
Fnan
sI6
Fnan
sI7
Fnan
sI8
Fnan
sI9
Fnan
sI10
Fnan
sI11
Fnan
sI12
Fnan
sI13
Fnan
sI14
Fnan
ssg40
(dp497
I0
F0.696247332588498
sI1
F0.6967049784893531
sI2
F0.6956622030923865
sI3
F0.6926378718381178
sI4
F0.6968975270990109
sI5
F0.6955791438767437
sI6
F0.6952937160522548
sI7
F0.6962204723183562
sI8
F0.6932017868935745
sI9
F0.6961731767605086
sI10
F0.6975529265026703
sI11
F0.7002409797090848
sI12
F0.6926094226459363
sI13
F0.6964435436221132
sI14
F0.6952914449521379
ssg42
(dp498
I0
F0.0010459494144095308
sI1
Fnan
sI2
Fnan
sI3
Fnan
sI4
Fnan
sI5
Fnan
sI6
Fnan
sI7
Fnan
sI8
Fnan
sI9
Fnan
sI10
Fnan
sI11
Fnan
sI12
Fnan
sI13
Fnan
sI14
Fnan
ssg44
(dp499
I0
F2.2696794000000002
sI1
Fnan
sI2
Fnan
sI3
Fnan
sI4
Fnan
sI5
Fnan
sI6
Fnan
sI7
Fnan
sI8
Fnan
sI9
Fnan
sI10
Fnan
sI11
Fnan
sI12
Fnan
sI13
Fnan
sI14
Fnan
ssg46
(dp500
I0
g473
sI1
g474
sI2
g475
sI3
g476
sI4
g477
sI5
g478
sI6
g479
sI7
g480
sI8
g481
sI9
g482
sI10
g483
sI11
g484
sI12
g485
sI13
g486
sI14
g487
ssg48
(dp501
I0
F0.0017406881955246342
sI1
Fnan
sI2
Fnan
sI3
Fnan
sI4
Fnan
sI5
Fnan
sI6
Fnan
sI7
Fnan
sI8
Fnan
sI9
Fnan
sI10
Fnan
sI11
Fnan
sI12
Fnan
sI13
Fnan
sI14
Fnan
ssg50
(dp502
I0
F0.013394384039944777
sI1
Fnan
sI2
Fnan
sI3
Fnan
sI4
Fnan
sI5
Fnan
sI6
Fnan
sI7
Fnan
sI8
Fnan
sI9
Fnan
sI10
Fnan
sI11
Fnan
sI12
Fnan
sI13
Fnan
sI14
Fnan
ssg52
(dp503
I0
F2.657793933333333
sI1
Fnan
sI2
Fnan
sI3
Fnan
sI4
Fnan
sI5
Fnan
sI6
Fnan
sI7
Fnan
sI8
Fnan
sI9
Fnan
sI10
Fnan
sI11
Fnan
sI12
Fnan
sI13
Fnan
sI14
Fnan
ssg54
(dp504
I0
F1.5023544365920107
sI1
F1.497768717469023
sI2
F1.504451480818007
sI3
F1.4986371780069274
sI4
F1.5022848854134683
sI5
F1.4985472085536282
sI6
F1.4907348913079348
sI7
F1.5000718123770285
sI8
F1.4955663270257935
sI9
F1.498245129569983
sI10
F1.500799431943461
sI11
F1.4989177520847539
sI12
F1.5038832864866687
sI13
F1.4946929445500545
sI14
F1.4945927275108926
ssg56
(dp505
I0
g473
sI1
g474
sI2
g475
sI3
g476
sI4
g477
sI5
g478
sI6
g479
sI7
g480
sI8
g481
sI9
g482
sI10
g483
sI11
g484
sI12
g485
sI13
g486
sI14
g487
ssg58
(dp506
I0
F60.09873
sI1
F59.9467
sI2
F50.94033
sI3
F51.81377
sI4
F56.26277
sI5
F61.40641
sI6
F59.41813
sI7
F55.6675
sI8
F52.43356
sI9
F59.58566
sI10
F52.54749
sI11
F56.56422
sI12
F51.33957
sI13
F56.61693
sI14
F55.82582
ssg60
(dp507
I0
F10.746066666666668
sI1
Fnan
sI2
Fnan
sI3
Fnan
sI4
Fnan
sI5
Fnan
sI6
Fnan
sI7
Fnan
sI8
Fnan
sI9
Fnan
sI10
Fnan
sI11
Fnan
sI12
Fnan
sI13
Fnan
sI14
Fnan
ssg62
(dp508
I0
F0.7181573889077206
sI1
Fnan
sI2
Fnan
sI3
Fnan
sI4
Fnan
sI5
Fnan
sI6
Fnan
sI7
Fnan
sI8
Fnan
sI9
Fnan
sI10
Fnan
sI11
Fnan
sI12
Fnan
sI13
Fnan
sI14
Fnan
ssg64
(dp509
I0
F3.386553
sI1
F-3.36078
sI2
F3.225683
sI3
F2.589789
sI4
F4.619167
sI5
F5.869496
sI6
F-4.462015
sI7
F-3.457871
sI8
F4.174191
sI9
F3.978333
sI10
F-3.9729
sI11
F5.76172
sI12
F4.796135
sI13
F-3.618827
sI14
F3.540248
ssg66
(dp510
I0
F11.106133333333334
sI1
Fnan
sI2
Fnan
sI3
Fnan
sI4
Fnan
sI5
Fnan
sI6
Fnan
sI7
Fnan
sI8
Fnan
sI9
Fnan
sI10
Fnan
sI11
Fnan
sI12
Fnan
sI13
Fnan
sI14
Fnan
ssg68
(dp511
I0
g473
sI1
g474
sI2
g475
sI3
g476
sI4
g477
sI5
g478
sI6
g479
sI7
g480
sI8
g481
sI9
g482
sI10
g483
sI11
g484
sI12
g485
sI13
g486
sI14
g487
ssg70
(dp512
I0
F9005.236666666666
sI1
F8934.109999999999
sI2
F9113.53
sI3
F9018.5
sI4
F9225.21
sI5
F9012.796666666667
sI6
F9128.99
sI7
F9215.343333333332
sI8
F8933.26
sI9
F9026.806666666667
sI10
F8922.216666666667
sI11
F9178.3
sI12
F8943.946666666667
sI13
F9197.269999999999
sI14
F9187.453333333333
ssg72
(dp513
I0
F1.05122
sI1
F1.053477
sI2
F1.012338
sI3
F1.012785
sI4
F1.029015
sI5
F1.0546360000000001
sI6
F1.052342
sI7
F1.026675
sI8
F1.0118989999999999
sI9
F1.0500969999999998
sI10
F1.013717
sI11
F1.029827
sI12
F1.013242
sI13
F1.027435
sI14
F1.0282229999999999
ssg74
(dp514
I0
F7743.993333333333
sI1
F7696.833333333333
sI2
F7817.54
sI3
F7726.166666666667
sI4
F7915.693333333333
sI5
F7727.39
sI6
F7840.05
sI7
F7912.623333333334
sI8
F7689.526666666667
sI9
F7775.953333333334
sI10
F7677.070000000001
sI11
F7908.05
sI12
F7666.983333333334
sI13
F7907.946666666667
sI14
F7912.973333333333
ssg76
(dp515
I0
F12581.640000000001
sI1
F12454.653333333332
sI2
F12735.986666666666
sI3
F12547.09
sI4
F12875.26
sI5
F12542.980000000001
sI6
F12648.17
sI7
F12846.59
sI8
F12430.24
sI9
F12587.326666666666
sI10
F12456.1
sI11
F12805.516666666666
sI12
F12490.45
sI13
F12783.523333333334
sI14
F12779.086666666666
ssg78
(dp516
I0
F59.22563
sI1
F58.65956
sI2
F51.33735
sI3
F51.94216
sI4
F55.41947
sI5
F59.51242
sI6
F58.65324
sI7
F54.72824
sI8
F50.951
sI9
F58.47397
sI10
F51.37905
sI11
F55.22956
sI12
F52.11626
sI13
F55.41153
sI14
F55.49195
ssg80
(dp517
I0
F11.278
sI1
F11.284
sI2
F11.267
sI3
F11.28
sI4
F11.254
sI5
F11.28
sI6
F11.264
sI7
F11.254
sI8
F11.285
sI9
F11.273
sI10
F11.287
sI11
F11.255
sI12
F11.288
sI13
F11.255
sI14
F11.254
ssg82
(dp518
I0
F0.002
sI1
F0.002
sI2
F0.002
sI3
F0.002
sI4
F0.002
sI5
F0.002
sI6
F0.002
sI7
F0.002
sI8
F0.002
sI9
F0.002
sI10
F0.002
sI11
F0.002
sI12
F0.002
sI13
F0.002
sI14
F0.002
ssg84
(dp519
I0
F0.6957837684293832
sI1
Fnan
sI2
Fnan
sI3
Fnan
sI4
Fnan
sI5
Fnan
sI6
Fnan
sI7
Fnan
sI8
Fnan
sI9
Fnan
sI10
Fnan
sI11
Fnan
sI12
Fnan
sI13
Fnan
sI14
Fnan
ssg86
(dp520
I0
F11.270533333333333
sI1
Fnan
sI2
Fnan
sI3
Fnan
sI4
Fnan
sI5
Fnan
sI6
Fnan
sI7
Fnan
sI8
Fnan
sI9
Fnan
sI10
Fnan
sI11
Fnan
sI12
Fnan
sI13
Fnan
sI14
Fnan
ssg88
(dp521
I0
F11.114
sI1
F11.122
sI2
F11.101
sI3
F11.112
sI4
F11.088
sI5
F11.113
sI6
F11.099
sI7
F11.089
sI8
F11.122
sI9
F11.111
sI10
F11.124
sI11
F11.093
sI12
F11.121
sI13
F11.091
sI14
F11.092
ssg90
(dp522
I0
F4.543299
sI1
F4.071179
sI2
F4.257902
sI3
F2.04931
sI4
F-2.889751
sI5
F2.94994
sI6
F-5.79502
sI7
F3.193872
sI8
F-3.180623
sI9
F-4.02603
sI10
F2.432936
sI11
F-4.130352
sI12
F4.957454
sI13
F-3.754027
sI14
F-2.148514
ssg92
(dp523
I0
F0.013333452380420854
sI1
Fnan
sI2
Fnan
sI3
Fnan
sI4
Fnan
sI5
Fnan
sI6
Fnan
sI7
Fnan
sI8
Fnan
sI9
Fnan
sI10
Fnan
sI11
Fnan
sI12
Fnan
sI13
Fnan
sI14
Fnan
ssg94
(dp524
I0
F0.7174723284810539
sI1
F0.7197081208840344
sI2
F0.7155801310631585
sI3
F0.7165272702176632
sI4
F0.7163371035397286
sI5
F0.7169669754418498
sI6
F0.7200250170361976
sI7
F0.7173100574443461
sI8
F0.7198751765082189
sI9
F0.7195248787830186
sI10
F0.71821089749037
sI11
F0.7194428628938409
sI12
F0.7153906361410686
sI13
F0.719532416027447
sI14
F0.7204569616638153
ssg96
(dp525
I0
F30.0
sI1
F30.0
sI2
F30.0
sI3
F30.0
sI4
F30.0
sI5
F30.0
sI6
F30.0
sI7
F30.0
sI8
F30.0
sI9
F30.0
sI10
F30.0
sI11
F30.0
sI12
F30.0
sI13
F30.0
sI14
F30.0
ssg98
(dp526
I0
F0.002
sI1
F0.002
sI2
F0.002
sI3
F0.002
sI4
F0.002
sI5
F0.002
sI6
F0.002
sI7
F0.002
sI8
F0.002
sI9
F0.002
sI10
F0.002
sI11
F0.002
sI12
F0.002
sI13
F0.002
sI14
F0.002
ssg100
(dp527
I0
F0.002
sI1
F0.002
sI2
F0.002
sI3
F0.002
sI4
F0.002
sI5
F0.002
sI6
F0.002
sI7
F0.002
sI8
F0.002
sI9
F0.002
sI10
F0.002
sI11
F0.002
sI12
F0.002
sI13
F0.002
sI14
F0.002
ssg102
(dp528
I0
F4.201101
sI1
F5.411764
sI2
F3.952159
sI3
F3.779727
sI4
F3.413666
sI5
F-2.721375
sI6
F-2.013433
sI7
F-4.931475
sI8
F4.010059
sI9
F3.814237
sI10
F3.300603
sI11
F4.062795
sI12
F5.315925
sI13
F3.806462
sI14
F4.464694
ssg104
(dp529
I0
S'KIC8462852-20181024at030514_-25-1X1-030-V_cal.fts.mag.1'
p530
sI1
S'KIC8462852-20181024at030723_-25-1X1-030-V_cal.fts.mag.1'
p531
sI2
S'KIC8462852-20181024at021111_-25-1X1-030-V_cal.fts.mag.1'
p532
sI3
S'KIC8462852-20181024at021217_-25-1X1-030-V_cal.fts.mag.1'
p533
sI4
S'KIC8462852-20181024at024019_-25-1X1-030-V_cal.fts.mag.1'
p534
sI5
S'KIC8462852-20181024at030827_-25-1X1-030-V_cal.fts.mag.1'
p535
sI6
S'KIC8462852-20181024at030619_-25-1X1-030-V_cal.fts.mag.1'
p536
sI7
S'KIC8462852-20181024at023658_-25-1X1-030-V_cal.fts.mag.1'
p537
sI8
S'KIC8462852-20181024at021000_-25-1X1-030-V_cal.fts.mag.1'
p538
sI9
S'KIC8462852-20181024at030401_-25-1X1-030-V_cal.fts.mag.1'
p539
sI10
S'KIC8462852-20181024at021425_-25-1X1-030-V_cal.fts.mag.1'
p540
sI11
S'KIC8462852-20181024at024124_-25-1X1-030-V_cal.fts.mag.1'
p541
sI12
S'KIC8462852-20181024at021321_-25-1X1-030-V_cal.fts.mag.1'
p542
sI13
S'KIC8462852-20181024at023809_-25-1X1-030-V_cal.fts.mag.1'
p543
sI14
S'KIC8462852-20181024at023914_-25-1X1-030-V_cal.fts.mag.1'
p544
ssg121
(dp545
I0
F0.0037768702109947884
sI1
Fnan
sI2
Fnan
sI3
Fnan
sI4
Fnan
sI5
Fnan
sI6
Fnan
sI7
Fnan
sI8
Fnan
sI9
Fnan
sI10
Fnan
sI11
Fnan
sI12
Fnan
sI13
Fnan
sI14
Fnan
ssg123
(dp546
I0
F6807.179999999999
sI1
F6754.693333333333
sI2
F6879.416666666667
sI3
F6762.86
sI4
F6972.73
sI5
F6789.586666666667
sI6
F6864.22
sI7
F6956.3
sI8
F6713.203333333334
sI9
F6820.196666666667
sI10
F6755.89
sI11
F6977.17
sI12
F6718.63
sI13
F6938.6066666666675
sI14
F6924.990000000001
ssg125
(dp547
I0
F0.013537601954063727
sI1
Fnan
sI2
Fnan
sI3
Fnan
sI4
Fnan
sI5
Fnan
sI6
Fnan
sI7
Fnan
sI8
Fnan
sI9
Fnan
sI10
Fnan
sI11
Fnan
sI12
Fnan
sI13
Fnan
sI14
Fnan
ssg127
(dp548
I0
g469
sI1
g469
sI2
g469
sI3
g469
sI4
g469
sI5
g469
sI6
g469
sI7
g469
sI8
g469
sI9
g469
sI10
g469
sI11
g469
sI12
g469
sI13
g469
sI14
g469
ssg144
(dp549
I0
F0.0019504071267823408
sI1
Fnan
sI2
Fnan
sI3
Fnan
sI4
Fnan
sI5
Fnan
sI6
Fnan
sI7
Fnan
sI8
Fnan
sI9
Fnan
sI10
Fnan
sI11
Fnan
sI12
Fnan
sI13
Fnan
sI14
Fnan
ssg146
(dp550
I0
F-3.281025
sI1
F5.653842
sI2
F5.099935
sI3
F3.510317
sI4
F-3.265658
sI5
F-3.48617
sI6
F5.054615
sI7
F5.098623
sI8
F5.501338
sI9
F-3.908248
sI10
F2.611889
sI11
F4.407096
sI12
F5.173634
sI13
F4.195431
sI14
F1.679572
ssg148
(dp551
I0
F1.4987698806473086
sI1
Fnan
sI2
Fnan
sI3
Fnan
sI4
Fnan
sI5
Fnan
sI6
Fnan
sI7
Fnan
sI8
Fnan
sI9
Fnan
sI10
Fnan
sI11
Fnan
sI12
Fnan
sI13
Fnan
sI14
Fnan
ssg150
(dp552
I0
F2458415.6105787037
sI1
Fnan
sI2
Fnan
sI3
Fnan
sI4
Fnan
sI5
Fnan
sI6
Fnan
sI7
Fnan
sI8
Fnan
sI9
Fnan
sI10
Fnan
sI11
Fnan
sI12
Fnan
sI13
Fnan
sI14
Fnan
ssg152
(dp553
I0
F0.0019504071267823408
sI1
Fnan
sI2
Fnan
sI3
Fnan
sI4
Fnan
sI5
Fnan
sI6
Fnan
sI7
Fnan
sI8
Fnan
sI9
Fnan
sI10
Fnan
sI11
Fnan
sI12
Fnan
sI13
Fnan
sI14
Fnan
ssg154
(dp554
I0
F61.77482
sI1
F61.43181
sI2
F51.99904
sI3
F54.12784
sI4
F58.21553
sI5
F62.00764
sI6
F62.34168
sI7
F57.44929
sI8
F55.37329
sI9
F61.69859
sI10
F53.85124
sI11
F58.75073
sI12
F53.98243
sI13
F58.71356
sI14
F57.99817
ssg156
(dp555
I0
F10.751
sI1
F10.762
sI2
F10.737
sI3
F10.754
sI4
F10.726
sI5
F10.754
sI6
F10.745
sI7
F10.728
sI8
F10.764
sI9
F10.75
sI10
F10.762
sI11
F10.732
sI12
F10.759
sI13
F10.733
sI14
F10.734
ssg158
(dp556
I0
F0.6957837684293832
sI1
Fnan
sI2
Fnan
sI3
Fnan
sI4
Fnan
sI5
Fnan
sI6
Fnan
sI7
Fnan
sI8
Fnan
sI9
Fnan
sI10
Fnan
sI11
Fnan
sI12
Fnan
sI13
Fnan
sI14
Fnan
sss.