(dp0
S'i'
p1
(dp2
S'sigmean'
p3
(dp4
I0
F0.43903703321375825
sI1
Fnan
sI2
Fnan
sI3
Fnan
sI4
Fnan
sI5
Fnan
sI6
Fnan
sI7
Fnan
sI8
Fnan
sI9
Fnan
sI10
Fnan
sI11
Fnan
sI12
Fnan
sI13
Fnan
sI14
Fnan
ssS'ref3flag'
p5
(dp6
I0
S'NoError'
p7
sI1
S'NoError'
p8
sI2
S'NoError'
p9
sI3
S'NoError'
p10
sI4
S'NoError'
p11
sI5
S'NoError'
p12
sI6
S'NoError'
p13
sI7
S'NoError'
p14
sI8
S'NoError'
p15
sI9
S'NoError'
p16
sI10
S'NoError'
p17
sI11
S'NoError'
p18
sI12
S'NoError'
p19
sI13
S'NoError'
p20
sI14
S'NoError'
p21
ssS'tabbyerr'
p22
(dp23
I0
F0.003
sI1
F0.003
sI2
F0.003
sI3
F0.003
sI4
F0.003
sI5
F0.003
sI6
F0.003
sI7
F0.003
sI8
F0.003
sI9
F0.003
sI10
F0.003
sI11
F0.003
sI12
F0.003
sI13
F0.003
sI14
F0.003
ssS'ref2rel'
p24
(dp25
I0
F0.9125796498276598
sI1
F0.9109818385494767
sI2
F0.9120702346783723
sI3
F0.906690689323912
sI4
F0.9068341846795602
sI5
F0.9068362713769217
sI6
F0.9101342950195397
sI7
F0.9056397259750192
sI8
F0.9079445398601115
sI9
F0.9074104962547273
sI10
F0.9077378270295133
sI11
F0.9094808343134196
sI12
F0.9117949663780591
sI13
F0.9066581929765485
sI14
F0.9070371527965345
ssS'ref2err'
p26
(dp27
I0
F0.002303468469088998
sI1
Fnan
sI2
Fnan
sI3
Fnan
sI4
Fnan
sI5
Fnan
sI6
Fnan
sI7
Fnan
sI8
Fnan
sI9
Fnan
sI10
Fnan
sI11
Fnan
sI12
Fnan
sI13
Fnan
sI14
Fnan
ssS'ref2mean'
p28
(dp29
I0
F0.9086553932692917
sI1
Fnan
sI2
Fnan
sI3
Fnan
sI4
Fnan
sI5
Fnan
sI6
Fnan
sI7
Fnan
sI8
Fnan
sI9
Fnan
sI10
Fnan
sI11
Fnan
sI12
Fnan
sI13
Fnan
sI14
Fnan
ssS'tabbymag'
p30
(dp31
I0
F11.976
sI1
F11.953
sI2
F11.94
sI3
F11.956
sI4
F11.921
sI5
F11.96
sI6
F11.956
sI7
F11.937
sI8
F11.934
sI9
F11.979
sI10
F12.012
sI11
F11.954
sI12
F11.963
sI13
F11.949
sI14
F11.961
ssS'tabbybkg'
p32
(dp33
I0
F16.02842
sI1
F14.77451
sI2
F15.02806
sI3
F13.70443
sI4
F15.07736
sI5
F14.44686
sI6
F14.62376
sI7
F14.53271
sI8
F14.86015
sI9
F16.13835
sI10
F14.85015
sI11
F15.4962
sI12
F14.6691
sI13
F15.22135
sI14
F15.43628
ssS'JD'
p34
(dp35
I0
F2458443.569050926
sI1
F2458443.605185185
sI2
F2458443.6044444446
sI3
F2458443.585625
sI4
F2458443.6074074074
sI5
F2458443.6066666665
sI6
F2458443.5871064817
sI7
F2458443.587835648
sI8
F2458443.588564815
sI9
F2458443.5675694444
sI10
F2458443.5697800927
sI11
F2458443.5668287035
sI12
F2458443.5863657407
sI13
F2458443.605914352
sI14
F2458443.5683101853
ssS'ref3rmsmean'
p36
(dp37
I0
F1.2135759999999998
sI1
Fnan
sI2
Fnan
sI3
Fnan
sI4
Fnan
sI5
Fnan
sI6
Fnan
sI7
Fnan
sI8
Fnan
sI9
Fnan
sI10
Fnan
sI11
Fnan
sI12
Fnan
sI13
Fnan
sI14
Fnan
ssS'ref1rmsmean'
p38
(dp39
I0
F1.0896068666666667
sI1
Fnan
sI2
Fnan
sI3
Fnan
sI4
Fnan
sI5
Fnan
sI6
Fnan
sI7
Fnan
sI8
Fnan
sI9
Fnan
sI10
Fnan
sI11
Fnan
sI12
Fnan
sI13
Fnan
sI14
Fnan
ssS'relflux'
p40
(dp41
I0
F0.43620680439961035
sI1
F0.43678417244683887
sI2
F0.4390818469553216
sI3
F0.4397724599685539
sI4
F0.4411665642563565
sI5
F0.43895865869047757
sI6
F0.4384495229155751
sI7
F0.4401142890798602
sI8
F0.43898248571402554
sI9
F0.43860620026644587
sI10
F0.43915142021301523
sI11
F0.44056437302473156
sI12
F0.4379339211952431
sI13
F0.4377921873280907
sI14
F0.4411867586884264
ssS'sigerr'
p42
(dp43
I0
F0.0008177348451657023
sI1
Fnan
sI2
Fnan
sI3
Fnan
sI4
Fnan
sI5
Fnan
sI6
Fnan
sI7
Fnan
sI8
Fnan
sI9
Fnan
sI10
Fnan
sI11
Fnan
sI12
Fnan
sI13
Fnan
sI14
Fnan
ssS'tabbyrmsmean'
p44
(dp45
I0
F1.9740743333333333
sI1
Fnan
sI2
Fnan
sI3
Fnan
sI4
Fnan
sI5
Fnan
sI6
Fnan
sI7
Fnan
sI8
Fnan
sI9
Fnan
sI10
Fnan
sI11
Fnan
sI12
Fnan
sI13
Fnan
sI14
Fnan
ssS'tabbyflag'
p46
(dp47
I0
g7
sI1
g8
sI2
g9
sI3
g10
sI4
g11
sI5
g12
sI6
g13
sI7
g14
sI8
g15
sI9
g16
sI10
g17
sI11
g18
sI12
g19
sI13
g20
sI14
g21
ssS'ref1err'
p48
(dp49
I0
F0.0014612339750851224
sI1
Fnan
sI2
Fnan
sI3
Fnan
sI4
Fnan
sI5
Fnan
sI6
Fnan
sI7
Fnan
sI8
Fnan
sI9
Fnan
sI10
Fnan
sI11
Fnan
sI12
Fnan
sI13
Fnan
sI14
Fnan
ssS'ref2magmeanerr'
p50
(dp51
I0
F0.02082740868137332
sI1
Fnan
sI2
Fnan
sI3
Fnan
sI4
Fnan
sI5
Fnan
sI6
Fnan
sI7
Fnan
sI8
Fnan
sI9
Fnan
sI10
Fnan
sI11
Fnan
sI12
Fnan
sI13
Fnan
sI14
Fnan
ssS'ref2rmsmean'
p52
(dp53
I0
F2.0181806
sI1
Fnan
sI2
Fnan
sI3
Fnan
sI4
Fnan
sI5
Fnan
sI6
Fnan
sI7
Fnan
sI8
Fnan
sI9
Fnan
sI10
Fnan
sI11
Fnan
sI12
Fnan
sI13
Fnan
sI14
Fnan
ssS'ref3rel'
p54
(dp55
I0
F1.5006914369950566
sI1
F1.4998494211602293
sI2
F1.4992479378646957
sI3
F1.5034971375790016
sI4
F1.503282174380136
sI5
F1.505813725963186
sI6
F1.4980390109701527
sI7
F1.5068532918020512
sI8
F1.5048987291661617
sI9
F1.5012072838760158
sI10
F1.5090463871221174
sI11
F1.5035825548387096
sI12
F1.4960546837074693
sI13
F1.5034707590590894
sI14
F1.5031563307657445
ssS'ref1flag'
p56
(dp57
I0
g7
sI1
g8
sI2
g9
sI3
g10
sI4
g11
sI5
g12
sI6
g13
sI7
g14
sI8
g15
sI9
g16
sI10
g17
sI11
g18
sI12
g19
sI13
g20
sI14
g21
ssS'ref2bkg'
p58
(dp59
I0
F16.18247
sI1
F14.68103
sI2
F15.22728
sI3
F15.19202
sI4
F14.66714
sI5
F16.55884
sI6
F16.12726
sI7
F14.68023
sI8
F15.77753
sI9
F17.67114
sI10
F18.48392
sI11
F16.76663
sI12
F15.34696
sI13
F16.07821
sI14
F16.40917
ssS'ref3magmean'
p60
(dp61
I0
F10.788999999999998
sI1
Fnan
sI2
Fnan
sI3
Fnan
sI4
Fnan
sI5
Fnan
sI6
Fnan
sI7
Fnan
sI8
Fnan
sI9
Fnan
sI10
Fnan
sI11
Fnan
sI12
Fnan
sI13
Fnan
sI14
Fnan
ssS'ref1mean'
p62
(dp63
I0
F0.6976421407716819
sI1
Fnan
sI2
Fnan
sI3
Fnan
sI4
Fnan
sI5
Fnan
sI6
Fnan
sI7
Fnan
sI8
Fnan
sI9
Fnan
sI10
Fnan
sI11
Fnan
sI12
Fnan
sI13
Fnan
sI14
Fnan
ssS'ref1rms'
p64
(dp65
I0
F2.523258
sI1
F-2.443573
sI2
F4.183763
sI3
F1.420146
sI4
F-2.494366
sI5
F4.102779
sI6
F3.439124
sI7
F3.67626
sI8
F1.940068
sI9
F-2.234311
sI10
F-3.874467
sI11
F-2.256905
sI12
F2.430274
sI13
F3.548456
sI14
F2.383597
ssS'ref2magmean'
p66
(dp67
I0
F11.133266666666666
sI1
Fnan
sI2
Fnan
sI3
Fnan
sI4
Fnan
sI5
Fnan
sI6
Fnan
sI7
Fnan
sI8
Fnan
sI9
Fnan
sI10
Fnan
sI11
Fnan
sI12
Fnan
sI13
Fnan
sI14
Fnan
ssS'ref2flag'
p68
(dp69
I0
g7
sI1
g8
sI2
g9
sI3
g10
sI4
g11
sI5
g12
sI6
g13
sI7
g14
sI8
g15
sI9
g16
sI10
g17
sI11
g18
sI12
g19
sI13
g20
sI14
g21
ssS'ref2'
p70
(dp71
I0
F8773.74
sI1
F8934.533333333333
sI2
F9003.653333333332
sI3
F8818.476666666666
sI4
F9086.253333333332
sI5
F8803.386666666665
sI6
F8871.71
sI7
F8961.05
sI8
F9030.2
sI9
F8668.026666666667
sI10
F8393.966666666667
sI11
F8841.396666666667
sI12
F8832.673333333334
sI13
F8921.16
sI14
F8759.35
ssS'airmass'
p72
(dp73
I0
F1.080409
sI1
F1.173137
sI2
F1.170785
sI3
F1.1174549999999999
sI4
F1.180424
sI5
F1.177959
sI6
F1.121163
sI7
F1.1230440000000002
sI8
F1.124942
sI9
F1.077517
sI10
F1.0818530000000002
sI11
F1.07609
sI12
F1.1192950000000002
sI13
F1.175538
sI14
F1.078968
ssS'ref1'
p74
(dp75
I0
F7224.343333333333
sI1
F7380.286666666667
sI2
F7426.7266666666665
sI3
F7319.96
sI4
F7541.443333333333
sI5
F7295.009999999999
sI6
F7347.1466666666665
sI7
F7435.693333333333
sI8
F7473.4
sI9
F7196.786666666667
sI10
F6931.12
sI11
F7304.4366666666665
sI12
F7303.759999999999
sI13
F7405.72
sI14
F7268.2266666666665
ssS'ref3'
p76
(dp77
I0
F12004.093333333332
sI1
F12234.886666666665
sI2
F12316.606666666667
sI3
F12132.046666666667
sI4
F12498.06
sI5
F12120.593333333332
sI6
F12148.24
sI7
F12353.743333333334
sI8
F12418.123333333333
sI9
F11908.186666666666
sI10
F11563.133333333333
sI11
F12138.296666666667
sI12
F12070.493333333334
sI13
F12273.493333333334
sI14
F12045.976666666666
ssS'ref1bkg'
p78
(dp79
I0
F16.46611
sI1
F15.57711
sI2
F14.46063
sI3
F15.77151
sI4
F15.45256
sI5
F15.32688
sI6
F15.24309
sI7
F15.55173
sI8
F15.41431
sI9
F17.44214
sI10
F18.35499
sI11
F17.22979
sI12
F15.52977
sI13
F14.16216
sI14
F16.53454
ssS'ref1mag'
p80
(dp81
I0
F11.353
sI1
F11.33
sI2
F11.323
sI3
F11.339
sI4
F11.306
sI5
F11.342
sI6
F11.335
sI7
F11.322
sI8
F11.316
sI9
F11.357
sI10
F11.398
sI11
F11.341
sI12
F11.341
sI13
F11.326
sI14
F11.346
ssS'ref3magerr'
p82
(dp83
I0
F0.002
sI1
F0.002
sI2
F0.002
sI3
F0.002
sI4
F0.002
sI5
F0.002
sI6
F0.002
sI7
F0.002
sI8
F0.002
sI9
F0.002
sI10
F0.002
sI11
F0.002
sI12
F0.002
sI13
F0.002
sI14
F0.002
ssS'tabbymagmean'
p84
(dp85
I0
F0.4389834443428382
sI1
Fnan
sI2
Fnan
sI3
Fnan
sI4
Fnan
sI5
Fnan
sI6
Fnan
sI7
Fnan
sI8
Fnan
sI9
Fnan
sI10
Fnan
sI11
Fnan
sI12
Fnan
sI13
Fnan
sI14
Fnan
ssS'ref1magmean'
p86
(dp87
I0
F11.338333333333335
sI1
Fnan
sI2
Fnan
sI3
Fnan
sI4
Fnan
sI5
Fnan
sI6
Fnan
sI7
Fnan
sI8
Fnan
sI9
Fnan
sI10
Fnan
sI11
Fnan
sI12
Fnan
sI13
Fnan
sI14
Fnan
ssS'ref2mag'
p88
(dp89
I0
F11.142
sI1
F11.122
sI2
F11.114
sI3
F11.137
sI4
F11.104
sI5
F11.138
sI6
F11.13
sI7
F11.119
sI8
F11.111
sI9
F11.155
sI10
F11.19
sI11
F11.134
sI12
F11.135
sI13
F11.124
sI14
F11.144
ssS'ref3rms'
p90
(dp91
I0
F2.81896
sI1
F3.381942
sI2
F2.603741
sI3
F3.505924
sI4
F-2.338717
sI5
F-2.939781
sI6
F0.729384
sI7
F2.832911
sI8
F4.303757
sI9
F-1.450663
sI10
F3.586633
sI11
F3.283188
sI12
F-2.068587
sI13
F2.773093
sI14
F-2.818145
ssS'ref3magmeanerr'
p92
(dp93
I0
F0.0203995798276058
sI1
Fnan
sI2
Fnan
sI3
Fnan
sI4
Fnan
sI5
Fnan
sI6
Fnan
sI7
Fnan
sI8
Fnan
sI9
Fnan
sI10
Fnan
sI11
Fnan
sI12
Fnan
sI13
Fnan
sI14
Fnan
ssS'ref1rel'
p94
(dp95
I0
F0.6953894775682419
sI1
F0.697259222658596
sI2
F0.6966825607817791
sI3
F0.6987854082244883
sI4
F0.6987892750506772
sI5
F0.6972870362139517
sI6
F0.6990641430323733
sI7
F0.6977025971633471
sI8
F0.696874984944433
sI9
F0.6995248882852433
sI10
F0.6946019211208042
sI11
F0.6963339788252385
sI12
F0.6988185203198877
sI13
F0.6988290757606163
sI14
F0.6986890216255516
ssS'exposure'
p96
(dp97
I0
F30.0
sI1
F30.0
sI2
F30.0
sI3
F30.0
sI4
F30.0
sI5
F30.0
sI6
F30.0
sI7
F30.0
sI8
F30.0
sI9
F30.0
sI10
F30.0
sI11
F30.0
sI12
F30.0
sI13
F30.0
sI14
F30.0
ssS'ref1magerr'
p98
(dp99
I0
F0.002
sI1
F0.002
sI2
F0.002
sI3
F0.002
sI4
F0.002
sI5
F0.002
sI6
F0.002
sI7
F0.002
sI8
F0.002
sI9
F0.002
sI10
F0.002
sI11
F0.002
sI12
F0.002
sI13
F0.002
sI14
F0.002
ssS'ref2magerr'
p100
(dp101
I0
F0.002
sI1
F0.002
sI2
F0.002
sI3
F0.002
sI4
F0.002
sI5
F0.002
sI6
F0.002
sI7
F0.002
sI8
F0.002
sI9
F0.002
sI10
F0.002
sI11
F0.002
sI12
F0.002
sI13
F0.002
sI14
F0.002
ssS'ref2rms'
p102
(dp103
I0
F3.791827
sI1
F3.172363
sI2
F1.410964
sI3
F4.981873
sI4
F4.58392
sI5
F-4.066451
sI6
F4.224735
sI7
F4.127887
sI8
F3.211479
sI9
F1.992199
sI10
F-3.854322
sI11
F3.788673
sI12
F2.688716
sI13
F-3.502819
sI14
F3.721665
ssS'name'
p104
(dp105
I0
S"KIC8462852-20181121at013926_-35-1X1-030-i'_cal.fts.mag.1"
p106
sI1
S"KIC8462852-20181121at023127_-35-1X1-030-i'_cal.fts.mag.1"
p107
sI2
S"KIC8462852-20181121at023022_-35-1X1-030-i'_cal.fts.mag.1"
p108
sI3
S"KIC8462852-20181121at020317_-35-1X1-030-i'_cal.fts.mag.1"
p109
sI4
S"KIC8462852-20181121at023440_-35-1X1-030-i'_cal.fts.mag.1"
p110
sI5
S"KIC8462852-20181121at023336_-35-1X1-030-i'_cal.fts.mag.1"
p111
sI6
S"KIC8462852-20181121at020525_-35-1X1-030-i'_cal.fts.mag.1"
p112
sI7
S"KIC8462852-20181121at020629_-35-1X1-030-i'_cal.fts.mag.1"
p113
sI8
S"KIC8462852-20181121at020732_-35-1X1-030-i'_cal.fts.mag.1"
p114
sI9
S"KIC8462852-20181121at013718_-35-1X1-030-i'_cal.fts.mag.1"
p115
sI10
S"KIC8462852-20181121at014029_-35-1X1-030-i'_cal.fts.mag.1"
p116
sI11
S"KIC8462852-20181121at013612_-35-1X1-030-i'_cal.fts.mag.1"
p117
sI12
S"KIC8462852-20181121at020422_-35-1X1-030-i'_cal.fts.mag.1"
p118
sI13
S"KIC8462852-20181121at023231_-35-1X1-030-i'_cal.fts.mag.1"
p119
sI14
S"KIC8462852-20181121at013822_-35-1X1-030-i'_cal.fts.mag.1"
p120
ssS'ref3err'
p121
(dp122
I0
F0.0034494682429146604
sI1
Fnan
sI2
Fnan
sI3
Fnan
sI4
Fnan
sI5
Fnan
sI6
Fnan
sI7
Fnan
sI8
Fnan
sI9
Fnan
sI10
Fnan
sI11
Fnan
sI12
Fnan
sI13
Fnan
sI14
Fnan
ssS'tabby'
p123
(dp124
I0
F4071.58
sI1
F4156.6866666666665
sI2
F4207.426666666667
sI3
F4144.193333333334
sI4
F4283.1033333333335
sI5
F4128.99
sI6
F4145.846666666666
sI7
F4217.833333333333
sI8
F4232.043333333333
sI9
F4060.4700000000003
sI10
F3936.0
sI11
F4153.66
sI12
F4117.59
sI13
F4173.673333333333
sI14
F4128.56
ssS'ref1magmeanerr'
p125
(dp126
I0
F0.02152960309721955
sI1
Fnan
sI2
Fnan
sI3
Fnan
sI4
Fnan
sI5
Fnan
sI6
Fnan
sI7
Fnan
sI8
Fnan
sI9
Fnan
sI10
Fnan
sI11
Fnan
sI12
Fnan
sI13
Fnan
sI14
Fnan
ssS'filter'
p127
(dp128
I0
S"i'"
p129
sI1
S"i'"
p130
sI2
S"i'"
p131
sI3
S"i'"
p132
sI4
S"i'"
p133
sI5
S"i'"
p134
sI6
S"i'"
p135
sI7
S"i'"
p136
sI8
S"i'"
p137
sI9
S"i'"
p138
sI10
S"i'"
p139
sI11
S"i'"
p140
sI12
S"i'"
p141
sI13
S"i'"
p142
sI14
S"i'"
p143
ssS'tabbymagerr'
p144
(dp145
I0
F0.0014529358307054131
sI1
Fnan
sI2
Fnan
sI3
Fnan
sI4
Fnan
sI5
Fnan
sI6
Fnan
sI7
Fnan
sI8
Fnan
sI9
Fnan
sI10
Fnan
sI11
Fnan
sI12
Fnan
sI13
Fnan
sI14
Fnan
ssS'tabbyrms'
p146
(dp147
I0
F2.945374
sI1
F-1.984097
sI2
F-1.904192
sI3
F4.972358
sI4
F-3.184728
sI5
F3.926097
sI6
F4.595318
sI7
F3.858153
sI8
F3.112447
sI9
F2.501717
sI10
F3.582349
sI11
F4.710979
sI12
F4.12921
sI13
F-3.302487
sI14
F1.652617
ssS'ref3mean'
p148
(dp149
I0
F1.5025793910166543
sI1
Fnan
sI2
Fnan
sI3
Fnan
sI4
Fnan
sI5
Fnan
sI6
Fnan
sI7
Fnan
sI8
Fnan
sI9
Fnan
sI10
Fnan
sI11
Fnan
sI12
Fnan
sI13
Fnan
sI14
Fnan
ssS'median_JD'
p150
(dp151
I0
F2458443.5871064817
sI1
Fnan
sI2
Fnan
sI3
Fnan
sI4
Fnan
sI5
Fnan
sI6
Fnan
sI7
Fnan
sI8
Fnan
sI9
Fnan
sI10
Fnan
sI11
Fnan
sI12
Fnan
sI13
Fnan
sI14
Fnan
ssS'error'
p152
(dp153
I0
F0.0014529358307054131
sI1
Fnan
sI2
Fnan
sI3
Fnan
sI4
Fnan
sI5
Fnan
sI6
Fnan
sI7
Fnan
sI8
Fnan
sI9
Fnan
sI10
Fnan
sI11
Fnan
sI12
Fnan
sI13
Fnan
sI14
Fnan
ssS'ref3bkg'
p154
(dp155
I0
F18.26846
sI1
F17.17693
sI2
F16.84546
sI3
F16.0761
sI4
F17.29267
sI5
F16.82974
sI6
F17.3234
sI7
F17.19531
sI8
F15.90568
sI9
F18.47107
sI10
F18.5323
sI11
F18.27549
sI12
F17.36172
sI13
F17.24114
sI14
F18.34789
ssS'ref3mag'
p156
(dp157
I0
F10.802
sI1
F10.781
sI2
F10.774
sI3
F10.79
sI4
F10.758
sI5
F10.791
sI6
F10.789
sI7
F10.771
sI8
F10.765
sI9
F10.81
sI10
F10.842
sI11
F10.79
sI12
F10.796
sI13
F10.778
sI14
F10.798
ssS'mean'
p158
(dp159
I0
F0.4389834443428382
sI1
Fnan
sI2
Fnan
sI3
Fnan
sI4
Fnan
sI5
Fnan
sI6
Fnan
sI7
Fnan
sI8
Fnan
sI9
Fnan
sI10
Fnan
sI11
Fnan
sI12
Fnan
sI13
Fnan
sI14
Fnan
sssS'r'
p160
(dp161
g3
(dp162
I0
F0.5505560135216288
sI1
Fnan
sI2
Fnan
sI3
Fnan
sI4
Fnan
sI5
Fnan
sI6
Fnan
sI7
Fnan
sI8
Fnan
sI9
Fnan
sI10
Fnan
sI11
Fnan
sI12
Fnan
sI13
Fnan
sI14
Fnan
ssg5
(dp163
I0
S'NoError'
p164
sI1
S'NoError'
p165
sI2
S'NoError'
p166
sI3
S'NoError'
p167
sI4
S'NoError'
p168
sI5
S'NoError'
p169
sI6
S'NoError'
p170
sI7
S'NoError'
p171
sI8
S'NoError'
p172
sI9
S'NoError'
p173
sI10
S'NoError'
p174
sI11
S'NoError'
p175
sI12
S'NoError'
p176
sI13
S'NoError'
p177
sI14
S'NoError'
p178
ssg22
(dp179
I0
F0.002
sI1
F0.002
sI2
F0.002
sI3
F0.002
sI4
F0.002
sI5
F0.002
sI6
F0.002
sI7
F0.002
sI8
F0.002
sI9
F0.002
sI10
F0.002
sI11
F0.002
sI12
F0.002
sI13
F0.002
sI14
F0.002
ssg24
(dp180
I0
F0.893185302534195
sI1
F0.8903056887310186
sI2
F0.8930253936162516
sI3
F0.8929862100668019
sI4
F0.8909661528809822
sI5
F0.8946771130385427
sI6
F0.8918604775452235
sI7
F0.8951692849856335
sI8
F0.8911550826396514
sI9
F0.891699077094861
sI10
F0.8926425097998698
sI11
F0.8912834519428988
sI12
F0.8925872388763159
sI13
F0.8939776030021886
sI14
F0.898257375677013
ssg26
(dp181
I0
F0.0020192822842067006
sI1
Fnan
sI2
Fnan
sI3
Fnan
sI4
Fnan
sI5
Fnan
sI6
Fnan
sI7
Fnan
sI8
Fnan
sI9
Fnan
sI10
Fnan
sI11
Fnan
sI12
Fnan
sI13
Fnan
sI14
Fnan
ssg28
(dp182
I0
F0.8929185308287632
sI1
Fnan
sI2
Fnan
sI3
Fnan
sI4
Fnan
sI5
Fnan
sI6
Fnan
sI7
Fnan
sI8
Fnan
sI9
Fnan
sI10
Fnan
sI11
Fnan
sI12
Fnan
sI13
Fnan
sI14
Fnan
ssg30
(dp183
I0
F11.224
sI1
F11.233
sI2
F11.207
sI3
F11.227
sI4
F11.206
sI5
F11.253
sI6
F11.286
sI7
F11.207
sI8
F11.241
sI9
F11.208
sI10
F11.211
sI11
F11.227
sI12
F11.239
sI13
F11.208
sI14
F11.24
ssg32
(dp184
I0
F31.08909
sI1
F32.38875
sI2
F31.71336
sI3
F30.81375
sI4
F31.51786
sI5
F33.42634
sI6
F33.20097
sI7
F31.22215
sI8
F32.2192
sI9
F31.09786
sI10
F30.60245
sI11
F32.26881
sI12
F32.12401
sI13
F32.00948
sI14
F30.86111
ssg34
(dp185
I0
F2458443.5848726854
sI1
F2458443.564583333
sI2
F2458443.602939815
sI3
F2458443.581921296
sI4
F2458443.5841319445
sI5
F2458443.5638425928
sI6
F2458443.563101852
sI7
F2458443.6007291665
sI8
F2458443.566076389
sI9
F2458443.5833912035
sI10
F2458443.582650463
sI11
F2458443.6036805557
sI12
F2458443.6022106484
sI13
F2458443.6014699074
sI14
F2458443.565324074
ssg36
(dp186
I0
F2.620063466666667
sI1
Fnan
sI2
Fnan
sI3
Fnan
sI4
Fnan
sI5
Fnan
sI6
Fnan
sI7
Fnan
sI8
Fnan
sI9
Fnan
sI10
Fnan
sI11
Fnan
sI12
Fnan
sI13
Fnan
sI14
Fnan
ssg38
(dp187
I0
F2.2498777333333337
sI1
Fnan
sI2
Fnan
sI3
Fnan
sI4
Fnan
sI5
Fnan
sI6
Fnan
sI7
Fnan
sI8
Fnan
sI9
Fnan
sI10
Fnan
sI11
Fnan
sI12
Fnan
sI13
Fnan
sI14
Fnan
ssg40
(dp188
I0
F0.5501601365504537
sI1
F0.5501746822213814
sI2
F0.5503022275336554
sI3
F0.5517688547732965
sI4
F0.5494563627622941
sI5
F0.549963957813865
sI6
F0.5499484082139561
sI7
F0.5518438578494963
sI8
F0.5479072702727789
sI9
F0.5502810240198139
sI10
F0.5513275948444687
sI11
F0.5499624763655337
sI12
F0.5517639641911487
sI13
F0.5504875812573694
sI14
F0.550343060906069
ssg42
(dp189
I0
F0.0007539151275373562
sI1
Fnan
sI2
Fnan
sI3
Fnan
sI4
Fnan
sI5
Fnan
sI6
Fnan
sI7
Fnan
sI8
Fnan
sI9
Fnan
sI10
Fnan
sI11
Fnan
sI12
Fnan
sI13
Fnan
sI14
Fnan
ssg44
(dp190
I0
F2.249201333333333
sI1
Fnan
sI2
Fnan
sI3
Fnan
sI4
Fnan
sI5
Fnan
sI6
Fnan
sI7
Fnan
sI8
Fnan
sI9
Fnan
sI10
Fnan
sI11
Fnan
sI12
Fnan
sI13
Fnan
sI14
Fnan
ssg46
(dp191
I0
g164
sI1
g165
sI2
g166
sI3
g167
sI4
g168
sI5
g169
sI6
g170
sI7
g171
sI8
g172
sI9
g173
sI10
g174
sI11
g175
sI12
g176
sI13
g177
sI14
g178
ssg48
(dp192
I0
F0.001285594106449044
sI1
Fnan
sI2
Fnan
sI3
Fnan
sI4
Fnan
sI5
Fnan
sI6
Fnan
sI7
Fnan
sI8
Fnan
sI9
Fnan
sI10
Fnan
sI11
Fnan
sI12
Fnan
sI13
Fnan
sI14
Fnan
ssg50
(dp193
I0
F0.02171854594799651
sI1
Fnan
sI2
Fnan
sI3
Fnan
sI4
Fnan
sI5
Fnan
sI6
Fnan
sI7
Fnan
sI8
Fnan
sI9
Fnan
sI10
Fnan
sI11
Fnan
sI12
Fnan
sI13
Fnan
sI14
Fnan
ssg52
(dp194
I0
F1.0916046
sI1
Fnan
sI2
Fnan
sI3
Fnan
sI4
Fnan
sI5
Fnan
sI6
Fnan
sI7
Fnan
sI8
Fnan
sI9
Fnan
sI10
Fnan
sI11
Fnan
sI12
Fnan
sI13
Fnan
sI14
Fnan
ssg54
(dp195
I0
F1.4952729217522829
sI1
F1.496299305893896
sI2
F1.4958065428614997
sI3
F1.4948195620056324
sI4
F1.4956217366214786
sI5
F1.4948180138213254
sI6
F1.4975328482109138
sI7
F1.496434926979151
sI8
F1.500005055084457
sI9
F1.499572984207605
sI10
F1.49752424222864
sI11
F1.49712663170058
sI12
F1.4970430069094267
sI13
F1.4922278117144425
sI14
F1.4914659815126672
ssg56
(dp196
I0
g164
sI1
g165
sI2
g166
sI3
g167
sI4
g168
sI5
g169
sI6
g170
sI7
g171
sI8
g172
sI9
g173
sI10
g174
sI11
g175
sI12
g176
sI13
g177
sI14
g178
ssg58
(dp197
I0
F32.07722
sI1
F33.44245
sI2
F32.85345
sI3
F32.01995
sI4
F32.05008
sI5
F33.65943
sI6
F36.2012
sI7
F33.30648
sI8
F33.15822
sI9
F31.85331
sI10
F31.68174
sI11
F33.18662
sI12
F33.29539
sI13
F32.2077
sI14
F32.69945
ssg60
(dp198
I0
F10.308266666666666
sI1
Fnan
sI2
Fnan
sI3
Fnan
sI4
Fnan
sI5
Fnan
sI6
Fnan
sI7
Fnan
sI8
Fnan
sI9
Fnan
sI10
Fnan
sI11
Fnan
sI12
Fnan
sI13
Fnan
sI14
Fnan
ssg62
(dp199
I0
F0.7152120869867855
sI1
Fnan
sI2
Fnan
sI3
Fnan
sI4
Fnan
sI5
Fnan
sI6
Fnan
sI7
Fnan
sI8
Fnan
sI9
Fnan
sI10
Fnan
sI11
Fnan
sI12
Fnan
sI13
Fnan
sI14
Fnan
ssg64
(dp200
I0
F2.800542
sI1
F1.922339
sI2
F-3.003215
sI3
F3.376753
sI4
F3.246678
sI5
F3.351077
sI6
F-3.562799
sI7
F4.633625
sI8
F3.851455
sI9
F-3.492841
sI10
F3.470265
sI11
F3.735803
sI12
F3.893737
sI13
F5.390613
sI14
F4.134134
ssg66
(dp201
I0
F10.663133333333333
sI1
Fnan
sI2
Fnan
sI3
Fnan
sI4
Fnan
sI5
Fnan
sI6
Fnan
sI7
Fnan
sI8
Fnan
sI9
Fnan
sI10
Fnan
sI11
Fnan
sI12
Fnan
sI13
Fnan
sI14
Fnan
ssg68
(dp202
I0
g164
sI1
g165
sI2
g166
sI3
g167
sI4
g168
sI5
g169
sI6
g170
sI7
g171
sI8
g172
sI9
g173
sI10
g174
sI11
g175
sI12
g176
sI13
g177
sI14
g178
ssg70
(dp203
I0
F13692.926666666666
sI1
F13553.95
sI2
F13904.923333333334
sI3
F13617.619999999999
sI4
F13917.76
sI5
F13356.206666666667
sI6
F12932.9
sI7
F13895.523333333334
sI8
F13516.196666666667
sI9
F13884.753333333332
sI10
F13822.480000000001
sI11
F13641.406666666668
sI12
F13460.303333333333
sI13
F13899.356666666667
sI14
F13543.26
ssg72
(dp204
I0
F1.115579
sI1
F1.071878
sI2
F1.166038
sI3
F1.108391
sI4
F1.113743
sI5
F1.070518
sI6
F1.0691709999999999
sI7
F1.159232
sI8
F1.074652
sI9
F1.111953
sI10
F1.110151
sI11
F1.168383
sI12
F1.16375
sI13
F1.1614879999999999
sI14
F1.073267
ssg74
(dp205
I0
F11686.386666666665
sI1
F11616.553333333333
sI2
F11866.573333333334
sI3
F11629.28
sI4
F11920.109999999999
sI5
F11373.693333333333
sI6
F11046.843333333332
sI7
F11811.29
sI8
F11541.083333333334
sI9
F11848.096666666668
sI10
F11791.226666666666
sI11
F11666.29
sI12
F11486.773333333334
sI13
F11869.233333333334
sI14
F11487.933333333332
ssg76
(dp206
I0
F18974.5
sI1
F18831.303333333333
sI2
F19274.586666666666
sI3
F18869.780000000002
sI4
F19321.84
sI5
F18483.35
sI6
F17955.22666666667
sI7
F19234.286666666667
sI8
F18793.02333333333
sI9
F19294.143333333333
sI10
F19178.57333333333
sI11
F18944.413333333334
sI12
F18673.423333333332
sI13
F19226.303333333333
sI14
F18666.586666666666
ssg78
(dp207
I0
F31.92298
sI1
F32.98357
sI2
F32.27722
sI3
F32.01839
sI4
F31.51613
sI5
F33.04348
sI6
F34.75806
sI7
F31.90832
sI8
F32.74312
sI9
F31.81635
sI10
F31.087
sI11
F32.80532
sI12
F32.62683
sI13
F31.59297
sI14
F32.85098
ssg80
(dp208
I0
F10.831
sI1
F10.837
sI2
F10.814
sI3
F10.836
sI4
F10.809
sI5
F10.86
sI6
F10.892
sI7
F10.819
sI8
F10.844
sI9
F10.816
sI10
F10.821
sI11
F10.833
sI12
F10.85
sI13
F10.814
sI14
F10.849
ssg82
(dp209
I0
F0.001
sI1
F0.001
sI2
F0.001
sI3
F0.001
sI4
F0.001
sI5
F0.001
sI6
F0.001
sI7
F0.001
sI8
F0.001
sI9
F0.001
sI10
F0.001
sI11
F0.001
sI12
F0.001
sI13
F0.001
sI14
F0.001
ssg84
(dp210
I0
F0.550379430638372
sI1
Fnan
sI2
Fnan
sI3
Fnan
sI4
Fnan
sI5
Fnan
sI6
Fnan
sI7
Fnan
sI8
Fnan
sI9
Fnan
sI10
Fnan
sI11
Fnan
sI12
Fnan
sI13
Fnan
sI14
Fnan
ssg86
(dp211
I0
F10.834999999999999
sI1
Fnan
sI2
Fnan
sI3
Fnan
sI4
Fnan
sI5
Fnan
sI6
Fnan
sI7
Fnan
sI8
Fnan
sI9
Fnan
sI10
Fnan
sI11
Fnan
sI12
Fnan
sI13
Fnan
sI14
Fnan
ssg88
(dp212
I0
F10.659
sI1
F10.67
sI2
F10.642
sI3
F10.665
sI4
F10.641
sI5
F10.686
sI6
F10.721
sI7
F10.643
sI8
F10.673
sI9
F10.644
sI10
F10.649
sI11
F10.663
sI12
F10.677
sI13
F10.643
sI14
F10.671
ssg90
(dp213
I0
F3.451209
sI1
F5.050891
sI2
F5.279543
sI3
F4.956001
sI4
F4.331694
sI5
F4.449498
sI6
F4.488848
sI7
F3.154652
sI8
F5.221597
sI9
F2.506216
sI10
F-5.053865
sI11
F2.654954
sI12
F-3.113136
sI13
F4.520936
sI14
F-2.598086
ssg92
(dp214
I0
F0.02178946884118468
sI1
Fnan
sI2
Fnan
sI3
Fnan
sI4
Fnan
sI5
Fnan
sI6
Fnan
sI7
Fnan
sI8
Fnan
sI9
Fnan
sI10
Fnan
sI11
Fnan
sI12
Fnan
sI13
Fnan
sI14
Fnan
ssg94
(dp215
I0
F0.715476415446661
sI1
F0.7173977127038067
sI2
F0.7152952730967596
sI3
F0.7159255588320395
sI4
F0.7172234322916039
sI5
F0.714437920879761
sI6
F0.7152808878665133
sI7
F0.7130309530902834
sI8
F0.7144142342856519
sI9
F0.7141947356296457
sI10
F0.7145969886213733
sI11
F0.7160347660424075
sI12
F0.714935647053283
sI13
F0.7166186776857175
sI14
F0.7133181012762764
ssg96
(dp216
I0
F30.0
sI1
F30.0
sI2
F30.0
sI3
F30.0
sI4
F30.0
sI5
F30.0
sI6
F30.0
sI7
F30.0
sI8
F30.0
sI9
F30.0
sI10
F30.0
sI11
F30.0
sI12
F30.0
sI13
F30.0
sI14
F30.0
ssg98
(dp217
I0
F0.002
sI1
F0.002
sI2
F0.002
sI3
F0.002
sI4
F0.002
sI5
F0.002
sI6
F0.002
sI7
F0.002
sI8
F0.002
sI9
F0.002
sI10
F0.002
sI11
F0.002
sI12
F0.002
sI13
F0.002
sI14
F0.002
ssg100
(dp218
I0
F0.002
sI1
F0.002
sI2
F0.002
sI3
F0.002
sI4
F0.002
sI5
F0.002
sI6
F0.002
sI7
F0.002
sI8
F0.002
sI9
F0.002
sI10
F0.002
sI11
F0.002
sI12
F0.002
sI13
F0.002
sI14
F0.002
ssg102
(dp219
I0
F-2.140849
sI1
F3.834779
sI2
F-2.526806
sI3
F2.963014
sI4
F1.221822
sI5
F-3.207003
sI6
F-3.694607
sI7
F2.300376
sI8
F2.188175
sI9
F3.176393
sI10
F3.084015
sI11
F4.607219
sI12
F1.634462
sI13
F4.773784
sI14
F-1.840705
ssg104
(dp220
I0
S"KIC8462852-20181121at020213_-35-1X1-030-r'_cal.fts.mag.1"
p221
sI1
S"KIC8462852-20181121at013300_-35-1X1-030-r'_cal.fts.mag.1"
p222
sI2
S"KIC8462852-20181121at022814_-35-1X1-030-r'_cal.fts.mag.1"
p223
sI3
S"KIC8462852-20181121at015756_-35-1X1-030-r'_cal.fts.mag.1"
p224
sI4
S"KIC8462852-20181121at020109_-35-1X1-030-r'_cal.fts.mag.1"
p225
sI5
S"KIC8462852-20181121at013156_-35-1X1-030-r'_cal.fts.mag.1"
p226
sI6
S"KIC8462852-20181121at013050_-35-1X1-030-r'_cal.fts.mag.1"
p227
sI7
S"KIC8462852-20181121at022501_-35-1X1-030-r'_cal.fts.mag.1"
p228
sI8
S"KIC8462852-20181121at013509_-35-1X1-030-r'_cal.fts.mag.1"
p229
sI9
S"KIC8462852-20181121at020005_-35-1X1-030-r'_cal.fts.mag.1"
p230
sI10
S"KIC8462852-20181121at015901_-35-1X1-030-r'_cal.fts.mag.1"
p231
sI11
S"KIC8462852-20181121at022918_-35-1X1-030-r'_cal.fts.mag.1"
p232
sI12
S"KIC8462852-20181121at022711_-35-1X1-030-r'_cal.fts.mag.1"
p233
sI13
S"KIC8462852-20181121at022607_-35-1X1-030-r'_cal.fts.mag.1"
p234
sI14
S"KIC8462852-20181121at013404_-35-1X1-030-r'_cal.fts.mag.1"
p235
ssg121
(dp236
I0
F0.002302751109323501
sI1
Fnan
sI2
Fnan
sI3
Fnan
sI4
Fnan
sI5
Fnan
sI6
Fnan
sI7
Fnan
sI8
Fnan
sI9
Fnan
sI10
Fnan
sI11
Fnan
sI12
Fnan
sI13
Fnan
sI14
Fnan
ssg123
(dp237
I0
F8133.9
sI1
F8069.5599999999995
sI2
F8262.986666666668
sI3
F8114.070000000001
sI4
F8271.096666666666
sI5
F7921.91
sI6
F7687.3566666666675
sI7
F8266.823333333334
sI8
F8008.633333333333
sI9
F8259.166666666666
sI10
F8231.74
sI11
F8112.333333333333
sI12
F8022.740000000001
sI13
F8256.376666666667
sI14
F8016.256666666667
ssg125
(dp238
I0
F0.02199350553491365
sI1
Fnan
sI2
Fnan
sI3
Fnan
sI4
Fnan
sI5
Fnan
sI6
Fnan
sI7
Fnan
sI8
Fnan
sI9
Fnan
sI10
Fnan
sI11
Fnan
sI12
Fnan
sI13
Fnan
sI14
Fnan
ssg127
(dp239
I0
S"r'"
p240
sI1
S"r'"
p241
sI2
S"r'"
p242
sI3
S"r'"
p243
sI4
S"r'"
p244
sI5
S"r'"
p245
sI6
S"r'"
p246
sI7
S"r'"
p247
sI8
S"r'"
p248
sI9
S"r'"
p249
sI10
S"r'"
p250
sI11
S"r'"
p251
sI12
S"r'"
p252
sI13
S"r'"
p253
sI14
S"r'"
p254
ssg144
(dp255
I0
F0.0010178952497276834
sI1
Fnan
sI2
Fnan
sI3
Fnan
sI4
Fnan
sI5
Fnan
sI6
Fnan
sI7
Fnan
sI8
Fnan
sI9
Fnan
sI10
Fnan
sI11
Fnan
sI12
Fnan
sI13
Fnan
sI14
Fnan
ssg146
(dp256
I0
F4.529956
sI1
F3.180464
sI2
F3.161318
sI3
F2.706308
sI4
F1.646333
sI5
F-2.426728
sI6
F3.792011
sI7
F3.597103
sI8
F-4.15211
sI9
F-2.00735
sI10
F3.468076
sI11
F4.778253
sI12
F4.125185
sI13
F3.721551
sI14
F3.61765
ssg148
(dp257
I0
F1.4961047714336002
sI1
Fnan
sI2
Fnan
sI3
Fnan
sI4
Fnan
sI5
Fnan
sI6
Fnan
sI7
Fnan
sI8
Fnan
sI9
Fnan
sI10
Fnan
sI11
Fnan
sI12
Fnan
sI13
Fnan
sI14
Fnan
ssg150
(dp258
I0
F2458443.5833912035
sI1
Fnan
sI2
Fnan
sI3
Fnan
sI4
Fnan
sI5
Fnan
sI6
Fnan
sI7
Fnan
sI8
Fnan
sI9
Fnan
sI10
Fnan
sI11
Fnan
sI12
Fnan
sI13
Fnan
sI14
Fnan
ssg152
(dp259
I0
F0.0010178952497276834
sI1
Fnan
sI2
Fnan
sI3
Fnan
sI4
Fnan
sI5
Fnan
sI6
Fnan
sI7
Fnan
sI8
Fnan
sI9
Fnan
sI10
Fnan
sI11
Fnan
sI12
Fnan
sI13
Fnan
sI14
Fnan
ssg154
(dp260
I0
F33.22213
sI1
F34.87786
sI2
F34.02885
sI3
F33.76003
sI4
F32.71605
sI5
F36.31286
sI6
F37.04375
sI7
F34.40628
sI8
F34.29219
sI9
F32.8616
sI10
F34.01736
sI11
F34.80512
sI12
F35.00212
sI13
F33.90545
sI14
F35.35077
ssg156
(dp261
I0
F10.305
sI1
F10.313
sI2
F10.288
sI3
F10.311
sI4
F10.285
sI5
F10.333
sI6
F10.365
sI7
F10.29
sI8
F10.315
sI9
F10.286
sI10
F10.293
sI11
F10.306
sI12
F10.322
sI13
F10.29
sI14
F10.322
ssg158
(dp262
I0
F0.550379430638372
sI1
Fnan
sI2
Fnan
sI3
Fnan
sI4
Fnan
sI5
Fnan
sI6
Fnan
sI7
Fnan
sI8
Fnan
sI9
Fnan
sI10
Fnan
sI11
Fnan
sI12
Fnan
sI13
Fnan
sI14
Fnan
sssS'z'
p263
(dp264
g3
(dp265
I0
F0.3685691770598852
sI1
Fnan
sI2
Fnan
sI3
Fnan
sI4
Fnan
sI5
Fnan
sI6
Fnan
sI7
Fnan
sI8
Fnan
sI9
Fnan
sI10
Fnan
sI11
Fnan
sI12
Fnan
sI13
Fnan
sI14
Fnan
ssg5
(dp266
I0
S'NoError'
p267
sI1
S'NoError'
p268
sI2
S'NoError'
p269
sI3
S'NoError'
p270
sI4
S'NoError'
p271
sI5
S'NoError'
p272
sI6
S'NoError'
p273
sI7
S'NoError'
p274
sI8
S'NoError'
p275
sI9
S'NoError'
p276
sI10
S'NoError'
p277
sI11
S'NoError'
p278
sI12
S'NoError'
p279
sI13
S'NoError'
p280
sI14
S'NoError'
p281
ssg22
(dp282
I0
F0.007
sI1
F0.008
sI2
F0.007
sI3
F0.007
sI4
F0.007
sI5
F0.007
sI6
F0.007
sI7
F0.007
sI8
F0.007
sI9
F0.007
sI10
F0.007
sI11
F0.007
sI12
F0.007
sI13
F0.007
sI14
F0.007
ssg24
(dp283
I0
F0.9146930901028489
sI1
F0.9146158881878494
sI2
F0.910049733937157
sI3
F0.9178488077793717
sI4
F0.9076643940596593
sI5
F0.9130948160119208
sI6
F0.9147645649377103
sI7
F0.9129396233399563
sI8
F0.9119466480720733
sI9
F0.9220333415589992
sI10
F0.9156713572999845
sI11
F0.9198101314490148
sI12
F0.9201965448086535
sI13
F0.917777490758442
sI14
F0.9160117148385627
ssg26
(dp284
I0
F0.0038876583568634797
sI1
Fnan
sI2
Fnan
sI3
Fnan
sI4
Fnan
sI5
Fnan
sI6
Fnan
sI7
Fnan
sI8
Fnan
sI9
Fnan
sI10
Fnan
sI11
Fnan
sI12
Fnan
sI13
Fnan
sI14
Fnan
ssg28
(dp285
I0
F0.9152745431428136
sI1
Fnan
sI2
Fnan
sI3
Fnan
sI4
Fnan
sI5
Fnan
sI6
Fnan
sI7
Fnan
sI8
Fnan
sI9
Fnan
sI10
Fnan
sI11
Fnan
sI12
Fnan
sI13
Fnan
sI14
Fnan
ssg30
(dp286
I0
F13.313
sI1
F13.365
sI2
F13.304
sI3
F13.332
sI4
F13.314
sI5
F13.307
sI6
F13.34
sI7
F13.326
sI8
F13.338
sI9
F13.32
sI10
F13.314
sI11
F13.313
sI12
F13.331
sI13
F13.321
sI14
F13.331
ssg32
(dp287
I0
F5.332577
sI1
F5.782394
sI2
F5.126401
sI3
F5.57593
sI4
F6.151392
sI5
F5.055025
sI6
F5.881321
sI7
F4.725852
sI8
F6.317102
sI9
F5.219441
sI10
F6.153451
sI11
F4.196293
sI12
F5.127968
sI13
F4.784864
sI14
F5.988876
ssg34
(dp288
I0
F2458443.5900578704
sI1
F2458443.5705324076
sI2
F2458443.5915393517
sI3
F2458443.6081712963
sI4
F2458443.5727430554
sI5
F2458443.6096412037
sI6
F2458443.5922916667
sI7
F2458443.571261574
sI8
F2458443.572002315
sI9
F2458443.5907986113
sI10
F2458443.5734837963
sI11
F2458443.6089004627
sI12
F2458443.611122685
sI13
F2458443.6103935186
sI14
F2458443.5893171295
ssg36
(dp289
I0
F0.09135479333333327
sI1
Fnan
sI2
Fnan
sI3
Fnan
sI4
Fnan
sI5
Fnan
sI6
Fnan
sI7
Fnan
sI8
Fnan
sI9
Fnan
sI10
Fnan
sI11
Fnan
sI12
Fnan
sI13
Fnan
sI14
Fnan
ssg38
(dp290
I0
F1.2331696
sI1
Fnan
sI2
Fnan
sI3
Fnan
sI4
Fnan
sI5
Fnan
sI6
Fnan
sI7
Fnan
sI8
Fnan
sI9
Fnan
sI10
Fnan
sI11
Fnan
sI12
Fnan
sI13
Fnan
sI14
Fnan
ssg40
(dp291
I0
F0.36926242497104944
sI1
F0.36992054784374745
sI2
F0.37376967679866874
sI3
F0.3687702781990959
sI4
F0.36881008548309363
sI5
F0.36836885785333
sI6
F0.36618087248708625
sI7
F0.3708916993731332
sI8
F0.36660836579791256
sI9
F0.37244775843706357
sI10
F0.3671324803277534
sI11
F0.37062818543838905
sI12
F0.36816850160548037
sI13
F0.3642092439613729
sI14
F0.3624483511235785
ssg42
(dp292
I0
F0.0021105022253461434
sI1
Fnan
sI2
Fnan
sI3
Fnan
sI4
Fnan
sI5
Fnan
sI6
Fnan
sI7
Fnan
sI8
Fnan
sI9
Fnan
sI10
Fnan
sI11
Fnan
sI12
Fnan
sI13
Fnan
sI14
Fnan
ssg44
(dp293
I0
F0.7695077333333333
sI1
Fnan
sI2
Fnan
sI3
Fnan
sI4
Fnan
sI5
Fnan
sI6
Fnan
sI7
Fnan
sI8
Fnan
sI9
Fnan
sI10
Fnan
sI11
Fnan
sI12
Fnan
sI13
Fnan
sI14
Fnan
ssg46
(dp294
I0
g267
sI1
g268
sI2
g269
sI3
g270
sI4
g271
sI5
g272
sI6
g273
sI7
g274
sI8
g275
sI9
g276
sI10
g277
sI11
g278
sI12
g279
sI13
g280
sI14
g281
ssg48
(dp295
I0
F0.0022615422834413035
sI1
Fnan
sI2
Fnan
sI3
Fnan
sI4
Fnan
sI5
Fnan
sI6
Fnan
sI7
Fnan
sI8
Fnan
sI9
Fnan
sI10
Fnan
sI11
Fnan
sI12
Fnan
sI13
Fnan
sI14
Fnan
ssg50
(dp296
I0
F0.015893394854467315
sI1
Fnan
sI2
Fnan
sI3
Fnan
sI4
Fnan
sI5
Fnan
sI6
Fnan
sI7
Fnan
sI8
Fnan
sI9
Fnan
sI10
Fnan
sI11
Fnan
sI12
Fnan
sI13
Fnan
sI14
Fnan
ssg52
(dp297
I0
F2.057563333333333
sI1
Fnan
sI2
Fnan
sI3
Fnan
sI4
Fnan
sI5
Fnan
sI6
Fnan
sI7
Fnan
sI8
Fnan
sI9
Fnan
sI10
Fnan
sI11
Fnan
sI12
Fnan
sI13
Fnan
sI14
Fnan
ssg54
(dp298
I0
F1.5084967624398915
sI1
F1.5085089904872542
sI2
F1.5078187658894215
sI3
F1.5107887604801642
sI4
F1.5190055279148007
sI5
F1.5097005599483075
sI6
F1.5075304350567715
sI7
F1.503515358527582
sI8
F1.5082147324587403
sI9
F1.4972348888866542
sI10
F1.5083407569247986
sI11
F1.4984862425276657
sI12
F1.498414220524205
sI13
F1.5035349099341533
sI14
F1.5117838703516462
ssg56
(dp299
I0
g267
sI1
g268
sI2
g269
sI3
g270
sI4
g271
sI5
g272
sI6
g273
sI7
g274
sI8
g275
sI9
g276
sI10
g277
sI11
g278
sI12
g279
sI13
g280
sI14
g281
ssg58
(dp300
I0
F4.945927
sI1
F5.733442
sI2
F5.894897
sI3
F4.819638
sI4
F5.814354
sI5
F4.739577
sI6
F5.585238
sI7
F5.94647
sI8
F6.717714
sI9
F5.517442
sI10
F6.142313
sI11
F5.255714
sI12
F5.535329
sI13
F5.233576
sI14
F5.461055
ssg60
(dp301
I0
F11.965066666666665
sI1
Fnan
sI2
Fnan
sI3
Fnan
sI4
Fnan
sI5
Fnan
sI6
Fnan
sI7
Fnan
sI8
Fnan
sI9
Fnan
sI10
Fnan
sI11
Fnan
sI12
Fnan
sI13
Fnan
sI14
Fnan
ssg62
(dp302
I0
F0.6895171300641819
sI1
Fnan
sI2
Fnan
sI3
Fnan
sI4
Fnan
sI5
Fnan
sI6
Fnan
sI7
Fnan
sI8
Fnan
sI9
Fnan
sI10
Fnan
sI11
Fnan
sI12
Fnan
sI13
Fnan
sI14
Fnan
ssg64
(dp303
I0
F3.237026
sI1
F3.751412
sI2
F1.78002
sI3
F-2.557499
sI4
F2.382752
sI5
F-1.61747
sI6
F2.723328
sI7
F-2.978952
sI8
F3.412472
sI9
F2.313585
sI10
F3.037406
sI11
F1.203903
sI12
F2.085524
sI13
F-3.211298
sI14
F2.935335
ssg66
(dp304
I0
F12.305800000000001
sI1
Fnan
sI2
Fnan
sI3
Fnan
sI4
Fnan
sI5
Fnan
sI6
Fnan
sI7
Fnan
sI8
Fnan
sI9
Fnan
sI10
Fnan
sI11
Fnan
sI12
Fnan
sI13
Fnan
sI14
Fnan
ssg68
(dp305
I0
g267
sI1
g268
sI2
g269
sI3
g270
sI4
g271
sI5
g272
sI6
g273
sI7
g274
sI8
g275
sI9
g276
sI10
g277
sI11
g278
sI12
g279
sI13
g280
sI14
g281
ssg70
(dp306
I0
F3028.672
sI1
F2881.0923333333335
sI2
F3006.787333333333
sI3
F2987.300333333333
sI4
F3015.065666666667
sI5
F3048.371
sI6
F2979.338333333333
sI7
F2975.912333333333
sI8
F2974.0066666666667
sI9
F2999.713
sI10
F3046.088666666667
sI11
F3030.3696666666665
sI12
F3001.2636666666667
sI13
F3054.315
sI14
F3038.1929999999998
ssg72
(dp307
I0
F1.12885
sI1
F1.083372
sI2
F1.132855
sI3
F1.1829319999999999
sI4
F1.08792
sI5
F1.187914
sI6
F1.134855
sI7
F1.084869
sI8
F1.086388
sI9
F1.130845
sI10
F1.089486
sI11
F1.1854069999999999
sI12
F1.193014
sI13
F1.190444
sI14
F1.126901
ssg74
(dp308
I0
F2472.7960000000003
sI1
F2352.587666666667
sI2
F2475.1093333333333
sI3
F2422.6816666666664
sI4
F2474.346
sI5
F2493.6286666666665
sI6
F2433.7176666666664
sI7
F2444.54
sI8
F2439.762666666667
sI9
F2436.837666666667
sI10
F2483.2056666666667
sI11
F2468.86
sI12
F2443.692666666667
sI13
F2488.777666666667
sI14
F2469.9576666666667
ssg76
(dp309
I0
F4149.473333333333
sI1
F3947.5266666666666
sI2
F4132.8533333333335
sI3
F4086.67
sI4
F4169.223333333333
sI5
F4183.38
sI6
F4080.173333333333
sI7
F4074.866666666667
sI8
F4082.563333333333
sI9
F4069.8966666666665
sI10
F4170.03
sI11
F4120.26
sI12
F4079.4
sI13
F4167.116666666667
sI14
F4163.566666666667
ssg78
(dp310
I0
F5.017702
sI1
F6.158312
sI2
F5.842151
sI3
F5.09581
sI4
F6.759711
sI5
F5.036902
sI6
F5.471895
sI7
F5.686632
sI8
F5.70282
sI9
F5.293999
sI10
F6.218568
sI11
F5.542315
sI12
F4.160918
sI13
F5.400677
sI14
F5.378146
ssg80
(dp311
I0
F12.517
sI1
F12.571
sI2
F12.516
sI3
F12.539
sI4
F12.516
sI5
F12.508
sI6
F12.534
sI7
F12.53
sI8
F12.532
sI9
F12.533
sI10
F12.512
sI11
F12.519
sI12
F12.53
sI13
F12.51
sI14
F12.518
ssg82
(dp312
I0
F0.003
sI1
F0.003
sI2
F0.003
sI3
F0.003
sI4
F0.003
sI5
F0.003
sI6
F0.003
sI7
F0.003
sI8
F0.003
sI9
F0.003
sI10
F0.003
sI11
F0.003
sI12
F0.003
sI13
F0.003
sI14
F0.003
ssg84
(dp313
I0
F0.3685078219800504
sI1
Fnan
sI2
Fnan
sI3
Fnan
sI4
Fnan
sI5
Fnan
sI6
Fnan
sI7
Fnan
sI8
Fnan
sI9
Fnan
sI10
Fnan
sI11
Fnan
sI12
Fnan
sI13
Fnan
sI14
Fnan
ssg86
(dp314
I0
F12.525666666666666
sI1
Fnan
sI2
Fnan
sI3
Fnan
sI4
Fnan
sI5
Fnan
sI6
Fnan
sI7
Fnan
sI8
Fnan
sI9
Fnan
sI10
Fnan
sI11
Fnan
sI12
Fnan
sI13
Fnan
sI14
Fnan
ssg88
(dp315
I0
F12.297
sI1
F12.351
sI2
F12.305
sI3
F12.312
sI4
F12.302
sI5
F12.29
sI6
F12.315
sI7
F12.316
sI8
F12.317
sI9
F12.307
sI10
F12.291
sI11
F12.296
sI12
F12.307
sI13
F12.288
sI14
F12.293
ssg90
(dp316
I0
F3.911718
sI1
F-2.47835
sI2
F1.578497
sI3
F3.246377
sI4
F-1.506634
sI5
F-3.557624
sI6
F-2.824732
sI7
F1.757646
sI8
F-2.120532
sI9
F2.014011
sI10
F2.868051
sI11
F0.6194209
sI12
F-4.365698
sI13
F-1.493788
sI14
F3.721959
ssg92
(dp317
I0
F0.016446739436594943
sI1
Fnan
sI2
Fnan
sI3
Fnan
sI4
Fnan
sI5
Fnan
sI6
Fnan
sI7
Fnan
sI8
Fnan
sI9
Fnan
sI10
Fnan
sI11
Fnan
sI12
Fnan
sI13
Fnan
sI14
Fnan
ssg94
(dp318
I0
F0.6889790844766029
sI1
F0.6890376126319734
sI2
F0.6933428302320724
sI3
F0.6849566940507855
sI4
F0.6888213990277952
sI5
F0.6896334419331269
sI6
F0.6894861235680372
sI7
F0.6934099054870391
sI8
F0.6914868460644951
sI9
F0.6893839353412675
sI10
F0.6882385895723444
sI11
F0.6905293981336562
sI12
F0.6902439606532175
sI13
F0.6892754183784886
sI14
F0.6859317114118267
ssg96
(dp319
I0
F30.0
sI1
F30.0
sI2
F30.0
sI3
F30.0
sI4
F30.0
sI5
F30.0
sI6
F30.0
sI7
F30.0
sI8
F30.0
sI9
F30.0
sI10
F30.0
sI11
F30.0
sI12
F30.0
sI13
F30.0
sI14
F30.0
ssg98
(dp320
I0
F0.004
sI1
F0.004
sI2
F0.004
sI3
F0.004
sI4
F0.004
sI5
F0.004
sI6
F0.004
sI7
F0.004
sI8
F0.004
sI9
F0.004
sI10
F0.004
sI11
F0.004
sI12
F0.004
sI13
F0.004
sI14
F0.004
ssg100
(dp321
I0
F0.004
sI1
F0.004
sI2
F0.004
sI3
F0.004
sI4
F0.004
sI5
F0.004
sI6
F0.004
sI7
F0.004
sI8
F0.004
sI9
F0.004
sI10
F0.004
sI11
F0.004
sI12
F0.004
sI13
F0.004
sI14
F0.004
ssg102
(dp322
I0
F4.594389
sI1
F3.959871
sI2
F-2.701066
sI3
F2.870805
sI4
F3.447707
sI5
F3.026513
sI6
F3.982561
sI7
F2.499159
sI8
F2.910607
sI9
F3.883202
sI10
F-2.234968
sI11
F3.152682
sI12
F1.233856
sI13
F-2.793175
sI14
F3.031307
ssg104
(dp323
I0
S"KIC8462852-20181121at020941_-35-1X1-030-z'_cal.fts.mag.1"
p324
sI1
S"KIC8462852-20181121at014132_-35-1X1-030-z'_cal.fts.mag.1"
p325
sI2
S"KIC8462852-20181121at021149_-35-1X1-030-z'_cal.fts.mag.1"
p326
sI3
S"KIC8462852-20181121at023544_-35-1X1-030-z'_cal.fts.mag.1"
p327
sI4
S"KIC8462852-20181121at014445_-35-1X1-030-z'_cal.fts.mag.1"
p328
sI5
S"KIC8462852-20181121at023753_-35-1X1-030-z'_cal.fts.mag.1"
p329
sI6
S"KIC8462852-20181121at021254_-35-1X1-030-z'_cal.fts.mag.1"
p330
sI7
S"KIC8462852-20181121at014237_-35-1X1-030-z'_cal.fts.mag.1"
p331
sI8
S"KIC8462852-20181121at014341_-35-1X1-030-z'_cal.fts.mag.1"
p332
sI9
S"KIC8462852-20181121at021045_-35-1X1-030-z'_cal.fts.mag.1"
p333
sI10
S"KIC8462852-20181121at014549_-35-1X1-030-z'_cal.fts.mag.1"
p334
sI11
S"KIC8462852-20181121at023649_-35-1X1-030-z'_cal.fts.mag.1"
p335
sI12
S"KIC8462852-20181121at024001_-35-1X1-030-z'_cal.fts.mag.1"
p336
sI13
S"KIC8462852-20181121at023858_-35-1X1-030-z'_cal.fts.mag.1"
p337
sI14
S"KIC8462852-20181121at020836_-35-1X1-030-z'_cal.fts.mag.1"
p338
ssg121
(dp339
I0
F0.005746046082903487
sI1
Fnan
sI2
Fnan
sI3
Fnan
sI4
Fnan
sI5
Fnan
sI6
Fnan
sI7
Fnan
sI8
Fnan
sI9
Fnan
sI10
Fnan
sI11
Fnan
sI12
Fnan
sI13
Fnan
sI14
Fnan
ssg123
(dp340
I0
F1187.91
sI1
F1132.1056666666666
sI2
F1197.9006666666667
sI3
F1167.361
sI4
F1187.4006666666667
sI5
F1194.1756666666665
sI6
F1158.7463333333333
sI7
F1173.9116666666666
sI8
F1160.4783333333332
sI9
F1180.2183333333335
sI10
F1186.979
sI11
F1188.4180000000001
sI12
F1168.856
sI13
F1178.8493333333333
sI14
F1168.4993333333334
ssg125
(dp341
I0
F0.015908967222772095
sI1
Fnan
sI2
Fnan
sI3
Fnan
sI4
Fnan
sI5
Fnan
sI6
Fnan
sI7
Fnan
sI8
Fnan
sI9
Fnan
sI10
Fnan
sI11
Fnan
sI12
Fnan
sI13
Fnan
sI14
Fnan
ssg127
(dp342
I0
S"z'"
p343
sI1
S"z'"
p344
sI2
S"z'"
p345
sI3
S"z'"
p346
sI4
S"z'"
p347
sI5
S"z'"
p348
sI6
S"z'"
p349
sI7
S"z'"
p350
sI8
S"z'"
p351
sI9
S"z'"
p352
sI10
S"z'"
p353
sI11
S"z'"
p354
sI12
S"z'"
p355
sI13
S"z'"
p356
sI14
S"z'"
p357
ssg144
(dp358
I0
F0.002956326102612266
sI1
Fnan
sI2
Fnan
sI3
Fnan
sI4
Fnan
sI5
Fnan
sI6
Fnan
sI7
Fnan
sI8
Fnan
sI9
Fnan
sI10
Fnan
sI11
Fnan
sI12
Fnan
sI13
Fnan
sI14
Fnan
ssg146
(dp359
I0
F-3.35046
sI1
F4.077202
sI2
F-3.15189
sI3
F-2.099502
sI4
F3.263248
sI5
F-2.801876
sI6
F2.405884
sI7
F3.300838
sI8
F2.575524
sI9
F-2.385309
sI10
F3.708844
sI11
F2.757649
sI12
F-3.560289
sI13
F3.406227
sI14
F3.396526
ssg148
(dp360
I0
F1.50675831882347
sI1
Fnan
sI2
Fnan
sI3
Fnan
sI4
Fnan
sI5
Fnan
sI6
Fnan
sI7
Fnan
sI8
Fnan
sI9
Fnan
sI10
Fnan
sI11
Fnan
sI12
Fnan
sI13
Fnan
sI14
Fnan
ssg150
(dp361
I0
F2458443.5907986113
sI1
Fnan
sI2
Fnan
sI3
Fnan
sI4
Fnan
sI5
Fnan
sI6
Fnan
sI7
Fnan
sI8
Fnan
sI9
Fnan
sI10
Fnan
sI11
Fnan
sI12
Fnan
sI13
Fnan
sI14
Fnan
ssg152
(dp362
I0
F0.002956326102612266
sI1
Fnan
sI2
Fnan
sI3
Fnan
sI4
Fnan
sI5
Fnan
sI6
Fnan
sI7
Fnan
sI8
Fnan
sI9
Fnan
sI10
Fnan
sI11
Fnan
sI12
Fnan
sI13
Fnan
sI14
Fnan
ssg154
(dp363
I0
F5.492219
sI1
F6.686403
sI2
F5.906404
sI3
F5.311866
sI4
F5.959651
sI5
F5.254708
sI6
F5.696788
sI7
F6.169356
sI8
F6.95719
sI9
F6.4854
sI10
F6.507603
sI11
F5.389863
sI12
F6.521933
sI13
F5.115978
sI14
F5.684638
ssg156
(dp364
I0
F11.955
sI1
F12.009
sI2
F11.959
sI3
F11.972
sI4
F11.95
sI5
F11.946
sI6
F11.973
sI7
F11.975
sI8
F11.973
sI9
F11.976
sI10
F11.95
sI11
F11.963
sI12
F11.974
sI13
F11.95
sI14
F11.951
ssg158
(dp365
I0
F0.3685078219800504
sI1
Fnan
sI2
Fnan
sI3
Fnan
sI4
Fnan
sI5
Fnan
sI6
Fnan
sI7
Fnan
sI8
Fnan
sI9
Fnan
sI10
Fnan
sI11
Fnan
sI12
Fnan
sI13
Fnan
sI14
Fnan
sssS'g'
p366
(dp367
g3
(dp368
I0
F0.8698793703867835
sI1
Fnan
sI2
Fnan
sI3
Fnan
sI4
Fnan
sI5
Fnan
sI6
Fnan
sI7
Fnan
sI8
Fnan
sI9
Fnan
ssg5
(dp369
I0
S'NoError'
p370
sI1
S'NoError'
p371
sI2
S'NoError'
p372
sI3
S'NoError'
p373
sI4
S'NoError'
p374
sI5
S'NoError'
p375
sI6
S'NoError'
p376
sI7
S'NoError'
p377
sI8
S'NoError'
p378
sI9
S'NoError'
p379
ssg22
(dp380
I0
F0.002
sI1
F0.002
sI2
F0.002
sI3
F0.002
sI4
F0.002
sI5
F0.002
sI6
F0.002
sI7
F0.002
sI8
F0.002
sI9
F0.002
ssg24
(dp381
I0
F0.8682540520520475
sI1
F0.8776362075572683
sI2
F0.8758999634091363
sI3
F0.874558211223843
sI4
F0.8763661762004447
sI5
F0.8722688052144953
sI6
F0.8787794084624547
sI7
F0.8761169738124308
sI8
F0.8743078486571978
sI9
F0.876448120788207
ssg26
(dp382
I0
F0.0029973255474304425
sI1
Fnan
sI2
Fnan
sI3
Fnan
sI4
Fnan
sI5
Fnan
sI6
Fnan
sI7
Fnan
sI8
Fnan
sI9
Fnan
ssg28
(dp383
I0
F0.8750635767377526
sI1
Fnan
sI2
Fnan
sI3
Fnan
sI4
Fnan
sI5
Fnan
sI6
Fnan
sI7
Fnan
sI8
Fnan
sI9
Fnan
ssg30
(dp384
I0
F11.431
sI1
F11.397
sI2
F11.413
sI3
F11.392
sI4
F11.404
sI5
F11.446
sI6
F11.409
sI7
F11.423
sI8
F11.419
sI9
F11.386
ssg32
(dp385
I0
F40.31385
sI1
F40.06138
sI2
F40.07434
sI3
F39.95242
sI4
F41.46881
sI5
F42.09899
sI6
F41.79
sI7
F41.34745
sI8
F42.76402
sI9
F39.36468
ssg34
(dp386
I0
F2458443.5811574073
sI1
F2458443.579675926
sI2
F2458443.580416667
sI3
F2458443.5781828705
sI4
F2458443.599976852
sI5
F2458443.597025463
sI6
F2458443.5985069443
sI7
F2458443.597766204
sI8
F2458443.599247685
sI9
F2458443.578923611
ssg36
(dp387
I0
F3.2679560000000003
sI1
Fnan
sI2
Fnan
sI3
Fnan
sI4
Fnan
sI5
Fnan
sI6
Fnan
sI7
Fnan
sI8
Fnan
sI9
Fnan
ssg38
(dp388
I0
F1.9322508000000003
sI1
Fnan
sI2
Fnan
sI3
Fnan
sI4
Fnan
sI5
Fnan
sI6
Fnan
sI7
Fnan
sI8
Fnan
sI9
Fnan
ssg40
(dp389
I0
F0.8669809372197042
sI1
F0.8683214163535613
sI2
F0.8648455092254983
sI3
F0.8700407002993347
sI4
F0.8708234185426342
sI5
F0.8726641058746636
sI6
F0.8737619253175134
sI7
F0.8704194360420837
sI8
F0.8696148819267685
sI9
F0.8701700668355187
ssg42
(dp390
I0
F0.0015790135795485506
sI1
Fnan
sI2
Fnan
sI3
Fnan
sI4
Fnan
sI5
Fnan
sI6
Fnan
sI7
Fnan
sI8
Fnan
sI9
Fnan
ssg44
(dp391
I0
F1.5795350000000001
sI1
Fnan
sI2
Fnan
sI3
Fnan
sI4
Fnan
sI5
Fnan
sI6
Fnan
sI7
Fnan
sI8
Fnan
sI9
Fnan
ssg46
(dp392
I0
g370
sI1
g371
sI2
g372
sI3
g373
sI4
g374
sI5
g375
sI6
g376
sI7
g377
sI8
g378
sI9
g379
ssg48
(dp393
I0
F0.0035925565819699672
sI1
Fnan
sI2
Fnan
sI3
Fnan
sI4
Fnan
sI5
Fnan
sI6
Fnan
sI7
Fnan
sI8
Fnan
sI9
Fnan
ssg50
(dp394
I0
F0.020488479147505526
sI1
Fnan
sI2
Fnan
sI3
Fnan
sI4
Fnan
sI5
Fnan
sI6
Fnan
sI7
Fnan
sI8
Fnan
sI9
Fnan
ssg52
(dp395
I0
F2.5439865
sI1
Fnan
sI2
Fnan
sI3
Fnan
sI4
Fnan
sI5
Fnan
sI6
Fnan
sI7
Fnan
sI8
Fnan
sI9
Fnan
ssg54
(dp396
I0
F1.5131897000498435
sI1
F1.5077858317829285
sI2
F1.510278359223035
sI3
F1.5119402894165257
sI4
F1.5193409315726232
sI5
F1.5204733752178086
sI6
F1.516812200466073
sI7
F1.5148779174755513
sI8
F1.508003931362185
sI9
F1.5122019516437095
ssg56
(dp397
I0
g370
sI1
g371
sI2
g372
sI3
g373
sI4
g374
sI5
g375
sI6
g376
sI7
g377
sI8
g378
sI9
g379
ssg58
(dp398
I0
F39.76291
sI1
F39.76348
sI2
F40.00328
sI3
F39.16019
sI4
F42.19744
sI5
F43.10305
sI6
F41.95457
sI7
F42.5412
sI8
F42.699
sI9
F40.5999
ssg60
(dp399
I0
F10.981900000000001
sI1
Fnan
sI2
Fnan
sI3
Fnan
sI4
Fnan
sI5
Fnan
sI6
Fnan
sI7
Fnan
sI8
Fnan
sI9
Fnan
ssg62
(dp400
I0
F0.7206217814466995
sI1
Fnan
sI2
Fnan
sI3
Fnan
sI4
Fnan
sI5
Fnan
sI6
Fnan
sI7
Fnan
sI8
Fnan
sI9
Fnan
ssg64
(dp401
I0
F5.496428
sI1
F4.812731
sI2
F2.531686
sI3
F-2.594285
sI4
F-4.89988
sI5
F3.843445
sI6
F3.716059
sI7
F3.62913
sI8
F4.917242
sI9
F-2.130048
ssg66
(dp402
I0
F11.359
sI1
Fnan
sI2
Fnan
sI3
Fnan
sI4
Fnan
sI5
Fnan
sI6
Fnan
sI7
Fnan
sI8
Fnan
sI9
Fnan
ssg68
(dp403
I0
g370
sI1
g371
sI2
g372
sI3
g373
sI4
g374
sI5
g375
sI6
g376
sI7
g377
sI8
g378
sI9
g379
ssg70
(dp404
I0
F7044.5633333333335
sI1
F7313.336666666667
sI2
F7221.196666666667
sI3
F7309.203333333334
sI4
F7235.556666666667
sI5
F6923.066666666667
sI6
F7194.243333333333
sI7
F7110.12
sI8
F7134.83
sI9
F7363.27
ssg72
(dp405
I0
F1.1066129999999998
sI1
F1.1031549999999999
sI2
F1.104867
sI3
F1.099764
sI4
F1.156933
sI5
F1.148212
sI6
F1.15255
sI7
F1.150388
sI8
F1.154728
sI9
F1.101429
ssg74
(dp406
I0
F6203.526666666667
sI1
F6358.72
sI2
F6287.6066666666675
sI3
F6372.346666666666
sI4
F6260.259999999999
sI5
F6027.9
sI6
F6208.5233333333335
sI7
F6171.196666666667
sI8
F6237.973333333333
sI9
F6397.78
ssg76
(dp407
I0
F10023.436666666666
sI1
F10307.266666666666
sI2
F10201.026666666667
sI3
F10342.843333333332
sI4
F10252.373333333333
sI5
F9845.8
sI6
F10164.74
sI7
F10059.786666666665
sI8
F10083.119999999999
sI9
F10404.743333333334
ssg78
(dp408
I0
F39.32249
sI1
F39.01474
sI2
F39.88954
sI3
F40.83413
sI4
F42.83195
sI5
F42.41288
sI6
F41.80248
sI7
F41.40496
sI8
F41.61103
sI9
F39.33924
ssg80
(dp409
I0
F11.518
sI1
F11.492
sI2
F11.504
sI3
F11.489
sI4
F11.509
sI5
F11.55
sI6
F11.518
sI7
F11.524
sI8
F11.512
sI9
F11.485
ssg82
(dp410
I0
F0.002
sI1
F0.002
sI2
F0.002
sI3
F0.002
sI4
F0.002
sI5
F0.002
sI6
F0.002
sI7
F0.002
sI8
F0.002
sI9
F0.002
ssg84
(dp411
I0
F0.869764239763728
sI1
Fnan
sI2
Fnan
sI3
Fnan
sI4
Fnan
sI5
Fnan
sI6
Fnan
sI7
Fnan
sI8
Fnan
sI9
Fnan
ssg86
(dp412
I0
F11.5101
sI1
Fnan
sI2
Fnan
sI3
Fnan
sI4
Fnan
sI5
Fnan
sI6
Fnan
sI7
Fnan
sI8
Fnan
sI9
Fnan
ssg88
(dp413
I0
F11.38
sI1
F11.34
sI2
F11.353
sI3
F11.34
sI4
F11.351
sI5
F11.399
sI6
F11.358
sI7
F11.37
sI8
F11.367
sI9
F11.332
ssg90
(dp414
I0
F4.159494
sI1
F3.522973
sI2
F5.448806
sI3
F3.238363
sI4
F4.068202
sI5
F5.206251
sI6
F-3.182928
sI7
F3.684659
sI8
F5.078167
sI9
F1.455573
ssg92
(dp415
I0
F0.01820531058052358
sI1
Fnan
sI2
Fnan
sI3
Fnan
sI4
Fnan
sI5
Fnan
sI6
Fnan
sI7
Fnan
sI8
Fnan
sI9
Fnan
ssg94
(dp416
I0
F0.7269189907038512
sI1
F0.7217369212291445
sI2
F0.7217915356000296
sI3
F0.7219952209507717
sI4
F0.7159520880973334
sI5
F0.7189394632115865
sI6
F0.715309556339225
sI7
F0.7188386968517787
sI8
F0.7245895514080752
sI9
F0.7201457900751986
ssg96
(dp417
I0
F30.0
sI1
F30.0
sI2
F30.0
sI3
F30.0
sI4
F30.0
sI5
F30.0
sI6
F30.0
sI7
F30.0
sI8
F30.0
sI9
F30.0
ssg98
(dp418
I0
F0.002
sI1
F0.002
sI2
F0.003
sI3
F0.002
sI4
F0.002
sI5
F0.003
sI6
F0.002
sI7
F0.003
sI8
F0.003
sI9
F0.002
ssg100
(dp419
I0
F0.002
sI1
F0.002
sI2
F0.002
sI3
F0.002
sI4
F0.002
sI5
F0.002
sI6
F0.002
sI7
F0.002
sI8
F0.002
sI9
F0.002
ssg102
(dp420
I0
F5.283127
sI1
F4.484914
sI2
F4.25058
sI3
F2.497614
sI4
F4.209173
sI5
F-2.92996
sI6
F5.003871
sI7
F1.966138
sI8
F3.911042
sI9
F-3.236634
ssg104
(dp421
I0
S"KIC8462852-20181121at015652_-35-1X1-030-g'_cal.fts.mag.1"
p422
sI1
S"KIC8462852-20181121at015443_-35-1X1-030-g'_cal.fts.mag.1"
p423
sI2
S"KIC8462852-20181121at015548_-35-1X1-030-g'_cal.fts.mag.1"
p424
sI3
S"KIC8462852-20181121at015230_-35-1X1-030-g'_cal.fts.mag.1"
p425
sI4
S"KIC8462852-20181121at022358_-35-1X1-030-g'_cal.fts.mag.1"
p426
sI5
S"KIC8462852-20181121at021938_-35-1X1-030-g'_cal.fts.mag.1"
p427
sI6
S"KIC8462852-20181121at022151_-35-1X1-030-g'_cal.fts.mag.1"
p428
sI7
S"KIC8462852-20181121at022047_-35-1X1-030-g'_cal.fts.mag.1"
p429
sI8
S"KIC8462852-20181121at022255_-35-1X1-030-g'_cal.fts.mag.1"
p430
sI9
S"KIC8462852-20181121at015339_-35-1X1-030-g'_cal.fts.mag.1"
p431
ssg121
(dp432
I0
F0.004385129298613213
sI1
Fnan
sI2
Fnan
sI3
Fnan
sI4
Fnan
sI5
Fnan
sI6
Fnan
sI7
Fnan
sI8
Fnan
sI9
Fnan
ssg123
(dp433
I0
F6725.323333333334
sI1
F6940.586666666667
sI2
F6835.113333333333
sI3
F6967.4
sI4
F6893.493333333333
sI5
F6631.306666666667
sI6
F6864.13
sI7
F6772.183333333333
sI8
F6799.206666666667
sI9
F7009.45
ssg125
(dp434
I0
F0.01930716619979922
sI1
Fnan
sI2
Fnan
sI3
Fnan
sI4
Fnan
sI5
Fnan
sI6
Fnan
sI7
Fnan
sI8
Fnan
sI9
Fnan
ssg127
(dp435
I0
S"g'"
p436
sI1
S"g'"
p437
sI2
S"g'"
p438
sI3
S"g'"
p439
sI4
S"g'"
p440
sI5
S"g'"
p441
sI6
S"g'"
p442
sI7
S"g'"
p443
sI8
S"g'"
p444
sI9
S"g'"
p445
ssg144
(dp446
I0
F0.002586883827928221
sI1
Fnan
sI2
Fnan
sI3
Fnan
sI4
Fnan
sI5
Fnan
sI6
Fnan
sI7
Fnan
sI8
Fnan
sI9
Fnan
ssg146
(dp447
I0
F-4.337128
sI1
F3.043884
sI2
F-2.991275
sI3
F2.505986
sI4
F4.601741
sI5
F3.646767
sI6
F4.94585
sI7
F-4.08192
sI8
F2.439573
sI9
F6.021872
ssg148
(dp448
I0
F1.5134904488210281
sI1
Fnan
sI2
Fnan
sI3
Fnan
sI4
Fnan
sI5
Fnan
sI6
Fnan
sI7
Fnan
sI8
Fnan
sI9
Fnan
ssg150
(dp449
I0
F2458443.589091435
sI1
Fnan
sI2
Fnan
sI3
Fnan
sI4
Fnan
sI5
Fnan
sI6
Fnan
sI7
Fnan
sI8
Fnan
sI9
Fnan
ssg152
(dp450
I0
F0.002586883827928221
sI1
Fnan
sI2
Fnan
sI3
Fnan
sI4
Fnan
sI5
Fnan
sI6
Fnan
sI7
Fnan
sI8
Fnan
sI9
Fnan
ssg154
(dp451
I0
F40.54804
sI1
F40.89432
sI2
F40.64761
sI3
F40.2166
sI4
F41.73349
sI5
F43.40429
sI6
F42.93451
sI7
F42.81986
sI8
F43.8232
sI9
F41.00449
ssg156
(dp452
I0
F10.997
sI1
F10.967
sI2
F10.978
sI3
F10.963
sI4
F10.973
sI5
F11.017
sI6
F10.982
sI7
F10.994
sI8
F10.991
sI9
F10.957
ssg158
(dp453
I0
F0.869764239763728
sI1
Fnan
sI2
Fnan
sI3
Fnan
sI4
Fnan
sI5
Fnan
sI6
Fnan
sI7
Fnan
sI8
Fnan
sI9
Fnan
sssS'V'
p454
(dp455
g3
(dp456
I0
F0.6940633520535053
sI1
Fnan
sI2
Fnan
sI3
Fnan
sI4
Fnan
sI5
Fnan
sI6
Fnan
sI7
Fnan
sI8
Fnan
sI9
Fnan
sI10
Fnan
sI11
Fnan
sI12
Fnan
sI13
Fnan
sI14
Fnan
ssg5
(dp457
I0
S'NoError'
p458
sI1
S'NoError'
p459
sI2
S'NoError'
p460
sI3
S'NoError'
p461
sI4
S'NoError'
p462
sI5
S'NoError'
p463
sI6
S'NoError'
p464
sI7
S'NoError'
p465
sI8
S'NoError'
p466
sI9
S'NoError'
p467
sI10
S'NoError'
p468
sI11
S'NoError'
p469
sI12
S'NoError'
p470
sI13
S'NoError'
p471
sI14
S'NoError'
p472
ssg22
(dp473
I0
F0.002
sI1
F0.002
sI2
F0.002
sI3
F0.002
sI4
F0.002
sI5
F0.002
sI6
F0.002
sI7
F0.002
sI8
F0.002
sI9
F0.002
sI10
F0.002
sI11
F0.003
sI12
F0.002
sI13
F0.002
sI14
F0.002
ssg24
(dp474
I0
F0.8873853493223656
sI1
F0.8852754681379083
sI2
F0.887031467935703
sI3
F0.8786193257835027
sI4
F0.8815474109200456
sI5
F0.8833286447776479
sI6
F0.8885907084308882
sI7
F0.8852021559430314
sI8
F0.882487877206383
sI9
F0.8859387851566454
sI10
F0.8846914848478081
sI11
F0.8797655516680928
sI12
F0.8841157402172216
sI13
F0.8845434596182694
sI14
F0.8867779582130234
ssg26
(dp475
I0
F0.002813498218070532
sI1
Fnan
sI2
Fnan
sI3
Fnan
sI4
Fnan
sI5
Fnan
sI6
Fnan
sI7
Fnan
sI8
Fnan
sI9
Fnan
sI10
Fnan
sI11
Fnan
sI12
Fnan
sI13
Fnan
sI14
Fnan
ssg28
(dp476
I0
F0.8843534258785692
sI1
Fnan
sI2
Fnan
sI3
Fnan
sI4
Fnan
sI5
Fnan
sI6
Fnan
sI7
Fnan
sI8
Fnan
sI9
Fnan
sI10
Fnan
sI11
Fnan
sI12
Fnan
sI13
Fnan
sI14
Fnan
ssg30
(dp477
I0
F11.493
sI1
F11.423
sI2
F11.438
sI3
F11.455
sI4
F11.44
sI5
F11.458
sI6
F11.516
sI7
F11.441
sI8
F11.48
sI9
F11.477
sI10
F11.429
sI11
F11.723
sI12
F11.446
sI13
F11.478
sI14
F11.468
ssg32
(dp478
I0
F32.00677
sI1
F30.64069
sI2
F30.7009
sI3
F34.62528
sI4
F32.99283
sI5
F33.41494
sI6
F32.28604
sI7
F30.6163
sI8
F32.08123
sI9
F31.47654
sI10
F29.81393
sI11
F34.39275
sI12
F29.66916
sI13
F31.83767
sI14
F33.57575
ssg34
(dp479
I0
F2458443.5953819444
sI1
F2458443.577314815
sI2
F2458443.5750578702
sI3
F2458443.6127430554
sI4
F2458443.6150231482
sI5
F2458443.6142708333
sI6
F2458443.5946064815
sI7
F2458443.575810185
sI8
F2458443.5961458334
sI9
F2458443.593113426
sI10
F2458443.5765625
sI11
F2458443.6119675925
sI12
F2458443.57431713
sI13
F2458443.5938541666
sI14
F2458443.6135069444
ssg36
(dp480
I0
F2.1084606666666668
sI1
Fnan
sI2
Fnan
sI3
Fnan
sI4
Fnan
sI5
Fnan
sI6
Fnan
sI7
Fnan
sI8
Fnan
sI9
Fnan
sI10
Fnan
sI11
Fnan
sI12
Fnan
sI13
Fnan
sI14
Fnan
ssg38
(dp481
I0
F2.7264998666666664
sI1
Fnan
sI2
Fnan
sI3
Fnan
sI4
Fnan
sI5
Fnan
sI6
Fnan
sI7
Fnan
sI8
Fnan
sI9
Fnan
sI10
Fnan
sI11
Fnan
sI12
Fnan
sI13
Fnan
sI14
Fnan
ssg40
(dp482
I0
F0.6932176423812091
sI1
F0.6930864562045854
sI2
F0.6944715732984934
sI3
F0.6909243172739395
sI4
F0.6959561607679801
sI5
F0.6954032822275501
sI6
F0.6942439432607675
sI7
F0.6930647775123971
sI8
F0.693376240163138
sI9
F0.6905038920993116
sI10
F0.6950783889105653
sI11
F0.6937762061581096
sI12
F0.6962312566367551
sI13
F0.6936685740235171
sI14
F0.6934169797337498
ssg42
(dp483
I0
F0.0009310665541254866
sI1
Fnan
sI2
Fnan
sI3
Fnan
sI4
Fnan
sI5
Fnan
sI6
Fnan
sI7
Fnan
sI8
Fnan
sI9
Fnan
sI10
Fnan
sI11
Fnan
sI12
Fnan
sI13
Fnan
sI14
Fnan
ssg44
(dp484
I0
F2.8677423999999996
sI1
Fnan
sI2
Fnan
sI3
Fnan
sI4
Fnan
sI5
Fnan
sI6
Fnan
sI7
Fnan
sI8
Fnan
sI9
Fnan
sI10
Fnan
sI11
Fnan
sI12
Fnan
sI13
Fnan
sI14
Fnan
ssg46
(dp485
I0
g458
sI1
g459
sI2
g460
sI3
g461
sI4
g462
sI5
g463
sI6
g464
sI7
g465
sI8
g466
sI9
g467
sI10
g468
sI11
g469
sI12
g470
sI13
g471
sI14
g472
ssg48
(dp486
I0
F0.0033661453962387728
sI1
Fnan
sI2
Fnan
sI3
Fnan
sI4
Fnan
sI5
Fnan
sI6
Fnan
sI7
Fnan
sI8
Fnan
sI9
Fnan
sI10
Fnan
sI11
Fnan
sI12
Fnan
sI13
Fnan
sI14
Fnan
ssg50
(dp487
I0
F0.0728675902873542
sI1
Fnan
sI2
Fnan
sI3
Fnan
sI4
Fnan
sI5
Fnan
sI6
Fnan
sI7
Fnan
sI8
Fnan
sI9
Fnan
sI10
Fnan
sI11
Fnan
sI12
Fnan
sI13
Fnan
sI14
Fnan
ssg52
(dp488
I0
F0.9019242666666668
sI1
Fnan
sI2
Fnan
sI3
Fnan
sI4
Fnan
sI5
Fnan
sI6
Fnan
sI7
Fnan
sI8
Fnan
sI9
Fnan
sI10
Fnan
sI11
Fnan
sI12
Fnan
sI13
Fnan
sI14
Fnan
ssg54
(dp489
I0
F1.5015880327094622
sI1
F1.5037972625438185
sI2
F1.501956897494892
sI3
F1.5032459819294672
sI4
F1.4949513050790215
sI5
F1.5018336543723367
sI6
F1.504814163587188
sI7
F1.507095373310868
sI8
F1.510222661073834
sI9
F1.507071632539031
sI10
F1.5019738525287762
sI11
F1.516518982235153
sI12
F1.502697621188588
sI13
F1.5021581538960953
sI14
F1.502660679445462
ssg56
(dp490
I0
g458
sI1
g459
sI2
g460
sI3
g461
sI4
g462
sI5
g463
sI6
g464
sI7
g465
sI8
g466
sI9
g467
sI10
g468
sI11
g469
sI12
g470
sI13
g471
sI14
g472
ssg58
(dp491
I0
F32.27741
sI1
F29.17814
sI2
F31.04823
sI3
F34.285
sI4
F33.38548
sI5
F34.27927
sI6
F32.60044
sI7
F30.03774
sI8
F31.85223
sI9
F31.92841
sI10
F30.31617
sI11
F34.47701
sI12
F30.42443
sI13
F32.66251
sI14
F33.57738
ssg60
(dp492
I0
F10.806199999999997
sI1
Fnan
sI2
Fnan
sI3
Fnan
sI4
Fnan
sI5
Fnan
sI6
Fnan
sI7
Fnan
sI8
Fnan
sI9
Fnan
sI10
Fnan
sI11
Fnan
sI12
Fnan
sI13
Fnan
sI14
Fnan
ssg62
(dp493
I0
F0.7179346747317372
sI1
Fnan
sI2
Fnan
sI3
Fnan
sI4
Fnan
sI5
Fnan
sI6
Fnan
sI7
Fnan
sI8
Fnan
sI9
Fnan
sI10
Fnan
sI11
Fnan
sI12
Fnan
sI13
Fnan
sI14
Fnan
ssg64
(dp494
I0
F3.751559
sI1
F3.271471
sI2
F-4.056821
sI3
F2.134908
sI4
F2.72772
sI5
F4.795311
sI6
F5.317052
sI7
F1.078345
sI8
F3.584393
sI9
F-2.889141
sI10
F3.715138
sI11
F6.417464
sI12
F3.080116
sI13
F3.405286
sI14
F4.564697
ssg66
(dp495
I0
F11.1716
sI1
Fnan
sI2
Fnan
sI3
Fnan
sI4
Fnan
sI5
Fnan
sI6
Fnan
sI7
Fnan
sI8
Fnan
sI9
Fnan
sI10
Fnan
sI11
Fnan
sI12
Fnan
sI13
Fnan
sI14
Fnan
ssg68
(dp496
I0
g458
sI1
g459
sI2
g460
sI3
g461
sI4
g462
sI5
g463
sI6
g464
sI7
g465
sI8
g466
sI9
g467
sI10
g468
sI11
g469
sI12
g470
sI13
g471
sI14
g472
ssg70
(dp497
I0
F8449.88
sI1
F8992.369999999999
sI2
F8867.42
sI3
F8716.823333333334
sI4
F8790.573333333334
sI5
F8671.68
sI6
F8263.55
sI7
F8843.769999999999
sI8
F8511.036666666667
sI9
F8593.693333333333
sI10
F8913.51
sI11
F6790.509999999999
sI12
F8756.706666666667
sI13
F8535.38
sI14
F8632.51
ssg72
(dp498
I0
F1.14351
sI1
F1.097775
sI2
F1.092847
sI3
F1.198648
sI4
F1.20686
sI5
F1.204101
sI6
F1.141312
sI7
F1.094479
sI8
F1.145657
sI9
F1.137117
sI10
F1.096116
sI11
F1.195973
sI12
F1.091238
sI13
F1.1391959999999999
sI14
F1.201389
ssg74
(dp499
I0
F7254.036666666667
sI1
F7736.786666666667
sI2
F7615.303333333333
sI3
F7587.4366666666665
sI4
F7652.62
sI5
F7494.58
sI6
F7065.5233333333335
sI7
F7594.406666666667
sI8
F7328.283333333334
sI9
F7370.5599999999995
sI10
F7685.163333333333
sI11
F5851.3099999999995
sI12
F7553.96
sI13
F7360.15
sI14
F7413.516666666666
ssg76
(dp500
I0
F11790.406666666668
sI1
F12578.630000000001
sI2
F12378.17
sI3
F12254.656666666668
sI4
F12290.886666666665
sI5
F12139.516666666666
sI6
F11533.703333333333
sI7
F12386.95
sI8
F11960.45
sI9
F12029.636666666665
sI10
F12465.386666666665
sI11
F9585.78
sI12
F12255.0
sI13
F11938.8
sI14
F12055.866666666667
ssg78
(dp501
I0
F31.46913
sI1
F30.68
sI2
F30.4091
sI3
F33.20789
sI4
F33.30367
sI5
F32.90495
sI6
F32.62095
sI7
F30.8778
sI8
F32.60835
sI9
F32.57445
sI10
F29.69831
sI11
F33.39648
sI12
F30.31687
sI13
F32.18626
sI14
F34.18826
ssg80
(dp502
I0
F11.349
sI1
F11.279
sI2
F11.296
sI3
F11.3
sI4
F11.29
sI5
F11.313
sI6
F11.377
sI7
F11.299
sI8
F11.337
sI9
F11.331
sI10
F11.286
sI11
F11.582
sI12
F11.305
sI13
F11.333
sI14
F11.325
ssg82
(dp503
I0
F0.002
sI1
F0.002
sI2
F0.002
sI3
F0.002
sI4
F0.002
sI5
F0.002
sI6
F0.002
sI7
F0.002
sI8
F0.002
sI9
F0.002
sI10
F0.002
sI11
F0.002
sI12
F0.002
sI13
F0.002
sI14
F0.002
ssg84
(dp504
I0
F0.6937613127101379
sI1
Fnan
sI2
Fnan
sI3
Fnan
sI4
Fnan
sI5
Fnan
sI6
Fnan
sI7
Fnan
sI8
Fnan
sI9
Fnan
sI10
Fnan
sI11
Fnan
sI12
Fnan
sI13
Fnan
sI14
Fnan
ssg86
(dp505
I0
F11.333466666666668
sI1
Fnan
sI2
Fnan
sI3
Fnan
sI4
Fnan
sI5
Fnan
sI6
Fnan
sI7
Fnan
sI8
Fnan
sI9
Fnan
sI10
Fnan
sI11
Fnan
sI12
Fnan
sI13
Fnan
sI14
Fnan
ssg88
(dp506
I0
F11.183
sI1
F11.115
sI2
F11.131
sI3
F11.149
sI4
F11.14
sI5
F11.155
sI6
F11.207
sI7
F11.133
sI8
F11.175
sI9
F11.165
sI10
F11.125
sI11
F11.42
sI12
F11.144
sI13
F11.172
sI14
F11.16
ssg90
(dp507
I0
F5.304626
sI1
F4.817308
sI2
F2.262843
sI3
F4.205821
sI4
F-3.335099
sI5
F2.938263
sI6
F-2.215776
sI7
F3.822982
sI8
F3.042148
sI9
F-2.863015
sI10
F3.225655
sI11
F6.022734
sI12
F3.639078
sI13
F3.65771
sI14
F-2.898368
ssg92
(dp508
I0
F0.07074319755283885
sI1
Fnan
sI2
Fnan
sI3
Fnan
sI4
Fnan
sI5
Fnan
sI6
Fnan
sI7
Fnan
sI8
Fnan
sI9
Fnan
sI10
Fnan
sI11
Fnan
sI12
Fnan
sI13
Fnan
sI14
Fnan
ssg94
(dp509
I0
F0.7167918899699378
sI1
F0.7173322207284472
sI2
F0.7168832057225366
sI3
F0.723595727785227
sI4
F0.726004745401884
sI5
F0.720244983509678
sI6
F0.7137882426787824
sI7
F0.7154167797104071
sI8
F0.7159502827184347
sI9
F0.7147788451234597
sI10
F0.7189485456764294
sI11
F0.7146075209952925
sI12
F0.7190239345939217
sI13
F0.7189689648132428
sI14
F0.716684231548375
ssg96
(dp510
I0
F30.0
sI1
F30.0
sI2
F30.0
sI3
F30.0
sI4
F30.0
sI5
F30.0
sI6
F30.0
sI7
F30.0
sI8
F30.0
sI9
F30.0
sI10
F30.0
sI11
F30.0
sI12
F30.0
sI13
F30.0
sI14
F30.0
ssg98
(dp511
I0
F0.002
sI1
F0.002
sI2
F0.002
sI3
F0.002
sI4
F0.002
sI5
F0.002
sI6
F0.002
sI7
F0.002
sI8
F0.002
sI9
F0.002
sI10
F0.002
sI11
F0.003
sI12
F0.002
sI13
F0.002
sI14
F0.002
ssg100
(dp512
I0
F0.002
sI1
F0.002
sI2
F0.002
sI3
F0.002
sI4
F0.002
sI5
F0.002
sI6
F0.002
sI7
F0.002
sI8
F0.002
sI9
F0.002
sI10
F0.002
sI11
F0.002
sI12
F0.002
sI13
F0.002
sI14
F0.002
ssg102
(dp513
I0
F-1.553259
sI1
F4.597384
sI2
F-2.352714
sI3
F-3.486163
sI4
F3.547294
sI5
F4.122027
sI6
F1.364055
sI7
F3.168173
sI8
F3.756996
sI9
F3.770795
sI10
F-3.238737
sI11
F2.78102
sI12
F3.607133
sI13
F-3.497205
sI14
F-3.057935
ssg104
(dp514
I0
S'KIC8462852-20181121at021721_-35-1X1-030-V_cal.fts.mag.1'
p515
sI1
S'KIC8462852-20181121at015119_-35-1X1-030-V_cal.fts.mag.1'
p516
sI2
S'KIC8462852-20181121at014805_-35-1X1-030-V_cal.fts.mag.1'
p517
sI3
S'KIC8462852-20181121at024221_-35-1X1-030-V_cal.fts.mag.1'
p518
sI4
S'KIC8462852-20181121at024538_-35-1X1-030-V_cal.fts.mag.1'
p519
sI5
S'KIC8462852-20181121at024433_-35-1X1-030-V_cal.fts.mag.1'
p520
sI6
S'KIC8462852-20181121at021614_-35-1X1-030-V_cal.fts.mag.1'
p521
sI7
S'KIC8462852-20181121at014910_-35-1X1-030-V_cal.fts.mag.1'
p522
sI8
S'KIC8462852-20181121at021826_-35-1X1-030-V_cal.fts.mag.1'
p523
sI9
S'KIC8462852-20181121at021357_-35-1X1-030-V_cal.fts.mag.1'
p524
sI10
S'KIC8462852-20181121at015015_-35-1X1-030-V_cal.fts.mag.1'
p525
sI11
S'KIC8462852-20181121at024106_-35-1X1-030-V_cal.fts.mag.1'
p526
sI12
S'KIC8462852-20181121at014653_-35-1X1-030-V_cal.fts.mag.1'
p527
sI13
S'KIC8462852-20181121at021509_-35-1X1-030-V_cal.fts.mag.1'
p528
sI14
S'KIC8462852-20181121at024327_-35-1X1-030-V_cal.fts.mag.1'
p529
ssg121
(dp530
I0
F0.004802088173131598
sI1
Fnan
sI2
Fnan
sI3
Fnan
sI4
Fnan
sI5
Fnan
sI6
Fnan
sI7
Fnan
sI8
Fnan
sI9
Fnan
sI10
Fnan
sI11
Fnan
sI12
Fnan
sI13
Fnan
sI14
Fnan
ssg123
(dp531
I0
F6353.183333333333
sI1
F6770.943333333333
sI2
F6681.0233333333335
sI3
F6577.35
sI4
F6665.886666666667
sI5
F6561.3099999999995
sI6
F6216.4400000000005
sI7
F6659.2266666666665
sI8
F6425.233333333334
sI9
F6443.296666666666
sI10
F6733.933333333333
sI11
F5140.326666666666
sI12
F6629.4366666666665
sI13
F6435.933333333333
sI14
F6495.443333333333
ssg125
(dp532
I0
F0.07370100470982832
sI1
Fnan
sI2
Fnan
sI3
Fnan
sI4
Fnan
sI5
Fnan
sI6
Fnan
sI7
Fnan
sI8
Fnan
sI9
Fnan
sI10
Fnan
sI11
Fnan
sI12
Fnan
sI13
Fnan
sI14
Fnan
ssg127
(dp533
I0
g454
sI1
g454
sI2
g454
sI3
g454
sI4
g454
sI5
g454
sI6
g454
sI7
g454
sI8
g454
sI9
g454
sI10
g454
sI11
g454
sI12
g454
sI13
g454
sI14
g454
ssg144
(dp534
I0
F0.001609287940570386
sI1
Fnan
sI2
Fnan
sI3
Fnan
sI4
Fnan
sI5
Fnan
sI6
Fnan
sI7
Fnan
sI8
Fnan
sI9
Fnan
sI10
Fnan
sI11
Fnan
sI12
Fnan
sI13
Fnan
sI14
Fnan
ssg146
(dp535
I0
F3.717986
sI1
F3.049721
sI2
F1.86807
sI3
F-4.815402
sI4
F3.013287
sI5
F2.689042
sI6
F3.287744
sI7
F2.792929
sI8
F2.496555
sI9
F4.998895
sI10
F1.967194
sI11
F4.79951
sI12
F4.382262
sI13
F4.412688
sI14
F4.355655
ssg148
(dp536
I0
F1.5041724169289326
sI1
Fnan
sI2
Fnan
sI3
Fnan
sI4
Fnan
sI5
Fnan
sI6
Fnan
sI7
Fnan
sI8
Fnan
sI9
Fnan
sI10
Fnan
sI11
Fnan
sI12
Fnan
sI13
Fnan
sI14
Fnan
ssg150
(dp537
I0
F2458443.5946064815
sI1
Fnan
sI2
Fnan
sI3
Fnan
sI4
Fnan
sI5
Fnan
sI6
Fnan
sI7
Fnan
sI8
Fnan
sI9
Fnan
sI10
Fnan
sI11
Fnan
sI12
Fnan
sI13
Fnan
sI14
Fnan
ssg152
(dp538
I0
F0.001609287940570386
sI1
Fnan
sI2
Fnan
sI3
Fnan
sI4
Fnan
sI5
Fnan
sI6
Fnan
sI7
Fnan
sI8
Fnan
sI9
Fnan
sI10
Fnan
sI11
Fnan
sI12
Fnan
sI13
Fnan
sI14
Fnan
ssg154
(dp539
I0
F33.54155
sI1
F30.22449
sI2
F31.51208
sI3
F34.34025
sI4
F35.23333
sI5
F34.81023
sI6
F34.89443
sI7
F30.62029
sI8
F32.21626
sI9
F33.79173
sI10
F31.28663
sI11
F34.94504
sI12
F30.85678
sI13
F32.89163
sI14
F35.26156
ssg156
(dp540
I0
F10.821
sI1
F10.751
sI2
F10.768
sI3
F10.779
sI4
F10.776
sI5
F10.789
sI6
F10.845
sI7
F10.768
sI8
F10.806
sI9
F10.799
sI10
F10.761
sI11
F11.046
sI12
F10.779
sI13
F10.808
sI14
F10.797
ssg158
(dp541
I0
F0.6937613127101379
sI1
Fnan
sI2
Fnan
sI3
Fnan
sI4
Fnan
sI5
Fnan
sI6
Fnan
sI7
Fnan
sI8
Fnan
sI9
Fnan
sI10
Fnan
sI11
Fnan
sI12
Fnan
sI13
Fnan
sI14
Fnan
sss.