(dp0
S'i'
p1
(dp2
S'sigmean'
p3
(dp4
I0
F0.43708318174664534
sI1
Fnan
sI2
Fnan
sI3
Fnan
sI4
Fnan
sI5
Fnan
sI6
Fnan
sI7
Fnan
sI8
Fnan
sI9
Fnan
sI10
Fnan
sI11
Fnan
sI12
Fnan
sI13
Fnan
sI14
Fnan
ssS'ref3flag'
p5
(dp6
I0
S'NoError'
p7
sI1
S'NoError'
p8
sI2
S'NoError'
p9
sI3
S'NoError'
p10
sI4
S'NoError'
p11
sI5
S'NoError'
p12
sI6
S'NoError'
p13
sI7
S'NoError'
p14
sI8
S'NoError'
p15
sI9
S'NoError'
p16
sI10
S'NoError'
p17
sI11
S'NoError'
p18
sI12
S'NoError'
p19
sI13
S'NoError'
p20
sI14
S'NoError'
p21
ssS'tabbyerr'
p22
(dp23
I0
F0.003
sI1
F0.003
sI2
F0.003
sI3
F0.003
sI4
F0.003
sI5
F0.003
sI6
F0.003
sI7
F0.003
sI8
F0.003
sI9
F0.003
sI10
F0.003
sI11
F0.003
sI12
F0.003
sI13
F0.003
sI14
F0.003
ssS'ref2rel'
p24
(dp25
I0
F0.9110604231017684
sI1
F0.9053290617615777
sI2
F0.9118820886809292
sI3
F0.9090632282351473
sI4
F0.9139021218519854
sI5
F0.9091719101684451
sI6
F0.9132115003805944
sI7
F0.9162769160742522
sI8
F0.9092535621708675
sI9
F0.9125145064738265
sI10
F0.9118927813944644
sI11
F0.9101196423659901
sI12
F0.9131824103475668
sI13
F0.9072985438173717
sI14
F0.9130760945142015
ssS'ref2err'
p26
(dp27
I0
F0.0028100575638342145
sI1
Fnan
sI2
Fnan
sI3
Fnan
sI4
Fnan
sI5
Fnan
sI6
Fnan
sI7
Fnan
sI8
Fnan
sI9
Fnan
sI10
Fnan
sI11
Fnan
sI12
Fnan
sI13
Fnan
sI14
Fnan
ssS'ref2mean'
p28
(dp29
I0
F0.9111489860892658
sI1
Fnan
sI2
Fnan
sI3
Fnan
sI4
Fnan
sI5
Fnan
sI6
Fnan
sI7
Fnan
sI8
Fnan
sI9
Fnan
sI10
Fnan
sI11
Fnan
sI12
Fnan
sI13
Fnan
sI14
Fnan
ssS'tabbymag'
p30
(dp31
I0
F11.921
sI1
F11.947
sI2
F11.94
sI3
F11.899
sI4
F11.895
sI5
F11.906
sI6
F11.915
sI7
F11.91
sI8
F11.912
sI9
F11.944
sI10
F11.901
sI11
F11.904
sI12
F11.951
sI13
F11.948
sI14
F11.885
ssS'tabbybkg'
p32
(dp33
I0
F11.32575
sI1
F11.56979
sI2
F11.62216
sI3
F10.95039
sI4
F11.2005
sI5
F11.39618
sI6
F10.7928
sI7
F10.75012
sI8
F11.58358
sI9
F11.70353
sI10
F9.900543
sI11
F11.37315
sI12
F12.51034
sI13
F12.4389
sI14
F9.929476
ssS'JD'
p34
(dp35
I0
F2458340.742199074
sI1
F2458340.72275463
sI2
F2458340.704814815
sI3
F2458340.7256712965
sI4
F2458340.7062847223
sI5
F2458340.7414699076
sI6
F2458340.7249421296
sI7
F2458340.7070254628
sI8
F2458340.723483796
sI9
F2458340.742939815
sI10
F2458340.7055439814
sI11
F2458340.724212963
sI12
F2458340.7444097223
sI13
F2458340.7436805554
sI14
F2458340.704085648
ssS'ref3rmsmean'
p36
(dp37
I0
F2.544041733333333
sI1
Fnan
sI2
Fnan
sI3
Fnan
sI4
Fnan
sI5
Fnan
sI6
Fnan
sI7
Fnan
sI8
Fnan
sI9
Fnan
sI10
Fnan
sI11
Fnan
sI12
Fnan
sI13
Fnan
sI14
Fnan
ssS'ref1rmsmean'
p38
(dp39
I0
F0.6846992666666668
sI1
Fnan
sI2
Fnan
sI3
Fnan
sI4
Fnan
sI5
Fnan
sI6
Fnan
sI7
Fnan
sI8
Fnan
sI9
Fnan
sI10
Fnan
sI11
Fnan
sI12
Fnan
sI13
Fnan
sI14
Fnan
ssS'relflux'
p40
(dp41
I0
F0.4382061501085073
sI1
F0.4339631218845127
sI2
F0.43527253647669967
sI3
F0.43982581518992103
sI4
F0.4358191023694867
sI5
F0.43666944774940214
sI6
F0.43755244687322337
sI7
F0.43769446794021366
sI8
F0.4368178846872803
sI9
F0.43573641719851325
sI10
F0.43892503936521865
sI11
F0.4373716019581896
sI12
F0.4375832692396599
sI13
F0.43588350086442096
sI14
F0.4385494978755745
ssS'sigerr'
p42
(dp43
I0
F0.0011129183738870715
sI1
Fnan
sI2
Fnan
sI3
Fnan
sI4
Fnan
sI5
Fnan
sI6
Fnan
sI7
Fnan
sI8
Fnan
sI9
Fnan
sI10
Fnan
sI11
Fnan
sI12
Fnan
sI13
Fnan
sI14
Fnan
ssS'tabbyrmsmean'
p44
(dp45
I0
F0.8870995333333335
sI1
Fnan
sI2
Fnan
sI3
Fnan
sI4
Fnan
sI5
Fnan
sI6
Fnan
sI7
Fnan
sI8
Fnan
sI9
Fnan
sI10
Fnan
sI11
Fnan
sI12
Fnan
sI13
Fnan
sI14
Fnan
ssS'tabbyflag'
p46
(dp47
I0
g7
sI1
g8
sI2
g9
sI3
g10
sI4
g11
sI5
g12
sI6
g13
sI7
g14
sI8
g15
sI9
g16
sI10
g17
sI11
g18
sI12
g19
sI13
g20
sI14
g21
ssS'ref1err'
p48
(dp49
I0
F0.0022680634091910763
sI1
Fnan
sI2
Fnan
sI3
Fnan
sI4
Fnan
sI5
Fnan
sI6
Fnan
sI7
Fnan
sI8
Fnan
sI9
Fnan
sI10
Fnan
sI11
Fnan
sI12
Fnan
sI13
Fnan
sI14
Fnan
ssS'ref2magmeanerr'
p50
(dp51
I0
F0.020398879521049285
sI1
Fnan
sI2
Fnan
sI3
Fnan
sI4
Fnan
sI5
Fnan
sI6
Fnan
sI7
Fnan
sI8
Fnan
sI9
Fnan
sI10
Fnan
sI11
Fnan
sI12
Fnan
sI13
Fnan
sI14
Fnan
ssS'ref2rmsmean'
p52
(dp53
I0
F0.6560847999999999
sI1
Fnan
sI2
Fnan
sI3
Fnan
sI4
Fnan
sI5
Fnan
sI6
Fnan
sI7
Fnan
sI8
Fnan
sI9
Fnan
sI10
Fnan
sI11
Fnan
sI12
Fnan
sI13
Fnan
sI14
Fnan
ssS'ref3rel'
p54
(dp55
I0
F1.498660749637979
sI1
F1.5117285765194273
sI2
F1.502852423366611
sI3
F1.499224727637281
sI4
F1.497897631947648
sI5
F1.4977134868987578
sI6
F1.4988200538681367
sI7
F1.5029337009773753
sI8
F1.4998835811653812
sI9
F1.4964112724382534
sI10
F1.5003912079774333
sI11
F1.505224837067916
sI12
F1.497796621070481
sI13
F1.5039733342325934
sI14
F1.4973905144777522
ssS'ref1flag'
p56
(dp57
I0
g7
sI1
g8
sI2
g9
sI3
g10
sI4
g11
sI5
g12
sI6
g13
sI7
g14
sI8
g15
sI9
g16
sI10
g17
sI11
g18
sI12
g19
sI13
g20
sI14
g21
ssS'ref2bkg'
p58
(dp59
I0
F13.5611
sI1
F14.31925
sI2
F14.96806
sI3
F13.1115
sI4
F12.08102
sI5
F12.80046
sI6
F13.23585
sI7
F14.03714
sI8
F12.96275
sI9
F13.88688
sI10
F12.64704
sI11
F12.78794
sI12
F14.91137
sI13
F14.30627
sI14
F12.522
ssS'ref3magmean'
p60
(dp61
I0
F10.746866666666667
sI1
Fnan
sI2
Fnan
sI3
Fnan
sI4
Fnan
sI5
Fnan
sI6
Fnan
sI7
Fnan
sI8
Fnan
sI9
Fnan
sI10
Fnan
sI11
Fnan
sI12
Fnan
sI13
Fnan
sI14
Fnan
ssS'ref1mean'
p62
(dp63
I0
F0.69660139894808
sI1
Fnan
sI2
Fnan
sI3
Fnan
sI4
Fnan
sI5
Fnan
sI6
Fnan
sI7
Fnan
sI8
Fnan
sI9
Fnan
sI10
Fnan
sI11
Fnan
sI12
Fnan
sI13
Fnan
sI14
Fnan
ssS'ref1rms'
p64
(dp65
I0
F3.245234
sI1
F1.976311
sI2
F4.376042
sI3
F-4.139747
sI4
F1.922907
sI5
F3.640205
sI6
F4.43436
sI7
F-4.594139
sI8
F-2.60906
sI9
F-2.622803
sI10
F-2.72588
sI11
F3.913716
sI12
F-3.543188
sI13
F3.423567
sI14
F3.572964
ssS'ref2magmean'
p66
(dp67
I0
F11.0884
sI1
Fnan
sI2
Fnan
sI3
Fnan
sI4
Fnan
sI5
Fnan
sI6
Fnan
sI7
Fnan
sI8
Fnan
sI9
Fnan
sI10
Fnan
sI11
Fnan
sI12
Fnan
sI13
Fnan
sI14
Fnan
ssS'ref2flag'
p68
(dp69
I0
g7
sI1
g8
sI2
g9
sI3
g10
sI4
g11
sI5
g12
sI6
g13
sI7
g14
sI8
g15
sI9
g16
sI10
g17
sI11
g18
sI12
g19
sI13
g20
sI14
g21
ssS'ref2'
p70
(dp71
I0
F9172.006666666666
sI1
F9002.390000000001
sI2
F9078.04
sI3
F9314.863333333335
sI4
F9464.126666666667
sI5
F9319.483333333334
sI6
F9251.823333333334
sI7
F9313.606666666667
sI8
F9262.693333333333
sI9
F9043.753333333332
sI10
F9335.526666666667
sI11
F9325.803333333333
sI12
F8950.056666666667
sI13
F8971.43
sI14
F9485.676666666666
ssS'airmass'
p72
(dp73
I0
F1.013015
sI1
F1.029392
sI2
F1.0527229999999999
sI3
F1.026362
sI4
F1.050489
sI5
F1.0134729999999998
sI6
F1.027104
sI7
F1.049405
sI8
F1.028616
sI9
F1.012565
sI10
F1.0515940000000001
sI11
F1.027857
sI12
F1.011707
sI13
F1.012132
sI14
F1.053851
ssS'ref1'
p74
(dp75
I0
F7581.1466666666665
sI1
F7451.013333333333
sI2
F7473.383333333333
sI3
F7722.16
sI4
F7789.433333333333
sI5
F7731.953333333334
sI6
F7619.003333333333
sI7
F7610.9766666666665
sI8
F7673.283333333334
sI9
F7467.67
sI10
F7697.1866666666665
sI11
F7688.443333333333
sI12
F7375.626666666666
sI13
F7437.123333333334
sI14
F7820.416666666667
ssS'ref3'
p76
(dp77
I0
F12553.646666666667
sI1
F12436.54
sI2
F12437.173333333334
sI3
F12771.163333333334
sI4
F12922.033333333333
sI5
F12769.083333333334
sI6
F12643.166666666666
sI7
F12718.263333333334
sI8
F12700.996666666668
sI9
F12353.94
sI10
F12777.866666666667
sI11
F12805.133333333333
sI12
F12226.276666666667
sI13
F12339.013333333334
sI14
F12956.99
ssS'ref1bkg'
p78
(dp79
I0
F12.09836
sI1
F13.3913
sI2
F12.73052
sI3
F13.29826
sI4
F12.49914
sI5
F11.9559
sI6
F12.45375
sI7
F12.8459
sI8
F12.11562
sI9
F13.57888
sI10
F12.3957
sI11
F12.3591
sI12
F15.80183
sI13
F13.78991
sI14
F11.75991
ssS'ref1mag'
p80
(dp81
I0
F11.301
sI1
F11.319
sI2
F11.316
sI3
F11.281
sI4
F11.271
sI5
F11.279
sI6
F11.295
sI7
F11.296
sI8
F11.288
sI9
F11.317
sI10
F11.284
sI11
F11.285
sI12
F11.331
sI13
F11.321
sI14
F11.267
ssS'ref3magerr'
p82
(dp83
I0
F0.002
sI1
F0.002
sI2
F0.002
sI3
F0.002
sI4
F0.002
sI5
F0.002
sI6
F0.002
sI7
F0.002
sI8
F0.002
sI9
F0.002
sI10
F0.002
sI11
F0.002
sI12
F0.002
sI13
F0.002
sI14
F0.002
ssS'tabbymagmean'
p84
(dp85
I0
F0.43705801998538824
sI1
Fnan
sI2
Fnan
sI3
Fnan
sI4
Fnan
sI5
Fnan
sI6
Fnan
sI7
Fnan
sI8
Fnan
sI9
Fnan
sI10
Fnan
sI11
Fnan
sI12
Fnan
sI13
Fnan
sI14
Fnan
ssS'ref1magmean'
p86
(dp87
I0
F11.296733333333332
sI1
Fnan
sI2
Fnan
sI3
Fnan
sI4
Fnan
sI5
Fnan
sI6
Fnan
sI7
Fnan
sI8
Fnan
sI9
Fnan
sI10
Fnan
sI11
Fnan
sI12
Fnan
sI13
Fnan
sI14
Fnan
ssS'ref2mag'
p88
(dp89
I0
F11.094
sI1
F11.114
sI2
F11.105
sI3
F11.077
sI4
F11.06
sI5
F11.077
sI6
F11.084
sI7
F11.077
sI8
F11.083
sI9
F11.109
sI10
F11.075
sI11
F11.076
sI12
F11.12
sI13
F11.118
sI14
F11.057
ssS'ref3rms'
p90
(dp91
I0
F-2.233029
sI1
F3.989267
sI2
F4.664681
sI3
F3.35739
sI4
F2.030855
sI5
F1.974459
sI6
F3.554974
sI7
F3.704423
sI8
F3.58703
sI9
F4.890948
sI10
F-2.046755
sI11
F-3.008806
sI12
F5.149462
sI13
F5.056172
sI14
F3.489555
ssS'ref3magmeanerr'
p92
(dp93
I0
F0.019197718118369844
sI1
Fnan
sI2
Fnan
sI3
Fnan
sI4
Fnan
sI5
Fnan
sI6
Fnan
sI7
Fnan
sI8
Fnan
sI9
Fnan
sI10
Fnan
sI11
Fnan
sI12
Fnan
sI13
Fnan
sI14
Fnan
ssS'ref1rel'
p94
(dp95
I0
F0.6978981529669379
sI1
F0.6950919036848698
sI2
F0.6947068771802402
sI3
F0.6992801481721173
sI4
F0.6959150951599857
sI5
F0.7000864700742617
sI6
F0.6959586036196713
sI7
F0.6909060979995494
sI8
F0.6987244250245139
sI9
F0.6979883189901467
sI10
F0.6961560851960304
sI11
F0.6948140920681019
sI12
F0.696591477907727
sI13
F0.6979792223937777
sI14
F0.6969240137832701
ssS'exposure'
p96
(dp97
I0
F30.0
sI1
F30.0
sI2
F30.0
sI3
F30.0
sI4
F30.0
sI5
F30.0
sI6
F30.0
sI7
F30.0
sI8
F30.0
sI9
F30.0
sI10
F30.0
sI11
F30.0
sI12
F30.0
sI13
F30.0
sI14
F30.0
ssS'ref1magerr'
p98
(dp99
I0
F0.002
sI1
F0.002
sI2
F0.002
sI3
F0.002
sI4
F0.002
sI5
F0.002
sI6
F0.002
sI7
F0.002
sI8
F0.002
sI9
F0.002
sI10
F0.002
sI11
F0.002
sI12
F0.002
sI13
F0.002
sI14
F0.002
ssS'ref2magerr'
p100
(dp101
I0
F0.002
sI1
F0.002
sI2
F0.002
sI3
F0.002
sI4
F0.002
sI5
F0.002
sI6
F0.002
sI7
F0.002
sI8
F0.002
sI9
F0.002
sI10
F0.002
sI11
F0.002
sI12
F0.002
sI13
F0.002
sI14
F0.002
ssS'ref2rms'
p102
(dp103
I0
F2.607912
sI1
F-2.381819
sI2
F2.77937
sI3
F-3.176211
sI4
F4.383882
sI5
F1.576359
sI6
F-1.76766
sI7
F-3.016668
sI8
F4.866582
sI9
F-1.822748
sI10
F4.779859
sI11
F4.906868
sI12
F3.488946
sI13
F-3.568875
sI14
F-3.814525
ssS'name'
p104
(dp105
I0
S"KIC8462852-20180810at054846_-25-1X1-030-i'_cal.fts.mag.1"
p106
sI1
S"KIC8462852-20180810at052044_-25-1X1-030-i'_cal.fts.mag.1"
p107
sI2
S"KIC8462852-20180810at045456_-25-1X1-030-i'_cal.fts.mag.1"
p108
sI3
S"KIC8462852-20180810at052458_-25-1X1-030-i'_cal.fts.mag.1"
p109
sI4
S"KIC8462852-20180810at045703_-25-1X1-030-i'_cal.fts.mag.1"
p110
sI5
S"KIC8462852-20180810at054741_-25-1X1-030-i'_cal.fts.mag.1"
p111
sI6
S"KIC8462852-20180810at052355_-25-1X1-030-i'_cal.fts.mag.1"
p112
sI7
S"KIC8462852-20180810at045807_-25-1X1-030-i'_cal.fts.mag.1"
p113
sI8
S"KIC8462852-20180810at052149_-25-1X1-030-i'_cal.fts.mag.1"
p114
sI9
S"KIC8462852-20180810at054950_-25-1X1-030-i'_cal.fts.mag.1"
p115
sI10
S"KIC8462852-20180810at045559_-25-1X1-030-i'_cal.fts.mag.1"
p116
sI11
S"KIC8462852-20180810at052252_-25-1X1-030-i'_cal.fts.mag.1"
p117
sI12
S"KIC8462852-20180810at055157_-25-1X1-030-i'_cal.fts.mag.1"
p118
sI13
S"KIC8462852-20180810at055054_-25-1X1-030-i'_cal.fts.mag.1"
p119
sI14
S"KIC8462852-20180810at045352_-25-1X1-030-i'_cal.fts.mag.1"
p120
ssS'ref3err'
p121
(dp122
I0
F0.004032094253383117
sI1
Fnan
sI2
Fnan
sI3
Fnan
sI4
Fnan
sI5
Fnan
sI6
Fnan
sI7
Fnan
sI8
Fnan
sI9
Fnan
sI10
Fnan
sI11
Fnan
sI12
Fnan
sI13
Fnan
sI14
Fnan
ssS'tabby'
p123
(dp124
I0
F4280.806666666666
sI1
F4179.056666666666
sI2
F4205.98
sI3
F4370.136666666667
sI4
F4383.7
sI5
F4340.570000000001
sI6
F4304.64
sI7
F4324.836666666667
sI8
F4315.320000000001
sI9
F4192.5633333333335
sI10
F4361.536666666667
sI11
F4347.383333333333
sI12
F4164.62
sI13
F4176.863333333333
sI14
F4423.953333333334
ssS'ref1magmeanerr'
p125
(dp126
I0
F0.019905012529750448
sI1
Fnan
sI2
Fnan
sI3
Fnan
sI4
Fnan
sI5
Fnan
sI6
Fnan
sI7
Fnan
sI8
Fnan
sI9
Fnan
sI10
Fnan
sI11
Fnan
sI12
Fnan
sI13
Fnan
sI14
Fnan
ssS'filter'
p127
(dp128
I0
S"i'"
p129
sI1
S"i'"
p130
sI2
S"i'"
p131
sI3
S"i'"
p132
sI4
S"i'"
p133
sI5
S"i'"
p134
sI6
S"i'"
p135
sI7
S"i'"
p136
sI8
S"i'"
p137
sI9
S"i'"
p138
sI10
S"i'"
p139
sI11
S"i'"
p140
sI12
S"i'"
p141
sI13
S"i'"
p142
sI14
S"i'"
p143
ssS'tabbymagerr'
p144
(dp145
I0
F0.0015433949134522258
sI1
Fnan
sI2
Fnan
sI3
Fnan
sI4
Fnan
sI5
Fnan
sI6
Fnan
sI7
Fnan
sI8
Fnan
sI9
Fnan
sI10
Fnan
sI11
Fnan
sI12
Fnan
sI13
Fnan
sI14
Fnan
ssS'tabbyrms'
p146
(dp147
I0
F-1.935324
sI1
F3.019512
sI2
F3.699288
sI3
F-3.313935
sI4
F3.010376
sI5
F-2.864747
sI6
F2.874753
sI7
F3.553345
sI8
F-2.661963
sI9
F2.523612
sI10
F4.547364
sI11
F2.709714
sI12
F-2.006174
sI13
F-3.537991
sI14
F3.688663
ssS'ref3mean'
p148
(dp149
I0
F1.500726847952202
sI1
Fnan
sI2
Fnan
sI3
Fnan
sI4
Fnan
sI5
Fnan
sI6
Fnan
sI7
Fnan
sI8
Fnan
sI9
Fnan
sI10
Fnan
sI11
Fnan
sI12
Fnan
sI13
Fnan
sI14
Fnan
ssS'median_JD'
p150
(dp151
I0
F2458340.724212963
sI1
Fnan
sI2
Fnan
sI3
Fnan
sI4
Fnan
sI5
Fnan
sI6
Fnan
sI7
Fnan
sI8
Fnan
sI9
Fnan
sI10
Fnan
sI11
Fnan
sI12
Fnan
sI13
Fnan
sI14
Fnan
ssS'error'
p152
(dp153
I0
F0.0015433949134522258
sI1
Fnan
sI2
Fnan
sI3
Fnan
sI4
Fnan
sI5
Fnan
sI6
Fnan
sI7
Fnan
sI8
Fnan
sI9
Fnan
sI10
Fnan
sI11
Fnan
sI12
Fnan
sI13
Fnan
sI14
Fnan
ssS'ref3bkg'
p154
(dp155
I0
F16.00457
sI1
F16.45889
sI2
F15.86075
sI3
F14.33961
sI4
F15.01564
sI5
F14.3763
sI6
F14.46931
sI7
F14.70469
sI8
F14.26187
sI9
F15.38004
sI10
F15.42741
sI11
F15.5025
sI12
F16.55323
sI13
F16.48935
sI14
F14.17922
ssS'ref3mag'
p156
(dp157
I0
F10.753
sI1
F10.763
sI2
F10.763
sI3
F10.734
sI4
F10.722
sI5
F10.735
sI6
F10.745
sI7
F10.739
sI8
F10.74
sI9
F10.77
sI10
F10.734
sI11
F10.732
sI12
F10.782
sI13
F10.772
sI14
F10.719
ssS'mean'
p158
(dp159
I0
F0.43705801998538824
sI1
Fnan
sI2
Fnan
sI3
Fnan
sI4
Fnan
sI5
Fnan
sI6
Fnan
sI7
Fnan
sI8
Fnan
sI9
Fnan
sI10
Fnan
sI11
Fnan
sI12
Fnan
sI13
Fnan
sI14
Fnan
sssS'r'
p160
(dp161
g3
(dp162
I0
F0.5463983129610283
sI1
Fnan
sI2
Fnan
sI3
Fnan
sI4
Fnan
sI5
Fnan
sI6
Fnan
sI7
Fnan
sI8
Fnan
sI9
Fnan
sI10
Fnan
sI11
Fnan
sI12
Fnan
sI13
Fnan
sI14
Fnan
ssg5
(dp163
I0
S'NoError'
p164
sI1
S'NoError'
p165
sI2
S'NoError'
p166
sI3
S'NoError'
p167
sI4
S'NoError'
p168
sI5
S'NoError'
p169
sI6
S'NoError'
p170
sI7
S'NoError'
p171
sI8
S'NoError'
p172
sI9
S'NoError'
p173
sI10
S'NoError'
p174
sI11
S'NoError'
p175
sI12
S'NoError'
p176
sI13
S'NoError'
p177
sI14
S'NoError'
p178
ssg22
(dp179
I0
F0.002
sI1
F0.002
sI2
F0.002
sI3
F0.002
sI4
F0.002
sI5
F0.002
sI6
F0.002
sI7
F0.002
sI8
F0.002
sI9
F0.002
sI10
F0.002
sI11
F0.002
sI12
F0.002
sI13
F0.002
sI14
F0.002
ssg24
(dp180
I0
F0.8928487374122136
sI1
F0.895208110706393
sI2
F0.8955218272736917
sI3
F0.891916550302298
sI4
F0.894538065506708
sI5
F0.8978035153623786
sI6
F0.8952670318517951
sI7
F0.8981949633869999
sI8
F0.8939545796555043
sI9
F0.8923813818611704
sI10
F0.8970986284041178
sI11
F0.8947190662704868
sI12
F0.8969466127872052
sI13
F0.8964700577884234
sI14
F0.8916485143813259
ssg26
(dp181
I0
F0.0021112611484063733
sI1
Fnan
sI2
Fnan
sI3
Fnan
sI4
Fnan
sI5
Fnan
sI6
Fnan
sI7
Fnan
sI8
Fnan
sI9
Fnan
sI10
Fnan
sI11
Fnan
sI12
Fnan
sI13
Fnan
sI14
Fnan
ssg28
(dp182
I0
F0.8949678428633807
sI1
Fnan
sI2
Fnan
sI3
Fnan
sI4
Fnan
sI5
Fnan
sI6
Fnan
sI7
Fnan
sI8
Fnan
sI9
Fnan
sI10
Fnan
sI11
Fnan
sI12
Fnan
sI13
Fnan
sI14
Fnan
ssg30
(dp183
I0
F11.271
sI1
F11.237
sI2
F11.227
sI3
F11.246
sI4
F11.265
sI5
F11.231
sI6
F11.258
sI7
F11.278
sI8
F11.225
sI9
F11.233
sI10
F11.252
sI11
F11.247
sI12
F11.243
sI13
F11.239
sI14
F11.233
ssg32
(dp184
I0
F13.28822
sI1
F11.77622
sI2
F11.38768
sI3
F11.3999
sI4
F13.06611
sI5
F11.81182
sI6
F12.31976
sI7
F13.22429
sI8
F12.21945
sI9
F12.00183
sI10
F12.22949
sI11
F12.25999
sI12
F12.72023
sI13
F12.10012
sI14
F12.15862
ssg34
(dp185
I0
F2458340.7385069444
sI1
F2458340.7205439815
sI2
F2458340.7004050924
sI3
F2458340.722002315
sI4
F2458340.721261574
sI5
F2458340.719085648
sI6
F2458340.7399768517
sI7
F2458340.701875
sI8
F2458340.7033449076
sI9
F2458340.7025925927
sI10
F2458340.7407060186
sI11
F2458340.7392361113
sI12
F2458340.7011226853
sI13
F2458340.737777778
sI14
F2458340.7198148146
ssg36
(dp186
I0
F3.1745370000000004
sI1
Fnan
sI2
Fnan
sI3
Fnan
sI4
Fnan
sI5
Fnan
sI6
Fnan
sI7
Fnan
sI8
Fnan
sI9
Fnan
sI10
Fnan
sI11
Fnan
sI12
Fnan
sI13
Fnan
sI14
Fnan
ssg38
(dp187
I0
F2.515115133333333
sI1
Fnan
sI2
Fnan
sI3
Fnan
sI4
Fnan
sI5
Fnan
sI6
Fnan
sI7
Fnan
sI8
Fnan
sI9
Fnan
sI10
Fnan
sI11
Fnan
sI12
Fnan
sI13
Fnan
sI14
Fnan
ssg40
(dp188
I0
F0.5451841105075853
sI1
F0.5471833015818923
sI2
F0.5478537858866829
sI3
F0.5457192480355304
sI4
F0.5448934331289754
sI5
F0.5482582555587312
sI6
F0.5477187221100139
sI7
F0.5455083802471031
sI8
F0.5455636478472425
sI9
F0.5476946052739337
sI10
F0.5474586533325967
sI11
F0.5458529805756389
sI12
F0.546835429184065
sI13
F0.5462828143255026
sI14
F0.5458272694176326
ssg42
(dp189
I0
F0.0009928098361523326
sI1
Fnan
sI2
Fnan
sI3
Fnan
sI4
Fnan
sI5
Fnan
sI6
Fnan
sI7
Fnan
sI8
Fnan
sI9
Fnan
sI10
Fnan
sI11
Fnan
sI12
Fnan
sI13
Fnan
sI14
Fnan
ssg44
(dp190
I0
F2.4837721999999998
sI1
Fnan
sI2
Fnan
sI3
Fnan
sI4
Fnan
sI5
Fnan
sI6
Fnan
sI7
Fnan
sI8
Fnan
sI9
Fnan
sI10
Fnan
sI11
Fnan
sI12
Fnan
sI13
Fnan
sI14
Fnan
ssg46
(dp191
I0
g164
sI1
g165
sI2
g166
sI3
g167
sI4
g168
sI5
g169
sI6
g170
sI7
g171
sI8
g172
sI9
g173
sI10
g174
sI11
g175
sI12
g176
sI13
g177
sI14
g178
ssg48
(dp192
I0
F0.0019076608069278692
sI1
Fnan
sI2
Fnan
sI3
Fnan
sI4
Fnan
sI5
Fnan
sI6
Fnan
sI7
Fnan
sI8
Fnan
sI9
Fnan
sI10
Fnan
sI11
Fnan
sI12
Fnan
sI13
Fnan
sI14
Fnan
ssg50
(dp193
I0
F0.015263713584215187
sI1
Fnan
sI2
Fnan
sI3
Fnan
sI4
Fnan
sI5
Fnan
sI6
Fnan
sI7
Fnan
sI8
Fnan
sI9
Fnan
sI10
Fnan
sI11
Fnan
sI12
Fnan
sI13
Fnan
sI14
Fnan
ssg52
(dp194
I0
F1.86549594
sI1
Fnan
sI2
Fnan
sI3
Fnan
sI4
Fnan
sI5
Fnan
sI6
Fnan
sI7
Fnan
sI8
Fnan
sI9
Fnan
sI10
Fnan
sI11
Fnan
sI12
Fnan
sI13
Fnan
sI14
Fnan
ssg54
(dp195
I0
F1.4964792245024774
sI1
F1.4965261450373104
sI2
F1.4981330808161313
sI3
F1.5034025843809744
sI4
F1.4981591473171452
sI5
F1.4969338603136717
sI6
F1.500387565913213
sI7
F1.4966542162408079
sI8
F1.4958552878911182
sI9
F1.5003998434677825
sI10
F1.4952829714229003
sI11
F1.4920803512712792
sI12
F1.5007387446210534
sI13
F1.496642917860587
sI14
F1.5036499963858816
ssg56
(dp196
I0
g164
sI1
g165
sI2
g166
sI3
g167
sI4
g168
sI5
g169
sI6
g170
sI7
g171
sI8
g172
sI9
g173
sI10
g174
sI11
g175
sI12
g176
sI13
g177
sI14
g178
ssg58
(dp197
I0
F16.73615
sI1
F14.22017
sI2
F14.25253
sI3
F15.23629
sI4
F15.49362
sI5
F12.89871
sI6
F16.44781
sI7
F16.08288
sI8
F13.57395
sI9
F13.56663
sI10
F15.33029
sI11
F15.32221
sI12
F14.74052
sI13
F15.4468
sI14
F13.29363
ssg60
(dp198
I0
F10.317533333333333
sI1
Fnan
sI2
Fnan
sI3
Fnan
sI4
Fnan
sI5
Fnan
sI6
Fnan
sI7
Fnan
sI8
Fnan
sI9
Fnan
sI10
Fnan
sI11
Fnan
sI12
Fnan
sI13
Fnan
sI14
Fnan
ssg62
(dp199
I0
F0.7122171201528765
sI1
Fnan
sI2
Fnan
sI3
Fnan
sI4
Fnan
sI5
Fnan
sI6
Fnan
sI7
Fnan
sI8
Fnan
sI9
Fnan
sI10
Fnan
sI11
Fnan
sI12
Fnan
sI13
Fnan
sI14
Fnan
ssg64
(dp200
I0
F-3.305828
sI1
F-3.078337
sI2
F3.558163
sI3
F2.646405
sI4
F4.465284
sI5
F3.484893
sI6
F2.758781
sI7
F3.051471
sI8
F4.080616
sI9
F2.285868
sI10
F4.23549
sI11
F1.847484
sI12
F4.166973
sI13
F3.286501
sI14
F4.242963
ssg66
(dp201
I0
F10.671466666666667
sI1
Fnan
sI2
Fnan
sI3
Fnan
sI4
Fnan
sI5
Fnan
sI6
Fnan
sI7
Fnan
sI8
Fnan
sI9
Fnan
sI10
Fnan
sI11
Fnan
sI12
Fnan
sI13
Fnan
sI14
Fnan
ssg68
(dp202
I0
g164
sI1
g165
sI2
g166
sI3
g167
sI4
g168
sI5
g169
sI6
g170
sI7
g171
sI8
g172
sI9
g173
sI10
g174
sI11
g175
sI12
g176
sI13
g177
sI14
g178
ssg70
(dp203
I0
F13233.573333333334
sI1
F13634.086666666666
sI2
F13744.503333333332
sI3
F13513.573333333334
sI4
F13330.119999999999
sI5
F13705.65
sI6
F13358.730000000001
sI7
F13188.269999999999
sI8
F13811.71
sI9
F13637.736666666666
sI10
F13450.633333333333
sI11
F13532.633333333333
sI12
F13579.003333333332
sI13
F13639.519999999999
sI14
F13675.953333333333
ssg72
(dp204
I0
F1.0154450000000002
sI1
F1.031836
sI2
F1.059762
sI3
F1.0302069999999999
sI4
F1.031012
sI5
F1.033508
sI6
F1.014443
sI7
F1.0573629999999998
sI8
F1.055016
sI9
F1.056175
sI10
F1.013952
sI11
F1.014937
sI12
F1.058548
sI13
F1.0159610000000001
sI14
F1.032664
ssg74
(dp205
I0
F11292.273333333334
sI1
F11587.653333333332
sI2
F11663.666666666666
sI3
F11499.766666666666
sI4
F11330.553333333333
sI5
F11594.893333333333
sI6
F11325.243333333334
sI7
F11151.816666666668
sI8
F11768.273333333334
sI9
F11617.980000000001
sI10
F11404.35
sI11
F11542.763333333334
sI12
F11477.016666666666
sI13
F11566.893333333333
sI14
F11641.423333333334
ssg76
(dp206
I0
F18351.210000000003
sI1
F18872.496666666666
sI2
F19032.41
sI3
F18802.56
sI4
F18472.806666666664
sI5
F18936.62
sI6
F18517.763333333332
sI7
F18214.346666666668
sI8
F19131.97666666667
sI9
F18946.836666666666
sI10
F18582.616666666665
sI11
F18707.253333333334
sI12
F18801.27
sI13
F18862.5
sI14
F19034.236666666668
ssg78
(dp207
I0
F15.73173
sI1
F13.82257
sI2
F12.6417
sI3
F14.80224
sI4
F14.25414
sI5
F13.73077
sI6
F14.43716
sI7
F15.10059
sI8
F13.18667
sI9
F14.08158
sI10
F14.64155
sI11
F14.05689
sI12
F14.21754
sI13
F13.5407
sI14
F13.32282
ssg80
(dp208
I0
F10.868
sI1
F10.84
sI2
F10.833
sI3
F10.848
sI4
F10.864
sI5
F10.839
sI6
F10.865
sI7
F10.882
sI8
F10.823
sI9
F10.837
sI10
F10.857
sI11
F10.844
sI12
F10.85
sI13
F10.842
sI14
F10.835
ssg82
(dp209
I0
F0.001
sI1
F0.001
sI2
F0.001
sI3
F0.001
sI4
F0.001
sI5
F0.001
sI6
F0.001
sI7
F0.001
sI8
F0.001
sI9
F0.001
sI10
F0.001
sI11
F0.001
sI12
F0.001
sI13
F0.001
sI14
F0.001
ssg84
(dp210
I0
F0.5465223091342085
sI1
Fnan
sI2
Fnan
sI3
Fnan
sI4
Fnan
sI5
Fnan
sI6
Fnan
sI7
Fnan
sI8
Fnan
sI9
Fnan
sI10
Fnan
sI11
Fnan
sI12
Fnan
sI13
Fnan
sI14
Fnan
ssg86
(dp211
I0
F10.848466666666669
sI1
Fnan
sI2
Fnan
sI3
Fnan
sI4
Fnan
sI5
Fnan
sI6
Fnan
sI7
Fnan
sI8
Fnan
sI9
Fnan
sI10
Fnan
sI11
Fnan
sI12
Fnan
sI13
Fnan
sI14
Fnan
ssg88
(dp212
I0
F10.696
sI1
F10.663
sI2
F10.655
sI3
F10.673
sI4
F10.688
sI5
F10.658
sI6
F10.686
sI7
F10.7
sI8
F10.649
sI9
F10.663
sI10
F10.678
sI11
F10.672
sI12
F10.668
sI13
F10.663
sI14
F10.66
ssg90
(dp213
I0
F4.569763
sI1
F3.640821
sI2
F3.713188
sI3
F3.6869
sI4
F4.679169
sI5
F3.337324
sI6
F5.049291
sI7
F4.749724
sI8
F-1.910264
sI9
F5.353259
sI10
F3.526443
sI11
F3.872652
sI12
F3.515709
sI13
F-2.66777
sI14
F2.501846
ssg92
(dp214
I0
F0.01572471515375287
sI1
Fnan
sI2
Fnan
sI3
Fnan
sI4
Fnan
sI5
Fnan
sI6
Fnan
sI7
Fnan
sI8
Fnan
sI9
Fnan
sI10
Fnan
sI11
Fnan
sI12
Fnan
sI13
Fnan
sI14
Fnan
ssg94
(dp215
I0
F0.7150451667918148
sI1
F0.7129419425295901
sI2
F0.7117001255151746
sI3
F0.7117043705723869
sI4
F0.7125478388886223
sI5
F0.7104219978165327
sI6
F0.7105702132856939
sI7
F0.7102476067546388
sI8
F0.7144478668952858
sI9
F0.713096954264247
sI10
F0.712032029219639
sI11
F0.7160548331125234
sI12
F0.7088894246517582
sI13
F0.7117645816065177
sI14
F0.7117918503887218
ssg96
(dp216
I0
F30.0
sI1
F30.0
sI2
F30.0
sI3
F30.0
sI4
F30.0
sI5
F30.0
sI6
F30.0
sI7
F30.0
sI8
F30.0
sI9
F30.0
sI10
F30.0
sI11
F30.0
sI12
F30.0
sI13
F30.0
sI14
F30.0
ssg98
(dp217
I0
F0.002
sI1
F0.002
sI2
F0.002
sI3
F0.002
sI4
F0.002
sI5
F0.002
sI6
F0.002
sI7
F0.002
sI8
F0.002
sI9
F0.002
sI10
F0.002
sI11
F0.002
sI12
F0.002
sI13
F0.002
sI14
F0.002
ssg100
(dp218
I0
F0.002
sI1
F0.002
sI2
F0.002
sI3
F0.002
sI4
F0.002
sI5
F0.002
sI6
F0.002
sI7
F0.002
sI8
F0.002
sI9
F0.002
sI10
F0.002
sI11
F0.002
sI12
F0.002
sI13
F0.002
sI14
F0.002
ssg102
(dp219
I0
F-1.104812
sI1
F3.002518
sI2
F-1.539625
sI3
F4.127011
sI4
F3.268727
sI5
F3.450689
sI6
F2.511936
sI7
F4.737367
sI8
F2.529554
sI9
F-2.68654
sI10
F4.48428
sI11
F4.174857
sI12
F-0.8830549
sI13
F-2.465594
sI14
F4.375126
ssg104
(dp220
I0
S"KIC8462852-20180810at054327_-25-1X1-030-r'_cal.fts.mag.1"
p221
sI1
S"KIC8462852-20180810at051735_-25-1X1-030-r'_cal.fts.mag.1"
p222
sI2
S"KIC8462852-20180810at044833_-25-1X1-030-r'_cal.fts.mag.1"
p223
sI3
S"KIC8462852-20180810at051941_-25-1X1-030-r'_cal.fts.mag.1"
p224
sI4
S"KIC8462852-20180810at051837_-25-1X1-030-r'_cal.fts.mag.1"
p225
sI5
S"KIC8462852-20180810at051527_-25-1X1-030-r'_cal.fts.mag.1"
p226
sI6
S"KIC8462852-20180810at054534_-25-1X1-030-r'_cal.fts.mag.1"
p227
sI7
S"KIC8462852-20180810at045041_-25-1X1-030-r'_cal.fts.mag.1"
p228
sI8
S"KIC8462852-20180810at045248_-25-1X1-030-r'_cal.fts.mag.1"
p229
sI9
S"KIC8462852-20180810at045144_-25-1X1-030-r'_cal.fts.mag.1"
p230
sI10
S"KIC8462852-20180810at054637_-25-1X1-030-r'_cal.fts.mag.1"
p231
sI11
S"KIC8462852-20180810at054430_-25-1X1-030-r'_cal.fts.mag.1"
p232
sI12
S"KIC8462852-20180810at044937_-25-1X1-030-r'_cal.fts.mag.1"
p233
sI13
S"KIC8462852-20180810at054223_-25-1X1-030-r'_cal.fts.mag.1"
p234
sI14
S"KIC8462852-20180810at051632_-25-1X1-030-r'_cal.fts.mag.1"
p235
ssg121
(dp236
I0
F0.0031201578667796647
sI1
Fnan
sI2
Fnan
sI3
Fnan
sI4
Fnan
sI5
Fnan
sI6
Fnan
sI7
Fnan
sI8
Fnan
sI9
Fnan
sI10
Fnan
sI11
Fnan
sI12
Fnan
sI13
Fnan
sI14
Fnan
ssg123
(dp237
I0
F7791.963333333333
sI1
F8042.543333333333
sI2
F8115.6466666666665
sI3
F7970.3933333333325
sI4
F7834.383333333333
sI5
F8084.463333333333
sI6
F7887.466666666666
sI7
F7737.933333333333
sI8
F8131.073333333334
sI9
F8069.833333333333
sI10
F7926.763333333333
sI11
F7966.296666666666
sI12
F7994.240000000001
sI13
F8024.696666666667
sI14
F8069.4400000000005
ssg125
(dp238
I0
F0.01585589870709071
sI1
Fnan
sI2
Fnan
sI3
Fnan
sI4
Fnan
sI5
Fnan
sI6
Fnan
sI7
Fnan
sI8
Fnan
sI9
Fnan
sI10
Fnan
sI11
Fnan
sI12
Fnan
sI13
Fnan
sI14
Fnan
ssg127
(dp239
I0
S"r'"
p240
sI1
S"r'"
p241
sI2
S"r'"
p242
sI3
S"r'"
p243
sI4
S"r'"
p244
sI5
S"r'"
p245
sI6
S"r'"
p246
sI7
S"r'"
p247
sI8
S"r'"
p248
sI9
S"r'"
p249
sI10
S"r'"
p250
sI11
S"r'"
p251
sI12
S"r'"
p252
sI13
S"r'"
p253
sI14
S"r'"
p254
ssg144
(dp255
I0
F0.001102858619774458
sI1
Fnan
sI2
Fnan
sI3
Fnan
sI4
Fnan
sI5
Fnan
sI6
Fnan
sI7
Fnan
sI8
Fnan
sI9
Fnan
sI10
Fnan
sI11
Fnan
sI12
Fnan
sI13
Fnan
sI14
Fnan
ssg146
(dp256
I0
F1.937222
sI1
F-2.029825
sI2
F4.014682
sI3
F4.244799
sI4
F2.273396
sI5
F3.345425
sI6
F3.202991
sI7
F2.575469
sI8
F3.075643
sI9
F-1.37347
sI10
F3.510388
sI11
F2.737364
sI12
F3.170924
sI13
F3.749999
sI14
F2.821576
ssg148
(dp257
I0
F1.4980883958294888
sI1
Fnan
sI2
Fnan
sI3
Fnan
sI4
Fnan
sI5
Fnan
sI6
Fnan
sI7
Fnan
sI8
Fnan
sI9
Fnan
sI10
Fnan
sI11
Fnan
sI12
Fnan
sI13
Fnan
sI14
Fnan
ssg150
(dp258
I0
F2458340.7205439815
sI1
Fnan
sI2
Fnan
sI3
Fnan
sI4
Fnan
sI5
Fnan
sI6
Fnan
sI7
Fnan
sI8
Fnan
sI9
Fnan
sI10
Fnan
sI11
Fnan
sI12
Fnan
sI13
Fnan
sI14
Fnan
ssg152
(dp259
I0
F0.001102858619774458
sI1
Fnan
sI2
Fnan
sI3
Fnan
sI4
Fnan
sI5
Fnan
sI6
Fnan
sI7
Fnan
sI8
Fnan
sI9
Fnan
sI10
Fnan
sI11
Fnan
sI12
Fnan
sI13
Fnan
sI14
Fnan
ssg154
(dp260
I0
F19.85612
sI1
F17.37784
sI2
F15.79231
sI3
F17.84954
sI4
F18.7123
sI5
F16.57078
sI6
F19.48059
sI7
F20.74801
sI8
F16.64669
sI9
F17.22003
sI10
F18.38875
sI11
F17.65307
sI12
F18.38988
sI13
F17.30093
sI14
F16.32735
ssg156
(dp261
I0
F10.341
sI1
F10.31
sI2
F10.301
sI3
F10.314
sI4
F10.334
sI5
F10.307
sI6
F10.331
sI7
F10.349
sI8
F10.296
sI9
F10.306
sI10
F10.327
sI11
F10.32
sI12
F10.315
sI13
F10.311
sI14
F10.301
ssg158
(dp262
I0
F0.5465223091342085
sI1
Fnan
sI2
Fnan
sI3
Fnan
sI4
Fnan
sI5
Fnan
sI6
Fnan
sI7
Fnan
sI8
Fnan
sI9
Fnan
sI10
Fnan
sI11
Fnan
sI12
Fnan
sI13
Fnan
sI14
Fnan
sssS'z'
p263
(dp264
g3
(dp265
I0
F0.3676499922121833
sI1
Fnan
sI2
Fnan
sI3
Fnan
sI4
Fnan
sI5
Fnan
sI6
Fnan
sI7
Fnan
sI8
Fnan
sI9
Fnan
sI10
Fnan
sI11
Fnan
sI12
Fnan
sI13
Fnan
sI14
Fnan
ssg5
(dp266
I0
S'NoError'
p267
sI1
S'NoError'
p268
sI2
S'NoError'
p269
sI3
S'NoError'
p270
sI4
S'NoError'
p271
sI5
S'NoError'
p272
sI6
S'NoError'
p273
sI7
S'NoError'
p274
sI8
S'NoError'
p275
sI9
S'NoError'
p276
sI10
S'NoError'
p277
sI11
S'NoError'
p278
sI12
S'NoError'
p279
sI13
S'NoError'
p280
sI14
S'NoError'
p281
ssg22
(dp282
I0
F0.007
sI1
F0.007
sI2
F0.007
sI3
F0.007
sI4
F0.007
sI5
F0.007
sI6
F0.007
sI7
F0.007
sI8
F0.007
sI9
F0.007
sI10
F0.007
sI11
F0.007
sI12
F0.007
sI13
F0.007
sI14
F0.007
ssg24
(dp283
I0
F0.9220905068523613
sI1
F0.91869297994043
sI2
F0.9080144200355185
sI3
F0.9133378312099552
sI4
F0.9110865426984174
sI5
F0.9149498010637673
sI6
F0.9150924414004364
sI7
F0.9117882293604531
sI8
F0.9198393300671857
sI9
F0.9174837165518476
sI10
F0.91543762050609
sI11
F0.9198958151091381
sI12
F0.9209283203857284
sI13
F0.9146785609658775
sI14
F0.9136292804334682
ssg26
(dp284
I0
F0.003986396779840778
sI1
Fnan
sI2
Fnan
sI3
Fnan
sI4
Fnan
sI5
Fnan
sI6
Fnan
sI7
Fnan
sI8
Fnan
sI9
Fnan
sI10
Fnan
sI11
Fnan
sI12
Fnan
sI13
Fnan
sI14
Fnan
ssg28
(dp285
I0
F0.915796359772045
sI1
Fnan
sI2
Fnan
sI3
Fnan
sI4
Fnan
sI5
Fnan
sI6
Fnan
sI7
Fnan
sI8
Fnan
sI9
Fnan
sI10
Fnan
sI11
Fnan
sI12
Fnan
sI13
Fnan
sI14
Fnan
ssg30
(dp286
I0
F13.263
sI1
F13.27
sI2
F13.262
sI3
F13.328
sI4
F13.264
sI5
F13.32
sI6
F13.29
sI7
F13.285
sI8
F13.314
sI9
F13.319
sI10
F13.298
sI11
F13.254
sI12
F13.291
sI13
F13.301
sI14
F13.261
ssg32
(dp287
I0
F8.15018
sI1
F8.479046
sI2
F7.642722
sI3
F7.766013
sI4
F8.166058
sI5
F8.181104
sI6
F8.04471
sI7
F7.372835
sI8
F7.717941
sI9
F9.020497
sI10
F8.461193
sI11
F8.646353
sI12
F8.576609
sI13
F7.942691
sI14
F8.547795
ssg34
(dp288
I0
F2458340.7085069446
sI1
F2458340.7107175924
sI2
F2458340.728634259
sI3
F2458340.745162037
sI4
F2458340.7077662037
sI5
F2458340.7466319446
sI6
F2458340.726423611
sI7
F2458340.7278935187
sI8
F2458340.747372685
sI9
F2458340.748113426
sI10
F2458340.727152778
sI11
F2458340.709247685
sI12
F2458340.729363426
sI13
F2458340.7459027776
sI14
F2458340.709976852
ssg36
(dp289
I0
F1.623204866666667
sI1
Fnan
sI2
Fnan
sI3
Fnan
sI4
Fnan
sI5
Fnan
sI6
Fnan
sI7
Fnan
sI8
Fnan
sI9
Fnan
sI10
Fnan
sI11
Fnan
sI12
Fnan
sI13
Fnan
sI14
Fnan
ssg38
(dp290
I0
F0.9064643666666665
sI1
Fnan
sI2
Fnan
sI3
Fnan
sI4
Fnan
sI5
Fnan
sI6
Fnan
sI7
Fnan
sI8
Fnan
sI9
Fnan
sI10
Fnan
sI11
Fnan
sI12
Fnan
sI13
Fnan
sI14
Fnan
ssg40
(dp291
I0
F0.3700733722593095
sI1
F0.36481854168658384
sI2
F0.3707682631061668
sI3
F0.36291269689214123
sI4
F0.36931208676113736
sI5
F0.37118454689116975
sI6
F0.366419577039137
sI7
F0.3672343939081256
sI8
F0.3670526686145233
sI9
F0.36347589560767934
sI10
F0.36320845846164357
sI11
F0.3691042013827985
sI12
F0.36622312897140186
sI13
F0.3692860800974905
sI14
F0.36893867618339976
ssg42
(dp292
I0
F0.002486406296300337
sI1
Fnan
sI2
Fnan
sI3
Fnan
sI4
Fnan
sI5
Fnan
sI6
Fnan
sI7
Fnan
sI8
Fnan
sI9
Fnan
sI10
Fnan
sI11
Fnan
sI12
Fnan
sI13
Fnan
sI14
Fnan
ssg44
(dp293
I0
F1.2501802866666667
sI1
Fnan
sI2
Fnan
sI3
Fnan
sI4
Fnan
sI5
Fnan
sI6
Fnan
sI7
Fnan
sI8
Fnan
sI9
Fnan
sI10
Fnan
sI11
Fnan
sI12
Fnan
sI13
Fnan
sI14
Fnan
ssg46
(dp294
I0
g267
sI1
g268
sI2
g269
sI3
g270
sI4
g271
sI5
g272
sI6
g273
sI7
g274
sI8
g275
sI9
g276
sI10
g277
sI11
g278
sI12
g279
sI13
g280
sI14
g281
ssg48
(dp295
I0
F0.0030769183490604504
sI1
Fnan
sI2
Fnan
sI3
Fnan
sI4
Fnan
sI5
Fnan
sI6
Fnan
sI7
Fnan
sI8
Fnan
sI9
Fnan
sI10
Fnan
sI11
Fnan
sI12
Fnan
sI13
Fnan
sI14
Fnan
ssg50
(dp296
I0
F0.022367706313216006
sI1
Fnan
sI2
Fnan
sI3
Fnan
sI4
Fnan
sI5
Fnan
sI6
Fnan
sI7
Fnan
sI8
Fnan
sI9
Fnan
sI10
Fnan
sI11
Fnan
sI12
Fnan
sI13
Fnan
sI14
Fnan
ssg52
(dp297
I0
F1.7570996533333334
sI1
Fnan
sI2
Fnan
sI3
Fnan
sI4
Fnan
sI5
Fnan
sI6
Fnan
sI7
Fnan
sI8
Fnan
sI9
Fnan
sI10
Fnan
sI11
Fnan
sI12
Fnan
sI13
Fnan
sI14
Fnan
ssg54
(dp298
I0
F1.5006622977179707
sI1
F1.5008461434031022
sI2
F1.5113735736013814
sI3
F1.5195299438716812
sI4
F1.5112495968681368
sI5
F1.51092649320643
sI6
F1.5153767668998341
sI7
F1.512438578042611
sI8
F1.507483521422377
sI9
F1.4963317317276166
sI10
F1.5098797594248017
sI11
F1.5090252069880057
sI12
F1.5026436620614414
sI13
F1.5052704275630318
sI14
F1.509837502970508
ssg56
(dp299
I0
g267
sI1
g268
sI2
g269
sI3
g270
sI4
g271
sI5
g272
sI6
g273
sI7
g274
sI8
g275
sI9
g276
sI10
g277
sI11
g278
sI12
g279
sI13
g280
sI14
g281
ssg58
(dp300
I0
F8.573193
sI1
F9.310765
sI2
F9.235421
sI3
F9.408831
sI4
F8.844474
sI5
F9.731076
sI6
F8.45687
sI7
F8.695907
sI8
F8.185575
sI9
F8.540105
sI10
F9.122762
sI11
F9.556942
sI12
F9.023925
sI13
F8.969953
sI14
F9.167704
ssg60
(dp301
I0
F11.9244
sI1
Fnan
sI2
Fnan
sI3
Fnan
sI4
Fnan
sI5
Fnan
sI6
Fnan
sI7
Fnan
sI8
Fnan
sI9
Fnan
sI10
Fnan
sI11
Fnan
sI12
Fnan
sI13
Fnan
sI14
Fnan
ssg62
(dp302
I0
F0.6882333067515918
sI1
Fnan
sI2
Fnan
sI3
Fnan
sI4
Fnan
sI5
Fnan
sI6
Fnan
sI7
Fnan
sI8
Fnan
sI9
Fnan
sI10
Fnan
sI11
Fnan
sI12
Fnan
sI13
Fnan
sI14
Fnan
ssg64
(dp303
I0
F3.502177
sI1
F3.956741
sI2
F3.497955
sI3
F-2.735532
sI4
F3.467051
sI5
F-3.667157
sI6
F-2.781721
sI7
F3.994462
sI8
F2.507178
sI9
F-2.218507
sI10
F1.863532
sI11
F-0.9075285
sI12
F2.590472
sI13
F3.91846
sI14
F-3.390617
ssg66
(dp304
I0
F12.2652
sI1
Fnan
sI2
Fnan
sI3
Fnan
sI4
Fnan
sI5
Fnan
sI6
Fnan
sI7
Fnan
sI8
Fnan
sI9
Fnan
sI10
Fnan
sI11
Fnan
sI12
Fnan
sI13
Fnan
sI14
Fnan
ssg68
(dp305
I0
g267
sI1
g268
sI2
g269
sI3
g270
sI4
g271
sI5
g272
sI6
g273
sI7
g274
sI8
g275
sI9
g276
sI10
g277
sI11
g278
sI12
g279
sI13
g280
sI14
g281
ssg70
(dp306
I0
F3181.7083333333335
sI1
F3198.014666666667
sI2
F3145.550666666667
sI3
F3037.548666666667
sI4
F3158.7033333333334
sI5
F2994.048333333333
sI6
F3118.351666666667
sI7
F3119.6723333333334
sI8
F3054.7586666666666
sI9
F3066.7169999999996
sI10
F3124.8966666666665
sI11
F3212.6266666666666
sI12
F3130.1153333333336
sI13
F3061.361
sI14
F3178.609
ssg72
(dp307
I0
F1.047239
sI1
F1.044141
sI2
F1.023503
sI3
F1.011291
sI4
F1.0483
sI5
F1.01051
sI6
F1.025616
sI7
F1.024191
sI8
F1.01014
sI9
F1.009784
sI10
F1.0248979999999999
sI11
F1.0461989999999999
sI12
F1.022823
sI13
F1.010897
sI14
F1.045157
ssg74
(dp308
I0
F2578.7926666666667
sI1
F2606.36
sI2
F2592.355666666667
sI3
F2468.347
sI4
F2590.036
sI5
F2439.7169999999996
sI6
F2533.237333333333
sI7
F2553.109
sI8
F2474.389666666667
sI9
F2511.5736666666667
sI10
F2545.9566666666665
sI11
F2599.4653333333335
sI12
F2538.6626666666666
sI13
F2504.664333333333
sI14
F2597.6196666666665
ssg76
(dp309
I0
F4322.283333333334
sI1
F4355.736666666667
sI2
F4336.06
sI3
F4183.1866666666665
sI4
F4343.89
sI5
F4105.01
sI6
F4282.143333333333
sI7
F4289.866666666667
sI8
F4167.55
sI9
F4173.486666666667
sI10
F4281.153333333334
sI11
F4385.296666666666
sI12
F4259.076666666667
sI13
F4189.1866666666665
sI14
F4360.583333333333
ssg78
(dp310
I0
F8.764042
sI1
F8.401966
sI2
F8.576874
sI3
F9.780643
sI4
F8.584074
sI5
F9.63036
sI6
F9.279815
sI7
F8.501276
sI8
F9.076066
sI9
F8.440211
sI10
F9.07884
sI11
F8.96484
sI12
F8.437613
sI13
F7.875328
sI14
F8.677577
ssg80
(dp311
I0
F12.471
sI1
F12.46
sI2
F12.466
sI3
F12.519
sI4
F12.467
sI5
F12.532
sI6
F12.491
sI7
F12.482
sI8
F12.516
sI9
F12.5
sI10
F12.485
sI11
F12.463
sI12
F12.488
sI13
F12.503
sI14
F12.464
ssg82
(dp312
I0
F0.003
sI1
F0.003
sI2
F0.003
sI3
F0.003
sI4
F0.003
sI5
F0.003
sI6
F0.003
sI7
F0.003
sI8
F0.003
sI9
F0.003
sI10
F0.003
sI11
F0.003
sI12
F0.003
sI13
F0.003
sI14
F0.003
ssg84
(dp313
I0
F0.36733417252418055
sI1
Fnan
sI2
Fnan
sI3
Fnan
sI4
Fnan
sI5
Fnan
sI6
Fnan
sI7
Fnan
sI8
Fnan
sI9
Fnan
sI10
Fnan
sI11
Fnan
sI12
Fnan
sI13
Fnan
sI14
Fnan
ssg86
(dp314
I0
F12.487133333333334
sI1
Fnan
sI2
Fnan
sI3
Fnan
sI4
Fnan
sI5
Fnan
sI6
Fnan
sI7
Fnan
sI8
Fnan
sI9
Fnan
sI10
Fnan
sI11
Fnan
sI12
Fnan
sI13
Fnan
sI14
Fnan
ssg88
(dp315
I0
F12.243
sI1
F12.238
sI2
F12.256
sI3
F12.294
sI4
F12.251
sI5
F12.309
sI6
F12.265
sI7
F12.265
sI8
F12.288
sI9
F12.283
sI10
F12.263
sI11
F12.233
sI12
F12.261
sI13
F12.285
sI14
F12.244
ssg90
(dp316
I0
F2.769475
sI1
F3.53715
sI2
F1.260544
sI3
F3.774896
sI4
F2.647803
sI5
F2.3279
sI6
F3.459481
sI7
F-2.45739
sI8
F3.193021
sI9
F2.871468
sI10
F1.74634
sI11
F-2.19642
sI12
F-3.752037
sI13
F3.194351
sI14
F1.971491
ssg92
(dp317
I0
F0.0220350370352052
sI1
Fnan
sI2
Fnan
sI3
Fnan
sI4
Fnan
sI5
Fnan
sI6
Fnan
sI7
Fnan
sI8
Fnan
sI9
Fnan
sI10
Fnan
sI11
Fnan
sI12
Fnan
sI13
Fnan
sI14
Fnan
ssg94
(dp318
I0
F0.6873122415958618
sI1
F0.6900836114365074
sI2
F0.6929940041431364
sI3
F0.6836830007063915
sI4
F0.6904375287122941
sI5
F0.6873353860312458
sI6
F0.6846129436837219
sI7
F0.6891411193058029
sI8
F0.6852073985945215
sI9
F0.6937853635885289
sI10
F0.6875342906587631
sI11
F0.6842567947294372
sI12
F0.6871286242573387
sI13
F0.6908896950910789
sI14
F0.689097598739246
ssg96
(dp319
I0
F30.0
sI1
F30.0
sI2
F30.0
sI3
F30.0
sI4
F30.0
sI5
F30.0
sI6
F30.0
sI7
F30.0
sI8
F30.0
sI9
F30.0
sI10
F30.0
sI11
F30.0
sI12
F30.0
sI13
F30.0
sI14
F30.0
ssg98
(dp320
I0
F0.004
sI1
F0.004
sI2
F0.004
sI3
F0.004
sI4
F0.004
sI5
F0.004
sI6
F0.004
sI7
F0.004
sI8
F0.004
sI9
F0.004
sI10
F0.004
sI11
F0.004
sI12
F0.004
sI13
F0.004
sI14
F0.004
ssg100
(dp321
I0
F0.004
sI1
F0.004
sI2
F0.004
sI3
F0.004
sI4
F0.004
sI5
F0.004
sI6
F0.004
sI7
F0.004
sI8
F0.004
sI9
F0.004
sI10
F0.004
sI11
F0.004
sI12
F0.004
sI13
F0.004
sI14
F0.004
ssg102
(dp322
I0
F2.860386
sI1
F1.465309
sI2
F3.268936
sI3
F-2.060344
sI4
F3.49481
sI5
F0.5885098
sI6
F3.655227
sI7
F-3.173956
sI8
F2.194767
sI9
F3.642614
sI10
F3.392673
sI11
F1.324589
sI12
F-1.926435
sI13
F3.943708
sI14
F3.685701
ssg104
(dp323
I0
S"KIC8462852-20180810at050015_-25-1X1-030-z'_cal.fts.mag.1"
p324
sI1
S"KIC8462852-20180810at050326_-25-1X1-030-z'_cal.fts.mag.1"
p325
sI2
S"KIC8462852-20180810at052913_-25-1X1-030-z'_cal.fts.mag.1"
p326
sI3
S"KIC8462852-20180810at055301_-25-1X1-030-z'_cal.fts.mag.1"
p327
sI4
S"KIC8462852-20180810at045910_-25-1X1-030-z'_cal.fts.mag.1"
p328
sI5
S"KIC8462852-20180810at055509_-25-1X1-030-z'_cal.fts.mag.1"
p329
sI6
S"KIC8462852-20180810at052601_-25-1X1-030-z'_cal.fts.mag.1"
p330
sI7
S"KIC8462852-20180810at052810_-25-1X1-030-z'_cal.fts.mag.1"
p331
sI8
S"KIC8462852-20180810at055613_-25-1X1-030-z'_cal.fts.mag.1"
p332
sI9
S"KIC8462852-20180810at055717_-25-1X1-030-z'_cal.fts.mag.1"
p333
sI10
S"KIC8462852-20180810at052706_-25-1X1-030-z'_cal.fts.mag.1"
p334
sI11
S"KIC8462852-20180810at050119_-25-1X1-030-z'_cal.fts.mag.1"
p335
sI12
S"KIC8462852-20180810at053017_-25-1X1-030-z'_cal.fts.mag.1"
p336
sI13
S"KIC8462852-20180810at055406_-25-1X1-030-z'_cal.fts.mag.1"
p337
sI14
S"KIC8462852-20180810at050222_-25-1X1-030-z'_cal.fts.mag.1"
p338
ssg121
(dp339
I0
F0.006109407550332519
sI1
Fnan
sI2
Fnan
sI3
Fnan
sI4
Fnan
sI5
Fnan
sI6
Fnan
sI7
Fnan
sI8
Fnan
sI9
Fnan
sI10
Fnan
sI11
Fnan
sI12
Fnan
sI13
Fnan
sI14
Fnan
ssg123
(dp340
I0
F1243.79
sI1
F1235.5323333333333
sI2
F1245.0356666666667
sI3
F1172.0970000000002
sI4
F1242.4433333333334
sI5
F1180.2153333333333
sI6
F1213.3046666666667
sI7
F1219.5423333333333
sI8
F1186.3996666666667
sI9
F1181.512
sI10
F1204.8843333333332
sI11
F1254.633
sI12
F1211.9366666666667
sI13
F1200.8213333333333
sI14
F1246.6206666666667
ssg125
(dp341
I0
F0.02282187755724965
sI1
Fnan
sI2
Fnan
sI3
Fnan
sI4
Fnan
sI5
Fnan
sI6
Fnan
sI7
Fnan
sI8
Fnan
sI9
Fnan
sI10
Fnan
sI11
Fnan
sI12
Fnan
sI13
Fnan
sI14
Fnan
ssg127
(dp342
I0
S"z'"
p343
sI1
S"z'"
p344
sI2
S"z'"
p345
sI3
S"z'"
p346
sI4
S"z'"
p347
sI5
S"z'"
p348
sI6
S"z'"
p349
sI7
S"z'"
p350
sI8
S"z'"
p351
sI9
S"z'"
p352
sI10
S"z'"
p353
sI11
S"z'"
p354
sI12
S"z'"
p355
sI13
S"z'"
p356
sI14
S"z'"
p357
ssg144
(dp358
I0
F0.0027709831107812282
sI1
Fnan
sI2
Fnan
sI3
Fnan
sI4
Fnan
sI5
Fnan
sI6
Fnan
sI7
Fnan
sI8
Fnan
sI9
Fnan
sI10
Fnan
sI11
Fnan
sI12
Fnan
sI13
Fnan
sI14
Fnan
ssg146
(dp359
I0
F3.195224
sI1
F2.582016
sI2
F2.32421
sI3
F-3.467557
sI4
F-2.045699
sI5
F4.324756
sI6
F-1.384971
sI7
F2.44852
sI8
F3.26836
sI9
F-2.491875
sI10
F1.721543
sI11
F1.051701
sI12
F3.744858
sI13
F2.59196
sI14
F0.8896583
ssg148
(dp360
I0
F1.5081916803845954
sI1
Fnan
sI2
Fnan
sI3
Fnan
sI4
Fnan
sI5
Fnan
sI6
Fnan
sI7
Fnan
sI8
Fnan
sI9
Fnan
sI10
Fnan
sI11
Fnan
sI12
Fnan
sI13
Fnan
sI14
Fnan
ssg150
(dp361
I0
F2458340.7278935187
sI1
Fnan
sI2
Fnan
sI3
Fnan
sI4
Fnan
sI5
Fnan
sI6
Fnan
sI7
Fnan
sI8
Fnan
sI9
Fnan
sI10
Fnan
sI11
Fnan
sI12
Fnan
sI13
Fnan
sI14
Fnan
ssg152
(dp362
I0
F0.0027709831107812282
sI1
Fnan
sI2
Fnan
sI3
Fnan
sI4
Fnan
sI5
Fnan
sI6
Fnan
sI7
Fnan
sI8
Fnan
sI9
Fnan
sI10
Fnan
sI11
Fnan
sI12
Fnan
sI13
Fnan
sI14
Fnan
ssg154
(dp363
I0
F9.963704
sI1
F10.00377
sI2
F9.250702
sI3
F8.844859
sI4
F8.721388
sI5
F10.13867
sI6
F9.393582
sI7
F9.733993
sI8
F9.686892
sI9
F9.78996
sI10
F9.283401
sI11
F10.32672
sI12
F10.68962
sI13
F9.45734
sI14
F9.795793
ssg156
(dp364
I0
F11.911
sI1
F11.902
sI2
F11.907
sI3
F11.946
sI4
F11.905
sI5
F11.967
sI6
F11.921
sI7
F11.919
sI8
F11.95
sI9
F11.949
sI10
F11.921
sI11
F11.895
sI12
F11.927
sI13
F11.945
sI14
F11.901
ssg158
(dp365
I0
F0.36733417252418055
sI1
Fnan
sI2
Fnan
sI3
Fnan
sI4
Fnan
sI5
Fnan
sI6
Fnan
sI7
Fnan
sI8
Fnan
sI9
Fnan
sI10
Fnan
sI11
Fnan
sI12
Fnan
sI13
Fnan
sI14
Fnan
sssS'g'
p366
(dp367
g3
(dp368
I0
F0.8645769252590253
sI1
Fnan
sI2
Fnan
sI3
Fnan
sI4
Fnan
sI5
Fnan
sI6
Fnan
sI7
Fnan
sI8
Fnan
sI9
Fnan
sI10
Fnan
sI11
Fnan
sI12
Fnan
sI13
Fnan
sI14
Fnan
ssg5
(dp369
I0
S'NoError'
p370
sI1
S'NoError'
p371
sI2
S'NoError'
p372
sI3
S'NoError'
p373
sI4
S'NoError'
p374
sI5
S'NoError'
p375
sI6
S'NoError'
p376
sI7
S'NoError'
p377
sI8
S'NoError'
p378
sI9
S'NoError'
p379
sI10
S'NoError'
p380
sI11
S'NoError'
p381
sI12
S'NoError'
p382
sI13
S'NoError'
p383
sI14
S'NoError'
p384
ssg22
(dp385
I0
F0.002
sI1
F0.002
sI2
F0.002
sI3
F0.002
sI4
F0.002
sI5
F0.002
sI6
F0.002
sI7
F0.002
sI8
F0.002
sI9
F0.002
sI10
F0.002
sI11
F0.002
sI12
F0.002
sI13
F0.002
sI14
F0.002
ssg24
(dp386
I0
F0.8786593506212973
sI1
F0.8826765015154601
sI2
F0.8769776272766867
sI3
F0.8799589775864163
sI4
F0.8752913358040868
sI5
F0.8823349485863707
sI6
F0.877527711130059
sI7
F0.8800096485877054
sI8
F0.8817726194537704
sI9
F0.8772093891167272
sI10
F0.8772897852488659
sI11
F0.8811812607170206
sI12
F0.8801220761388121
sI13
F0.8770505440388647
sI14
F0.8792383464599577
ssg26
(dp387
I0
F0.0022367931264764525
sI1
Fnan
sI2
Fnan
sI3
Fnan
sI4
Fnan
sI5
Fnan
sI6
Fnan
sI7
Fnan
sI8
Fnan
sI9
Fnan
sI10
Fnan
sI11
Fnan
sI12
Fnan
sI13
Fnan
sI14
Fnan
ssg28
(dp388
I0
F0.8791533414854735
sI1
Fnan
sI2
Fnan
sI3
Fnan
sI4
Fnan
sI5
Fnan
sI6
Fnan
sI7
Fnan
sI8
Fnan
sI9
Fnan
sI10
Fnan
sI11
Fnan
sI12
Fnan
sI13
Fnan
sI14
Fnan
ssg30
(dp389
I0
F11.512
sI1
F11.506
sI2
F11.498
sI3
F11.506
sI4
F11.505
sI5
F11.523
sI6
F11.506
sI7
F11.498
sI8
F11.497
sI9
F11.493
sI10
F11.517
sI11
F11.511
sI12
F11.5
sI13
F11.524
sI14
F11.497
ssg32
(dp390
I0
F9.062036
sI1
F9.202976
sI2
F9.043461
sI3
F8.82588
sI4
F9.478361
sI5
F9.257326
sI6
F8.289728
sI7
F8.907933
sI8
F8.13862
sI9
F8.358686
sI10
F7.807222
sI11
F8.828712
sI12
F8.435695
sI13
F10.26749
sI14
F8.583325
ssg34
(dp391
I0
F2458340.7355671297
sI1
F2458340.696712963
sI2
F2458340.736296296
sI3
F2458340.7153935186
sI4
F2458340.716863426
sI5
F2458340.698912037
sI6
F2458340.734837963
sI7
F2458340.7183333333
sI8
F2458340.717604167
sI9
F2458340.6974537037
sI10
F2458340.7161342595
sI11
F2458340.6996412035
sI12
F2458340.7341087963
sI13
F2458340.69818287
sI14
F2458340.737037037
ssg36
(dp392
I0
F1.1377936666666668
sI1
Fnan
sI2
Fnan
sI3
Fnan
sI4
Fnan
sI5
Fnan
sI6
Fnan
sI7
Fnan
sI8
Fnan
sI9
Fnan
sI10
Fnan
sI11
Fnan
sI12
Fnan
sI13
Fnan
sI14
Fnan
ssg38
(dp393
I0
F1.548060933333333
sI1
Fnan
sI2
Fnan
sI3
Fnan
sI4
Fnan
sI5
Fnan
sI6
Fnan
sI7
Fnan
sI8
Fnan
sI9
Fnan
sI10
Fnan
sI11
Fnan
sI12
Fnan
sI13
Fnan
sI14
Fnan
ssg40
(dp394
I0
F0.8633328956072496
sI1
F0.8652581883429176
sI2
F0.8667573601376606
sI3
F0.8642348457917404
sI4
F0.8651868821000392
sI5
F0.8610224753340191
sI6
F0.8647561110628742
sI7
F0.8615731215179463
sI8
F0.8629089041656188
sI9
F0.8638587996683784
sI10
F0.8669427135491287
sI11
F0.864713743342569
sI12
F0.8674419062776448
sI13
F0.862534556803561
sI14
F0.8678427650701609
ssg42
(dp395
I0
F0.001700748543334137
sI1
Fnan
sI2
Fnan
sI3
Fnan
sI4
Fnan
sI5
Fnan
sI6
Fnan
sI7
Fnan
sI8
Fnan
sI9
Fnan
sI10
Fnan
sI11
Fnan
sI12
Fnan
sI13
Fnan
sI14
Fnan
ssg44
(dp396
I0
F0.02539373333333333
sI1
Fnan
sI2
Fnan
sI3
Fnan
sI4
Fnan
sI5
Fnan
sI6
Fnan
sI7
Fnan
sI8
Fnan
sI9
Fnan
sI10
Fnan
sI11
Fnan
sI12
Fnan
sI13
Fnan
sI14
Fnan
ssg46
(dp397
I0
g370
sI1
g371
sI2
g372
sI3
g373
sI4
g374
sI5
g375
sI6
g376
sI7
g377
sI8
g378
sI9
g379
sI10
g380
sI11
g381
sI12
g382
sI13
g383
sI14
g384
ssg48
(dp398
I0
F0.002604427485142587
sI1
Fnan
sI2
Fnan
sI3
Fnan
sI4
Fnan
sI5
Fnan
sI6
Fnan
sI7
Fnan
sI8
Fnan
sI9
Fnan
sI10
Fnan
sI11
Fnan
sI12
Fnan
sI13
Fnan
sI14
Fnan
ssg50
(dp399
I0
F0.009269509670085737
sI1
Fnan
sI2
Fnan
sI3
Fnan
sI4
Fnan
sI5
Fnan
sI6
Fnan
sI7
Fnan
sI8
Fnan
sI9
Fnan
sI10
Fnan
sI11
Fnan
sI12
Fnan
sI13
Fnan
sI14
Fnan
ssg52
(dp400
I0
F1.6003035333333335
sI1
Fnan
sI2
Fnan
sI3
Fnan
sI4
Fnan
sI5
Fnan
sI6
Fnan
sI7
Fnan
sI8
Fnan
sI9
Fnan
sI10
Fnan
sI11
Fnan
sI12
Fnan
sI13
Fnan
sI14
Fnan
ssg54
(dp401
I0
F1.516969675337809
sI1
F1.521303707028443
sI2
F1.518262588493009
sI3
F1.5166356600744697
sI4
F1.5160866816427003
sI5
F1.5144730326467757
sI6
F1.5248484318526287
sI7
F1.521314211963478
sI8
F1.5121262415607652
sI9
F1.514686609591998
sI10
F1.5249485607256867
sI11
F1.516732124326835
sI12
F1.515383766782273
sI13
F1.5250138448977448
sI14
F1.5158906625547433
ssg56
(dp402
I0
g370
sI1
g371
sI2
g372
sI3
g373
sI4
g374
sI5
g375
sI6
g376
sI7
g377
sI8
g378
sI9
g379
sI10
g380
sI11
g381
sI12
g382
sI13
g383
sI14
g384
ssg58
(dp403
I0
F8.916173
sI1
F8.302184
sI2
F8.874747
sI3
F8.438924
sI4
F8.917494
sI5
F9.006343
sI6
F9.269022
sI7
F8.846371
sI8
F8.526865
sI9
F9.05296
sI10
F9.435329
sI11
F9.671255
sI12
F9.238317
sI13
F10.2086
sI14
F8.059763
ssg60
(dp404
I0
F11.067733333333335
sI1
Fnan
sI2
Fnan
sI3
Fnan
sI4
Fnan
sI5
Fnan
sI6
Fnan
sI7
Fnan
sI8
Fnan
sI9
Fnan
sI10
Fnan
sI11
Fnan
sI12
Fnan
sI13
Fnan
sI14
Fnan
ssg62
(dp405
I0
F0.7140904591987643
sI1
Fnan
sI2
Fnan
sI3
Fnan
sI4
Fnan
sI5
Fnan
sI6
Fnan
sI7
Fnan
sI8
Fnan
sI9
Fnan
sI10
Fnan
sI11
Fnan
sI12
Fnan
sI13
Fnan
sI14
Fnan
ssg64
(dp406
I0
F4.382833
sI1
F-3.789547
sI2
F2.432517
sI3
F3.309146
sI4
F3.872248
sI5
F3.216119
sI6
F2.175564
sI7
F2.621784
sI8
F-2.102247
sI9
F-3.361343
sI10
F3.6946
sI11
F3.340162
sI12
F-3.271453
sI13
F3.360632
sI14
F3.339899
ssg66
(dp407
I0
F11.443266666666666
sI1
Fnan
sI2
Fnan
sI3
Fnan
sI4
Fnan
sI5
Fnan
sI6
Fnan
sI7
Fnan
sI8
Fnan
sI9
Fnan
sI10
Fnan
sI11
Fnan
sI12
Fnan
sI13
Fnan
sI14
Fnan
ssg68
(dp408
I0
g370
sI1
g371
sI2
g372
sI3
g373
sI4
g374
sI5
g375
sI6
g376
sI7
g377
sI8
g378
sI9
g379
sI10
g380
sI11
g381
sI12
g382
sI13
g383
sI14
g384
ssg70
(dp409
I0
F6616.7266666666665
sI1
F6662.233333333334
sI2
F6671.326666666666
sI3
F6655.433333333333
sI4
F6630.9766666666665
sI5
F6586.583333333333
sI6
F6638.1900000000005
sI7
F6724.926666666666
sI8
F6732.823333333334
sI9
F6722.416666666667
sI10
F6551.076666666666
sI11
F6630.053333333333
sI12
F6670.336666666667
sI13
F6545.570000000001
sI14
F6679.71
ssg72
(dp410
I0
F1.017601
sI1
F1.066033
sI2
F1.017043
sI3
F1.037959
sI4
F1.036143
sI5
F1.062239
sI6
F1.018166
sI7
F1.034384
sI8
F1.0352540000000001
sI9
F1.06476
sI10
F1.037048
sI11
F1.060999
sI12
F1.018745
sI13
F1.0634860000000002
sI14
F1.016502
ssg74
(dp411
I0
F5710.753333333333
sI1
F5695.553333333333
sI2
F5769.863333333333
sI3
F5732.613333333333
sI4
F5759.1900000000005
sI5
F5657.913333333333
sI6
F5712.6900000000005
sI7
F5775.34
sI8
F5797.4400000000005
sI9
F5824.5
sI10
F5639.673333333334
sI11
F5698.526666666667
sI12
F5748.2733333333335
sI13
F5637.016666666666
sI14
F5763.236666666667
ssg76
(dp412
I0
F9350.206666666667
sI1
F9399.973333333333
sI2
F9444.496666666668
sI3
F9394.076666666666
sI4
F9392.283333333333
sI5
F9271.980000000001
sI6
F9416.609999999999
sI7
F9508.416666666666
sI8
F9473.67
sI9
F9502.323333333334
sI10
F9295.133333333333
sI11
F9349.576666666666
sI12
F9409.480000000001
sI13
F9289.306666666667
sI14
F9431.073333333334
ssg78
(dp413
I0
F8.07763
sI1
F9.789236
sI2
F8.950422
sI3
F8.364973
sI4
F7.747241
sI5
F8.850234
sI6
F9.058158
sI7
F7.836502
sI8
F7.845058
sI9
F8.715481
sI10
F7.756726
sI11
F9.226332
sI12
F9.519884
sI13
F8.795313
sI14
F7.561944
ssg80
(dp414
I0
F11.608
sI1
F11.611
sI2
F11.597
sI3
F11.604
sI4
F11.599
sI5
F11.618
sI6
F11.608
sI7
F11.596
sI8
F11.592
sI9
F11.587
sI10
F11.622
sI11
F11.611
sI12
F11.601
sI13
F11.622
sI14
F11.598
ssg82
(dp415
I0
F0.002
sI1
F0.002
sI2
F0.002
sI3
F0.002
sI4
F0.002
sI5
F0.002
sI6
F0.002
sI7
F0.002
sI8
F0.002
sI9
F0.002
sI10
F0.002
sI11
F0.002
sI12
F0.002
sI13
F0.002
sI14
F0.002
ssg84
(dp416
I0
F0.8645576845847673
sI1
Fnan
sI2
Fnan
sI3
Fnan
sI4
Fnan
sI5
Fnan
sI6
Fnan
sI7
Fnan
sI8
Fnan
sI9
Fnan
sI10
Fnan
sI11
Fnan
sI12
Fnan
sI13
Fnan
sI14
Fnan
ssg86
(dp417
I0
F11.604933333333333
sI1
Fnan
sI2
Fnan
sI3
Fnan
sI4
Fnan
sI5
Fnan
sI6
Fnan
sI7
Fnan
sI8
Fnan
sI9
Fnan
sI10
Fnan
sI11
Fnan
sI12
Fnan
sI13
Fnan
sI14
Fnan
ssg88
(dp418
I0
F11.448
sI1
F11.441
sI2
F11.439
sI3
F11.442
sI4
F11.446
sI5
F11.453
sI6
F11.445
sI7
F11.431
sI8
F11.43
sI9
F11.431
sI10
F11.459
sI11
F11.446
sI12
F11.44
sI13
F11.46
sI14
F11.438
ssg90
(dp419
I0
F1.534252
sI1
F1.357736
sI2
F2.042463
sI3
F1.686891
sI4
F-3.074019
sI5
F3.251068
sI6
F3.183672
sI7
F3.312408
sI8
F-2.429237
sI9
F-3.18149
sI10
F3.540118
sI11
F1.30687
sI12
F2.577414
sI13
F3.798374
sI14
F-1.839615
ssg92
(dp420
I0
F0.00843010478384891
sI1
Fnan
sI2
Fnan
sI3
Fnan
sI4
Fnan
sI5
Fnan
sI6
Fnan
sI7
Fnan
sI8
Fnan
sI9
Fnan
sI10
Fnan
sI11
Fnan
sI12
Fnan
sI13
Fnan
sI14
Fnan
ssg94
(dp421
I0
F0.7153224998329881
sI1
F0.7091869070708839
sI2
F0.7160494644290589
sI3
F0.7143661499115341
sI4
F0.7188537164097695
sI5
F0.7135467714708918
sI6
F0.7116488526795726
sI7
F0.7115404241024083
sI8
F0.7154465658620783
sI9
F0.7179776070371543
sI10
F0.7118009080194361
sI11
F0.7132238564555834
sI12
F0.7149675213958698
sI13
F0.7119748117183524
sI14
F0.715450831585884
ssg96
(dp422
I0
F30.0
sI1
F30.0
sI2
F30.0
sI3
F30.0
sI4
F30.0
sI5
F30.0
sI6
F30.0
sI7
F30.0
sI8
F30.0
sI9
F30.0
sI10
F30.0
sI11
F30.0
sI12
F30.0
sI13
F30.0
sI14
F30.0
ssg98
(dp423
I0
F0.002
sI1
F0.003
sI2
F0.002
sI3
F0.003
sI4
F0.003
sI5
F0.003
sI6
F0.003
sI7
F0.003
sI8
F0.002
sI9
F0.002
sI10
F0.003
sI11
F0.003
sI12
F0.003
sI13
F0.003
sI14
F0.003
ssg100
(dp424
I0
F0.002
sI1
F0.002
sI2
F0.002
sI3
F0.002
sI4
F0.002
sI5
F0.002
sI6
F0.002
sI7
F0.002
sI8
F0.002
sI9
F0.002
sI10
F0.002
sI11
F0.002
sI12
F0.002
sI13
F0.002
sI14
F0.002
ssg102
(dp425
I0
F-1.423314
sI1
F3.438948
sI2
F-1.119456
sI3
F3.041659
sI4
F2.918721
sI5
F4.088259
sI6
F2.328868
sI7
F-2.55542
sI8
F1.791453
sI9
F2.378422
sI10
F3.194555
sI11
F-2.824287
sI12
F2.90044
sI13
F1.139557
sI14
F4.706148
ssg104
(dp426
I0
S"KIC8462852-20180810at053913_-25-1X1-030-g'_cal.fts.mag.1"
p427
sI1
S"KIC8462852-20180810at044305_-25-1X1-030-g'_cal.fts.mag.1"
p428
sI2
S"KIC8462852-20180810at054016_-25-1X1-030-g'_cal.fts.mag.1"
p429
sI3
S"KIC8462852-20180810at051005_-25-1X1-030-g'_cal.fts.mag.1"
p430
sI4
S"KIC8462852-20180810at051217_-25-1X1-030-g'_cal.fts.mag.1"
p431
sI5
S"KIC8462852-20180810at044626_-25-1X1-030-g'_cal.fts.mag.1"
p432
sI6
S"KIC8462852-20180810at053810_-25-1X1-030-g'_cal.fts.mag.1"
p433
sI7
S"KIC8462852-20180810at051424_-25-1X1-030-g'_cal.fts.mag.1"
p434
sI8
S"KIC8462852-20180810at051321_-25-1X1-030-g'_cal.fts.mag.1"
p435
sI9
S"KIC8462852-20180810at044420_-25-1X1-030-g'_cal.fts.mag.1"
p436
sI10
S"KIC8462852-20180810at051114_-25-1X1-030-g'_cal.fts.mag.1"
p437
sI11
S"KIC8462852-20180810at044729_-25-1X1-030-g'_cal.fts.mag.1"
p438
sI12
S"KIC8462852-20180810at053703_-25-1X1-030-g'_cal.fts.mag.1"
p439
sI13
S"KIC8462852-20180810at044523_-25-1X1-030-g'_cal.fts.mag.1"
p440
sI14
S"KIC8462852-20180810at054120_-25-1X1-030-g'_cal.fts.mag.1"
p441
ssg121
(dp442
I0
F0.004160114960633393
sI1
Fnan
sI2
Fnan
sI3
Fnan
sI4
Fnan
sI5
Fnan
sI6
Fnan
sI7
Fnan
sI8
Fnan
sI9
Fnan
sI10
Fnan
sI11
Fnan
sI12
Fnan
sI13
Fnan
sI14
Fnan
ssg123
(dp443
I0
F6238.3533333333335
sI1
F6275.36
sI2
F6323.193333333333
sI3
F6274.956666666667
sI4
F6281.963333333333
sI5
F6175.39
sI6
F6274.5233333333335
sI7
F6320.696666666667
sI8
F6329.13
sI9
F6349.1433333333325
sI10
F6209.009999999999
sI11
F6248.466666666666
sI12
F6311.533333333334
sI13
F6173.416666666667
sI14
F6327.736666666667
ssg125
(dp444
I0
F0.01061310959323872
sI1
Fnan
sI2
Fnan
sI3
Fnan
sI4
Fnan
sI5
Fnan
sI6
Fnan
sI7
Fnan
sI8
Fnan
sI9
Fnan
sI10
Fnan
sI11
Fnan
sI12
Fnan
sI13
Fnan
sI14
Fnan
ssg127
(dp445
I0
S"g'"
p446
sI1
S"g'"
p447
sI2
S"g'"
p448
sI3
S"g'"
p449
sI4
S"g'"
p450
sI5
S"g'"
p451
sI6
S"g'"
p452
sI7
S"g'"
p453
sI8
S"g'"
p454
sI9
S"g'"
p455
sI10
S"g'"
p456
sI11
S"g'"
p457
sI12
S"g'"
p458
sI13
S"g'"
p459
sI14
S"g'"
p460
ssg144
(dp461
I0
F0.002085620219292053
sI1
Fnan
sI2
Fnan
sI3
Fnan
sI4
Fnan
sI5
Fnan
sI6
Fnan
sI7
Fnan
sI8
Fnan
sI9
Fnan
sI10
Fnan
sI11
Fnan
sI12
Fnan
sI13
Fnan
sI14
Fnan
ssg146
(dp462
I0
F-2.313296
sI1
F-1.87086
sI2
F2.899181
sI3
F3.246405
sI4
F-2.007596
sI5
F-3.011118
sI6
F-3.067515
sI7
F-3.783259
sI8
F-2.720721
sI9
F2.220109
sI10
F-1.373054
sI11
F3.03967
sI12
F3.6298
sI13
F3.360825
sI14
F2.132335
ssg148
(dp463
I0
F1.5183117199652905
sI1
Fnan
sI2
Fnan
sI3
Fnan
sI4
Fnan
sI5
Fnan
sI6
Fnan
sI7
Fnan
sI8
Fnan
sI9
Fnan
sI10
Fnan
sI11
Fnan
sI12
Fnan
sI13
Fnan
sI14
Fnan
ssg150
(dp464
I0
F2458340.716863426
sI1
Fnan
sI2
Fnan
sI3
Fnan
sI4
Fnan
sI5
Fnan
sI6
Fnan
sI7
Fnan
sI8
Fnan
sI9
Fnan
sI10
Fnan
sI11
Fnan
sI12
Fnan
sI13
Fnan
sI14
Fnan
ssg152
(dp465
I0
F0.002085620219292053
sI1
Fnan
sI2
Fnan
sI3
Fnan
sI4
Fnan
sI5
Fnan
sI6
Fnan
sI7
Fnan
sI8
Fnan
sI9
Fnan
sI10
Fnan
sI11
Fnan
sI12
Fnan
sI13
Fnan
sI14
Fnan
ssg154
(dp466
I0
F10.06688
sI1
F10.9059
sI2
F10.19624
sI3
F10.18234
sI4
F10.35087
sI5
F11.54367
sI6
F9.409456
sI7
F9.410028
sI8
F9.766168
sI9
F11.07795
sI10
F10.24867
sI11
F11.21705
sI12
F10.54661
sI13
F11.42506
sI14
F9.976422
ssg156
(dp467
I0
F11.073
sI1
F11.067
sI2
F11.062
sI3
F11.068
sI4
F11.068
sI5
F11.082
sI6
F11.065
sI7
F11.055
sI8
F11.059
sI9
F11.055
sI10
F11.079
sI11
F11.073
sI12
F11.066
sI13
F11.08
sI14
F11.064
ssg158
(dp468
I0
F0.8645576845847673
sI1
Fnan
sI2
Fnan
sI3
Fnan
sI4
Fnan
sI5
Fnan
sI6
Fnan
sI7
Fnan
sI8
Fnan
sI9
Fnan
sI10
Fnan
sI11
Fnan
sI12
Fnan
sI13
Fnan
sI14
Fnan
sssS'V'
p469
(dp470
g3
(dp471
I0
F0.6891780850678022
sI1
Fnan
sI2
Fnan
sI3
Fnan
sI4
Fnan
sI5
Fnan
sI6
Fnan
sI7
Fnan
sI8
Fnan
sI9
Fnan
sI10
Fnan
sI11
Fnan
sI12
Fnan
sI13
Fnan
sI14
Fnan
ssg5
(dp472
I0
S'NoError'
p473
sI1
S'NoError'
p474
sI2
S'NoError'
p475
sI3
S'NoError'
p476
sI4
S'NoError'
p477
sI5
S'NoError'
p478
sI6
S'NoError'
p479
sI7
S'NoError'
p480
sI8
S'NoError'
p481
sI9
S'NoError'
p482
sI10
S'NoError'
p483
sI11
S'NoError'
p484
sI12
S'NoError'
p485
sI13
S'NoError'
p486
sI14
S'NoError'
p487
ssg22
(dp488
I0
F0.002
sI1
F0.002
sI2
F0.002
sI3
F0.002
sI4
F0.002
sI5
F0.002
sI6
F0.002
sI7
F0.002
sI8
F0.002
sI9
F0.002
sI10
F0.002
sI11
F0.002
sI12
F0.002
sI13
F0.002
sI14
F0.002
ssg24
(dp489
I0
F0.8875218573782907
sI1
F0.8895678833000318
sI2
F0.8869175223184578
sI3
F0.8870222926297455
sI4
F0.8865761994552471
sI5
F0.886822173452984
sI6
F0.8883749664457157
sI7
F0.888849980949175
sI8
F0.8864320081033173
sI9
F0.8885797991126044
sI10
F0.8864409518625571
sI11
F0.8828169096288766
sI12
F0.8873383468502147
sI13
F0.8910298385482095
sI14
F0.8878895697836992
ssg26
(dp490
I0
F0.0018270841062227002
sI1
Fnan
sI2
Fnan
sI3
Fnan
sI4
Fnan
sI5
Fnan
sI6
Fnan
sI7
Fnan
sI8
Fnan
sI9
Fnan
sI10
Fnan
sI11
Fnan
sI12
Fnan
sI13
Fnan
sI14
Fnan
ssg28
(dp491
I0
F0.8874786866546084
sI1
Fnan
sI2
Fnan
sI3
Fnan
sI4
Fnan
sI5
Fnan
sI6
Fnan
sI7
Fnan
sI8
Fnan
sI9
Fnan
sI10
Fnan
sI11
Fnan
sI12
Fnan
sI13
Fnan
sI14
Fnan
ssg30
(dp492
I0
F11.49
sI1
F11.496
sI2
F11.507
sI3
F11.503
sI4
F11.509
sI5
F11.494
sI6
F11.509
sI7
F11.523
sI8
F11.5
sI9
F11.522
sI10
F11.487
sI11
F11.517
sI12
F11.519
sI13
F11.516
sI14
F11.489
ssg32
(dp493
I0
F8.594125
sI1
F8.897692
sI2
F9.445801
sI3
F9.348048
sI4
F8.730776
sI5
F9.564832
sI6
F9.876961
sI7
F10.11402
sI8
F9.861387
sI9
F9.691913
sI10
F7.913202
sI11
F10.01737
sI12
F9.321472
sI13
F9.515128
sI14
F9.032429
ssg34
(dp494
I0
F2458340.714513889
sI1
F2458340.713032407
sI2
F2458340.748923611
sI3
F2458340.713761574
sI4
F2458340.7504050927
sI5
F2458340.730185185
sI6
F2458340.751909722
sI7
F2458340.7122800928
sI8
F2458340.751157407
sI9
F2458340.7324074074
sI10
F2458340.711527778
sI11
F2458340.749664352
sI12
F2458340.7316666665
sI13
F2458340.7331597223
sI14
F2458340.730925926
ssg36
(dp495
I0
F2.1154864
sI1
Fnan
sI2
Fnan
sI3
Fnan
sI4
Fnan
sI5
Fnan
sI6
Fnan
sI7
Fnan
sI8
Fnan
sI9
Fnan
sI10
Fnan
sI11
Fnan
sI12
Fnan
sI13
Fnan
sI14
Fnan
ssg38
(dp496
I0
F0.8923937333333335
sI1
Fnan
sI2
Fnan
sI3
Fnan
sI4
Fnan
sI5
Fnan
sI6
Fnan
sI7
Fnan
sI8
Fnan
sI9
Fnan
sI10
Fnan
sI11
Fnan
sI12
Fnan
sI13
Fnan
sI14
Fnan
ssg40
(dp497
I0
F0.6903209045427285
sI1
F0.6897942179668922
sI2
F0.689068855972178
sI3
F0.6897899444045698
sI4
F0.6888824036855533
sI5
F0.6885861201680802
sI6
F0.685677963903038
sI7
F0.6861445648541923
sI8
F0.6872743430574835
sI9
F0.6858896537023496
sI10
F0.6887747945738878
sI11
F0.6902593972445672
sI12
F0.6886771946584662
sI13
F0.6895595962414087
sI14
F0.6891492482978118
ssg42
(dp498
I0
F0.0008094851909420194
sI1
Fnan
sI2
Fnan
sI3
Fnan
sI4
Fnan
sI5
Fnan
sI6
Fnan
sI7
Fnan
sI8
Fnan
sI9
Fnan
sI10
Fnan
sI11
Fnan
sI12
Fnan
sI13
Fnan
sI14
Fnan
ssg44
(dp499
I0
F1.1228911333333331
sI1
Fnan
sI2
Fnan
sI3
Fnan
sI4
Fnan
sI5
Fnan
sI6
Fnan
sI7
Fnan
sI8
Fnan
sI9
Fnan
sI10
Fnan
sI11
Fnan
sI12
Fnan
sI13
Fnan
sI14
Fnan
ssg46
(dp500
I0
g473
sI1
g474
sI2
g475
sI3
g476
sI4
g477
sI5
g478
sI6
g479
sI7
g480
sI8
g481
sI9
g482
sI10
g483
sI11
g484
sI12
g485
sI13
g486
sI14
g487
ssg48
(dp501
I0
F0.0019726451587314298
sI1
Fnan
sI2
Fnan
sI3
Fnan
sI4
Fnan
sI5
Fnan
sI6
Fnan
sI7
Fnan
sI8
Fnan
sI9
Fnan
sI10
Fnan
sI11
Fnan
sI12
Fnan
sI13
Fnan
sI14
Fnan
ssg50
(dp502
I0
F0.01137541208044794
sI1
Fnan
sI2
Fnan
sI3
Fnan
sI4
Fnan
sI5
Fnan
sI6
Fnan
sI7
Fnan
sI8
Fnan
sI9
Fnan
sI10
Fnan
sI11
Fnan
sI12
Fnan
sI13
Fnan
sI14
Fnan
ssg52
(dp503
I0
F1.2055370666666667
sI1
Fnan
sI2
Fnan
sI3
Fnan
sI4
Fnan
sI5
Fnan
sI6
Fnan
sI7
Fnan
sI8
Fnan
sI9
Fnan
sI10
Fnan
sI11
Fnan
sI12
Fnan
sI13
Fnan
sI14
Fnan
ssg54
(dp504
I0
F1.509766994545133
sI1
F1.4997154809304432
sI2
F1.5038152570487315
sI3
F1.5028665077574868
sI4
F1.5111390466828607
sI5
F1.5003335244414309
sI6
F1.5046922007250623
sI7
F1.5024824666604986
sI8
F1.5059022623535994
sI9
F1.4978666275907546
sI10
F1.5034635872877338
sI11
F1.5087755850787115
sI12
F1.5053689927076488
sI13
F1.4989651666469759
sI14
F1.4984823857123584
ssg56
(dp505
I0
g473
sI1
g474
sI2
g475
sI3
g476
sI4
g477
sI5
g478
sI6
g479
sI7
g480
sI8
g481
sI9
g482
sI10
g483
sI11
g484
sI12
g485
sI13
g486
sI14
g487
ssg58
(dp506
I0
F9.536452
sI1
F9.468605
sI2
F10.35659
sI3
F10.3953
sI4
F9.347766
sI5
F9.757859
sI6
F9.639181
sI7
F10.67047
sI8
F10.16572
sI9
F9.762886
sI10
F9.82073
sI11
F11.18315
sI12
F9.26633
sI13
F10.85297
sI14
F9.584123
ssg60
(dp507
I0
F10.82573333333333
sI1
Fnan
sI2
Fnan
sI3
Fnan
sI4
Fnan
sI5
Fnan
sI6
Fnan
sI7
Fnan
sI8
Fnan
sI9
Fnan
sI10
Fnan
sI11
Fnan
sI12
Fnan
sI13
Fnan
sI14
Fnan
ssg62
(dp508
I0
F0.7155190062356437
sI1
Fnan
sI2
Fnan
sI3
Fnan
sI4
Fnan
sI5
Fnan
sI6
Fnan
sI7
Fnan
sI8
Fnan
sI9
Fnan
sI10
Fnan
sI11
Fnan
sI12
Fnan
sI13
Fnan
sI14
Fnan
ssg64
(dp509
I0
F2.467251
sI1
F-2.160874
sI2
F-3.119815
sI3
F3.309753
sI4
F2.598862
sI5
F-3.240674
sI6
F3.217495
sI7
F-3.015403
sI8
F4.60625
sI9
F2.022208
sI10
F-2.902977
sI11
F3.636117
sI12
F-1.989482
sI13
F3.542166
sI14
F4.415029
ssg66
(dp510
I0
F11.1884
sI1
Fnan
sI2
Fnan
sI3
Fnan
sI4
Fnan
sI5
Fnan
sI6
Fnan
sI7
Fnan
sI8
Fnan
sI9
Fnan
sI10
Fnan
sI11
Fnan
sI12
Fnan
sI13
Fnan
sI14
Fnan
ssg68
(dp511
I0
g473
sI1
g474
sI2
g475
sI3
g476
sI4
g477
sI5
g478
sI6
g479
sI7
g480
sI8
g481
sI9
g482
sI10
g483
sI11
g484
sI12
g485
sI13
g486
sI14
g487
ssg70
(dp512
I0
F8502.546666666667
sI1
F8476.026666666667
sI2
F8385.466666666667
sI3
F8410.133333333333
sI4
F8366.890000000001
sI5
F8489.93
sI6
F8417.083333333334
sI7
F8308.793333333333
sI8
F8459.59
sI9
F8322.093333333332
sI10
F8539.0
sI11
F8268.763333333332
sI12
F8303.94
sI13
F8336.79
sI14
F8529.876666666667
ssg72
(dp513
I0
F1.0390840000000001
sI1
F1.041025
sI2
F1.0093969999999999
sI3
F1.040052
sI4
F1.008737
sI5
F1.0220790000000002
sI6
F1.0081200000000001
sI7
F1.0420049999999998
sI8
F1.008419
sI9
F1.020138
sI10
F1.0430110000000001
sI11
F1.0090620000000001
sI12
F1.020774
sI13
F1.0195040000000002
sI14
F1.02142
ssg74
(dp514
I0
F7260.746666666667
sI1
F7258.126666666666
sI2
F7194.5233333333335
sI3
F7218.64
sI4
F7150.296666666666
sI5
F7301.016666666666
sI6
F7199.966666666666
sI7
F7111.3533333333335
sI8
F7254.723333333333
sI9
F7146.373333333334
sI10
F7333.753333333333
sI11
F7122.043333333333
sI12
F7112.67
sI13
F7124.636666666667
sI14
F7330.543333333333
ssg76
(dp515
I0
F11899.45
sI1
F11798.376666666667
sI2
F11714.713333333335
sI3
F11743.980000000001
sI4
F11724.313333333334
sI5
F11845.843333333332
sI6
F11749.426666666666
sI7
F11584.25
sI8
F11832.109999999999
sI9
F11584.85
sI10
F11932.053333333333
sI11
F11610.636666666665
sI12
F11603.843333333332
sI13
F11588.07
sI14
F11883.28
ssg78
(dp516
I0
F9.47096
sI1
F9.981688
sI2
F10.12632
sI3
F9.3009
sI4
F9.725286
sI5
F10.1311
sI6
F9.549887
sI7
F10.22641
sI8
F9.113138
sI9
F10.13715
sI10
F10.23388
sI11
F9.315054
sI12
F10.2965
sI13
F9.826637
sI14
F9.1964
ssg80
(dp517
I0
F11.348
sI1
F11.348
sI2
F11.357
sI3
F11.354
sI4
F11.364
sI5
F11.342
sI6
F11.357
sI7
F11.37
sI8
F11.348
sI9
F11.365
sI10
F11.337
sI11
F11.368
sI12
F11.37
sI13
F11.368
sI14
F11.337
ssg82
(dp518
I0
F0.002
sI1
F0.002
sI2
F0.002
sI3
F0.002
sI4
F0.002
sI5
F0.002
sI6
F0.002
sI7
F0.002
sI8
F0.002
sI9
F0.002
sI10
F0.002
sI11
F0.002
sI12
F0.002
sI13
F0.002
sI14
F0.002
ssg84
(dp519
I0
F0.6885232802182137
sI1
Fnan
sI2
Fnan
sI3
Fnan
sI4
Fnan
sI5
Fnan
sI6
Fnan
sI7
Fnan
sI8
Fnan
sI9
Fnan
sI10
Fnan
sI11
Fnan
sI12
Fnan
sI13
Fnan
sI14
Fnan
ssg86
(dp520
I0
F11.355533333333334
sI1
Fnan
sI2
Fnan
sI3
Fnan
sI4
Fnan
sI5
Fnan
sI6
Fnan
sI7
Fnan
sI8
Fnan
sI9
Fnan
sI10
Fnan
sI11
Fnan
sI12
Fnan
sI13
Fnan
sI14
Fnan
ssg88
(dp521
I0
F11.176
sI1
F11.18
sI2
F11.191
sI3
F11.188
sI4
F11.194
sI5
F11.178
sI6
F11.187
sI7
F11.201
sI8
F11.182
sI9
F11.199
sI10
F11.171
sI11
F11.206
sI12
F11.202
sI13
F11.198
sI14
F11.173
ssg90
(dp522
I0
F3.79431
sI1
F2.078926
sI2
F2.583163
sI3
F3.710353
sI4
F-1.464431
sI5
F1.918482
sI6
F4.562734
sI7
F3.419331
sI8
F3.955246
sI9
F-1.824291
sI10
F1.926285
sI11
F-3.936836
sI12
F3.455549
sI13
F3.77524
sI14
F3.778235
ssg92
(dp523
I0
F0.011392144327603413
sI1
Fnan
sI2
Fnan
sI3
Fnan
sI4
Fnan
sI5
Fnan
sI6
Fnan
sI7
Fnan
sI8
Fnan
sI9
Fnan
sI10
Fnan
sI11
Fnan
sI12
Fnan
sI13
Fnan
sI14
Fnan
ssg94
(dp524
I0
F0.7117682435983799
sI1
F0.715989175842577
sI2
F0.7158665577455857
sI3
F0.7163440912144651
sI4
F0.7117838138448982
sI5
F0.7180466212906911
sI6
F0.714051828171227
sI7
F0.7149588139103233
sI8
F0.7150434249800002
sI9
F0.7179779651421456
sI10
F0.7164998511719638
sI11
F0.7165249789564407
sI12
F0.7145617250204485
sI13
F0.7151504870465004
sI14
F0.7182175155990081
ssg96
(dp525
I0
F30.0
sI1
F30.0
sI2
F30.0
sI3
F30.0
sI4
F30.0
sI5
F30.0
sI6
F30.0
sI7
F30.0
sI8
F30.0
sI9
F30.0
sI10
F30.0
sI11
F30.0
sI12
F30.0
sI13
F30.0
sI14
F30.0
ssg98
(dp526
I0
F0.002
sI1
F0.002
sI2
F0.002
sI3
F0.002
sI4
F0.002
sI5
F0.002
sI6
F0.002
sI7
F0.002
sI8
F0.002
sI9
F0.002
sI10
F0.002
sI11
F0.002
sI12
F0.002
sI13
F0.002
sI14
F0.002
ssg100
(dp527
I0
F0.002
sI1
F0.002
sI2
F0.002
sI3
F0.002
sI4
F0.002
sI5
F0.002
sI6
F0.002
sI7
F0.002
sI8
F0.002
sI9
F0.002
sI10
F0.002
sI11
F0.002
sI12
F0.002
sI13
F0.002
sI14
F0.002
ssg102
(dp528
I0
F3.238789
sI1
F-1.78175
sI2
F4.265747
sI3
F2.622539
sI4
F4.480298
sI5
F-1.836501
sI6
F4.713498
sI7
F4.727683
sI8
F1.461918
sI9
F4.208274
sI10
F-2.017839
sI11
F-3.541022
sI12
F3.1559
sI13
F-2.358121
sI14
F-3.256357
ssg104
(dp529
I0
S'KIC8462852-20180810at050854_-25-1X1-030-V_cal.fts.mag.1'
p530
sI1
S'KIC8462852-20180810at050646_-25-1X1-030-V_cal.fts.mag.1'
p531
sI2
S'KIC8462852-20180810at055820_-25-1X1-030-V_cal.fts.mag.1'
p532
sI3
S'KIC8462852-20180810at050749_-25-1X1-030-V_cal.fts.mag.1'
p533
sI4
S'KIC8462852-20180810at060035_-25-1X1-030-V_cal.fts.mag.1'
p534
sI5
S'KIC8462852-20180810at053120_-25-1X1-030-V_cal.fts.mag.1'
p535
sI6
S'KIC8462852-20180810at060245_-25-1X1-030-V_cal.fts.mag.1'
p536
sI7
S'KIC8462852-20180810at050541_-25-1X1-030-V_cal.fts.mag.1'
p537
sI8
S'KIC8462852-20180810at060140_-25-1X1-030-V_cal.fts.mag.1'
p538
sI9
S'KIC8462852-20180810at053440_-25-1X1-030-V_cal.fts.mag.1'
p539
sI10
S'KIC8462852-20180810at050429_-25-1X1-030-V_cal.fts.mag.1'
p540
sI11
S'KIC8462852-20180810at055931_-25-1X1-030-V_cal.fts.mag.1'
p541
sI12
S'KIC8462852-20180810at053336_-25-1X1-030-V_cal.fts.mag.1'
p542
sI13
S'KIC8462852-20180810at053545_-25-1X1-030-V_cal.fts.mag.1'
p543
sI14
S'KIC8462852-20180810at053232_-25-1X1-030-V_cal.fts.mag.1'
p544
ssg121
(dp545
I0
F0.004135421469478056
sI1
Fnan
sI2
Fnan
sI3
Fnan
sI4
Fnan
sI5
Fnan
sI6
Fnan
sI7
Fnan
sI8
Fnan
sI9
Fnan
sI10
Fnan
sI11
Fnan
sI12
Fnan
sI13
Fnan
sI14
Fnan
ssg123
(dp546
I0
F6365.39
sI1
F6330.593333333333
sI2
F6269.3099999999995
sI3
F6293.816666666667
sI4
F6255.3966666666665
sI5
F6343.4366666666665
sI6
F6254.863333333333
sI7
F6176.306666666667
sI8
F6310.65
sI9
F6185.196666666667
sI10
F6383.75
sI11
F6212.666666666667
sI12
F6202.79
sI13
F6217.413333333333
sI14
F6373.183333333333
ssg125
(dp547
I0
F0.011764757702966975
sI1
Fnan
sI2
Fnan
sI3
Fnan
sI4
Fnan
sI5
Fnan
sI6
Fnan
sI7
Fnan
sI8
Fnan
sI9
Fnan
sI10
Fnan
sI11
Fnan
sI12
Fnan
sI13
Fnan
sI14
Fnan
ssg127
(dp548
I0
g469
sI1
g469
sI2
g469
sI3
g469
sI4
g469
sI5
g469
sI6
g469
sI7
g469
sI8
g469
sI9
g469
sI10
g469
sI11
g469
sI12
g469
sI13
g469
sI14
g469
ssg144
(dp549
I0
F0.0015514630957879916
sI1
Fnan
sI2
Fnan
sI3
Fnan
sI4
Fnan
sI5
Fnan
sI6
Fnan
sI7
Fnan
sI8
Fnan
sI9
Fnan
sI10
Fnan
sI11
Fnan
sI12
Fnan
sI13
Fnan
sI14
Fnan
ssg146
(dp550
I0
F-3.393072
sI1
F3.279562
sI2
F3.105542
sI3
F1.443416
sI4
F3.805394
sI5
F-1.077531
sI6
F-1.567603
sI7
F2.808576
sI8
F-3.054266
sI9
F2.760363
sI10
F3.578569
sI11
F2.27925
sI12
F3.095442
sI13
F-2.478035
sI14
F2.25776
ssg148
(dp551
I0
F1.5035757390779618
sI1
Fnan
sI2
Fnan
sI3
Fnan
sI4
Fnan
sI5
Fnan
sI6
Fnan
sI7
Fnan
sI8
Fnan
sI9
Fnan
sI10
Fnan
sI11
Fnan
sI12
Fnan
sI13
Fnan
sI14
Fnan
ssg150
(dp552
I0
F2458340.7316666665
sI1
Fnan
sI2
Fnan
sI3
Fnan
sI4
Fnan
sI5
Fnan
sI6
Fnan
sI7
Fnan
sI8
Fnan
sI9
Fnan
sI10
Fnan
sI11
Fnan
sI12
Fnan
sI13
Fnan
sI14
Fnan
ssg152
(dp553
I0
F0.0015514630957879916
sI1
Fnan
sI2
Fnan
sI3
Fnan
sI4
Fnan
sI5
Fnan
sI6
Fnan
sI7
Fnan
sI8
Fnan
sI9
Fnan
sI10
Fnan
sI11
Fnan
sI12
Fnan
sI13
Fnan
sI14
Fnan
ssg154
(dp554
I0
F11.04315
sI1
F12.86476
sI2
F11.63225
sI3
F12.26557
sI4
F11.34991
sI5
F11.14999
sI6
F10.88999
sI7
F12.60457
sI8
F10.58223
sI9
F12.09901
sI10
F11.51906
sI11
F12.49166
sI12
F11.79408
sI13
F11.3429
sI14
F11.11693
ssg156
(dp555
I0
F10.811
sI1
F10.82
sI2
F10.828
sI3
F10.825
sI4
F10.827
sI5
F10.816
sI6
F10.825
sI7
F10.84
sI8
F10.817
sI9
F10.84
sI10
F10.808
sI11
F10.838
sI12
F10.838
sI13
F10.84
sI14
F10.813
ssg158
(dp556
I0
F0.6885232802182137
sI1
Fnan
sI2
Fnan
sI3
Fnan
sI4
Fnan
sI5
Fnan
sI6
Fnan
sI7
Fnan
sI8
Fnan
sI9
Fnan
sI10
Fnan
sI11
Fnan
sI12
Fnan
sI13
Fnan
sI14
Fnan
sss.