(dp0
S'i'
p1
(dp2
S'sigmean'
p3
(dp4
I0
F0.43714331321542677
sI1
Fnan
sI2
Fnan
sI3
Fnan
sI4
Fnan
sI5
Fnan
sI6
Fnan
sI7
Fnan
sI8
Fnan
sI9
Fnan
sI10
Fnan
sI11
Fnan
sI12
Fnan
sI13
Fnan
sI14
Fnan
ssS'ref3flag'
p5
(dp6
I0
S'NoError'
p7
sI1
S'NoError'
p8
sI2
S'NoError'
p9
sI3
S'NoError'
p10
sI4
S'NoError'
p11
sI5
S'NoError'
p12
sI6
S'NoError'
p13
sI7
S'NoError'
p14
sI8
S'NoError'
p15
sI9
S'NoError'
p16
sI10
S'NoError'
p17
sI11
S'NoError'
p18
sI12
S'NoError'
p19
sI13
S'NoError'
p20
sI14
S'NoError'
p21
ssS'tabbyerr'
p22
(dp23
I0
F0.003
sI1
F0.003
sI2
F0.003
sI3
F0.003
sI4
F0.003
sI5
F0.003
sI6
F0.003
sI7
F0.003
sI8
F0.003
sI9
F0.003
sI10
F0.003
sI11
F0.003
sI12
F0.003
sI13
F0.003
sI14
F0.003
ssS'ref2rel'
p24
(dp25
I0
F0.913307208939489
sI1
F0.914303519808997
sI2
F0.9151197193490502
sI3
F0.9124478844728359
sI4
F0.9114360488753109
sI5
F0.9095087746453735
sI6
F0.9150565017900706
sI7
F0.9129775312749715
sI8
F0.9124677352172359
sI9
F0.9138033703080702
sI10
F0.9083748630219652
sI11
F0.9136425657712482
sI12
F0.9128218592251655
sI13
F0.9100593508449881
sI14
F0.9103349660715854
ssS'ref2err'
p26
(dp27
I0
F0.0020381643284317747
sI1
Fnan
sI2
Fnan
sI3
Fnan
sI4
Fnan
sI5
Fnan
sI6
Fnan
sI7
Fnan
sI8
Fnan
sI9
Fnan
sI10
Fnan
sI11
Fnan
sI12
Fnan
sI13
Fnan
sI14
Fnan
ssS'ref2mean'
p28
(dp29
I0
F0.9123774599744239
sI1
Fnan
sI2
Fnan
sI3
Fnan
sI4
Fnan
sI5
Fnan
sI6
Fnan
sI7
Fnan
sI8
Fnan
sI9
Fnan
sI10
Fnan
sI11
Fnan
sI12
Fnan
sI13
Fnan
sI14
Fnan
ssS'tabbymag'
p30
(dp31
I0
F11.937
sI1
F11.909
sI2
F11.909
sI3
F11.917
sI4
F11.914
sI5
F11.867
sI6
F11.904
sI7
F11.896
sI8
F11.917
sI9
F11.929
sI10
F11.875
sI11
F11.895
sI12
F11.935
sI13
F11.923
sI14
F11.887
ssS'tabbybkg'
p32
(dp33
I0
F11.74836
sI1
F10.2328
sI2
F11.77535
sI3
F11.34763
sI4
F11.34297
sI5
F11.5529
sI6
F11.50609
sI7
F11.04744
sI8
F11.01221
sI9
F9.817496
sI10
F9.890625
sI11
F10.5971
sI12
F10.70896
sI13
F10.65259
sI14
F9.370129
ssS'JD'
p34
(dp35
I0
F2458334.8002314814
sI1
F2458334.782962963
sI2
F2458334.817476852
sI3
F2458334.7994907405
sI4
F2458334.801689815
sI5
F2458334.8204166666
sI6
F2458334.8009606483
sI7
F2458334.8182060183
sI8
F2458334.818946759
sI9
F2458334.782222222
sI10
F2458334.819675926
sI11
F2458334.798761574
sI12
F2458334.7807523147
sI13
F2458334.7800231483
sI14
F2458334.7814930556
ssS'ref3rmsmean'
p36
(dp37
I0
F2.5349179333333334
sI1
Fnan
sI2
Fnan
sI3
Fnan
sI4
Fnan
sI5
Fnan
sI6
Fnan
sI7
Fnan
sI8
Fnan
sI9
Fnan
sI10
Fnan
sI11
Fnan
sI12
Fnan
sI13
Fnan
sI14
Fnan
ssS'ref1rmsmean'
p38
(dp39
I0
F3.3181067333333334
sI1
Fnan
sI2
Fnan
sI3
Fnan
sI4
Fnan
sI5
Fnan
sI6
Fnan
sI7
Fnan
sI8
Fnan
sI9
Fnan
sI10
Fnan
sI11
Fnan
sI12
Fnan
sI13
Fnan
sI14
Fnan
ssS'relflux'
p40
(dp41
I0
F0.4343499740638088
sI1
F0.4396105299327393
sI2
F0.4360223187102607
sI3
F0.4359084324521407
sI4
F0.4353830732291569
sI5
F0.4396233169075168
sI6
F0.4359708228805163
sI7
F0.4398273226591329
sI8
F0.4354454940465097
sI9
F0.437652594136061
sI10
F0.4418415163897843
sI11
F0.437522453867207
sI12
F0.4379166684413669
sI13
F0.4351436417809931
sI14
F0.4396297419085645
ssS'sigerr'
p42
(dp43
I0
F0.0018624822328056605
sI1
Fnan
sI2
Fnan
sI3
Fnan
sI4
Fnan
sI5
Fnan
sI6
Fnan
sI7
Fnan
sI8
Fnan
sI9
Fnan
sI10
Fnan
sI11
Fnan
sI12
Fnan
sI13
Fnan
sI14
Fnan
ssS'tabbyrmsmean'
p44
(dp45
I0
F0.7689956666666669
sI1
Fnan
sI2
Fnan
sI3
Fnan
sI4
Fnan
sI5
Fnan
sI6
Fnan
sI7
Fnan
sI8
Fnan
sI9
Fnan
sI10
Fnan
sI11
Fnan
sI12
Fnan
sI13
Fnan
sI14
Fnan
ssS'tabbyflag'
p46
(dp47
I0
g7
sI1
g8
sI2
g9
sI3
g10
sI4
g11
sI5
g12
sI6
g13
sI7
g14
sI8
g15
sI9
g16
sI10
g17
sI11
g18
sI12
g19
sI13
g20
sI14
g21
ssS'ref1err'
p48
(dp49
I0
F0.0020981787184940633
sI1
Fnan
sI2
Fnan
sI3
Fnan
sI4
Fnan
sI5
Fnan
sI6
Fnan
sI7
Fnan
sI8
Fnan
sI9
Fnan
sI10
Fnan
sI11
Fnan
sI12
Fnan
sI13
Fnan
sI14
Fnan
ssS'ref2magmeanerr'
p50
(dp51
I0
F0.016377975920061197
sI1
Fnan
sI2
Fnan
sI3
Fnan
sI4
Fnan
sI5
Fnan
sI6
Fnan
sI7
Fnan
sI8
Fnan
sI9
Fnan
sI10
Fnan
sI11
Fnan
sI12
Fnan
sI13
Fnan
sI14
Fnan
ssS'ref2rmsmean'
p52
(dp53
I0
F1.0437976666666668
sI1
Fnan
sI2
Fnan
sI3
Fnan
sI4
Fnan
sI5
Fnan
sI6
Fnan
sI7
Fnan
sI8
Fnan
sI9
Fnan
sI10
Fnan
sI11
Fnan
sI12
Fnan
sI13
Fnan
sI14
Fnan
ssS'ref3rel'
p54
(dp55
I0
F1.5024728774877287
sI1
F1.4900527931536278
sI2
F1.4966299298839225
sI3
F1.5005190647008577
sI4
F1.499420011242315
sI5
F1.5048215311431739
sI6
F1.4923682708865482
sI7
F1.4991078418593107
sI8
F1.4982291369364358
sI9
F1.4981373314629614
sI10
F1.502672315291042
sI11
F1.4939043878921352
sI12
F1.4892028234428418
sI13
F1.5037045318224218
sI14
F1.4995048619097688
ssS'ref1flag'
p56
(dp57
I0
g7
sI1
g8
sI2
g9
sI3
g10
sI4
g11
sI5
g12
sI6
g13
sI7
g14
sI8
g15
sI9
g16
sI10
g17
sI11
g18
sI12
g19
sI13
g20
sI14
g21
ssS'ref2bkg'
p58
(dp59
I0
F14.94084
sI1
F12.21288
sI2
F14.24461
sI3
F13.28007
sI4
F13.72697
sI5
F13.10677
sI6
F12.56829
sI7
F13.54577
sI8
F14.45658
sI9
F12.81915
sI10
F14.23664
sI11
F13.39309
sI12
F12.74334
sI13
F13.01116
sI14
F10.45445
ssS'ref3magmean'
p60
(dp61
I0
F10.737866666666669
sI1
Fnan
sI2
Fnan
sI3
Fnan
sI4
Fnan
sI5
Fnan
sI6
Fnan
sI7
Fnan
sI8
Fnan
sI9
Fnan
sI10
Fnan
sI11
Fnan
sI12
Fnan
sI13
Fnan
sI14
Fnan
ssS'ref1mean'
p62
(dp63
I0
F0.6971373237500099
sI1
Fnan
sI2
Fnan
sI3
Fnan
sI4
Fnan
sI5
Fnan
sI6
Fnan
sI7
Fnan
sI8
Fnan
sI9
Fnan
sI10
Fnan
sI11
Fnan
sI12
Fnan
sI13
Fnan
sI14
Fnan
ssS'ref1rms'
p64
(dp65
I0
F2.819831
sI1
F4.535783
sI2
F3.332965
sI3
F4.248486
sI4
F2.982132
sI5
F3.109137
sI6
F3.000124
sI7
F2.952451
sI8
F3.947832
sI9
F3.705117
sI10
F2.105313
sI11
F2.072537
sI12
F3.597849
sI13
F3.67848
sI14
F3.683564
ssS'ref2magmean'
p66
(dp67
I0
F11.077333333333334
sI1
Fnan
sI2
Fnan
sI3
Fnan
sI4
Fnan
sI5
Fnan
sI6
Fnan
sI7
Fnan
sI8
Fnan
sI9
Fnan
sI10
Fnan
sI11
Fnan
sI12
Fnan
sI13
Fnan
sI14
Fnan
ssS'ref2flag'
p68
(dp69
I0
g7
sI1
g8
sI2
g9
sI3
g10
sI4
g11
sI5
g12
sI6
g13
sI7
g14
sI8
g15
sI9
g16
sI10
g17
sI11
g18
sI12
g19
sI13
g20
sI14
g21
ssS'ref2'
p70
(dp71
I0
F9133.866666666667
sI1
F9267.35
sI2
F9353.873333333333
sI3
F9262.92
sI4
F9296.246666666668
sI5
F9597.303333333333
sI6
F9391.313333333334
sI7
F9366.846666666668
sI8
F9273.683333333332
sI9
F9138.373333333333
sI10
F9470.663333333334
sI11
F9432.366666666667
sI12
F9074.366666666667
sI13
F9212.91
sI14
F9430.666666666666
ssS'airmass'
p72
(dp73
I0
F1.006881
sI1
F1.004736
sI2
F1.015693
sI3
F1.006652
sI4
F1.007368
sI5
F1.017876
sI6
F1.007118
sI7
F1.016217
sI8
F1.0167549999999999
sI9
F1.004792
sI10
F1.017313
sI11
F1.0064389999999999
sI12
F1.00494
sI13
F1.005031
sI14
F1.004859
ssS'ref1'
p74
(dp75
I0
F7503.296666666666
sI1
F7660.35
sI2
F7689.293333333333
sI3
F7629.6433333333325
sI4
F7675.346666666666
sI5
F7922.373333333334
sI6
F7741.763333333333
sI7
F7715.326666666666
sI8
F7649.326666666666
sI9
F7521.416666666667
sI10
F7843.286666666667
sI11
F7786.303333333333
sI12
F7523.336666666667
sI13
F7603.429999999999
sI14
F7800.216666666666
ssS'ref3'
p76
(dp77
I0
F12498.443333333333
sI1
F12611.583333333334
sI2
F12753.656666666668
sI3
F12673.806666666667
sI4
F12723.773333333334
sI5
F13181.993333333334
sI6
F12784.43
sI7
F12804.01
sI8
F12677.273333333334
sI9
F12479.326666666666
sI10
F13008.596666666668
sI11
F12861.523333333334
sI12
F12358.673333333334
sI13
F12643.403333333332
sI14
F12918.896666666667
ssS'ref1bkg'
p78
(dp79
I0
F13.39424
sI1
F11.00733
sI2
F13.43843
sI3
F11.97856
sI4
F11.93231
sI5
F12.29918
sI6
F11.9433
sI7
F13.48606
sI8
F13.06976
sI9
F10.92553
sI10
F12.60004
sI11
F12.18903
sI12
F11.19591
sI13
F10.86162
sI14
F9.818956
ssS'ref1mag'
p80
(dp81
I0
F11.312
sI1
F11.289
sI2
F11.285
sI3
F11.294
sI4
F11.287
sI5
F11.253
sI6
F11.278
sI7
F11.282
sI8
F11.291
sI9
F11.309
sI10
F11.264
sI11
F11.272
sI12
F11.309
sI13
F11.297
sI14
F11.27
ssS'ref3magerr'
p82
(dp83
I0
F0.002
sI1
F0.002
sI2
F0.002
sI3
F0.002
sI4
F0.002
sI5
F0.002
sI6
F0.002
sI7
F0.002
sI8
F0.002
sI9
F0.002
sI10
F0.002
sI11
F0.002
sI12
F0.002
sI13
F0.002
sI14
F0.002
ssS'tabbymagmean'
p84
(dp85
I0
F0.43745652676038393
sI1
Fnan
sI2
Fnan
sI3
Fnan
sI4
Fnan
sI5
Fnan
sI6
Fnan
sI7
Fnan
sI8
Fnan
sI9
Fnan
sI10
Fnan
sI11
Fnan
sI12
Fnan
sI13
Fnan
sI14
Fnan
ssS'ref1magmean'
p86
(dp87
I0
F11.286133333333334
sI1
Fnan
sI2
Fnan
sI3
Fnan
sI4
Fnan
sI5
Fnan
sI6
Fnan
sI7
Fnan
sI8
Fnan
sI9
Fnan
sI10
Fnan
sI11
Fnan
sI12
Fnan
sI13
Fnan
sI14
Fnan
ssS'ref2mag'
p88
(dp89
I0
F11.098
sI1
F11.083
sI2
F11.073
sI3
F11.083
sI4
F11.079
sI5
F11.045
sI6
F11.068
sI7
F11.071
sI8
F11.082
sI9
F11.098
sI10
F11.059
sI11
F11.063
sI12
F11.105
sI13
F11.089
sI14
F11.064
ssS'ref3rms'
p90
(dp91
I0
F4.052494
sI1
F-3.448576
sI2
F3.360756
sI3
F5.628117
sI4
F-2.468905
sI5
F2.058758
sI6
F2.750996
sI7
F3.772146
sI8
F3.946282
sI9
F3.268248
sI10
F3.134337
sI11
F2.903771
sI12
F3.386886
sI13
F3.266269
sI14
F2.41219
ssS'ref3magmeanerr'
p92
(dp93
I0
F0.01804702851150945
sI1
Fnan
sI2
Fnan
sI3
Fnan
sI4
Fnan
sI5
Fnan
sI6
Fnan
sI7
Fnan
sI8
Fnan
sI9
Fnan
sI10
Fnan
sI11
Fnan
sI12
Fnan
sI13
Fnan
sI14
Fnan
ssS'ref1rel'
p94
(dp95
I0
F0.6937120138040428
sI1
F0.7002489457133803
sI2
F0.6956266333989671
sI3
F0.6956045402094325
sI4
F0.6971244046705375
sI5
F0.6955766413039677
sI6
F0.6982190600751002
sI7
F0.6959881417903412
sI8
F0.6969469971468214
sI9
F0.6958572527758891
sI10
F0.6978242759473992
sI11
F0.6985145556323579
sI12
F0.7020316918800755
sI13
F0.6957650985359837
sI14
F0.6980196033658524
ssS'exposure'
p96
(dp97
I0
F30.0
sI1
F30.0
sI2
F30.0
sI3
F30.0
sI4
F30.0
sI5
F30.0
sI6
F30.0
sI7
F30.0
sI8
F30.0
sI9
F30.0
sI10
F30.0
sI11
F30.0
sI12
F30.0
sI13
F30.0
sI14
F30.0
ssS'ref1magerr'
p98
(dp99
I0
F0.002
sI1
F0.002
sI2
F0.002
sI3
F0.002
sI4
F0.002
sI5
F0.002
sI6
F0.002
sI7
F0.002
sI8
F0.002
sI9
F0.002
sI10
F0.002
sI11
F0.002
sI12
F0.002
sI13
F0.002
sI14
F0.002
ssS'ref2magerr'
p100
(dp101
I0
F0.002
sI1
F0.002
sI2
F0.002
sI3
F0.002
sI4
F0.002
sI5
F0.002
sI6
F0.002
sI7
F0.002
sI8
F0.002
sI9
F0.002
sI10
F0.002
sI11
F0.002
sI12
F0.002
sI13
F0.002
sI14
F0.002
ssS'ref2rms'
p102
(dp103
I0
F2.090753
sI1
F4.110314
sI2
F-3.517249
sI3
F3.509541
sI4
F-2.120969
sI5
F3.419235
sI6
F2.82457
sI7
F3.129131
sI8
F2.915649
sI9
F-3.279793
sI10
F3.137927
sI11
F-3.21852
sI12
F4.682444
sI13
F-4.195412
sI14
F2.169344
ssS'name'
p104
(dp105
I0
S"KIC8462852-20180804at071220_-25-1X1-030-i'_cal.fts.mag.1"
p106
sI1
S"KIC8462852-20180804at064728_-25-1X1-030-i'_cal.fts.mag.1"
p107
sI2
S"KIC8462852-20180804at073709_-25-1X1-030-i'_cal.fts.mag.1"
p108
sI3
S"KIC8462852-20180804at071116_-25-1X1-030-i'_cal.fts.mag.1"
p109
sI4
S"KIC8462852-20180804at071426_-25-1X1-030-i'_cal.fts.mag.1"
p110
sI5
S"KIC8462852-20180804at074124_-25-1X1-030-i'_cal.fts.mag.1"
p111
sI6
S"KIC8462852-20180804at071323_-25-1X1-030-i'_cal.fts.mag.1"
p112
sI7
S"KIC8462852-20180804at073813_-25-1X1-030-i'_cal.fts.mag.1"
p113
sI8
S"KIC8462852-20180804at073917_-25-1X1-030-i'_cal.fts.mag.1"
p114
sI9
S"KIC8462852-20180804at064624_-25-1X1-030-i'_cal.fts.mag.1"
p115
sI10
S"KIC8462852-20180804at074020_-25-1X1-030-i'_cal.fts.mag.1"
p116
sI11
S"KIC8462852-20180804at071012_-25-1X1-030-i'_cal.fts.mag.1"
p117
sI12
S"KIC8462852-20180804at064417_-25-1X1-030-i'_cal.fts.mag.1"
p118
sI13
S"KIC8462852-20180804at064312_-25-1X1-030-i'_cal.fts.mag.1"
p119
sI14
S"KIC8462852-20180804at064520_-25-1X1-030-i'_cal.fts.mag.1"
p120
ssS'ref3err'
p121
(dp122
I0
F0.004808594860156576
sI1
Fnan
sI2
Fnan
sI3
Fnan
sI4
Fnan
sI5
Fnan
sI6
Fnan
sI7
Fnan
sI8
Fnan
sI9
Fnan
sI10
Fnan
sI11
Fnan
sI12
Fnan
sI13
Fnan
sI14
Fnan
ssS'tabby'
p123
(dp124
I0
F4218.35
sI1
F4328.593333333333
sI2
F4330.693333333334
sI3
F4296.076666666667
sI4
F4309.62
sI5
F4499.056666666667
sI6
F4347.72
sI7
F4381.586666666667
sI8
F4296.4366666666665
sI9
F4250.9366666666665
sI10
F4465.92
sI11
F4386.92
sI12
F4226.826666666667
sI13
F4273.073333333333
sI14
F4418.246666666667
ssS'ref1magmeanerr'
p125
(dp126
I0
F0.01702882709939086
sI1
Fnan
sI2
Fnan
sI3
Fnan
sI4
Fnan
sI5
Fnan
sI6
Fnan
sI7
Fnan
sI8
Fnan
sI9
Fnan
sI10
Fnan
sI11
Fnan
sI12
Fnan
sI13
Fnan
sI14
Fnan
ssS'filter'
p127
(dp128
I0
S"i'"
p129
sI1
S"i'"
p130
sI2
S"i'"
p131
sI3
S"i'"
p132
sI4
S"i'"
p133
sI5
S"i'"
p134
sI6
S"i'"
p135
sI7
S"i'"
p136
sI8
S"i'"
p137
sI9
S"i'"
p138
sI10
S"i'"
p139
sI11
S"i'"
p140
sI12
S"i'"
p141
sI13
S"i'"
p142
sI14
S"i'"
p143
ssS'tabbymagerr'
p144
(dp145
I0
F0.002222696771646171
sI1
Fnan
sI2
Fnan
sI3
Fnan
sI4
Fnan
sI5
Fnan
sI6
Fnan
sI7
Fnan
sI8
Fnan
sI9
Fnan
sI10
Fnan
sI11
Fnan
sI12
Fnan
sI13
Fnan
sI14
Fnan
ssS'tabbyrms'
p146
(dp147
I0
F1.980744
sI1
F-2.723566
sI2
F2.655785
sI3
F4.749564
sI4
F3.712608
sI5
F-1.839727
sI6
F-3.153406
sI7
F3.157945
sI8
F3.531936
sI9
F-3.353034
sI10
F4.081439
sI11
F3.655562
sI12
F-3.188084
sI13
F-3.735912
sI14
F2.003081
ssS'ref3mean'
p148
(dp149
I0
F1.4980498472743398
sI1
Fnan
sI2
Fnan
sI3
Fnan
sI4
Fnan
sI5
Fnan
sI6
Fnan
sI7
Fnan
sI8
Fnan
sI9
Fnan
sI10
Fnan
sI11
Fnan
sI12
Fnan
sI13
Fnan
sI14
Fnan
ssS'median_JD'
p150
(dp151
I0
F2458334.8002314814
sI1
Fnan
sI2
Fnan
sI3
Fnan
sI4
Fnan
sI5
Fnan
sI6
Fnan
sI7
Fnan
sI8
Fnan
sI9
Fnan
sI10
Fnan
sI11
Fnan
sI12
Fnan
sI13
Fnan
sI14
Fnan
ssS'error'
p152
(dp153
I0
F0.002222696771646171
sI1
Fnan
sI2
Fnan
sI3
Fnan
sI4
Fnan
sI5
Fnan
sI6
Fnan
sI7
Fnan
sI8
Fnan
sI9
Fnan
sI10
Fnan
sI11
Fnan
sI12
Fnan
sI13
Fnan
sI14
Fnan
ssS'ref3bkg'
p154
(dp155
I0
F18.3943
sI1
F15.85256
sI2
F17.07075
sI3
F15.68047
sI4
F15.63346
sI5
F14.25738
sI6
F15.50685
sI7
F16.43782
sI8
F16.21333
sI9
F14.27748
sI10
F14.30471
sI11
F14.46945
sI12
F15.38612
sI13
F13.00581
sI14
F12.93987
ssS'ref3mag'
p156
(dp157
I0
F10.758
sI1
F10.748
sI2
F10.736
sI3
F10.743
sI4
F10.738
sI5
F10.7
sI6
F10.733
sI7
F10.732
sI8
F10.742
sI9
F10.76
sI10
F10.714
sI11
F10.727
sI12
F10.77
sI13
F10.745
sI14
F10.722
ssS'mean'
p158
(dp159
I0
F0.43745652676038393
sI1
Fnan
sI2
Fnan
sI3
Fnan
sI4
Fnan
sI5
Fnan
sI6
Fnan
sI7
Fnan
sI8
Fnan
sI9
Fnan
sI10
Fnan
sI11
Fnan
sI12
Fnan
sI13
Fnan
sI14
Fnan
sssS'r'
p160
(dp161
g3
(dp162
I0
F0.5476521431770237
sI1
Fnan
sI2
Fnan
sI3
Fnan
sI4
Fnan
sI5
Fnan
sI6
Fnan
sI7
Fnan
sI8
Fnan
sI9
Fnan
sI10
Fnan
sI11
Fnan
sI12
Fnan
sI13
Fnan
sI14
Fnan
sI15
Fnan
sI16
Fnan
sI17
Fnan
sI18
Fnan
sI19
Fnan
sI20
Fnan
sI21
Fnan
sI22
Fnan
sI23
Fnan
sI24
Fnan
sI25
Fnan
sI26
Fnan
sI27
Fnan
sI28
Fnan
ssg5
(dp163
I0
S'NoError'
p164
sI1
S'NoError'
p165
sI2
S'NoError'
p166
sI3
S'NoError'
p167
sI4
S'NoError'
p168
sI5
S'NoError'
p169
sI6
S'NoError'
p170
sI7
S'NoError'
p171
sI8
S'NoError'
p172
sI9
S'NoError'
p173
sI10
S'NoError'
p174
sI11
S'NoError'
p175
sI12
S'NoError'
p176
sI13
S'NoError'
p177
sI14
S'NoError'
p178
sI15
S'NoError'
p179
sI16
S'NoError'
p180
sI17
S'NoError'
p181
sI18
S'NoError'
p182
sI19
S'NoError'
p183
sI20
S'NoError'
p184
sI21
S'NoError'
p185
sI22
S'NoError'
p186
sI23
S'NoError'
p187
sI24
S'NoError'
p188
sI25
S'NoError'
p189
sI26
S'NoError'
p190
sI27
S'NoError'
p191
sI28
S'NoError'
p192
ssg22
(dp193
I0
F0.002
sI1
F0.002
sI2
F0.002
sI3
F0.002
sI4
F0.002
sI5
F0.002
sI6
F0.002
sI7
F0.002
sI8
F0.002
sI9
F0.002
sI10
F0.002
sI11
F0.002
sI12
F0.002
sI13
F0.002
sI14
F0.002
sI15
F0.002
sI16
F0.002
sI17
F0.002
sI18
F0.002
sI19
F0.002
sI20
F0.002
sI21
F0.002
sI22
F0.002
sI23
F0.002
sI24
F0.002
sI25
F0.002
sI26
F0.002
sI27
F0.002
sI28
F0.002
ssg24
(dp194
I0
F0.8955927896469063
sI1
F0.8946337107789596
sI2
F0.895443565779396
sI3
F0.8921450171224874
sI4
F0.8941071294465643
sI5
F0.8932360019828142
sI6
F0.893269002164529
sI7
F0.8979568838202464
sI8
F0.8944063203094945
sI9
F0.895887831518017
sI10
F0.8953444050181653
sI11
F0.893349658743206
sI12
F0.8968594502862308
sI13
F0.8907051164473907
sI14
F0.8979675610381707
sI15
F0.8927249074893693
sI16
F0.8991894544640758
sI17
F0.8912398055150136
sI18
F0.8915936624274603
sI19
F0.8905536417792
sI20
F0.9000593658133468
sI21
F0.8970292716231463
sI22
F0.8938514685473199
sI23
F0.8964156292535054
sI24
F0.8957416665546014
sI25
F0.892921308341055
sI26
F0.8958157447251232
sI27
F0.8926101053990355
sI28
F0.8926361945372292
ssg26
(dp195
I0
F0.002482490627541509
sI1
Fnan
sI2
Fnan
sI3
Fnan
sI4
Fnan
sI5
Fnan
sI6
Fnan
sI7
Fnan
sI8
Fnan
sI9
Fnan
sI10
Fnan
sI11
Fnan
sI12
Fnan
sI13
Fnan
sI14
Fnan
sI15
Fnan
sI16
Fnan
sI17
Fnan
sI18
Fnan
sI19
Fnan
sI20
Fnan
sI21
Fnan
sI22
Fnan
sI23
Fnan
sI24
Fnan
sI25
Fnan
sI26
Fnan
sI27
Fnan
sI28
Fnan
ssg28
(dp196
I0
F0.8945960920886918
sI1
Fnan
sI2
Fnan
sI3
Fnan
sI4
Fnan
sI5
Fnan
sI6
Fnan
sI7
Fnan
sI8
Fnan
sI9
Fnan
sI10
Fnan
sI11
Fnan
sI12
Fnan
sI13
Fnan
sI14
Fnan
sI15
Fnan
sI16
Fnan
sI17
Fnan
sI18
Fnan
sI19
Fnan
sI20
Fnan
sI21
Fnan
sI22
Fnan
sI23
Fnan
sI24
Fnan
sI25
Fnan
sI26
Fnan
sI27
Fnan
sI28
Fnan
ssg30
(dp197
I0
F11.318
sI1
F11.27
sI2
F11.22
sI3
F11.201
sI4
F11.229
sI5
F11.261
sI6
F11.271
sI7
F11.249
sI8
F11.203
sI9
F11.217
sI10
F11.225
sI11
F11.209
sI12
F11.176
sI13
F11.267
sI14
F11.27
sI15
F11.225
sI16
F11.204
sI17
F11.223
sI18
F11.244
sI19
F11.275
sI20
F11.252
sI21
F11.265
sI22
F11.252
sI23
F11.182
sI24
F11.206
sI25
F11.255
sI26
F11.207
sI27
F11.57
sI28
F11.261
ssg32
(dp198
I0
F10.99132
sI1
F11.30825
sI2
F16.75107
sI3
F13.78473
sI4
F11.03163
sI5
F11.17106
sI6
F10.71603
sI7
F11.69557
sI8
F15.39886
sI9
F9.75399
sI10
F14.88607
sI11
F15.21877
sI12
F15.7517
sI13
F10.72988
sI14
F10.36105
sI15
F12.12244
sI16
F16.21349
sI17
F11.27094
sI18
F11.76786
sI19
F11.78722
sI20
F9.840824
sI21
F11.32229
sI22
F10.02752
sI23
F15.53972
sI24
F14.59179
sI25
F10.90428
sI26
F14.37676
sI27
F10.20233
sI28
F10.82393
ssg34
(dp199
I0
F2458334.7495254627
sI1
F2458334.748136574
sI2
F2458334.816724537
sI3
F2458334.7972685187
sI4
F2458334.7763194446
sI5
F2458334.729201389
sI6
F2458334.7319675926
sI7
F2458334.713587963
sI8
F2458334.8159837965
sI9
F2458334.777048611
sI10
F2458334.796527778
sI11
F2458334.797997685
sI12
F2458334.8152546296
sI13
F2458334.730578704
sI14
F2458334.7298842594
sI15
F2458334.7792708334
sI16
F2458334.813773148
sI17
F2458334.7785300924
sI18
F2458334.777789352
sI19
F2458334.712199074
sI20
F2458334.7128935186
sI21
F2458334.7142824074
sI22
F2458334.731273148
sI23
F2458334.8145138887
sI24
F2458334.7950578704
sI25
F2458334.746770833
sI26
F2458334.795798611
sI27
F2458334.7488310183
sI28
F2458334.7474537035
ssg36
(dp200
I0
F1.3214657586206895
sI1
Fnan
sI2
Fnan
sI3
Fnan
sI4
Fnan
sI5
Fnan
sI6
Fnan
sI7
Fnan
sI8
Fnan
sI9
Fnan
sI10
Fnan
sI11
Fnan
sI12
Fnan
sI13
Fnan
sI14
Fnan
sI15
Fnan
sI16
Fnan
sI17
Fnan
sI18
Fnan
sI19
Fnan
sI20
Fnan
sI21
Fnan
sI22
Fnan
sI23
Fnan
sI24
Fnan
sI25
Fnan
sI26
Fnan
sI27
Fnan
sI28
Fnan
ssg38
(dp201
I0
F0.5434792068965517
sI1
Fnan
sI2
Fnan
sI3
Fnan
sI4
Fnan
sI5
Fnan
sI6
Fnan
sI7
Fnan
sI8
Fnan
sI9
Fnan
sI10
Fnan
sI11
Fnan
sI12
Fnan
sI13
Fnan
sI14
Fnan
sI15
Fnan
sI16
Fnan
sI17
Fnan
sI18
Fnan
sI19
Fnan
sI20
Fnan
sI21
Fnan
sI22
Fnan
sI23
Fnan
sI24
Fnan
sI25
Fnan
sI26
Fnan
sI27
Fnan
sI28
Fnan
ssg40
(dp202
I0
F0.5446719101254849
sI1
F0.546412000442338
sI2
F0.5460022496723405
sI3
F0.5478465628493787
sI4
F0.5489826327625604
sI5
F0.548665886809485
sI6
F0.5463419299899188
sI7
F0.5468414752545837
sI8
F0.5460427832638087
sI9
F0.5483658360062884
sI10
F0.5475146446595169
sI11
F0.5477138096079011
sI12
F0.548361426110059
sI13
F0.548011320440065
sI14
F0.5482640837512036
sI15
F0.5474530568639131
sI16
F0.5466887759554376
sI17
F0.5487614863063154
sI18
F0.546020857638762
sI19
F0.5454444327957655
sI20
F0.5491517512996934
sI21
F0.5478675682742143
sI22
F0.548073662300897
sI23
F0.548784123702329
sI24
F0.5487664452163977
sI25
F0.5475820696766018
sI26
F0.5475920213962703
sI27
F0.5478072938060575
sI28
F0.5466921117233052
ssg42
(dp203
I0
F0.0009507882085945746
sI1
Fnan
sI2
Fnan
sI3
Fnan
sI4
Fnan
sI5
Fnan
sI6
Fnan
sI7
Fnan
sI8
Fnan
sI9
Fnan
sI10
Fnan
sI11
Fnan
sI12
Fnan
sI13
Fnan
sI14
Fnan
sI15
Fnan
sI16
Fnan
sI17
Fnan
sI18
Fnan
sI19
Fnan
sI20
Fnan
sI21
Fnan
sI22
Fnan
sI23
Fnan
sI24
Fnan
sI25
Fnan
sI26
Fnan
sI27
Fnan
sI28
Fnan
ssg44
(dp204
I0
F1.7060657413793108
sI1
Fnan
sI2
Fnan
sI3
Fnan
sI4
Fnan
sI5
Fnan
sI6
Fnan
sI7
Fnan
sI8
Fnan
sI9
Fnan
sI10
Fnan
sI11
Fnan
sI12
Fnan
sI13
Fnan
sI14
Fnan
sI15
Fnan
sI16
Fnan
sI17
Fnan
sI18
Fnan
sI19
Fnan
sI20
Fnan
sI21
Fnan
sI22
Fnan
sI23
Fnan
sI24
Fnan
sI25
Fnan
sI26
Fnan
sI27
Fnan
sI28
Fnan
ssg46
(dp205
I0
g164
sI1
g165
sI2
g166
sI3
g167
sI4
g168
sI5
g169
sI6
g170
sI7
g171
sI8
g172
sI9
g173
sI10
g174
sI11
g175
sI12
g176
sI13
g177
sI14
g178
sI15
g179
sI16
g180
sI17
g181
sI18
g182
sI19
g183
sI20
g184
sI21
g185
sI22
g186
sI23
g187
sI24
g188
sI25
g189
sI26
g190
sI27
g191
sI28
g192
ssg48
(dp206
I0
F0.002007361063608214
sI1
Fnan
sI2
Fnan
sI3
Fnan
sI4
Fnan
sI5
Fnan
sI6
Fnan
sI7
Fnan
sI8
Fnan
sI9
Fnan
sI10
Fnan
sI11
Fnan
sI12
Fnan
sI13
Fnan
sI14
Fnan
sI15
Fnan
sI16
Fnan
sI17
Fnan
sI18
Fnan
sI19
Fnan
sI20
Fnan
sI21
Fnan
sI22
Fnan
sI23
Fnan
sI24
Fnan
sI25
Fnan
sI26
Fnan
sI27
Fnan
sI28
Fnan
ssg50
(dp207
I0
F0.06990331112618306
sI1
Fnan
sI2
Fnan
sI3
Fnan
sI4
Fnan
sI5
Fnan
sI6
Fnan
sI7
Fnan
sI8
Fnan
sI9
Fnan
sI10
Fnan
sI11
Fnan
sI12
Fnan
sI13
Fnan
sI14
Fnan
sI15
Fnan
sI16
Fnan
sI17
Fnan
sI18
Fnan
sI19
Fnan
sI20
Fnan
sI21
Fnan
sI22
Fnan
sI23
Fnan
sI24
Fnan
sI25
Fnan
sI26
Fnan
sI27
Fnan
sI28
Fnan
ssg52
(dp208
I0
F1.2078691172413794
sI1
Fnan
sI2
Fnan
sI3
Fnan
sI4
Fnan
sI5
Fnan
sI6
Fnan
sI7
Fnan
sI8
Fnan
sI9
Fnan
sI10
Fnan
sI11
Fnan
sI12
Fnan
sI13
Fnan
sI14
Fnan
sI15
Fnan
sI16
Fnan
sI17
Fnan
sI18
Fnan
sI19
Fnan
sI20
Fnan
sI21
Fnan
sI22
Fnan
sI23
Fnan
sI24
Fnan
sI25
Fnan
sI26
Fnan
sI27
Fnan
sI28
Fnan
ssg54
(dp209
I0
F1.5036585641409412
sI1
F1.4987727868202099
sI2
F1.4999603634708711
sI3
F1.498903471102349
sI4
F1.493840200355831
sI5
F1.498368040304502
sI6
F1.4953857236628778
sI7
F1.4940362899802946
sI8
F1.4960273541027578
sI9
F1.4973833774565681
sI10
F1.4938644172274713
sI11
F1.4952435928883838
sI12
F1.500748027747219
sI13
F1.5029881843072972
sI14
F1.4944349631037215
sI15
F1.4964468702756328
sI16
F1.4896582001461018
sI17
F1.5013621834379056
sI18
F1.4989237840208482
sI19
F1.5006009805061518
sI20
F1.4939788251756339
sI21
F1.5004186588478952
sI22
F1.5002326425913617
sI23
F1.494726330742034
sI24
F1.4961347202029147
sI25
F1.4973021142230578
sI26
F1.4945545069006434
sI27
F1.497981656790255
sI28
F1.5031266671440655
ssg56
(dp210
I0
g164
sI1
g165
sI2
g166
sI3
g167
sI4
g168
sI5
g169
sI6
g170
sI7
g171
sI8
g172
sI9
g173
sI10
g174
sI11
g175
sI12
g176
sI13
g177
sI14
g178
sI15
g179
sI16
g180
sI17
g181
sI18
g182
sI19
g183
sI20
g184
sI21
g185
sI22
g186
sI23
g187
sI24
g188
sI25
g189
sI26
g190
sI27
g191
sI28
g192
ssg58
(dp211
I0
F12.94056
sI1
F13.43287
sI2
F19.23559
sI3
F16.72827
sI4
F13.43884
sI5
F12.52763
sI6
F12.25993
sI7
F13.67782
sI8
F19.58377
sI9
F13.69122
sI10
F18.12285
sI11
F17.63389
sI12
F17.22359
sI13
F11.89459
sI14
F12.85859
sI15
F15.13887
sI16
F18.30531
sI17
F14.63084
sI18
F14.7415
sI19
F13.87747
sI20
F12.43194
sI21
F13.07391
sI22
F12.57603
sI23
F18.24942
sI24
F17.01491
sI25
F13.01028
sI26
F15.637
sI27
F13.17256
sI28
F13.03664
ssg60
(dp212
I0
F10.322586206896553
sI1
Fnan
sI2
Fnan
sI3
Fnan
sI4
Fnan
sI5
Fnan
sI6
Fnan
sI7
Fnan
sI8
Fnan
sI9
Fnan
sI10
Fnan
sI11
Fnan
sI12
Fnan
sI13
Fnan
sI14
Fnan
sI15
Fnan
sI16
Fnan
sI17
Fnan
sI18
Fnan
sI19
Fnan
sI20
Fnan
sI21
Fnan
sI22
Fnan
sI23
Fnan
sI24
Fnan
sI25
Fnan
sI26
Fnan
sI27
Fnan
sI28
Fnan
ssg62
(dp213
I0
F0.7128660103085119
sI1
Fnan
sI2
Fnan
sI3
Fnan
sI4
Fnan
sI5
Fnan
sI6
Fnan
sI7
Fnan
sI8
Fnan
sI9
Fnan
sI10
Fnan
sI11
Fnan
sI12
Fnan
sI13
Fnan
sI14
Fnan
sI15
Fnan
sI16
Fnan
sI17
Fnan
sI18
Fnan
sI19
Fnan
sI20
Fnan
sI21
Fnan
sI22
Fnan
sI23
Fnan
sI24
Fnan
sI25
Fnan
sI26
Fnan
sI27
Fnan
sI28
Fnan
ssg64
(dp214
I0
F-2.150594
sI1
F3.538333
sI2
F2.141083
sI3
F3.392399
sI4
F3.203051
sI5
F-3.485667
sI6
F3.520094
sI7
F1.555514
sI8
F4.04327
sI9
F-2.525377
sI10
F-3.864115
sI11
F2.216079
sI12
F-3.662287
sI13
F3.487983
sI14
F2.881301
sI15
F3.8824
sI16
F3.497546
sI17
F-3.08824
sI18
F-3.188077
sI19
F-3.286089
sI20
F-2.552132
sI21
F-2.453778
sI22
F2.524283
sI23
F-3.088971
sI24
F2.141308
sI25
F-1.634174
sI26
F2.068001
sI27
F2.780638
sI28
F3.867115
ssg66
(dp215
I0
F10.676517241379312
sI1
Fnan
sI2
Fnan
sI3
Fnan
sI4
Fnan
sI5
Fnan
sI6
Fnan
sI7
Fnan
sI8
Fnan
sI9
Fnan
sI10
Fnan
sI11
Fnan
sI12
Fnan
sI13
Fnan
sI14
Fnan
sI15
Fnan
sI16
Fnan
sI17
Fnan
sI18
Fnan
sI19
Fnan
sI20
Fnan
sI21
Fnan
sI22
Fnan
sI23
Fnan
sI24
Fnan
sI25
Fnan
sI26
Fnan
sI27
Fnan
sI28
Fnan
ssg68
(dp216
I0
g164
sI1
g165
sI2
g166
sI3
g167
sI4
g168
sI5
g169
sI6
g170
sI7
g171
sI8
g172
sI9
g173
sI10
g174
sI11
g175
sI12
g176
sI13
g177
sI14
g178
sI15
g179
sI16
g180
sI17
g181
sI18
g182
sI19
g183
sI20
g184
sI21
g185
sI22
g186
sI23
g187
sI24
g188
sI25
g189
sI26
g190
sI27
g191
sI28
g192
ssg70
(dp217
I0
F12709.176666666666
sI1
F13228.923333333334
sI2
F13881.59
sI3
F14032.83
sI4
F13671.683333333332
sI5
F13274.41
sI6
F13212.803333333333
sI7
F13519.35
sI8
F14081.869999999999
sI9
F13859.44
sI10
F13776.573333333334
sI11
F13946.666666666666
sI12
F14398.5
sI13
F13192.343333333332
sI14
F13227.359999999999
sI15
F13744.373333333333
sI16
F14109.806666666667
sI17
F13718.056666666667
sI18
F13525.619999999999
sI19
F13155.72
sI20
F13445.493333333334
sI21
F13287.473333333333
sI22
F13407.34
sI23
F14304.486666666666
sI24
F13987.803333333333
sI25
F13369.216666666667
sI26
F14006.186666666666
sI27
F9999.046666666667
sI28
F13309.71
ssg72
(dp218
I0
F1.019536
sI1
F1.020699
sI2
F1.015169
sI3
F1.00604
sI4
F1.005674
sI5
F1.041301
sI6
F1.037728
sI7
F1.065174
sI8
F1.014665
sI9
F1.005522
sI10
F1.005863
sI11
F1.006232
sI12
F1.014176
sI13
F1.039484
sI14
F1.0403850000000001
sI15
F1.0051370000000002
sI16
F1.013231
sI17
F1.0052530000000002
sI18
F1.005382
sI19
F1.067606
sI20
F1.0663799999999999
sI21
F1.063968
sI22
F1.0385959999999999
sI23
F1.0137
sI24
F1.005544
sI25
F1.0219
sI26
F1.005696
sI27
F1.02011
sI28
F1.021296
ssg74
(dp219
I0
F10746.746666666668
sI1
F11238.436666666666
sI2
F11768.15
sI3
F11970.436666666666
sI4
F11660.58
sI5
F11306.466666666667
sI6
F11274.243333333334
sI7
F11455.036666666665
sI8
F11988.076666666666
sI9
F11759.463333333335
sI10
F11725.486666666666
sI11
F11899.873333333333
sI12
F12171.369999999999
sI13
F11252.266666666666
sI14
F11204.643333333333
sI15
F11730.82
sI16
F11963.346666666668
sI17
F11701.916666666666
sI18
F11548.343333333332
sI19
F11240.523333333334
sI20
F11352.823333333334
sI21
F11231.296666666667
sI22
F11394.653333333332
sI23
F12146.42
sI24
F11880.526666666667
sI25
F11400.796666666667
sI26
F11906.373333333333
sI27
F8527.7
sI28
F11314.486666666666
ssg76
(dp220
I0
F17634.85
sI1
F18335.506666666664
sI2
F19236.79666666667
sI3
F19488.193333333336
sI4
F18921.17666666667
sI5
F18415.6
sI6
F18308.789999999997
sI7
F18656.32
sI8
F19500.67666666667
sI9
F19180.66
sI10
F19048.31
sI11
F19323.436666666665
sI12
F19937.34
sI13
F18369.98
sI14
F18256.02
sI15
F19061.136666666665
sI16
F19420.043333333335
sI17
F19082.293333333335
sI18
F18791.98
sI19
F18304.513333333332
sI20
F18524.08
sI21
F18394.210000000003
sI22
F18604.38
sI23
F19768.433333333334
sI24
F19351.253333333334
sI25
F18544.096666666668
sI26
F19363.866666666665
sI27
F13876.363333333335
sI28
F18506.643333333333
ssg78
(dp221
I0
F12.29474
sI1
F12.08672
sI2
F19.05462
sI3
F16.01366
sI4
F12.37381
sI5
F12.75215
sI6
F10.82825
sI7
F11.95391
sI8
F17.72554
sI9
F12.56589
sI10
F16.54241
sI11
F16.88804
sI12
F17.15127
sI13
F12.13729
sI14
F13.03696
sI15
F12.35151
sI16
F17.17632
sI17
F13.11163
sI18
F13.1713
sI19
F12.88598
sI20
F12.42917
sI21
F13.21151
sI22
F11.7691
sI23
F17.51203
sI24
F15.66968
sI25
F11.33868
sI26
F14.86551
sI27
F11.66186
sI28
F11.62683
ssg80
(dp222
I0
F10.922
sI1
F10.873
sI2
F10.823
sI3
F10.805
sI4
F10.833
sI5
F10.867
sI6
F10.87
sI7
F10.853
sI8
F10.803
sI9
F10.824
sI10
F10.827
sI11
F10.811
sI12
F10.787
sI13
F10.872
sI14
F10.877
sI15
F10.827
sI16
F10.805
sI17
F10.829
sI18
F10.844
sI19
F10.873
sI20
F10.862
sI21
F10.874
sI22
F10.858
sI23
F10.789
sI24
F10.813
sI25
F10.858
sI26
F10.811
sI27
F11.173
sI28
F10.866
ssg82
(dp223
I0
F0.001
sI1
F0.001
sI2
F0.001
sI3
F0.001
sI4
F0.001
sI5
F0.001
sI6
F0.001
sI7
F0.001
sI8
F0.001
sI9
F0.001
sI10
F0.001
sI11
F0.001
sI12
F0.001
sI13
F0.001
sI14
F0.001
sI15
F0.001
sI16
F0.001
sI17
F0.001
sI18
F0.001
sI19
F0.001
sI20
F0.001
sI21
F0.001
sI22
F0.001
sI23
F0.001
sI24
F0.001
sI25
F0.001
sI26
F0.001
sI27
F0.002
sI28
F0.001
ssg84
(dp224
I0
F0.5474732485758927
sI1
Fnan
sI2
Fnan
sI3
Fnan
sI4
Fnan
sI5
Fnan
sI6
Fnan
sI7
Fnan
sI8
Fnan
sI9
Fnan
sI10
Fnan
sI11
Fnan
sI12
Fnan
sI13
Fnan
sI14
Fnan
sI15
Fnan
sI16
Fnan
sI17
Fnan
sI18
Fnan
sI19
Fnan
sI20
Fnan
sI21
Fnan
sI22
Fnan
sI23
Fnan
sI24
Fnan
sI25
Fnan
sI26
Fnan
sI27
Fnan
sI28
Fnan
ssg86
(dp225
I0
F10.852724137931032
sI1
Fnan
sI2
Fnan
sI3
Fnan
sI4
Fnan
sI5
Fnan
sI6
Fnan
sI7
Fnan
sI8
Fnan
sI9
Fnan
sI10
Fnan
sI11
Fnan
sI12
Fnan
sI13
Fnan
sI14
Fnan
sI15
Fnan
sI16
Fnan
sI17
Fnan
sI18
Fnan
sI19
Fnan
sI20
Fnan
sI21
Fnan
sI22
Fnan
sI23
Fnan
sI24
Fnan
sI25
Fnan
sI26
Fnan
sI27
Fnan
sI28
Fnan
ssg88
(dp226
I0
F10.74
sI1
F10.696
sI2
F10.644
sI3
F10.632
sI4
F10.66
sI5
F10.692
sI6
F10.698
sI7
F10.673
sI8
F10.628
sI9
F10.646
sI10
F10.652
sI11
F10.639
sI12
F10.604
sI13
F10.699
sI14
F10.696
sI15
F10.655
sI16
F10.626
sI17
F10.657
sI18
F10.672
sI19
F10.702
sI20
F10.679
sI21
F10.691
sI22
F10.682
sI23
F10.611
sI24
F10.636
sI25
F10.685
sI26
F10.634
sI27
F11.0
sI28
F10.69
ssg90
(dp227
I0
F2.610589
sI1
F3.53089
sI2
F4.216967
sI3
F3.399101
sI4
F-2.161929
sI5
F4.030532
sI6
F5.067062
sI7
F-4.203091
sI8
F3.653198
sI9
F4.75438
sI10
F5.601699
sI11
F-3.742452
sI12
F-3.39643
sI13
F4.46944
sI14
F4.344
sI15
F2.320238
sI16
F-1.624493
sI17
F3.148178
sI18
F3.031704
sI19
F2.459091
sI20
F-3.38239
sI21
F-3.151935
sI22
F4.075017
sI23
F-3.553
sI24
F2.352967
sI25
F3.451245
sI26
F-3.263553
sI27
F-3.107387
sI28
F3.392869
ssg92
(dp228
I0
F0.06907424434278746
sI1
Fnan
sI2
Fnan
sI3
Fnan
sI4
Fnan
sI5
Fnan
sI6
Fnan
sI7
Fnan
sI8
Fnan
sI9
Fnan
sI10
Fnan
sI11
Fnan
sI12
Fnan
sI13
Fnan
sI14
Fnan
sI15
Fnan
sI16
Fnan
sI17
Fnan
sI18
Fnan
sI19
Fnan
sI20
Fnan
sI21
Fnan
sI22
Fnan
sI23
Fnan
sI24
Fnan
sI25
Fnan
sI26
Fnan
sI27
Fnan
sI28
Fnan
ssg94
(dp229
I0
F0.7083269985701744
sI1
F0.7120950175033521
sI2
F0.7106716953603616
sI3
F0.7142047274411968
sI4
F0.7155297203129765
sI5
F0.7135666203113642
sI6
F0.7153346097775515
sI7
F0.7120309641829784
sI8
F0.7139468477872036
sI9
F0.7118297664555092
sI10
F0.7144267077872325
sI11
F0.7153493461747589
sI12
F0.7089600836909772
sI13
F0.7130189085150787
sI14
F0.7117814753900842
sI15
F0.715173761968645
sI16
F0.7135938077066654
sI17
F0.713523890243041
sI18
F0.7146782764396696
sI19
F0.7145861389033988
sI20
F0.7102267656163068
sI21
F0.7090088331796343
sI22
F0.7119050980911573
sI23
F0.7129661913331761
sI24
F0.7127092278255822
sI25
F0.714485302581138
sI26
F0.7135963023133717
sI27
F0.7143500362925704
sI28
F0.7112371771916873
ssg96
(dp230
I0
F30.0
sI1
F30.0
sI2
F30.0
sI3
F30.0
sI4
F30.0
sI5
F30.0
sI6
F30.0
sI7
F30.0
sI8
F30.0
sI9
F30.0
sI10
F30.0
sI11
F30.0
sI12
F30.0
sI13
F30.0
sI14
F30.0
sI15
F30.0
sI16
F30.0
sI17
F30.0
sI18
F30.0
sI19
F30.0
sI20
F30.0
sI21
F30.0
sI22
F30.0
sI23
F30.0
sI24
F30.0
sI25
F30.0
sI26
F30.0
sI27
F30.0
sI28
F30.0
ssg98
(dp231
I0
F0.002
sI1
F0.002
sI2
F0.002
sI3
F0.002
sI4
F0.002
sI5
F0.002
sI6
F0.002
sI7
F0.002
sI8
F0.002
sI9
F0.002
sI10
F0.002
sI11
F0.002
sI12
F0.002
sI13
F0.002
sI14
F0.002
sI15
F0.002
sI16
F0.002
sI17
F0.002
sI18
F0.002
sI19
F0.002
sI20
F0.002
sI21
F0.002
sI22
F0.002
sI23
F0.002
sI24
F0.002
sI25
F0.002
sI26
F0.002
sI27
F0.002
sI28
F0.002
ssg100
(dp232
I0
F0.002
sI1
F0.002
sI2
F0.002
sI3
F0.002
sI4
F0.002
sI5
F0.002
sI6
F0.002
sI7
F0.002
sI8
F0.002
sI9
F0.002
sI10
F0.002
sI11
F0.002
sI12
F0.002
sI13
F0.002
sI14
F0.002
sI15
F0.002
sI16
F0.002
sI17
F0.002
sI18
F0.002
sI19
F0.002
sI20
F0.002
sI21
F0.002
sI22
F0.002
sI23
F0.002
sI24
F0.002
sI25
F0.002
sI26
F0.002
sI27
F0.002
sI28
F0.002
ssg102
(dp233
I0
F2.954006
sI1
F-0.9784576
sI2
F4.637871
sI3
F-2.39223
sI4
F2.466893
sI5
F3.327387
sI6
F-2.875595
sI7
F-2.103936
sI8
F-1.203681
sI9
F-2.546317
sI10
F3.27719
sI11
F3.471344
sI12
F3.357644
sI13
F3.750898
sI14
F4.411007
sI15
F3.662739
sI16
F4.99278
sI17
F1.813231
sI18
F2.235343
sI19
F3.07421
sI20
F-2.414096
sI21
F3.248332
sI22
F-3.337985
sI23
F3.583167
sI24
F-2.334715
sI25
F3.46692
sI26
F3.935031
sI27
F-3.313269
sI28
F-3.137507
ssg104
(dp234
I0
S"KIC8462852-20180804at055919_-25-1-030-r'_cal.fts.mag.1"
p235
sI1
S"KIC8462852-20180804at055719_-25-1-030-r'_cal.fts.mag.1"
p236
sI2
S"KIC8462852-20180804at073605_-25-1X1-030-r'_cal.fts.mag.1"
p237
sI3
S"KIC8462852-20180804at070804_-25-1X1-030-r'_cal.fts.mag.1"
p238
sI4
S"KIC8462852-20180804at063753_-25-1X1-030-r'_cal.fts.mag.1"
p239
sI5
S"KIC8462852-20180804at053001_-25-1-030-r'_cal.fts.mag.1"
p240
sI6
S"KIC8462852-20180804at053402_-25-1-030-r'_cal.fts.mag.1"
p241
sI7
S"KIC8462852-20180804at050734_-25-1-030-r'_cal.fts.mag.1"
p242
sI8
S"KIC8462852-20180804at073501_-25-1X1-030-r'_cal.fts.mag.1"
p243
sI9
S"KIC8462852-20180804at063857_-25-1X1-030-r'_cal.fts.mag.1"
p244
sI10
S"KIC8462852-20180804at070700_-25-1X1-030-r'_cal.fts.mag.1"
p245
sI11
S"KIC8462852-20180804at070907_-25-1X1-030-r'_cal.fts.mag.1"
p246
sI12
S"KIC8462852-20180804at073358_-25-1X1-030-r'_cal.fts.mag.1"
p247
sI13
S"KIC8462852-20180804at053202_-25-1-030-r'_cal.fts.mag.1"
p248
sI14
S"KIC8462852-20180804at053102_-25-1-030-r'_cal.fts.mag.1"
p249
sI15
S"KIC8462852-20180804at064209_-25-1X1-030-r'_cal.fts.mag.1"
p250
sI16
S"KIC8462852-20180804at073149_-25-1X1-030-r'_cal.fts.mag.1"
p251
sI17
S"KIC8462852-20180804at064105_-25-1X1-030-r'_cal.fts.mag.1"
p252
sI18
S"KIC8462852-20180804at064001_-25-1X1-030-r'_cal.fts.mag.1"
p253
sI19
S"KIC8462852-20180804at050534_-25-1-030-r'_cal.fts.mag.1"
p254
sI20
S"KIC8462852-20180804at050634_-25-1-030-r'_cal.fts.mag.1"
p255
sI21
S"KIC8462852-20180804at050834_-25-1-030-r'_cal.fts.mag.1"
p256
sI22
S"KIC8462852-20180804at053302_-25-1-030-r'_cal.fts.mag.1"
p257
sI23
S"KIC8462852-20180804at073254_-25-1X1-030-r'_cal.fts.mag.1"
p258
sI24
S"KIC8462852-20180804at070452_-25-1X1-030-r'_cal.fts.mag.1"
p259
sI25
S"KIC8462852-20180804at055519_-25-1-030-r'_cal.fts.mag.1"
p260
sI26
S"KIC8462852-20180804at070557_-25-1X1-030-r'_cal.fts.mag.1"
p261
sI27
S"KIC8462852-20180804at055819_-25-1-030-r'_cal.fts.mag.1"
p262
sI28
S"KIC8462852-20180804at055620_-25-1-030-r'_cal.fts.mag.1"
p263
ssg121
(dp264
I0
F0.003361377845297552
sI1
Fnan
sI2
Fnan
sI3
Fnan
sI4
Fnan
sI5
Fnan
sI6
Fnan
sI7
Fnan
sI8
Fnan
sI9
Fnan
sI10
Fnan
sI11
Fnan
sI12
Fnan
sI13
Fnan
sI14
Fnan
sI15
Fnan
sI16
Fnan
sI17
Fnan
sI18
Fnan
sI19
Fnan
sI20
Fnan
sI21
Fnan
sI22
Fnan
sI23
Fnan
sI24
Fnan
sI25
Fnan
sI26
Fnan
sI27
Fnan
sI28
Fnan
ssg123
(dp265
I0
F7460.33
sI1
F7796.0
sI2
F8169.383333333333
sI3
F8307.446666666667
sI4
F8098.123333333334
sI5
F7863.566666666667
sI6
F7793.72
sI7
F7953.026666666667
sI8
F8294.503333333334
sI9
F8188.85
sI10
F8130.66
sI11
F8246.74
sI12
F8500.92
sI13
F7820.96
sI14
F7801.4366666666665
sI15
F8127.183333333333
sI16
F8290.206666666667
sI17
F8140.376666666666
sI18
F7983.906666666667
sI19
F7763.63
sI20
F7930.1900000000005
sI21
F7836.876666666666
sI22
F7929.963333333333
sI23
F8454.813333333334
sI24
F8271.663333333334
sI25
F7906.009999999999
sI26
F8264.336666666666
sI27
F5916.886666666667
sI28
F7859.763333333333
ssg125
(dp266
I0
F0.06942616661488259
sI1
Fnan
sI2
Fnan
sI3
Fnan
sI4
Fnan
sI5
Fnan
sI6
Fnan
sI7
Fnan
sI8
Fnan
sI9
Fnan
sI10
Fnan
sI11
Fnan
sI12
Fnan
sI13
Fnan
sI14
Fnan
sI15
Fnan
sI16
Fnan
sI17
Fnan
sI18
Fnan
sI19
Fnan
sI20
Fnan
sI21
Fnan
sI22
Fnan
sI23
Fnan
sI24
Fnan
sI25
Fnan
sI26
Fnan
sI27
Fnan
sI28
Fnan
ssg127
(dp267
I0
S"r'"
p268
sI1
S"r'"
p269
sI2
S"r'"
p270
sI3
S"r'"
p271
sI4
S"r'"
p272
sI5
S"r'"
p273
sI6
S"r'"
p274
sI7
S"r'"
p275
sI8
S"r'"
p276
sI9
S"r'"
p277
sI10
S"r'"
p278
sI11
S"r'"
p279
sI12
S"r'"
p280
sI13
S"r'"
p281
sI14
S"r'"
p282
sI15
S"r'"
p283
sI16
S"r'"
p284
sI17
S"r'"
p285
sI18
S"r'"
p286
sI19
S"r'"
p287
sI20
S"r'"
p288
sI21
S"r'"
p289
sI22
S"r'"
p290
sI23
S"r'"
p291
sI24
S"r'"
p292
sI25
S"r'"
p293
sI26
S"r'"
p294
sI27
S"r'"
p295
sI28
S"r'"
p296
ssg144
(dp297
I0
F0.001153188607005553
sI1
Fnan
sI2
Fnan
sI3
Fnan
sI4
Fnan
sI5
Fnan
sI6
Fnan
sI7
Fnan
sI8
Fnan
sI9
Fnan
sI10
Fnan
sI11
Fnan
sI12
Fnan
sI13
Fnan
sI14
Fnan
sI15
Fnan
sI16
Fnan
sI17
Fnan
sI18
Fnan
sI19
Fnan
sI20
Fnan
sI21
Fnan
sI22
Fnan
sI23
Fnan
sI24
Fnan
sI25
Fnan
sI26
Fnan
sI27
Fnan
sI28
Fnan
ssg146
(dp298
I0
F3.002628
sI1
F3.306549
sI2
F2.497814
sI3
F4.26186
sI4
F2.911668
sI5
F0.6233515
sI6
F-2.671202
sI7
F-2.942975
sI8
F-2.452163
sI9
F2.713623
sI10
F3.648741
sI11
F3.535721
sI12
F3.337988
sI13
F2.436998
sI14
F3.240262
sI15
F1.264145
sI16
F3.330119
sI17
F-1.951586
sI18
F5.197609
sI19
F3.028793
sI20
F2.949075
sI21
F2.815134
sI22
F-1.467605
sI23
F2.164401
sI24
F-2.314944
sI25
F-2.128243
sI26
F3.27123
sI27
F3.682208
sI28
F2.184707
ssg148
(dp299
I0
F1.4975539137129585
sI1
Fnan
sI2
Fnan
sI3
Fnan
sI4
Fnan
sI5
Fnan
sI6
Fnan
sI7
Fnan
sI8
Fnan
sI9
Fnan
sI10
Fnan
sI11
Fnan
sI12
Fnan
sI13
Fnan
sI14
Fnan
sI15
Fnan
sI16
Fnan
sI17
Fnan
sI18
Fnan
sI19
Fnan
sI20
Fnan
sI21
Fnan
sI22
Fnan
sI23
Fnan
sI24
Fnan
sI25
Fnan
sI26
Fnan
sI27
Fnan
sI28
Fnan
ssg150
(dp300
I0
F2458334.7763194446
sI1
Fnan
sI2
Fnan
sI3
Fnan
sI4
Fnan
sI5
Fnan
sI6
Fnan
sI7
Fnan
sI8
Fnan
sI9
Fnan
sI10
Fnan
sI11
Fnan
sI12
Fnan
sI13
Fnan
sI14
Fnan
sI15
Fnan
sI16
Fnan
sI17
Fnan
sI18
Fnan
sI19
Fnan
sI20
Fnan
sI21
Fnan
sI22
Fnan
sI23
Fnan
sI24
Fnan
sI25
Fnan
sI26
Fnan
sI27
Fnan
sI28
Fnan
ssg152
(dp301
I0
F0.001153188607005553
sI1
Fnan
sI2
Fnan
sI3
Fnan
sI4
Fnan
sI5
Fnan
sI6
Fnan
sI7
Fnan
sI8
Fnan
sI9
Fnan
sI10
Fnan
sI11
Fnan
sI12
Fnan
sI13
Fnan
sI14
Fnan
sI15
Fnan
sI16
Fnan
sI17
Fnan
sI18
Fnan
sI19
Fnan
sI20
Fnan
sI21
Fnan
sI22
Fnan
sI23
Fnan
sI24
Fnan
sI25
Fnan
sI26
Fnan
sI27
Fnan
sI28
Fnan
ssg154
(dp302
I0
F15.33687
sI1
F14.32177
sI2
F22.78755
sI3
F19.56601
sI4
F16.46691
sI5
F14.40414
sI6
F14.28546
sI7
F15.26182
sI8
F20.69523
sI9
F14.70779
sI10
F21.4342
sI11
F21.08084
sI12
F21.07079
sI13
F14.47147
sI14
F15.994
sI15
F17.54516
sI16
F22.4966
sI17
F16.6955
sI18
F17.41782
sI19
F15.65468
sI20
F14.96314
sI21
F16.96106
sI22
F14.26912
sI23
F21.76324
sI24
F20.49718
sI25
F14.99418
sI26
F19.82224
sI27
F14.00704
sI28
F15.57348
ssg156
(dp303
I0
F10.384
sI1
F10.342
sI2
F10.29
sI3
F10.276
sI4
F10.308
sI5
F10.337
sI6
F10.343
sI7
F10.323
sI8
F10.275
sI9
F10.293
sI10
F10.3
sI11
F10.285
sI12
F10.251
sI13
F10.34
sI14
F10.346
sI15
F10.3
sI16
F10.279
sI17
F10.298
sI18
F10.315
sI19
F10.344
sI20
F10.331
sI21
F10.338
sI22
F10.326
sI23
F10.26
sI24
F10.283
sI25
F10.329
sI26
F10.283
sI27
F10.644
sI28
F10.332
ssg158
(dp304
I0
F0.5474732485758927
sI1
Fnan
sI2
Fnan
sI3
Fnan
sI4
Fnan
sI5
Fnan
sI6
Fnan
sI7
Fnan
sI8
Fnan
sI9
Fnan
sI10
Fnan
sI11
Fnan
sI12
Fnan
sI13
Fnan
sI14
Fnan
sI15
Fnan
sI16
Fnan
sI17
Fnan
sI18
Fnan
sI19
Fnan
sI20
Fnan
sI21
Fnan
sI22
Fnan
sI23
Fnan
sI24
Fnan
sI25
Fnan
sI26
Fnan
sI27
Fnan
sI28
Fnan
sssS'z'
p305
(dp306
g3
(dp307
I0
F0.371040192985181
sI1
Fnan
sI2
Fnan
sI3
Fnan
sI4
Fnan
sI5
Fnan
sI6
Fnan
sI7
Fnan
sI8
Fnan
sI9
Fnan
sI10
Fnan
sI11
Fnan
sI12
Fnan
sI13
Fnan
sI14
Fnan
sI15
Fnan
sI16
Fnan
sI17
Fnan
sI18
Fnan
sI19
Fnan
sI20
Fnan
sI21
Fnan
sI22
Fnan
sI23
Fnan
sI24
Fnan
sI25
Fnan
sI26
Fnan
sI27
Fnan
ssg5
(dp308
I0
S'NoError'
p309
sI1
S'NoError'
p310
sI2
S'NoError'
p311
sI3
S'NoError'
p312
sI4
S'NoError'
p313
sI5
S'NoError'
p314
sI6
S'NoError'
p315
sI7
S'NoError'
p316
sI8
S'NoError'
p317
sI9
S'NoError'
p318
sI10
S'NoError'
p319
sI11
S'NoError'
p320
sI12
S'NoError'
p321
sI13
S'NoError'
p322
sI14
S'NoError'
p323
sI15
S'NoError'
p324
sI16
S'NoError'
p325
sI17
S'NoError'
p326
sI18
S'NoError'
p327
sI19
S'NoError'
p328
sI20
S'NoError'
p329
sI21
S'NoError'
p330
sI22
S'NoError'
p331
sI23
S'NoError'
p332
sI24
S'NoError'
p333
sI25
S'NoError'
p334
sI26
S'NoError'
p335
sI27
S'NoError'
p336
ssg22
(dp337
I0
F0.007
sI1
F0.008
sI2
F0.007
sI3
F0.007
sI4
F0.007
sI5
F0.007
sI6
F0.007
sI7
F0.008
sI8
F0.01
sI9
F0.007
sI10
F0.007
sI11
F0.007
sI12
F0.007
sI13
F0.007
sI14
F0.008
sI15
F0.011
sI16
F0.007
sI17
F0.007
sI18
F0.007
sI19
F0.007
sI20
F0.007
sI21
F0.007
sI22
F0.007
sI23
F0.007
sI24
F0.007
sI25
F0.007
sI26
F0.007
sI27
F0.007
ssg24
(dp338
I0
F0.9129334844776286
sI1
F0.9146983768442063
sI2
F0.916869417199547
sI3
F0.9098530834657599
sI4
F0.9162071073942877
sI5
F0.9146297215987612
sI6
F0.916111146778751
sI7
F0.9207038657192987
sI8
F0.9194036207930787
sI9
F0.9096061906029893
sI10
F0.912424915987701
sI11
F0.9200008241450683
sI12
F0.9165288142826447
sI13
F0.9096772352332634
sI14
F0.9213298683117377
sI15
F0.9107859863024215
sI16
F0.9160759542623098
sI17
F0.9194364423266774
sI18
F0.9057106882884944
sI19
F0.9165058301683027
sI20
F0.9182084982658865
sI21
F0.9079683817140746
sI22
F0.9203834393769788
sI23
F0.9173107713472711
sI24
F0.9193630670580869
sI25
F0.9163302463378873
sI26
F0.9226615354825688
sI27
F0.9133345764966068
ssg26
(dp339
I0
F0.004371507857822961
sI1
Fnan
sI2
Fnan
sI3
Fnan
sI4
Fnan
sI5
Fnan
sI6
Fnan
sI7
Fnan
sI8
Fnan
sI9
Fnan
sI10
Fnan
sI11
Fnan
sI12
Fnan
sI13
Fnan
sI14
Fnan
sI15
Fnan
sI16
Fnan
sI17
Fnan
sI18
Fnan
sI19
Fnan
sI20
Fnan
sI21
Fnan
sI22
Fnan
sI23
Fnan
sI24
Fnan
sI25
Fnan
sI26
Fnan
sI27
Fnan
ssg28
(dp340
I0
F0.9155376103665102
sI1
Fnan
sI2
Fnan
sI3
Fnan
sI4
Fnan
sI5
Fnan
sI6
Fnan
sI7
Fnan
sI8
Fnan
sI9
Fnan
sI10
Fnan
sI11
Fnan
sI12
Fnan
sI13
Fnan
sI14
Fnan
sI15
Fnan
sI16
Fnan
sI17
Fnan
sI18
Fnan
sI19
Fnan
sI20
Fnan
sI21
Fnan
sI22
Fnan
sI23
Fnan
sI24
Fnan
sI25
Fnan
sI26
Fnan
sI27
Fnan
ssg30
(dp341
I0
F13.305
sI1
F13.563
sI2
F13.298
sI3
F13.284
sI4
F13.242
sI5
F13.289
sI6
F13.355
sI7
F13.476
sI8
F13.824
sI9
F13.255
sI10
F13.275
sI11
F13.254
sI12
F13.26
sI13
F13.246
sI14
F13.383
sI15
F13.872
sI16
F13.283
sI17
F13.302
sI18
F13.253
sI19
F13.306
sI20
F13.305
sI21
F13.273
sI22
F13.243
sI23
F13.257
sI24
F13.271
sI25
F13.349
sI26
F13.294
sI27
F13.301
ssg32
(dp342
I0
F7.120219
sI1
F8.02072
sI2
F6.633627
sI3
F6.672962
sI4
F5.863523
sI5
F6.177696
sI6
F6.064203
sI7
F6.680097
sI8
F7.17687
sI9
F5.308098
sI10
F7.75807
sI11
F6.718534
sI12
F5.847113
sI13
F6.196743
sI14
F6.617557
sI15
F6.799736
sI16
F7.290081
sI17
F6.247873
sI18
F5.553887
sI19
F8.364038
sI20
F6.982419
sI21
F7.212641
sI22
F5.784187
sI23
F6.489486
sI24
F5.684046
sI25
F8.023242
sI26
F7.981385
sI27
F5.838082
ssg34
(dp343
I0
F2458334.7544328705
sI1
F2458334.736898148
sI2
F2458334.7558333334
sI3
F2458334.7844444443
sI4
F2458334.822650463
sI5
F2458334.824131944
sI6
F2458334.8054050924
sI7
F2458334.753738426
sI8
F2458334.7382754628
sI9
F2458334.80318287
sI10
F2458334.7205902776
sI11
F2458334.8211689815
sI12
F2458334.7851851853
sI13
F2458334.7859259257
sI14
F2458334.7866666666
sI15
F2458334.7361921296
sI16
F2458334.7212847224
sI17
F2458334.804664352
sI18
F2458334.8233796298
sI19
F2458334.7191898148
sI20
F2458334.755138889
sI21
F2458334.7565277778
sI22
F2458334.8219097224
sI23
F2458334.783715278
sI24
F2458334.803923611
sI25
F2458334.7389699076
sI26
F2458334.719884259
sI27
F2458334.8024421297
ssg36
(dp344
I0
F0.5533906035714286
sI1
Fnan
sI2
Fnan
sI3
Fnan
sI4
Fnan
sI5
Fnan
sI6
Fnan
sI7
Fnan
sI8
Fnan
sI9
Fnan
sI10
Fnan
sI11
Fnan
sI12
Fnan
sI13
Fnan
sI14
Fnan
sI15
Fnan
sI16
Fnan
sI17
Fnan
sI18
Fnan
sI19
Fnan
sI20
Fnan
sI21
Fnan
sI22
Fnan
sI23
Fnan
sI24
Fnan
sI25
Fnan
sI26
Fnan
sI27
Fnan
ssg38
(dp345
I0
F-0.25909516785714276
sI1
Fnan
sI2
Fnan
sI3
Fnan
sI4
Fnan
sI5
Fnan
sI6
Fnan
sI7
Fnan
sI8
Fnan
sI9
Fnan
sI10
Fnan
sI11
Fnan
sI12
Fnan
sI13
Fnan
sI14
Fnan
sI15
Fnan
sI16
Fnan
sI17
Fnan
sI18
Fnan
sI19
Fnan
sI20
Fnan
sI21
Fnan
sI22
Fnan
sI23
Fnan
sI24
Fnan
sI25
Fnan
sI26
Fnan
sI27
Fnan
ssg40
(dp346
I0
F0.3738970084019752
sI1
F0.3620720781543485
sI2
F0.371464407326584
sI3
F0.3692266798546545
sI4
F0.3699648625601357
sI5
F0.3648433745728357
sI6
F0.36629277532229565
sI7
F0.3683919198361081
sI8
F0.3742751703772949
sI9
F0.3695512809695695
sI10
F0.3749054359979457
sI11
F0.37124580721051736
sI12
F0.3727799089506983
sI13
F0.373713578900609
sI14
F0.3726255467551838
sI15
F0.37608775574059583
sI16
F0.3712530173418983
sI17
F0.3631226819958135
sI18
F0.3718366066024462
sI19
F0.37045386753200105
sI20
F0.3730694352112515
sI21
F0.3732356947726843
sI22
F0.37230501126148924
sI23
F0.3728992950345388
sI24
F0.3655715766930093
sI25
F0.370845371739789
sI26
F0.3703169984188285
sI27
F0.3622214181046786
ssg42
(dp347
I0
F0.0026344972963310283
sI1
Fnan
sI2
Fnan
sI3
Fnan
sI4
Fnan
sI5
Fnan
sI6
Fnan
sI7
Fnan
sI8
Fnan
sI9
Fnan
sI10
Fnan
sI11
Fnan
sI12
Fnan
sI13
Fnan
sI14
Fnan
sI15
Fnan
sI16
Fnan
sI17
Fnan
sI18
Fnan
sI19
Fnan
sI20
Fnan
sI21
Fnan
sI22
Fnan
sI23
Fnan
sI24
Fnan
sI25
Fnan
sI26
Fnan
sI27
Fnan
ssg44
(dp348
I0
F0.6465426071428572
sI1
Fnan
sI2
Fnan
sI3
Fnan
sI4
Fnan
sI5
Fnan
sI6
Fnan
sI7
Fnan
sI8
Fnan
sI9
Fnan
sI10
Fnan
sI11
Fnan
sI12
Fnan
sI13
Fnan
sI14
Fnan
sI15
Fnan
sI16
Fnan
sI17
Fnan
sI18
Fnan
sI19
Fnan
sI20
Fnan
sI21
Fnan
sI22
Fnan
sI23
Fnan
sI24
Fnan
sI25
Fnan
sI26
Fnan
sI27
Fnan
ssg46
(dp349
I0
g309
sI1
g310
sI2
g311
sI3
g312
sI4
g313
sI5
g314
sI6
g315
sI7
g316
sI8
g317
sI9
g318
sI10
g319
sI11
g320
sI12
g321
sI13
g322
sI14
g323
sI15
g324
sI16
g325
sI17
g326
sI18
g327
sI19
g328
sI20
g329
sI21
g330
sI22
g331
sI23
g332
sI24
g333
sI25
g334
sI26
g335
sI27
g336
ssg48
(dp350
I0
F0.005180077171551482
sI1
Fnan
sI2
Fnan
sI3
Fnan
sI4
Fnan
sI5
Fnan
sI6
Fnan
sI7
Fnan
sI8
Fnan
sI9
Fnan
sI10
Fnan
sI11
Fnan
sI12
Fnan
sI13
Fnan
sI14
Fnan
sI15
Fnan
sI16
Fnan
sI17
Fnan
sI18
Fnan
sI19
Fnan
sI20
Fnan
sI21
Fnan
sI22
Fnan
sI23
Fnan
sI24
Fnan
sI25
Fnan
sI26
Fnan
sI27
Fnan
ssg50
(dp351
I0
F0.1609846685000267
sI1
Fnan
sI2
Fnan
sI3
Fnan
sI4
Fnan
sI5
Fnan
sI6
Fnan
sI7
Fnan
sI8
Fnan
sI9
Fnan
sI10
Fnan
sI11
Fnan
sI12
Fnan
sI13
Fnan
sI14
Fnan
sI15
Fnan
sI16
Fnan
sI17
Fnan
sI18
Fnan
sI19
Fnan
sI20
Fnan
sI21
Fnan
sI22
Fnan
sI23
Fnan
sI24
Fnan
sI25
Fnan
sI26
Fnan
sI27
Fnan
ssg52
(dp352
I0
F0.8414259642857143
sI1
Fnan
sI2
Fnan
sI3
Fnan
sI4
Fnan
sI5
Fnan
sI6
Fnan
sI7
Fnan
sI8
Fnan
sI9
Fnan
sI10
Fnan
sI11
Fnan
sI12
Fnan
sI13
Fnan
sI14
Fnan
sI15
Fnan
sI16
Fnan
sI17
Fnan
sI18
Fnan
sI19
Fnan
sI20
Fnan
sI21
Fnan
sI22
Fnan
sI23
Fnan
sI24
Fnan
sI25
Fnan
sI26
Fnan
sI27
Fnan
ssg54
(dp353
I0
F1.5187682264151081
sI1
F1.5069339638480093
sI2
F1.497427031845142
sI3
F1.511702924831962
sI4
F1.513029626580632
sI5
F1.5101580094434977
sI6
F1.517083970756779
sI7
F1.5041965134088513
sI8
F1.476076961391153
sI9
F1.5152295070269675
sI10
F1.5068227710897877
sI11
F1.512463292579438
sI12
F1.5046298100598798
sI13
F1.5073260597774116
sI14
F1.5143871520079182
sI15
F1.5073824220142114
sI16
F1.505298201410177
sI17
F1.5164469091913435
sI18
F1.521181135963235
sI19
F1.5001790288971433
sI20
F1.5102124589299648
sI21
F1.5078890678066195
sI22
F1.5060326693693262
sI23
F1.5069942613378084
sI24
F1.5010437217022408
sI25
F1.5077927386740204
sI26
F1.5092162850647777
sI27
F1.5137429658305217
ssg56
(dp354
I0
g309
sI1
g310
sI2
g311
sI3
g312
sI4
g313
sI5
g314
sI6
g315
sI7
g316
sI8
g317
sI9
g318
sI10
g319
sI11
g320
sI12
g321
sI13
g322
sI14
g323
sI15
g324
sI16
g325
sI17
g326
sI18
g327
sI19
g328
sI20
g329
sI21
g330
sI22
g331
sI23
g332
sI24
g333
sI25
g334
sI26
g335
sI27
g336
ssg58
(dp355
I0
F8.816397
sI1
F7.499946
sI2
F7.613581
sI3
F7.097279
sI4
F6.126973
sI5
F7.16224
sI6
F8.414386
sI7
F6.976098
sI8
F8.074649
sI9
F6.425085
sI10
F7.632417
sI11
F6.596071
sI12
F7.452051
sI13
F7.557664
sI14
F6.860305
sI15
F8.004126
sI16
F8.403797
sI17
F7.01151
sI18
F8.591528
sI19
F9.626054
sI20
F7.913518
sI21
F8.100146
sI22
F7.226342
sI23
F7.562716
sI24
F6.664215
sI25
F8.286133
sI26
F9.206844
sI27
F7.437033
ssg60
(dp356
I0
F11.98867857142857
sI1
Fnan
sI2
Fnan
sI3
Fnan
sI4
Fnan
sI5
Fnan
sI6
Fnan
sI7
Fnan
sI8
Fnan
sI9
Fnan
sI10
Fnan
sI11
Fnan
sI12
Fnan
sI13
Fnan
sI14
Fnan
sI15
Fnan
sI16
Fnan
sI17
Fnan
sI18
Fnan
sI19
Fnan
sI20
Fnan
sI21
Fnan
sI22
Fnan
sI23
Fnan
sI24
Fnan
sI25
Fnan
sI26
Fnan
sI27
Fnan
ssg62
(dp357
I0
F0.6884604705040969
sI1
Fnan
sI2
Fnan
sI3
Fnan
sI4
Fnan
sI5
Fnan
sI6
Fnan
sI7
Fnan
sI8
Fnan
sI9
Fnan
sI10
Fnan
sI11
Fnan
sI12
Fnan
sI13
Fnan
sI14
Fnan
sI15
Fnan
sI16
Fnan
sI17
Fnan
sI18
Fnan
sI19
Fnan
sI20
Fnan
sI21
Fnan
sI22
Fnan
sI23
Fnan
sI24
Fnan
sI25
Fnan
sI26
Fnan
sI27
Fnan
ssg64
(dp358
I0
F-2.784594
sI1
F3.289211
sI2
F-2.117649
sI3
F3.576086
sI4
F-3.42558
sI5
F-3.3019
sI6
F-2.681515
sI7
F-3.075171
sI8
F-2.003098
sI9
F1.98753
sI10
F1.561438
sI11
F-2.282299
sI12
F-0.7338517
sI13
F-2.582941
sI14
F3.502084
sI15
F3.085796
sI16
F-1.756964
sI17
F-2.954889
sI18
F-2.415789
sI19
F2.306654
sI20
F3.80741
sI21
F-2.394041
sI22
F-2.846135
sI23
F2.487998
sI24
F3.177132
sI25
F1.415424
sI26
F3.466624
sI27
F-3.561635
ssg66
(dp359
I0
F12.329714285714285
sI1
Fnan
sI2
Fnan
sI3
Fnan
sI4
Fnan
sI5
Fnan
sI6
Fnan
sI7
Fnan
sI8
Fnan
sI9
Fnan
sI10
Fnan
sI11
Fnan
sI12
Fnan
sI13
Fnan
sI14
Fnan
sI15
Fnan
sI16
Fnan
sI17
Fnan
sI18
Fnan
sI19
Fnan
sI20
Fnan
sI21
Fnan
sI22
Fnan
sI23
Fnan
sI24
Fnan
sI25
Fnan
sI26
Fnan
sI27
Fnan
ssg68
(dp360
I0
g309
sI1
g310
sI2
g311
sI3
g312
sI4
g313
sI5
g314
sI6
g315
sI7
g316
sI8
g317
sI9
g318
sI10
g319
sI11
g320
sI12
g321
sI13
g322
sI14
g323
sI15
g324
sI16
g325
sI17
g326
sI18
g327
sI19
g328
sI20
g329
sI21
g330
sI22
g331
sI23
g332
sI24
g333
sI25
g334
sI26
g335
sI27
g336
ssg70
(dp361
I0
F3009.603
sI1
F2452.7586666666666
sI2
F3058.735666666667
sI3
F3098.4576666666667
sI4
F3231.1213333333335
sI5
F3132.9706666666666
sI6
F2941.8446666666664
sI7
F2623.7043333333336
sI8
F1872.2016666666668
sI9
F3180.3043333333335
sI10
F3084.3683333333333
sI11
F3192.6446666666666
sI12
F3155.603666666667
sI13
F3171.5679999999998
sI14
F2828.9983333333334
sI15
F1771.7143333333333
sI16
F3099.2063333333335
sI17
F3121.5330000000004
sI18
F3155.8309999999997
sI19
F3043.246
sI20
F3027.8863333333334
sI21
F3092.716
sI22
F3217.0266666666666
sI23
F3164.552
sI24
F3190.646
sI25
F2921.3903333333337
sI26
F3091.6913333333337
sI27
F3117.5173333333337
ssg72
(dp362
I0
F1.0157559999999999
sI1
F1.0318559999999999
sI2
F1.014793
sI3
F1.004661
sI4
F1.019665
sI5
F1.020916
sI6
F1.008817
sI7
F1.0162579999999999
sI8
F1.030322
sI9
F1.0079129999999998
sI10
F1.053647
sI11
F1.018472
sI12
F1.004641
sI13
F1.004634
sI14
F1.004627
sI15
F1.03265
sI16
F1.05257
sI17
F1.008502
sI18
F1.0202879999999999
sI19
F1.055848
sI20
F1.015266
sI21
F1.014318
sI22
F1.0190629999999998
sI23
F1.004692
sI24
F1.008203
sI25
F1.029579
sI26
F1.054735
sI27
F1.007636
ssg74
(dp363
I0
F2448.478
sI1
F2004.5523333333333
sI2
F2505.849333333333
sI3
F2545.1600000000003
sI4
F2623.8686666666667
sI5
F2555.529
sI6
F2383.1956666666665
sI7
F2126.6279999999997
sI8
F1548.232
sI9
F2607.6593333333335
sI10
F2530.5056666666665
sI11
F2577.1923333333334
sI12
F2574.869
sI13
F2613.1923333333334
sI14
F2275.7993333333334
sI15
F1457.0363333333332
sI16
F2529.685
sI17
F2515.7673333333337
sI18
F2594.836333333333
sI19
F2490.311333333333
sI20
F2455.0243333333333
sI21
F2554.6136666666666
sI22
F2605.8793333333333
sI23
F2574.939
sI24
F2597.135666666667
sI25
F2379.762666666667
sI26
F2489.8236666666667
sI27
F2542.651
ssg76
(dp364
I0
F4144.78
sI1
F3358.436666666667
sI2
F4166.28
sI3
F4265.736666666667
sI4
F4429.386666666667
sI5
F4295.266666666666
sI6
F4039.266666666667
sI7
F3572.7166666666667
sI8
F2524.411666666667
sI9
F4385.046666666666
sI10
F4230.31
sI11
F4363.333333333333
sI12
F4311.12
sI13
F4359.76
sI14
F3865.32
sI15
F2433.4809999999998
sI16
F4236.58
sI17
F4274.333333333333
sI18
F4373.903333333334
sI19
F4150.663333333333
sI20
F4140.179999999999
sI21
F4257.7733333333335
sI22
F4384.743333333333
sI23
F4324.69
sI24
F4343.856666666667
sI25
F3996.52
sI26
F4211.856666666667
sI27
F4284.02
ssg78
(dp365
I0
F7.985332
sI1
F7.090585
sI2
F7.845666
sI3
F7.409433
sI4
F7.160085
sI5
F8.009376
sI6
F7.482554
sI7
F7.880024
sI8
F7.169484
sI9
F6.425261
sI10
F8.172521
sI11
F7.199935
sI12
F7.084063
sI13
F6.339579
sI14
F7.363313
sI15
F8.587333
sI16
F8.848935
sI17
F7.460571
sI18
F6.68469
sI19
F8.92389
sI20
F7.766959
sI21
F7.716041
sI22
F6.870241
sI23
F7.244208
sI24
F6.739225
sI25
F8.842401
sI26
F8.379257
sI27
F6.867937
ssg80
(dp366
I0
F12.528
sI1
F12.745
sI2
F12.503
sI3
F12.486
sI4
F12.453
sI5
F12.481
sI6
F12.557
sI7
F12.681
sI8
F13.025
sI9
F12.459
sI10
F12.492
sI11
F12.472
sI12
F12.473
sI13
F12.457
sI14
F12.607
sI15
F13.091
sI16
F12.492
sI17
F12.498
sI18
F12.465
sI19
F12.509
sI20
F12.525
sI21
F12.482
sI22
F12.46
sI23
F12.473
sI24
F12.464
sI25
F12.559
sI26
F12.51
sI27
F12.487
ssg82
(dp367
I0
F0.003
sI1
F0.003
sI2
F0.003
sI3
F0.003
sI4
F0.003
sI5
F0.003
sI6
F0.003
sI7
F0.003
sI8
F0.004
sI9
F0.003
sI10
F0.003
sI11
F0.003
sI12
F0.003
sI13
F0.003
sI14
F0.003
sI15
F0.004
sI16
F0.003
sI17
F0.003
sI18
F0.003
sI19
F0.003
sI20
F0.003
sI21
F0.003
sI22
F0.003
sI23
F0.003
sI24
F0.003
sI25
F0.003
sI26
F0.003
sI27
F0.003
ssg84
(dp368
I0
F0.3703024487728493
sI1
Fnan
sI2
Fnan
sI3
Fnan
sI4
Fnan
sI5
Fnan
sI6
Fnan
sI7
Fnan
sI8
Fnan
sI9
Fnan
sI10
Fnan
sI11
Fnan
sI12
Fnan
sI13
Fnan
sI14
Fnan
sI15
Fnan
sI16
Fnan
sI17
Fnan
sI18
Fnan
sI19
Fnan
sI20
Fnan
sI21
Fnan
sI22
Fnan
sI23
Fnan
sI24
Fnan
sI25
Fnan
sI26
Fnan
sI27
Fnan
ssg86
(dp369
I0
F12.551214285714286
sI1
Fnan
sI2
Fnan
sI3
Fnan
sI4
Fnan
sI5
Fnan
sI6
Fnan
sI7
Fnan
sI8
Fnan
sI9
Fnan
sI10
Fnan
sI11
Fnan
sI12
Fnan
sI13
Fnan
sI14
Fnan
sI15
Fnan
sI16
Fnan
sI17
Fnan
sI18
Fnan
sI19
Fnan
sI20
Fnan
sI21
Fnan
sI22
Fnan
sI23
Fnan
sI24
Fnan
sI25
Fnan
sI26
Fnan
sI27
Fnan
ssg88
(dp370
I0
F12.304
sI1
F12.526
sI2
F12.286
sI3
F12.272
sI4
F12.227
sI5
F12.26
sI6
F12.328
sI7
F12.453
sI8
F12.819
sI9
F12.244
sI10
F12.277
sI11
F12.24
sI12
F12.252
sI13
F12.247
sI14
F12.371
sI15
F12.879
sI16
F12.272
sI17
F12.264
sI18
F12.252
sI19
F12.292
sI20
F12.297
sI21
F12.274
sI22
F12.231
sI23
F12.249
sI24
F12.24
sI25
F12.336
sI26
F12.275
sI27
F12.265
ssg90
(dp371
I0
F-0.9933061
sI1
F3.095709
sI2
F-3.13054
sI3
F2.330919
sI4
F3.499599
sI5
F-3.758948
sI6
F-1.936151
sI7
F2.255903
sI8
F2.995485
sI9
F-2.121266
sI10
F-2.257815
sI11
F1.737826
sI12
F-2.135542
sI13
F-2.495872
sI14
F2.906052
sI15
F3.616187
sI16
F4.156615
sI17
F3.290557
sI18
F1.464201
sI19
F-2.441479
sI20
F3.037098
sI21
F-1.978991
sI22
F2.605234
sI23
F3.526657
sI24
F-3.04438
sI25
F3.057449
sI26
F-2.792473
sI27
F1.006209
ssg92
(dp372
I0
F0.1629801291163205
sI1
Fnan
sI2
Fnan
sI3
Fnan
sI4
Fnan
sI5
Fnan
sI6
Fnan
sI7
Fnan
sI8
Fnan
sI9
Fnan
sI10
Fnan
sI11
Fnan
sI12
Fnan
sI13
Fnan
sI14
Fnan
sI15
Fnan
sI16
Fnan
sI17
Fnan
sI18
Fnan
sI19
Fnan
sI20
Fnan
sI21
Fnan
sI22
Fnan
sI23
Fnan
sI24
Fnan
sI25
Fnan
sI26
Fnan
sI27
Fnan
ssg94
(dp373
I0
F0.6844693665407625
sI1
F0.6898932898831027
sI2
F0.6936592109811803
sI3
F0.6912256479923603
sI4
F0.6850377720816078
sI5
F0.6880579834282804
sI6
F0.6827553817362603
sI7
F0.6864052652329464
sI8
F0.7042839033680468
sI9
F0.6893690281741941
sI10
F0.6918980032614785
sI11
F0.6821598298283382
sI12
F0.6896917885135788
sI13
F0.6939526026043039
sI14
F0.6799196632168921
sI15
F0.6929696329603714
sI16
F0.6896833918145289
sI17
F0.6803171447257543
sI18
F0.689223873901173
sI19
F0.6923388155017058
sI20
F0.6849892897661523
sI21
F0.6950866944549905
sI22
F0.6855980471214819
sI23
F0.6876367461486756
sI24
F0.6893980350306688
sI25
F0.6880004371262209
sI26
F0.681812090963643
sI27
F0.6870602377560121
ssg96
(dp374
I0
F30.0
sI1
F30.0
sI2
F30.0
sI3
F30.0
sI4
F30.0
sI5
F30.0
sI6
F30.0
sI7
F30.0
sI8
F30.0
sI9
F30.0
sI10
F30.0
sI11
F30.0
sI12
F30.0
sI13
F30.0
sI14
F30.0
sI15
F30.0
sI16
F30.0
sI17
F30.0
sI18
F30.0
sI19
F30.0
sI20
F30.0
sI21
F30.0
sI22
F30.0
sI23
F30.0
sI24
F30.0
sI25
F30.0
sI26
F30.0
sI27
F30.0
ssg98
(dp375
I0
F0.004
sI1
F0.005
sI2
F0.004
sI3
F0.004
sI4
F0.004
sI5
F0.004
sI6
F0.004
sI7
F0.005
sI8
F0.006
sI9
F0.004
sI10
F0.004
sI11
F0.004
sI12
F0.004
sI13
F0.004
sI14
F0.005
sI15
F0.006
sI16
F0.004
sI17
F0.004
sI18
F0.004
sI19
F0.004
sI20
F0.004
sI21
F0.004
sI22
F0.004
sI23
F0.004
sI24
F0.004
sI25
F0.004
sI26
F0.004
sI27
F0.004
ssg100
(dp376
I0
F0.004
sI1
F0.004
sI2
F0.004
sI3
F0.004
sI4
F0.004
sI5
F0.004
sI6
F0.004
sI7
F0.004
sI8
F0.005
sI9
F0.004
sI10
F0.004
sI11
F0.004
sI12
F0.004
sI13
F0.004
sI14
F0.004
sI15
F0.005
sI16
F0.004
sI17
F0.004
sI18
F0.004
sI19
F0.004
sI20
F0.004
sI21
F0.004
sI22
F0.004
sI23
F0.004
sI24
F0.004
sI25
F0.004
sI26
F0.004
sI27
F0.004
ssg102
(dp377
I0
F-2.901689
sI1
F3.689246
sI2
F-1.610769
sI3
F4.497686
sI4
F3.842883
sI5
F2.892393
sI6
F1.621073
sI7
F3.765284
sI8
F-2.816839
sI9
F3.580632
sI10
F1.98712
sI11
F4.262904
sI12
F-2.762213
sI13
F1.606971
sI14
F3.559245
sI15
F3.033151
sI16
F2.517243
sI17
F-1.924837
sI18
F3.078234
sI19
F-1.767773
sI20
F2.446421
sI21
F-1.80866
sI22
F-3.362508
sI23
F-3.820126
sI24
F3.764903
sI25
F2.742121
sI26
F-3.39222
sI27
F-3.159949
ssg104
(dp378
I0
S"KIC8462852-20180804at060623_-25-1-030-z'_cal.fts.mag.1"
p379
sI1
S"KIC8462852-20180804at054108_-25-1-030-z'_cal.fts.mag.1"
p380
sI2
S"KIC8462852-20180804at060824_-25-1-030-z'_cal.fts.mag.1"
p381
sI3
S"KIC8462852-20180804at064936_-25-1X1-030-z'_cal.fts.mag.1"
p382
sI4
S"KIC8462852-20180804at074437_-25-1X1-030-z'_cal.fts.mag.1"
p383
sI5
S"KIC8462852-20180804at074645_-25-1X1-030-z'_cal.fts.mag.1"
p384
sI6
S"KIC8462852-20180804at071947_-25-1X1-030-z'_cal.fts.mag.1"
p385
sI7
S"KIC8462852-20180804at060522_-25-1-030-z'_cal.fts.mag.1"
p386
sI8
S"KIC8462852-20180804at054307_-25-1-030-z'_cal.fts.mag.1"
p387
sI9
S"KIC8462852-20180804at071635_-25-1X1-030-z'_cal.fts.mag.1"
p388
sI10
S"KIC8462852-20180804at051739_-25-1-030-z'_cal.fts.mag.1"
p389
sI11
S"KIC8462852-20180804at074227_-25-1X1-030-z'_cal.fts.mag.1"
p390
sI12
S"KIC8462852-20180804at065040_-25-1X1-030-z'_cal.fts.mag.1"
p391
sI13
S"KIC8462852-20180804at065144_-25-1X1-030-z'_cal.fts.mag.1"
p392
sI14
S"KIC8462852-20180804at065248_-25-1X1-030-z'_cal.fts.mag.1"
p393
sI15
S"KIC8462852-20180804at054005_-25-1-030-z'_cal.fts.mag.1"
p394
sI16
S"KIC8462852-20180804at051839_-25-1-030-z'_cal.fts.mag.1"
p395
sI17
S"KIC8462852-20180804at071843_-25-1X1-030-z'_cal.fts.mag.1"
p396
sI18
S"KIC8462852-20180804at074540_-25-1X1-030-z'_cal.fts.mag.1"
p397
sI19
S"KIC8462852-20180804at051538_-25-1-030-z'_cal.fts.mag.1"
p398
sI20
S"KIC8462852-20180804at060724_-25-1-030-z'_cal.fts.mag.1"
p399
sI21
S"KIC8462852-20180804at060924_-25-1-030-z'_cal.fts.mag.1"
p400
sI22
S"KIC8462852-20180804at074333_-25-1X1-030-z'_cal.fts.mag.1"
p401
sI23
S"KIC8462852-20180804at064831_-25-1X1-030-z'_cal.fts.mag.1"
p402
sI24
S"KIC8462852-20180804at071739_-25-1X1-030-z'_cal.fts.mag.1"
p403
sI25
S"KIC8462852-20180804at054407_-25-1-030-z'_cal.fts.mag.1"
p404
sI26
S"KIC8462852-20180804at051638_-25-1-030-z'_cal.fts.mag.1"
p405
sI27
S"KIC8462852-20180804at071530_-25-1X1-030-z'_cal.fts.mag.1"
p406
ssg121
(dp407
I0
F0.008433346174572214
sI1
Fnan
sI2
Fnan
sI3
Fnan
sI4
Fnan
sI5
Fnan
sI6
Fnan
sI7
Fnan
sI8
Fnan
sI9
Fnan
sI10
Fnan
sI11
Fnan
sI12
Fnan
sI13
Fnan
sI14
Fnan
sI15
Fnan
sI16
Fnan
sI17
Fnan
sI18
Fnan
sI19
Fnan
sI20
Fnan
sI21
Fnan
sI22
Fnan
sI23
Fnan
sI24
Fnan
sI25
Fnan
sI26
Fnan
sI27
Fnan
ssg123
(dp408
I0
F1196.827
sI1
F943.288
sI2
F1204.8899999999999
sI3
F1219.5993333333333
sI4
F1268.286
sI5
F1214.1703333333332
sI6
F1143.3593333333333
sI7
F1022.048
sI8
F741.6693333333334
sI9
F1253.1496666666667
sI10
F1230.3376666666666
sI11
F1253.9656666666667
sI12
F1247.768
sI13
F1263.715
sI14
F1114.165
sI15
F709.832
sI16
F1220.862
sI17
F1199.713
sI18
F1254.8953333333334
sI19
F1195.8523333333333
sI20
F1196.6936666666666
sI21
F1232.3126666666665
sI22
F1266.7863333333332
sI23
F1250.9753333333333
sI24
F1234.613
sI25
F1149.3329999999999
sI26
F1208.8839999999998
sI27
F1200.6660000000002
ssg125
(dp409
I0
F0.15838451971280534
sI1
Fnan
sI2
Fnan
sI3
Fnan
sI4
Fnan
sI5
Fnan
sI6
Fnan
sI7
Fnan
sI8
Fnan
sI9
Fnan
sI10
Fnan
sI11
Fnan
sI12
Fnan
sI13
Fnan
sI14
Fnan
sI15
Fnan
sI16
Fnan
sI17
Fnan
sI18
Fnan
sI19
Fnan
sI20
Fnan
sI21
Fnan
sI22
Fnan
sI23
Fnan
sI24
Fnan
sI25
Fnan
sI26
Fnan
sI27
Fnan
ssg127
(dp410
I0
S"z'"
p411
sI1
S"z'"
p412
sI2
S"z'"
p413
sI3
S"z'"
p414
sI4
S"z'"
p415
sI5
S"z'"
p416
sI6
S"z'"
p417
sI7
S"z'"
p418
sI8
S"z'"
p419
sI9
S"z'"
p420
sI10
S"z'"
p421
sI11
S"z'"
p422
sI12
S"z'"
p423
sI13
S"z'"
p424
sI14
S"z'"
p425
sI15
S"z'"
p426
sI16
S"z'"
p427
sI17
S"z'"
p428
sI18
S"z'"
p429
sI19
S"z'"
p430
sI20
S"z'"
p431
sI21
S"z'"
p432
sI22
S"z'"
p433
sI23
S"z'"
p434
sI24
S"z'"
p435
sI25
S"z'"
p436
sI26
S"z'"
p437
sI27
S"z'"
p438
ssg144
(dp439
I0
F0.003837905995000233
sI1
Fnan
sI2
Fnan
sI3
Fnan
sI4
Fnan
sI5
Fnan
sI6
Fnan
sI7
Fnan
sI8
Fnan
sI9
Fnan
sI10
Fnan
sI11
Fnan
sI12
Fnan
sI13
Fnan
sI14
Fnan
sI15
Fnan
sI16
Fnan
sI17
Fnan
sI18
Fnan
sI19
Fnan
sI20
Fnan
sI21
Fnan
sI22
Fnan
sI23
Fnan
sI24
Fnan
sI25
Fnan
sI26
Fnan
sI27
Fnan
ssg146
(dp440
I0
F2.61776
sI1
F2.807543
sI2
F2.237818
sI3
F3.408802
sI4
F2.419672
sI5
F-3.315926
sI6
F2.95023
sI7
F-1.264021
sI8
F-1.353308
sI9
F3.51001
sI10
F1.171475
sI11
F-1.244525
sI12
F-2.209303
sI13
F2.082283
sI14
F2.432641
sI15
F2.796038
sI16
F2.960334
sI17
F-3.164285
sI18
F4.616316
sI19
F-2.324944
sI20
F1.907629
sI21
F-1.649858
sI22
F-2.452625
sI23
F-3.004905
sI24
F2.596423
sI25
F-2.65417
sI26
F3.297882
sI27
F-1.071793
ssg148
(dp441
I0
F1.5082017031162118
sI1
Fnan
sI2
Fnan
sI3
Fnan
sI4
Fnan
sI5
Fnan
sI6
Fnan
sI7
Fnan
sI8
Fnan
sI9
Fnan
sI10
Fnan
sI11
Fnan
sI12
Fnan
sI13
Fnan
sI14
Fnan
sI15
Fnan
sI16
Fnan
sI17
Fnan
sI18
Fnan
sI19
Fnan
sI20
Fnan
sI21
Fnan
sI22
Fnan
sI23
Fnan
sI24
Fnan
sI25
Fnan
sI26
Fnan
sI27
Fnan
ssg150
(dp442
I0
F2458334.784079861
sI1
Fnan
sI2
Fnan
sI3
Fnan
sI4
Fnan
sI5
Fnan
sI6
Fnan
sI7
Fnan
sI8
Fnan
sI9
Fnan
sI10
Fnan
sI11
Fnan
sI12
Fnan
sI13
Fnan
sI14
Fnan
sI15
Fnan
sI16
Fnan
sI17
Fnan
sI18
Fnan
sI19
Fnan
sI20
Fnan
sI21
Fnan
sI22
Fnan
sI23
Fnan
sI24
Fnan
sI25
Fnan
sI26
Fnan
sI27
Fnan
ssg152
(dp443
I0
F0.003837905995000233
sI1
Fnan
sI2
Fnan
sI3
Fnan
sI4
Fnan
sI5
Fnan
sI6
Fnan
sI7
Fnan
sI8
Fnan
sI9
Fnan
sI10
Fnan
sI11
Fnan
sI12
Fnan
sI13
Fnan
sI14
Fnan
sI15
Fnan
sI16
Fnan
sI17
Fnan
sI18
Fnan
sI19
Fnan
sI20
Fnan
sI21
Fnan
sI22
Fnan
sI23
Fnan
sI24
Fnan
sI25
Fnan
sI26
Fnan
sI27
Fnan
ssg154
(dp444
I0
F9.151016
sI1
F8.752566
sI2
F9.165629
sI3
F7.316918
sI4
F7.282263
sI5
F9.446047
sI6
F8.766973
sI7
F7.840286
sI8
F8.812735
sI9
F6.844722
sI10
F9.301072
sI11
F7.597198
sI12
F7.781588
sI13
F7.982111
sI14
F8.434483
sI15
F9.098454
sI16
F9.000792
sI17
F7.95539
sI18
F8.587846
sI19
F10.23196
sI20
F8.71383
sI21
F7.994786
sI22
F7.294958
sI23
F7.184165
sI24
F7.887321
sI25
F8.730205
sI26
F9.037898
sI27
F8.129564
ssg156
(dp445
I0
F11.956
sI1
F12.185
sI2
F11.951
sI3
F11.925
sI4
F11.884
sI5
F11.918
sI6
F11.984
sI7
F12.118
sI8
F12.495
sI9
F11.895
sI10
F11.934
sI11
F11.9
sI12
F11.914
sI13
F11.901
sI14
F12.032
sI15
F12.534
sI16
F11.932
sI17
F11.923
sI18
F11.898
sI19
F11.955
sI20
F11.957
sI21
F11.927
sI22
F11.895
sI23
F11.91
sI24
F11.905
sI25
F11.996
sI26
F11.939
sI27
F11.92
ssg158
(dp446
I0
F0.3703024487728493
sI1
Fnan
sI2
Fnan
sI3
Fnan
sI4
Fnan
sI5
Fnan
sI6
Fnan
sI7
Fnan
sI8
Fnan
sI9
Fnan
sI10
Fnan
sI11
Fnan
sI12
Fnan
sI13
Fnan
sI14
Fnan
sI15
Fnan
sI16
Fnan
sI17
Fnan
sI18
Fnan
sI19
Fnan
sI20
Fnan
sI21
Fnan
sI22
Fnan
sI23
Fnan
sI24
Fnan
sI25
Fnan
sI26
Fnan
sI27
Fnan
sssS'g'
p447
(dp448
g3
(dp449
I0
F0.8628671724725748
sI1
Fnan
sI2
Fnan
sI3
Fnan
sI4
Fnan
sI5
Fnan
sI6
Fnan
sI7
Fnan
sI8
Fnan
sI9
Fnan
sI10
Fnan
sI11
Fnan
sI12
Fnan
sI13
Fnan
sI14
Fnan
sI15
Fnan
sI16
Fnan
sI17
Fnan
sI18
Fnan
sI19
Fnan
sI20
Fnan
sI21
Fnan
sI22
Fnan
sI23
Fnan
sI24
Fnan
sI25
Fnan
sI26
Fnan
sI27
Fnan
sI28
Fnan
ssg5
(dp450
I0
S'NoError'
p451
sI1
S'NoError'
p452
sI2
S'NoError'
p453
sI3
S'NoError'
p454
sI4
S'NoError'
p455
sI5
S'NoError'
p456
sI6
S'NoError'
p457
sI7
S'NoError'
p458
sI8
S'NoError'
p459
sI9
S'NoError'
p460
sI10
S'NoError'
p461
sI11
S'NoError'
p462
sI12
S'NoError'
p463
sI13
S'NoError'
p464
sI14
S'NoError'
p465
sI15
S'NoError'
p466
sI16
S'NoError'
p467
sI17
S'NoError'
p468
sI18
S'NoError'
p469
sI19
S'NoError'
p470
sI20
S'NoError'
p471
sI21
S'NoError'
p472
sI22
S'NoError'
p473
sI23
S'NoError'
p474
sI24
S'NoError'
p475
sI25
S'NoError'
p476
sI26
S'NoError'
p477
sI27
S'NoError'
p478
sI28
S'NoError'
p479
ssg22
(dp480
I0
F0.002
sI1
F0.002
sI2
F0.002
sI3
F0.002
sI4
F0.002
sI5
F0.002
sI6
F0.002
sI7
F0.002
sI8
F0.003
sI9
F0.002
sI10
F0.002
sI11
F0.002
sI12
F0.002
sI13
F0.002
sI14
F0.002
sI15
F0.002
sI16
F0.002
sI17
F0.002
sI18
F0.002
sI19
F0.002
sI20
F0.002
sI21
F0.002
sI22
F0.002
sI23
F0.002
sI24
F0.002
sI25
F0.002
sI26
F0.002
sI27
F0.002
sI28
F0.002
ssg24
(dp481
I0
F0.8783268834674345
sI1
F0.8824376346518072
sI2
F0.8798545345439789
sI3
F0.8757424613250644
sI4
F0.878017825046075
sI5
F0.8803893775243617
sI6
F0.8799391968241759
sI7
F0.8821453063272506
sI8
F0.882576577119068
sI9
F0.876462137690087
sI10
F0.876572394305451
sI11
F0.8745565302218168
sI12
F0.8731812349393488
sI13
F0.880894594851879
sI14
F0.8826863810226707
sI15
F0.8787137959817476
sI16
F0.8808019158380158
sI17
F0.8789831154595571
sI18
F0.8802479866276289
sI19
F0.8789674995530465
sI20
F0.8761044826998465
sI21
F0.8806274242359661
sI22
F0.8755211115494812
sI23
F0.8810808797135007
sI24
F0.8765882669572191
sI25
F0.8776690526471874
sI26
F0.8768817657149617
sI27
F0.8767247388321464
sI28
F0.8817112884767879
ssg26
(dp482
I0
F0.0025956416910568607
sI1
Fnan
sI2
Fnan
sI3
Fnan
sI4
Fnan
sI5
Fnan
sI6
Fnan
sI7
Fnan
sI8
Fnan
sI9
Fnan
sI10
Fnan
sI11
Fnan
sI12
Fnan
sI13
Fnan
sI14
Fnan
sI15
Fnan
sI16
Fnan
sI17
Fnan
sI18
Fnan
sI19
Fnan
sI20
Fnan
sI21
Fnan
sI22
Fnan
sI23
Fnan
sI24
Fnan
sI25
Fnan
sI26
Fnan
sI27
Fnan
sI28
Fnan
ssg28
(dp483
I0
F0.8787726342809505
sI1
Fnan
sI2
Fnan
sI3
Fnan
sI4
Fnan
sI5
Fnan
sI6
Fnan
sI7
Fnan
sI8
Fnan
sI9
Fnan
sI10
Fnan
sI11
Fnan
sI12
Fnan
sI13
Fnan
sI14
Fnan
sI15
Fnan
sI16
Fnan
sI17
Fnan
sI18
Fnan
sI19
Fnan
sI20
Fnan
sI21
Fnan
sI22
Fnan
sI23
Fnan
sI24
Fnan
sI25
Fnan
sI26
Fnan
sI27
Fnan
sI28
Fnan
ssg30
(dp484
I0
F11.459
sI1
F11.548
sI2
F11.538
sI3
F11.554
sI4
F11.558
sI5
F11.465
sI6
F11.465
sI7
F11.439
sI8
F11.575
sI9
F11.572
sI10
F11.575
sI11
F11.487
sI12
F11.472
sI13
F11.567
sI14
F11.559
sI15
F11.501
sI16
F11.539
sI17
F11.462
sI18
F11.522
sI19
F11.453
sI20
F11.466
sI21
F11.556
sI22
F11.524
sI23
F11.488
sI24
F11.456
sI25
F11.563
sI26
F11.551
sI27
F11.533
sI28
F11.548
ssg32
(dp485
I0
F13.83973
sI1
F7.938179
sI2
F7.296478
sI3
F9.00256
sI4
F8.295068
sI5
F9.880275
sI6
F14.58138
sI7
F10.00101
sI8
F8.588764
sI9
F7.873841
sI10
F7.558078
sI11
F8.405428
sI12
F10.53384
sI13
F8.090357
sI14
F7.464869
sI15
F7.572825
sI16
F7.953617
sI17
F13.66316
sI18
F9.081736
sI19
F14.00619
sI20
F10.68076
sI21
F7.730933
sI22
F9.202582
sI23
F11.73889
sI24
F13.81785
sI25
F7.809203
sI26
F9.273728
sI27
F7.582859
sI28
F8.302664
ssg34
(dp486
I0
F2458334.8130208333
sI1
F2458334.727013889
sI2
F2458334.7284027776
sI3
F2458334.743275463
sI4
F2458334.7087152777
sI5
F2458334.7935648146
sI6
F2458334.8100925926
sI7
F2458334.7921064813
sI8
F2458334.7080208333
sI9
F2458334.710787037
sI10
F2458334.7453587963
sI11
F2458334.774837963
sI12
F2458334.791365741
sI13
F2458334.744664352
sI14
F2458334.7100925925
sI15
F2458334.7740972224
sI16
F2458334.7460416667
sI17
F2458334.8115625
sI18
F2458334.7755787037
sI19
F2458334.8108333335
sI20
F2458334.7943055555
sI21
F2458334.709398148
sI22
F2458334.7733449074
sI23
F2458334.792835648
sI24
F2458334.812291667
sI25
F2458334.727719907
sI26
F2458334.7725925925
sI27
F2458334.7439583335
sI28
F2458334.725625
ssg36
(dp487
I0
F0.677302975862069
sI1
Fnan
sI2
Fnan
sI3
Fnan
sI4
Fnan
sI5
Fnan
sI6
Fnan
sI7
Fnan
sI8
Fnan
sI9
Fnan
sI10
Fnan
sI11
Fnan
sI12
Fnan
sI13
Fnan
sI14
Fnan
sI15
Fnan
sI16
Fnan
sI17
Fnan
sI18
Fnan
sI19
Fnan
sI20
Fnan
sI21
Fnan
sI22
Fnan
sI23
Fnan
sI24
Fnan
sI25
Fnan
sI26
Fnan
sI27
Fnan
sI28
Fnan
ssg38
(dp488
I0
F1.7055647896551727
sI1
Fnan
sI2
Fnan
sI3
Fnan
sI4
Fnan
sI5
Fnan
sI6
Fnan
sI7
Fnan
sI8
Fnan
sI9
Fnan
sI10
Fnan
sI11
Fnan
sI12
Fnan
sI13
Fnan
sI14
Fnan
sI15
Fnan
sI16
Fnan
sI17
Fnan
sI18
Fnan
sI19
Fnan
sI20
Fnan
sI21
Fnan
sI22
Fnan
sI23
Fnan
sI24
Fnan
sI25
Fnan
sI26
Fnan
sI27
Fnan
sI28
Fnan
ssg40
(dp489
I0
F0.8678503650553376
sI1
F0.8609652617251864
sI2
F0.8600576223997428
sI3
F0.8614610126050641
sI4
F0.861137050050049
sI5
F0.8692022649710256
sI6
F0.8642613996054271
sI7
F0.8654660722302248
sI8
F0.8584851503250152
sI9
F0.8627804576637115
sI10
F0.8638970533711322
sI11
F0.8665235053771417
sI12
F0.8626187013032396
sI13
F0.8567051550155507
sI14
F0.8607741554510601
sI15
F0.860381036865884
sI16
F0.8682771189831139
sI17
F0.8627399744238438
sI18
F0.8630414210159681
sI19
F0.8645827593535741
sI20
F0.8684011685360497
sI21
F0.862826592306457
sI22
F0.8642757105425932
sI23
F0.8584079897682366
sI24
F0.8636158733145151
sI25
F0.8626838807164126
sI26
F0.8670076799995393
sI27
F0.8581805732956012
sI28
F0.8629714138724415
ssg42
(dp490
I0
F0.0023881890659205713
sI1
Fnan
sI2
Fnan
sI3
Fnan
sI4
Fnan
sI5
Fnan
sI6
Fnan
sI7
Fnan
sI8
Fnan
sI9
Fnan
sI10
Fnan
sI11
Fnan
sI12
Fnan
sI13
Fnan
sI14
Fnan
sI15
Fnan
sI16
Fnan
sI17
Fnan
sI18
Fnan
sI19
Fnan
sI20
Fnan
sI21
Fnan
sI22
Fnan
sI23
Fnan
sI24
Fnan
sI25
Fnan
sI26
Fnan
sI27
Fnan
sI28
Fnan
ssg44
(dp491
I0
F0.40761841379310343
sI1
Fnan
sI2
Fnan
sI3
Fnan
sI4
Fnan
sI5
Fnan
sI6
Fnan
sI7
Fnan
sI8
Fnan
sI9
Fnan
sI10
Fnan
sI11
Fnan
sI12
Fnan
sI13
Fnan
sI14
Fnan
sI15
Fnan
sI16
Fnan
sI17
Fnan
sI18
Fnan
sI19
Fnan
sI20
Fnan
sI21
Fnan
sI22
Fnan
sI23
Fnan
sI24
Fnan
sI25
Fnan
sI26
Fnan
sI27
Fnan
sI28
Fnan
ssg46
(dp492
I0
g451
sI1
g452
sI2
g453
sI3
g454
sI4
g455
sI5
g456
sI6
g457
sI7
g458
sI8
g459
sI9
g460
sI10
g461
sI11
g462
sI12
g463
sI13
g464
sI14
g465
sI15
g466
sI16
g467
sI17
g468
sI18
g469
sI19
g470
sI20
g471
sI21
g472
sI22
g473
sI23
g474
sI24
g475
sI25
g476
sI26
g477
sI27
g478
sI28
g479
ssg48
(dp493
I0
F0.002713711918969182
sI1
Fnan
sI2
Fnan
sI3
Fnan
sI4
Fnan
sI5
Fnan
sI6
Fnan
sI7
Fnan
sI8
Fnan
sI9
Fnan
sI10
Fnan
sI11
Fnan
sI12
Fnan
sI13
Fnan
sI14
Fnan
sI15
Fnan
sI16
Fnan
sI17
Fnan
sI18
Fnan
sI19
Fnan
sI20
Fnan
sI21
Fnan
sI22
Fnan
sI23
Fnan
sI24
Fnan
sI25
Fnan
sI26
Fnan
sI27
Fnan
sI28
Fnan
ssg50
(dp494
I0
F0.043330213352377626
sI1
Fnan
sI2
Fnan
sI3
Fnan
sI4
Fnan
sI5
Fnan
sI6
Fnan
sI7
Fnan
sI8
Fnan
sI9
Fnan
sI10
Fnan
sI11
Fnan
sI12
Fnan
sI13
Fnan
sI14
Fnan
sI15
Fnan
sI16
Fnan
sI17
Fnan
sI18
Fnan
sI19
Fnan
sI20
Fnan
sI21
Fnan
sI22
Fnan
sI23
Fnan
sI24
Fnan
sI25
Fnan
sI26
Fnan
sI27
Fnan
sI28
Fnan
ssg52
(dp495
I0
F1.5967012413793105
sI1
Fnan
sI2
Fnan
sI3
Fnan
sI4
Fnan
sI5
Fnan
sI6
Fnan
sI7
Fnan
sI8
Fnan
sI9
Fnan
sI10
Fnan
sI11
Fnan
sI12
Fnan
sI13
Fnan
sI14
Fnan
sI15
Fnan
sI16
Fnan
sI17
Fnan
sI18
Fnan
sI19
Fnan
sI20
Fnan
sI21
Fnan
sI22
Fnan
sI23
Fnan
sI24
Fnan
sI25
Fnan
sI26
Fnan
sI27
Fnan
sI28
Fnan
ssg54
(dp496
I0
F1.5177040313620258
sI1
F1.517533277330933
sI2
F1.5220848178586253
sI3
F1.519052544842266
sI4
F1.512301754504239
sI5
F1.5110810623793287
sI6
F1.517322719325418
sI7
F1.5131220871801752
sI8
F1.5104057237449464
sI9
F1.521071917347069
sI10
F1.5297983739098446
sI11
F1.5230421134817316
sI12
F1.5153960571914158
sI13
F1.516711084961871
sI14
F1.5208891036155352
sI15
F1.5230021838640955
sI16
F1.5186575082774922
sI17
F1.517475884393636
sI18
F1.5098196935015458
sI19
F1.5175986382889695
sI20
F1.5196924199273132
sI21
F1.5092121863628265
sI22
F1.5240297895506196
sI23
F1.5196756519003258
sI24
F1.5199234088806828
sI25
F1.520043803042747
sI26
F1.5246115275218288
sI27
F1.5214864643519244
sI28
F1.5111513640130694
ssg56
(dp497
I0
g451
sI1
g452
sI2
g453
sI3
g454
sI4
g455
sI5
g456
sI6
g457
sI7
g458
sI8
g459
sI9
g460
sI10
g461
sI11
g462
sI12
g463
sI13
g464
sI14
g465
sI15
g466
sI16
g467
sI17
g468
sI18
g469
sI19
g470
sI20
g471
sI21
g472
sI22
g473
sI23
g474
sI24
g475
sI25
g476
sI26
g477
sI27
g478
sI28
g479
ssg58
(dp498
I0
F14.41313
sI1
F7.727936
sI2
F7.032407
sI3
F7.626325
sI4
F7.812341
sI5
F10.6777
sI6
F14.11224
sI7
F9.33678
sI8
F7.850685
sI9
F8.411809
sI10
F7.568661
sI11
F7.191109
sI12
F11.29131
sI13
F7.304012
sI14
F8.405444
sI15
F8.902395
sI16
F7.277314
sI17
F13.93454
sI18
F8.382462
sI19
F13.79011
sI20
F11.03192
sI21
F8.11188
sI22
F8.922449
sI23
F10.70605
sI24
F14.2464
sI25
F8.125961
sI26
F10.06134
sI27
F6.842874
sI28
F7.503556
ssg60
(dp499
I0
F11.077000000000002
sI1
Fnan
sI2
Fnan
sI3
Fnan
sI4
Fnan
sI5
Fnan
sI6
Fnan
sI7
Fnan
sI8
Fnan
sI9
Fnan
sI10
Fnan
sI11
Fnan
sI12
Fnan
sI13
Fnan
sI14
Fnan
sI15
Fnan
sI16
Fnan
sI17
Fnan
sI18
Fnan
sI19
Fnan
sI20
Fnan
sI21
Fnan
sI22
Fnan
sI23
Fnan
sI24
Fnan
sI25
Fnan
sI26
Fnan
sI27
Fnan
sI28
Fnan
ssg62
(dp500
I0
F0.7145776479622569
sI1
Fnan
sI2
Fnan
sI3
Fnan
sI4
Fnan
sI5
Fnan
sI6
Fnan
sI7
Fnan
sI8
Fnan
sI9
Fnan
sI10
Fnan
sI11
Fnan
sI12
Fnan
sI13
Fnan
sI14
Fnan
sI15
Fnan
sI16
Fnan
sI17
Fnan
sI18
Fnan
sI19
Fnan
sI20
Fnan
sI21
Fnan
sI22
Fnan
sI23
Fnan
sI24
Fnan
sI25
Fnan
sI26
Fnan
sI27
Fnan
sI28
Fnan
ssg64
(dp501
I0
F-3.06784
sI1
F3.342406
sI2
F-2.282614
sI3
F4.307203
sI4
F4.297956
sI5
F3.624521
sI6
F3.243507
sI7
F2.640321
sI8
F2.225237
sI9
F3.686247
sI10
F-2.163488
sI11
F2.920738
sI12
F3.457277
sI13
F2.673007
sI14
F2.037564
sI15
F2.451615
sI16
F1.993301
sI17
F3.431506
sI18
F1.753131
sI19
F2.462041
sI20
F-3.324388
sI21
F3.018204
sI22
F-2.739532
sI23
F3.53928
sI24
F0.8460199
sI25
F2.343579
sI26
F-3.495592
sI27
F4.243266
sI28
F1.996906
ssg66
(dp502
I0
F11.452689655172414
sI1
Fnan
sI2
Fnan
sI3
Fnan
sI4
Fnan
sI5
Fnan
sI6
Fnan
sI7
Fnan
sI8
Fnan
sI9
Fnan
sI10
Fnan
sI11
Fnan
sI12
Fnan
sI13
Fnan
sI14
Fnan
sI15
Fnan
sI16
Fnan
sI17
Fnan
sI18
Fnan
sI19
Fnan
sI20
Fnan
sI21
Fnan
sI22
Fnan
sI23
Fnan
sI24
Fnan
sI25
Fnan
sI26
Fnan
sI27
Fnan
sI28
Fnan
ssg68
(dp503
I0
g451
sI1
g452
sI2
g453
sI3
g454
sI4
g455
sI5
g456
sI6
g457
sI7
g458
sI8
g459
sI9
g460
sI10
g461
sI11
g462
sI12
g463
sI13
g464
sI14
g465
sI15
g466
sI16
g467
sI17
g468
sI18
g469
sI19
g470
sI20
g471
sI21
g472
sI22
g473
sI23
g474
sI24
g475
sI25
g476
sI26
g477
sI27
g478
sI28
g479
ssg70
(dp504
I0
F6912.5233333333335
sI1
F6437.426666666666
sI2
F6490.493333333333
sI3
F6366.173333333334
sI4
F6357.67
sI5
F6875.6033333333335
sI6
F6909.863333333333
sI7
F7079.236666666667
sI8
F6302.386666666667
sI9
F6254.52
sI10
F6232.7
sI11
F6726.836666666667
sI12
F6841.363333333333
sI13
F6354.11
sI14
F6374.593333333333
sI15
F6707.59
sI16
F6429.723333333333
sI17
F6940.346666666666
sI18
F6567.666666666667
sI19
F6981.34
sI20
F6853.473333333333
sI21
F6370.29
sI22
F6520.55
sI23
F6819.45
sI24
F6953.783333333334
sI25
F6313.636666666667
sI26
F6350.456666666667
sI27
F6519.456666666667
sI28
F6423.093333333333
ssg72
(dp505
I0
F1.0127709999999999
sI1
F1.044235
sI2
F1.042354
sI3
F1.0251549999999998
sI4
F1.0740129999999999
sI5
F1.005268
sI6
F1.0110940000000002
sI7
F1.0050459999999999
sI8
F1.07531
sI9
F1.070175
sI10
F1.023179
sI11
F1.006016
sI12
F1.004952
sI13
F1.023819
sI14
F1.071443
sI15
F1.006206
sI16
F1.022546
sI17
F1.011903
sI18
F1.005841
sI19
F1.011493
sI20
F1.005398
sI21
F1.0727209999999998
sI22
F1.00641
sI23
F1.0051510000000001
sI24
F1.012327
sI25
F1.043296
sI26
F1.006627
sI27
F1.024478
sI28
F1.046175
ssg74
(dp506
I0
F5966.746666666667
sI1
F5518.41
sI2
F5572.846666666666
sI3
F5514.916666666667
sI4
F5508.929999999999
sI5
F5938.15
sI6
F5949.453333333334
sI7
F6088.13
sI8
F5425.133333333333
sI9
F5404.836666666667
sI10
F5356.243333333333
sI11
F5824.963333333333
sI12
F5965.92
sI13
F5464.093333333333
sI14
F5450.95
sI15
F5767.240000000001
sI16
F5523.373333333334
sI17
F5984.8933333333325
sI18
F5677.963333333333
sI19
F6019.95
sI20
F5931.056666666667
sI21
F5505.826666666666
sI22
F5633.6
sI23
F5851.71
sI24
F6012.036666666667
sI25
F5448.1033333333335
sI26
F5471.916666666667
sI27
F5629.820000000001
sI28
F5534.636666666667
ssg76
(dp507
I0
F9773.46
sI1
F9071.69
sI2
F9180.713333333335
sI3
F9024.0
sI4
F8972.94
sI5
F9681.31
sI6
F9755.866666666667
sI7
F9961.916666666666
sI8
F8856.656666666668
sI9
F8867.359999999999
sI10
F8864.373333333333
sI11
F9558.46
sI12
F9704.053333333333
sI13
F8962.4
sI14
F8992.67
sI15
F9499.596666666668
sI16
F9076.33
sI17
F9806.869999999999
sI18
F9244.346666666668
sI19
F9865.369999999999
sI20
F9714.276666666667
sI21
F8961.79
sI22
F9261.643333333333
sI23
F9628.026666666667
sI24
F9853.526666666667
sI25
F8939.18
sI26
F9012.263333333334
sI27
F9242.480000000001
sI28
F9034.97
ssg78
(dp508
I0
F13.896
sI1
F6.864363
sI2
F7.743671
sI3
F5.955082
sI4
F7.060383
sI5
F9.996875
sI6
F13.50134
sI7
F10.34184
sI8
F7.92829
sI9
F7.239098
sI10
F7.353604
sI11
F7.678208
sI12
F10.09412
sI13
F7.588793
sI14
F7.773719
sI15
F8.617616
sI16
F7.590095
sI17
F13.1628
sI18
F8.563538
sI19
F13.37756
sI20
F11.46242
sI21
F6.739806
sI22
F8.676908
sI23
F9.927447
sI24
F12.63151
sI25
F6.644737
sI26
F9.893654
sI27
F6.413907
sI28
F7.279846
ssg80
(dp509
I0
F11.561
sI1
F11.645
sI2
F11.635
sI3
F11.646
sI4
F11.647
sI5
F11.566
sI6
F11.564
sI7
F11.539
sI8
F11.664
sI9
F11.668
sI10
F11.678
sI11
F11.587
sI12
F11.561
sI13
F11.656
sI14
F11.659
sI15
F11.598
sI16
F11.644
sI17
F11.557
sI18
F11.615
sI19
F11.551
sI20
F11.567
sI21
F11.648
sI22
F11.623
sI23
F11.582
sI24
F11.552
sI25
F11.659
sI26
F11.655
sI27
F11.624
sI28
F11.642
ssg82
(dp510
I0
F0.002
sI1
F0.002
sI2
F0.002
sI3
F0.002
sI4
F0.002
sI5
F0.002
sI6
F0.002
sI7
F0.002
sI8
F0.002
sI9
F0.002
sI10
F0.002
sI11
F0.002
sI12
F0.002
sI13
F0.002
sI14
F0.002
sI15
F0.002
sI16
F0.002
sI17
F0.002
sI18
F0.002
sI19
F0.002
sI20
F0.002
sI21
F0.002
sI22
F0.002
sI23
F0.002
sI24
F0.002
sI25
F0.002
sI26
F0.002
sI27
F0.002
sI28
F0.002
ssg84
(dp511
I0
F0.8630889110394185
sI1
Fnan
sI2
Fnan
sI3
Fnan
sI4
Fnan
sI5
Fnan
sI6
Fnan
sI7
Fnan
sI8
Fnan
sI9
Fnan
sI10
Fnan
sI11
Fnan
sI12
Fnan
sI13
Fnan
sI14
Fnan
sI15
Fnan
sI16
Fnan
sI17
Fnan
sI18
Fnan
sI19
Fnan
sI20
Fnan
sI21
Fnan
sI22
Fnan
sI23
Fnan
sI24
Fnan
sI25
Fnan
sI26
Fnan
sI27
Fnan
sI28
Fnan
ssg86
(dp512
I0
F11.613551724137933
sI1
Fnan
sI2
Fnan
sI3
Fnan
sI4
Fnan
sI5
Fnan
sI6
Fnan
sI7
Fnan
sI8
Fnan
sI9
Fnan
sI10
Fnan
sI11
Fnan
sI12
Fnan
sI13
Fnan
sI14
Fnan
sI15
Fnan
sI16
Fnan
sI17
Fnan
sI18
Fnan
sI19
Fnan
sI20
Fnan
sI21
Fnan
sI22
Fnan
sI23
Fnan
sI24
Fnan
sI25
Fnan
sI26
Fnan
sI27
Fnan
sI28
Fnan
ssg88
(dp513
I0
F11.401
sI1
F11.478
sI2
F11.469
sI3
F11.49
sI4
F11.492
sI5
F11.407
sI6
F11.401
sI7
F11.375
sI8
F11.501
sI9
F11.51
sI10
F11.513
sI11
F11.43
sI12
F11.412
sI13
F11.492
sI14
F11.489
sI15
F11.434
sI16
F11.48
sI17
F11.397
sI18
F11.456
sI19
F11.39
sI20
F11.41
sI21
F11.49
sI22
F11.464
sI23
F11.416
sI24
F11.394
sI25
F11.499
sI26
F11.493
sI27
F11.464
sI28
F11.481
ssg90
(dp514
I0
F3.515609
sI1
F0.5309924
sI2
F3.33479
sI3
F4.12722
sI4
F2.151717
sI5
F3.640123
sI6
F-1.781286
sI7
F-4.129052
sI8
F-3.484375
sI9
F-1.782044
sI10
F-1.331782
sI11
F-1.893671
sI12
F3.308364
sI13
F-3.017637
sI14
F-0.8413351
sI15
F-2.93633
sI16
F-2.50769
sI17
F-1.942697
sI18
F2.467398
sI19
F2.811978
sI20
F4.139202
sI21
F3.152319
sI22
F-2.081611
sI23
F-3.404442
sI24
F4.11912
sI25
F2.621734
sI26
F4.162861
sI27
F4.010775
sI28
F2.681536
ssg92
(dp515
I0
F0.04341576408896392
sI1
Fnan
sI2
Fnan
sI3
Fnan
sI4
Fnan
sI5
Fnan
sI6
Fnan
sI7
Fnan
sI8
Fnan
sI9
Fnan
sI10
Fnan
sI11
Fnan
sI12
Fnan
sI13
Fnan
sI14
Fnan
sI15
Fnan
sI16
Fnan
sI17
Fnan
sI18
Fnan
sI19
Fnan
sI20
Fnan
sI21
Fnan
sI22
Fnan
sI23
Fnan
sI24
Fnan
sI25
Fnan
sI26
Fnan
sI27
Fnan
sI28
Fnan
ssg94
(dp516
I0
F0.7151807055622533
sI1
F0.7116343398022883
sI2
F0.7112211312381389
sI3
F0.7166802539802454
sI4
F0.7186837314366485
sI5
F0.7173015743272598
sI6
F0.7139745253683257
sI7
F0.7145208872795387
sI8
F0.7157619665093201
sI9
F0.7148366032089485
sI10
F0.7095737319506958
sI11
F0.7153647185631047
sI12
F0.7211568158352012
sI13
F0.7134906494146949
sI14
F0.7094236471078456
sI15
F0.7116892177050674
sI16
F0.7124151084221733
sI17
F0.7147328959140473
sI18
F0.7181834739999374
sI19
F0.714673666252936
sI20
F0.7159761182618843
sI21
F0.71821001020953
sI22
F0.7139185132273547
sI23
F0.7115632529650445
sI24
F0.7154073634230185
sI25
F0.7143734108126477
sI26
F0.7123630016906728
sI27
F0.7143563787952454
sI28
F0.7160840976413821
ssg96
(dp517
I0
F30.0
sI1
F30.0
sI2
F30.0
sI3
F30.0
sI4
F30.0
sI5
F30.0
sI6
F30.0
sI7
F30.0
sI8
F30.0
sI9
F30.0
sI10
F30.0
sI11
F30.0
sI12
F30.0
sI13
F30.0
sI14
F30.0
sI15
F30.0
sI16
F30.0
sI17
F30.0
sI18
F30.0
sI19
F30.0
sI20
F30.0
sI21
F30.0
sI22
F30.0
sI23
F30.0
sI24
F30.0
sI25
F30.0
sI26
F30.0
sI27
F30.0
sI28
F30.0
ssg98
(dp518
I0
F0.002
sI1
F0.003
sI2
F0.003
sI3
F0.003
sI4
F0.003
sI5
F0.002
sI6
F0.002
sI7
F0.002
sI8
F0.003
sI9
F0.003
sI10
F0.003
sI11
F0.003
sI12
F0.002
sI13
F0.003
sI14
F0.003
sI15
F0.002
sI16
F0.003
sI17
F0.002
sI18
F0.003
sI19
F0.002
sI20
F0.003
sI21
F0.003
sI22
F0.003
sI23
F0.003
sI24
F0.002
sI25
F0.003
sI26
F0.003
sI27
F0.003
sI28
F0.003
ssg100
(dp519
I0
F0.002
sI1
F0.002
sI2
F0.002
sI3
F0.002
sI4
F0.002
sI5
F0.002
sI6
F0.002
sI7
F0.002
sI8
F0.002
sI9
F0.002
sI10
F0.002
sI11
F0.002
sI12
F0.002
sI13
F0.002
sI14
F0.002
sI15
F0.002
sI16
F0.002
sI17
F0.002
sI18
F0.002
sI19
F0.002
sI20
F0.002
sI21
F0.002
sI22
F0.002
sI23
F0.002
sI24
F0.002
sI25
F0.002
sI26
F0.002
sI27
F0.002
sI28
F0.002
ssg102
(dp520
I0
F2.047657
sI1
F3.64066
sI2
F3.960669
sI3
F2.538584
sI4
F2.825835
sI5
F2.558938
sI6
F3.611099
sI7
F3.399529
sI8
F4.187216
sI9
F-3.090016
sI10
F2.928971
sI11
F2.450829
sI12
F-2.619695
sI13
F3.273617
sI14
F2.960142
sI15
F-3.458002
sI16
F1.850716
sI17
F2.206117
sI18
F2.349197
sI19
F-2.508789
sI20
F2.544483
sI21
F-1.874313
sI22
F2.496637
sI23
F2.873415
sI24
F-4.572444
sI25
F1.767178
sI26
F1.751033
sI27
F3.37303
sI28
F2.832043
ssg104
(dp521
I0
S"KIC8462852-20180804at073045_-25-1X1-030-g'_cal.fts.mag.1"
p522
sI1
S"KIC8462852-20180804at052654_-25-1-030-g'_cal.fts.mag.1"
p523
sI2
S"KIC8462852-20180804at052854_-25-1-030-g'_cal.fts.mag.1"
p524
sI3
S"KIC8462852-20180804at055014_-25-1-030-g'_cal.fts.mag.1"
p525
sI4
S"KIC8462852-20180804at050033_-25-1-030-g'_cal.fts.mag.1"
p526
sI5
S"KIC8462852-20180804at070244_-25-1X1-030-g'_cal.fts.mag.1"
p527
sI6
S"KIC8462852-20180804at072627_-25-1X1-030-g'_cal.fts.mag.1"
p528
sI7
S"KIC8462852-20180804at070038_-25-1X1-030-g'_cal.fts.mag.1"
p529
sI8
S"KIC8462852-20180804at045922_-25-1-030-g'_cal.fts.mag.1"
p530
sI9
S"KIC8462852-20180804at050332_-25-1-030-g'_cal.fts.mag.1"
p531
sI10
S"KIC8462852-20180804at055319_-25-1-030-g'_cal.fts.mag.1"
p532
sI11
S"KIC8462852-20180804at063546_-25-1X1-030-g'_cal.fts.mag.1"
p533
sI12
S"KIC8462852-20180804at065929_-25-1X1-030-g'_cal.fts.mag.1"
p534
sI13
S"KIC8462852-20180804at055219_-25-1-030-g'_cal.fts.mag.1"
p535
sI14
S"KIC8462852-20180804at050232_-25-1-030-g'_cal.fts.mag.1"
p536
sI15
S"KIC8462852-20180804at063442_-25-1X1-030-g'_cal.fts.mag.1"
p537
sI16
S"KIC8462852-20180804at055418_-25-1-030-g'_cal.fts.mag.1"
p538
sI17
S"KIC8462852-20180804at072839_-25-1X1-030-g'_cal.fts.mag.1"
p539
sI18
S"KIC8462852-20180804at063650_-25-1X1-030-g'_cal.fts.mag.1"
p540
sI19
S"KIC8462852-20180804at072736_-25-1X1-030-g'_cal.fts.mag.1"
p541
sI20
S"KIC8462852-20180804at070348_-25-1X1-030-g'_cal.fts.mag.1"
p542
sI21
S"KIC8462852-20180804at050132_-25-1-030-g'_cal.fts.mag.1"
p543
sI22
S"KIC8462852-20180804at063337_-25-1X1-030-g'_cal.fts.mag.1"
p544
sI23
S"KIC8462852-20180804at070141_-25-1X1-030-g'_cal.fts.mag.1"
p545
sI24
S"KIC8462852-20180804at072942_-25-1X1-030-g'_cal.fts.mag.1"
p546
sI25
S"KIC8462852-20180804at052755_-25-1-030-g'_cal.fts.mag.1"
p547
sI26
S"KIC8462852-20180804at063221_-25-1X1-030-g'_cal.fts.mag.1"
p548
sI27
S"KIC8462852-20180804at055118_-25-1-030-g'_cal.fts.mag.1"
p549
sI28
S"KIC8462852-20180804at052449_-25-1-030-g'_cal.fts.mag.1"
p550
ssg121
(dp551
I0
F0.004977822210411144
sI1
Fnan
sI2
Fnan
sI3
Fnan
sI4
Fnan
sI5
Fnan
sI6
Fnan
sI7
Fnan
sI8
Fnan
sI9
Fnan
sI10
Fnan
sI11
Fnan
sI12
Fnan
sI13
Fnan
sI14
Fnan
sI15
Fnan
sI16
Fnan
sI17
Fnan
sI18
Fnan
sI19
Fnan
sI20
Fnan
sI21
Fnan
sI22
Fnan
sI23
Fnan
sI24
Fnan
sI25
Fnan
sI26
Fnan
sI27
Fnan
sI28
Fnan
ssg123
(dp552
I0
F6553.0599999999995
sI1
F6034.656666666667
sI2
F6090.37
sI3
F6002.973333333333
sI4
F5981.9
sI5
F6517.586666666667
sI6
F6515.1433333333325
sI7
F6672.536666666667
sI8
F5890.403333333334
sI9
F5903.35
sI10
F5889.8533333333335
sI11
F6386.3533333333335
sI12
F6472.9
sI13
F5934.283333333334
sI14
F5973.259999999999
sI15
F6302.126666666666
sI16
F6086.456666666667
sI17
F6537.3
sI18
F6182.246666666667
sI19
F6590.04
sI20
F6512.663333333333
sI21
F5993.166666666667
sI22
F6169.716666666666
sI23
F6380.6
sI24
F6569.05
sI25
F5952.783333333334
sI26
F6021.263333333333
sI27
F6119.33
sI28
F6038.7
ssg125
(dp553
I0
F0.04426590610559953
sI1
Fnan
sI2
Fnan
sI3
Fnan
sI4
Fnan
sI5
Fnan
sI6
Fnan
sI7
Fnan
sI8
Fnan
sI9
Fnan
sI10
Fnan
sI11
Fnan
sI12
Fnan
sI13
Fnan
sI14
Fnan
sI15
Fnan
sI16
Fnan
sI17
Fnan
sI18
Fnan
sI19
Fnan
sI20
Fnan
sI21
Fnan
sI22
Fnan
sI23
Fnan
sI24
Fnan
sI25
Fnan
sI26
Fnan
sI27
Fnan
sI28
Fnan
ssg127
(dp554
I0
S"g'"
p555
sI1
S"g'"
p556
sI2
S"g'"
p557
sI3
S"g'"
p558
sI4
S"g'"
p559
sI5
S"g'"
p560
sI6
S"g'"
p561
sI7
S"g'"
p562
sI8
S"g'"
p563
sI9
S"g'"
p564
sI10
S"g'"
p565
sI11
S"g'"
p566
sI12
S"g'"
p567
sI13
S"g'"
p568
sI14
S"g'"
p569
sI15
S"g'"
p570
sI16
S"g'"
p571
sI17
S"g'"
p572
sI18
S"g'"
p573
sI19
S"g'"
p574
sI20
S"g'"
p575
sI21
S"g'"
p576
sI22
S"g'"
p577
sI23
S"g'"
p578
sI24
S"g'"
p579
sI25
S"g'"
p580
sI26
S"g'"
p581
sI27
S"g'"
p582
sI28
S"g'"
p583
ssg144
(dp584
I0
F0.003248172883158901
sI1
Fnan
sI2
Fnan
sI3
Fnan
sI4
Fnan
sI5
Fnan
sI6
Fnan
sI7
Fnan
sI8
Fnan
sI9
Fnan
sI10
Fnan
sI11
Fnan
sI12
Fnan
sI13
Fnan
sI14
Fnan
sI15
Fnan
sI16
Fnan
sI17
Fnan
sI18
Fnan
sI19
Fnan
sI20
Fnan
sI21
Fnan
sI22
Fnan
sI23
Fnan
sI24
Fnan
sI25
Fnan
sI26
Fnan
sI27
Fnan
sI28
Fnan
ssg146
(dp585
I0
F2.557831
sI1
F-1.512159
sI2
F2.756286
sI3
F-4.11387
sI4
F1.378246
sI5
F2.691517
sI6
F2.247046
sI7
F-1.646484
sI8
F3.473012
sI9
F-1.530576
sI10
F1.146661
sI11
F3.306587
sI12
F2.134443
sI13
F-3.076565
sI14
F3.247905
sI15
F3.767462
sI16
F-1.647353
sI17
F3.488797
sI18
F2.445124
sI19
F-2.890327
sI20
F-2.347066
sI21
F-2.99439
sI22
F-4.092486
sI23
F-2.621737
sI24
F3.452124
sI25
F3.382434
sI26
F3.559871
sI27
F-2.869024
sI28
F-1.872375
ssg148
(dp586
I0
F1.5180654204452586
sI1
Fnan
sI2
Fnan
sI3
Fnan
sI4
Fnan
sI5
Fnan
sI6
Fnan
sI7
Fnan
sI8
Fnan
sI9
Fnan
sI10
Fnan
sI11
Fnan
sI12
Fnan
sI13
Fnan
sI14
Fnan
sI15
Fnan
sI16
Fnan
sI17
Fnan
sI18
Fnan
sI19
Fnan
sI20
Fnan
sI21
Fnan
sI22
Fnan
sI23
Fnan
sI24
Fnan
sI25
Fnan
sI26
Fnan
sI27
Fnan
sI28
Fnan
ssg150
(dp587
I0
F2458334.7725925925
sI1
Fnan
sI2
Fnan
sI3
Fnan
sI4
Fnan
sI5
Fnan
sI6
Fnan
sI7
Fnan
sI8
Fnan
sI9
Fnan
sI10
Fnan
sI11
Fnan
sI12
Fnan
sI13
Fnan
sI14
Fnan
sI15
Fnan
sI16
Fnan
sI17
Fnan
sI18
Fnan
sI19
Fnan
sI20
Fnan
sI21
Fnan
sI22
Fnan
sI23
Fnan
sI24
Fnan
sI25
Fnan
sI26
Fnan
sI27
Fnan
sI28
Fnan
ssg152
(dp588
I0
F0.003248172883158901
sI1
Fnan
sI2
Fnan
sI3
Fnan
sI4
Fnan
sI5
Fnan
sI6
Fnan
sI7
Fnan
sI8
Fnan
sI9
Fnan
sI10
Fnan
sI11
Fnan
sI12
Fnan
sI13
Fnan
sI14
Fnan
sI15
Fnan
sI16
Fnan
sI17
Fnan
sI18
Fnan
sI19
Fnan
sI20
Fnan
sI21
Fnan
sI22
Fnan
sI23
Fnan
sI24
Fnan
sI25
Fnan
sI26
Fnan
sI27
Fnan
sI28
Fnan
ssg154
(dp589
I0
F15.81903
sI1
F10.00552
sI2
F8.135252
sI3
F8.673423
sI4
F9.321338
sI5
F12.40444
sI6
F15.50826
sI7
F12.09201
sI8
F9.583706
sI9
F10.05624
sI10
F8.598258
sI11
F9.352505
sI12
F11.03462
sI13
F9.435996
sI14
F8.815365
sI15
F9.82211
sI16
F8.650277
sI17
F14.43953
sI18
F11.52885
sI19
F15.83469
sI20
F12.33432
sI21
F8.511875
sI22
F10.40926
sI23
F14.0658
sI24
F15.1607
sI25
F8.175155
sI26
F10.72523
sI27
F8.357141
sI28
F7.962992
ssg156
(dp590
I0
F11.025
sI1
F11.106
sI2
F11.093
sI3
F11.112
sI4
F11.118
sI5
F11.035
sI6
F11.027
sI7
F11.004
sI8
F11.132
sI9
F11.131
sI10
F11.131
sI11
F11.049
sI12
F11.033
sI13
F11.119
sI14
F11.115
sI15
F11.056
sI16
F11.105
sI17
F11.021
sI18
F11.085
sI19
F11.015
sI20
F11.031
sI21
F11.119
sI22
F11.083
sI23
F11.041
sI24
F11.016
sI25
F11.122
sI26
F11.113
sI27
F11.086
sI28
F11.11
ssg158
(dp591
I0
F0.8630889110394185
sI1
Fnan
sI2
Fnan
sI3
Fnan
sI4
Fnan
sI5
Fnan
sI6
Fnan
sI7
Fnan
sI8
Fnan
sI9
Fnan
sI10
Fnan
sI11
Fnan
sI12
Fnan
sI13
Fnan
sI14
Fnan
sI15
Fnan
sI16
Fnan
sI17
Fnan
sI18
Fnan
sI19
Fnan
sI20
Fnan
sI21
Fnan
sI22
Fnan
sI23
Fnan
sI24
Fnan
sI25
Fnan
sI26
Fnan
sI27
Fnan
sI28
Fnan
sssS'V'
p592
(dp593
g3
(dp594
I0
F0.6896679338661609
sI1
Fnan
sI2
Fnan
sI3
Fnan
sI4
Fnan
sI5
Fnan
sI6
Fnan
sI7
Fnan
sI8
Fnan
sI9
Fnan
sI10
Fnan
sI11
Fnan
sI12
Fnan
sI13
Fnan
sI14
Fnan
sI15
Fnan
sI16
Fnan
sI17
Fnan
sI18
Fnan
sI19
Fnan
sI20
Fnan
sI21
Fnan
sI22
Fnan
sI23
Fnan
sI24
Fnan
sI25
Fnan
sI26
Fnan
sI27
Fnan
sI28
Fnan
ssg5
(dp595
I0
S'NoError'
p596
sI1
S'NoError'
p597
sI2
S'NoError'
p598
sI3
S'NoError'
p599
sI4
S'NoError'
p600
sI5
S'NoError'
p601
sI6
S'NoError'
p602
sI7
S'NoError'
p603
sI8
S'NoError'
p604
sI9
S'NoError'
p605
sI10
S'NoError'
p606
sI11
S'NoError'
p607
sI12
S'NoError'
p608
sI13
S'NoError'
p609
sI14
S'NoError'
p610
sI15
S'NoError'
p611
sI16
S'NoError'
p612
sI17
S'NoError'
p613
sI18
S'NoError'
p614
sI19
S'NoError'
p615
sI20
S'NoError'
p616
sI21
S'NoError'
p617
sI22
S'NoError'
p618
sI23
S'NoError'
p619
sI24
S'NoError'
p620
sI25
S'NoError'
p621
sI26
S'NoError'
p622
sI27
S'NoError'
p623
sI28
S'NoError'
p624
ssg22
(dp625
I0
F0.002
sI1
F0.002
sI2
F0.003
sI3
F0.002
sI4
F0.003
sI5
F0.002
sI6
F0.002
sI7
F0.002
sI8
F0.002
sI9
F0.002
sI10
F0.003
sI11
F0.002
sI12
F0.002
sI13
F0.002
sI14
F0.002
sI15
F0.002
sI16
F0.002
sI17
F0.002
sI18
F0.002
sI19
F0.002
sI20
F0.003
sI21
F0.002
sI22
F0.002
sI23
F0.002
sI24
F0.002
sI25
F0.002
sI26
F0.002
sI27
F0.002
sI28
F0.002
ssg24
(dp626
I0
F0.8860504554784197
sI1
F0.8881332557690417
sI2
F0.883402669408833
sI3
F0.8859852147487238
sI4
F0.881760236921438
sI5
F0.8825710049540049
sI6
F0.8833235230991713
sI7
F0.8904089933784761
sI8
F0.8866438526961727
sI9
F0.8905534166971412
sI10
F0.8826696514269624
sI11
F0.8852514782974511
sI12
F0.8804433683004582
sI13
F0.8893597657349094
sI14
F0.8838557414923357
sI15
F0.8841204521446077
sI16
F0.8884927923080637
sI17
F0.8851840052219103
sI18
F0.8885777773148253
sI19
F0.883130307097593
sI20
F0.8817712474959409
sI21
F0.8851704459940352
sI22
F0.8845662760190525
sI23
F0.8850298077369324
sI24
F0.8865475366336131
sI25
F0.8908667012064244
sI26
F0.8847573269887478
sI27
F0.8901956998108057
sI28
F0.8872703693615298
ssg26
(dp627
I0
F0.002907186597690989
sI1
Fnan
sI2
Fnan
sI3
Fnan
sI4
Fnan
sI5
Fnan
sI6
Fnan
sI7
Fnan
sI8
Fnan
sI9
Fnan
sI10
Fnan
sI11
Fnan
sI12
Fnan
sI13
Fnan
sI14
Fnan
sI15
Fnan
sI16
Fnan
sI17
Fnan
sI18
Fnan
sI19
Fnan
sI20
Fnan
sI21
Fnan
sI22
Fnan
sI23
Fnan
sI24
Fnan
sI25
Fnan
sI26
Fnan
sI27
Fnan
sI28
Fnan
ssg28
(dp628
I0
F0.8857273577150904
sI1
Fnan
sI2
Fnan
sI3
Fnan
sI4
Fnan
sI5
Fnan
sI6
Fnan
sI7
Fnan
sI8
Fnan
sI9
Fnan
sI10
Fnan
sI11
Fnan
sI12
Fnan
sI13
Fnan
sI14
Fnan
sI15
Fnan
sI16
Fnan
sI17
Fnan
sI18
Fnan
sI19
Fnan
sI20
Fnan
sI21
Fnan
sI22
Fnan
sI23
Fnan
sI24
Fnan
sI25
Fnan
sI26
Fnan
sI27
Fnan
sI28
Fnan
ssg30
(dp629
I0
F11.518
sI1
F11.452
sI2
F11.713
sI3
F11.456
sI4
F11.981
sI5
F11.489
sI6
F11.437
sI7
F11.484
sI8
F11.466
sI9
F11.441
sI10
F11.651
sI11
F11.541
sI12
F11.474
sI13
F11.492
sI14
F11.485
sI15
F11.47
sI16
F11.517
sI17
F11.531
sI18
F11.452
sI19
F11.523
sI20
F11.753
sI21
F11.524
sI22
F11.516
sI23
F11.463
sI24
F11.501
sI25
F11.487
sI26
F11.474
sI27
F11.552
sI28
F11.481
ssg32
(dp630
I0
F8.133265
sI1
F9.746897
sI2
F8.556387
sI3
F9.846727
sI4
F8.138057
sI5
F9.241079
sI6
F14.9246
sI7
F15.47136
sI8
F12.90383
sI9
F13.76436
sI10
F7.818979
sI11
F8.17144
sI12
F13.58252
sI13
F14.92712
sI14
F7.549408
sI15
F8.738815
sI16
F7.632892
sI17
F7.717463
sI18
F12.52451
sI19
F15.07267
sI20
F7.801956
sI21
F9.10148
sI22
F8.295738
sI23
F11.04916
sI24
F8.944344
sI25
F13.67442
sI26
F15.09146
sI27
F8.703324
sI28
F10.24059
ssg34
(dp631
I0
F2458334.724849537
sI1
F2458334.790474537
sI2
F2458334.7397569446
sI3
F2458334.7875
sI4
F2458334.740439815
sI5
F2458334.758715278
sI6
F2458334.827164352
sI7
F2458334.827916667
sI8
F2458334.826423611
sI9
F2458334.8256828706
sI10
F2458334.7411226854
sI11
F2458334.74181713
sI12
F2458334.808472222
sI13
F2458334.809212963
sI14
F2458334.759398148
sI15
F2458334.7882407405
sI16
F2458334.723460648
sI17
F2458334.7241435186
sI18
F2458334.806979167
sI19
F2458334.8077199073
sI20
F2458334.742511574
sI21
F2458334.758020833
sI22
F2458334.7220833334
sI23
F2458334.7889930555
sI24
F2458334.760104167
sI25
F2458334.806226852
sI26
F2458334.8249421297
sI27
F2458334.722766204
sI28
F2458334.7897453704
ssg36
(dp632
I0
F1.784194896551724
sI1
Fnan
sI2
Fnan
sI3
Fnan
sI4
Fnan
sI5
Fnan
sI6
Fnan
sI7
Fnan
sI8
Fnan
sI9
Fnan
sI10
Fnan
sI11
Fnan
sI12
Fnan
sI13
Fnan
sI14
Fnan
sI15
Fnan
sI16
Fnan
sI17
Fnan
sI18
Fnan
sI19
Fnan
sI20
Fnan
sI21
Fnan
sI22
Fnan
sI23
Fnan
sI24
Fnan
sI25
Fnan
sI26
Fnan
sI27
Fnan
sI28
Fnan
ssg38
(dp633
I0
F0.49651255172413794
sI1
Fnan
sI2
Fnan
sI3
Fnan
sI4
Fnan
sI5
Fnan
sI6
Fnan
sI7
Fnan
sI8
Fnan
sI9
Fnan
sI10
Fnan
sI11
Fnan
sI12
Fnan
sI13
Fnan
sI14
Fnan
sI15
Fnan
sI16
Fnan
sI17
Fnan
sI18
Fnan
sI19
Fnan
sI20
Fnan
sI21
Fnan
sI22
Fnan
sI23
Fnan
sI24
Fnan
sI25
Fnan
sI26
Fnan
sI27
Fnan
sI28
Fnan
ssg40
(dp634
I0
F0.6865349519740912
sI1
F0.6953617025316523
sI2
F0.687325577063556
sI3
F0.6902117880470865
sI4
F0.6896338710153181
sI5
F0.6872522370041069
sI6
F0.6909369000714535
sI7
F0.6898874108838661
sI8
F0.6932772214263451
sI9
F0.6916598057001974
sI10
F0.6922557563582808
sI11
F0.687570844736995
sI12
F0.6865954611530488
sI13
F0.6879691411011967
sI14
F0.6895244826026934
sI15
F0.6927580871382227
sI16
F0.6943995237760426
sI17
F0.6917922315776087
sI18
F0.6905743328089787
sI19
F0.6885489375330306
sI20
F0.6905593954593113
sI21
F0.6916902737256857
sI22
F0.6889000249946748
sI23
F0.6871010130813543
sI24
F0.6928683859292211
sI25
F0.6878104841300234
sI26
F0.6922906418446826
sI27
F0.6862839185602118
sI28
F0.6892210384651027
ssg42
(dp635
I0
F0.0021426055511678003
sI1
Fnan
sI2
Fnan
sI3
Fnan
sI4
Fnan
sI5
Fnan
sI6
Fnan
sI7
Fnan
sI8
Fnan
sI9
Fnan
sI10
Fnan
sI11
Fnan
sI12
Fnan
sI13
Fnan
sI14
Fnan
sI15
Fnan
sI16
Fnan
sI17
Fnan
sI18
Fnan
sI19
Fnan
sI20
Fnan
sI21
Fnan
sI22
Fnan
sI23
Fnan
sI24
Fnan
sI25
Fnan
sI26
Fnan
sI27
Fnan
sI28
Fnan
ssg44
(dp636
I0
F0.8786398275862071
sI1
Fnan
sI2
Fnan
sI3
Fnan
sI4
Fnan
sI5
Fnan
sI6
Fnan
sI7
Fnan
sI8
Fnan
sI9
Fnan
sI10
Fnan
sI11
Fnan
sI12
Fnan
sI13
Fnan
sI14
Fnan
sI15
Fnan
sI16
Fnan
sI17
Fnan
sI18
Fnan
sI19
Fnan
sI20
Fnan
sI21
Fnan
sI22
Fnan
sI23
Fnan
sI24
Fnan
sI25
Fnan
sI26
Fnan
sI27
Fnan
sI28
Fnan
ssg46
(dp637
I0
g596
sI1
g597
sI2
g598
sI3
g599
sI4
g600
sI5
g601
sI6
g602
sI7
g603
sI8
g604
sI9
g605
sI10
g606
sI11
g607
sI12
g608
sI13
g609
sI14
g610
sI15
g611
sI16
g612
sI17
g613
sI18
g614
sI19
g615
sI20
g616
sI21
g617
sI22
g618
sI23
g619
sI24
g620
sI25
g621
sI26
g622
sI27
g623
sI28
g624
ssg48
(dp638
I0
F0.002122056964350411
sI1
Fnan
sI2
Fnan
sI3
Fnan
sI4
Fnan
sI5
Fnan
sI6
Fnan
sI7
Fnan
sI8
Fnan
sI9
Fnan
sI10
Fnan
sI11
Fnan
sI12
Fnan
sI13
Fnan
sI14
Fnan
sI15
Fnan
sI16
Fnan
sI17
Fnan
sI18
Fnan
sI19
Fnan
sI20
Fnan
sI21
Fnan
sI22
Fnan
sI23
Fnan
sI24
Fnan
sI25
Fnan
sI26
Fnan
sI27
Fnan
sI28
Fnan
ssg50
(dp639
I0
F0.11511265632118908
sI1
Fnan
sI2
Fnan
sI3
Fnan
sI4
Fnan
sI5
Fnan
sI6
Fnan
sI7
Fnan
sI8
Fnan
sI9
Fnan
sI10
Fnan
sI11
Fnan
sI12
Fnan
sI13
Fnan
sI14
Fnan
sI15
Fnan
sI16
Fnan
sI17
Fnan
sI18
Fnan
sI19
Fnan
sI20
Fnan
sI21
Fnan
sI22
Fnan
sI23
Fnan
sI24
Fnan
sI25
Fnan
sI26
Fnan
sI27
Fnan
sI28
Fnan
ssg52
(dp640
I0
F1.5682940724137935
sI1
Fnan
sI2
Fnan
sI3
Fnan
sI4
Fnan
sI5
Fnan
sI6
Fnan
sI7
Fnan
sI8
Fnan
sI9
Fnan
sI10
Fnan
sI11
Fnan
sI12
Fnan
sI13
Fnan
sI14
Fnan
sI15
Fnan
sI16
Fnan
sI17
Fnan
sI18
Fnan
sI19
Fnan
sI20
Fnan
sI21
Fnan
sI22
Fnan
sI23
Fnan
sI24
Fnan
sI25
Fnan
sI26
Fnan
sI27
Fnan
sI28
Fnan
ssg54
(dp641
I0
F1.5083054084864929
sI1
F1.5025949682002473
sI2
F1.5153795067936098
sI3
F1.502768021175689
sI4
F1.515535852811729
sI5
F1.5083399229591814
sI6
F1.511168000722226
sI7
F1.5062066758822708
sI8
F1.5023591880058047
sI9
F1.501029490943528
sI10
F1.514209500561057
sI11
F1.5006143626435835
sI12
F1.51211546620115
sI13
F1.504772900124089
sI14
F1.5076365682175654
sI15
F1.5067833857334967
sI16
F1.506786071732343
sI17
F1.5120105352868245
sI18
F1.506332962915453
sI19
F1.5156029703778258
sI20
F1.5056187033339177
sI21
F1.5079315166967575
sI22
F1.5075445810262393
sI23
F1.5065882992920436
sI24
F1.5046641579458446
sI25
F1.4992370227938652
sI26
F1.5063651287314173
sI27
F1.5053833254341602
sI28
F1.5037251982530913
ssg56
(dp642
I0
g596
sI1
g597
sI2
g598
sI3
g599
sI4
g600
sI5
g601
sI6
g602
sI7
g603
sI8
g604
sI9
g605
sI10
g606
sI11
g607
sI12
g608
sI13
g609
sI14
g610
sI15
g611
sI16
g612
sI17
g613
sI18
g614
sI19
g615
sI20
g616
sI21
g617
sI22
g618
sI23
g619
sI24
g620
sI25
g621
sI26
g622
sI27
g623
sI28
g624
ssg58
(dp643
I0
F9.003705
sI1
F11.51792
sI2
F9.790441
sI3
F10.53999
sI4
F8.417785
sI5
F9.544175
sI6
F14.45664
sI7
F16.88713
sI8
F16.66125
sI9
F14.97708
sI10
F9.361766
sI11
F8.696877
sI12
F14.98584
sI13
F15.16842
sI14
F7.853316
sI15
F11.77504
sI16
F8.901039
sI17
F9.290659
sI18
F13.84479
sI19
F15.95554
sI20
F8.789845
sI21
F10.19937
sI22
F8.869404
sI23
F10.31678
sI24
F9.875416
sI25
F15.00558
sI26
F15.22148
sI27
F9.166333
sI28
F11.15297
ssg60
(dp644
I0
F10.849827586206894
sI1
Fnan
sI2
Fnan
sI3
Fnan
sI4
Fnan
sI5
Fnan
sI6
Fnan
sI7
Fnan
sI8
Fnan
sI9
Fnan
sI10
Fnan
sI11
Fnan
sI12
Fnan
sI13
Fnan
sI14
Fnan
sI15
Fnan
sI16
Fnan
sI17
Fnan
sI18
Fnan
sI19
Fnan
sI20
Fnan
sI21
Fnan
sI22
Fnan
sI23
Fnan
sI24
Fnan
sI25
Fnan
sI26
Fnan
sI27
Fnan
sI28
Fnan
ssg62
(dp645
I0
F0.7149210653122872
sI1
Fnan
sI2
Fnan
sI3
Fnan
sI4
Fnan
sI5
Fnan
sI6
Fnan
sI7
Fnan
sI8
Fnan
sI9
Fnan
sI10
Fnan
sI11
Fnan
sI12
Fnan
sI13
Fnan
sI14
Fnan
sI15
Fnan
sI16
Fnan
sI17
Fnan
sI18
Fnan
sI19
Fnan
sI20
Fnan
sI21
Fnan
sI22
Fnan
sI23
Fnan
sI24
Fnan
sI25
Fnan
sI26
Fnan
sI27
Fnan
sI28
Fnan
ssg64
(dp646
I0
F3.647627
sI1
F-3.959171
sI2
F2.106195
sI3
F3.388889
sI4
F-1.303231
sI5
F-1.731592
sI6
F-1.462874
sI7
F3.154681
sI8
F4.150898
sI9
F1.991482
sI10
F3.70858
sI11
F4.532191
sI12
F3.452659
sI13
F-3.456143
sI14
F-3.454453
sI15
F4.310599
sI16
F2.724729
sI17
F-2.564483
sI18
F-2.954227
sI19
F-3.288246
sI20
F3.471445
sI21
F-1.624064
sI22
F-1.86088
sI23
F-1.371252
sI24
F-3.528367
sI25
F2.766055
sI26
F3.466737
sI27
F-3.688086
sI28
F3.773166
ssg66
(dp647
I0
F11.215068965517242
sI1
Fnan
sI2
Fnan
sI3
Fnan
sI4
Fnan
sI5
Fnan
sI6
Fnan
sI7
Fnan
sI8
Fnan
sI9
Fnan
sI10
Fnan
sI11
Fnan
sI12
Fnan
sI13
Fnan
sI14
Fnan
sI15
Fnan
sI16
Fnan
sI17
Fnan
sI18
Fnan
sI19
Fnan
sI20
Fnan
sI21
Fnan
sI22
Fnan
sI23
Fnan
sI24
Fnan
sI25
Fnan
sI26
Fnan
sI27
Fnan
sI28
Fnan
ssg68
(dp648
I0
g596
sI1
g597
sI2
g598
sI3
g599
sI4
g600
sI5
g601
sI6
g602
sI7
g603
sI8
g604
sI9
g605
sI10
g606
sI11
g607
sI12
g608
sI13
g609
sI14
g610
sI15
g611
sI16
g612
sI17
g613
sI18
g614
sI19
g615
sI20
g616
sI21
g617
sI22
g618
sI23
g619
sI24
g620
sI25
g621
sI26
g622
sI27
g623
sI28
g624
ssg70
(dp649
I0
F8322.233333333334
sI1
F8745.473333333333
sI2
F6935.64
sI3
F8764.223333333333
sI4
F5394.043333333333
sI5
F8517.2
sI6
F8896.553333333333
sI7
F8574.153333333334
sI8
F8652.006666666666
sI9
F8904.890000000001
sI10
F7287.990000000001
sI11
F8136.626666666666
sI12
F8632.96
sI13
F8534.266666666666
sI14
F8528.71
sI15
F8613.506666666666
sI16
F8253.856666666667
sI17
F8154.7266666666665
sI18
F8814.890000000001
sI19
F8247.646666666666
sI20
F6642.179999999999
sI21
F8214.266666666666
sI22
F8301.893333333333
sI23
F8740.369999999999
sI24
F8383.82
sI25
F8586.036666666667
sI26
F8592.646666666666
sI27
F8098.423333333334
sI28
F8588.65
ssg72
(dp650
I0
F1.047298
sI1
F1.004856
sI2
F1.028741
sI3
F1.004658
sI4
F1.028019
sI5
F1.012938
sI6
F1.02366
sI7
F1.024363
sI8
F1.0229629999999998
sI9
F1.022286
sI10
F1.027302
sI11
F1.026599
sI12
F1.010245
sI13
F1.010629
sI14
F1.012512
sI15
F1.0046899999999999
sI16
F1.049326
sI17
F1.0483129999999998
sI18
F1.009525
sI19
F1.0098790000000002
sI20
F1.025908
sI21
F1.013364
sI22
F1.05138
sI23
F1.004733
sI24
F1.012108
sI25
F1.009184
sI26
F1.021623
sI27
F1.050348
sI28
F1.004788
ssg74
(dp651
I0
F7130.95
sI1
F7493.6466666666665
sI2
F5943.62
sI3
F7536.23
sI4
F4635.016666666666
sI5
F7341.0599999999995
sI6
F7644.903333333334
sI7
F7302.3
sI8
F7433.33
sI9
F7606.506666666667
sI10
F6257.876666666666
sI11
F7014.576666666666
sI12
F7450.4766666666665
sI13
F7287.7
sI14
F7338.1466666666665
sI15
F7411.676666666666
sI16
F7049.793333333333
sI17
F6981.706666666667
sI18
F7530.013333333333
sI19
F7070.27
sI20
F5742.35
sI21
F7050.573333333334
sI22
F7134.793333333333
sI23
F7510.156666666667
sI24
F7193.84
sI25
F7338.423333333334
sI26
F7387.653333333334
sI27
F6903.1466666666665
sI28
F7364.863333333333
ssg76
(dp652
I0
F11654.06
sI1
F12200.41
sI2
F9758.483333333334
sI3
F12247.9
sI4
F7599.7
sI5
F11959.823333333334
sI6
F12498.46
sI7
F11956.609999999999
sI8
F12082.976666666666
sI9
F12392.046666666667
sI10
F10255.640000000001
sI11
F11368.056666666667
sI12
F12160.006666666666
sI13
F11904.233333333334
sI14
F11960.726666666666
sI15
F12073.24
sI16
F11529.663333333334
sI17
F11443.223333333333
sI18
F12310.433333333332
sI19
F11607.94
sI20
F9323.19
sI21
F11509.166666666666
sI22
F11635.746666666668
sI23
F12241.426666666666
sI24
F11719.573333333334
sI25
F11937.269999999999
sI26
F12036.083333333334
sI27
F11291.556666666667
sI28
F11994.85
ssg78
(dp653
I0
F7.792219
sI1
F10.96876
sI2
F10.10046
sI3
F9.835524
sI4
F7.891034
sI5
F9.015599
sI6
F14.3522
sI7
F15.41054
sI8
F14.29625
sI9
F15.22736
sI10
F8.586567
sI11
F7.493239
sI12
F13.22014
sI13
F14.51365
sI14
F8.603491
sI15
F10.08545
sI16
F8.489481
sI17
F8.626226
sI18
F13.64812
sI19
F16.17112
sI20
F7.516639
sI21
F9.183146
sI22
F9.75892
sI23
F10.25075
sI24
F8.810012
sI25
F14.9926
sI26
F14.95215
sI27
F10.1266
sI28
F10.02335
ssg80
(dp654
I0
F11.367
sI1
F11.313
sI2
F11.565
sI3
F11.307
sI4
F11.835
sI5
F11.336
sI6
F11.292
sI7
F11.341
sI8
F11.322
sI9
F11.297
sI10
F11.509
sI11
F11.385
sI12
F11.32
sI13
F11.344
sI14
F11.336
sI15
F11.325
sI16
F11.38
sI17
F11.39
sI18
F11.308
sI19
F11.376
sI20
F11.602
sI21
F11.379
sI22
F11.367
sI23
F11.311
sI24
F11.358
sI25
F11.336
sI26
F11.329
sI27
F11.402
sI28
F11.332
ssg82
(dp655
I0
F0.002
sI1
F0.002
sI2
F0.002
sI3
F0.002
sI4
F0.002
sI5
F0.002
sI6
F0.002
sI7
F0.002
sI8
F0.002
sI9
F0.002
sI10
F0.002
sI11
F0.002
sI12
F0.002
sI13
F0.002
sI14
F0.002
sI15
F0.002
sI16
F0.002
sI17
F0.002
sI18
F0.002
sI19
F0.002
sI20
F0.002
sI21
F0.002
sI22
F0.002
sI23
F0.002
sI24
F0.002
sI25
F0.002
sI26
F0.002
sI27
F0.002
sI28
F0.002
ssg84
(dp656
I0
F0.6900274289894495
sI1
Fnan
sI2
Fnan
sI3
Fnan
sI4
Fnan
sI5
Fnan
sI6
Fnan
sI7
Fnan
sI8
Fnan
sI9
Fnan
sI10
Fnan
sI11
Fnan
sI12
Fnan
sI13
Fnan
sI14
Fnan
sI15
Fnan
sI16
Fnan
sI17
Fnan
sI18
Fnan
sI19
Fnan
sI20
Fnan
sI21
Fnan
sI22
Fnan
sI23
Fnan
sI24
Fnan
sI25
Fnan
sI26
Fnan
sI27
Fnan
sI28
Fnan
ssg86
(dp657
I0
F11.381517241379312
sI1
Fnan
sI2
Fnan
sI3
Fnan
sI4
Fnan
sI5
Fnan
sI6
Fnan
sI7
Fnan
sI8
Fnan
sI9
Fnan
sI10
Fnan
sI11
Fnan
sI12
Fnan
sI13
Fnan
sI14
Fnan
sI15
Fnan
sI16
Fnan
sI17
Fnan
sI18
Fnan
sI19
Fnan
sI20
Fnan
sI21
Fnan
sI22
Fnan
sI23
Fnan
sI24
Fnan
sI25
Fnan
sI26
Fnan
sI27
Fnan
sI28
Fnan
ssg88
(dp658
I0
F11.199
sI1
F11.146
sI2
F11.397
sI3
F11.143
sI4
F11.67
sI5
F11.174
sI6
F11.127
sI7
F11.167
sI8
F11.157
sI9
F11.126
sI10
F11.343
sI11
F11.224
sI12
F11.16
sI13
F11.172
sI14
F11.173
sI15
F11.162
sI16
F11.208
sI17
F11.221
sI18
F11.137
sI19
F11.209
sI20
F11.444
sI21
F11.214
sI22
F11.202
sI23
F11.146
sI24
F11.191
sI25
F11.166
sI26
F11.165
sI27
F11.229
sI28
F11.165
ssg90
(dp659
I0
F3.40112
sI1
F-4.073255
sI2
F4.475093
sI3
F2.3309
sI4
F-1.654005
sI5
F1.812028
sI6
F2.348378
sI7
F4.254119
sI8
F1.402351
sI9
F4.590226
sI10
F-2.491077
sI11
F3.259838
sI12
F-2.586656
sI13
F3.326359
sI14
F1.496627
sI15
F3.251571
sI16
F3.674225
sI17
F3.832474
sI18
F4.072042
sI19
F-3.321861
sI20
F2.489999
sI21
F1.968702
sI22
F4.358882
sI23
F2.881112
sI24
F-2.717488
sI25
F-1.770636
sI26
F4.337018
sI27
F2.596205
sI28
F4.197361
ssg92
(dp660
I0
F0.11321505104557109
sI1
Fnan
sI2
Fnan
sI3
Fnan
sI4
Fnan
sI5
Fnan
sI6
Fnan
sI7
Fnan
sI8
Fnan
sI9
Fnan
sI10
Fnan
sI11
Fnan
sI12
Fnan
sI13
Fnan
sI14
Fnan
sI15
Fnan
sI16
Fnan
sI17
Fnan
sI18
Fnan
sI19
Fnan
sI20
Fnan
sI21
Fnan
sI22
Fnan
sI23
Fnan
sI24
Fnan
sI25
Fnan
sI26
Fnan
sI27
Fnan
sI28
Fnan
ssg94
(dp661
I0
F0.7139412583715897
sI1
F0.7155245302776282
sI2
F0.7120613501317928
sI3
F0.7173220793012034
sI4
F0.713422844789659
sI5
F0.7170046036964681
sI6
F0.7146434745541952
sI7
F0.7113520214948982
sI8
F0.7169844200501729
sI9
F0.7143287117505632
sI10
F0.7134072785012755
sI11
F0.7192710126884055
sI12
F0.7166343106402966
sI13
F0.7131345255278029
sI14
F0.7162858389957363
sI15
F0.716562810585328
sI16
F0.7126935280812852
sI17
F0.7124935686300523
sI18
F0.7128897593204491
sI19
F0.7121693373955542
sI20
F0.7193506946597543
sI21
F0.7149438147178567
sI22
F0.7157109199818367
sI23
F0.7158735532498886
sI24
F0.7156841514981385
sI25
F0.7151307001860651
sI26
F0.7162489725090525
sI27
F0.712032365857692
sI28
F0.7156084566116873
ssg96
(dp662
I0
F30.0
sI1
F30.0
sI2
F30.0
sI3
F30.0
sI4
F30.0
sI5
F30.0
sI6
F30.0
sI7
F30.0
sI8
F30.0
sI9
F30.0
sI10
F30.0
sI11
F30.0
sI12
F30.0
sI13
F30.0
sI14
F30.0
sI15
F30.0
sI16
F30.0
sI17
F30.0
sI18
F30.0
sI19
F30.0
sI20
F30.0
sI21
F30.0
sI22
F30.0
sI23
F30.0
sI24
F30.0
sI25
F30.0
sI26
F30.0
sI27
F30.0
sI28
F30.0
ssg98
(dp663
I0
F0.002
sI1
F0.002
sI2
F0.002
sI3
F0.002
sI4
F0.003
sI5
F0.002
sI6
F0.002
sI7
F0.002
sI8
F0.002
sI9
F0.002
sI10
F0.002
sI11
F0.002
sI12
F0.002
sI13
F0.002
sI14
F0.002
sI15
F0.002
sI16
F0.002
sI17
F0.002
sI18
F0.002
sI19
F0.002
sI20
F0.003
sI21
F0.002
sI22
F0.002
sI23
F0.002
sI24
F0.002
sI25
F0.002
sI26
F0.002
sI27
F0.002
sI28
F0.002
ssg100
(dp664
I0
F0.002
sI1
F0.002
sI2
F0.002
sI3
F0.002
sI4
F0.003
sI5
F0.002
sI6
F0.002
sI7
F0.002
sI8
F0.002
sI9
F0.002
sI10
F0.002
sI11
F0.002
sI12
F0.002
sI13
F0.002
sI14
F0.002
sI15
F0.002
sI16
F0.002
sI17
F0.002
sI18
F0.002
sI19
F0.002
sI20
F0.002
sI21
F0.002
sI22
F0.002
sI23
F0.002
sI24
F0.002
sI25
F0.002
sI26
F0.002
sI27
F0.002
sI28
F0.002
ssg102
(dp665
I0
F-2.757054
sI1
F3.420062
sI2
F2.857332
sI3
F-2.811745
sI4
F2.501315
sI5
F-3.283902
sI6
F4.036473
sI7
F-2.813002
sI8
F-2.464614
sI9
F2.701677
sI10
F-2.511497
sI11
F3.645487
sI12
F-3.928055
sI13
F4.00284
sI14
F3.027755
sI15
F1.282994
sI16
F3.569663
sI17
F2.140577
sI18
F4.068475
sI19
F4.052127
sI20
F3.816528
sI21
F3.415201
sI22
F2.242562
sI23
F2.688852
sI24
F2.590066
sI25
F2.702832
sI26
F4.531752
sI27
F3.726317
sI28
F-0.9704899
ssg104
(dp666
I0
S'KIC8462852-20180804at052347_-25-1-030-V_cal.fts.mag.1'
p667
sI1
S'KIC8462852-20180804at065817_-25-1X1-030-V_cal.fts.mag.1'
p668
sI2
S'KIC8462852-20180804at054507_-25-1-030-V_cal.fts.mag.1'
p669
sI3
S'KIC8462852-20180804at065353_-25-1X1-030-V_cal.fts.mag.1'
p670
sI4
S'KIC8462852-20180804at054614_-25-1-030-V_cal.fts.mag.1'
p671
sI5
S'KIC8462852-20180804at061233_-25-1-030-V_cal.fts.mag.1'
p672
sI6
S'KIC8462852-20180804at075107_-25-1X1-030-V_cal.fts.mag.1'
p673
sI7
S'KIC8462852-20180804at075212_-25-1X1-030-V_cal.fts.mag.1'
p674
sI8
S'KIC8462852-20180804at075003_-25-1X1-030-V_cal.fts.mag.1'
p675
sI9
S'KIC8462852-20180804at074859_-25-1X1-030-V_cal.fts.mag.1'
p676
sI10
S'KIC8462852-20180804at054713_-25-1-030-V_cal.fts.mag.1'
p677
sI11
S'KIC8462852-20180804at054813_-25-1-030-V_cal.fts.mag.1'
p678
sI12
S'KIC8462852-20180804at072412_-25-1X1-030-V_cal.fts.mag.1'
p679
sI13
S'KIC8462852-20180804at072516_-25-1X1-030-V_cal.fts.mag.1'
p680
sI14
S'KIC8462852-20180804at061332_-25-1-030-V_cal.fts.mag.1'
p681
sI15
S'KIC8462852-20180804at065504_-25-1X1-030-V_cal.fts.mag.1'
p682
sI16
S'KIC8462852-20180804at052147_-25-1-030-V_cal.fts.mag.1'
p683
sI17
S'KIC8462852-20180804at052246_-25-1-030-V_cal.fts.mag.1'
p684
sI18
S'KIC8462852-20180804at072203_-25-1X1-030-V_cal.fts.mag.1'
p685
sI19
S'KIC8462852-20180804at072307_-25-1X1-030-V_cal.fts.mag.1'
p686
sI20
S'KIC8462852-20180804at054912_-25-1-030-V_cal.fts.mag.1'
p687
sI21
S'KIC8462852-20180804at061133_-25-1-030-V_cal.fts.mag.1'
p688
sI22
S'KIC8462852-20180804at051941_-25-1-030-V_cal.fts.mag.1'
p689
sI23
S'KIC8462852-20180804at065609_-25-1X1-030-V_cal.fts.mag.1'
p690
sI24
S'KIC8462852-20180804at061433_-25-1-030-V_cal.fts.mag.1'
p691
sI25
S'KIC8462852-20180804at072051_-25-1X1-030-V_cal.fts.mag.1'
p692
sI26
S'KIC8462852-20180804at074748_-25-1X1-030-V_cal.fts.mag.1'
p693
sI27
S'KIC8462852-20180804at052047_-25-1-030-V_cal.fts.mag.1'
p694
sI28
S'KIC8462852-20180804at065714_-25-1X1-030-V_cal.fts.mag.1'
p695
ssg121
(dp696
I0
F0.004492003739515679
sI1
Fnan
sI2
Fnan
sI3
Fnan
sI4
Fnan
sI5
Fnan
sI6
Fnan
sI7
Fnan
sI8
Fnan
sI9
Fnan
sI10
Fnan
sI11
Fnan
sI12
Fnan
sI13
Fnan
sI14
Fnan
sI15
Fnan
sI16
Fnan
sI17
Fnan
sI18
Fnan
sI19
Fnan
sI20
Fnan
sI21
Fnan
sI22
Fnan
sI23
Fnan
sI24
Fnan
sI25
Fnan
sI26
Fnan
sI27
Fnan
sI28
Fnan
ssg123
(dp697
I0
F6203.3566666666675
sI1
F6591.92
sI2
F5186.5
sI3
F6568.136666666667
sI4
F4052.463333333333
sI5
F6372.679999999999
sI6
F6688.25
sI7
F6400.5599999999995
sI8
F6509.483333333334
sI9
F6663.783333333334
sI10
F5492.243333333333
sI11
F6077.956666666667
sI12
F6463.9400000000005
sI13
F6358.256666666667
sI14
F6395.933333333333
sI15
F6488.47
sI16
F6211.013333333333
sI17
F6129.2
sI18
F6596.213333333333
sI19
F6179.923333333334
sI20
F4996.823333333334
sI21
F6173.1066666666675
sI22
F6216.733333333334
sI23
F6525.616666666667
sI24
F6304.463333333333
sI25
F6387.863333333333
sI26
F6465.16
sI27
F6014.85
sI28
F6420.866666666667
ssg125
(dp698
I0
F0.11440392747056227
sI1
Fnan
sI2
Fnan
sI3
Fnan
sI4
Fnan
sI5
Fnan
sI6
Fnan
sI7
Fnan
sI8
Fnan
sI9
Fnan
sI10
Fnan
sI11
Fnan
sI12
Fnan
sI13
Fnan
sI14
Fnan
sI15
Fnan
sI16
Fnan
sI17
Fnan
sI18
Fnan
sI19
Fnan
sI20
Fnan
sI21
Fnan
sI22
Fnan
sI23
Fnan
sI24
Fnan
sI25
Fnan
sI26
Fnan
sI27
Fnan
sI28
Fnan
ssg127
(dp699
I0
g592
sI1
g592
sI2
g592
sI3
g592
sI4
g592
sI5
g592
sI6
g592
sI7
g592
sI8
g592
sI9
g592
sI10
g592
sI11
g592
sI12
g592
sI13
g592
sI14
g592
sI15
g592
sI16
g592
sI17
g592
sI18
g592
sI19
g592
sI20
g592
sI21
g592
sI22
g592
sI23
g592
sI24
g592
sI25
g592
sI26
g592
sI27
g592
sI28
g592
ssg144
(dp700
I0
F0.00250006828419753
sI1
Fnan
sI2
Fnan
sI3
Fnan
sI4
Fnan
sI5
Fnan
sI6
Fnan
sI7
Fnan
sI8
Fnan
sI9
Fnan
sI10
Fnan
sI11
Fnan
sI12
Fnan
sI13
Fnan
sI14
Fnan
sI15
Fnan
sI16
Fnan
sI17
Fnan
sI18
Fnan
sI19
Fnan
sI20
Fnan
sI21
Fnan
sI22
Fnan
sI23
Fnan
sI24
Fnan
sI25
Fnan
sI26
Fnan
sI27
Fnan
sI28
Fnan
ssg146
(dp701
I0
F3.879599
sI1
F3.047523
sI2
F2.883831
sI3
F3.279882
sI4
F2.846889
sI5
F-2.150963
sI6
F-3.80663
sI7
F-2.114856
sI8
F4.229856
sI9
F3.123956
sI10
F3.772072
sI11
F-3.0463
sI12
F-3.842943
sI13
F-3.609521
sI14
F2.640203
sI15
F4.271132
sI16
F3.217608
sI17
F2.544621
sI18
F2.650011
sI19
F3.735809
sI20
F-1.841268
sI21
F-3.883085
sI22
F3.479596
sI23
F1.889088
sI24
F-2.505512
sI25
F3.750613
sI26
F-3.071056
sI27
F-2.582426
sI28
F2.692826
ssg148
(dp702
I0
F1.5071589549407414
sI1
Fnan
sI2
Fnan
sI3
Fnan
sI4
Fnan
sI5
Fnan
sI6
Fnan
sI7
Fnan
sI8
Fnan
sI9
Fnan
sI10
Fnan
sI11
Fnan
sI12
Fnan
sI13
Fnan
sI14
Fnan
sI15
Fnan
sI16
Fnan
sI17
Fnan
sI18
Fnan
sI19
Fnan
sI20
Fnan
sI21
Fnan
sI22
Fnan
sI23
Fnan
sI24
Fnan
sI25
Fnan
sI26
Fnan
sI27
Fnan
sI28
Fnan
ssg150
(dp703
I0
F2458334.7875
sI1
Fnan
sI2
Fnan
sI3
Fnan
sI4
Fnan
sI5
Fnan
sI6
Fnan
sI7
Fnan
sI8
Fnan
sI9
Fnan
sI10
Fnan
sI11
Fnan
sI12
Fnan
sI13
Fnan
sI14
Fnan
sI15
Fnan
sI16
Fnan
sI17
Fnan
sI18
Fnan
sI19
Fnan
sI20
Fnan
sI21
Fnan
sI22
Fnan
sI23
Fnan
sI24
Fnan
sI25
Fnan
sI26
Fnan
sI27
Fnan
sI28
Fnan
ssg152
(dp704
I0
F0.00250006828419753
sI1
Fnan
sI2
Fnan
sI3
Fnan
sI4
Fnan
sI5
Fnan
sI6
Fnan
sI7
Fnan
sI8
Fnan
sI9
Fnan
sI10
Fnan
sI11
Fnan
sI12
Fnan
sI13
Fnan
sI14
Fnan
sI15
Fnan
sI16
Fnan
sI17
Fnan
sI18
Fnan
sI19
Fnan
sI20
Fnan
sI21
Fnan
sI22
Fnan
sI23
Fnan
sI24
Fnan
sI25
Fnan
sI26
Fnan
sI27
Fnan
sI28
Fnan
ssg154
(dp705
I0
F9.986286
sI1
F13.12611
sI2
F9.560867
sI3
F12.24003
sI4
F8.967483
sI5
F9.927358
sI6
F16.35849
sI7
F18.70376
sI8
F19.42881
sI9
F16.66779
sI10
F10.97352
sI11
F10.04746
sI12
F17.08974
sI13
F17.7165
sI14
F10.47094
sI15
F12.13219
sI16
F9.940635
sI17
F9.763239
sI18
F15.16207
sI19
F20.13461
sI20
F9.285267
sI21
F11.82894
sI22
F9.755224
sI23
F12.33603
sI24
F12.08126
sI25
F18.75442
sI26
F18.34443
sI27
F10.98921
sI28
F13.23511
ssg156
(dp706
I0
F10.834
sI1
F10.784
sI2
F11.027
sI3
F10.78
sI4
F11.298
sI5
F10.806
sI6
F10.758
sI7
F10.806
sI8
F10.795
sI9
F10.767
sI10
F10.973
sI11
F10.861
sI12
F10.788
sI13
F10.811
sI14
F10.806
sI15
F10.795
sI16
F10.845
sI17
F10.854
sI18
F10.774
sI19
F10.838
sI20
F11.076
sI21
F10.847
sI22
F10.836
sI23
F10.78
sI24
F10.828
sI25
F10.808
sI26
F10.799
sI27
F10.868
sI28
F10.803
ssg158
(dp707
I0
F0.6900274289894495
sI1
Fnan
sI2
Fnan
sI3
Fnan
sI4
Fnan
sI5
Fnan
sI6
Fnan
sI7
Fnan
sI8
Fnan
sI9
Fnan
sI10
Fnan
sI11
Fnan
sI12
Fnan
sI13
Fnan
sI14
Fnan
sI15
Fnan
sI16
Fnan
sI17
Fnan
sI18
Fnan
sI19
Fnan
sI20
Fnan
sI21
Fnan
sI22
Fnan
sI23
Fnan
sI24
Fnan
sI25
Fnan
sI26
Fnan
sI27
Fnan
sI28
Fnan
sss.