(dp0
S'i'
p1
(dp2
S'sigmean'
p3
(dp4
I0
F0.43906382449375597
sI1
Fnan
sI2
Fnan
sI3
Fnan
sI4
Fnan
sI5
Fnan
sI6
Fnan
sI7
Fnan
sI8
Fnan
sI9
Fnan
sI10
Fnan
sI11
Fnan
sI12
Fnan
sI13
Fnan
sI14
Fnan
ssS'ref3flag'
p5
(dp6
I0
S'NoError'
p7
sI1
S'NoError'
p8
sI2
S'NoError'
p9
sI3
S'NoError'
p10
sI4
S'NoError'
p11
sI5
S'NoError'
p12
sI6
S'NoError'
p13
sI7
S'NoError'
p14
sI8
S'NoError'
p15
sI9
S'NoError'
p16
sI10
S'NoError'
p17
sI11
S'NoError'
p18
sI12
S'NoError'
p19
sI13
S'NoError'
p20
sI14
S'NoError'
p21
ssS'tabbyerr'
p22
(dp23
I0
F0.003
sI1
F0.003
sI2
F0.003
sI3
F0.003
sI4
F0.003
sI5
F0.003
sI6
F0.003
sI7
F0.003
sI8
F0.003
sI9
F0.003
sI10
F0.003
sI11
F0.003
sI12
F0.003
sI13
F0.003
sI14
F0.003
ssS'ref2rel'
p24
(dp25
I0
F0.9102135606797941
sI1
F0.9078458621579031
sI2
F0.9084166364563985
sI3
F0.9107920775228296
sI4
F0.9090741740983905
sI5
F0.9111173264393013
sI6
F0.9100821108398662
sI7
F0.9137098312490479
sI8
F0.9182586201851076
sI9
F0.9140866178468711
sI10
F0.9127952755558835
sI11
F0.9137679224837854
sI12
F0.9085058624627307
sI13
F0.9128038450842766
sI14
F0.9046647862185463
ssS'ref2err'
p26
(dp27
I0
F0.0032930146782095787
sI1
Fnan
sI2
Fnan
sI3
Fnan
sI4
Fnan
sI5
Fnan
sI6
Fnan
sI7
Fnan
sI8
Fnan
sI9
Fnan
sI10
Fnan
sI11
Fnan
sI12
Fnan
sI13
Fnan
sI14
Fnan
ssS'ref2mean'
p28
(dp29
I0
F0.9110756339520488
sI1
Fnan
sI2
Fnan
sI3
Fnan
sI4
Fnan
sI5
Fnan
sI6
Fnan
sI7
Fnan
sI8
Fnan
sI9
Fnan
sI10
Fnan
sI11
Fnan
sI12
Fnan
sI13
Fnan
sI14
Fnan
ssS'tabbymag'
p30
(dp31
I0
F11.875
sI1
F11.878
sI2
F11.878
sI3
F11.867
sI4
F11.88
sI5
F11.879
sI6
F11.87
sI7
F11.96
sI8
F11.883
sI9
F11.975
sI10
F11.988
sI11
F11.873
sI12
F11.972
sI13
F11.981
sI14
F11.878
ssS'tabbybkg'
p32
(dp33
I0
F11.96287
sI1
F11.57368
sI2
F12.17984
sI3
F11.0896
sI4
F12.68272
sI5
F11.63101
sI6
F11.70728
sI7
F13.02448
sI8
F12.13593
sI9
F13.47902
sI10
F13.54761
sI11
F11.96496
sI12
F12.92687
sI13
F13.85003
sI14
F10.66088
ssS'JD'
p34
(dp35
I0
F2458335.8375462964
sI1
F2458335.854803241
sI2
F2458335.853321759
sI3
F2458335.8368055555
sI4
F2458335.854050926
sI5
F2458335.834571759
sI6
F2458335.835324074
sI7
F2458335.872037037
sI8
F2458335.8555439813
sI9
F2458335.874976852
sI10
F2458335.8735069446
sI11
F2458335.8360648146
sI12
F2458335.874247685
sI13
F2458335.8727662037
sI14
F2458335.856273148
ssS'ref3rmsmean'
p36
(dp37
I0
F2.8770230666666667
sI1
Fnan
sI2
Fnan
sI3
Fnan
sI4
Fnan
sI5
Fnan
sI6
Fnan
sI7
Fnan
sI8
Fnan
sI9
Fnan
sI10
Fnan
sI11
Fnan
sI12
Fnan
sI13
Fnan
sI14
Fnan
ssS'ref1rmsmean'
p38
(dp39
I0
F3.0927723333333335
sI1
Fnan
sI2
Fnan
sI3
Fnan
sI4
Fnan
sI5
Fnan
sI6
Fnan
sI7
Fnan
sI8
Fnan
sI9
Fnan
sI10
Fnan
sI11
Fnan
sI12
Fnan
sI13
Fnan
sI14
Fnan
ssS'relflux'
p40
(dp41
I0
F0.43812008070938474
sI1
F0.4395174986289709
sI2
F0.4387383675819471
sI3
F0.43856187459361956
sI4
F0.4390458320543077
sI5
F0.43769757389255387
sI6
F0.4408727685515163
sI7
F0.43754305770553803
sI8
F0.4396813800034381
sI9
F0.4400240459942673
sI10
F0.4382167701604984
sI11
F0.438586468326686
sI12
F0.44034912257563247
sI13
F0.4348407680990446
sI14
F0.4399387021342222
ssS'sigerr'
p42
(dp43
I0
F0.00098461360271012
sI1
Fnan
sI2
Fnan
sI3
Fnan
sI4
Fnan
sI5
Fnan
sI6
Fnan
sI7
Fnan
sI8
Fnan
sI9
Fnan
sI10
Fnan
sI11
Fnan
sI12
Fnan
sI13
Fnan
sI14
Fnan
ssS'tabbyrmsmean'
p44
(dp45
I0
F1.9238198599999998
sI1
Fnan
sI2
Fnan
sI3
Fnan
sI4
Fnan
sI5
Fnan
sI6
Fnan
sI7
Fnan
sI8
Fnan
sI9
Fnan
sI10
Fnan
sI11
Fnan
sI12
Fnan
sI13
Fnan
sI14
Fnan
ssS'tabbyflag'
p46
(dp47
I0
g7
sI1
g8
sI2
g9
sI3
g10
sI4
g11
sI5
g12
sI6
g13
sI7
g14
sI8
g15
sI9
g16
sI10
g17
sI11
g18
sI12
g19
sI13
g20
sI14
g21
ssS'ref1err'
p48
(dp49
I0
F0.0022997440994500357
sI1
Fnan
sI2
Fnan
sI3
Fnan
sI4
Fnan
sI5
Fnan
sI6
Fnan
sI7
Fnan
sI8
Fnan
sI9
Fnan
sI10
Fnan
sI11
Fnan
sI12
Fnan
sI13
Fnan
sI14
Fnan
ssS'ref2magmeanerr'
p50
(dp51
I0
F0.04713880213440576
sI1
Fnan
sI2
Fnan
sI3
Fnan
sI4
Fnan
sI5
Fnan
sI6
Fnan
sI7
Fnan
sI8
Fnan
sI9
Fnan
sI10
Fnan
sI11
Fnan
sI12
Fnan
sI13
Fnan
sI14
Fnan
ssS'ref2rmsmean'
p52
(dp53
I0
F0.8326578666666667
sI1
Fnan
sI2
Fnan
sI3
Fnan
sI4
Fnan
sI5
Fnan
sI6
Fnan
sI7
Fnan
sI8
Fnan
sI9
Fnan
sI10
Fnan
sI11
Fnan
sI12
Fnan
sI13
Fnan
sI14
Fnan
ssS'ref3rel'
p54
(dp55
I0
F1.4980090615715718
sI1
F1.5037389752904757
sI2
F1.499351858290381
sI3
F1.5030591806998042
sI4
F1.5024255636489836
sI5
F1.4999199017257259
sI6
F1.4944335612697313
sI7
F1.49601473988475
sI8
F1.4970234052428992
sI9
F1.4925439412144932
sI10
F1.501852928914986
sI11
F1.4977562592616431
sI12
F1.5017632774350405
sI13
F1.5032067719804525
sI14
F1.509152702396485
ssS'ref1flag'
p56
(dp57
I0
g7
sI1
g8
sI2
g9
sI3
g10
sI4
g11
sI5
g12
sI6
g13
sI7
g14
sI8
g15
sI9
g16
sI10
g17
sI11
g18
sI12
g19
sI13
g20
sI14
g21
ssS'ref2bkg'
p58
(dp59
I0
F13.40582
sI1
F13.4158
sI2
F13.07183
sI3
F13.12915
sI4
F13.22148
sI5
F13.62977
sI6
F12.4884
sI7
F15.80915
sI8
F12.41169
sI9
F15.72107
sI10
F15.7208
sI11
F14.00971
sI12
F14.7865
sI13
F15.10227
sI14
F14.09664
ssS'ref3magmean'
p60
(dp61
I0
F10.741866666666665
sI1
Fnan
sI2
Fnan
sI3
Fnan
sI4
Fnan
sI5
Fnan
sI6
Fnan
sI7
Fnan
sI8
Fnan
sI9
Fnan
sI10
Fnan
sI11
Fnan
sI12
Fnan
sI13
Fnan
sI14
Fnan
ssS'ref1mean'
p62
(dp63
I0
F0.6970869423958165
sI1
Fnan
sI2
Fnan
sI3
Fnan
sI4
Fnan
sI5
Fnan
sI6
Fnan
sI7
Fnan
sI8
Fnan
sI9
Fnan
sI10
Fnan
sI11
Fnan
sI12
Fnan
sI13
Fnan
sI14
Fnan
ssS'ref1rms'
p64
(dp65
I0
F2.80066
sI1
F3.467189
sI2
F4.139682
sI3
F3.211637
sI4
F4.473154
sI5
F3.431847
sI6
F4.106707
sI7
F3.226648
sI8
F-1.553127
sI9
F4.57095
sI10
F2.771
sI11
F2.246695
sI12
F3.259766
sI13
F4.09497
sI14
F2.143807
ssS'ref2magmean'
p66
(dp67
I0
F11.083266666666669
sI1
Fnan
sI2
Fnan
sI3
Fnan
sI4
Fnan
sI5
Fnan
sI6
Fnan
sI7
Fnan
sI8
Fnan
sI9
Fnan
sI10
Fnan
sI11
Fnan
sI12
Fnan
sI13
Fnan
sI14
Fnan
ssS'ref2flag'
p68
(dp69
I0
g7
sI1
g8
sI2
g9
sI3
g10
sI4
g11
sI5
g12
sI6
g13
sI7
g14
sI8
g15
sI9
g16
sI10
g17
sI11
g18
sI12
g19
sI13
g20
sI14
g21
ssS'ref2'
p70
(dp71
I0
F9567.1
sI1
F9491.973333333333
sI2
F9509.573333333334
sI3
F9632.676666666666
sI4
F9498.076666666666
sI5
F9550.196666666667
sI6
F9550.536666666665
sI7
F8877.69
sI8
F9518.206666666667
sI9
F8708.803333333333
sI10
F8638.41
sI11
F9600.69
sI12
F8691.88
sI13
F8758.609999999999
sI14
F9461.436666666666
ssS'airmass'
p72
(dp73
I0
F1.038022
sI1
F1.063642
sI2
F1.061121
sI3
F1.037102
sI4
F1.062383
sI5
F1.034406
sI6
F1.035295
sI7
F1.097539
sI8
F1.064914
sI9
F1.104249
sI10
F1.100862
sI11
F1.0362
sI12
F1.1025459999999998
sI13
F1.099202
sI14
F1.066192
ssS'ref1'
p74
(dp75
I0
F7922.14
sI1
F7862.6033333333335
sI2
F7891.456666666667
sI3
F7943.38
sI4
F7858.026666666667
sI5
F7886.716666666666
sI6
F7928.0233333333335
sI7
F7317.823333333334
sI8
F7781.763333333333
sI9
F7189.9
sI10
F7105.133333333333
sI11
F7904.303333333333
sI12
F7200.873333333334
sI13
F7197.7266666666665
sI14
F7852.3933333333325
ssS'ref3'
p76
(dp77
I0
F13099.519999999999
sI1
F13048.376666666667
sI2
F13045.133333333333
sI3
F13208.926666666666
sI4
F13038.126666666667
sI5
F13076.986666666666
sI6
F13060.273333333334
sI7
F12114.363333333335
sI8
F12949.230000000001
sI9
F11864.756666666666
sI10
F11822.243333333334
sI11
F13109.106666666667
sI12
F11933.576666666666
sI13
F11992.836666666666
sI14
F13064.606666666667
ssS'ref1bkg'
p78
(dp79
I0
F12.97818
sI1
F13.25626
sI2
F12.03466
sI3
F12.79185
sI4
F12.21914
sI5
F12.62461
sI6
F13.6656
sI7
F14.86937
sI8
F13.40063
sI9
F14.43631
sI10
F15.68121
sI11
F13.17378
sI12
F14.75334
sI13
F14.29056
sI14
F12.67778
ssS'ref1mag'
p80
(dp81
I0
F11.253
sI1
F11.261
sI2
F11.257
sI3
F11.25
sI4
F11.262
sI5
F11.258
sI6
F11.252
sI7
F11.339
sI8
F11.272
sI9
F11.358
sI10
F11.371
sI11
F11.255
sI12
F11.357
sI13
F11.357
sI14
F11.262
ssS'ref3magerr'
p82
(dp83
I0
F0.002
sI1
F0.002
sI2
F0.002
sI3
F0.002
sI4
F0.002
sI5
F0.002
sI6
F0.002
sI7
F0.002
sI8
F0.002
sI9
F0.002
sI10
F0.002
sI11
F0.002
sI12
F0.002
sI13
F0.002
sI14
F0.002
ssS'tabbymagmean'
p84
(dp85
I0
F0.4387822874007752
sI1
Fnan
sI2
Fnan
sI3
Fnan
sI4
Fnan
sI5
Fnan
sI6
Fnan
sI7
Fnan
sI8
Fnan
sI9
Fnan
sI10
Fnan
sI11
Fnan
sI12
Fnan
sI13
Fnan
sI14
Fnan
ssS'ref1magmean'
p86
(dp87
I0
F11.290933333333333
sI1
Fnan
sI2
Fnan
sI3
Fnan
sI4
Fnan
sI5
Fnan
sI6
Fnan
sI7
Fnan
sI8
Fnan
sI9
Fnan
sI10
Fnan
sI11
Fnan
sI12
Fnan
sI13
Fnan
sI14
Fnan
ssS'ref2mag'
p88
(dp89
I0
F11.048
sI1
F11.057
sI2
F11.055
sI3
F11.041
sI4
F11.056
sI5
F11.05
sI6
F11.05
sI7
F11.129
sI8
F11.054
sI9
F11.15
sI10
F11.159
sI11
F11.044
sI12
F11.152
sI13
F11.144
sI14
F11.06
ssS'ref3rms'
p90
(dp91
I0
F4.50196
sI1
F2.936187
sI2
F3.515101
sI3
F3.626468
sI4
F3.575008
sI5
F4.965669
sI6
F3.044507
sI7
F4.744148
sI8
F3.034286
sI9
F1.72058
sI10
F3.756002
sI11
F-1.889329
sI12
F3.017352
sI13
F3.793866
sI14
F-1.186459
ssS'ref3magmeanerr'
p92
(dp93
I0
F0.04816766352568703
sI1
Fnan
sI2
Fnan
sI3
Fnan
sI4
Fnan
sI5
Fnan
sI6
Fnan
sI7
Fnan
sI8
Fnan
sI9
Fnan
sI10
Fnan
sI11
Fnan
sI12
Fnan
sI13
Fnan
sI14
Fnan
ssS'ref1rel'
p94
(dp95
I0
F0.699013792087219
sI1
F0.6976469605248662
sI2
F0.6997614097397558
sI3
F0.695518601219033
sI4
F0.6973691664419666
sI5
F0.6971010532316955
sI6
F0.7012595597710417
sI7
F0.6971993846560348
sI8
F0.6927148342541969
sI9
F0.6989456370214976
sI10
F0.6945167602989541
sI11
F0.6961139678485305
sI12
F0.6982510447849479
sI13
F0.6937084225774461
sI14
F0.6971835414800616
ssS'exposure'
p96
(dp97
I0
F30.0
sI1
F30.0
sI2
F30.0
sI3
F30.0
sI4
F30.0
sI5
F30.0
sI6
F30.0
sI7
F30.0
sI8
F30.0
sI9
F30.0
sI10
F30.0
sI11
F30.0
sI12
F30.0
sI13
F30.0
sI14
F30.0
ssS'ref1magerr'
p98
(dp99
I0
F0.002
sI1
F0.002
sI2
F0.002
sI3
F0.002
sI4
F0.002
sI5
F0.002
sI6
F0.002
sI7
F0.002
sI8
F0.002
sI9
F0.002
sI10
F0.002
sI11
F0.002
sI12
F0.002
sI13
F0.002
sI14
F0.002
ssS'ref2magerr'
p100
(dp101
I0
F0.002
sI1
F0.002
sI2
F0.002
sI3
F0.002
sI4
F0.002
sI5
F0.002
sI6
F0.002
sI7
F0.002
sI8
F0.002
sI9
F0.002
sI10
F0.002
sI11
F0.002
sI12
F0.002
sI13
F0.002
sI14
F0.002
ssS'ref2rms'
p102
(dp103
I0
F2.729474
sI1
F-1.997244
sI2
F2.471889
sI3
F3.22894
sI4
F-3.337446
sI5
F3.682009
sI6
F4.131787
sI7
F-3.928078
sI8
F3.8862
sI9
F2.491267
sI10
F3.494936
sI11
F-2.313866
sI12
F-2.062196
sI13
F-3.105174
sI14
F3.11737
ssS'name'
p104
(dp105
I0
S"KIC8462852-20180805at080604_-25-1X1-030-i'_cal.fts.mag.1"
p106
sI1
S"KIC8462852-20180805at083055_-25-1X1-030-i'_cal.fts.mag.1"
p107
sI2
S"KIC8462852-20180805at082845_-25-1X1-030-i'_cal.fts.mag.1"
p108
sI3
S"KIC8462852-20180805at080500_-25-1X1-030-i'_cal.fts.mag.1"
p109
sI4
S"KIC8462852-20180805at082950_-25-1X1-030-i'_cal.fts.mag.1"
p110
sI5
S"KIC8462852-20180805at080146_-25-1X1-030-i'_cal.fts.mag.1"
p111
sI6
S"KIC8462852-20180805at080251_-25-1X1-030-i'_cal.fts.mag.1"
p112
sI7
S"KIC8462852-20180805at085543_-25-1X1-030-i'_cal.fts.mag.1"
p113
sI8
S"KIC8462852-20180805at083159_-25-1X1-030-i'_cal.fts.mag.1"
p114
sI9
S"KIC8462852-20180805at085958_-25-1X1-030-i'_cal.fts.mag.1"
p115
sI10
S"KIC8462852-20180805at085751_-25-1X1-030-i'_cal.fts.mag.1"
p116
sI11
S"KIC8462852-20180805at080356_-25-1X1-030-i'_cal.fts.mag.1"
p117
sI12
S"KIC8462852-20180805at085855_-25-1X1-030-i'_cal.fts.mag.1"
p118
sI13
S"KIC8462852-20180805at085647_-25-1X1-030-i'_cal.fts.mag.1"
p119
sI14
S"KIC8462852-20180805at083302_-25-1X1-030-i'_cal.fts.mag.1"
p120
ssS'ref3err'
p121
(dp122
I0
F0.0042305070909624655
sI1
Fnan
sI2
Fnan
sI3
Fnan
sI4
Fnan
sI5
Fnan
sI6
Fnan
sI7
Fnan
sI8
Fnan
sI9
Fnan
sI10
Fnan
sI11
Fnan
sI12
Fnan
sI13
Fnan
sI14
Fnan
ssS'tabby'
p123
(dp124
I0
F4467.183333333333
sI1
F4454.21
sI2
F4452.633333333333
sI3
F4500.373333333334
sI4
F4448.153333333334
sI5
F4451.953333333334
sI6
F4487.913333333333
sI7
F4128.929999999999
sI8
F4433.336666666667
sI9
F4072.1966666666663
sI10
F4026.5966666666664
sI11
F4475.6433333333325
sI12
F4084.4333333333334
sI13
F4051.1466666666665
sI14
F4454.883333333333
ssS'ref1magmeanerr'
p125
(dp126
I0
F0.04857610621733788
sI1
Fnan
sI2
Fnan
sI3
Fnan
sI4
Fnan
sI5
Fnan
sI6
Fnan
sI7
Fnan
sI8
Fnan
sI9
Fnan
sI10
Fnan
sI11
Fnan
sI12
Fnan
sI13
Fnan
sI14
Fnan
ssS'filter'
p127
(dp128
I0
S"i'"
p129
sI1
S"i'"
p130
sI2
S"i'"
p131
sI3
S"i'"
p132
sI4
S"i'"
p133
sI5
S"i'"
p134
sI6
S"i'"
p135
sI7
S"i'"
p136
sI8
S"i'"
p137
sI9
S"i'"
p138
sI10
S"i'"
p139
sI11
S"i'"
p140
sI12
S"i'"
p141
sI13
S"i'"
p142
sI14
S"i'"
p143
ssS'tabbymagerr'
p144
(dp145
I0
F0.0014691531463746758
sI1
Fnan
sI2
Fnan
sI3
Fnan
sI4
Fnan
sI5
Fnan
sI6
Fnan
sI7
Fnan
sI8
Fnan
sI9
Fnan
sI10
Fnan
sI11
Fnan
sI12
Fnan
sI13
Fnan
sI14
Fnan
ssS'tabbyrms'
p146
(dp147
I0
F2.42429
sI1
F4.464223
sI2
F2.361346
sI3
F4.203241
sI4
F2.992602
sI5
F2.939221
sI6
F-2.635661
sI7
F3.775407
sI8
F-2.626606
sI9
F3.180305
sI10
F3.787964
sI11
F3.015286
sI12
F-2.297198
sI13
F-0.8211961
sI14
F4.094074
ssS'ref3mean'
p148
(dp149
I0
F1.5000168085884946
sI1
Fnan
sI2
Fnan
sI3
Fnan
sI4
Fnan
sI5
Fnan
sI6
Fnan
sI7
Fnan
sI8
Fnan
sI9
Fnan
sI10
Fnan
sI11
Fnan
sI12
Fnan
sI13
Fnan
sI14
Fnan
ssS'median_JD'
p150
(dp151
I0
F2458335.854803241
sI1
Fnan
sI2
Fnan
sI3
Fnan
sI4
Fnan
sI5
Fnan
sI6
Fnan
sI7
Fnan
sI8
Fnan
sI9
Fnan
sI10
Fnan
sI11
Fnan
sI12
Fnan
sI13
Fnan
sI14
Fnan
ssS'error'
p152
(dp153
I0
F0.0014691531463746758
sI1
Fnan
sI2
Fnan
sI3
Fnan
sI4
Fnan
sI5
Fnan
sI6
Fnan
sI7
Fnan
sI8
Fnan
sI9
Fnan
sI10
Fnan
sI11
Fnan
sI12
Fnan
sI13
Fnan
sI14
Fnan
ssS'ref3bkg'
p154
(dp155
I0
F14.23304
sI1
F14.19995
sI2
F14.60105
sI3
F14.07939
sI4
F13.37926
sI5
F13.6863
sI6
F14.85404
sI7
F15.81729
sI8
F15.20047
sI9
F16.83578
sI10
F17.65611
sI11
F14.61818
sI12
F17.29803
sI13
F16.70714
sI14
F14.49666
ssS'ref3mag'
p156
(dp157
I0
F10.707
sI1
F10.711
sI2
F10.711
sI3
F10.698
sI4
F10.712
sI5
F10.709
sI6
F10.71
sI7
F10.792
sI8
F10.719
sI9
F10.814
sI10
F10.818
sI11
F10.706
sI12
F10.808
sI13
F10.803
sI14
F10.71
ssS'mean'
p158
(dp159
I0
F0.4387822874007752
sI1
Fnan
sI2
Fnan
sI3
Fnan
sI4
Fnan
sI5
Fnan
sI6
Fnan
sI7
Fnan
sI8
Fnan
sI9
Fnan
sI10
Fnan
sI11
Fnan
sI12
Fnan
sI13
Fnan
sI14
Fnan
sssS'r'
p160
(dp161
g3
(dp162
I0
F0.5477541159806352
sI1
Fnan
sI2
Fnan
sI3
Fnan
sI4
Fnan
sI5
Fnan
sI6
Fnan
sI7
Fnan
sI8
Fnan
sI9
Fnan
sI10
Fnan
sI11
Fnan
sI12
Fnan
sI13
Fnan
sI14
Fnan
ssg5
(dp163
I0
S'NoError'
p164
sI1
S'NoError'
p165
sI2
S'NoError'
p166
sI3
S'NoError'
p167
sI4
S'NoError'
p168
sI5
S'NoError'
p169
sI6
S'NoError'
p170
sI7
S'NoError'
p171
sI8
S'NoError'
p172
sI9
S'NoError'
p173
sI10
S'NoError'
p174
sI11
S'NoError'
p175
sI12
S'NoError'
p176
sI13
S'NoError'
p177
sI14
S'NoError'
p178
ssg22
(dp179
I0
F0.002
sI1
F0.002
sI2
F0.002
sI3
F0.002
sI4
F0.002
sI5
F0.002
sI6
F0.002
sI7
F0.002
sI8
F0.002
sI9
F0.002
sI10
F0.002
sI11
F0.002
sI12
F0.002
sI13
F0.002
sI14
F0.002
ssg24
(dp180
I0
F0.8936023300113117
sI1
F0.8973380507189471
sI2
F0.8966566210386605
sI3
F0.8977905392658339
sI4
F0.8976142424970065
sI5
F0.8909822068094568
sI6
F0.8974371863026743
sI7
F0.8969593342970048
sI8
F0.8951861504430686
sI9
F0.8959423124541425
sI10
F0.8999985946014027
sI11
F0.8965292094001649
sI12
F0.8944631492423221
sI13
F0.8985220179482801
sI14
F0.8982516821455374
ssg26
(dp181
I0
F0.002222390144597696
sI1
Fnan
sI2
Fnan
sI3
Fnan
sI4
Fnan
sI5
Fnan
sI6
Fnan
sI7
Fnan
sI8
Fnan
sI9
Fnan
sI10
Fnan
sI11
Fnan
sI12
Fnan
sI13
Fnan
sI14
Fnan
ssg28
(dp182
I0
F0.8964849084783876
sI1
Fnan
sI2
Fnan
sI3
Fnan
sI4
Fnan
sI5
Fnan
sI6
Fnan
sI7
Fnan
sI8
Fnan
sI9
Fnan
sI10
Fnan
sI11
Fnan
sI12
Fnan
sI13
Fnan
sI14
Fnan
ssg30
(dp183
I0
F11.199
sI1
F11.194
sI2
F11.212
sI3
F11.298
sI4
F11.3
sI5
F11.202
sI6
F11.199
sI7
F11.286
sI8
F11.23
sI9
F11.228
sI10
F11.213
sI11
F11.193
sI12
F11.211
sI13
F11.286
sI14
F11.299
ssg32
(dp184
I0
F13.94215
sI1
F14.83514
sI2
F15.21377
sI3
F16.52287
sI4
F16.98334
sI5
F13.88202
sI6
F15.16745
sI7
F16.46602
sI8
F14.02797
sI9
F14.66909
sI10
F14.63857
sI11
F15.28247
sI12
F15.20309
sI13
F16.32203
sI14
F16.76687
ssg34
(dp185
I0
F2458335.8308912036
sI1
F2458335.8496296294
sI2
F2458335.832361111
sI3
F2458335.869826389
sI4
F2458335.8712962964
sI5
F2458335.8316203705
sI6
F2458335.8503703703
sI7
F2458335.8683564817
sI8
F2458335.8338310183
sI9
F2458335.833090278
sI10
F2458335.8525694446
sI11
F2458335.851111111
sI12
F2458335.8518402777
sI13
F2458335.869097222
sI14
F2458335.8705671295
ssg36
(dp186
I0
F2.877105933333333
sI1
Fnan
sI2
Fnan
sI3
Fnan
sI4
Fnan
sI5
Fnan
sI6
Fnan
sI7
Fnan
sI8
Fnan
sI9
Fnan
sI10
Fnan
sI11
Fnan
sI12
Fnan
sI13
Fnan
sI14
Fnan
ssg38
(dp187
I0
F1.2941196666666668
sI1
Fnan
sI2
Fnan
sI3
Fnan
sI4
Fnan
sI5
Fnan
sI6
Fnan
sI7
Fnan
sI8
Fnan
sI9
Fnan
sI10
Fnan
sI11
Fnan
sI12
Fnan
sI13
Fnan
sI14
Fnan
ssg40
(dp188
I0
F0.546589622253919
sI1
F0.5498581208870501
sI2
F0.5481938286051542
sI3
F0.5472325411782265
sI4
F0.5433877277895492
sI5
F0.5481123136464157
sI6
F0.5483474106427327
sI7
F0.5486447442773443
sI8
F0.5458244429067985
sI9
F0.5472182000493592
sI10
F0.5470946745614665
sI11
F0.5507179481821111
sI12
F0.5479460691770787
sI13
F0.5489130473591018
sI14
F0.5468284922036089
ssg42
(dp189
I0
F0.0010452915319516642
sI1
Fnan
sI2
Fnan
sI3
Fnan
sI4
Fnan
sI5
Fnan
sI6
Fnan
sI7
Fnan
sI8
Fnan
sI9
Fnan
sI10
Fnan
sI11
Fnan
sI12
Fnan
sI13
Fnan
sI14
Fnan
ssg44
(dp190
I0
F1.2587997333333334
sI1
Fnan
sI2
Fnan
sI3
Fnan
sI4
Fnan
sI5
Fnan
sI6
Fnan
sI7
Fnan
sI8
Fnan
sI9
Fnan
sI10
Fnan
sI11
Fnan
sI12
Fnan
sI13
Fnan
sI14
Fnan
ssg46
(dp191
I0
g164
sI1
g165
sI2
g166
sI3
g167
sI4
g168
sI5
g169
sI6
g170
sI7
g171
sI8
g172
sI9
g173
sI10
g174
sI11
g175
sI12
g176
sI13
g177
sI14
g178
ssg48
(dp192
I0
F0.0018870985853973363
sI1
Fnan
sI2
Fnan
sI3
Fnan
sI4
Fnan
sI5
Fnan
sI6
Fnan
sI7
Fnan
sI8
Fnan
sI9
Fnan
sI10
Fnan
sI11
Fnan
sI12
Fnan
sI13
Fnan
sI14
Fnan
ssg50
(dp193
I0
F0.04096979142641329
sI1
Fnan
sI2
Fnan
sI3
Fnan
sI4
Fnan
sI5
Fnan
sI6
Fnan
sI7
Fnan
sI8
Fnan
sI9
Fnan
sI10
Fnan
sI11
Fnan
sI12
Fnan
sI13
Fnan
sI14
Fnan
ssg52
(dp194
I0
F2.3844989333333335
sI1
Fnan
sI2
Fnan
sI3
Fnan
sI4
Fnan
sI5
Fnan
sI6
Fnan
sI7
Fnan
sI8
Fnan
sI9
Fnan
sI10
Fnan
sI11
Fnan
sI12
Fnan
sI13
Fnan
sI14
Fnan
ssg54
(dp195
I0
F1.4941460326850173
sI1
F1.4957699929857233
sI2
F1.49932128872458
sI3
F1.4962581982334917
sI4
F1.4982246636547254
sI5
F1.5024910402967617
sI6
F1.4949324836413616
sI7
F1.4957427702227077
sI8
F1.5026728600968615
sI9
F1.5005195558401698
sI10
F1.4865969342051717
sI11
F1.4944994281049613
sI12
F1.4977445183574591
sI13
F1.4921345587474366
sI14
F1.4910781261766655
ssg56
(dp196
I0
g164
sI1
g165
sI2
g166
sI3
g167
sI4
g168
sI5
g169
sI6
g170
sI7
g171
sI8
g172
sI9
g173
sI10
g174
sI11
g175
sI12
g176
sI13
g177
sI14
g178
ssg58
(dp197
I0
F15.07588
sI1
F16.00808
sI2
F16.6202
sI3
F18.20311
sI4
F18.19891
sI5
F15.19145
sI6
F16.51096
sI7
F18.24043
sI8
F16.44658
sI9
F16.73881
sI10
F17.34282
sI11
F16.56775
sI12
F17.15819
sI13
F18.07185
sI14
F19.00504
ssg60
(dp198
I0
F10.311666666666666
sI1
Fnan
sI2
Fnan
sI3
Fnan
sI4
Fnan
sI5
Fnan
sI6
Fnan
sI7
Fnan
sI8
Fnan
sI9
Fnan
sI10
Fnan
sI11
Fnan
sI12
Fnan
sI13
Fnan
sI14
Fnan
ssg62
(dp199
I0
F0.7120584294292917
sI1
Fnan
sI2
Fnan
sI3
Fnan
sI4
Fnan
sI5
Fnan
sI6
Fnan
sI7
Fnan
sI8
Fnan
sI9
Fnan
sI10
Fnan
sI11
Fnan
sI12
Fnan
sI13
Fnan
sI14
Fnan
ssg64
(dp200
I0
F2.028231
sI1
F3.613255
sI2
F-1.875869
sI3
F-2.980095
sI4
F3.637062
sI5
F5.299846
sI6
F4.041988
sI7
F-2.721843
sI8
F2.566958
sI9
F2.925678
sI10
F2.682029
sI11
F-1.561623
sI12
F-3.104483
sI13
F2.374595
sI14
F2.486066
ssg66
(dp201
I0
F10.663333333333334
sI1
Fnan
sI2
Fnan
sI3
Fnan
sI4
Fnan
sI5
Fnan
sI6
Fnan
sI7
Fnan
sI8
Fnan
sI9
Fnan
sI10
Fnan
sI11
Fnan
sI12
Fnan
sI13
Fnan
sI14
Fnan
ssg68
(dp202
I0
g164
sI1
g165
sI2
g166
sI3
g167
sI4
g168
sI5
g169
sI6
g170
sI7
g171
sI8
g172
sI9
g173
sI10
g174
sI11
g175
sI12
g176
sI13
g177
sI14
g178
ssg70
(dp203
I0
F14106.32
sI1
F14138.793333333333
sI2
F13930.26
sI3
F12912.376666666667
sI4
F12977.663333333334
sI5
F14004.54
sI6
F14104.526666666667
sI7
F13013.24
sI8
F13746.793333333333
sI9
F13743.44
sI10
F13981.776666666667
sI11
F14119.96
sI12
F13935.983333333334
sI13
F13023.56
sI14
F12907.023333333334
ssg72
(dp204
I0
F1.030202
sI1
F1.055132
sI2
F1.0318319999999999
sI3
F1.092702
sI4
F1.095884
sI5
F1.03101
sI6
F1.056308
sI7
F1.089565
sI8
F1.033515
sI9
F1.032668
sI10
F1.059875
sI11
F1.057475
sI12
F1.058678
sI13
F1.091112
sI14
F1.094286
ssg74
(dp205
I0
F12039.196666666667
sI1
F11979.366666666667
sI2
F11790.053333333333
sI3
F10928.633333333333
sI4
F10973.666666666666
sI5
F11943.119999999999
sI6
F11954.59
sI7
F11032.913333333334
sI8
F11639.246666666668
sI9
F11637.213333333335
sI10
F11861.44
sI11
F11989.143333333333
sI12
F11850.083333333334
sI13
F11037.603333333333
sI14
F10951.006666666666
ssg76
(dp206
I0
F19532.61
sI1
F19533.38
sI2
F19281.506666666664
sI3
F17836.153333333332
sI4
F17942.236666666668
sI5
F19493.063333333335
sI6
F19478.31
sI7
F17983.43
sI8
F19073.456666666665
sI9
F19042.083333333332
sI10
F19209.22333333333
sI11
F19510.02
sI12
F19310.469999999998
sI13
F17951.246666666666
sI14
F17787.093333333334
ssg78
(dp207
I0
F15.85445
sI1
F15.01375
sI2
F16.51486
sI3
F18.49026
sI4
F17.17555
sI5
F14.49076
sI6
F15.79643
sI7
F17.80524
sI8
F15.53111
sI9
F15.99587
sI10
F17.14682
sI11
F16.0231
sI12
F16.12269
sI13
F17.77354
sI14
F18.17494
ssg80
(dp208
I0
F10.799
sI1
F10.804
sI2
F10.821
sI3
F10.904
sI4
F10.899
sI5
F10.807
sI6
F10.806
sI7
F10.893
sI8
F10.835
sI9
F10.835
sI10
F10.815
sI11
F10.803
sI12
F10.816
sI13
F10.893
sI14
F10.901
ssg82
(dp209
I0
F0.001
sI1
F0.001
sI2
F0.001
sI3
F0.001
sI4
F0.001
sI5
F0.001
sI6
F0.001
sI7
F0.001
sI8
F0.001
sI9
F0.001
sI10
F0.001
sI11
F0.001
sI12
F0.001
sI13
F0.001
sI14
F0.001
ssg84
(dp210
I0
F0.5476606122479946
sI1
Fnan
sI2
Fnan
sI3
Fnan
sI4
Fnan
sI5
Fnan
sI6
Fnan
sI7
Fnan
sI8
Fnan
sI9
Fnan
sI10
Fnan
sI11
Fnan
sI12
Fnan
sI13
Fnan
sI14
Fnan
ssg86
(dp211
I0
F10.84206666666667
sI1
Fnan
sI2
Fnan
sI3
Fnan
sI4
Fnan
sI5
Fnan
sI6
Fnan
sI7
Fnan
sI8
Fnan
sI9
Fnan
sI10
Fnan
sI11
Fnan
sI12
Fnan
sI13
Fnan
sI14
Fnan
ssg88
(dp212
I0
F10.626
sI1
F10.624
sI2
F10.64
sI3
F10.722
sI4
F10.717
sI5
F10.634
sI6
F10.627
sI7
F10.714
sI8
F10.654
sI9
F10.655
sI10
F10.636
sI11
F10.625
sI12
F10.64
sI13
F10.713
sI14
F10.723
ssg90
(dp213
I0
F-2.267873
sI1
F4.422698
sI2
F-2.329812
sI3
F2.90698
sI4
F3.548408
sI5
F3.624485
sI6
F3.337789
sI7
F4.16413
sI8
F5.243557
sI9
F4.503541
sI10
F3.627463
sI11
F1.758399
sI12
F3.302857
sI13
F3.097904
sI14
F4.216063
ssg92
(dp214
I0
F0.04223178671952933
sI1
Fnan
sI2
Fnan
sI3
Fnan
sI4
Fnan
sI5
Fnan
sI6
Fnan
sI7
Fnan
sI8
Fnan
sI9
Fnan
sI10
Fnan
sI11
Fnan
sI12
Fnan
sI13
Fnan
sI14
Fnan
ssg94
(dp215
I0
F0.715789513320826
sI1
F0.7115291637447024
sI2
F0.7099925428036048
sI3
F0.7108394016451085
sI4
F0.7098125586865848
sI5
F0.7130731044340386
sI6
F0.7119464099270549
sI7
F0.7118773296185258
sI8
F0.7092722734693775
sI9
F0.7098995013754548
sI10
F0.714738332680546
sI11
F0.7130032984458115
sI12
F0.7128630061392013
sI13
F0.7126826296037145
sI14
F0.7135573755448248
ssg96
(dp216
I0
F30.0
sI1
F30.0
sI2
F30.0
sI3
F30.0
sI4
F30.0
sI5
F30.0
sI6
F30.0
sI7
F30.0
sI8
F30.0
sI9
F30.0
sI10
F30.0
sI11
F30.0
sI12
F30.0
sI13
F30.0
sI14
F30.0
ssg98
(dp217
I0
F0.002
sI1
F0.002
sI2
F0.002
sI3
F0.002
sI4
F0.002
sI5
F0.002
sI6
F0.002
sI7
F0.002
sI8
F0.002
sI9
F0.002
sI10
F0.002
sI11
F0.002
sI12
F0.002
sI13
F0.002
sI14
F0.002
ssg100
(dp218
I0
F0.002
sI1
F0.002
sI2
F0.002
sI3
F0.002
sI4
F0.002
sI5
F0.002
sI6
F0.002
sI7
F0.002
sI8
F0.002
sI9
F0.002
sI10
F0.002
sI11
F0.002
sI12
F0.002
sI13
F0.002
sI14
F0.002
ssg102
(dp219
I0
F2.732976
sI1
F3.649663
sI2
F4.047591
sI3
F2.690058
sI4
F3.379431
sI5
F3.564214
sI6
F4.33283
sI7
F3.700505
sI8
F3.084532
sI9
F4.025276
sI10
F-2.847482
sI11
F-1.646394
sI12
F4.284777
sI13
F3.304813
sI14
F-2.535306
ssg104
(dp220
I0
S"KIC8462852-20180805at075627_-25-1X1-030-r'_cal.fts.mag.1"
p221
sI1
S"KIC8462852-20180805at082327_-25-1X1-030-r'_cal.fts.mag.1"
p222
sI2
S"KIC8462852-20180805at075836_-25-1X1-030-r'_cal.fts.mag.1"
p223
sI3
S"KIC8462852-20180805at085233_-25-1X1-030-r'_cal.fts.mag.1"
p224
sI4
S"KIC8462852-20180805at085440_-25-1X1-030-r'_cal.fts.mag.1"
p225
sI5
S"KIC8462852-20180805at075732_-25-1X1-030-r'_cal.fts.mag.1"
p226
sI6
S"KIC8462852-20180805at082432_-25-1X1-030-r'_cal.fts.mag.1"
p227
sI7
S"KIC8462852-20180805at085024_-25-1X1-030-r'_cal.fts.mag.1"
p228
sI8
S"KIC8462852-20180805at080043_-25-1X1-030-r'_cal.fts.mag.1"
p229
sI9
S"KIC8462852-20180805at075939_-25-1X1-030-r'_cal.fts.mag.1"
p230
sI10
S"KIC8462852-20180805at082742_-25-1X1-030-r'_cal.fts.mag.1"
p231
sI11
S"KIC8462852-20180805at082536_-25-1X1-030-r'_cal.fts.mag.1"
p232
sI12
S"KIC8462852-20180805at082639_-25-1X1-030-r'_cal.fts.mag.1"
p233
sI13
S"KIC8462852-20180805at085130_-25-1X1-030-r'_cal.fts.mag.1"
p234
sI14
S"KIC8462852-20180805at085337_-25-1X1-030-r'_cal.fts.mag.1"
p235
ssg121
(dp236
I0
F0.004312818839257022
sI1
Fnan
sI2
Fnan
sI3
Fnan
sI4
Fnan
sI5
Fnan
sI6
Fnan
sI7
Fnan
sI8
Fnan
sI9
Fnan
sI10
Fnan
sI11
Fnan
sI12
Fnan
sI13
Fnan
sI14
Fnan
ssg123
(dp237
I0
F8322.396666666666
sI1
F8367.29
sI2
F8223.24
sI3
F7602.366666666667
sI4
F7588.15
sI5
F8302.206666666667
sI6
F8323.443333333333
sI7
F7686.4366666666665
sI8
F8089.026666666667
sI9
F8102.9766666666665
sI10
F8215.983333333334
sI11
F8374.423333333334
sI12
F8236.823333333334
sI13
F7687.053333333333
sI14
F7590.913333333333
ssg125
(dp238
I0
F0.04230411440082505
sI1
Fnan
sI2
Fnan
sI3
Fnan
sI4
Fnan
sI5
Fnan
sI6
Fnan
sI7
Fnan
sI8
Fnan
sI9
Fnan
sI10
Fnan
sI11
Fnan
sI12
Fnan
sI13
Fnan
sI14
Fnan
ssg127
(dp239
I0
S"r'"
p240
sI1
S"r'"
p241
sI2
S"r'"
p242
sI3
S"r'"
p243
sI4
S"r'"
p244
sI5
S"r'"
p245
sI6
S"r'"
p246
sI7
S"r'"
p247
sI8
S"r'"
p248
sI9
S"r'"
p249
sI10
S"r'"
p250
sI11
S"r'"
p251
sI12
S"r'"
p252
sI13
S"r'"
p253
sI14
S"r'"
p254
ssg144
(dp255
I0
F0.0017304572055116764
sI1
Fnan
sI2
Fnan
sI3
Fnan
sI4
Fnan
sI5
Fnan
sI6
Fnan
sI7
Fnan
sI8
Fnan
sI9
Fnan
sI10
Fnan
sI11
Fnan
sI12
Fnan
sI13
Fnan
sI14
Fnan
ssg146
(dp256
I0
F4.171551
sI1
F2.951942
sI2
F-2.929198
sI3
F3.868167
sI4
F-4.185046
sI5
F3.587759
sI6
F-3.217436
sI7
F3.676491
sI8
F-1.7531
sI9
F4.434902
sI10
F3.816411
sI11
F-3.422305
sI12
F1.317085
sI13
F3.168705
sI14
F3.396068
ssg148
(dp257
I0
F1.496142163464873
sI1
Fnan
sI2
Fnan
sI3
Fnan
sI4
Fnan
sI5
Fnan
sI6
Fnan
sI7
Fnan
sI8
Fnan
sI9
Fnan
sI10
Fnan
sI11
Fnan
sI12
Fnan
sI13
Fnan
sI14
Fnan
ssg150
(dp258
I0
F2458335.851111111
sI1
Fnan
sI2
Fnan
sI3
Fnan
sI4
Fnan
sI5
Fnan
sI6
Fnan
sI7
Fnan
sI8
Fnan
sI9
Fnan
sI10
Fnan
sI11
Fnan
sI12
Fnan
sI13
Fnan
sI14
Fnan
ssg152
(dp259
I0
F0.0017304572055116764
sI1
Fnan
sI2
Fnan
sI3
Fnan
sI4
Fnan
sI5
Fnan
sI6
Fnan
sI7
Fnan
sI8
Fnan
sI9
Fnan
sI10
Fnan
sI11
Fnan
sI12
Fnan
sI13
Fnan
sI14
Fnan
ssg154
(dp260
I0
F18.88337
sI1
F18.10881
sI2
F19.51369
sI3
F20.62667
sI4
F20.60077
sI5
F18.13832
sI6
F18.44703
sI7
F20.70409
sI8
F17.89868
sI9
F18.39666
sI10
F19.68092
sI11
F17.88479
sI12
F19.4414
sI13
F20.72842
sI14
F21.2061
ssg156
(dp261
I0
F10.273
sI1
F10.273
sI2
F10.287
sI3
F10.372
sI4
F10.365
sI5
F10.275
sI6
F10.276
sI7
F10.363
sI8
F10.299
sI9
F10.301
sI10
F10.291
sI11
F10.274
sI12
F10.286
sI13
F10.365
sI14
F10.375
ssg158
(dp262
I0
F0.5476606122479946
sI1
Fnan
sI2
Fnan
sI3
Fnan
sI4
Fnan
sI5
Fnan
sI6
Fnan
sI7
Fnan
sI8
Fnan
sI9
Fnan
sI10
Fnan
sI11
Fnan
sI12
Fnan
sI13
Fnan
sI14
Fnan
sssS'z'
p263
(dp264
g3
(dp265
I0
F0.36893317885760735
sI1
Fnan
sI2
Fnan
sI3
Fnan
sI4
Fnan
sI5
Fnan
sI6
Fnan
sI7
Fnan
sI8
Fnan
sI9
Fnan
sI10
Fnan
sI11
Fnan
sI12
Fnan
sI13
Fnan
sI14
Fnan
ssg5
(dp266
I0
S'NoError'
p267
sI1
S'NoError'
p268
sI2
S'NoError'
p269
sI3
S'NoError'
p270
sI4
S'NoError'
p271
sI5
S'NoError'
p272
sI6
S'NoError'
p273
sI7
S'NoError'
p274
sI8
S'NoError'
p275
sI9
S'NoError'
p276
sI10
S'NoError'
p277
sI11
S'NoError'
p278
sI12
S'NoError'
p279
sI13
S'NoError'
p280
sI14
S'NoError'
p281
ssg22
(dp282
I0
F0.007
sI1
F0.007
sI2
F0.007
sI3
F0.007
sI4
F0.007
sI5
F0.007
sI6
F0.007
sI7
F0.007
sI8
F0.007
sI9
F0.007
sI10
F0.007
sI11
F0.008
sI12
F0.007
sI13
F0.007
sI14
F0.007
ssg24
(dp283
I0
F0.9066038779007449
sI1
F0.9128773609848235
sI2
F0.9275188356802742
sI3
F0.9291592863509728
sI4
F0.918555685422174
sI5
F0.9162252139305016
sI6
F0.9129532851697901
sI7
F0.9194400147642899
sI8
F0.9244853272754374
sI9
F0.9156718637589957
sI10
F0.9159772526001543
sI11
F0.9196374677169201
sI12
F0.9138917997940914
sI13
F0.9161449648759831
sI14
F0.9234407600741877
ssg26
(dp284
I0
F0.0060117777132418235
sI1
Fnan
sI2
Fnan
sI3
Fnan
sI4
Fnan
sI5
Fnan
sI6
Fnan
sI7
Fnan
sI8
Fnan
sI9
Fnan
sI10
Fnan
sI11
Fnan
sI12
Fnan
sI13
Fnan
sI14
Fnan
ssg28
(dp285
I0
F0.9181721997532895
sI1
Fnan
sI2
Fnan
sI3
Fnan
sI4
Fnan
sI5
Fnan
sI6
Fnan
sI7
Fnan
sI8
Fnan
sI9
Fnan
sI10
Fnan
sI11
Fnan
sI12
Fnan
sI13
Fnan
sI14
Fnan
ssg30
(dp286
I0
F13.232
sI1
F13.328
sI2
F13.334
sI3
F13.247
sI4
F13.229
sI5
F13.219
sI6
F13.234
sI7
F13.231
sI8
F13.243
sI9
F13.332
sI10
F13.238
sI11
F13.353
sI12
F13.245
sI13
F13.234
sI14
F13.32
ssg32
(dp287
I0
F8.204776
sI1
F8.544652
sI2
F8.802786
sI3
F8.38747
sI4
F8.24116
sI5
F7.135314
sI6
F8.817672
sI7
F7.78022
sI8
F8.372988
sI9
F9.191676
sI10
F7.81723
sI11
F8.006039
sI12
F8.605236
sI13
F8.032593
sI14
F7.916372
ssg34
(dp288
I0
F2458335.8577430556
sI1
F2458335.8757291664
sI2
F2458335.877962963
sI3
F2458335.8584837965
sI4
F2458335.840497685
sI5
F2458335.8397685187
sI6
F2458335.841226852
sI7
F2458335.859224537
sI8
F2458335.839039352
sI9
F2458335.8772222223
sI10
F2458335.8382986113
sI11
F2458335.8786921296
sI12
F2458335.859965278
sI13
F2458335.857025463
sI14
F2458335.8764699074
ssg36
(dp289
I0
F1.3740771999999999
sI1
Fnan
sI2
Fnan
sI3
Fnan
sI4
Fnan
sI5
Fnan
sI6
Fnan
sI7
Fnan
sI8
Fnan
sI9
Fnan
sI10
Fnan
sI11
Fnan
sI12
Fnan
sI13
Fnan
sI14
Fnan
ssg38
(dp290
I0
F0.32976152000000003
sI1
Fnan
sI2
Fnan
sI3
Fnan
sI4
Fnan
sI5
Fnan
sI6
Fnan
sI7
Fnan
sI8
Fnan
sI9
Fnan
sI10
Fnan
sI11
Fnan
sI12
Fnan
sI13
Fnan
sI14
Fnan
ssg40
(dp291
I0
F0.3735882578113289
sI1
F0.3706014469406533
sI2
F0.36687155017371925
sI3
F0.3655612085134749
sI4
F0.3732524498740615
sI5
F0.371274090967754
sI6
F0.3659105864688385
sI7
F0.3676434331394876
sI8
F0.3677617115367735
sI9
F0.3686945571784497
sI10
F0.37046829219433053
sI11
F0.3638157324241121
sI12
F0.37003685539119563
sI13
F0.3665767517957529
sI14
F0.3714783909744039
ssg42
(dp292
I0
F0.002326666477539262
sI1
Fnan
sI2
Fnan
sI3
Fnan
sI4
Fnan
sI5
Fnan
sI6
Fnan
sI7
Fnan
sI8
Fnan
sI9
Fnan
sI10
Fnan
sI11
Fnan
sI12
Fnan
sI13
Fnan
sI14
Fnan
ssg44
(dp293
I0
F0.7984603999999998
sI1
Fnan
sI2
Fnan
sI3
Fnan
sI4
Fnan
sI5
Fnan
sI6
Fnan
sI7
Fnan
sI8
Fnan
sI9
Fnan
sI10
Fnan
sI11
Fnan
sI12
Fnan
sI13
Fnan
sI14
Fnan
ssg46
(dp294
I0
g267
sI1
g268
sI2
g269
sI3
g270
sI4
g271
sI5
g272
sI6
g273
sI7
g274
sI8
g275
sI9
g276
sI10
g277
sI11
g278
sI12
g279
sI13
g280
sI14
g281
ssg48
(dp295
I0
F0.003944365852769297
sI1
Fnan
sI2
Fnan
sI3
Fnan
sI4
Fnan
sI5
Fnan
sI6
Fnan
sI7
Fnan
sI8
Fnan
sI9
Fnan
sI10
Fnan
sI11
Fnan
sI12
Fnan
sI13
Fnan
sI14
Fnan
ssg50
(dp296
I0
F0.046666292515507024
sI1
Fnan
sI2
Fnan
sI3
Fnan
sI4
Fnan
sI5
Fnan
sI6
Fnan
sI7
Fnan
sI8
Fnan
sI9
Fnan
sI10
Fnan
sI11
Fnan
sI12
Fnan
sI13
Fnan
sI14
Fnan
ssg52
(dp297
I0
F-0.08292333333333352
sI1
Fnan
sI2
Fnan
sI3
Fnan
sI4
Fnan
sI5
Fnan
sI6
Fnan
sI7
Fnan
sI8
Fnan
sI9
Fnan
sI10
Fnan
sI11
Fnan
sI12
Fnan
sI13
Fnan
sI14
Fnan
ssg54
(dp298
I0
F1.5115706436397491
sI1
F1.5142384666885165
sI2
F1.4939983979755769
sI3
F1.5009448936917877
sI4
F1.510831090247281
sI5
F1.5090704741112848
sI6
F1.5101531624126763
sI7
F1.5029333458465586
sI8
F1.5022571094300816
sI9
F1.5173261064606218
sI10
F1.5072620778028372
sI11
F1.509044204893362
sI12
F1.5022760490037415
sI13
F1.4996546062740188
sI14
F1.5051638196508044
ssg56
(dp299
I0
g267
sI1
g268
sI2
g269
sI3
g270
sI4
g271
sI5
g272
sI6
g273
sI7
g274
sI8
g275
sI9
g276
sI10
g277
sI11
g278
sI12
g279
sI13
g280
sI14
g281
ssg58
(dp300
I0
F9.049001
sI1
F10.16892
sI2
F8.9387
sI3
F8.859649
sI4
F9.380263
sI5
F8.948414
sI6
F8.526189
sI7
F7.947164
sI8
F8.035989
sI9
F8.650507
sI10
F8.118578
sI11
F8.663299
sI12
F9.354688
sI13
F8.448562
sI14
F7.964943
ssg60
(dp301
I0
F11.909600000000001
sI1
Fnan
sI2
Fnan
sI3
Fnan
sI4
Fnan
sI5
Fnan
sI6
Fnan
sI7
Fnan
sI8
Fnan
sI9
Fnan
sI10
Fnan
sI11
Fnan
sI12
Fnan
sI13
Fnan
sI14
Fnan
ssg62
(dp302
I0
F0.6872477483782766
sI1
Fnan
sI2
Fnan
sI3
Fnan
sI4
Fnan
sI5
Fnan
sI6
Fnan
sI7
Fnan
sI8
Fnan
sI9
Fnan
sI10
Fnan
sI11
Fnan
sI12
Fnan
sI13
Fnan
sI14
Fnan
ssg64
(dp303
I0
F2.235812
sI1
F-2.636246
sI2
F3.330309
sI3
F-1.947532
sI4
F-3.979244
sI5
F2.955683
sI6
F0.5233138
sI7
F1.106081
sI8
F3.011065
sI9
F2.636736
sI10
F-1.362035
sI11
F-2.812961
sI12
F2.176328
sI13
F2.828851
sI14
F-3.119738
ssg66
(dp304
I0
F12.247800000000002
sI1
Fnan
sI2
Fnan
sI3
Fnan
sI4
Fnan
sI5
Fnan
sI6
Fnan
sI7
Fnan
sI8
Fnan
sI9
Fnan
sI10
Fnan
sI11
Fnan
sI12
Fnan
sI13
Fnan
sI14
Fnan
ssg68
(dp305
I0
g267
sI1
g268
sI2
g269
sI3
g270
sI4
g271
sI5
g272
sI6
g273
sI7
g274
sI8
g275
sI9
g276
sI10
g277
sI11
g278
sI12
g279
sI13
g280
sI14
g281
ssg70
(dp306
I0
F3207.1796666666664
sI1
F2972.2433333333333
sI2
F3018.7386666666666
sI3
F3287.222
sI4
F3247.587
sI5
F3288.8823333333335
sI6
F3282.9696666666664
sI7
F3291.4193333333333
sI8
F3266.4963333333335
sI9
F2983.6183333333333
sI10
F3238.5946666666664
sI11
F2973.711666666667
sI12
F3214.9813333333336
sI13
F3285.6073333333334
sI14
F3009.6856666666667
ssg72
(dp307
I0
F1.068812
sI1
F1.105995
sI2
F1.111289
sI3
F1.070152
sI4
F1.041852
sI5
F1.040879
sI6
F1.042857
sI7
F1.071516
sI8
F1.039929
sI9
F1.109515
sI10
F1.038985
sI11
F1.113093
sI12
F1.072877
sI13
F1.06751
sI14
F1.107748
ssg74
(dp308
I0
F2649.0776666666666
sI1
F2425.2596666666664
sI2
F2435.1940000000004
sI3
F2632.8443333333335
sI4
F2630.599333333333
sI5
F2677.4173333333333
sI6
F2685.400666666667
sI7
F2675.6006666666667
sI8
F2634.3399999999997
sI9
F2418.4416666666666
sI10
F2640.599666666667
sI11
F2407.1556666666665
sI12
F2638.803
sI13
F2691.1466666666665
sI14
F2426.9230000000002
ssg76
(dp309
I0
F4426.073333333334
sI1
F4086.5533333333337
sI2
F4074.0833333333335
sI3
F4442.846666666666
sI4
F4440.473333333333
sI5
F4501.783333333334
sI6
F4506.576666666666
sI7
F4484.016666666666
sI8
F4432.286666666667
sI9
F4098.343333333333
sI10
F4430.743333333333
sI11
F4059.983333333333
sI12
F4397.0
sI13
F4481.533333333334
sI14
F4091.4933333333333
ssg78
(dp310
I0
F8.073458
sI1
F10.1169
sI2
F8.7472
sI3
F8.297927
sI4
F8.664068
sI5
F8.173975
sI6
F8.726358
sI7
F8.086935
sI8
F8.866021
sI9
F9.453956
sI10
F8.237571
sI11
F9.16671
sI12
F8.113531
sI13
F7.880944
sI14
F8.9196
ssg80
(dp311
I0
F12.442
sI1
F12.538
sI2
F12.534
sI3
F12.449
sI4
F12.45
sI5
F12.431
sI6
F12.427
sI7
F12.431
sI8
F12.448
sI9
F12.541
sI10
F12.446
sI11
F12.546
sI12
F12.446
sI13
F12.425
sI14
F12.537
ssg82
(dp312
I0
F0.003
sI1
F0.003
sI2
F0.003
sI3
F0.003
sI4
F0.003
sI5
F0.003
sI6
F0.003
sI7
F0.003
sI8
F0.003
sI9
F0.003
sI10
F0.003
sI11
F0.003
sI12
F0.003
sI13
F0.003
sI14
F0.003
ssg84
(dp313
I0
F0.3689023543589558
sI1
Fnan
sI2
Fnan
sI3
Fnan
sI4
Fnan
sI5
Fnan
sI6
Fnan
sI7
Fnan
sI8
Fnan
sI9
Fnan
sI10
Fnan
sI11
Fnan
sI12
Fnan
sI13
Fnan
sI14
Fnan
ssg86
(dp314
I0
F12.472733333333334
sI1
Fnan
sI2
Fnan
sI3
Fnan
sI4
Fnan
sI5
Fnan
sI6
Fnan
sI7
Fnan
sI8
Fnan
sI9
Fnan
sI10
Fnan
sI11
Fnan
sI12
Fnan
sI13
Fnan
sI14
Fnan
ssg88
(dp315
I0
F12.235
sI1
F12.317
sI2
F12.3
sI3
F12.208
sI4
F12.221
sI5
F12.207
sI6
F12.209
sI7
F12.207
sI8
F12.215
sI9
F12.313
sI10
F12.224
sI11
F12.317
sI12
F12.232
sI13
F12.208
sI14
F12.304
ssg90
(dp316
I0
F-3.693867
sI1
F2.132143
sI2
F3.585643
sI3
F-2.636506
sI4
F2.267591
sI5
F-2.954048
sI6
F4.015718
sI7
F4.42881
sI8
F-3.105525
sI9
F3.178622
sI10
F1.420989
sI11
F3.756431
sI12
F3.859374
sI13
F2.699574
sI14
F1.656209
ssg92
(dp317
I0
F0.04686119320473402
sI1
Fnan
sI2
Fnan
sI3
Fnan
sI4
Fnan
sI5
Fnan
sI6
Fnan
sI7
Fnan
sI8
Fnan
sI9
Fnan
sI10
Fnan
sI11
Fnan
sI12
Fnan
sI13
Fnan
sI14
Fnan
ssg94
(dp318
I0
F0.6940887893186998
sI1
F0.6871595205792865
sI2
F0.6866643488304092
sI3
F0.6811955874820604
sI4
F0.6843336860736567
sI5
F0.6873398109712233
sI6
F0.6894883352000091
sI7
F0.6882188128528527
sI8
F0.6843523190613372
sI9
F0.6829863759499781
sI10
F0.6886121505315497
sI11
F0.6844640453322661
sI12
F0.693328815309759
sI13
F0.6929568504445779
sI14
F0.6835267777364857
ssg96
(dp319
I0
F30.0
sI1
F30.0
sI2
F30.0
sI3
F30.0
sI4
F30.0
sI5
F30.0
sI6
F30.0
sI7
F30.0
sI8
F30.0
sI9
F30.0
sI10
F30.0
sI11
F30.0
sI12
F30.0
sI13
F30.0
sI14
F30.0
ssg98
(dp320
I0
F0.004
sI1
F0.004
sI2
F0.004
sI3
F0.004
sI4
F0.004
sI5
F0.004
sI6
F0.004
sI7
F0.004
sI8
F0.004
sI9
F0.004
sI10
F0.004
sI11
F0.004
sI12
F0.004
sI13
F0.004
sI14
F0.004
ssg100
(dp321
I0
F0.004
sI1
F0.004
sI2
F0.004
sI3
F0.004
sI4
F0.004
sI5
F0.004
sI6
F0.004
sI7
F0.004
sI8
F0.004
sI9
F0.004
sI10
F0.004
sI11
F0.004
sI12
F0.004
sI13
F0.004
sI14
F0.004
ssg102
(dp322
I0
F-3.020913
sI1
F-3.052803
sI2
F3.799356
sI3
F-2.883715
sI4
F-2.947669
sI5
F-3.067635
sI6
F-2.861398
sI7
F-3.372978
sI8
F3.608394
sI9
F4.447449
sI10
F1.234406
sI11
F2.197389
sI12
F1.696612
sI13
F-1.909356
sI14
F4.889011
ssg104
(dp323
I0
S"KIC8462852-20180805at083509_-25-1X1-030-z'_cal.fts.mag.1"
p324
sI1
S"KIC8462852-20180805at090102_-25-1X1-030-z'_cal.fts.mag.1"
p325
sI2
S"KIC8462852-20180805at090416_-25-1X1-030-z'_cal.fts.mag.1"
p326
sI3
S"KIC8462852-20180805at083613_-25-1X1-030-z'_cal.fts.mag.1"
p327
sI4
S"KIC8462852-20180805at081019_-25-1X1-030-z'_cal.fts.mag.1"
p328
sI5
S"KIC8462852-20180805at080916_-25-1X1-030-z'_cal.fts.mag.1"
p329
sI6
S"KIC8462852-20180805at081122_-25-1X1-030-z'_cal.fts.mag.1"
p330
sI7
S"KIC8462852-20180805at083717_-25-1X1-030-z'_cal.fts.mag.1"
p331
sI8
S"KIC8462852-20180805at080813_-25-1X1-030-z'_cal.fts.mag.1"
p332
sI9
S"KIC8462852-20180805at090312_-25-1X1-030-z'_cal.fts.mag.1"
p333
sI10
S"KIC8462852-20180805at080707_-25-1X1-030-z'_cal.fts.mag.1"
p334
sI11
S"KIC8462852-20180805at090519_-25-1X1-030-z'_cal.fts.mag.1"
p335
sI12
S"KIC8462852-20180805at083821_-25-1X1-030-z'_cal.fts.mag.1"
p336
sI13
S"KIC8462852-20180805at083405_-25-1X1-030-z'_cal.fts.mag.1"
p337
sI14
S"KIC8462852-20180805at090207_-25-1X1-030-z'_cal.fts.mag.1"
p338
ssg121
(dp339
I0
F0.006169531988097196
sI1
Fnan
sI2
Fnan
sI3
Fnan
sI4
Fnan
sI5
Fnan
sI6
Fnan
sI7
Fnan
sI8
Fnan
sI9
Fnan
sI10
Fnan
sI11
Fnan
sI12
Fnan
sI13
Fnan
sI14
Fnan
ssg123
(dp340
I0
F1280.4526666666668
sI1
F1171.6016666666667
sI2
F1165.1860000000001
sI3
F1262.7596666666666
sI4
F1283.8216666666667
sI5
F1295.5093333333332
sI6
F1277.6313333333335
sI7
F1280.7516666666668
sI8
F1266.7089999999998
sI9
F1167.5823333333333
sI10
F1273.1683333333335
sI11
F1144.91
sI12
F1264.3893333333333
sI13
F1277.9216666666666
sI14
F1179.828
ssg125
(dp341
I0
F0.04934639466735832
sI1
Fnan
sI2
Fnan
sI3
Fnan
sI4
Fnan
sI5
Fnan
sI6
Fnan
sI7
Fnan
sI8
Fnan
sI9
Fnan
sI10
Fnan
sI11
Fnan
sI12
Fnan
sI13
Fnan
sI14
Fnan
ssg127
(dp342
I0
S"z'"
p343
sI1
S"z'"
p344
sI2
S"z'"
p345
sI3
S"z'"
p346
sI4
S"z'"
p347
sI5
S"z'"
p348
sI6
S"z'"
p349
sI7
S"z'"
p350
sI8
S"z'"
p351
sI9
S"z'"
p352
sI10
S"z'"
p353
sI11
S"z'"
p354
sI12
S"z'"
p355
sI13
S"z'"
p356
sI14
S"z'"
p357
ssg144
(dp358
I0
F0.0029058766256560985
sI1
Fnan
sI2
Fnan
sI3
Fnan
sI4
Fnan
sI5
Fnan
sI6
Fnan
sI7
Fnan
sI8
Fnan
sI9
Fnan
sI10
Fnan
sI11
Fnan
sI12
Fnan
sI13
Fnan
sI14
Fnan
ssg146
(dp359
I0
F2.818801
sI1
F3.342621
sI2
F1.412274
sI3
F2.484683
sI4
F-4.049918
sI5
F3.302297
sI6
F-2.252081
sI7
F1.507313
sI8
F-1.083193
sI9
F-3.339363
sI10
F3.042107
sI11
F1.436378
sI12
F4.05305
sI13
F-3.231305
sI14
F2.533242
ssg148
(dp360
I0
F1.5064482965419261
sI1
Fnan
sI2
Fnan
sI3
Fnan
sI4
Fnan
sI5
Fnan
sI6
Fnan
sI7
Fnan
sI8
Fnan
sI9
Fnan
sI10
Fnan
sI11
Fnan
sI12
Fnan
sI13
Fnan
sI14
Fnan
ssg150
(dp361
I0
F2458335.8584837965
sI1
Fnan
sI2
Fnan
sI3
Fnan
sI4
Fnan
sI5
Fnan
sI6
Fnan
sI7
Fnan
sI8
Fnan
sI9
Fnan
sI10
Fnan
sI11
Fnan
sI12
Fnan
sI13
Fnan
sI14
Fnan
ssg152
(dp362
I0
F0.0029058766256560985
sI1
Fnan
sI2
Fnan
sI3
Fnan
sI4
Fnan
sI5
Fnan
sI6
Fnan
sI7
Fnan
sI8
Fnan
sI9
Fnan
sI10
Fnan
sI11
Fnan
sI12
Fnan
sI13
Fnan
sI14
Fnan
ssg154
(dp363
I0
F9.039307
sI1
F10.01402
sI2
F9.303361
sI3
F9.822261
sI4
F8.666254
sI5
F9.569299
sI6
F8.371552
sI7
F8.090625
sI8
F9.152588
sI9
F9.650114
sI10
F8.328507
sI11
F9.552135
sI12
F8.799847
sI13
F8.475234
sI14
F9.913318
ssg156
(dp364
I0
F11.885
sI1
F11.972
sI2
F11.975
sI3
F11.881
sI4
F11.881
sI5
F11.867
sI6
F11.865
sI7
F11.871
sI8
F11.883
sI9
F11.968
sI10
F11.884
sI11
F11.979
sI12
F11.892
sI13
F11.871
sI14
F11.97
ssg158
(dp365
I0
F0.3689023543589558
sI1
Fnan
sI2
Fnan
sI3
Fnan
sI4
Fnan
sI5
Fnan
sI6
Fnan
sI7
Fnan
sI8
Fnan
sI9
Fnan
sI10
Fnan
sI11
Fnan
sI12
Fnan
sI13
Fnan
sI14
Fnan
sssS'g'
p366
(dp367
g3
(dp368
I0
F0.8640762834100693
sI1
Fnan
sI2
Fnan
sI3
Fnan
sI4
Fnan
sI5
Fnan
sI6
Fnan
sI7
Fnan
sI8
Fnan
sI9
Fnan
sI10
Fnan
sI11
Fnan
sI12
Fnan
sI13
Fnan
sI14
Fnan
ssg5
(dp369
I0
S'NoError'
p370
sI1
S'NoError'
p371
sI2
S'NoError'
p372
sI3
S'NoError'
p373
sI4
S'NoError'
p374
sI5
S'NoError'
p375
sI6
S'NoError'
p376
sI7
S'NoError'
p377
sI8
S'NoError'
p378
sI9
S'NoError'
p379
sI10
S'NoError'
p380
sI11
S'NoError'
p381
sI12
S'NoError'
p382
sI13
S'NoError'
p383
sI14
S'NoError'
p384
ssg22
(dp385
I0
F0.002
sI1
F0.002
sI2
F0.002
sI3
F0.002
sI4
F0.002
sI5
F0.002
sI6
F0.002
sI7
F0.002
sI8
F0.002
sI9
F0.002
sI10
F0.002
sI11
F0.002
sI12
F0.002
sI13
F0.002
sI14
F0.002
ssg24
(dp386
I0
F0.8836015991931176
sI1
F0.8785871084871871
sI2
F0.8837433578727728
sI3
F0.8802658003444657
sI4
F0.88359853568811
sI5
F0.8824001278593652
sI6
F0.8794020624482483
sI7
F0.8817579658693778
sI8
F0.8808276678967215
sI9
F0.875197967157214
sI10
F0.8840969645853772
sI11
F0.8807229304415399
sI12
F0.8745873758014873
sI13
F0.8833571795691011
sI14
F0.8803935563145386
ssg26
(dp387
I0
F0.002958037144248108
sI1
Fnan
sI2
Fnan
sI3
Fnan
sI4
Fnan
sI5
Fnan
sI6
Fnan
sI7
Fnan
sI8
Fnan
sI9
Fnan
sI10
Fnan
sI11
Fnan
sI12
Fnan
sI13
Fnan
sI14
Fnan
ssg28
(dp388
I0
F0.8808360133019082
sI1
Fnan
sI2
Fnan
sI3
Fnan
sI4
Fnan
sI5
Fnan
sI6
Fnan
sI7
Fnan
sI8
Fnan
sI9
Fnan
sI10
Fnan
sI11
Fnan
sI12
Fnan
sI13
Fnan
sI14
Fnan
ssg30
(dp389
I0
F11.502
sI1
F11.457
sI2
F11.443
sI3
F11.456
sI4
F11.458
sI5
F11.496
sI6
F11.534
sI7
F11.558
sI8
F11.463
sI9
F11.464
sI10
F11.487
sI11
F11.521
sI12
F11.55
sI13
F11.438
sI14
F11.513
ssg32
(dp390
I0
F12.66191
sI1
F12.34454
sI2
F12.74372
sI3
F12.21646
sI4
F11.34468
sI5
F11.38359
sI6
F14.37935
sI7
F14.44158
sI8
F12.5882
sI9
F12.59438
sI10
F11.1566
sI11
F14.06817
sI12
F13.46118
sI13
F12.98656
sI14
F14.53092
ssg34
(dp391
I0
F2458335.8286805553
sI1
F2458335.8294097222
sI2
F2458335.8466666667
sI3
F2458335.8474074076
sI4
F2458335.8301388887
sI5
F2458335.827210648
sI6
F2458335.8661226854
sI7
F2458335.8675810187
sI8
F2458335.848888889
sI9
F2458335.848136574
sI10
F2458335.827951389
sI11
F2458335.8646412035
sI12
F2458335.866851852
sI13
F2458335.8459259258
sI14
F2458335.8653819445
ssg36
(dp392
I0
F0.9813959333333335
sI1
Fnan
sI2
Fnan
sI3
Fnan
sI4
Fnan
sI5
Fnan
sI6
Fnan
sI7
Fnan
sI8
Fnan
sI9
Fnan
sI10
Fnan
sI11
Fnan
sI12
Fnan
sI13
Fnan
sI14
Fnan
ssg38
(dp393
I0
F0.9094047199999999
sI1
Fnan
sI2
Fnan
sI3
Fnan
sI4
Fnan
sI5
Fnan
sI6
Fnan
sI7
Fnan
sI8
Fnan
sI9
Fnan
sI10
Fnan
sI11
Fnan
sI12
Fnan
sI13
Fnan
sI14
Fnan
ssg40
(dp394
I0
F0.8629810220555725
sI1
F0.8613543900610148
sI2
F0.8633139433685355
sI3
F0.863688886896935
sI4
F0.865338886554357
sI5
F0.8626466013894604
sI6
F0.8652410087005071
sI7
F0.862372598954111
sI8
F0.869983624347505
sI9
F0.8696597439650221
sI10
F0.8680594115638963
sI11
F0.8662779979829178
sI12
F0.8617731275589791
sI13
F0.8650020600854664
sI14
F0.864941749159147
ssg42
(dp395
I0
F0.0018576308232908483
sI1
Fnan
sI2
Fnan
sI3
Fnan
sI4
Fnan
sI5
Fnan
sI6
Fnan
sI7
Fnan
sI8
Fnan
sI9
Fnan
sI10
Fnan
sI11
Fnan
sI12
Fnan
sI13
Fnan
sI14
Fnan
ssg44
(dp396
I0
F1.7414132933333333
sI1
Fnan
sI2
Fnan
sI3
Fnan
sI4
Fnan
sI5
Fnan
sI6
Fnan
sI7
Fnan
sI8
Fnan
sI9
Fnan
sI10
Fnan
sI11
Fnan
sI12
Fnan
sI13
Fnan
sI14
Fnan
ssg46
(dp397
I0
g370
sI1
g371
sI2
g372
sI3
g373
sI4
g374
sI5
g375
sI6
g376
sI7
g377
sI8
g378
sI9
g379
sI10
g380
sI11
g381
sI12
g382
sI13
g383
sI14
g384
ssg48
(dp398
I0
F0.003068343227482069
sI1
Fnan
sI2
Fnan
sI3
Fnan
sI4
Fnan
sI5
Fnan
sI6
Fnan
sI7
Fnan
sI8
Fnan
sI9
Fnan
sI10
Fnan
sI11
Fnan
sI12
Fnan
sI13
Fnan
sI14
Fnan
ssg50
(dp399
I0
F0.03939990331145967
sI1
Fnan
sI2
Fnan
sI3
Fnan
sI4
Fnan
sI5
Fnan
sI6
Fnan
sI7
Fnan
sI8
Fnan
sI9
Fnan
sI10
Fnan
sI11
Fnan
sI12
Fnan
sI13
Fnan
sI14
Fnan
ssg52
(dp400
I0
F0.38621013333333337
sI1
Fnan
sI2
Fnan
sI3
Fnan
sI4
Fnan
sI5
Fnan
sI6
Fnan
sI7
Fnan
sI8
Fnan
sI9
Fnan
sI10
Fnan
sI11
Fnan
sI12
Fnan
sI13
Fnan
sI14
Fnan
ssg54
(dp401
I0
F1.5138125831489295
sI1
F1.506111262561628
sI2
F1.5105353883850259
sI3
F1.5108896189382983
sI4
F1.519393205398982
sI5
F1.5183366020630125
sI6
F1.518052341712811
sI7
F1.5094681189179437
sI8
F1.5137015634747015
sI9
F1.5216726043009332
sI10
F1.5077412331769482
sI11
F1.51332781674129
sI12
F1.5163721468920868
sI13
F1.5129856433586482
sI14
F1.5166377970831921
ssg56
(dp402
I0
g370
sI1
g371
sI2
g372
sI3
g373
sI4
g374
sI5
g375
sI6
g376
sI7
g377
sI8
g378
sI9
g379
sI10
g380
sI11
g381
sI12
g382
sI13
g383
sI14
g384
ssg58
(dp403
I0
F11.73395
sI1
F11.43058
sI2
F12.96197
sI3
F12.40877
sI4
F12.06768
sI5
F10.82031
sI6
F13.95969
sI7
F14.96388
sI8
F12.70832
sI9
F12.88706
sI10
F11.36318
sI11
F13.71302
sI12
F14.37805
sI13
F12.08927
sI14
F13.36601
ssg60
(dp404
I0
F11.052866666666667
sI1
Fnan
sI2
Fnan
sI3
Fnan
sI4
Fnan
sI5
Fnan
sI6
Fnan
sI7
Fnan
sI8
Fnan
sI9
Fnan
sI10
Fnan
sI11
Fnan
sI12
Fnan
sI13
Fnan
sI14
Fnan
ssg62
(dp405
I0
F0.715206208087489
sI1
Fnan
sI2
Fnan
sI3
Fnan
sI4
Fnan
sI5
Fnan
sI6
Fnan
sI7
Fnan
sI8
Fnan
sI9
Fnan
sI10
Fnan
sI11
Fnan
sI12
Fnan
sI13
Fnan
sI14
Fnan
ssg64
(dp406
I0
F-1.551083
sI1
F-3.197149
sI2
F2.396072
sI3
F3.562004
sI4
F-0.9345682
sI5
F-3.715438
sI6
F1.89006
sI7
F2.74354
sI8
F1.982277
sI9
F-3.489963
sI10
F2.69839
sI11
F2.95199
sI12
F3.100358
sI13
F1.54263
sI14
F3.661951
ssg66
(dp407
I0
F11.425266666666667
sI1
Fnan
sI2
Fnan
sI3
Fnan
sI4
Fnan
sI5
Fnan
sI6
Fnan
sI7
Fnan
sI8
Fnan
sI9
Fnan
sI10
Fnan
sI11
Fnan
sI12
Fnan
sI13
Fnan
sI14
Fnan
ssg68
(dp408
I0
g370
sI1
g371
sI2
g372
sI3
g373
sI4
g374
sI5
g375
sI6
g376
sI7
g377
sI8
g378
sI9
g379
sI10
g380
sI11
g381
sI12
g382
sI13
g383
sI14
g384
ssg70
(dp409
I0
F6710.656666666667
sI1
F6980.733333333334
sI2
F7083.593333333333
sI3
F6978.09
sI4
F6966.3099999999995
sI5
F6744.903333333334
sI6
F6476.683333333333
sI7
F6368.71
sI8
F6885.983333333334
sI9
F6845.986666666667
sI10
F6764.626666666666
sI11
F6550.87
sI12
F6379.916666666667
sI13
F7101.1066666666675
sI14
F6609.65
ssg72
(dp410
I0
F1.027841
sI1
F1.028606
sI2
F1.050585
sI3
F1.051692
sI4
F1.029388
sI5
F1.026348
sI6
F1.0849
sI7
F1.087968
sI8
F1.053957
sI9
F1.052826
sI10
F1.027089
sI11
F1.0819299999999998
sI12
F1.086409
sI13
F1.049493
sI14
F1.083418
ssg74
(dp411
I0
F5754.426666666666
sI1
F6065.943333333333
sI2
F6085.04
sI3
F6028.64
sI4
F5953.163333333333
sI5
F5779.5
sI6
F5579.093333333333
sI7
F5493.026666666667
sI8
F5933.113333333333
sI9
F5926.59
sI10
F5817.5633333333335
sI11
F5646.676666666666
sI12
F5546.843333333333
sI13
F6094.876666666666
sI14
F5688.953333333334
ssg76
(dp412
I0
F9434.9
sI1
F9824.873333333333
sI2
F9945.843333333332
sI3
F9825.866666666667
sI4
F9814.880000000001
sI5
F9508.130000000001
sI6
F9150.65
sI7
F8952.456666666667
sI8
F9702.143333333333
sI9
F9717.84
sI10
F9485.343333333332
sI11
F9229.443333333333
sI12
F9042.703333333333
sI13
F9982.666666666666
sI14
F9326.263333333334
ssg78
(dp413
I0
F11.03427
sI1
F10.67776
sI2
F12.82767
sI3
F11.65639
sI4
F11.1567
sI5
F11.47189
sI6
F13.29957
sI7
F13.21979
sI8
F12.62778
sI9
F12.61023
sI10
F10.07834
sI11
F13.7819
sI12
F14.28829
sI13
F12.10857
sI14
F13.456
ssg80
(dp414
I0
F11.6
sI1
F11.543
sI2
F11.539
sI3
F11.549
sI4
F11.563
sI5
F11.595
sI6
F11.634
sI7
F11.65
sI8
F11.567
sI9
F11.568
sI10
F11.588
sI11
F11.621
sI12
F11.64
sI13
F11.538
sI14
F11.612
ssg82
(dp415
I0
F0.002
sI1
F0.002
sI2
F0.002
sI3
F0.002
sI4
F0.002
sI5
F0.002
sI6
F0.002
sI7
F0.002
sI8
F0.002
sI9
F0.002
sI10
F0.002
sI11
F0.002
sI12
F0.002
sI13
F0.002
sI14
F0.002
ssg84
(dp416
I0
F0.864842336842895
sI1
Fnan
sI2
Fnan
sI3
Fnan
sI4
Fnan
sI5
Fnan
sI6
Fnan
sI7
Fnan
sI8
Fnan
sI9
Fnan
sI10
Fnan
sI11
Fnan
sI12
Fnan
sI13
Fnan
sI14
Fnan
ssg86
(dp417
I0
F11.587133333333332
sI1
Fnan
sI2
Fnan
sI3
Fnan
sI4
Fnan
sI5
Fnan
sI6
Fnan
sI7
Fnan
sI8
Fnan
sI9
Fnan
sI10
Fnan
sI11
Fnan
sI12
Fnan
sI13
Fnan
sI14
Fnan
ssg88
(dp418
I0
F11.433
sI1
F11.39
sI2
F11.374
sI3
F11.391
sI4
F11.392
sI5
F11.428
sI6
F11.472
sI7
F11.49
sI8
F11.405
sI9
F11.411
sI10
F11.424
sI11
F11.459
sI12
F11.488
sI13
F11.372
sI14
F11.45
ssg90
(dp419
I0
F3.386111
sI1
F2.622139
sI2
F-3.113581
sI3
F2.799732
sI4
F-3.132151
sI5
F2.824297
sI6
F3.94628
sI7
F2.405779
sI8
F-2.157629
sI9
F3.301675
sI10
F2.454124
sI11
F2.932317
sI12
F-1.988975
sI13
F-3.795274
sI14
F2.236095
ssg92
(dp420
I0
F0.038147957568743514
sI1
Fnan
sI2
Fnan
sI3
Fnan
sI4
Fnan
sI5
Fnan
sI6
Fnan
sI7
Fnan
sI8
Fnan
sI9
Fnan
sI10
Fnan
sI11
Fnan
sI12
Fnan
sI13
Fnan
sI14
Fnan
ssg94
(dp421
I0
F0.7128186144918714
sI1
F0.7218951929137933
sI2
F0.7146495940069265
sI3
F0.7175262492742286
sI4
F0.7095043120700417
sI5
F0.7111903213964162
sI6
F0.7140173200802014
sI7
F0.717050703275425
sI8
F0.7153445898451863
sI9
F0.7156063775922955
sI10
F0.7160091167347797
sI11
F0.7156609057614826
sI12
F0.71931271513314
sI13
F0.7135281588844931
sI14
F0.7139789498520532
ssg96
(dp422
I0
F30.0
sI1
F30.0
sI2
F30.0
sI3
F30.0
sI4
F30.0
sI5
F30.0
sI6
F30.0
sI7
F30.0
sI8
F30.0
sI9
F30.0
sI10
F30.0
sI11
F30.0
sI12
F30.0
sI13
F30.0
sI14
F30.0
ssg98
(dp423
I0
F0.003
sI1
F0.002
sI2
F0.002
sI3
F0.002
sI4
F0.002
sI5
F0.003
sI6
F0.003
sI7
F0.003
sI8
F0.002
sI9
F0.003
sI10
F0.003
sI11
F0.003
sI12
F0.003
sI13
F0.002
sI14
F0.003
ssg100
(dp424
I0
F0.002
sI1
F0.002
sI2
F0.002
sI3
F0.002
sI4
F0.002
sI5
F0.002
sI6
F0.002
sI7
F0.002
sI8
F0.002
sI9
F0.002
sI10
F0.002
sI11
F0.002
sI12
F0.002
sI13
F0.002
sI14
F0.002
ssg102
(dp425
I0
F-1.453466
sI1
F3.66752
sI2
F2.65661
sI3
F-2.871713
sI4
F-2.380402
sI5
F1.804805
sI6
F-2.906205
sI7
F1.73564
sI8
F-2.627494
sI9
F-1.477339
sI10
F-3.07295
sI11
F2.939772
sI12
F2.512607
sI13
F3.315599
sI14
F3.950168
ssg104
(dp426
I0
S"KIC8462852-20180805at075318_-25-1X1-030-g'_cal.fts.mag.1"
p427
sI1
S"KIC8462852-20180805at075421_-25-1X1-030-g'_cal.fts.mag.1"
p428
sI2
S"KIC8462852-20180805at081912_-25-1X1-030-g'_cal.fts.mag.1"
p429
sI3
S"KIC8462852-20180805at082016_-25-1X1-030-g'_cal.fts.mag.1"
p430
sI4
S"KIC8462852-20180805at075524_-25-1X1-030-g'_cal.fts.mag.1"
p431
sI5
S"KIC8462852-20180805at075101_-25-1X1-030-g'_cal.fts.mag.1"
p432
sI6
S"KIC8462852-20180805at084713_-25-1X1-030-g'_cal.fts.mag.1"
p433
sI7
S"KIC8462852-20180805at084919_-25-1X1-030-g'_cal.fts.mag.1"
p434
sI8
S"KIC8462852-20180805at082224_-25-1X1-030-g'_cal.fts.mag.1"
p435
sI9
S"KIC8462852-20180805at082119_-25-1X1-030-g'_cal.fts.mag.1"
p436
sI10
S"KIC8462852-20180805at075214_-25-1X1-030-g'_cal.fts.mag.1"
p437
sI11
S"KIC8462852-20180805at084500_-25-1X1-030-g'_cal.fts.mag.1"
p438
sI12
S"KIC8462852-20180805at084816_-25-1X1-030-g'_cal.fts.mag.1"
p439
sI13
S"KIC8462852-20180805at081803_-25-1X1-030-g'_cal.fts.mag.1"
p440
sI14
S"KIC8462852-20180805at084609_-25-1X1-030-g'_cal.fts.mag.1"
p441
ssg121
(dp442
I0
F0.00447957021575772
sI1
Fnan
sI2
Fnan
sI3
Fnan
sI4
Fnan
sI5
Fnan
sI6
Fnan
sI7
Fnan
sI8
Fnan
sI9
Fnan
sI10
Fnan
sI11
Fnan
sI12
Fnan
sI13
Fnan
sI14
Fnan
ssg123
(dp443
I0
F6299.756666666667
sI1
F6566.836666666667
sI2
F6651.683333333333
sI3
F6573.42
sI4
F6557.64
sI5
F6335.429999999999
sI6
F6116.223333333333
sI7
F5983.196666666667
sI8
F6531.036666666667
sI9
F6519.67
sI10
F6385.3099999999995
sI11
F6187.243333333333
sI12
F6023.64
sI13
F6683.193333333333
sI14
F6234.75
ssg125
(dp444
I0
F0.038194739104202735
sI1
Fnan
sI2
Fnan
sI3
Fnan
sI4
Fnan
sI5
Fnan
sI6
Fnan
sI7
Fnan
sI8
Fnan
sI9
Fnan
sI10
Fnan
sI11
Fnan
sI12
Fnan
sI13
Fnan
sI14
Fnan
ssg127
(dp445
I0
S"g'"
p446
sI1
S"g'"
p447
sI2
S"g'"
p448
sI3
S"g'"
p449
sI4
S"g'"
p450
sI5
S"g'"
p451
sI6
S"g'"
p452
sI7
S"g'"
p453
sI8
S"g'"
p454
sI9
S"g'"
p455
sI10
S"g'"
p456
sI11
S"g'"
p457
sI12
S"g'"
p458
sI13
S"g'"
p459
sI14
S"g'"
p460
ssg144
(dp461
I0
F0.0027009183672804006
sI1
Fnan
sI2
Fnan
sI3
Fnan
sI4
Fnan
sI5
Fnan
sI6
Fnan
sI7
Fnan
sI8
Fnan
sI9
Fnan
sI10
Fnan
sI11
Fnan
sI12
Fnan
sI13
Fnan
sI14
Fnan
ssg146
(dp462
I0
F-2.28032
sI1
F2.364324
sI2
F3.539109
sI3
F3.732863
sI4
F3.136503
sI5
F-2.542112
sI6
F2.592739
sI7
F2.5029
sI8
F2.437825
sI9
F3.901431
sI10
F0.7567444
sI11
F3.163387
sI12
F3.366063
sI13
F1.04303
sI14
F-1.593287
ssg148
(dp463
I0
F1.5139358617436287
sI1
Fnan
sI2
Fnan
sI3
Fnan
sI4
Fnan
sI5
Fnan
sI6
Fnan
sI7
Fnan
sI8
Fnan
sI9
Fnan
sI10
Fnan
sI11
Fnan
sI12
Fnan
sI13
Fnan
sI14
Fnan
ssg150
(dp464
I0
F2458335.8474074076
sI1
Fnan
sI2
Fnan
sI3
Fnan
sI4
Fnan
sI5
Fnan
sI6
Fnan
sI7
Fnan
sI8
Fnan
sI9
Fnan
sI10
Fnan
sI11
Fnan
sI12
Fnan
sI13
Fnan
sI14
Fnan
ssg152
(dp465
I0
F0.0027009183672804006
sI1
Fnan
sI2
Fnan
sI3
Fnan
sI4
Fnan
sI5
Fnan
sI6
Fnan
sI7
Fnan
sI8
Fnan
sI9
Fnan
sI10
Fnan
sI11
Fnan
sI12
Fnan
sI13
Fnan
sI14
Fnan
ssg154
(dp466
I0
F13.35938
sI1
F11.98705
sI2
F14.19305
sI3
F12.85001
sI4
F12.95515
sI5
F12.34779
sI6
F14.75533
sI7
F15.51258
sI8
F14.65415
sI9
F14.03669
sI10
F12.3964
sI11
F14.71141
sI12
F16.17497
sI13
F14.2466
sI14
F14.89966
ssg156
(dp467
I0
F11.063
sI1
F11.019
sI2
F11.006
sI3
F11.019
sI4
F11.02
sI5
F11.055
sI6
F11.096
sI7
F11.12
sI8
F11.033
sI9
F11.031
sI10
F11.057
sI11
F11.087
sI12
F11.109
sI13
F11.002
sI14
F11.076
ssg158
(dp468
I0
F0.864842336842895
sI1
Fnan
sI2
Fnan
sI3
Fnan
sI4
Fnan
sI5
Fnan
sI6
Fnan
sI7
Fnan
sI8
Fnan
sI9
Fnan
sI10
Fnan
sI11
Fnan
sI12
Fnan
sI13
Fnan
sI14
Fnan
sssS'V'
p469
(dp470
g3
(dp471
I0
F0.6900915570958186
sI1
Fnan
sI2
Fnan
sI3
Fnan
sI4
Fnan
sI5
Fnan
sI6
Fnan
sI7
Fnan
sI8
Fnan
sI9
Fnan
sI10
Fnan
sI11
Fnan
sI12
Fnan
sI13
Fnan
sI14
Fnan
ssg5
(dp472
I0
S'NoError'
p473
sI1
S'NoError'
p474
sI2
S'NoError'
p475
sI3
S'NoError'
p476
sI4
S'NoError'
p477
sI5
S'NoError'
p478
sI6
S'NoError'
p479
sI7
S'NoError'
p480
sI8
S'NoError'
p481
sI9
S'NoError'
p482
sI10
S'NoError'
p483
sI11
S'NoError'
p484
sI12
S'NoError'
p485
sI13
S'NoError'
p486
sI14
S'NoError'
p487
ssg22
(dp488
I0
F0.002
sI1
F0.002
sI2
F0.002
sI3
F0.002
sI4
F0.002
sI5
F0.002
sI6
F0.003
sI7
F0.003
sI8
F0.002
sI9
F0.003
sI10
F0.002
sI11
F0.003
sI12
F0.002
sI13
F0.002
sI14
F0.003
ssg24
(dp489
I0
F0.8884895957365121
sI1
F0.886681597735289
sI2
F0.8911121061902499
sI3
F0.8854536283413041
sI4
F0.8867704459661665
sI5
F0.8837292670526811
sI6
F0.8922988200446683
sI7
F0.8868033540762631
sI8
F0.8863234518644496
sI9
F0.88581619780889
sI10
F0.8886961622382348
sI11
F0.8908848366721647
sI12
F0.8836754079559818
sI13
F0.884780613236509
sI14
F0.884512303541342
ssg26
(dp490
I0
F0.0027046565429618926
sI1
Fnan
sI2
Fnan
sI3
Fnan
sI4
Fnan
sI5
Fnan
sI6
Fnan
sI7
Fnan
sI8
Fnan
sI9
Fnan
sI10
Fnan
sI11
Fnan
sI12
Fnan
sI13
Fnan
sI14
Fnan
ssg28
(dp491
I0
F0.8870685192307138
sI1
Fnan
sI2
Fnan
sI3
Fnan
sI4
Fnan
sI5
Fnan
sI6
Fnan
sI7
Fnan
sI8
Fnan
sI9
Fnan
sI10
Fnan
sI11
Fnan
sI12
Fnan
sI13
Fnan
sI14
Fnan
ssg30
(dp492
I0
F11.492
sI1
F11.497
sI2
F11.481
sI3
F11.468
sI4
F11.447
sI5
F11.488
sI6
F11.669
sI7
F11.684
sI8
F11.442
sI9
F11.681
sI10
F11.449
sI11
F11.688
sI12
F11.456
sI13
F11.446
sI14
F11.699
ssg32
(dp493
I0
F13.89411
sI1
F13.3978
sI2
F12.99613
sI3
F12.93893
sI4
F11.93572
sI5
F12.92221
sI6
F14.61116
sI7
F14.16781
sI8
F12.3544
sI9
F15.61571
sI10
F13.05689
sI11
F13.77798
sI12
F13.22688
sI13
F12.21414
sI14
F14.98153
ssg34
(dp494
I0
F2458335.8630324076
sI1
F2458335.863773148
sI2
F2458335.8622800927
sI3
F2458335.860787037
sI4
F2458335.842800926
sI5
F2458335.8615393518
sI6
F2458335.8810069445
sI7
F2458335.8817476854
sI8
F2458335.8443055553
sI9
F2458335.8802662035
sI10
F2458335.843553241
sI11
F2458335.882488426
sI12
F2458335.8450578703
sI13
F2458335.842060185
sI14
F2458335.879513889
ssg36
(dp495
I0
F1.16743
sI1
Fnan
sI2
Fnan
sI3
Fnan
sI4
Fnan
sI5
Fnan
sI6
Fnan
sI7
Fnan
sI8
Fnan
sI9
Fnan
sI10
Fnan
sI11
Fnan
sI12
Fnan
sI13
Fnan
sI14
Fnan
ssg38
(dp496
I0
F0.7267719333333333
sI1
Fnan
sI2
Fnan
sI3
Fnan
sI4
Fnan
sI5
Fnan
sI6
Fnan
sI7
Fnan
sI8
Fnan
sI9
Fnan
sI10
Fnan
sI11
Fnan
sI12
Fnan
sI13
Fnan
sI14
Fnan
ssg40
(dp497
I0
F0.6873825521745965
sI1
F0.6908394287535534
sI2
F0.6936964508691
sI3
F0.6927788552560337
sI4
F0.6906152453842264
sI5
F0.6910012875297349
sI6
F0.6946664381655554
sI7
F0.6898833874381768
sI8
F0.6912646291476389
sI9
F0.6900396258178936
sI10
F0.6920069269990586
sI11
F0.6856017816870549
sI12
F0.6872531420816961
sI13
F0.6877870332300667
sI14
F0.6866416775638661
ssg42
(dp498
I0
F0.0021407507539715365
sI1
Fnan
sI2
Fnan
sI3
Fnan
sI4
Fnan
sI5
Fnan
sI6
Fnan
sI7
Fnan
sI8
Fnan
sI9
Fnan
sI10
Fnan
sI11
Fnan
sI12
Fnan
sI13
Fnan
sI14
Fnan
ssg44
(dp499
I0
F2.0519238
sI1
Fnan
sI2
Fnan
sI3
Fnan
sI4
Fnan
sI5
Fnan
sI6
Fnan
sI7
Fnan
sI8
Fnan
sI9
Fnan
sI10
Fnan
sI11
Fnan
sI12
Fnan
sI13
Fnan
sI14
Fnan
ssg46
(dp500
I0
g473
sI1
g474
sI2
g475
sI3
g476
sI4
g477
sI5
g478
sI6
g479
sI7
g480
sI8
g481
sI9
g482
sI10
g483
sI11
g484
sI12
g485
sI13
g486
sI14
g487
ssg48
(dp501
I0
F0.002014208573361414
sI1
Fnan
sI2
Fnan
sI3
Fnan
sI4
Fnan
sI5
Fnan
sI6
Fnan
sI7
Fnan
sI8
Fnan
sI9
Fnan
sI10
Fnan
sI11
Fnan
sI12
Fnan
sI13
Fnan
sI14
Fnan
ssg50
(dp502
I0
F0.1063431104625828
sI1
Fnan
sI2
Fnan
sI3
Fnan
sI4
Fnan
sI5
Fnan
sI6
Fnan
sI7
Fnan
sI8
Fnan
sI9
Fnan
sI10
Fnan
sI11
Fnan
sI12
Fnan
sI13
Fnan
sI14
Fnan
ssg52
(dp503
I0
F1.2605292666666665
sI1
Fnan
sI2
Fnan
sI3
Fnan
sI4
Fnan
sI5
Fnan
sI6
Fnan
sI7
Fnan
sI8
Fnan
sI9
Fnan
sI10
Fnan
sI11
Fnan
sI12
Fnan
sI13
Fnan
sI14
Fnan
ssg54
(dp504
I0
F1.4951849778786848
sI1
F1.501371779420589
sI2
F1.5001232930632007
sI3
F1.504798991307648
sI4
F1.5023480233591666
sI5
F1.5062153097823645
sI6
F1.5024228241827362
sI7
F1.5045732680032153
sI8
F1.5016568224238651
sI9
F1.5103813543307085
sI10
F1.5008051687049693
sI11
F1.4994583818177067
sI12
F1.5059980354355258
sI13
F1.5097868666693908
sI14
F1.5080603772738694
ssg56
(dp505
I0
g473
sI1
g474
sI2
g475
sI3
g476
sI4
g477
sI5
g478
sI6
g479
sI7
g480
sI8
g481
sI9
g482
sI10
g483
sI11
g484
sI12
g485
sI13
g486
sI14
g487
ssg58
(dp506
I0
F13.692
sI1
F13.66242
sI2
F14.14444
sI3
F14.52342
sI4
F12.57454
sI5
F14.5275
sI6
F16.11995
sI7
F15.78866
sI8
F13.21767
sI9
F14.99431
sI10
F13.25546
sI11
F15.23497
sI12
F13.15335
sI13
F12.04935
sI14
F17.22377
ssg60
(dp507
I0
F10.862133333333334
sI1
Fnan
sI2
Fnan
sI3
Fnan
sI4
Fnan
sI5
Fnan
sI6
Fnan
sI7
Fnan
sI8
Fnan
sI9
Fnan
sI10
Fnan
sI11
Fnan
sI12
Fnan
sI13
Fnan
sI14
Fnan
ssg62
(dp508
I0
F0.7159011113722988
sI1
Fnan
sI2
Fnan
sI3
Fnan
sI4
Fnan
sI5
Fnan
sI6
Fnan
sI7
Fnan
sI8
Fnan
sI9
Fnan
sI10
Fnan
sI11
Fnan
sI12
Fnan
sI13
Fnan
sI14
Fnan
ssg64
(dp509
I0
F4.104446
sI1
F-1.561473
sI2
F-1.978817
sI3
F1.798676
sI4
F-4.328147
sI5
F3.959453
sI6
F-1.628967
sI7
F4.650445
sI8
F2.783258
sI9
F-3.389342
sI10
F4.632462
sI11
F3.117044
sI12
F-1.544132
sI13
F-1.994631
sI14
F2.281304
ssg66
(dp510
I0
F11.225
sI1
Fnan
sI2
Fnan
sI3
Fnan
sI4
Fnan
sI5
Fnan
sI6
Fnan
sI7
Fnan
sI8
Fnan
sI9
Fnan
sI10
Fnan
sI11
Fnan
sI12
Fnan
sI13
Fnan
sI14
Fnan
ssg68
(dp511
I0
g473
sI1
g474
sI2
g475
sI3
g476
sI4
g477
sI5
g478
sI6
g479
sI7
g480
sI8
g481
sI9
g482
sI10
g483
sI11
g484
sI12
g485
sI13
g486
sI14
g487
ssg70
(dp512
I0
F8531.413333333334
sI1
F8435.97
sI2
F8560.496666666666
sI3
F8633.723333333333
sI4
F8842.130000000001
sI5
F8488.47
sI6
F7194.746666666667
sI7
F7114.183333333333
sI8
F8871.833333333334
sI9
F7127.41
sI10
F8822.713333333335
sI11
F7154.7733333333335
sI12
F8786.533333333333
sI13
F8869.546666666667
sI14
F7035.66
ssg72
(dp513
I0
F1.078726
sI1
F1.080177
sI2
F1.077292
sI3
F1.074427
sI4
F1.045009
sI5
F1.0758459999999999
sI6
F1.118792
sI7
F1.120683
sI8
F1.0471270000000001
sI9
F1.116929
sI10
F1.0460559999999999
sI11
F1.122603
sI12
F1.048202
sI13
F1.04397
sI14
F1.1150950000000002
ssg74
(dp514
I0
F7339.403333333334
sI1
F7251.683333333333
sI2
F7309.55
sI3
F7421.386666666667
sI4
F7595.1
sI5
F7311.493333333333
sI6
F6122.3566666666675
sI7
F6102.113333333333
sI8
F7629.633333333333
sI9
F6101.756666666667
sI10
F7561.016666666666
sI11
F6114.1066666666675
sI12
F7569.933333333333
sI13
F7609.34
sI14
F6045.2
ssg76
(dp515
I0
F11864.903333333332
sI1
F11776.5
sI2
F11903.513333333334
sI3
F12079.856666666667
sI4
F12347.22
sI5
F11899.073333333334
sI6
F10003.96
sI7
F9942.443333333333
sI8
F12389.769999999999
sI9
F9990.543333333333
sI10
F12294.393333333333
sI11
F9948.066666666668
sI12
F12316.403333333332
sI13
F12439.803333333333
sI14
F9863.363333333335
ssg78
(dp516
I0
F13.36238
sI1
F14.03447
sI2
F13.98074
sI3
F13.89974
sI4
F13.49459
sI5
F12.42659
sI6
F14.81177
sI7
F14.16552
sI8
F12.18762
sI9
F15.41303
sI10
F12.6124
sI11
F15.01636
sI12
F12.90028
sI13
F12.40765
sI14
F15.60963
ssg80
(dp517
I0
F11.336
sI1
F11.349
sI2
F11.34
sI3
F11.324
sI4
F11.299
sI5
F11.34
sI6
F11.533
sI7
F11.536
sI8
F11.294
sI9
F11.536
sI10
F11.304
sI11
F11.534
sI12
F11.302
sI13
F11.297
sI14
F11.546
ssg82
(dp518
I0
F0.002
sI1
F0.002
sI2
F0.002
sI3
F0.002
sI4
F0.002
sI5
F0.002
sI6
F0.002
sI7
F0.002
sI8
F0.002
sI9
F0.002
sI10
F0.002
sI11
F0.002
sI12
F0.002
sI13
F0.002
sI14
F0.002
ssg84
(dp519
I0
F0.6900972308065502
sI1
Fnan
sI2
Fnan
sI3
Fnan
sI4
Fnan
sI5
Fnan
sI6
Fnan
sI7
Fnan
sI8
Fnan
sI9
Fnan
sI10
Fnan
sI11
Fnan
sI12
Fnan
sI13
Fnan
sI14
Fnan
ssg86
(dp520
I0
F11.391333333333332
sI1
Fnan
sI2
Fnan
sI3
Fnan
sI4
Fnan
sI5
Fnan
sI6
Fnan
sI7
Fnan
sI8
Fnan
sI9
Fnan
sI10
Fnan
sI11
Fnan
sI12
Fnan
sI13
Fnan
sI14
Fnan
ssg88
(dp521
I0
F11.172
sI1
F11.185
sI2
F11.169
sI3
F11.16
sI4
F11.134
sI5
F11.178
sI6
F11.357
sI7
F11.37
sI8
F11.13
sI9
F11.368
sI10
F11.136
sI11
F11.364
sI12
F11.14
sI13
F11.13
sI14
F11.382
ssg90
(dp522
I0
F-4.543767
sI1
F4.806356
sI2
F2.464208
sI3
F3.464011
sI4
F-2.119397
sI5
F-3.243891
sI6
F-3.236771
sI7
F2.988905
sI8
F3.633972
sI9
F3.569599
sI10
F-2.663729
sI11
F2.317066
sI12
F4.267296
sI13
F4.193845
sI14
F1.613747
ssg92
(dp523
I0
F0.10659929419939679
sI1
Fnan
sI2
Fnan
sI3
Fnan
sI4
Fnan
sI5
Fnan
sI6
Fnan
sI7
Fnan
sI8
Fnan
sI9
Fnan
sI10
Fnan
sI11
Fnan
sI12
Fnan
sI13
Fnan
sI14
Fnan
ssg94
(dp524
I0
F0.7196792884989855
sI1
F0.717545488832719
sI2
F0.7143810035276565
sI3
F0.7165720910307795
sI4
F0.7168789981759706
sI5
F0.7172510403820109
sI6
F0.7119554726208096
sI7
F0.7155123287371398
sI8
F0.7176912496878175
sI9
F0.7129072673407609
sI10
F0.7161034687201466
sI11
F0.7149814494746682
sI12
F0.7174293751533161
sI13
F0.7141785178806487
sI14
F0.7154496305210537
ssg96
(dp525
I0
F30.0
sI1
F30.0
sI2
F30.0
sI3
F30.0
sI4
F30.0
sI5
F30.0
sI6
F30.0
sI7
F30.0
sI8
F30.0
sI9
F30.0
sI10
F30.0
sI11
F30.0
sI12
F30.0
sI13
F30.0
sI14
F30.0
ssg98
(dp526
I0
F0.002
sI1
F0.002
sI2
F0.002
sI3
F0.002
sI4
F0.002
sI5
F0.002
sI6
F0.002
sI7
F0.002
sI8
F0.002
sI9
F0.002
sI10
F0.002
sI11
F0.002
sI12
F0.002
sI13
F0.002
sI14
F0.002
ssg100
(dp527
I0
F0.002
sI1
F0.002
sI2
F0.002
sI3
F0.002
sI4
F0.002
sI5
F0.002
sI6
F0.002
sI7
F0.002
sI8
F0.002
sI9
F0.002
sI10
F0.002
sI11
F0.002
sI12
F0.002
sI13
F0.002
sI14
F0.002
ssg102
(dp528
I0
F3.440853
sI1
F2.710125
sI2
F2.54997
sI3
F3.688066
sI4
F-3.00678
sI5
F3.887919
sI6
F-3.518758
sI7
F3.749671
sI8
F3.261716
sI9
F-2.327756
sI10
F-2.27926
sI11
F4.555638
sI12
F-2.834949
sI13
F3.87639
sI14
F1.155094
ssg104
(dp529
I0
S'KIC8462852-20180805at084246_-25-1X1-030-V_cal.fts.mag.1'
p530
sI1
S'KIC8462852-20180805at084350_-25-1X1-030-V_cal.fts.mag.1'
p531
sI2
S'KIC8462852-20180805at084141_-25-1X1-030-V_cal.fts.mag.1'
p532
sI3
S'KIC8462852-20180805at083924_-25-1X1-030-V_cal.fts.mag.1'
p533
sI4
S'KIC8462852-20180805at081338_-25-1X1-030-V_cal.fts.mag.1'
p534
sI5
S'KIC8462852-20180805at084037_-25-1X1-030-V_cal.fts.mag.1'
p535
sI6
S'KIC8462852-20180805at090839_-25-1X1-030-V_cal.fts.mag.1'
p536
sI7
S'KIC8462852-20180805at090943_-25-1X1-030-V_cal.fts.mag.1'
p537
sI8
S'KIC8462852-20180805at081548_-25-1X1-030-V_cal.fts.mag.1'
p538
sI9
S'KIC8462852-20180805at090735_-25-1X1-030-V_cal.fts.mag.1'
p539
sI10
S'KIC8462852-20180805at081443_-25-1X1-030-V_cal.fts.mag.1'
p540
sI11
S'KIC8462852-20180805at091047_-25-1X1-030-V_cal.fts.mag.1'
p541
sI12
S'KIC8462852-20180805at081653_-25-1X1-030-V_cal.fts.mag.1'
p542
sI13
S'KIC8462852-20180805at081227_-25-1X1-030-V_cal.fts.mag.1'
p543
sI14
S'KIC8462852-20180805at090623_-25-1X1-030-V_cal.fts.mag.1'
p544
ssg121
(dp545
I0
F0.004128717692197809
sI1
Fnan
sI2
Fnan
sI3
Fnan
sI4
Fnan
sI5
Fnan
sI6
Fnan
sI7
Fnan
sI8
Fnan
sI9
Fnan
sI10
Fnan
sI11
Fnan
sI12
Fnan
sI13
Fnan
sI14
Fnan
ssg123
(dp546
I0
F6355.016666666666
sI1
F6324.4400000000005
sI2
F6422.14
sI3
F6497.1033333333335
sI4
F6626.326666666666
sI5
F6380.0233333333335
sI6
F5400.12
sI7
F5325.61
sI8
F6657.163333333333
sI9
F5340.84
sI10
F6615.153333333334
sI11
F5305.86
sI12
F6568.506666666667
sI13
F6629.966666666666
sI14
F5251.486666666667
ssg125
(dp547
I0
F0.10802292525641188
sI1
Fnan
sI2
Fnan
sI3
Fnan
sI4
Fnan
sI5
Fnan
sI6
Fnan
sI7
Fnan
sI8
Fnan
sI9
Fnan
sI10
Fnan
sI11
Fnan
sI12
Fnan
sI13
Fnan
sI14
Fnan
ssg127
(dp548
I0
g469
sI1
g469
sI2
g469
sI3
g469
sI4
g469
sI5
g469
sI6
g469
sI7
g469
sI8
g469
sI9
g469
sI10
g469
sI11
g469
sI12
g469
sI13
g469
sI14
g469
ssg144
(dp549
I0
F0.0026814670349943536
sI1
Fnan
sI2
Fnan
sI3
Fnan
sI4
Fnan
sI5
Fnan
sI6
Fnan
sI7
Fnan
sI8
Fnan
sI9
Fnan
sI10
Fnan
sI11
Fnan
sI12
Fnan
sI13
Fnan
sI14
Fnan
ssg146
(dp550
I0
F-3.421969
sI1
F2.785571
sI2
F3.748853
sI3
F3.108805
sI4
F4.585761
sI5
F2.489101
sI6
F4.481956
sI7
F3.474014
sI8
F1.853323
sI9
F-2.797073
sI10
F1.940408
sI11
F4.436695
sI12
F-1.356573
sI13
F2.676622
sI14
F2.773363
ssg148
(dp551
I0
F1.5035456982435755
sI1
Fnan
sI2
Fnan
sI3
Fnan
sI4
Fnan
sI5
Fnan
sI6
Fnan
sI7
Fnan
sI8
Fnan
sI9
Fnan
sI10
Fnan
sI11
Fnan
sI12
Fnan
sI13
Fnan
sI14
Fnan
ssg150
(dp552
I0
F2458335.8622800927
sI1
Fnan
sI2
Fnan
sI3
Fnan
sI4
Fnan
sI5
Fnan
sI6
Fnan
sI7
Fnan
sI8
Fnan
sI9
Fnan
sI10
Fnan
sI11
Fnan
sI12
Fnan
sI13
Fnan
sI14
Fnan
ssg152
(dp553
I0
F0.0026814670349943536
sI1
Fnan
sI2
Fnan
sI3
Fnan
sI4
Fnan
sI5
Fnan
sI6
Fnan
sI7
Fnan
sI8
Fnan
sI9
Fnan
sI10
Fnan
sI11
Fnan
sI12
Fnan
sI13
Fnan
sI14
Fnan
ssg154
(dp554
I0
F16.1389
sI1
F14.00307
sI2
F15.683
sI3
F14.72682
sI4
F14.94367
sI5
F16.678
sI6
F16.53129
sI7
F17.03285
sI8
F12.93235
sI9
F17.04735
sI10
F13.83194
sI11
F17.59267
sI12
F14.32094
sI13
F14.3525
sI14
F17.62475
ssg156
(dp555
I0
F10.814
sI1
F10.822
sI2
F10.811
sI3
F10.795
sI4
F10.771
sI5
F10.811
sI6
F11.0
sI7
F11.006
sI8
F10.767
sI9
F11.001
sI10
F10.776
sI11
F11.006
sI12
F10.774
sI13
F10.763
sI14
F11.015
ssg158
(dp556
I0
F0.6900972308065502
sI1
Fnan
sI2
Fnan
sI3
Fnan
sI4
Fnan
sI5
Fnan
sI6
Fnan
sI7
Fnan
sI8
Fnan
sI9
Fnan
sI10
Fnan
sI11
Fnan
sI12
Fnan
sI13
Fnan
sI14
Fnan
sss.