(dp0
S'V'
p1
(dp2
S'sigmean'
p3
(dp4
I0
F0.6940056717605705
sI1
Fnan
sI2
Fnan
sI3
Fnan
sI4
Fnan
sI5
Fnan
sI6
Fnan
sI7
Fnan
sI8
Fnan
sI9
Fnan
sI10
Fnan
sI11
Fnan
sI12
Fnan
sI13
Fnan
sI14
Fnan
ssS'ref3flag'
p5
(dp6
I0
S'NoError'
p7
sI1
S'NoError'
p8
sI2
S'NoError'
p9
sI3
S'NoError'
p10
sI4
S'NoError'
p11
sI5
S'NoError'
p12
sI6
S'NoError'
p13
sI7
S'NoError'
p14
sI8
S'NoError'
p15
sI9
S'NoError'
p16
sI10
S'NoError'
p17
sI11
S'NoError'
p18
sI12
S'NoError'
p19
sI13
S'NoError'
p20
sI14
S'NoError'
p21
ssS'tabbyerr'
p22
(dp23
I0
F0.003
sI1
F0.003
sI2
F0.003
sI3
F0.003
sI4
F0.003
sI5
F0.003
sI6
F0.003
sI7
F0.003
sI8
F0.003
sI9
F0.003
sI10
F0.003
sI11
F0.003
sI12
F0.003
sI13
F0.003
sI14
F0.003
ssS'ref2rel'
p24
(dp25
I0
F0.8857309899607133
sI1
F0.8865246824683639
sI2
F0.8833359503936223
sI3
F0.8852297534070427
sI4
F0.8835530047742624
sI5
F0.8858094666395464
sI6
F0.885560283047966
sI7
F0.8919730363039766
sI8
F0.8827334664766411
sI9
F0.8902353163587156
sI10
F0.8850939531986768
sI11
F0.8906199372106769
sI12
F0.8850475529002633
sI13
F0.882612671737657
sI14
F0.8853117372750199
ssS'ref2err'
p26
(dp27
I0
F0.0028477325820959356
sI1
Fnan
sI2
Fnan
sI3
Fnan
sI4
Fnan
sI5
Fnan
sI6
Fnan
sI7
Fnan
sI8
Fnan
sI9
Fnan
sI10
Fnan
sI11
Fnan
sI12
Fnan
sI13
Fnan
sI14
Fnan
ssS'ref2mean'
p28
(dp29
I0
F0.8859581201435429
sI1
Fnan
sI2
Fnan
sI3
Fnan
sI4
Fnan
sI5
Fnan
sI6
Fnan
sI7
Fnan
sI8
Fnan
sI9
Fnan
sI10
Fnan
sI11
Fnan
sI12
Fnan
sI13
Fnan
sI14
Fnan
ssS'tabbymag'
p30
(dp31
I0
F11.644
sI1
F11.656
sI2
F11.671
sI3
F11.693
sI4
F11.642
sI5
F11.673
sI6
F11.605
sI7
F11.666
sI8
F11.619
sI9
F11.64
sI10
F11.64
sI11
F11.607
sI12
F11.652
sI13
F11.709
sI14
F11.653
ssS'tabbybkg'
p32
(dp33
I0
F10.35471
sI1
F11.03878
sI2
F11.21754
sI3
F10.49632
sI4
F10.24808
sI5
F10.3698
sI6
F10.74687
sI7
F10.29165
sI8
F11.17849
sI9
F11.67371
sI10
F10.33448
sI11
F11.53024
sI12
F10.67011
sI13
F11.21079
sI14
F10.65535
ssS'JD'
p34
(dp35
I0
F2458608.8927662037
sI1
F2458608.9210416665
sI2
F2458608.9216550924
sI3
F2458608.919803241
sI4
F2458608.892141204
sI5
F2458608.8903125
sI6
F2458608.9075
sI7
F2458608.890925926
sI8
F2458608.906886574
sI9
F2458608.906273148
sI10
F2458608.891527778
sI11
F2458608.9050462963
sI12
F2458608.9222569442
sI13
F2458608.9204398147
sI14
F2458608.905671296
ssS'ref3rmsmean'
p36
(dp37
I0
F1.0888182799999997
sI1
Fnan
sI2
Fnan
sI3
Fnan
sI4
Fnan
sI5
Fnan
sI6
Fnan
sI7
Fnan
sI8
Fnan
sI9
Fnan
sI10
Fnan
sI11
Fnan
sI12
Fnan
sI13
Fnan
sI14
Fnan
ssS'ref1rmsmean'
p38
(dp39
I0
F1.1200900000000003
sI1
Fnan
sI2
Fnan
sI3
Fnan
sI4
Fnan
sI5
Fnan
sI6
Fnan
sI7
Fnan
sI8
Fnan
sI9
Fnan
sI10
Fnan
sI11
Fnan
sI12
Fnan
sI13
Fnan
sI14
Fnan
ssS'relflux'
p40
(dp41
I0
F0.6941062005456522
sI1
F0.6877951506594626
sI2
F0.6878738649941323
sI3
F0.6935622535415853
sI4
F0.6899540332270303
sI5
F0.6936833790187479
sI6
F0.6946665187544152
sI7
F0.6934540804872907
sI8
F0.692283277008857
sI9
F0.6876561653763537
sI10
F0.6977513267277171
sI11
F0.6951325939691217
sI12
F0.69568691469308
sI13
F0.6992439075550273
sI14
F0.6937818113927784
ssS'sigerr'
p42
(dp43
I0
F0.0018735130975507644
sI1
Fnan
sI2
Fnan
sI3
Fnan
sI4
Fnan
sI5
Fnan
sI6
Fnan
sI7
Fnan
sI8
Fnan
sI9
Fnan
sI10
Fnan
sI11
Fnan
sI12
Fnan
sI13
Fnan
sI14
Fnan
ssS'tabbyrmsmean'
p44
(dp45
I0
F0.2508019999999999
sI1
Fnan
sI2
Fnan
sI3
Fnan
sI4
Fnan
sI5
Fnan
sI6
Fnan
sI7
Fnan
sI8
Fnan
sI9
Fnan
sI10
Fnan
sI11
Fnan
sI12
Fnan
sI13
Fnan
sI14
Fnan
ssS'tabbyflag'
p46
(dp47
I0
g7
sI1
g8
sI2
g9
sI3
g10
sI4
g11
sI5
g12
sI6
g13
sI7
g14
sI8
g15
sI9
g16
sI10
g17
sI11
g18
sI12
g19
sI13
g20
sI14
g21
ssS'ref1err'
p48
(dp49
I0
F0.002085892731469833
sI1
Fnan
sI2
Fnan
sI3
Fnan
sI4
Fnan
sI5
Fnan
sI6
Fnan
sI7
Fnan
sI8
Fnan
sI9
Fnan
sI10
Fnan
sI11
Fnan
sI12
Fnan
sI13
Fnan
sI14
Fnan
ssS'ref2magmeanerr'
p50
(dp51
I0
F0.03079811373321118
sI1
Fnan
sI2
Fnan
sI3
Fnan
sI4
Fnan
sI5
Fnan
sI6
Fnan
sI7
Fnan
sI8
Fnan
sI9
Fnan
sI10
Fnan
sI11
Fnan
sI12
Fnan
sI13
Fnan
sI14
Fnan
ssS'ref2rmsmean'
p52
(dp53
I0
F1.9339802
sI1
Fnan
sI2
Fnan
sI3
Fnan
sI4
Fnan
sI5
Fnan
sI6
Fnan
sI7
Fnan
sI8
Fnan
sI9
Fnan
sI10
Fnan
sI11
Fnan
sI12
Fnan
sI13
Fnan
sI14
Fnan
ssS'ref3rel'
p54
(dp55
I0
F1.5054099825997216
sI1
F1.5087689180231054
sI2
F1.5168007732679896
sI3
F1.5085264943655166
sI4
F1.511325947305807
sI5
F1.5061390808393722
sI6
F1.5031076166769881
sI7
F1.5034523731498646
sI8
F1.5092283086250105
sI9
F1.505678798268096
sI10
F1.5078694141726459
sI11
F1.5035457469371725
sI12
F1.5149959188627808
sI13
F1.5092161878831345
sI14
F1.5088900737054642
ssS'ref1flag'
p56
(dp57
I0
g7
sI1
g8
sI2
g9
sI3
g10
sI4
g11
sI5
g12
sI6
g13
sI7
g14
sI8
g15
sI9
g16
sI10
g17
sI11
g18
sI12
g19
sI13
g20
sI14
g21
ssS'ref2bkg'
p58
(dp59
I0
F11.76839
sI1
F9.818715
sI2
F12.11571
sI3
F12.32448
sI4
F10.36787
sI5
F10.99599
sI6
F11.43042
sI7
F10.31182
sI8
F11.83236
sI9
F11.28541
sI10
F10.64508
sI11
F11.00441
sI12
F11.83628
sI13
F11.85185
sI14
F11.00797
ssS'ref3magmean'
p60
(dp61
I0
F10.977133333333333
sI1
Fnan
sI2
Fnan
sI3
Fnan
sI4
Fnan
sI5
Fnan
sI6
Fnan
sI7
Fnan
sI8
Fnan
sI9
Fnan
sI10
Fnan
sI11
Fnan
sI12
Fnan
sI13
Fnan
sI14
Fnan
ssS'ref1mean'
p62
(dp63
I0
F0.7140941021815916
sI1
Fnan
sI2
Fnan
sI3
Fnan
sI4
Fnan
sI5
Fnan
sI6
Fnan
sI7
Fnan
sI8
Fnan
sI9
Fnan
sI10
Fnan
sI11
Fnan
sI12
Fnan
sI13
Fnan
sI14
Fnan
ssS'ref1rms'
p64
(dp65
I0
F4.362208
sI1
F-2.896469
sI2
F3.356609
sI3
F2.445408
sI4
F-2.585662
sI5
F-3.293313
sI6
F2.360995
sI7
F2.739061
sI8
F1.164627
sI9
F3.554444
sI10
F-1.9413
sI11
F3.778522
sI12
F-1.582427
sI13
F1.896565
sI14
F3.442082
ssS'ref2magmean'
p66
(dp67
I0
F11.342666666666668
sI1
Fnan
sI2
Fnan
sI3
Fnan
sI4
Fnan
sI5
Fnan
sI6
Fnan
sI7
Fnan
sI8
Fnan
sI9
Fnan
sI10
Fnan
sI11
Fnan
sI12
Fnan
sI13
Fnan
sI14
Fnan
ssS'ref2flag'
p68
(dp69
I0
g7
sI1
g8
sI2
g9
sI3
g10
sI4
g11
sI5
g12
sI6
g13
sI7
g14
sI8
g15
sI9
g16
sI10
g17
sI11
g18
sI12
g19
sI13
g20
sI14
g21
ssS'ref2'
p70
(dp71
I0
F7332.503333333333
sI1
F7323.453333333334
sI2
F7200.636666666667
sI3
F7012.636666666667
sI4
F7375.183333333333
sI5
F7142.14
sI6
F7589.29
sI7
F7226.77
sI8
F7505.84
sI9
F7455.943333333333
sI10
F7313.67
sI11
F7604.653333333334
sI12
F7254.9
sI13
F6836.35
sI14
F7269.626666666666
ssS'airmass'
p72
(dp73
I0
F1.26995
sI1
F1.1647450000000001
sI2
F1.162873
sI3
F1.168619
sI4
F1.27263
sI5
F1.280865
sI6
F1.210651
sI7
F1.278134
sI8
F1.212897
sI9
F1.215176
sI10
F1.275417
sI11
F1.219771
sI12
F1.16098
sI13
F1.166666
sI14
F1.217471
ssS'ref1'
p74
(dp75
I0
F6297.546666666666
sI1
F6268.303333333333
sI2
F6166.009999999999
sI3
F6016.36
sI4
F6334.486666666667
sI5
F6130.4766666666665
sI6
F6529.246666666667
sI7
F6149.053333333333
sI8
F6464.036666666667
sI9
F6353.903333333334
sI10
F6278.616666666667
sI11
F6484.996666666667
sI12
F6201.316666666667
sI13
F5888.723333333333
sI14
F6234.573333333334
ssS'ref3'
p76
(dp77
I0
F10259.406666666668
sI1
F10253.41
sI2
F10137.269999999999
sI3
F9827.293333333333
sI4
F10359.890000000001
sI5
F9995.203333333333
sI6
F10610.84
sI7
F10054.956666666667
sI8
F10541.866666666667
sI9
F10396.596666666668
sI10
F10247.696666666667
sI11
F10592.216666666667
sI12
F10193.056666666667
sI13
F9602.443333333333
sI14
F10188.176666666666
ssS'ref1bkg'
p78
(dp79
I0
F10.31279
sI1
F11.0501
sI2
F11.0631
sI3
F12.08523
sI4
F10.82673
sI5
F11.83948
sI6
F11.07791
sI7
F10.55796
sI8
F11.14874
sI9
F10.95721
sI10
F10.72593
sI11
F10.56795
sI12
F11.22112
sI13
F11.96546
sI14
F10.65027
ssS'ref1mag'
p80
(dp81
I0
F11.502
sI1
F11.507
sI2
F11.525
sI3
F11.552
sI4
F11.496
sI5
F11.531
sI6
F11.463
sI7
F11.528
sI8
F11.474
sI9
F11.492
sI10
F11.505
sI11
F11.47
sI12
F11.519
sI13
F11.575
sI14
F11.513
ssS'ref3magerr'
p82
(dp83
I0
F0.002
sI1
F0.002
sI2
F0.002
sI3
F0.002
sI4
F0.002
sI5
F0.002
sI6
F0.002
sI7
F0.002
sI8
F0.002
sI9
F0.002
sI10
F0.002
sI11
F0.002
sI12
F0.002
sI13
F0.002
sI14
F0.002
ssS'tabbymagmean'
p84
(dp85
I0
F11.651333333333332
sI1
Fnan
sI2
Fnan
sI3
Fnan
sI4
Fnan
sI5
Fnan
sI6
Fnan
sI7
Fnan
sI8
Fnan
sI9
Fnan
sI10
Fnan
sI11
Fnan
sI12
Fnan
sI13
Fnan
sI14
Fnan
ssS'ref1magmean'
p86
(dp87
I0
F11.510133333333334
sI1
Fnan
sI2
Fnan
sI3
Fnan
sI4
Fnan
sI5
Fnan
sI6
Fnan
sI7
Fnan
sI8
Fnan
sI9
Fnan
sI10
Fnan
sI11
Fnan
sI12
Fnan
sI13
Fnan
sI14
Fnan
ssS'ref2mag'
p88
(dp89
I0
F11.337
sI1
F11.338
sI2
F11.357
sI3
F11.385
sI4
F11.331
sI5
F11.365
sI6
F11.299
sI7
F11.353
sI8
F11.312
sI9
F11.319
sI10
F11.34
sI11
F11.297
sI12
F11.348
sI13
F11.413
sI14
F11.346
ssS'ref3rms'
p90
(dp91
I0
F-2.081303
sI1
F-3.394958
sI2
F-2.5687
sI3
F3.42949
sI4
F3.057526
sI5
F-1.110575
sI6
F2.534566
sI7
F3.622105
sI8
F0.9370232
sI9
F3.454816
sI10
F2.666987
sI11
F1.445312
sI12
F-3.20026
sI13
F4.564665
sI14
F2.97558
ssS'ref3magmeanerr'
p92
(dp93
I0
F0.02951480661505018
sI1
Fnan
sI2
Fnan
sI3
Fnan
sI4
Fnan
sI5
Fnan
sI6
Fnan
sI7
Fnan
sI8
Fnan
sI9
Fnan
sI10
Fnan
sI11
Fnan
sI12
Fnan
sI13
Fnan
sI14
Fnan
ssS'ref1rel'
p94
(dp95
I0
F0.7159594002773623
sI1
F0.7132448167183413
sI2
F0.7112750251279855
sI3
F0.7145350366658293
sI4
F0.714345697658989
sI5
F0.7154523950911877
sI6
F0.717494508738857
sI7
F0.7116248800756405
sI8
F0.7163277624193065
sI9
F0.7118206522246507
sI10
F0.7150487528495314
sI11
F0.7127595753189055
sI12
F0.710835862919574
sI13
F0.7164422855043293
sI14
F0.7142448811333844
ssS'exposure'
p96
(dp97
I0
F30.0
sI1
F30.0
sI2
F30.0
sI3
F30.0
sI4
F30.0
sI5
F30.0
sI6
F30.0
sI7
F30.0
sI8
F30.0
sI9
F30.0
sI10
F30.0
sI11
F30.0
sI12
F30.0
sI13
F30.0
sI14
F30.0
ssS'ref1magerr'
p98
(dp99
I0
F0.002
sI1
F0.002
sI2
F0.002
sI3
F0.002
sI4
F0.002
sI5
F0.002
sI6
F0.002
sI7
F0.002
sI8
F0.002
sI9
F0.002
sI10
F0.002
sI11
F0.002
sI12
F0.002
sI13
F0.002
sI14
F0.002
ssS'ref2magerr'
p100
(dp101
I0
F0.002
sI1
F0.002
sI2
F0.002
sI3
F0.002
sI4
F0.002
sI5
F0.002
sI6
F0.002
sI7
F0.002
sI8
F0.002
sI9
F0.002
sI10
F0.002
sI11
F0.002
sI12
F0.002
sI13
F0.002
sI14
F0.002
ssS'ref2rms'
p102
(dp103
I0
F3.509169
sI1
F3.338489
sI2
F-4.196329
sI3
F2.304053
sI4
F3.093292
sI5
F3.001623
sI6
F-1.781548
sI7
F3.11663
sI8
F-1.696924
sI9
F3.120427
sI10
F1.68853
sI11
F2.62388
sI12
F2.939743
sI13
F4.261252
sI14
F3.687416
ssS'name'
p104
(dp105
I0
S'KIC8462852-20190505at092535_-25-1X1-030-V.fts.mag.1'
p106
sI1
S'KIC8462852-20190505at100618_-25-1X1-030-V.fts.mag.1'
p107
sI2
S'KIC8462852-20190505at100711_-25-1X1-030-V.fts.mag.1'
p108
sI3
S'KIC8462852-20190505at100425_-25-1X1-030-V.fts.mag.1'
p109
sI4
S'KIC8462852-20190505at092441_-25-1X1-030-V.fts.mag.1'
p110
sI5
S'KIC8462852-20190505at092157_-25-1X1-030-V.fts.mag.1'
p111
sI6
S'KIC8462852-20190505at094648_-25-1X1-030-V.fts.mag.1'
p112
sI7
S'KIC8462852-20190505at092256_-25-1X1-030-V.fts.mag.1'
p113
sI8
S'KIC8462852-20190505at094555_-25-1X1-030-V.fts.mag.1'
p114
sI9
S'KIC8462852-20190505at094502_-25-1X1-030-V.fts.mag.1'
p115
sI10
S'KIC8462852-20190505at092348_-25-1X1-030-V.fts.mag.1'
p116
sI11
S'KIC8462852-20190505at094310_-25-1X1-030-V.fts.mag.1'
p117
sI12
S'KIC8462852-20190505at100803_-25-1X1-030-V.fts.mag.1'
p118
sI13
S'KIC8462852-20190505at100526_-25-1X1-030-V.fts.mag.1'
p119
sI14
S'KIC8462852-20190505at094410_-25-1X1-030-V.fts.mag.1'
p120
ssS'ref3err'
p121
(dp122
I0
F0.003978132045658647
sI1
Fnan
sI2
Fnan
sI3
Fnan
sI4
Fnan
sI5
Fnan
sI6
Fnan
sI7
Fnan
sI8
Fnan
sI9
Fnan
sI10
Fnan
sI11
Fnan
sI12
Fnan
sI13
Fnan
sI14
Fnan
ssS'tabby'
p123
(dp124
I0
F5527.2733333333335
sI1
F5466.863333333333
sI2
F5389.243333333333
sI3
F5284.086666666667
sI4
F5535.63
sI5
F5380.166666666667
sI6
F5726.223333333333
sI7
F5416.056666666667
sI8
F5656.3566666666675
sI9
F5548.570000000001
sI10
F5544.793333333333
sI11
F5719.056666666667
sI12
F5484.163333333333
sI13
F5204.126666666666
sI14
F5479.113333333333
ssS'ref1magmeanerr'
p125
(dp126
I0
F0.030227392181516904
sI1
Fnan
sI2
Fnan
sI3
Fnan
sI4
Fnan
sI5
Fnan
sI6
Fnan
sI7
Fnan
sI8
Fnan
sI9
Fnan
sI10
Fnan
sI11
Fnan
sI12
Fnan
sI13
Fnan
sI14
Fnan
ssS'filter'
p127
(dp128
I0
g1
sI1
g1
sI2
g1
sI3
g1
sI4
g1
sI5
g1
sI6
g1
sI7
g1
sI8
g1
sI9
g1
sI10
g1
sI11
g1
sI12
g1
sI13
g1
sI14
g1
ssS'tabbymagerr'
p129
(dp130
I0
F0.028925190866555442
sI1
Fnan
sI2
Fnan
sI3
Fnan
sI4
Fnan
sI5
Fnan
sI6
Fnan
sI7
Fnan
sI8
Fnan
sI9
Fnan
sI10
Fnan
sI11
Fnan
sI12
Fnan
sI13
Fnan
sI14
Fnan
ssS'tabbyrms'
p131
(dp132
I0
F1.979672
sI1
F-1.523478
sI2
F-1.793894
sI3
F3.693408
sI4
F3.816385
sI5
F-1.443889
sI6
F-2.32444
sI7
F3.097763
sI8
F2.790391
sI9
F-2.89271
sI10
F3.42948
sI11
F-1.877278
sI12
F3.015486
sI13
F-3.013496
sI14
F-3.19137
ssS'ref3mean'
p133
(dp134
I0
F1.508197042312178
sI1
Fnan
sI2
Fnan
sI3
Fnan
sI4
Fnan
sI5
Fnan
sI6
Fnan
sI7
Fnan
sI8
Fnan
sI9
Fnan
sI10
Fnan
sI11
Fnan
sI12
Fnan
sI13
Fnan
sI14
Fnan
ssS'median_JD'
p135
(dp136
I0
F2458608.906273148
sI1
Fnan
sI2
Fnan
sI3
Fnan
sI4
Fnan
sI5
Fnan
sI6
Fnan
sI7
Fnan
sI8
Fnan
sI9
Fnan
sI10
Fnan
sI11
Fnan
sI12
Fnan
sI13
Fnan
sI14
Fnan
ssS'error'
p137
(dp138
I0
F0.0034894628727075105
sI1
Fnan
sI2
Fnan
sI3
Fnan
sI4
Fnan
sI5
Fnan
sI6
Fnan
sI7
Fnan
sI8
Fnan
sI9
Fnan
sI10
Fnan
sI11
Fnan
sI12
Fnan
sI13
Fnan
sI14
Fnan
ssS'ref3bkg'
p139
(dp140
I0
F11.72878
sI1
F12.28925
sI2
F11.71063
sI3
F12.64828
sI4
F11.70178
sI5
F12.64067
sI6
F11.70428
sI7
F12.39046
sI8
F12.00829
sI9
F12.15753
sI10
F12.15967
sI11
F12.30614
sI12
F13.31326
sI13
F13.3813
sI14
F12.51932
ssS'ref3mag'
p141
(dp142
I0
F10.972
sI1
F10.973
sI2
F10.985
sI3
F11.019
sI4
F10.962
sI5
F11.001
sI6
F10.936
sI7
F10.994
sI8
F10.943
sI9
F10.958
sI10
F10.973
sI11
F10.938
sI12
F10.979
sI13
F11.044
sI14
F10.98
ssS'mean'
p143
(dp144
I0
F0.6931087651967501
sI1
Fnan
sI2
Fnan
sI3
Fnan
sI4
Fnan
sI5
Fnan
sI6
Fnan
sI7
Fnan
sI8
Fnan
sI9
Fnan
sI10
Fnan
sI11
Fnan
sI12
Fnan
sI13
Fnan
sI14
Fnan
sss.