(dp0
S'i'
p1
(dp2
S'sigmean'
p3
(dp4
I0
F0.43836937540488774
sI1
Fnan
sI2
Fnan
sI3
Fnan
sI4
Fnan
sI5
Fnan
sI6
Fnan
sI7
Fnan
sI8
Fnan
sI9
Fnan
sI10
Fnan
sI11
Fnan
sI12
Fnan
sI13
Fnan
sI14
Fnan
ssS'ref3flag'
p5
(dp6
I0
S'NoError'
p7
sI1
S'NoError'
p8
sI2
S'NoError'
p9
sI3
S'NoError'
p10
sI4
S'NoError'
p11
sI5
S'NoError'
p12
sI6
S'NoError'
p13
sI7
S'NoError'
p14
sI8
S'NoError'
p15
sI9
S'NoError'
p16
sI10
S'NoError'
p17
sI11
S'NoError'
p18
sI12
S'NoError'
p19
sI13
S'NoError'
p20
sI14
S'NoError'
p21
ssS'tabbyerr'
p22
(dp23
I0
F0.003
sI1
F0.003
sI2
F0.003
sI3
F0.003
sI4
F0.003
sI5
F0.003
sI6
F0.003
sI7
F0.003
sI8
F0.003
sI9
F0.003
sI10
F0.003
sI11
F0.003
sI12
F0.003
sI13
F0.003
sI14
F0.003
ssS'ref2rel'
p24
(dp25
I0
F0.9085804615355338
sI1
F0.9109634207961258
sI2
F0.9152180958390292
sI3
F0.9095570515127379
sI4
F0.9132128390114991
sI5
F0.9021612911578472
sI6
F0.9121022409353999
sI7
F0.9128568860018521
sI8
F0.9060077953727532
sI9
F0.9109022570925597
sI10
F0.9124352461442291
sI11
F0.904322646878846
sI12
F0.9122753220968985
sI13
F0.9109255122595306
sI14
F0.9126039044437474
ssS'ref2err'
p26
(dp27
I0
F0.003598720534264148
sI1
Fnan
sI2
Fnan
sI3
Fnan
sI4
Fnan
sI5
Fnan
sI6
Fnan
sI7
Fnan
sI8
Fnan
sI9
Fnan
sI10
Fnan
sI11
Fnan
sI12
Fnan
sI13
Fnan
sI14
Fnan
ssS'ref2mean'
p28
(dp29
I0
F0.9102749980719059
sI1
Fnan
sI2
Fnan
sI3
Fnan
sI4
Fnan
sI5
Fnan
sI6
Fnan
sI7
Fnan
sI8
Fnan
sI9
Fnan
sI10
Fnan
sI11
Fnan
sI12
Fnan
sI13
Fnan
sI14
Fnan
ssS'tabbymag'
p30
(dp31
I0
F11.956
sI1
F11.87
sI2
F11.881
sI3
F11.972
sI4
F11.849
sI5
F11.923
sI6
F11.849
sI7
F11.857
sI8
F11.966
sI9
F11.885
sI10
F11.954
sI11
F11.889
sI12
F11.85
sI13
F11.92
sI14
F11.904
ssS'tabbybkg'
p32
(dp33
I0
F14.85346
sI1
F12.8826
sI2
F13.01871
sI3
F13.96325
sI4
F13.89245
sI5
F13.18295
sI6
F13.62359
sI7
F13.93546
sI8
F15.72641
sI9
F13.78081
sI10
F15.20683
sI11
F13.89952
sI12
F12.3502
sI13
F14.58372
sI14
F13.58767
ssS'JD'
p34
(dp35
I0
F2458374.7137152776
sI1
F2458374.6935069445
sI2
F2458374.696458333
sI3
F2458374.676238426
sI4
F2458374.6942476854
sI5
F2458374.6769791665
sI6
F2458374.7122453703
sI7
F2458374.6957175927
sI8
F2458374.6747685187
sI9
F2458374.6777199074
sI10
F2458374.7151967594
sI11
F2458374.675497685
sI12
F2458374.694988426
sI13
F2458374.7144560185
sI14
F2458374.712974537
ssS'ref3rmsmean'
p36
(dp37
I0
F2.7364659999999996
sI1
Fnan
sI2
Fnan
sI3
Fnan
sI4
Fnan
sI5
Fnan
sI6
Fnan
sI7
Fnan
sI8
Fnan
sI9
Fnan
sI10
Fnan
sI11
Fnan
sI12
Fnan
sI13
Fnan
sI14
Fnan
ssS'ref1rmsmean'
p38
(dp39
I0
F1.4929088666666668
sI1
Fnan
sI2
Fnan
sI3
Fnan
sI4
Fnan
sI5
Fnan
sI6
Fnan
sI7
Fnan
sI8
Fnan
sI9
Fnan
sI10
Fnan
sI11
Fnan
sI12
Fnan
sI13
Fnan
sI14
Fnan
ssS'relflux'
p40
(dp41
I0
F0.43586566163293056
sI1
F0.44024913880593736
sI2
F0.43651700743269123
sI3
F0.4308636955793846
sI4
F0.43850602438899944
sI5
F0.4398652905641627
sI6
F0.4405282475382784
sI7
F0.43773018727198093
sI8
F0.4371329953817699
sI9
F0.44103485316115665
sI10
F0.434743678734247
sI11
F0.4322820544293897
sI12
F0.43943839208884555
sI13
F0.4365461254111291
sI14
F0.44064427785141164
ssS'sigerr'
p42
(dp43
I0
F0.0019996228028183786
sI1
Fnan
sI2
Fnan
sI3
Fnan
sI4
Fnan
sI5
Fnan
sI6
Fnan
sI7
Fnan
sI8
Fnan
sI9
Fnan
sI10
Fnan
sI11
Fnan
sI12
Fnan
sI13
Fnan
sI14
Fnan
ssS'tabbyrmsmean'
p44
(dp45
I0
F1.3204928666666667
sI1
Fnan
sI2
Fnan
sI3
Fnan
sI4
Fnan
sI5
Fnan
sI6
Fnan
sI7
Fnan
sI8
Fnan
sI9
Fnan
sI10
Fnan
sI11
Fnan
sI12
Fnan
sI13
Fnan
sI14
Fnan
ssS'tabbyflag'
p46
(dp47
I0
g7
sI1
g8
sI2
g9
sI3
g10
sI4
g11
sI5
g12
sI6
g13
sI7
g14
sI8
g15
sI9
g16
sI10
g17
sI11
g18
sI12
g19
sI13
g20
sI14
g21
ssS'ref1err'
p48
(dp49
I0
F0.0031017275184529727
sI1
Fnan
sI2
Fnan
sI3
Fnan
sI4
Fnan
sI5
Fnan
sI6
Fnan
sI7
Fnan
sI8
Fnan
sI9
Fnan
sI10
Fnan
sI11
Fnan
sI12
Fnan
sI13
Fnan
sI14
Fnan
ssS'ref2magmeanerr'
p50
(dp51
I0
F0.04226109321823109
sI1
Fnan
sI2
Fnan
sI3
Fnan
sI4
Fnan
sI5
Fnan
sI6
Fnan
sI7
Fnan
sI8
Fnan
sI9
Fnan
sI10
Fnan
sI11
Fnan
sI12
Fnan
sI13
Fnan
sI14
Fnan
ssS'ref2rmsmean'
p52
(dp53
I0
F1.2272920866666666
sI1
Fnan
sI2
Fnan
sI3
Fnan
sI4
Fnan
sI5
Fnan
sI6
Fnan
sI7
Fnan
sI8
Fnan
sI9
Fnan
sI10
Fnan
sI11
Fnan
sI12
Fnan
sI13
Fnan
sI14
Fnan
ssS'ref3rel'
p54
(dp55
I0
F1.506753392059313
sI1
F1.49752283186812
sI2
F1.5015488530151682
sI3
F1.5036274001592098
sI4
F1.5015251498667685
sI5
F1.5076844189325853
sI6
F1.49696339316036
sI7
F1.4961512934895604
sI8
F1.5048385082245008
sI9
F1.4956543742277608
sI10
F1.501945145056783
sI11
F1.5233425284242277
sI12
F1.49995262706738
sI13
F1.4981405286351461
sI14
F1.492168548658589
ssS'ref1flag'
p56
(dp57
I0
g7
sI1
g8
sI2
g9
sI3
g10
sI4
g11
sI5
g12
sI6
g13
sI7
g14
sI8
g15
sI9
g16
sI10
g17
sI11
g18
sI12
g19
sI13
g20
sI14
g21
ssS'ref2bkg'
p58
(dp59
I0
F18.8648
sI1
F15.19843
sI2
F16.60299
sI3
F18.76767
sI4
F15.06105
sI5
F16.44804
sI6
F16.0499
sI7
F15.44844
sI8
F18.24236
sI9
F15.77298
sI10
F19.3894
sI11
F15.36772
sI12
F14.70412
sI13
F17.27915
sI14
F16.9376
ssS'ref3magmean'
p60
(dp61
I0
F10.730466666666667
sI1
Fnan
sI2
Fnan
sI3
Fnan
sI4
Fnan
sI5
Fnan
sI6
Fnan
sI7
Fnan
sI8
Fnan
sI9
Fnan
sI10
Fnan
sI11
Fnan
sI12
Fnan
sI13
Fnan
sI14
Fnan
ssS'ref1mean'
p62
(dp63
I0
F0.6966914905692605
sI1
Fnan
sI2
Fnan
sI3
Fnan
sI4
Fnan
sI5
Fnan
sI6
Fnan
sI7
Fnan
sI8
Fnan
sI9
Fnan
sI10
Fnan
sI11
Fnan
sI12
Fnan
sI13
Fnan
sI14
Fnan
ssS'ref1rms'
p64
(dp65
I0
F-3.238748
sI1
F-2.952022
sI2
F3.743623
sI3
F3.35759
sI4
F3.512016
sI5
F1.936185
sI6
F2.989413
sI7
F2.290559
sI8
F3.749123
sI9
F-2.025217
sI10
F3.895749
sI11
F2.426098
sI12
F-2.961175
sI13
F2.453949
sI14
F3.21649
ssS'ref2magmean'
p66
(dp67
I0
F11.073
sI1
Fnan
sI2
Fnan
sI3
Fnan
sI4
Fnan
sI5
Fnan
sI6
Fnan
sI7
Fnan
sI8
Fnan
sI9
Fnan
sI10
Fnan
sI11
Fnan
sI12
Fnan
sI13
Fnan
sI14
Fnan
ssS'ref2flag'
p68
(dp69
I0
g7
sI1
g8
sI2
g9
sI3
g10
sI4
g11
sI5
g12
sI6
g13
sI7
g14
sI8
g15
sI9
g16
sI10
g17
sI11
g18
sI12
g19
sI13
g20
sI14
g21
ssS'ref2'
p70
(dp71
I0
F8912.786666666665
sI1
F9573.293333333333
sI2
F9582.766666666666
sI3
F8888.206666666667
sI4
F9809.353333333333
sI5
F9058.8
sI6
F9761.593333333332
sI7
F9756.503333333332
sI8
F8792.33
sI9
F9424.243333333334
sI10
F8981.726666666666
sI11
F9529.566666666668
sI12
F9778.046666666667
sI13
F9214.743333333334
sI14
F9274.046666666667
ssS'airmass'
p72
(dp73
I0
F1.0199129999999998
sI1
F1.0077479999999999
sI2
F1.008948
sI3
F1.004642
sI4
F1.008027
sI5
F1.0046389999999998
sI6
F1.018709
sI7
F1.008627
sI8
F1.004683
sI9
F1.004648
sI10
F1.0211780000000001
sI11
F1.004657
sI12
F1.00832
sI13
F1.020542
sI14
F1.019305
ssS'ref1'
p74
(dp75
I0
F7359.776666666667
sI1
F7919.8
sI2
F7851.64
sI3
F7341.966666666666
sI4
F8064.3
sI5
F7556.8566666666675
sI6
F8063.126666666666
sI7
F8052.943333333333
sI8
F7300.4400000000005
sI9
F7806.493333333333
sI10
F7391.516666666666
sI11
F7843.23
sI12
F8059.1433333333325
sI13
F7620.6866666666665
sI14
F7677.259999999999
ssS'ref3'
p76
(dp77
I0
F12259.369999999999
sI1
F13098.153333333332
sI2
F13089.306666666667
sI3
F12202.066666666668
sI4
F13418.869999999999
sI5
F12525.583333333334
sI6
F13341.476666666666
sI7
F13322.813333333334
sI8
F12108.51
sI9
F12885.613333333335
sI10
F12295.856666666667
sI11
F13232.359999999999
sI12
F13377.47
sI13
F12610.92
sI14
F12647.103333333333
ssS'ref1bkg'
p78
(dp79
I0
F18.71695
sI1
F14.53393
sI2
F15.4762
sI3
F15.84993
sI4
F14.79615
sI5
F15.39682
sI6
F14.55887
sI7
F14.2616
sI8
F17.02748
sI9
F15.45354
sI10
F18.06823
sI11
F14.87207
sI12
F14.97399
sI13
F16.19658
sI14
F16.51964
ssS'ref1mag'
p80
(dp81
I0
F11.333
sI1
F11.253
sI2
F11.263
sI3
F11.335
sI4
F11.234
sI5
F11.304
sI6
F11.234
sI7
F11.235
sI8
F11.342
sI9
F11.269
sI10
F11.328
sI11
F11.264
sI12
F11.234
sI13
F11.295
sI14
F11.287
ssS'ref3magerr'
p82
(dp83
I0
F0.002
sI1
F0.002
sI2
F0.002
sI3
F0.002
sI4
F0.002
sI5
F0.002
sI6
F0.002
sI7
F0.002
sI8
F0.002
sI9
F0.002
sI10
F0.002
sI11
F0.002
sI12
F0.002
sI13
F0.002
sI14
F0.002
ssS'tabbymagmean'
p84
(dp85
I0
F0.43746317535148765
sI1
Fnan
sI2
Fnan
sI3
Fnan
sI4
Fnan
sI5
Fnan
sI6
Fnan
sI7
Fnan
sI8
Fnan
sI9
Fnan
sI10
Fnan
sI11
Fnan
sI12
Fnan
sI13
Fnan
sI14
Fnan
ssS'ref1magmean'
p86
(dp87
I0
F11.280666666666667
sI1
Fnan
sI2
Fnan
sI3
Fnan
sI4
Fnan
sI5
Fnan
sI6
Fnan
sI7
Fnan
sI8
Fnan
sI9
Fnan
sI10
Fnan
sI11
Fnan
sI12
Fnan
sI13
Fnan
sI14
Fnan
ssS'ref2mag'
p88
(dp89
I0
F11.125
sI1
F11.047
sI2
F11.046
sI3
F11.128
sI4
F11.021
sI5
F11.107
sI6
F11.026
sI7
F11.027
sI8
F11.14
sI9
F11.064
sI10
F11.117
sI11
F11.052
sI12
F11.024
sI13
F11.089
sI14
F11.082
ssS'ref3rms'
p90
(dp91
I0
F4.621317
sI1
F-2.206656
sI2
F3.427173
sI3
F2.890225
sI4
F2.771042
sI5
F4.803822
sI6
F1.255478
sI7
F3.045457
sI8
F5.680832
sI9
F4.803225
sI10
F5.255655
sI11
F3.76222
sI12
F-2.517327
sI13
F4.58483
sI14
F-1.130303
ssS'ref3magmeanerr'
p92
(dp93
I0
F0.04030219183452283
sI1
Fnan
sI2
Fnan
sI3
Fnan
sI4
Fnan
sI5
Fnan
sI6
Fnan
sI7
Fnan
sI8
Fnan
sI9
Fnan
sI10
Fnan
sI11
Fnan
sI12
Fnan
sI13
Fnan
sI14
Fnan
ssS'ref1rel'
p94
(dp95
I0
F0.6952316462171152
sI1
F0.6986585475945221
sI2
F0.6926265529016461
sI3
F0.6962419643051884
sI4
F0.6943535787713424
sI5
F0.7002152018859316
sI6
F0.6980134386180422
sI7
F0.6978493730678046
sI8
F0.6985786217204668
sI9
F0.6998246066723572
sI10
F0.694770317744418
sI11
F0.6891534372163575
sI12
F0.6960884051388762
sI13
F0.698323487380834
sI14
F0.7004431793040053
ssS'exposure'
p96
(dp97
I0
F30.0
sI1
F30.0
sI2
F30.0
sI3
F30.0
sI4
F30.0
sI5
F30.0
sI6
F30.0
sI7
F30.0
sI8
F30.0
sI9
F30.0
sI10
F30.0
sI11
F30.0
sI12
F30.0
sI13
F30.0
sI14
F30.0
ssS'ref1magerr'
p98
(dp99
I0
F0.002
sI1
F0.002
sI2
F0.002
sI3
F0.002
sI4
F0.002
sI5
F0.002
sI6
F0.002
sI7
F0.002
sI8
F0.002
sI9
F0.002
sI10
F0.002
sI11
F0.002
sI12
F0.002
sI13
F0.002
sI14
F0.002
ssS'ref2magerr'
p100
(dp101
I0
F0.002
sI1
F0.002
sI2
F0.002
sI3
F0.002
sI4
F0.002
sI5
F0.002
sI6
F0.002
sI7
F0.002
sI8
F0.002
sI9
F0.002
sI10
F0.002
sI11
F0.002
sI12
F0.002
sI13
F0.002
sI14
F0.002
ssS'ref2rms'
p102
(dp103
I0
F4.100345
sI1
F-1.226338
sI2
F-3.633975
sI3
F2.427262
sI4
F1.851953
sI5
F4.234998
sI6
F-1.565128
sI7
F0.7257683
sI8
F4.517291
sI9
F-3.321202
sI10
F4.26332
sI11
F4.086491
sI12
F1.959307
sI13
F2.375849
sI14
F-2.38656
ssS'name'
p104
(dp105
I0
S"KIC8462852-20180913at050745_-25-1X1-030-i'_cal.fts.mag.1"
p106
sI1
S"KIC8462852-20180913at043838_-25-1X1-030-i'_cal.fts.mag.1"
p107
sI2
S"KIC8462852-20180913at044254_-25-1X1-030-i'_cal.fts.mag.1"
p108
sI3
S"KIC8462852-20180913at041347_-25-1X1-030-i'_cal.fts.mag.1"
p109
sI4
S"KIC8462852-20180913at043943_-25-1X1-030-i'_cal.fts.mag.1"
p110
sI5
S"KIC8462852-20180913at041451_-25-1X1-030-i'_cal.fts.mag.1"
p111
sI6
S"KIC8462852-20180913at050537_-25-1X1-030-i'_cal.fts.mag.1"
p112
sI7
S"KIC8462852-20180913at044150_-25-1X1-030-i'_cal.fts.mag.1"
p113
sI8
S"KIC8462852-20180913at041139_-25-1X1-030-i'_cal.fts.mag.1"
p114
sI9
S"KIC8462852-20180913at041555_-25-1X1-030-i'_cal.fts.mag.1"
p115
sI10
S"KIC8462852-20180913at050953_-25-1X1-030-i'_cal.fts.mag.1"
p116
sI11
S"KIC8462852-20180913at041243_-25-1X1-030-i'_cal.fts.mag.1"
p117
sI12
S"KIC8462852-20180913at044047_-25-1X1-030-i'_cal.fts.mag.1"
p118
sI13
S"KIC8462852-20180913at050848_-25-1X1-030-i'_cal.fts.mag.1"
p119
sI14
S"KIC8462852-20180913at050641_-25-1X1-030-i'_cal.fts.mag.1"
p120
ssS'ref3err'
p121
(dp122
I0
F0.00735266136515151
sI1
Fnan
sI2
Fnan
sI3
Fnan
sI4
Fnan
sI5
Fnan
sI6
Fnan
sI7
Fnan
sI8
Fnan
sI9
Fnan
sI10
Fnan
sI11
Fnan
sI12
Fnan
sI13
Fnan
sI14
Fnan
ssS'tabby'
p123
(dp124
I0
F4145.363333333333
sI1
F4489.256666666667
sI2
F4441.373333333334
sI3
F4083.4733333333334
sI4
F4573.986666666667
sI5
F4272.74
sI6
F4576.53
sI7
F4542.509999999999
sI8
F4109.236666666667
sI9
F4427.453333333334
sI10
F4154.570000000001
sI11
F4410.02
sI12
F4572.306666666667
sI13
F4284.8966666666665
sI14
F4347.456666666667
ssS'ref1magmeanerr'
p125
(dp126
I0
F0.04017224817967671
sI1
Fnan
sI2
Fnan
sI3
Fnan
sI4
Fnan
sI5
Fnan
sI6
Fnan
sI7
Fnan
sI8
Fnan
sI9
Fnan
sI10
Fnan
sI11
Fnan
sI12
Fnan
sI13
Fnan
sI14
Fnan
ssS'filter'
p127
(dp128
I0
S"i'"
p129
sI1
S"i'"
p130
sI2
S"i'"
p131
sI3
S"i'"
p132
sI4
S"i'"
p133
sI5
S"i'"
p134
sI6
S"i'"
p135
sI7
S"i'"
p136
sI8
S"i'"
p137
sI9
S"i'"
p138
sI10
S"i'"
p139
sI11
S"i'"
p140
sI12
S"i'"
p141
sI13
S"i'"
p142
sI14
S"i'"
p143
ssS'tabbymagerr'
p144
(dp145
I0
F0.003082822406336375
sI1
Fnan
sI2
Fnan
sI3
Fnan
sI4
Fnan
sI5
Fnan
sI6
Fnan
sI7
Fnan
sI8
Fnan
sI9
Fnan
sI10
Fnan
sI11
Fnan
sI12
Fnan
sI13
Fnan
sI14
Fnan
ssS'tabbyrms'
p146
(dp147
I0
F3.089817
sI1
F1.921066
sI2
F-1.745678
sI3
F-1.929707
sI4
F-2.905965
sI5
F3.781797
sI6
F2.894031
sI7
F-3.215828
sI8
F1.833146
sI9
F2.80379
sI10
F3.243021
sI11
F1.574139
sI12
F2.694216
sI13
F2.426597
sI14
F3.342951
ssS'ref3mean'
p148
(dp149
I0
F1.5018545995230315
sI1
Fnan
sI2
Fnan
sI3
Fnan
sI4
Fnan
sI5
Fnan
sI6
Fnan
sI7
Fnan
sI8
Fnan
sI9
Fnan
sI10
Fnan
sI11
Fnan
sI12
Fnan
sI13
Fnan
sI14
Fnan
ssS'median_JD'
p150
(dp151
I0
F2458374.694988426
sI1
Fnan
sI2
Fnan
sI3
Fnan
sI4
Fnan
sI5
Fnan
sI6
Fnan
sI7
Fnan
sI8
Fnan
sI9
Fnan
sI10
Fnan
sI11
Fnan
sI12
Fnan
sI13
Fnan
sI14
Fnan
ssS'error'
p152
(dp153
I0
F0.003082822406336375
sI1
Fnan
sI2
Fnan
sI3
Fnan
sI4
Fnan
sI5
Fnan
sI6
Fnan
sI7
Fnan
sI8
Fnan
sI9
Fnan
sI10
Fnan
sI11
Fnan
sI12
Fnan
sI13
Fnan
sI14
Fnan
ssS'ref3bkg'
p154
(dp155
I0
F21.97044
sI1
F17.90888
sI2
F17.87783
sI3
F21.20574
sI4
F15.35723
sI5
F18.70416
sI6
F16.94101
sI7
F16.41218
sI8
F21.27764
sI9
F16.46905
sI10
F21.38705
sI11
F17.1297
sI12
F16.52587
sI13
F19.89932
sI14
F19.88252
ssS'ref3mag'
p156
(dp157
I0
F10.779
sI1
F10.707
sI2
F10.708
sI3
F10.784
sI4
F10.681
sI5
F10.756
sI6
F10.687
sI7
F10.689
sI8
F10.792
sI9
F10.725
sI10
F10.776
sI11
F10.696
sI12
F10.684
sI13
F10.748
sI14
F10.745
ssS'mean'
p158
(dp159
I0
F0.43746317535148765
sI1
Fnan
sI2
Fnan
sI3
Fnan
sI4
Fnan
sI5
Fnan
sI6
Fnan
sI7
Fnan
sI8
Fnan
sI9
Fnan
sI10
Fnan
sI11
Fnan
sI12
Fnan
sI13
Fnan
sI14
Fnan
sssS'r'
p160
(dp161
g3
(dp162
I0
F0.5488378818005231
sI1
Fnan
sI2
Fnan
sI3
Fnan
sI4
Fnan
sI5
Fnan
sI6
Fnan
sI7
Fnan
sI8
Fnan
sI9
Fnan
sI10
Fnan
sI11
Fnan
sI12
Fnan
sI13
Fnan
sI14
Fnan
ssg5
(dp163
I0
S'NoError'
p164
sI1
S'NoError'
p165
sI2
S'NoError'
p166
sI3
S'NoError'
p167
sI4
S'NoError'
p168
sI5
S'NoError'
p169
sI6
S'NoError'
p170
sI7
S'NoError'
p171
sI8
S'NoError'
p172
sI9
S'NoError'
p173
sI10
S'NoError'
p174
sI11
S'NoError'
p175
sI12
S'NoError'
p176
sI13
S'NoError'
p177
sI14
S'NoError'
p178
ssg22
(dp179
I0
F0.002
sI1
F0.002
sI2
F0.002
sI3
F0.002
sI4
F0.002
sI5
F0.002
sI6
F0.002
sI7
F0.002
sI8
F0.002
sI9
F0.002
sI10
F0.002
sI11
F0.002
sI12
F0.002
sI13
F0.002
sI14
F0.002
ssg24
(dp180
I0
F0.8938789567049454
sI1
F0.8959115571963304
sI2
F0.8919214596281486
sI3
F0.8954497172487716
sI4
F0.8969684537899562
sI5
F0.8799606317947003
sI6
F0.8964912479515238
sI7
F0.8917905631049615
sI8
F0.9007451091398646
sI9
F0.8904396288913103
sI10
F0.8930323766557291
sI11
F0.8899894420232275
sI12
F0.8920698166327502
sI13
F0.8834987128277931
sI14
F0.8876685817026319
ssg26
(dp181
I0
F0.005316014188375965
sI1
Fnan
sI2
Fnan
sI3
Fnan
sI4
Fnan
sI5
Fnan
sI6
Fnan
sI7
Fnan
sI8
Fnan
sI9
Fnan
sI10
Fnan
sI11
Fnan
sI12
Fnan
sI13
Fnan
sI14
Fnan
ssg28
(dp182
I0
F0.8919877503528428
sI1
Fnan
sI2
Fnan
sI3
Fnan
sI4
Fnan
sI5
Fnan
sI6
Fnan
sI7
Fnan
sI8
Fnan
sI9
Fnan
sI10
Fnan
sI11
Fnan
sI12
Fnan
sI13
Fnan
sI14
Fnan
ssg30
(dp183
I0
F11.159
sI1
F11.152
sI2
F11.21
sI3
F11.135
sI4
F11.154
sI5
F11.202
sI6
F11.14
sI7
F11.138
sI8
F11.158
sI9
F11.183
sI10
F11.164
sI11
F11.129
sI12
F11.159
sI13
F11.137
sI14
F11.169
ssg32
(dp184
I0
F14.58704
sI1
F13.38197
sI2
F15.26781
sI3
F13.85867
sI4
F14.21418
sI5
F15.26729
sI6
F14.09021
sI7
F13.5434
sI8
F13.45269
sI9
F15.36006
sI10
F14.58033
sI11
F12.55016
sI12
F14.56466
sI13
F13.25904
sI14
F14.14177
ssg34
(dp185
I0
F2458374.7085648146
sI1
F2458374.691284722
sI2
F2458374.689814815
sI3
F2458374.710775463
sI4
F2458374.6718171295
sI5
F2458374.671087963
sI6
F2458374.673275463
sI7
F2458374.710034722
sI8
F2458374.6725462964
sI9
F2458374.6740162037
sI10
F2458374.692025463
sI11
F2458374.7092939815
sI12
F2458374.6927546295
sI13
F2458374.6905439813
sI14
F2458374.71150463
ssg36
(dp186
I0
F2.9536876666666663
sI1
Fnan
sI2
Fnan
sI3
Fnan
sI4
Fnan
sI5
Fnan
sI6
Fnan
sI7
Fnan
sI8
Fnan
sI9
Fnan
sI10
Fnan
sI11
Fnan
sI12
Fnan
sI13
Fnan
sI14
Fnan
ssg38
(dp187
I0
F1.9928748
sI1
Fnan
sI2
Fnan
sI3
Fnan
sI4
Fnan
sI5
Fnan
sI6
Fnan
sI7
Fnan
sI8
Fnan
sI9
Fnan
sI10
Fnan
sI11
Fnan
sI12
Fnan
sI13
Fnan
sI14
Fnan
ssg40
(dp188
I0
F0.5499520223108628
sI1
F0.5508288972066924
sI2
F0.545633240492796
sI3
F0.5528101456290724
sI4
F0.5454285119142678
sI5
F0.5474577401320369
sI6
F0.5480503203013068
sI7
F0.549704873390518
sI8
F0.5477471555278408
sI9
F0.5540790730028616
sI10
F0.547480004754708
sI11
F0.5531493159955457
sI12
F0.5472751852548514
sI13
F0.549375050496302
sI14
F0.5427114712185983
ssg42
(dp189
I0
F0.002328867804003309
sI1
Fnan
sI2
Fnan
sI3
Fnan
sI4
Fnan
sI5
Fnan
sI6
Fnan
sI7
Fnan
sI8
Fnan
sI9
Fnan
sI10
Fnan
sI11
Fnan
sI12
Fnan
sI13
Fnan
sI14
Fnan
ssg44
(dp190
I0
F2.393120733333333
sI1
Fnan
sI2
Fnan
sI3
Fnan
sI4
Fnan
sI5
Fnan
sI6
Fnan
sI7
Fnan
sI8
Fnan
sI9
Fnan
sI10
Fnan
sI11
Fnan
sI12
Fnan
sI13
Fnan
sI14
Fnan
ssg46
(dp191
I0
g164
sI1
g165
sI2
g166
sI3
g167
sI4
g168
sI5
g169
sI6
g170
sI7
g171
sI8
g172
sI9
g173
sI10
g174
sI11
g175
sI12
g176
sI13
g177
sI14
g178
ssg48
(dp192
I0
F0.0036707944325390118
sI1
Fnan
sI2
Fnan
sI3
Fnan
sI4
Fnan
sI5
Fnan
sI6
Fnan
sI7
Fnan
sI8
Fnan
sI9
Fnan
sI10
Fnan
sI11
Fnan
sI12
Fnan
sI13
Fnan
sI14
Fnan
ssg50
(dp193
I0
F0.024188151369351606
sI1
Fnan
sI2
Fnan
sI3
Fnan
sI4
Fnan
sI5
Fnan
sI6
Fnan
sI7
Fnan
sI8
Fnan
sI9
Fnan
sI10
Fnan
sI11
Fnan
sI12
Fnan
sI13
Fnan
sI14
Fnan
ssg52
(dp194
I0
F0.8986993133333333
sI1
Fnan
sI2
Fnan
sI3
Fnan
sI4
Fnan
sI5
Fnan
sI6
Fnan
sI7
Fnan
sI8
Fnan
sI9
Fnan
sI10
Fnan
sI11
Fnan
sI12
Fnan
sI13
Fnan
sI14
Fnan
ssg54
(dp195
I0
F1.4989851525598936
sI1
F1.4877894076149896
sI2
F1.4969999212739824
sI3
F1.4942265482651815
sI4
F1.484802294408353
sI5
F1.5141177402088615
sI6
F1.4971544175001446
sI7
F1.5022355574316628
sI8
F1.495043797327083
sI9
F1.4875199590409083
sI10
F1.49086878133054
sI11
F1.5070938661081843
sI12
F1.4968715898212015
sI13
F1.5159071247853697
sI14
F1.498222223646953
ssg56
(dp196
I0
g164
sI1
g165
sI2
g166
sI3
g167
sI4
g168
sI5
g169
sI6
g170
sI7
g171
sI8
g172
sI9
g173
sI10
g174
sI11
g175
sI12
g176
sI13
g177
sI14
g178
ssg58
(dp197
I0
F16.54931
sI1
F16.82362
sI2
F17.67783
sI3
F16.379
sI4
F16.4501
sI5
F17.57082
sI6
F16.87923
sI7
F15.31553
sI8
F16.90378
sI9
F19.82588
sI10
F17.6719
sI11
F14.97252
sI12
F17.50805
sI13
F15.96805
sI14
F17.25364
ssg60
(dp198
I0
F10.235800000000001
sI1
Fnan
sI2
Fnan
sI3
Fnan
sI4
Fnan
sI5
Fnan
sI6
Fnan
sI7
Fnan
sI8
Fnan
sI9
Fnan
sI10
Fnan
sI11
Fnan
sI12
Fnan
sI13
Fnan
sI14
Fnan
ssg62
(dp199
I0
F0.7149998677003119
sI1
Fnan
sI2
Fnan
sI3
Fnan
sI4
Fnan
sI5
Fnan
sI6
Fnan
sI7
Fnan
sI8
Fnan
sI9
Fnan
sI10
Fnan
sI11
Fnan
sI12
Fnan
sI13
Fnan
sI14
Fnan
ssg64
(dp200
I0
F4.635322
sI1
F4.167255
sI2
F5.38162
sI3
F1.87793
sI4
F-2.496444
sI5
F1.459824
sI6
F2.497629
sI7
F2.82189
sI8
F3.309087
sI9
F-2.678367
sI10
F-1.703859
sI11
F2.962651
sI12
F3.799713
sI13
F2.449706
sI14
F1.409165
ssg66
(dp201
I0
F10.59206666666667
sI1
Fnan
sI2
Fnan
sI3
Fnan
sI4
Fnan
sI5
Fnan
sI6
Fnan
sI7
Fnan
sI8
Fnan
sI9
Fnan
sI10
Fnan
sI11
Fnan
sI12
Fnan
sI13
Fnan
sI14
Fnan
ssg68
(dp202
I0
g164
sI1
g165
sI2
g166
sI3
g167
sI4
g168
sI5
g169
sI6
g170
sI7
g171
sI8
g172
sI9
g173
sI10
g174
sI11
g175
sI12
g176
sI13
g177
sI14
g178
ssg70
(dp203
I0
F14560.880000000001
sI1
F14646.94
sI2
F13973.9
sI3
F14820.116666666667
sI4
F14780.053333333333
sI5
F13900.003333333332
sI6
F14898.843333333332
sI7
F14818.516666666666
sI8
F14706.59
sI9
F14087.54
sI10
F14542.466666666667
sI11
F14833.19
sI12
F14605.59
sI13
F14752.18
sI14
F14536.426666666666
ssg72
(dp204
I0
F1.015918
sI1
F1.006976
sI2
F1.006521
sI3
F1.017554
sI4
F1.004912
sI5
F1.004998
sI6
F1.004774
sI7
F1.016997
sI8
F1.004837
sI9
F1.004723
sI10
F1.007218
sI11
F1.016449
sI12
F1.007472
sI13
F1.006742
sI14
F1.018118
ssg74
(dp205
I0
F12384.056666666667
sI1
F12501.619999999999
sI2
F11938.753333333332
sI3
F12608.593333333332
sI4
F12616.406666666668
sI5
F11991.18
sI6
F12630.376666666667
sI7
F12622.066666666668
sI8
F12395.140000000001
sI9
F12137.0
sI10
F12448.636666666665
sI11
F12634.906666666668
sI12
F12476.323333333334
sI13
F12635.966666666667
sI14
F12499.22
ssg76
(dp206
I0
F20195.030000000002
sI1
F20195.67
sI2
F19395.62
sI3
F20492.353333333333
sI4
F20339.163333333334
sI5
F19601.15
sI6
F20607.746666666666
sI7
F20611.11
sI8
F20259.136666666665
sI9
F19504.763333333332
sI10
F20120.096666666668
sI11
F20698.5
sI12
F20269.07333333333
sI13
F20758.943333333336
sI14
F20252.70333333333
ssg78
(dp207
I0
F15.13151
sI1
F14.35568
sI2
F15.58553
sI3
F16.19657
sI4
F14.72931
sI5
F16.93777
sI6
F16.62337
sI7
F14.40252
sI8
F15.54447
sI9
F17.72273
sI10
F16.76291
sI11
F14.45181
sI12
F15.661
sI13
F14.08776
sI14
F16.19613
ssg80
(dp208
I0
F10.768
sI1
F10.758
sI2
F10.808
sI3
F10.748
sI4
F10.748
sI5
F10.803
sI6
F10.746
sI7
F10.747
sI8
F10.767
sI9
F10.79
sI10
F10.762
sI11
F10.746
sI12
F10.76
sI13
F10.746
sI14
F10.758
ssg82
(dp209
I0
F0.001
sI1
F0.001
sI2
F0.001
sI3
F0.001
sI4
F0.001
sI5
F0.001
sI6
F0.001
sI7
F0.001
sI8
F0.001
sI9
F0.001
sI10
F0.001
sI11
F0.001
sI12
F0.001
sI13
F0.001
sI14
F0.001
ssg84
(dp210
I0
F0.5487788671752173
sI1
Fnan
sI2
Fnan
sI3
Fnan
sI4
Fnan
sI5
Fnan
sI6
Fnan
sI7
Fnan
sI8
Fnan
sI9
Fnan
sI10
Fnan
sI11
Fnan
sI12
Fnan
sI13
Fnan
sI14
Fnan
ssg86
(dp211
I0
F10.763666666666667
sI1
Fnan
sI2
Fnan
sI3
Fnan
sI4
Fnan
sI5
Fnan
sI6
Fnan
sI7
Fnan
sI8
Fnan
sI9
Fnan
sI10
Fnan
sI11
Fnan
sI12
Fnan
sI13
Fnan
sI14
Fnan
ssg88
(dp212
I0
F10.592
sI1
F10.586
sI2
F10.637
sI3
F10.573
sI4
F10.576
sI5
F10.642
sI6
F10.567
sI7
F10.573
sI8
F10.581
sI9
F10.628
sI10
F10.593
sI11
F10.572
sI12
F10.589
sI13
F10.578
sI14
F10.594
ssg90
(dp213
I0
F2.878487
sI1
F2.294345
sI2
F5.331857
sI3
F3.956788
sI4
F2.416584
sI5
F4.800352
sI6
F-4.039494
sI7
F4.500504
sI8
F4.500878
sI9
F5.076322
sI10
F3.198438
sI11
F1.509575
sI12
F0.722716
sI13
F3.492059
sI14
F3.665904
ssg92
(dp214
I0
F0.022922851979130868
sI1
Fnan
sI2
Fnan
sI3
Fnan
sI4
Fnan
sI5
Fnan
sI6
Fnan
sI7
Fnan
sI8
Fnan
sI9
Fnan
sI10
Fnan
sI11
Fnan
sI12
Fnan
sI13
Fnan
sI14
Fnan
ssg94
(dp215
I0
F0.7126302644164211
sI1
F0.717605254026607
sI2
F0.7155484006562476
sI3
F0.7141156273312703
sI4
F0.7184902093013654
sI5
F0.7158666975246424
sI6
F0.7114384494070913
sI7
F0.7125147992903869
sI8
F0.7089879823270749
sI9
F0.7226060017120987
sI10
F0.7182755958902441
sI11
F0.7111908646431773
sI12
F0.7154949835119079
sI13
F0.7116624584390787
sI14
F0.7185704270270628
ssg96
(dp216
I0
F30.0
sI1
F30.0
sI2
F30.0
sI3
F30.0
sI4
F30.0
sI5
F30.0
sI6
F30.0
sI7
F30.0
sI8
F30.0
sI9
F30.0
sI10
F30.0
sI11
F30.0
sI12
F30.0
sI13
F30.0
sI14
F30.0
ssg98
(dp217
I0
F0.002
sI1
F0.002
sI2
F0.002
sI3
F0.002
sI4
F0.002
sI5
F0.002
sI6
F0.002
sI7
F0.002
sI8
F0.002
sI9
F0.002
sI10
F0.002
sI11
F0.002
sI12
F0.002
sI13
F0.002
sI14
F0.002
ssg100
(dp218
I0
F0.002
sI1
F0.001
sI2
F0.002
sI3
F0.001
sI4
F0.001
sI5
F0.002
sI6
F0.001
sI7
F0.001
sI8
F0.002
sI9
F0.002
sI10
F0.002
sI11
F0.001
sI12
F0.001
sI13
F0.001
sI14
F0.002
ssg102
(dp219
I0
F3.288866
sI1
F-0.6606618
sI2
F5.174509
sI3
F2.532439
sI4
F-3.402869
sI5
F4.862942
sI6
F-1.837841
sI7
F3.903128
sI8
F3.323569
sI9
F2.623105
sI10
F-2.560975
sI11
F3.346262
sI12
F-0.9773185
sI13
F-3.364118
sI14
F-2.770547
ssg104
(dp220
I0
S"KIC8462852-20180913at050018_-25-1X1-030-r'_cal.fts.mag.1"
p221
sI1
S"KIC8462852-20180913at043527_-25-1X1-030-r'_cal.fts.mag.1"
p222
sI2
S"KIC8462852-20180913at043318_-25-1X1-030-r'_cal.fts.mag.1"
p223
sI3
S"KIC8462852-20180913at050330_-25-1X1-030-r'_cal.fts.mag.1"
p224
sI4
S"KIC8462852-20180913at040725_-25-1X1-030-r'_cal.fts.mag.1"
p225
sI5
S"KIC8462852-20180913at040620_-25-1X1-030-r'_cal.fts.mag.1"
p226
sI6
S"KIC8462852-20180913at040931_-25-1X1-030-r'_cal.fts.mag.1"
p227
sI7
S"KIC8462852-20180913at050227_-25-1X1-030-r'_cal.fts.mag.1"
p228
sI8
S"KIC8462852-20180913at040828_-25-1X1-030-r'_cal.fts.mag.1"
p229
sI9
S"KIC8462852-20180913at041035_-25-1X1-030-r'_cal.fts.mag.1"
p230
sI10
S"KIC8462852-20180913at043631_-25-1X1-030-r'_cal.fts.mag.1"
p231
sI11
S"KIC8462852-20180913at050123_-25-1X1-030-r'_cal.fts.mag.1"
p232
sI12
S"KIC8462852-20180913at043734_-25-1X1-030-r'_cal.fts.mag.1"
p233
sI13
S"KIC8462852-20180913at043423_-25-1X1-030-r'_cal.fts.mag.1"
p234
sI14
S"KIC8462852-20180913at050434_-25-1X1-030-r'_cal.fts.mag.1"
p235
ssg121
(dp236
I0
F0.009050971276121283
sI1
Fnan
sI2
Fnan
sI3
Fnan
sI4
Fnan
sI5
Fnan
sI6
Fnan
sI7
Fnan
sI8
Fnan
sI9
Fnan
sI10
Fnan
sI11
Fnan
sI12
Fnan
sI13
Fnan
sI14
Fnan
ssg123
(dp237
I0
F8641.573333333334
sI1
F8692.856666666667
sI2
F8240.566666666668
sI3
F8830.416666666666
sI4
F8678.79
sI5
F8301.71
sI6
F8793.826666666666
sI7
F8804.75
sI8
F8647.26
sI9
F8445.883333333333
sI10
F8597.48
sI11
F8881.106666666667
sI12
F8638.006666666666
sI13
F8816.936666666666
sI14
F8554.643333333333
ssg125
(dp238
I0
F0.02073873762057951
sI1
Fnan
sI2
Fnan
sI3
Fnan
sI4
Fnan
sI5
Fnan
sI6
Fnan
sI7
Fnan
sI8
Fnan
sI9
Fnan
sI10
Fnan
sI11
Fnan
sI12
Fnan
sI13
Fnan
sI14
Fnan
ssg127
(dp239
I0
S"r'"
p240
sI1
S"r'"
p241
sI2
S"r'"
p242
sI3
S"r'"
p243
sI4
S"r'"
p244
sI5
S"r'"
p245
sI6
S"r'"
p246
sI7
S"r'"
p247
sI8
S"r'"
p248
sI9
S"r'"
p249
sI10
S"r'"
p250
sI11
S"r'"
p251
sI12
S"r'"
p252
sI13
S"r'"
p253
sI14
S"r'"
p254
ssg144
(dp255
I0
F0.003110556670191192
sI1
Fnan
sI2
Fnan
sI3
Fnan
sI4
Fnan
sI5
Fnan
sI6
Fnan
sI7
Fnan
sI8
Fnan
sI9
Fnan
sI10
Fnan
sI11
Fnan
sI12
Fnan
sI13
Fnan
sI14
Fnan
ssg146
(dp256
I0
F3.153144
sI1
F3.043415
sI2
F4.701019
sI3
F2.526278
sI4
F-3.554013
sI5
F4.306805
sI6
F-2.814563
sI7
F4.15849
sI8
F4.076749
sI9
F1.573472
sI10
F1.953981
sI11
F2.804532
sI12
F2.378769
sI13
F4.560637
sI14
F3.028096
ssg148
(dp257
I0
F1.4978558920882203
sI1
Fnan
sI2
Fnan
sI3
Fnan
sI4
Fnan
sI5
Fnan
sI6
Fnan
sI7
Fnan
sI8
Fnan
sI9
Fnan
sI10
Fnan
sI11
Fnan
sI12
Fnan
sI13
Fnan
sI14
Fnan
ssg150
(dp258
I0
F2458374.691284722
sI1
Fnan
sI2
Fnan
sI3
Fnan
sI4
Fnan
sI5
Fnan
sI6
Fnan
sI7
Fnan
sI8
Fnan
sI9
Fnan
sI10
Fnan
sI11
Fnan
sI12
Fnan
sI13
Fnan
sI14
Fnan
ssg152
(dp259
I0
F0.003110556670191192
sI1
Fnan
sI2
Fnan
sI3
Fnan
sI4
Fnan
sI5
Fnan
sI6
Fnan
sI7
Fnan
sI8
Fnan
sI9
Fnan
sI10
Fnan
sI11
Fnan
sI12
Fnan
sI13
Fnan
sI14
Fnan
ssg154
(dp260
I0
F19.77747
sI1
F18.88284
sI2
F19.70183
sI3
F18.24213
sI4
F17.98607
sI5
F22.08571
sI6
F18.75528
sI7
F17.63289
sI8
F19.16396
sI9
F23.98869
sI10
F19.86626
sI11
F18.42259
sI12
F19.93119
sI13
F18.17295
sI14
F19.10046
ssg156
(dp261
I0
F10.237
sI1
F10.237
sI2
F10.281
sI3
F10.221
sI4
F10.229
sI5
F10.269
sI6
F10.215
sI7
F10.215
sI8
F10.233
sI9
F10.275
sI10
F10.241
sI11
F10.21
sI12
F10.233
sI13
F10.207
sI14
F10.234
ssg158
(dp262
I0
F0.5487788671752173
sI1
Fnan
sI2
Fnan
sI3
Fnan
sI4
Fnan
sI5
Fnan
sI6
Fnan
sI7
Fnan
sI8
Fnan
sI9
Fnan
sI10
Fnan
sI11
Fnan
sI12
Fnan
sI13
Fnan
sI14
Fnan
sssS'z'
p263
(dp264
g3
(dp265
I0
F0.3683732926114439
sI1
Fnan
sI2
Fnan
sI3
Fnan
sI4
Fnan
sI5
Fnan
sI6
Fnan
sI7
Fnan
sI8
Fnan
sI9
Fnan
sI10
Fnan
sI11
Fnan
sI12
Fnan
sI13
Fnan
sI14
Fnan
ssg5
(dp266
I0
S'NoError'
p267
sI1
S'NoError'
p268
sI2
S'NoError'
p269
sI3
S'NoError'
p270
sI4
S'NoError'
p271
sI5
S'NoError'
p272
sI6
S'NoError'
p273
sI7
S'NoError'
p274
sI8
S'NoError'
p275
sI9
S'NoError'
p276
sI10
S'NoError'
p277
sI11
S'NoError'
p278
sI12
S'NoError'
p279
sI13
S'NoError'
p280
sI14
S'NoError'
p281
ssg22
(dp282
I0
F0.007
sI1
F0.007
sI2
F0.007
sI3
F0.007
sI4
F0.007
sI5
F0.007
sI6
F0.007
sI7
F0.007
sI8
F0.007
sI9
F0.007
sI10
F0.007
sI11
F0.007
sI12
F0.008
sI13
F0.007
sI14
F0.007
ssg24
(dp283
I0
F0.9103382386237513
sI1
F0.9190659057227156
sI2
F0.9137072938830605
sI3
F0.9113944742488558
sI4
F0.9147346791020788
sI5
F0.9087069744099918
sI6
F0.9143485000758605
sI7
F0.9161643983877137
sI8
F0.9203745646281035
sI9
F0.916229656807873
sI10
F0.9340571899485332
sI11
F0.9185197886012708
sI12
F0.9181297720071153
sI13
F0.9201873646229803
sI14
F0.9248845993677589
ssg26
(dp284
I0
F0.006262760283079845
sI1
Fnan
sI2
Fnan
sI3
Fnan
sI4
Fnan
sI5
Fnan
sI6
Fnan
sI7
Fnan
sI8
Fnan
sI9
Fnan
sI10
Fnan
sI11
Fnan
sI12
Fnan
sI13
Fnan
sI14
Fnan
ssg28
(dp285
I0
F0.9173895600291776
sI1
Fnan
sI2
Fnan
sI3
Fnan
sI4
Fnan
sI5
Fnan
sI6
Fnan
sI7
Fnan
sI8
Fnan
sI9
Fnan
sI10
Fnan
sI11
Fnan
sI12
Fnan
sI13
Fnan
sI14
Fnan
ssg30
(dp286
I0
F13.217
sI1
F13.244
sI2
F13.226
sI3
F13.349
sI4
F13.271
sI5
F13.213
sI6
F13.238
sI7
F13.253
sI8
F13.26
sI9
F13.286
sI10
F13.304
sI11
F13.248
sI12
F13.345
sI13
F13.243
sI14
F13.285
ssg32
(dp287
I0
F10.44497
sI1
F10.20154
sI2
F10.50181
sI3
F10.63391
sI4
F10.5035
sI5
F10.10956
sI6
F10.94352
sI7
F10.70198
sI8
F10.68102
sI9
F11.1866
sI10
F10.9715
sI11
F10.52207
sI12
F11.67831
sI13
F9.764715
sI14
F10.31811
ssg34
(dp288
I0
F2458374.6799421296
sI1
F2458374.7001967593
sI2
F2458374.698703704
sI3
F2458374.7174305557
sI4
F2458374.681435185
sI5
F2458374.697222222
sI6
F2458374.6994560184
sI7
F2458374.716689815
sI8
F2458374.6784606483
sI9
F2458374.6806944446
sI10
F2458374.71818287
sI11
F2458374.697974537
sI12
F2458374.718912037
sI13
F2458374.6792013887
sI14
F2458374.715949074
ssg36
(dp289
I0
F2.0717772866666673
sI1
Fnan
sI2
Fnan
sI3
Fnan
sI4
Fnan
sI5
Fnan
sI6
Fnan
sI7
Fnan
sI8
Fnan
sI9
Fnan
sI10
Fnan
sI11
Fnan
sI12
Fnan
sI13
Fnan
sI14
Fnan
ssg38
(dp290
I0
F2.6667210666666668
sI1
Fnan
sI2
Fnan
sI3
Fnan
sI4
Fnan
sI5
Fnan
sI6
Fnan
sI7
Fnan
sI8
Fnan
sI9
Fnan
sI10
Fnan
sI11
Fnan
sI12
Fnan
sI13
Fnan
sI14
Fnan
ssg40
(dp291
I0
F0.3709373472812343
sI1
F0.3716215424679935
sI2
F0.37021171880446857
sI3
F0.3622241680396027
sI4
F0.36646223459878474
sI5
F0.37617464014980784
sI6
F0.3676054923969994
sI7
F0.37169587348415273
sI8
F0.37010708283750315
sI9
F0.36491234318229926
sI10
F0.36520781006964365
sI11
F0.37151328272313194
sI12
F0.3636533013942288
sI13
F0.3680549711925301
sI14
F0.36686980351580073
ssg42
(dp292
I0
F0.0027074066515657053
sI1
Fnan
sI2
Fnan
sI3
Fnan
sI4
Fnan
sI5
Fnan
sI6
Fnan
sI7
Fnan
sI8
Fnan
sI9
Fnan
sI10
Fnan
sI11
Fnan
sI12
Fnan
sI13
Fnan
sI14
Fnan
ssg44
(dp293
I0
F1.2572718
sI1
Fnan
sI2
Fnan
sI3
Fnan
sI4
Fnan
sI5
Fnan
sI6
Fnan
sI7
Fnan
sI8
Fnan
sI9
Fnan
sI10
Fnan
sI11
Fnan
sI12
Fnan
sI13
Fnan
sI14
Fnan
ssg46
(dp294
I0
g267
sI1
g268
sI2
g269
sI3
g270
sI4
g271
sI5
g272
sI6
g273
sI7
g274
sI8
g275
sI9
g276
sI10
g277
sI11
g278
sI12
g279
sI13
g280
sI14
g281
ssg48
(dp295
I0
F0.004843779326323026
sI1
Fnan
sI2
Fnan
sI3
Fnan
sI4
Fnan
sI5
Fnan
sI6
Fnan
sI7
Fnan
sI8
Fnan
sI9
Fnan
sI10
Fnan
sI11
Fnan
sI12
Fnan
sI13
Fnan
sI14
Fnan
ssg50
(dp296
I0
F0.031629552185077923
sI1
Fnan
sI2
Fnan
sI3
Fnan
sI4
Fnan
sI5
Fnan
sI6
Fnan
sI7
Fnan
sI8
Fnan
sI9
Fnan
sI10
Fnan
sI11
Fnan
sI12
Fnan
sI13
Fnan
sI14
Fnan
ssg52
(dp297
I0
F1.4164336666666666
sI1
Fnan
sI2
Fnan
sI3
Fnan
sI4
Fnan
sI5
Fnan
sI6
Fnan
sI7
Fnan
sI8
Fnan
sI9
Fnan
sI10
Fnan
sI11
Fnan
sI12
Fnan
sI13
Fnan
sI14
Fnan
ssg54
(dp298
I0
F1.509388843621019
sI1
F1.501007541150046
sI2
F1.5098235859298912
sI3
F1.512202512080908
sI4
F1.517289343272648
sI5
F1.51387202631576
sI6
F1.5054439632247982
sI7
F1.5077091827183753
sI8
F1.5047784165717488
sI9
F1.5343198322034355
sI10
F1.4913931333055042
sI11
F1.5021829666361268
sI12
F1.5054865278195764
sI13
F1.5019537891935526
sI14
F1.5023047852836597
ssg56
(dp299
I0
g267
sI1
g268
sI2
g269
sI3
g270
sI4
g271
sI5
g272
sI6
g273
sI7
g274
sI8
g275
sI9
g276
sI10
g277
sI11
g278
sI12
g279
sI13
g280
sI14
g281
ssg58
(dp300
I0
F11.27198
sI1
F10.17322
sI2
F10.95172
sI3
F12.44415
sI4
F12.0052
sI5
F11.7587
sI6
F11.1238
sI7
F11.16983
sI8
F10.61206
sI9
F10.84615
sI10
F11.83288
sI11
F11.1006
sI12
F12.51227
sI13
F10.85715
sI14
F11.16395
ssg60
(dp301
I0
F11.905333333333335
sI1
Fnan
sI2
Fnan
sI3
Fnan
sI4
Fnan
sI5
Fnan
sI6
Fnan
sI7
Fnan
sI8
Fnan
sI9
Fnan
sI10
Fnan
sI11
Fnan
sI12
Fnan
sI13
Fnan
sI14
Fnan
ssg62
(dp302
I0
F0.6870456199191083
sI1
Fnan
sI2
Fnan
sI3
Fnan
sI4
Fnan
sI5
Fnan
sI6
Fnan
sI7
Fnan
sI8
Fnan
sI9
Fnan
sI10
Fnan
sI11
Fnan
sI12
Fnan
sI13
Fnan
sI14
Fnan
ssg64
(dp303
I0
F3.167155
sI1
F2.868635
sI2
F2.550968
sI3
F3.522229
sI4
F3.174164
sI5
F3.785829
sI6
F2.605351
sI7
F2.831842
sI8
F2.189724
sI9
F1.725362
sI10
F-2.552179
sI11
F4.177384
sI12
F3.239218
sI13
F2.807549
sI14
F3.907585
ssg66
(dp304
I0
F12.245000000000001
sI1
Fnan
sI2
Fnan
sI3
Fnan
sI4
Fnan
sI5
Fnan
sI6
Fnan
sI7
Fnan
sI8
Fnan
sI9
Fnan
sI10
Fnan
sI11
Fnan
sI12
Fnan
sI13
Fnan
sI14
Fnan
ssg68
(dp305
I0
g267
sI1
g268
sI2
g269
sI3
g270
sI4
g271
sI5
g272
sI6
g273
sI7
g274
sI8
g275
sI9
g276
sI10
g277
sI11
g278
sI12
g279
sI13
g280
sI14
g281
ssg70
(dp306
I0
F3282.199333333333
sI1
F3216.2026666666666
sI2
F3269.9403333333335
sI3
F2979.148333333333
sI4
F3171.678
sI5
F3245.9956666666667
sI6
F3259.3346666666666
sI7
F3182.822
sI8
F3186.1006666666667
sI9
F3146.4836666666665
sI10
F3131.661333333333
sI11
F3205.279666666667
sI12
F2992.928
sI13
F3254.1690000000003
sI14
F3152.625
ssg72
(dp307
I0
F1.00475
sI1
F1.010744
sI2
F1.0099879999999999
sI3
F1.023188
sI4
F1.0048780000000002
sI5
F1.009288
sI6
F1.010362
sI7
F1.022507
sI8
F1.0046700000000002
sI9
F1.004808
sI10
F1.023876
sI11
F1.00963
sI12
F1.024584
sI13
F1.004704
sI14
F1.021847
ssg74
(dp308
I0
F2697.8413333333333
sI1
F2619.2909999999997
sI2
F2671.9326666666666
sI3
F2440.0773333333336
sI4
F2574.9736666666668
sI5
F2667.824333333333
sI6
F2667.811666666667
sI7
F2593.5793333333336
sI8
F2582.9303333333332
sI9
F2520.6963333333333
sI10
F2503.432333333333
sI11
F2610.811666666667
sI12
F2434.3053333333332
sI13
F2643.686666666667
sI14
F2540.7470000000003
ssg76
(dp309
I0
F4513.1033333333335
sI1
F4379.5599999999995
sI2
F4485.59
sI3
F4097.483333333334
sI4
F4359.666666666667
sI5
F4476.383333333333
sI6
F4461.493333333333
sI7
F4354.566666666667
sI8
F4340.556666666666
sI9
F4347.633333333333
sI10
F4202.070000000001
sI11
F4368.416666666667
sI12
F4085.313333333333
sI13
F4429.153333333334
sI14
F4276.59
ssg78
(dp310
I0
F10.90746
sI1
F10.64002
sI2
F11.39593
sI3
F11.97097
sI4
F11.30608
sI5
F11.289
sI6
F10.53405
sI7
F10.78903
sI8
F10.66881
sI9
F12.19431
sI10
F12.07377
sI11
F11.29355
sI12
F12.05675
sI13
F10.97465
sI14
F11.91677
ssg80
(dp311
I0
F12.422
sI1
F12.455
sI2
F12.433
sI3
F12.531
sI4
F12.473
sI5
F12.435
sI6
F12.435
sI7
F12.465
sI8
F12.47
sI9
F12.496
sI10
F12.504
sI11
F12.458
sI12
F12.534
sI13
F12.444
sI14
F12.488
ssg82
(dp312
I0
F0.003
sI1
F0.003
sI2
F0.003
sI3
F0.003
sI4
F0.003
sI5
F0.003
sI6
F0.003
sI7
F0.003
sI8
F0.003
sI9
F0.003
sI10
F0.003
sI11
F0.003
sI12
F0.003
sI13
F0.003
sI14
F0.003
ssg84
(dp313
I0
F0.3684834408092121
sI1
Fnan
sI2
Fnan
sI3
Fnan
sI4
Fnan
sI5
Fnan
sI6
Fnan
sI7
Fnan
sI8
Fnan
sI9
Fnan
sI10
Fnan
sI11
Fnan
sI12
Fnan
sI13
Fnan
sI14
Fnan
ssg86
(dp314
I0
F12.469533333333333
sI1
Fnan
sI2
Fnan
sI3
Fnan
sI4
Fnan
sI5
Fnan
sI6
Fnan
sI7
Fnan
sI8
Fnan
sI9
Fnan
sI10
Fnan
sI11
Fnan
sI12
Fnan
sI13
Fnan
sI14
Fnan
ssg88
(dp315
I0
F12.21
sI1
F12.232
sI2
F12.214
sI3
F12.315
sI4
F12.247
sI5
F12.222
sI6
F12.217
sI7
F12.243
sI8
F12.242
sI9
F12.255
sI10
F12.261
sI11
F12.235
sI12
F12.31
sI13
F12.219
sI14
F12.253
ssg90
(dp316
I0
F3.937165
sI1
F2.013719
sI2
F2.651443
sI3
F4.185257
sI4
F3.642928
sI5
F1.846282
sI6
F3.132634
sI7
F2.877997
sI8
F0.9973993
sI9
F1.56456
sI10
F2.775635
sI11
F-3.585644
sI12
F2.31756
sI13
F4.069895
sI14
F-1.350171
ssg92
(dp317
I0
F0.033294501190494034
sI1
Fnan
sI2
Fnan
sI3
Fnan
sI4
Fnan
sI5
Fnan
sI6
Fnan
sI7
Fnan
sI8
Fnan
sI9
Fnan
sI10
Fnan
sI11
Fnan
sI12
Fnan
sI13
Fnan
sI14
Fnan
ssg94
(dp318
I0
F0.6921710288093155
sI1
F0.6896716274442136
sI2
F0.6890393182224245
sI3
F0.6896154691297344
sI4
F0.6838018390164412
sI5
F0.6909332819156722
sI6
F0.691068799011367
sI7
F0.6881904192636832
sI8
F0.6863419494054289
sI9
F0.672713365252593
sI10
F0.682717219801798
sI11
F0.6894418661006962
sI12
F0.6878277297128985
sI13
F0.6881623735079535
sI14
F0.6839880121924053
ssg96
(dp319
I0
F30.0
sI1
F30.0
sI2
F30.0
sI3
F30.0
sI4
F30.0
sI5
F30.0
sI6
F30.0
sI7
F30.0
sI8
F30.0
sI9
F30.0
sI10
F30.0
sI11
F30.0
sI12
F30.0
sI13
F30.0
sI14
F30.0
ssg98
(dp320
I0
F0.004
sI1
F0.004
sI2
F0.004
sI3
F0.004
sI4
F0.004
sI5
F0.004
sI6
F0.004
sI7
F0.004
sI8
F0.004
sI9
F0.004
sI10
F0.004
sI11
F0.004
sI12
F0.004
sI13
F0.004
sI14
F0.004
ssg100
(dp321
I0
F0.004
sI1
F0.004
sI2
F0.004
sI3
F0.004
sI4
F0.004
sI5
F0.004
sI6
F0.004
sI7
F0.004
sI8
F0.004
sI9
F0.004
sI10
F0.004
sI11
F0.004
sI12
F0.004
sI13
F0.004
sI14
F0.004
ssg102
(dp322
I0
F3.315849
sI1
F3.327756
sI2
F3.89942
sI3
F2.198525
sI4
F-2.121902
sI5
F1.604664
sI6
F-3.519602
sI7
F-2.746123
sI8
F2.301904
sI9
F2.791913
sI10
F3.717624
sI11
F-2.596543
sI12
F2.322217
sI13
F3.418458
sI14
F3.332345
ssg104
(dp323
I0
S"KIC8462852-20180913at041907_-25-1X1-030-z'_cal.fts.mag.1"
p324
sI1
S"KIC8462852-20180913at044817_-25-1X1-030-z'_cal.fts.mag.1"
p325
sI2
S"KIC8462852-20180913at044608_-25-1X1-030-z'_cal.fts.mag.1"
p326
sI3
S"KIC8462852-20180913at051306_-25-1X1-030-z'_cal.fts.mag.1"
p327
sI4
S"KIC8462852-20180913at042115_-25-1X1-030-z'_cal.fts.mag.1"
p328
sI5
S"KIC8462852-20180913at044359_-25-1X1-030-z'_cal.fts.mag.1"
p329
sI6
S"KIC8462852-20180913at044712_-25-1X1-030-z'_cal.fts.mag.1"
p330
sI7
S"KIC8462852-20180913at051202_-25-1X1-030-z'_cal.fts.mag.1"
p331
sI8
S"KIC8462852-20180913at041658_-25-1X1-030-z'_cal.fts.mag.1"
p332
sI9
S"KIC8462852-20180913at042012_-25-1X1-030-z'_cal.fts.mag.1"
p333
sI10
S"KIC8462852-20180913at051411_-25-1X1-030-z'_cal.fts.mag.1"
p334
sI11
S"KIC8462852-20180913at044505_-25-1X1-030-z'_cal.fts.mag.1"
p335
sI12
S"KIC8462852-20180913at051514_-25-1X1-030-z'_cal.fts.mag.1"
p336
sI13
S"KIC8462852-20180913at041803_-25-1X1-030-z'_cal.fts.mag.1"
p337
sI14
S"KIC8462852-20180913at051057_-25-1X1-030-z'_cal.fts.mag.1"
p338
ssg121
(dp339
I0
F0.00958868654873261
sI1
Fnan
sI2
Fnan
sI3
Fnan
sI4
Fnan
sI5
Fnan
sI6
Fnan
sI7
Fnan
sI8
Fnan
sI9
Fnan
sI10
Fnan
sI11
Fnan
sI12
Fnan
sI13
Fnan
sI14
Fnan
ssg123
(dp340
I0
F1297.433
sI1
F1265.378
sI2
F1286.7896666666668
sI3
F1149.0606666666667
sI4
F1234.5279999999998
sI5
F1302.8436666666666
sI6
F1272.9736666666665
sI7
F1255.213
sI8
F1247.21
sI9
F1218.1763333333333
sI10
F1197.5363333333332
sI11
F1261.2266666666667
sI12
F1153.0896666666667
sI13
F1266.969
sI14
F1219.2259999999999
ssg125
(dp341
I0
F0.035022169849288035
sI1
Fnan
sI2
Fnan
sI3
Fnan
sI4
Fnan
sI5
Fnan
sI6
Fnan
sI7
Fnan
sI8
Fnan
sI9
Fnan
sI10
Fnan
sI11
Fnan
sI12
Fnan
sI13
Fnan
sI14
Fnan
ssg127
(dp342
I0
S"z'"
p343
sI1
S"z'"
p344
sI2
S"z'"
p345
sI3
S"z'"
p346
sI4
S"z'"
p347
sI5
S"z'"
p348
sI6
S"z'"
p349
sI7
S"z'"
p350
sI8
S"z'"
p351
sI9
S"z'"
p352
sI10
S"z'"
p353
sI11
S"z'"
p354
sI12
S"z'"
p355
sI13
S"z'"
p356
sI14
S"z'"
p357
ssg144
(dp358
I0
F0.0037204207436077243
sI1
Fnan
sI2
Fnan
sI3
Fnan
sI4
Fnan
sI5
Fnan
sI6
Fnan
sI7
Fnan
sI8
Fnan
sI9
Fnan
sI10
Fnan
sI11
Fnan
sI12
Fnan
sI13
Fnan
sI14
Fnan
ssg146
(dp359
I0
F3.462214
sI1
F3.132182
sI2
F3.715475
sI3
F-2.084266
sI4
F3.39967
sI5
F-2.529377
sI6
F4.131025
sI7
F-3.758257
sI8
F-3.436202
sI9
F1.718144
sI10
F3.729658
sI11
F4.122783
sI12
F-3.541444
sI13
F3.154393
sI14
F3.643079
ssg148
(dp360
I0
F1.5079437632884702
sI1
Fnan
sI2
Fnan
sI3
Fnan
sI4
Fnan
sI5
Fnan
sI6
Fnan
sI7
Fnan
sI8
Fnan
sI9
Fnan
sI10
Fnan
sI11
Fnan
sI12
Fnan
sI13
Fnan
sI14
Fnan
ssg150
(dp361
I0
F2458374.698703704
sI1
Fnan
sI2
Fnan
sI3
Fnan
sI4
Fnan
sI5
Fnan
sI6
Fnan
sI7
Fnan
sI8
Fnan
sI9
Fnan
sI10
Fnan
sI11
Fnan
sI12
Fnan
sI13
Fnan
sI14
Fnan
ssg152
(dp362
I0
F0.0037204207436077243
sI1
Fnan
sI2
Fnan
sI3
Fnan
sI4
Fnan
sI5
Fnan
sI6
Fnan
sI7
Fnan
sI8
Fnan
sI9
Fnan
sI10
Fnan
sI11
Fnan
sI12
Fnan
sI13
Fnan
sI14
Fnan
ssg154
(dp363
I0
F10.566
sI1
F11.52893
sI2
F11.801
sI3
F12.42244
sI4
F11.5717
sI5
F11.16874
sI6
F11.96931
sI7
F11.88564
sI8
F11.60558
sI9
F12.35828
sI10
F12.62779
sI11
F12.62087
sI12
F13.42136
sI13
F11.54622
sI14
F12.9841
ssg156
(dp364
I0
F11.864
sI1
F11.896
sI2
F11.87
sI3
F11.969
sI4
F11.901
sI5
F11.873
sI6
F11.876
sI7
F11.903
sI8
F11.906
sI9
F11.904
sI10
F11.941
sI11
F11.899
sI12
F11.972
sI13
F11.884
sI14
F11.922
ssg158
(dp365
I0
F0.3684834408092121
sI1
Fnan
sI2
Fnan
sI3
Fnan
sI4
Fnan
sI5
Fnan
sI6
Fnan
sI7
Fnan
sI8
Fnan
sI9
Fnan
sI10
Fnan
sI11
Fnan
sI12
Fnan
sI13
Fnan
sI14
Fnan
sssS'g'
p366
(dp367
g3
(dp368
I0
F0.8694264889007896
sI1
Fnan
sI2
Fnan
sI3
Fnan
sI4
Fnan
sI5
Fnan
sI6
Fnan
sI7
Fnan
sI8
Fnan
sI9
Fnan
sI10
Fnan
sI11
Fnan
sI12
Fnan
sI13
Fnan
sI14
Fnan
ssg5
(dp369
I0
S'NoError'
p370
sI1
S'NoError'
p371
sI2
S'NoError'
p372
sI3
S'NoError'
p373
sI4
S'NoError'
p374
sI5
S'NoError'
p375
sI6
S'NoError'
p376
sI7
S'NoError'
p377
sI8
S'NoError'
p378
sI9
S'NoError'
p379
sI10
S'NoError'
p380
sI11
S'NoError'
p381
sI12
S'NoError'
p382
sI13
S'NoError'
p383
sI14
S'NoError'
p384
ssg22
(dp385
I0
F0.002
sI1
F0.002
sI2
F0.002
sI3
F0.002
sI4
F0.002
sI5
F0.002
sI6
F0.002
sI7
F0.002
sI8
F0.002
sI9
F0.002
sI10
F0.002
sI11
F0.002
sI12
F0.002
sI13
F0.002
sI14
F0.002
ssg24
(dp386
I0
F0.886219052234757
sI1
F0.8776852575998815
sI2
F0.8834422131577429
sI3
F0.8784922249000303
sI4
F0.8878331419385903
sI5
F0.8810132069198243
sI6
F0.8810922542832493
sI7
F0.8847812465237304
sI8
F0.8774492888449663
sI9
F0.8810752260787381
sI10
F0.8789776295984136
sI11
F0.8735846979620857
sI12
F0.8799620438250941
sI13
F0.8776570001220125
sI14
F0.8706414315290248
ssg26
(dp387
I0
F0.004531885303659444
sI1
Fnan
sI2
Fnan
sI3
Fnan
sI4
Fnan
sI5
Fnan
sI6
Fnan
sI7
Fnan
sI8
Fnan
sI9
Fnan
sI10
Fnan
sI11
Fnan
sI12
Fnan
sI13
Fnan
sI14
Fnan
ssg28
(dp388
I0
F0.8799937277012094
sI1
Fnan
sI2
Fnan
sI3
Fnan
sI4
Fnan
sI5
Fnan
sI6
Fnan
sI7
Fnan
sI8
Fnan
sI9
Fnan
sI10
Fnan
sI11
Fnan
sI12
Fnan
sI13
Fnan
sI14
Fnan
ssg30
(dp389
I0
F11.316
sI1
F11.323
sI2
F11.374
sI3
F11.319
sI4
F11.439
sI5
F11.367
sI6
F11.373
sI7
F11.324
sI8
F11.338
sI9
F11.326
sI10
F11.408
sI11
F11.323
sI12
F11.359
sI13
F11.365
sI14
F11.44
ssg32
(dp390
I0
F9.629243
sI1
F9.980187
sI2
F10.26928
sI3
F10.648
sI4
F12.31257
sI5
F10.40751
sI6
F10.48602
sI7
F9.582214
sI8
F9.592414
sI9
F10.38751
sI10
F11.22811
sI11
F9.691272
sI12
F11.15777
sI13
F10.27889
sI14
F12.0538
ssg34
(dp391
I0
F2458374.704861111
sI1
F2458374.6875925926
sI2
F2458374.686122685
sI3
F2458374.670335648
sI4
F2458374.669583333
sI5
F2458374.7070717593
sI6
F2458374.686863426
sI7
F2458374.7063425924
sI8
F2458374.7078125
sI9
F2458374.6890625
sI10
F2458374.6672685184
sI11
F2458374.6883217595
sI12
F2458374.705601852
sI13
F2458374.6680092593
sI14
F2458374.6688194443
ssg36
(dp392
I0
F2.017851666666667
sI1
Fnan
sI2
Fnan
sI3
Fnan
sI4
Fnan
sI5
Fnan
sI6
Fnan
sI7
Fnan
sI8
Fnan
sI9
Fnan
sI10
Fnan
sI11
Fnan
sI12
Fnan
sI13
Fnan
sI14
Fnan
ssg38
(dp393
I0
F-0.38840660000000005
sI1
Fnan
sI2
Fnan
sI3
Fnan
sI4
Fnan
sI5
Fnan
sI6
Fnan
sI7
Fnan
sI8
Fnan
sI9
Fnan
sI10
Fnan
sI11
Fnan
sI12
Fnan
sI13
Fnan
sI14
Fnan
ssg40
(dp394
I0
F0.8708504400952302
sI1
F0.8739437327478691
sI2
F0.8686004768310234
sI3
F0.8697813025877041
sI4
F0.8626366974524502
sI5
F0.8665162013370353
sI6
F0.8683406418251398
sI7
F0.8715814124831025
sI8
F0.8677746200241191
sI9
F0.877067331463351
sI10
F0.8657489480437256
sI11
F0.8772605247798265
sI12
F0.8713915053259556
sI13
F0.8671072132172591
sI14
F0.8714813722913106
ssg42
(dp395
I0
F0.0023673068986387285
sI1
Fnan
sI2
Fnan
sI3
Fnan
sI4
Fnan
sI5
Fnan
sI6
Fnan
sI7
Fnan
sI8
Fnan
sI9
Fnan
sI10
Fnan
sI11
Fnan
sI12
Fnan
sI13
Fnan
sI14
Fnan
ssg44
(dp396
I0
F1.9302268666666662
sI1
Fnan
sI2
Fnan
sI3
Fnan
sI4
Fnan
sI5
Fnan
sI6
Fnan
sI7
Fnan
sI8
Fnan
sI9
Fnan
sI10
Fnan
sI11
Fnan
sI12
Fnan
sI13
Fnan
sI14
Fnan
ssg46
(dp397
I0
g370
sI1
g371
sI2
g372
sI3
g373
sI4
g374
sI5
g375
sI6
g376
sI7
g377
sI8
g378
sI9
g379
sI10
g380
sI11
g381
sI12
g382
sI13
g383
sI14
g384
ssg48
(dp398
I0
F0.005071297163306377
sI1
Fnan
sI2
Fnan
sI3
Fnan
sI4
Fnan
sI5
Fnan
sI6
Fnan
sI7
Fnan
sI8
Fnan
sI9
Fnan
sI10
Fnan
sI11
Fnan
sI12
Fnan
sI13
Fnan
sI14
Fnan
ssg50
(dp399
I0
F0.03966910756795638
sI1
Fnan
sI2
Fnan
sI3
Fnan
sI4
Fnan
sI5
Fnan
sI6
Fnan
sI7
Fnan
sI8
Fnan
sI9
Fnan
sI10
Fnan
sI11
Fnan
sI12
Fnan
sI13
Fnan
sI14
Fnan
ssg52
(dp400
I0
F2.2084254000000003
sI1
Fnan
sI2
Fnan
sI3
Fnan
sI4
Fnan
sI5
Fnan
sI6
Fnan
sI7
Fnan
sI8
Fnan
sI9
Fnan
sI10
Fnan
sI11
Fnan
sI12
Fnan
sI13
Fnan
sI14
Fnan
ssg54
(dp401
I0
F1.504675908948758
sI1
F1.5235124831890874
sI2
F1.5109337184353144
sI3
F1.5036438508908678
sI4
F1.5162898997445577
sI5
F1.5228713420102915
sI6
F1.517343138122657
sI7
F1.5102228810224758
sI8
F1.5290319988088625
sI9
F1.5111969695534038
sI10
F1.5123276941893498
sI11
F1.5111609615661434
sI12
F1.5238276213613908
sI13
F1.5183035953567112
sI14
F1.5438320648992223
ssg56
(dp402
I0
g370
sI1
g371
sI2
g372
sI3
g373
sI4
g374
sI5
g375
sI6
g376
sI7
g377
sI8
g378
sI9
g379
sI10
g380
sI11
g381
sI12
g382
sI13
g383
sI14
g384
ssg58
(dp403
I0
F9.161304
sI1
F10.08979
sI2
F11.12003
sI3
F9.522331
sI4
F12.89167
sI5
F10.83279
sI6
F10.36893
sI7
F9.410382
sI8
F9.8547
sI9
F9.277651
sI10
F11.30226
sI11
F9.937463
sI12
F10.4437
sI13
F10.51124
sI14
F12.84511
ssg60
(dp404
I0
F10.9286
sI1
Fnan
sI2
Fnan
sI3
Fnan
sI4
Fnan
sI5
Fnan
sI6
Fnan
sI7
Fnan
sI8
Fnan
sI9
Fnan
sI10
Fnan
sI11
Fnan
sI12
Fnan
sI13
Fnan
sI14
Fnan
ssg62
(dp405
I0
F0.7139840978934265
sI1
Fnan
sI2
Fnan
sI3
Fnan
sI4
Fnan
sI5
Fnan
sI6
Fnan
sI7
Fnan
sI8
Fnan
sI9
Fnan
sI10
Fnan
sI11
Fnan
sI12
Fnan
sI13
Fnan
sI14
Fnan
ssg64
(dp406
I0
F3.558102
sI1
F2.356801
sI2
F-3.679327
sI3
F3.447033
sI4
F-1.994703
sI5
F-3.481403
sI6
F-4.368235
sI7
F3.491486
sI8
F-3.242272
sI9
F3.730777
sI10
F-3.519287
sI11
F-2.272498
sI12
F1.866449
sI13
F-3.708624
sI14
F1.989602
ssg66
(dp407
I0
F11.302933333333334
sI1
Fnan
sI2
Fnan
sI3
Fnan
sI4
Fnan
sI5
Fnan
sI6
Fnan
sI7
Fnan
sI8
Fnan
sI9
Fnan
sI10
Fnan
sI11
Fnan
sI12
Fnan
sI13
Fnan
sI14
Fnan
ssg68
(dp408
I0
g370
sI1
g371
sI2
g372
sI3
g373
sI4
g374
sI5
g375
sI6
g376
sI7
g377
sI8
g378
sI9
g379
sI10
g380
sI11
g381
sI12
g382
sI13
g383
sI14
g384
ssg70
(dp409
I0
F7908.596666666666
sI1
F7779.04
sI2
F7495.91
sI3
F7844.373333333334
sI4
F7135.95
sI5
F7547.283333333334
sI6
F7494.316666666667
sI7
F7834.453333333334
sI8
F7721.556666666667
sI9
F7743.746666666667
sI10
F7265.416666666667
sI11
F7724.276666666667
sI12
F7554.7733333333335
sI13
F7540.833333333333
sI14
F6961.259999999999
ssg72
(dp410
I0
F1.0134290000000001
sI1
F1.005934
sI2
F1.005608
sI3
F1.005099
sI4
F1.00521
sI5
F1.014879
sI6
F1.005765
sI7
F1.0143790000000001
sI8
F1.015383
sI9
F1.006311
sI10
F1.0056399999999999
sI11
F1.006117
sI12
F1.013903
sI13
F1.005492
sI14
F1.005341
ssg74
(dp411
I0
F6789.793333333333
sI1
F6698.163333333333
sI2
F6440.946666666667
sI3
F6827.833333333333
sI4
F6065.993333333333
sI5
F6464.283333333334
sI6
F6439.916666666667
sI7
F6719.5
sI8
F6628.873333333334
sI9
F6679.65
sI10
F6285.1033333333335
sI11
F6748.64
sI12
F6478.52
sI13
F6514.1466666666665
sI14
F5992.156666666667
ssg76
(dp412
I0
F11058.156666666668
sI1
F11028.1
sI2
F10528.833333333334
sI3
F11030.886666666665
sI4
F10008.986666666666
sI5
F10668.906666666668
sI6
F10571.506666666666
sI7
F10989.856666666667
sI8
F10971.133333333333
sI9
F10898.296666666667
sI10
F10246.413333333334
sI11
F10935.453333333333
sI12
F10692.16
sI13
F10669.863333333335
sI14
F9998.95
ssg78
(dp413
I0
F9.710401
sI1
F8.862997
sI2
F11.19922
sI3
F8.12576
sI4
F12.28622
sI5
F9.988169
sI6
F10.4264
sI7
F8.715075
sI8
F9.676427
sI9
F9.252623
sI10
F11.06718
sI11
F9.309733
sI12
F10.9772
sI13
F10.74742
sI14
F12.12169
ssg80
(dp414
I0
F11.42
sI1
F11.435
sI2
F11.478
sI3
F11.414
sI4
F11.543
sI5
F11.474
sI6
F11.478
sI7
F11.432
sI8
F11.446
sI9
F11.438
sI10
F11.504
sI11
F11.427
sI12
F11.471
sI13
F11.465
sI14
F11.556
ssg82
(dp415
I0
F0.002
sI1
F0.002
sI2
F0.002
sI3
F0.002
sI4
F0.002
sI5
F0.002
sI6
F0.002
sI7
F0.002
sI8
F0.002
sI9
F0.002
sI10
F0.002
sI11
F0.002
sI12
F0.002
sI13
F0.002
sI14
F0.002
ssg84
(dp416
I0
F0.8700054947003402
sI1
Fnan
sI2
Fnan
sI3
Fnan
sI4
Fnan
sI5
Fnan
sI6
Fnan
sI7
Fnan
sI8
Fnan
sI9
Fnan
sI10
Fnan
sI11
Fnan
sI12
Fnan
sI13
Fnan
sI14
Fnan
ssg86
(dp417
I0
F11.4654
sI1
Fnan
sI2
Fnan
sI3
Fnan
sI4
Fnan
sI5
Fnan
sI6
Fnan
sI7
Fnan
sI8
Fnan
sI9
Fnan
sI10
Fnan
sI11
Fnan
sI12
Fnan
sI13
Fnan
sI14
Fnan
ssg88
(dp418
I0
F11.255
sI1
F11.273
sI2
F11.313
sI3
F11.264
sI4
F11.366
sI5
F11.306
sI6
F11.313
sI7
F11.265
sI8
F11.281
sI9
F11.278
sI10
F11.347
sI11
F11.28
sI12
F11.304
sI13
F11.306
sI14
F11.393
ssg90
(dp419
I0
F-3.212405
sI1
F-2.652186
sI2
F2.946238
sI3
F2.300241
sI4
F5.094619
sI5
F3.741091
sI6
F1.714175
sI7
F3.898769
sI8
F3.382266
sI9
F4.771187
sI10
F4.691752
sI11
F-2.121897
sI12
F4.429515
sI13
F2.971567
sI14
F-1.687157
ssg92
(dp420
I0
F0.037130657337107846
sI1
Fnan
sI2
Fnan
sI3
Fnan
sI4
Fnan
sI5
Fnan
sI6
Fnan
sI7
Fnan
sI8
Fnan
sI9
Fnan
sI10
Fnan
sI11
Fnan
sI12
Fnan
sI13
Fnan
sI14
Fnan
ssg94
(dp421
I0
F0.7159679059462997
sI1
F0.712300044912021
sI2
F0.7146783227426448
sI3
F0.7234690630310082
sI4
F0.707613384787462
sI5
F0.7097294586116343
sI6
F0.712939183323502
sI7
F0.7139172697432203
sI8
F0.7092476613406987
sI9
F0.7166220870280134
sI10
F0.7178122827064142
sI11
F0.7233373687614988
sI12
F0.7100941162715927
sI13
F0.7154198201093899
sI14
F0.706613499085998
ssg96
(dp422
I0
F30.0
sI1
F30.0
sI2
F30.0
sI3
F30.0
sI4
F30.0
sI5
F30.0
sI6
F30.0
sI7
F30.0
sI8
F30.0
sI9
F30.0
sI10
F30.0
sI11
F30.0
sI12
F30.0
sI13
F30.0
sI14
F30.0
ssg98
(dp423
I0
F0.002
sI1
F0.002
sI2
F0.002
sI3
F0.002
sI4
F0.002
sI5
F0.002
sI6
F0.002
sI7
F0.002
sI8
F0.002
sI9
F0.002
sI10
F0.002
sI11
F0.002
sI12
F0.002
sI13
F0.002
sI14
F0.002
ssg100
(dp424
I0
F0.002
sI1
F0.002
sI2
F0.002
sI3
F0.002
sI4
F0.002
sI5
F0.002
sI6
F0.002
sI7
F0.002
sI8
F0.002
sI9
F0.002
sI10
F0.002
sI11
F0.002
sI12
F0.002
sI13
F0.002
sI14
F0.002
ssg102
(dp425
I0
F-1.439436
sI1
F2.834923
sI2
F3.294106
sI3
F3.519385
sI4
F3.133051
sI5
F2.302411
sI6
F3.168276
sI7
F3.907116
sI8
F3.009387
sI9
F3.640222
sI10
F3.797913
sI11
F-2.124192
sI12
F-2.250042
sI13
F2.905641
sI14
F3.42762
ssg104
(dp426
I0
S"KIC8462852-20180913at045455_-25-1X1-030-g'_cal.fts.mag.1"
p427
sI1
S"KIC8462852-20180913at043008_-25-1X1-030-g'_cal.fts.mag.1"
p428
sI2
S"KIC8462852-20180913at042756_-25-1X1-030-g'_cal.fts.mag.1"
p429
sI3
S"KIC8462852-20180913at040517_-25-1X1-030-g'_cal.fts.mag.1"
p430
sI4
S"KIC8462852-20180913at040412_-25-1X1-030-g'_cal.fts.mag.1"
p431
sI5
S"KIC8462852-20180913at045811_-25-1X1-030-g'_cal.fts.mag.1"
p432
sI6
S"KIC8462852-20180913at042905_-25-1X1-030-g'_cal.fts.mag.1"
p433
sI7
S"KIC8462852-20180913at045708_-25-1X1-030-g'_cal.fts.mag.1"
p434
sI8
S"KIC8462852-20180913at045915_-25-1X1-030-g'_cal.fts.mag.1"
p435
sI9
S"KIC8462852-20180913at043215_-25-1X1-030-g'_cal.fts.mag.1"
p436
sI10
S"KIC8462852-20180913at040045_-25-1X1-030-g'_cal.fts.mag.1"
p437
sI11
S"KIC8462852-20180913at043111_-25-1X1-030-g'_cal.fts.mag.1"
p438
sI12
S"KIC8462852-20180913at045604_-25-1X1-030-g'_cal.fts.mag.1"
p439
sI13
S"KIC8462852-20180913at040156_-25-1X1-030-g'_cal.fts.mag.1"
p440
sI14
S"KIC8462852-20180913at040306_-25-1X1-030-g'_cal.fts.mag.1"
p441
ssg121
(dp442
I0
F0.010323305904542055
sI1
Fnan
sI2
Fnan
sI3
Fnan
sI4
Fnan
sI5
Fnan
sI6
Fnan
sI7
Fnan
sI8
Fnan
sI9
Fnan
sI10
Fnan
sI11
Fnan
sI12
Fnan
sI13
Fnan
sI14
Fnan
ssg123
(dp443
I0
F7476.7
sI1
F7430.066666666667
sI2
F7083.636666666667
sI3
F7452.0233333333335
sI4
F6674.2
sI5
F7128.676666666666
sI6
F7093.11
sI7
F7421.17
sI8
F7324.47
sI9
F7402.943333333333
sI10
F6867.39
sI11
F7429.92
sI12
F7181.85
sI13
F7146.363333333333
sI14
F6667.52
ssg125
(dp444
I0
F0.04266781992488993
sI1
Fnan
sI2
Fnan
sI3
Fnan
sI4
Fnan
sI5
Fnan
sI6
Fnan
sI7
Fnan
sI8
Fnan
sI9
Fnan
sI10
Fnan
sI11
Fnan
sI12
Fnan
sI13
Fnan
sI14
Fnan
ssg127
(dp445
I0
S"g'"
p446
sI1
S"g'"
p447
sI2
S"g'"
p448
sI3
S"g'"
p449
sI4
S"g'"
p450
sI5
S"g'"
p451
sI6
S"g'"
p452
sI7
S"g'"
p453
sI8
S"g'"
p454
sI9
S"g'"
p455
sI10
S"g'"
p456
sI11
S"g'"
p457
sI12
S"g'"
p458
sI13
S"g'"
p459
sI14
S"g'"
p460
ssg144
(dp461
I0
F0.004036236302204282
sI1
Fnan
sI2
Fnan
sI3
Fnan
sI4
Fnan
sI5
Fnan
sI6
Fnan
sI7
Fnan
sI8
Fnan
sI9
Fnan
sI10
Fnan
sI11
Fnan
sI12
Fnan
sI13
Fnan
sI14
Fnan
ssg146
(dp462
I0
F2.445689
sI1
F3.859944
sI2
F-2.07158
sI3
F2.672862
sI4
F3.654409
sI5
F3.291579
sI6
F2.561169
sI7
F1.911239
sI8
F3.893992
sI9
F3.116152
sI10
F3.717693
sI11
F-2.356608
sI12
F2.782694
sI13
F-2.763992
sI14
F2.238161
ssg148
(dp463
I0
F1.5172782752066065
sI1
Fnan
sI2
Fnan
sI3
Fnan
sI4
Fnan
sI5
Fnan
sI6
Fnan
sI7
Fnan
sI8
Fnan
sI9
Fnan
sI10
Fnan
sI11
Fnan
sI12
Fnan
sI13
Fnan
sI14
Fnan
ssg150
(dp464
I0
F2458374.6875925926
sI1
Fnan
sI2
Fnan
sI3
Fnan
sI4
Fnan
sI5
Fnan
sI6
Fnan
sI7
Fnan
sI8
Fnan
sI9
Fnan
sI10
Fnan
sI11
Fnan
sI12
Fnan
sI13
Fnan
sI14
Fnan
ssg152
(dp465
I0
F0.004036236302204282
sI1
Fnan
sI2
Fnan
sI3
Fnan
sI4
Fnan
sI5
Fnan
sI6
Fnan
sI7
Fnan
sI8
Fnan
sI9
Fnan
sI10
Fnan
sI11
Fnan
sI12
Fnan
sI13
Fnan
sI14
Fnan
ssg154
(dp466
I0
F11.19411
sI1
F11.67075
sI2
F12.27703
sI3
F10.98186
sI4
F14.78558
sI5
F11.8586
sI6
F12.77747
sI7
F10.69279
sI8
F12.15188
sI9
F11.40637
sI10
F12.7801
sI11
F12.30734
sI12
F12.47865
sI13
F12.27277
sI14
F16.09884
ssg156
(dp467
I0
F10.891
sI1
F10.894
sI2
F10.944
sI3
F10.893
sI4
F10.999
sI5
F10.93
sI6
F10.94
sI7
F10.898
sI8
F10.899
sI9
F10.907
sI10
F10.974
sI11
F10.903
sI12
F10.927
sI13
F10.93
sI14
F11.0
ssg158
(dp468
I0
F0.8700054947003402
sI1
Fnan
sI2
Fnan
sI3
Fnan
sI4
Fnan
sI5
Fnan
sI6
Fnan
sI7
Fnan
sI8
Fnan
sI9
Fnan
sI10
Fnan
sI11
Fnan
sI12
Fnan
sI13
Fnan
sI14
Fnan
sssS'V'
p469
(dp470
g3
(dp471
I0
F0.6925166296767709
sI1
Fnan
sI2
Fnan
sI3
Fnan
sI4
Fnan
sI5
Fnan
sI6
Fnan
sI7
Fnan
sI8
Fnan
sI9
Fnan
sI10
Fnan
sI11
Fnan
sI12
Fnan
sI13
Fnan
sI14
Fnan
ssg5
(dp472
I0
S'NoError'
p473
sI1
S'NoError'
p474
sI2
S'NoError'
p475
sI3
S'NoError'
p476
sI4
S'NoError'
p477
sI5
S'NoError'
p478
sI6
S'NoError'
p479
sI7
S'NoError'
p480
sI8
S'NoError'
p481
sI9
S'NoError'
p482
sI10
S'NoError'
p483
sI11
S'NoError'
p484
sI12
S'NoError'
p485
sI13
S'NoError'
p486
sI14
S'NoError'
p487
ssg22
(dp488
I0
F0.002
sI1
F0.002
sI2
F0.002
sI3
F0.002
sI4
F0.002
sI5
F0.002
sI6
F0.002
sI7
F0.002
sI8
F0.002
sI9
F0.002
sI10
F0.002
sI11
F0.002
sI12
F0.002
sI13
F0.002
sI14
F0.002
ssg24
(dp489
I0
F0.8902534589847356
sI1
F0.8866825097165343
sI2
F0.8803606127889723
sI3
F0.882370770473372
sI4
F0.8840473582114372
sI5
F0.8940410201349226
sI6
F0.8866298221849155
sI7
F0.8845171520078957
sI8
F0.884548705854912
sI9
F0.8884492898340269
sI10
F0.8929295062000662
sI11
F0.8910383595304942
sI12
F0.8924223241355855
sI13
F0.888416195829823
sI14
F0.885338439817999
ssg26
(dp490
I0
F0.004064023514022241
sI1
Fnan
sI2
Fnan
sI3
Fnan
sI4
Fnan
sI5
Fnan
sI6
Fnan
sI7
Fnan
sI8
Fnan
sI9
Fnan
sI10
Fnan
sI11
Fnan
sI12
Fnan
sI13
Fnan
sI14
Fnan
ssg28
(dp491
I0
F0.8874697017137128
sI1
Fnan
sI2
Fnan
sI3
Fnan
sI4
Fnan
sI5
Fnan
sI6
Fnan
sI7
Fnan
sI8
Fnan
sI9
Fnan
sI10
Fnan
sI11
Fnan
sI12
Fnan
sI13
Fnan
sI14
Fnan
ssg30
(dp492
I0
F11.447
sI1
F11.414
sI2
F11.416
sI3
F11.359
sI4
F11.442
sI5
F11.404
sI6
F11.381
sI7
F11.364
sI8
F11.348
sI9
F11.375
sI10
F11.374
sI11
F11.364
sI12
F11.389
sI13
F11.374
sI14
F11.37
ssg32
(dp493
I0
F12.7439
sI1
F12.9533
sI2
F12.19397
sI3
F10.1683
sI4
F12.77805
sI5
F10.64325
sI6
F11.87792
sI7
F11.39575
sI8
F10.36536
sI9
F11.14435
sI10
F10.36707
sI11
F11.1676
sI12
F11.83069
sI13
F10.55632
sI14
F10.41746
ssg34
(dp494
I0
F2458374.721226852
sI1
F2458374.6844907408
sI2
F2458374.7227314813
sI3
F2458374.7039930555
sI4
F2458374.720486111
sI5
F2458374.719733796
sI6
F2458374.7032523146
sI7
F2458374.7010185183
sI8
F2458374.682986111
sI9
F2458374.701759259
sI10
F2458374.721990741
sI11
F2458374.6852430557
sI12
F2458374.683726852
sI13
F2458374.6822569445
sI14
F2458374.702511574
ssg36
(dp495
I0
F1.3402985333333333
sI1
Fnan
sI2
Fnan
sI3
Fnan
sI4
Fnan
sI5
Fnan
sI6
Fnan
sI7
Fnan
sI8
Fnan
sI9
Fnan
sI10
Fnan
sI11
Fnan
sI12
Fnan
sI13
Fnan
sI14
Fnan
ssg38
(dp496
I0
F0.4329971333333333
sI1
Fnan
sI2
Fnan
sI3
Fnan
sI4
Fnan
sI5
Fnan
sI6
Fnan
sI7
Fnan
sI8
Fnan
sI9
Fnan
sI10
Fnan
sI11
Fnan
sI12
Fnan
sI13
Fnan
sI14
Fnan
ssg40
(dp497
I0
F0.6948920518225853
sI1
F0.6943250417528077
sI2
F0.6937592682413523
sI3
F0.6970957376052501
sI4
F0.6913007882872745
sI5
F0.6933861375517109
sI6
F0.692959616083051
sI7
F0.689737280336679
sI8
F0.6916492542415863
sI9
F0.6948950347339607
sI10
F0.6907536092243332
sI11
F0.6946965025820786
sI12
F0.6885661961416062
sI13
F0.6895551577185778
sI14
F0.6908064432220253
ssg42
(dp498
I0
F0.001892835902086828
sI1
Fnan
sI2
Fnan
sI3
Fnan
sI4
Fnan
sI5
Fnan
sI6
Fnan
sI7
Fnan
sI8
Fnan
sI9
Fnan
sI10
Fnan
sI11
Fnan
sI12
Fnan
sI13
Fnan
sI14
Fnan
ssg44
(dp499
I0
F1.6272221333333332
sI1
Fnan
sI2
Fnan
sI3
Fnan
sI4
Fnan
sI5
Fnan
sI6
Fnan
sI7
Fnan
sI8
Fnan
sI9
Fnan
sI10
Fnan
sI11
Fnan
sI12
Fnan
sI13
Fnan
sI14
Fnan
ssg46
(dp500
I0
g473
sI1
g474
sI2
g475
sI3
g476
sI4
g477
sI5
g478
sI6
g479
sI7
g480
sI8
g481
sI9
g482
sI10
g483
sI11
g484
sI12
g485
sI13
g486
sI14
g487
ssg48
(dp501
I0
F0.0030730034455361877
sI1
Fnan
sI2
Fnan
sI3
Fnan
sI4
Fnan
sI5
Fnan
sI6
Fnan
sI7
Fnan
sI8
Fnan
sI9
Fnan
sI10
Fnan
sI11
Fnan
sI12
Fnan
sI13
Fnan
sI14
Fnan
ssg50
(dp502
I0
F0.03113763608484705
sI1
Fnan
sI2
Fnan
sI3
Fnan
sI4
Fnan
sI5
Fnan
sI6
Fnan
sI7
Fnan
sI8
Fnan
sI9
Fnan
sI10
Fnan
sI11
Fnan
sI12
Fnan
sI13
Fnan
sI14
Fnan
ssg52
(dp503
I0
F1.1374854399999998
sI1
Fnan
sI2
Fnan
sI3
Fnan
sI4
Fnan
sI5
Fnan
sI6
Fnan
sI7
Fnan
sI8
Fnan
sI9
Fnan
sI10
Fnan
sI11
Fnan
sI12
Fnan
sI13
Fnan
sI14
Fnan
ssg54
(dp504
I0
F1.5082334587069581
sI1
F1.5084907524701803
sI2
F1.5137391391421622
sI3
F1.5058339172163482
sI4
F1.5184182714841927
sI5
F1.497720601901026
sI6
F1.5052726324138186
sI7
F1.50235858575335
sI8
F1.5043337609790528
sI9
F1.5009097127079352
sI10
F1.4966767882934195
sI11
F1.497096190288438
sI12
F1.5066894797169443
sI13
F1.5064339132457054
sI14
F1.5118353658143677
ssg56
(dp505
I0
g473
sI1
g474
sI2
g475
sI3
g476
sI4
g477
sI5
g478
sI6
g479
sI7
g480
sI8
g481
sI9
g482
sI10
g483
sI11
g484
sI12
g485
sI13
g486
sI14
g487
ssg58
(dp506
I0
F13.48207
sI1
F13.28665
sI2
F13.20445
sI3
F10.78995
sI4
F13.82909
sI5
F13.12047
sI6
F12.23872
sI7
F12.62327
sI8
F12.0479
sI9
F12.33463
sI10
F11.31609
sI11
F12.01288
sI12
F12.10652
sI13
F12.34313
sI14
F11.41048
ssg60
(dp507
I0
F10.714066666666668
sI1
Fnan
sI2
Fnan
sI3
Fnan
sI4
Fnan
sI5
Fnan
sI6
Fnan
sI7
Fnan
sI8
Fnan
sI9
Fnan
sI10
Fnan
sI11
Fnan
sI12
Fnan
sI13
Fnan
sI14
Fnan
ssg62
(dp508
I0
F0.7143194829760964
sI1
Fnan
sI2
Fnan
sI3
Fnan
sI4
Fnan
sI5
Fnan
sI6
Fnan
sI7
Fnan
sI8
Fnan
sI9
Fnan
sI10
Fnan
sI11
Fnan
sI12
Fnan
sI13
Fnan
sI14
Fnan
ssg64
(dp509
I0
F3.193284
sI1
F-2.75087
sI2
F2.998083
sI3
F2.632364
sI4
F-2.577945
sI5
F1.902254
sI6
F-3.165265
sI7
F2.368174
sI8
F-1.756964
sI9
F0.514223
sI10
F4.278054
sI11
F-2.194817
sI12
F1.523111
sI13
F-2.331812
sI14
F1.863083
ssg66
(dp510
I0
F11.077466666666668
sI1
Fnan
sI2
Fnan
sI3
Fnan
sI4
Fnan
sI5
Fnan
sI6
Fnan
sI7
Fnan
sI8
Fnan
sI9
Fnan
sI10
Fnan
sI11
Fnan
sI12
Fnan
sI13
Fnan
sI14
Fnan
ssg68
(dp511
I0
g473
sI1
g474
sI2
g475
sI3
g476
sI4
g477
sI5
g478
sI6
g479
sI7
g480
sI8
g481
sI9
g482
sI10
g483
sI11
g484
sI12
g485
sI13
g486
sI14
g487
ssg70
(dp512
I0
F8808.203333333333
sI1
F9061.623333333333
sI2
F9009.013333333334
sI3
F9466.163333333334
sI4
F8851.136666666665
sI5
F9215.0
sI6
F9362.01
sI7
F9535.336666666666
sI8
F9657.69
sI9
F9401.6
sI10
F9501.436666666666
sI11
F9522.256666666666
sI12
F9393.643333333333
sI13
F9483.706666666667
sI14
F9476.31
ssg72
(dp513
I0
F1.026881
sI1
F1.005298
sI2
F1.0284149999999999
sI3
F1.012889
sI4
F1.026117
sI5
F1.025379
sI6
F1.012445
sI7
F1.011175
sI8
F1.0050649999999999
sI9
F1.011588
sI10
F1.0276399999999999
sI11
F1.005433
sI12
F1.005175
sI13
F1.0049700000000001
sI14
F1.012009
ssg74
(dp514
I0
F7494.179999999999
sI1
F7755.3
sI2
F7768.36
sI3
F8174.3566666666675
sI4
F7562.636666666667
sI5
F7841.403333333334
sI6
F8029.05
sI7
F8221.773333333334
sI8
F8316.69
sI9
F8059.956666666667
sI10
F8105.526666666667
sI11
F8147.0599999999995
sI12
F7970.6866666666665
sI13
F8103.05
sI14
F8111.9366666666665
ssg76
(dp515
I0
F12293.9
sI1
F12684.086666666666
sI2
F12698.283333333333
sI3
F13281.846666666668
sI4
F12461.486666666666
sI5
F12772.863333333335
sI6
F13089.143333333333
sI7
F13338.773333333334
sI8
F13519.733333333334
sI9
F13104.109999999999
sI10
F13175.966666666667
sI11
F13226.333333333334
sI12
F13081.326666666666
sI13
F13246.643333333333
sI14
F13295.266666666666
ssg78
(dp516
I0
F12.62241
sI1
F13.47243
sI2
F12.69765
sI3
F10.72366
sI4
F13.29679
sI5
F11.56451
sI6
F12.32383
sI7
F11.42822
sI8
F11.13256
sI9
F11.85716
sI10
F10.10466
sI11
F12.45002
sI12
F12.55085
sI13
F12.66357
sI14
F11.87251
ssg80
(dp517
I0
F11.313
sI1
F11.276
sI2
F11.274
sI3
F11.219
sI4
F11.303
sI5
F11.264
sI6
F11.238
sI7
F11.213
sI8
F11.2
sI9
F11.234
sI10
F11.228
sI11
F11.222
sI12
F11.246
sI13
F11.228
sI14
F11.227
ssg82
(dp518
I0
F0.002
sI1
F0.002
sI2
F0.002
sI3
F0.002
sI4
F0.002
sI5
F0.002
sI6
F0.002
sI7
F0.002
sI8
F0.002
sI9
F0.002
sI10
F0.002
sI11
F0.002
sI12
F0.002
sI13
F0.002
sI14
F0.002
ssg84
(dp519
I0
F0.6925585413029919
sI1
Fnan
sI2
Fnan
sI3
Fnan
sI4
Fnan
sI5
Fnan
sI6
Fnan
sI7
Fnan
sI8
Fnan
sI9
Fnan
sI10
Fnan
sI11
Fnan
sI12
Fnan
sI13
Fnan
sI14
Fnan
ssg86
(dp520
I0
F11.245666666666667
sI1
Fnan
sI2
Fnan
sI3
Fnan
sI4
Fnan
sI5
Fnan
sI6
Fnan
sI7
Fnan
sI8
Fnan
sI9
Fnan
sI10
Fnan
sI11
Fnan
sI12
Fnan
sI13
Fnan
sI14
Fnan
ssg88
(dp521
I0
F11.138
sI1
F11.107
sI2
F11.113
sI3
F11.06
sI4
F11.133
sI5
F11.089
sI6
F11.072
sI7
F11.052
sI8
F11.038
sI9
F11.067
sI10
F11.056
sI11
F11.053
sI12
F11.068
sI13
F11.058
sI14
F11.058
ssg90
(dp522
I0
F3.814467
sI1
F4.44891
sI2
F-3.604209
sI3
F4.202014
sI4
F-3.382934
sI5
F-2.168935
sI6
F3.358691
sI7
F3.35821
sI8
F-2.098536
sI9
F2.587003
sI10
F1.827507
sI11
F3.173818
sI12
F3.783015
sI13
F-2.895195
sI14
F3.700652
ssg92
(dp523
I0
F0.029735660810036115
sI1
Fnan
sI2
Fnan
sI3
Fnan
sI4
Fnan
sI5
Fnan
sI6
Fnan
sI7
Fnan
sI8
Fnan
sI9
Fnan
sI10
Fnan
sI11
Fnan
sI12
Fnan
sI13
Fnan
sI14
Fnan
ssg94
(dp524
I0
F0.710278011781132
sI1
F0.7132717211808675
sI2
F0.7157372121724354
sI3
F0.7186876273279875
sI4
F0.7096861374956659
sI5
F0.7132483238101504
sI6
F0.7152461061391648
sI7
F0.7188715393371226
sI8
F0.7176544070832148
sI9
F0.7162588220204266
sI10
F0.7148549194565338
sI11
F0.7162694479086396
sI12
F0.7092945322433504
sI13
F0.7129718636096674
sI14
F0.7124615730750893
ssg96
(dp525
I0
F30.0
sI1
F30.0
sI2
F30.0
sI3
F30.0
sI4
F30.0
sI5
F30.0
sI6
F30.0
sI7
F30.0
sI8
F30.0
sI9
F30.0
sI10
F30.0
sI11
F30.0
sI12
F30.0
sI13
F30.0
sI14
F30.0
ssg98
(dp526
I0
F0.002
sI1
F0.002
sI2
F0.002
sI3
F0.002
sI4
F0.002
sI5
F0.002
sI6
F0.002
sI7
F0.002
sI8
F0.002
sI9
F0.002
sI10
F0.002
sI11
F0.002
sI12
F0.002
sI13
F0.002
sI14
F0.002
ssg100
(dp527
I0
F0.002
sI1
F0.002
sI2
F0.002
sI3
F0.002
sI4
F0.002
sI5
F0.002
sI6
F0.002
sI7
F0.002
sI8
F0.002
sI9
F0.002
sI10
F0.002
sI11
F0.002
sI12
F0.002
sI13
F0.002
sI14
F0.002
ssg102
(dp528
I0
F3.84167
sI1
F3.874351
sI2
F-2.333416
sI3
F3.588748
sI4
F4.367076
sI5
F-4.45425
sI6
F2.970543
sI7
F-3.373539
sI8
F-2.191511
sI9
F3.581661
sI10
F3.558804
sI11
F2.627818
sI12
F-2.126542
sI13
F-0.6345464
sI14
F3.765415
ssg104
(dp529
I0
S'KIC8462852-20180913at051834_-25-1X1-030-V_cal.fts.mag.1'
p530
sI1
S'KIC8462852-20180913at042540_-25-1X1-030-V_cal.fts.mag.1'
p531
sI2
S'KIC8462852-20180913at052044_-25-1X1-030-V_cal.fts.mag.1'
p532
sI3
S'KIC8462852-20180913at045345_-25-1X1-030-V_cal.fts.mag.1'
p533
sI4
S'KIC8462852-20180913at051730_-25-1X1-030-V_cal.fts.mag.1'
p534
sI5
S'KIC8462852-20180913at051618_-25-1X1-030-V_cal.fts.mag.1'
p535
sI6
S'KIC8462852-20180913at045241_-25-1X1-030-V_cal.fts.mag.1'
p536
sI7
S'KIC8462852-20180913at044921_-25-1X1-030-V_cal.fts.mag.1'
p537
sI8
S'KIC8462852-20180913at042330_-25-1X1-030-V_cal.fts.mag.1'
p538
sI9
S'KIC8462852-20180913at045032_-25-1X1-030-V_cal.fts.mag.1'
p539
sI10
S'KIC8462852-20180913at051940_-25-1X1-030-V_cal.fts.mag.1'
p540
sI11
S'KIC8462852-20180913at042645_-25-1X1-030-V_cal.fts.mag.1'
p541
sI12
S'KIC8462852-20180913at042434_-25-1X1-030-V_cal.fts.mag.1'
p542
sI13
S'KIC8462852-20180913at042219_-25-1X1-030-V_cal.fts.mag.1'
p543
sI14
S'KIC8462852-20180913at045137_-25-1X1-030-V_cal.fts.mag.1'
p544
ssg121
(dp545
I0
F0.006181201213789178
sI1
Fnan
sI2
Fnan
sI3
Fnan
sI4
Fnan
sI5
Fnan
sI6
Fnan
sI7
Fnan
sI8
Fnan
sI9
Fnan
sI10
Fnan
sI11
Fnan
sI12
Fnan
sI13
Fnan
sI14
Fnan
ssg123
(dp546
I0
F6623.776666666667
sI1
F6827.763333333333
sI2
F6816.336666666667
sI3
F7185.283333333334
sI4
F6653.83
sI5
F6894.4
sI6
F7040.516666666666
sI7
F7149.33
sI8
F7260.96
sI9
F7079.9766666666665
sI10
F7087.806666666667
sI11
F7154.366666666667
sI12
F6987.95
sI13
F7087.11
sI14
F7111.509999999999
ssg125
(dp547
I0
F0.0332429727626044
sI1
Fnan
sI2
Fnan
sI3
Fnan
sI4
Fnan
sI5
Fnan
sI6
Fnan
sI7
Fnan
sI8
Fnan
sI9
Fnan
sI10
Fnan
sI11
Fnan
sI12
Fnan
sI13
Fnan
sI14
Fnan
ssg127
(dp548
I0
g469
sI1
g469
sI2
g469
sI3
g469
sI4
g469
sI5
g469
sI6
g469
sI7
g469
sI8
g469
sI9
g469
sI10
g469
sI11
g469
sI12
g469
sI13
g469
sI14
g469
ssg144
(dp549
I0
F0.0024366922331777526
sI1
Fnan
sI2
Fnan
sI3
Fnan
sI4
Fnan
sI5
Fnan
sI6
Fnan
sI7
Fnan
sI8
Fnan
sI9
Fnan
sI10
Fnan
sI11
Fnan
sI12
Fnan
sI13
Fnan
sI14
Fnan
ssg146
(dp550
I0
F1.050051
sI1
F3.417956
sI2
F-2.357127
sI3
F3.657577
sI4
F-4.137221
sI5
F3.70544
sI6
F2.440329
sI7
F3.115432
sI8
F1.380366
sI9
F2.693417
sI10
F3.015012
sI11
F2.695134
sI12
F1.632811
sI13
F3.64975
sI14
F-1.550595
ssg148
(dp551
I0
F1.5056028380089264
sI1
Fnan
sI2
Fnan
sI3
Fnan
sI4
Fnan
sI5
Fnan
sI6
Fnan
sI7
Fnan
sI8
Fnan
sI9
Fnan
sI10
Fnan
sI11
Fnan
sI12
Fnan
sI13
Fnan
sI14
Fnan
ssg150
(dp552
I0
F2458374.702511574
sI1
Fnan
sI2
Fnan
sI3
Fnan
sI4
Fnan
sI5
Fnan
sI6
Fnan
sI7
Fnan
sI8
Fnan
sI9
Fnan
sI10
Fnan
sI11
Fnan
sI12
Fnan
sI13
Fnan
sI14
Fnan
ssg152
(dp553
I0
F0.0024366922331777526
sI1
Fnan
sI2
Fnan
sI3
Fnan
sI4
Fnan
sI5
Fnan
sI6
Fnan
sI7
Fnan
sI8
Fnan
sI9
Fnan
sI10
Fnan
sI11
Fnan
sI12
Fnan
sI13
Fnan
sI14
Fnan
ssg154
(dp554
I0
F16.70895
sI1
F15.63472
sI2
F15.6218
sI3
F13.55326
sI4
F16.89945
sI5
F14.91631
sI6
F13.18016
sI7
F13.6971
sI8
F12.94664
sI9
F13.53746
sI10
F13.92198
sI11
F14.45972
sI12
F14.85804
sI13
F14.73053
sI14
F12.97054
ssg156
(dp555
I0
F10.776
sI1
F10.742
sI2
F10.741
sI3
F10.692
sI4
F10.761
sI5
F10.734
sI6
F10.708
sI7
F10.687
sI8
F10.673
sI9
F10.706
sI10
F10.701
sI11
F10.696
sI12
F10.708
sI13
F10.695
sI14
F10.691
ssg158
(dp556
I0
F0.6925585413029919
sI1
Fnan
sI2
Fnan
sI3
Fnan
sI4
Fnan
sI5
Fnan
sI6
Fnan
sI7
Fnan
sI8
Fnan
sI9
Fnan
sI10
Fnan
sI11
Fnan
sI12
Fnan
sI13
Fnan
sI14
Fnan
sss.