(dp0
S'i'
p1
(dp2
S'sigmean'
p3
(dp4
I0
F0.4383490268591609
sI1
Fnan
sI2
Fnan
sI3
Fnan
sI4
Fnan
sI5
Fnan
sI6
Fnan
sI7
Fnan
sI8
Fnan
sI9
Fnan
sI10
Fnan
sI11
Fnan
sI12
Fnan
sI13
Fnan
sI14
Fnan
ssS'ref3flag'
p5
(dp6
I0
S'NoError'
p7
sI1
S'NoError'
p8
sI2
S'NoError'
p9
sI3
S'NoError'
p10
sI4
S'NoError'
p11
sI5
S'NoError'
p12
sI6
S'NoError'
p13
sI7
S'NoError'
p14
sI8
S'NoError'
p15
sI9
S'NoError'
p16
sI10
S'NoError'
p17
sI11
S'NoError'
p18
sI12
S'NoError'
p19
sI13
S'NoError'
p20
sI14
S'NoError'
p21
ssS'tabbyerr'
p22
(dp23
I0
F0.003
sI1
F0.003
sI2
F0.003
sI3
F0.003
sI4
F0.004
sI5
F0.003
sI6
F0.003
sI7
F0.003
sI8
F0.003
sI9
F0.003
sI10
F0.003
sI11
F0.003
sI12
F0.003
sI13
F0.003
sI14
F0.003
ssS'ref2rel'
p24
(dp25
I0
F0.9045070172052201
sI1
F0.9116424544358795
sI2
F0.9085529176266575
sI3
F0.9083448454099273
sI4
F0.9079451104851205
sI5
F0.9096045693340572
sI6
F0.907091976453771
sI7
F0.9060023425454037
sI8
F0.9099699897471205
sI9
F0.9047201951337259
sI10
F0.9098588628134733
sI11
F0.9074897842586349
sI12
F0.9090808177082191
sI13
F0.9095532282270431
sI14
F0.9118411528062911
ssS'ref2err'
p26
(dp27
I0
F0.0021942722054150363
sI1
Fnan
sI2
Fnan
sI3
Fnan
sI4
Fnan
sI5
Fnan
sI6
Fnan
sI7
Fnan
sI8
Fnan
sI9
Fnan
sI10
Fnan
sI11
Fnan
sI12
Fnan
sI13
Fnan
sI14
Fnan
ssS'ref2mean'
p28
(dp29
I0
F0.9084136842793697
sI1
Fnan
sI2
Fnan
sI3
Fnan
sI4
Fnan
sI5
Fnan
sI6
Fnan
sI7
Fnan
sI8
Fnan
sI9
Fnan
sI10
Fnan
sI11
Fnan
sI12
Fnan
sI13
Fnan
sI14
Fnan
ssS'tabbymag'
p30
(dp31
I0
F12.019
sI1
F11.941
sI2
F11.939
sI3
F12.132
sI4
F12.227
sI5
F11.941
sI6
F11.959
sI7
F11.955
sI8
F12.059
sI9
F12.0
sI10
F11.943
sI11
F12.166
sI12
F11.975
sI13
F12.155
sI14
F11.937
ssS'tabbybkg'
p32
(dp33
I0
F8.612181
sI1
F8.511043
sI2
F7.66405
sI3
F10.23089
sI4
F10.92298
sI5
F8.204915
sI6
F8.205436
sI7
F8.80007
sI8
F9.690533
sI9
F8.960592
sI10
F9.513988
sI11
F9.424242
sI12
F9.065347
sI13
F9.71629
sI14
F8.224524
ssS'JD'
p34
(dp35
I0
F2458432.626400463
sI1
F2458432.6071527777
sI2
F2458432.606400463
sI3
F2458432.6477546296
sI4
F2458432.649247685
sI5
F2458432.6041435185
sI6
F2458432.6056481483
sI7
F2458432.6279166667
sI8
F2458432.6470138887
sI9
F2458432.6256712964
sI10
F2458432.6286574076
sI11
F2458432.6485069445
sI12
F2458432.6271759258
sI13
F2458432.649988426
sI14
F2458432.6048958334
ssS'ref3rmsmean'
p36
(dp37
I0
F1.3741032666666664
sI1
Fnan
sI2
Fnan
sI3
Fnan
sI4
Fnan
sI5
Fnan
sI6
Fnan
sI7
Fnan
sI8
Fnan
sI9
Fnan
sI10
Fnan
sI11
Fnan
sI12
Fnan
sI13
Fnan
sI14
Fnan
ssS'ref1rmsmean'
p38
(dp39
I0
F0.8754644666666667
sI1
Fnan
sI2
Fnan
sI3
Fnan
sI4
Fnan
sI5
Fnan
sI6
Fnan
sI7
Fnan
sI8
Fnan
sI9
Fnan
sI10
Fnan
sI11
Fnan
sI12
Fnan
sI13
Fnan
sI14
Fnan
ssS'relflux'
p40
(dp41
I0
F0.43811552008530374
sI1
F0.4384808184872365
sI2
F0.4400514771346129
sI3
F0.43864162216381564
sI4
F0.4352707349724374
sI5
F0.43853904156519935
sI6
F0.43721519305774326
sI7
F0.43768346028396216
sI8
F0.4364659284407628
sI9
F0.44035468410485923
sI10
F0.4403687768727738
sI11
F0.43627435476717835
sI12
F0.4387198279796061
sI13
F0.43762664422603786
sI14
F0.44072972391924436
ssS'sigerr'
p42
(dp43
I0
F0.0012839905382477832
sI1
Fnan
sI2
Fnan
sI3
Fnan
sI4
Fnan
sI5
Fnan
sI6
Fnan
sI7
Fnan
sI8
Fnan
sI9
Fnan
sI10
Fnan
sI11
Fnan
sI12
Fnan
sI13
Fnan
sI14
Fnan
ssS'tabbyrmsmean'
p44
(dp45
I0
F1.8280418666666665
sI1
Fnan
sI2
Fnan
sI3
Fnan
sI4
Fnan
sI5
Fnan
sI6
Fnan
sI7
Fnan
sI8
Fnan
sI9
Fnan
sI10
Fnan
sI11
Fnan
sI12
Fnan
sI13
Fnan
sI14
Fnan
ssS'tabbyflag'
p46
(dp47
I0
g7
sI1
g8
sI2
g9
sI3
g10
sI4
g11
sI5
g12
sI6
g13
sI7
g14
sI8
g15
sI9
g16
sI10
g17
sI11
g18
sI12
g19
sI13
g20
sI14
g21
ssS'ref1err'
p48
(dp49
I0
F0.0020921104562631344
sI1
Fnan
sI2
Fnan
sI3
Fnan
sI4
Fnan
sI5
Fnan
sI6
Fnan
sI7
Fnan
sI8
Fnan
sI9
Fnan
sI10
Fnan
sI11
Fnan
sI12
Fnan
sI13
Fnan
sI14
Fnan
ssS'ref2magmeanerr'
p50
(dp51
I0
F0.09704230790644612
sI1
Fnan
sI2
Fnan
sI3
Fnan
sI4
Fnan
sI5
Fnan
sI6
Fnan
sI7
Fnan
sI8
Fnan
sI9
Fnan
sI10
Fnan
sI11
Fnan
sI12
Fnan
sI13
Fnan
sI14
Fnan
ssS'ref2rmsmean'
p52
(dp53
I0
F1.2597027333333333
sI1
Fnan
sI2
Fnan
sI3
Fnan
sI4
Fnan
sI5
Fnan
sI6
Fnan
sI7
Fnan
sI8
Fnan
sI9
Fnan
sI10
Fnan
sI11
Fnan
sI12
Fnan
sI13
Fnan
sI14
Fnan
ssS'ref3rel'
p54
(dp55
I0
F1.512285251513104
sI1
F1.4989413396964464
sI2
F1.5021638561408748
sI3
F1.5074866303679995
sI4
F1.514479979721369
sI5
F1.5011171545696562
sI6
F1.5036501250618306
sI7
F1.5078245301971889
sI8
F1.50798793239398
sI9
F1.506711205430522
sI10
F1.5042993629596837
sI11
F1.5047582075040746
sI12
F1.5082449603756367
sI13
F1.5057027890648524
sI14
F1.498548606306694
ssS'ref1flag'
p56
(dp57
I0
g7
sI1
g8
sI2
g9
sI3
g10
sI4
g11
sI5
g12
sI6
g13
sI7
g14
sI8
g15
sI9
g16
sI10
g17
sI11
g18
sI12
g19
sI13
g20
sI14
g21
ssS'ref2bkg'
p58
(dp59
I0
F11.44899
sI1
F9.569861
sI2
F8.849049
sI3
F12.61921
sI4
F14.47535
sI5
F8.889744
sI6
F9.396704
sI7
F10.2044
sI8
F12.02493
sI9
F10.84042
sI10
F10.41579
sI11
F12.70525
sI12
F10.10154
sI13
F12.38725
sI14
F8.932405
ssS'ref3magmean'
p60
(dp61
I0
F10.852466666666668
sI1
Fnan
sI2
Fnan
sI3
Fnan
sI4
Fnan
sI5
Fnan
sI6
Fnan
sI7
Fnan
sI8
Fnan
sI9
Fnan
sI10
Fnan
sI11
Fnan
sI12
Fnan
sI13
Fnan
sI14
Fnan
ssS'ref1mean'
p62
(dp63
I0
F0.6960546804937028
sI1
Fnan
sI2
Fnan
sI3
Fnan
sI4
Fnan
sI5
Fnan
sI6
Fnan
sI7
Fnan
sI8
Fnan
sI9
Fnan
sI10
Fnan
sI11
Fnan
sI12
Fnan
sI13
Fnan
sI14
Fnan
ssS'ref1rms'
p64
(dp65
I0
F2.458272
sI1
F-2.424984
sI2
F-1.650691
sI3
F2.261786
sI4
F2.711768
sI5
F-1.912651
sI6
F3.771222
sI7
F-1.719027
sI8
F4.056479
sI9
F3.22157
sI10
F3.44832
sI11
F3.61179
sI12
F-4.444062
sI13
F-4.167779
sI14
F3.909954
ssS'ref2magmean'
p66
(dp67
I0
F11.198266666666667
sI1
Fnan
sI2
Fnan
sI3
Fnan
sI4
Fnan
sI5
Fnan
sI6
Fnan
sI7
Fnan
sI8
Fnan
sI9
Fnan
sI10
Fnan
sI11
Fnan
sI12
Fnan
sI13
Fnan
sI14
Fnan
ssS'ref2flag'
p68
(dp69
I0
g7
sI1
g8
sI2
g9
sI3
g10
sI4
g11
sI5
g12
sI6
g13
sI7
g14
sI8
g15
sI9
g16
sI10
g17
sI11
g18
sI12
g19
sI13
g20
sI14
g21
ssS'ref2'
p70
(dp71
I0
F8341.02
sI1
F9005.556666666667
sI2
F8967.97
sI3
F7533.1066666666675
sI4
F6948.016666666666
sI5
F8986.69
sI6
F8847.906666666668
sI7
F8865.823333333334
sI8
F8106.073333333334
sI9
F8445.686666666666
sI10
F8934.703333333333
sI11
F7335.713333333333
sI12
F8708.203333333333
sI13
F7394.929999999999
sI14
F8992.016666666666
ssS'airmass'
p72
(dp73
I0
F1.146301
sI1
F1.097382
sI2
F1.095702
sI3
F1.216774
sI4
F1.222422
sI5
F1.090827
sI6
F1.094058
sI7
F1.1507180000000001
sI8
F1.213992
sI9
F1.1441860000000001
sI10
F1.152866
sI11
F1.2195989999999999
sI12
F1.148543
sI13
F1.225263
sI14
F1.092433
ssS'ref1'
p74
(dp75
I0
F6910.736666666667
sI1
F7435.033333333334
sI2
F7427.1433333333325
sI3
F6220.076666666666
sI4
F5715.5599999999995
sI5
F7434.493333333333
sI6
F7338.753333333333
sI7
F7347.716666666666
sI8
F6672.886666666667
sI9
F7019.493333333333
sI10
F7373.526666666667
sI11
F6076.2
sI12
F7178.066666666667
sI13
F6100.513333333333
sI14
F7423.240000000001
ssS'ref3'
p76
(dp77
I0
F11532.503333333332
sI1
F12321.74
sI2
F12314.073333333334
sI3
F10366.369999999999
sI4
F9589.366666666667
sI5
F12325.06
sI6
F12169.536666666665
sI7
F12223.586666666666
sI8
F11143.246666666668
sI9
F11650.78
sI10
F12266.230000000001
sI11
F10090.843333333332
sI12
F11980.193333333333
sI13
F10160.063333333334
sI14
F12299.53
ssS'ref1bkg'
p78
(dp79
I0
F9.841475
sI1
F8.614186
sI2
F8.787938
sI3
F12.20119
sI4
F13.69022
sI5
F8.966178
sI6
F9.215135
sI7
F9.710576
sI8
F11.15061
sI9
F9.751589
sI10
F9.162663
sI11
F11.9027
sI12
F11.30107
sI13
F13.20807
sI14
F8.345028
ssS'ref1mag'
p80
(dp81
I0
F11.401
sI1
F11.322
sI2
F11.323
sI3
F11.516
sI4
F11.607
sI5
F11.322
sI6
F11.336
sI7
F11.335
sI8
F11.439
sI9
F11.384
sI10
F11.331
sI11
F11.541
sI12
F11.36
sI13
F11.537
sI14
F11.324
ssS'ref3magerr'
p82
(dp83
I0
F0.002
sI1
F0.002
sI2
F0.002
sI3
F0.002
sI4
F0.002
sI5
F0.002
sI6
F0.002
sI7
F0.002
sI8
F0.002
sI9
F0.002
sI10
F0.002
sI11
F0.002
sI12
F0.002
sI13
F0.002
sI14
F0.002
ssS'tabbymagmean'
p84
(dp85
I0
F0.4383025205373849
sI1
Fnan
sI2
Fnan
sI3
Fnan
sI4
Fnan
sI5
Fnan
sI6
Fnan
sI7
Fnan
sI8
Fnan
sI9
Fnan
sI10
Fnan
sI11
Fnan
sI12
Fnan
sI13
Fnan
sI14
Fnan
ssS'ref1magmean'
p86
(dp87
I0
F11.4052
sI1
Fnan
sI2
Fnan
sI3
Fnan
sI4
Fnan
sI5
Fnan
sI6
Fnan
sI7
Fnan
sI8
Fnan
sI9
Fnan
sI10
Fnan
sI11
Fnan
sI12
Fnan
sI13
Fnan
sI14
Fnan
ssS'ref2mag'
p88
(dp89
I0
F11.197
sI1
F11.114
sI2
F11.118
sI3
F11.308
sI4
F11.395
sI5
F11.116
sI6
F11.133
sI7
F11.131
sI8
F11.228
sI9
F11.183
sI10
F11.122
sI11
F11.336
sI12
F11.15
sI13
F11.328
sI14
F11.115
ssS'ref3rms'
p90
(dp91
I0
F-2.158611
sI1
F1.608539
sI2
F4.544929
sI3
F3.421928
sI4
F-3.576607
sI5
F-1.666843
sI6
F3.364087
sI7
F-3.674254
sI8
F3.917426
sI9
F3.902445
sI10
F-2.200499
sI11
F4.83554
sI12
F1.940643
sI13
F2.582799
sI14
F3.770027
ssS'ref3magmeanerr'
p92
(dp93
I0
F0.0957644928730795
sI1
Fnan
sI2
Fnan
sI3
Fnan
sI4
Fnan
sI5
Fnan
sI6
Fnan
sI7
Fnan
sI8
Fnan
sI9
Fnan
sI10
Fnan
sI11
Fnan
sI12
Fnan
sI13
Fnan
sI14
Fnan
ssS'ref1rel'
p94
(dp95
I0
F0.6954717138732489
sI1
F0.6972316697740564
sI2
F0.69797276671272
sI3
F0.6950009525418154
sI4
F0.6912290638482711
sI5
F0.6976896156658494
sI6
F0.6983488159755555
sI7
F0.6968157636146926
sI8
F0.6933114174076452
sI9
F0.6985798498575205
sI10
F0.6955851000270428
sI11
F0.6973494668195114
sI12
F0.6939219875102292
sI13
F0.6950174480271331
sI14
F0.6972945757502508
ssS'exposure'
p96
(dp97
I0
F30.0
sI1
F30.0
sI2
F30.0
sI3
F30.0
sI4
F30.0
sI5
F30.0
sI6
F30.0
sI7
F30.0
sI8
F30.0
sI9
F30.0
sI10
F30.0
sI11
F30.0
sI12
F30.0
sI13
F30.0
sI14
F30.0
ssS'ref1magerr'
p98
(dp99
I0
F0.002
sI1
F0.002
sI2
F0.002
sI3
F0.002
sI4
F0.003
sI5
F0.002
sI6
F0.002
sI7
F0.002
sI8
F0.002
sI9
F0.002
sI10
F0.002
sI11
F0.002
sI12
F0.002
sI13
F0.002
sI14
F0.002
ssS'ref2magerr'
p100
(dp101
I0
F0.002
sI1
F0.002
sI2
F0.002
sI3
F0.002
sI4
F0.002
sI5
F0.002
sI6
F0.002
sI7
F0.002
sI8
F0.002
sI9
F0.002
sI10
F0.002
sI11
F0.002
sI12
F0.002
sI13
F0.002
sI14
F0.002
ssS'ref2rms'
p102
(dp103
I0
F1.150589
sI1
F-1.316971
sI2
F2.901091
sI3
F2.895599
sI4
F2.25984
sI5
F1.370679
sI6
F3.593651
sI7
F-2.898786
sI8
F2.037592
sI9
F2.855843
sI10
F1.274116
sI11
F-2.244859
sI12
F3.718194
sI13
F-2.489585
sI14
F3.788548
ssS'name'
p104
(dp105
I0
S"KIC8462852-20181110at030201_-25-1X1-030-i'_cal.fts.mag.1"
p106
sI1
S"KIC8462852-20181110at023418_-25-1X1-030-i'_cal.fts.mag.1"
p107
sI2
S"KIC8462852-20181110at023313_-25-1X1-030-i'_cal.fts.mag.1"
p108
sI3
S"KIC8462852-20181110at033246_-25-1X1-030-i'_cal.fts.mag.1"
p109
sI4
S"KIC8462852-20181110at033455_-25-1X1-030-i'_cal.fts.mag.1"
p110
sI5
S"KIC8462852-20181110at022956_-25-1X1-030-i'_cal.fts.mag.1"
p111
sI6
S"KIC8462852-20181110at023208_-25-1X1-030-i'_cal.fts.mag.1"
p112
sI7
S"KIC8462852-20181110at030412_-25-1X1-030-i'_cal.fts.mag.1"
p113
sI8
S"KIC8462852-20181110at033141_-25-1X1-030-i'_cal.fts.mag.1"
p114
sI9
S"KIC8462852-20181110at030056_-25-1X1-030-i'_cal.fts.mag.1"
p115
sI10
S"KIC8462852-20181110at030516_-25-1X1-030-i'_cal.fts.mag.1"
p116
sI11
S"KIC8462852-20181110at033351_-25-1X1-030-i'_cal.fts.mag.1"
p117
sI12
S"KIC8462852-20181110at030308_-25-1X1-030-i'_cal.fts.mag.1"
p118
sI13
S"KIC8462852-20181110at033559_-25-1X1-030-i'_cal.fts.mag.1"
p119
sI14
S"KIC8462852-20181110at023103_-25-1X1-030-i'_cal.fts.mag.1"
p120
ssS'ref3err'
p121
(dp122
I0
F0.00445742061062448
sI1
Fnan
sI2
Fnan
sI3
Fnan
sI4
Fnan
sI5
Fnan
sI6
Fnan
sI7
Fnan
sI8
Fnan
sI9
Fnan
sI10
Fnan
sI11
Fnan
sI12
Fnan
sI13
Fnan
sI14
Fnan
ssS'tabby'
p123
(dp124
I0
F3911.5333333333333
sI1
F4203.91
sI2
F4211.173333333333
sI3
F3526.6133333333332
sI4
F3228.685
sI5
F4202.116666666667
sI6
F4132.586666666667
sI7
F4148.820000000001
sI8
F3771.3866666666668
sI9
F3980.213333333333
sI10
F4194.433333333333
sI11
F3417.883333333333
sI12
F4075.19
sI13
F3450.76
sI14
F4218.486666666667
ssS'ref1magmeanerr'
p125
(dp126
I0
F0.09815527058114179
sI1
Fnan
sI2
Fnan
sI3
Fnan
sI4
Fnan
sI5
Fnan
sI6
Fnan
sI7
Fnan
sI8
Fnan
sI9
Fnan
sI10
Fnan
sI11
Fnan
sI12
Fnan
sI13
Fnan
sI14
Fnan
ssS'filter'
p127
(dp128
I0
S"i'"
p129
sI1
S"i'"
p130
sI2
S"i'"
p131
sI3
S"i'"
p132
sI4
S"i'"
p133
sI5
S"i'"
p134
sI6
S"i'"
p135
sI7
S"i'"
p136
sI8
S"i'"
p137
sI9
S"i'"
p138
sI10
S"i'"
p139
sI11
S"i'"
p140
sI12
S"i'"
p141
sI13
S"i'"
p142
sI14
S"i'"
p143
ssS'tabbymagerr'
p144
(dp145
I0
F0.0016156239173482662
sI1
Fnan
sI2
Fnan
sI3
Fnan
sI4
Fnan
sI5
Fnan
sI6
Fnan
sI7
Fnan
sI8
Fnan
sI9
Fnan
sI10
Fnan
sI11
Fnan
sI12
Fnan
sI13
Fnan
sI14
Fnan
ssS'tabbyrms'
p146
(dp147
I0
F3.342567
sI1
F-1.799113
sI2
F-1.023113
sI3
F2.818908
sI4
F3.110346
sI5
F2.434016
sI6
F4.130149
sI7
F3.527882
sI8
F2.922741
sI9
F3.513709
sI10
F-2.452724
sI11
F2.999528
sI12
F-2.873116
sI13
F2.931161
sI14
F3.837687
ssS'ref3mean'
p148
(dp149
I0
F1.5056134620869277
sI1
Fnan
sI2
Fnan
sI3
Fnan
sI4
Fnan
sI5
Fnan
sI6
Fnan
sI7
Fnan
sI8
Fnan
sI9
Fnan
sI10
Fnan
sI11
Fnan
sI12
Fnan
sI13
Fnan
sI14
Fnan
ssS'median_JD'
p150
(dp151
I0
F2458432.6271759258
sI1
Fnan
sI2
Fnan
sI3
Fnan
sI4
Fnan
sI5
Fnan
sI6
Fnan
sI7
Fnan
sI8
Fnan
sI9
Fnan
sI10
Fnan
sI11
Fnan
sI12
Fnan
sI13
Fnan
sI14
Fnan
ssS'error'
p152
(dp153
I0
F0.0016156239173482662
sI1
Fnan
sI2
Fnan
sI3
Fnan
sI4
Fnan
sI5
Fnan
sI6
Fnan
sI7
Fnan
sI8
Fnan
sI9
Fnan
sI10
Fnan
sI11
Fnan
sI12
Fnan
sI13
Fnan
sI14
Fnan
ssS'ref3bkg'
p154
(dp155
I0
F12.55941
sI1
F9.954369
sI2
F9.364614
sI3
F14.24968
sI4
F16.98083
sI5
F10.25145
sI6
F10.78346
sI7
F11.62858
sI8
F12.26703
sI9
F12.12656
sI10
F10.75957
sI11
F14.2752
sI12
F11.15707
sI13
F14.43721
sI14
F10.45447
ssS'ref3mag'
p156
(dp157
I0
F10.845
sI1
F10.773
sI2
F10.774
sI3
F10.961
sI4
F11.046
sI5
F10.773
sI6
F10.787
sI7
F10.782
sI8
F10.882
sI9
F10.834
sI10
F10.778
sI11
F10.99
sI12
F10.804
sI13
F10.983
sI14
F10.775
ssS'mean'
p158
(dp159
I0
F0.4383025205373849
sI1
Fnan
sI2
Fnan
sI3
Fnan
sI4
Fnan
sI5
Fnan
sI6
Fnan
sI7
Fnan
sI8
Fnan
sI9
Fnan
sI10
Fnan
sI11
Fnan
sI12
Fnan
sI13
Fnan
sI14
Fnan
sssS'r'
p160
(dp161
g3
(dp162
I0
F0.5497137042525257
sI1
Fnan
sI2
Fnan
sI3
Fnan
sI4
Fnan
sI5
Fnan
sI6
Fnan
sI7
Fnan
sI8
Fnan
sI9
Fnan
sI10
Fnan
sI11
Fnan
sI12
Fnan
sI13
Fnan
sI14
Fnan
ssg5
(dp163
I0
S'NoError'
p164
sI1
S'NoError'
p165
sI2
S'NoError'
p166
sI3
S'NoError'
p167
sI4
S'NoError'
p168
sI5
S'NoError'
p169
sI6
S'NoError'
p170
sI7
S'NoError'
p171
sI8
S'NoError'
p172
sI9
S'NoError'
p173
sI10
S'NoError'
p174
sI11
S'NoError'
p175
sI12
S'NoError'
p176
sI13
S'NoError'
p177
sI14
S'NoError'
p178
ssg22
(dp179
I0
F0.002
sI1
F0.002
sI2
F0.002
sI3
F0.002
sI4
F0.002
sI5
F0.002
sI6
F0.002
sI7
F0.002
sI8
F0.002
sI9
F0.002
sI10
F0.002
sI11
F0.002
sI12
F0.002
sI13
F0.002
sI14
F0.002
ssg24
(dp180
I0
F0.8915364689104908
sI1
F0.8939750722660748
sI2
F0.8919851228046394
sI3
F0.8938882300347011
sI4
F0.8942298598650964
sI5
F0.895759358991674
sI6
F0.8952620214923729
sI7
F0.8933968578502759
sI8
F0.8943044934243295
sI9
F0.8947729166284181
sI10
F0.8907147077378621
sI11
F0.8870404481073796
sI12
F0.8959373651169075
sI13
F0.8944027140139661
sI14
F0.8964279737504407
ssg26
(dp181
I0
F0.0024241886719285877
sI1
Fnan
sI2
Fnan
sI3
Fnan
sI4
Fnan
sI5
Fnan
sI6
Fnan
sI7
Fnan
sI8
Fnan
sI9
Fnan
sI10
Fnan
sI11
Fnan
sI12
Fnan
sI13
Fnan
sI14
Fnan
ssg28
(dp182
I0
F0.8935755740663084
sI1
Fnan
sI2
Fnan
sI3
Fnan
sI4
Fnan
sI5
Fnan
sI6
Fnan
sI7
Fnan
sI8
Fnan
sI9
Fnan
sI10
Fnan
sI11
Fnan
sI12
Fnan
sI13
Fnan
sI14
Fnan
ssg30
(dp183
I0
F11.221
sI1
F11.309
sI2
F11.265
sI3
F11.305
sI4
F11.447
sI5
F11.272
sI6
F11.261
sI7
F11.224
sI8
F11.319
sI9
F11.229
sI10
F11.345
sI11
F11.348
sI12
F11.235
sI13
F11.358
sI14
F11.217
ssg32
(dp184
I0
F8.956488
sI1
F10.54287
sI2
F8.722244
sI3
F10.43153
sI4
F13.91132
sI5
F10.25862
sI6
F9.144116
sI7
F8.92914
sI8
F10.44311
sI9
F9.481794
sI10
F10.99386
sI11
F11.48196
sI12
F8.942766
sI13
F11.55075
sI14
F8.225232
ssg34
(dp185
I0
F2458432.6003819443
sI1
F2458432.623425926
sI2
F2458432.622696759
sI3
F2458432.6241782405
sI4
F2458432.6462152777
sI5
F2458432.6249189815
sI6
F2458432.6219560187
sI7
F2458432.6033796296
sI8
F2458432.643923611
sI9
F2458432.601886574
sI10
F2458432.6454050927
sI11
F2458432.644664352
sI12
F2458432.6026273146
sI13
F2458432.6431828705
sI14
F2458432.6011342593
ssg36
(dp186
I0
F3.0126144
sI1
Fnan
sI2
Fnan
sI3
Fnan
sI4
Fnan
sI5
Fnan
sI6
Fnan
sI7
Fnan
sI8
Fnan
sI9
Fnan
sI10
Fnan
sI11
Fnan
sI12
Fnan
sI13
Fnan
sI14
Fnan
ssg38
(dp187
I0
F1.3970773333333333
sI1
Fnan
sI2
Fnan
sI3
Fnan
sI4
Fnan
sI5
Fnan
sI6
Fnan
sI7
Fnan
sI8
Fnan
sI9
Fnan
sI10
Fnan
sI11
Fnan
sI12
Fnan
sI13
Fnan
sI14
Fnan
ssg40
(dp188
I0
F0.5524000221737112
sI1
F0.5491171168950819
sI2
F0.5507342499925589
sI3
F0.5493732767109499
sI4
F0.5447707143183583
sI5
F0.5462284140533505
sI6
F0.551249035365678
sI7
F0.5511760523974101
sI8
F0.5508808197710019
sI9
F0.5503774239074202
sI10
F0.5463497058061512
sI11
F0.5496730930371083
sI12
F0.5489259422004087
sI13
F0.5484816465968724
sI14
F0.5510250606276557
ssg42
(dp189
I0
F0.0017392852463753812
sI1
Fnan
sI2
Fnan
sI3
Fnan
sI4
Fnan
sI5
Fnan
sI6
Fnan
sI7
Fnan
sI8
Fnan
sI9
Fnan
sI10
Fnan
sI11
Fnan
sI12
Fnan
sI13
Fnan
sI14
Fnan
ssg44
(dp190
I0
F2.0302557333333335
sI1
Fnan
sI2
Fnan
sI3
Fnan
sI4
Fnan
sI5
Fnan
sI6
Fnan
sI7
Fnan
sI8
Fnan
sI9
Fnan
sI10
Fnan
sI11
Fnan
sI12
Fnan
sI13
Fnan
sI14
Fnan
ssg46
(dp191
I0
g164
sI1
g165
sI2
g166
sI3
g167
sI4
g168
sI5
g169
sI6
g170
sI7
g171
sI8
g172
sI9
g173
sI10
g174
sI11
g175
sI12
g176
sI13
g177
sI14
g178
ssg48
(dp192
I0
F0.0018055953843635055
sI1
Fnan
sI2
Fnan
sI3
Fnan
sI4
Fnan
sI5
Fnan
sI6
Fnan
sI7
Fnan
sI8
Fnan
sI9
Fnan
sI10
Fnan
sI11
Fnan
sI12
Fnan
sI13
Fnan
sI14
Fnan
ssg50
(dp193
I0
F0.0630492626745905
sI1
Fnan
sI2
Fnan
sI3
Fnan
sI4
Fnan
sI5
Fnan
sI6
Fnan
sI7
Fnan
sI8
Fnan
sI9
Fnan
sI10
Fnan
sI11
Fnan
sI12
Fnan
sI13
Fnan
sI14
Fnan
ssg52
(dp194
I0
F1.0722905999999999
sI1
Fnan
sI2
Fnan
sI3
Fnan
sI4
Fnan
sI5
Fnan
sI6
Fnan
sI7
Fnan
sI8
Fnan
sI9
Fnan
sI10
Fnan
sI11
Fnan
sI12
Fnan
sI13
Fnan
sI14
Fnan
ssg54
(dp195
I0
F1.4955755213906765
sI1
F1.4981176070879503
sI2
F1.5048360999449248
sI3
F1.498916565353841
sI4
F1.498729210255541
sI5
F1.4957858005874674
sI6
F1.4964984834299877
sI7
F1.4963100862381837
sI8
F1.4977117061490797
sI9
F1.4932000814449946
sI10
F1.5031425242881913
sI11
F1.5039337203165604
sI12
F1.4947145373777753
sI13
F1.5022941850183664
sI14
F1.4976948018950145
ssg56
(dp196
I0
g164
sI1
g165
sI2
g166
sI3
g167
sI4
g168
sI5
g169
sI6
g170
sI7
g171
sI8
g172
sI9
g173
sI10
g174
sI11
g175
sI12
g176
sI13
g177
sI14
g178
ssg58
(dp197
I0
F10.90334
sI1
F12.44148
sI2
F11.05004
sI3
F11.63208
sI4
F16.19866
sI5
F11.32224
sI6
F11.01003
sI7
F10.05267
sI8
F12.41919
sI9
F10.32337
sI10
F13.23355
sI11
F13.81801
sI12
F9.797017
sI13
F13.90606
sI14
F9.587442
ssg60
(dp198
I0
F10.367799999999999
sI1
Fnan
sI2
Fnan
sI3
Fnan
sI4
Fnan
sI5
Fnan
sI6
Fnan
sI7
Fnan
sI8
Fnan
sI9
Fnan
sI10
Fnan
sI11
Fnan
sI12
Fnan
sI13
Fnan
sI14
Fnan
ssg62
(dp199
I0
F0.7131949635579958
sI1
Fnan
sI2
Fnan
sI3
Fnan
sI4
Fnan
sI5
Fnan
sI6
Fnan
sI7
Fnan
sI8
Fnan
sI9
Fnan
sI10
Fnan
sI11
Fnan
sI12
Fnan
sI13
Fnan
sI14
Fnan
ssg64
(dp200
I0
F-2.4901
sI1
F2.486847
sI2
F-3.714988
sI3
F2.363064
sI4
F2.462168
sI5
F3.41807
sI6
F-1.0545
sI7
F3.217756
sI8
F-1.598167
sI9
F3.399008
sI10
F4.023128
sI11
F4.47526
sI12
F-1.589172
sI13
F3.837088
sI14
F1.720698
ssg66
(dp201
I0
F10.722933333333335
sI1
Fnan
sI2
Fnan
sI3
Fnan
sI4
Fnan
sI5
Fnan
sI6
Fnan
sI7
Fnan
sI8
Fnan
sI9
Fnan
sI10
Fnan
sI11
Fnan
sI12
Fnan
sI13
Fnan
sI14
Fnan
ssg68
(dp202
I0
g164
sI1
g165
sI2
g166
sI3
g167
sI4
g168
sI5
g169
sI6
g170
sI7
g171
sI8
g172
sI9
g173
sI10
g174
sI11
g175
sI12
g176
sI13
g177
sI14
g178
ssg70
(dp203
I0
F13664.013333333334
sI1
F12701.003333333332
sI2
F13160.46
sI3
F12741.97
sI4
F11267.616666666667
sI5
F13220.733333333334
sI6
F13226.81
sI7
F13668.15
sI8
F12538.253333333332
sI9
F13646.253333333332
sI10
F12309.206666666667
sI11
F12174.880000000001
sI12
F13616.766666666666
sI13
F12158.19
sI14
F13793.269999999999
ssg72
(dp204
I0
F1.083014
sI1
F1.137921
sI2
F1.135875
sI3
F1.139991
sI4
F1.211062
sI5
F1.142052
sI6
F1.133879
sI7
F1.089186
sI8
F1.2026860000000001
sI9
F1.086064
sI10
F1.20805
sI11
F1.205385
sI12
F1.087628
sI13
F1.200064
sI14
F1.0845420000000001
ssg74
(dp205
I0
F11691.893333333333
sI1
F10806.31
sI2
F11188.016666666666
sI3
F10837.363333333335
sI4
F9579.0
sI5
F11231.123333333333
sI6
F11240.683333333332
sI7
F11653.58
sI8
F10664.623333333333
sI9
F11630.519999999999
sI10
F10497.83
sI11
F10442.81
sI12
F11571.82
sI13
F10310.21
sI14
F11690.44
ssg76
(dp206
I0
F18960.836666666666
sI1
F17608.36
sI2
F18320.233333333334
sI3
F17671.72666666667
sI4
F15621.716666666667
sI5
F18287.37
sI6
F18307.783333333333
sI7
F18944.58
sI8
F17375.61
sI9
F18871.64
sI10
F17141.113333333335
sI11
F17007.753333333334
sI12
F18824.873333333333
sI13
F16877.073333333334
sI14
F19083.41
ssg78
(dp207
I0
F9.346797
sI1
F12.1183
sI2
F12.37298
sI3
F11.75833
sI4
F16.13837
sI5
F9.663645
sI6
F10.83263
sI7
F8.954823
sI8
F12.49632
sI9
F9.269882
sI10
F12.46777
sI11
F12.81028
sI12
F9.453929
sI13
F13.36124
sI14
F9.88131
ssg80
(dp208
I0
F10.83
sI1
F10.916
sI2
F10.878
sI3
F10.913
sI4
F11.047
sI5
F10.874
sI6
F10.873
sI7
F10.834
sI8
F10.93
sI9
F10.836
sI10
F10.947
sI11
F10.953
sI12
F10.841
sI13
F10.967
sI14
F10.83
ssg82
(dp209
I0
F0.001
sI1
F0.001
sI2
F0.001
sI3
F0.001
sI4
F0.001
sI5
F0.001
sI6
F0.001
sI7
F0.001
sI8
F0.001
sI9
F0.001
sI10
F0.001
sI11
F0.001
sI12
F0.001
sI13
F0.001
sI14
F0.001
ssg84
(dp210
I0
F0.5493841715902479
sI1
Fnan
sI2
Fnan
sI3
Fnan
sI4
Fnan
sI5
Fnan
sI6
Fnan
sI7
Fnan
sI8
Fnan
sI9
Fnan
sI10
Fnan
sI11
Fnan
sI12
Fnan
sI13
Fnan
sI14
Fnan
ssg86
(dp211
I0
F10.897933333333334
sI1
Fnan
sI2
Fnan
sI3
Fnan
sI4
Fnan
sI5
Fnan
sI6
Fnan
sI7
Fnan
sI8
Fnan
sI9
Fnan
sI10
Fnan
sI11
Fnan
sI12
Fnan
sI13
Fnan
sI14
Fnan
ssg88
(dp212
I0
F10.661
sI1
F10.74
sI2
F10.702
sI3
F10.737
sI4
F10.87
sI5
F10.697
sI6
F10.696
sI7
F10.661
sI8
F10.754
sI9
F10.662
sI10
F10.774
sI11
F10.786
sI12
F10.665
sI13
F10.788
sI14
F10.651
ssg90
(dp213
I0
F3.801669
sI1
F3.745141
sI2
F2.794157
sI3
F4.393969
sI4
F4.969212
sI5
F-3.377911
sI6
F4.872061
sI7
F3.730379
sI8
F4.132671
sI9
F2.544351
sI10
F3.498904
sI11
F3.734289
sI12
F-1.825252
sI13
F4.306833
sI14
F3.868743
ssg92
(dp214
I0
F0.061909150027623976
sI1
Fnan
sI2
Fnan
sI3
Fnan
sI4
Fnan
sI5
Fnan
sI6
Fnan
sI7
Fnan
sI8
Fnan
sI9
Fnan
sI10
Fnan
sI11
Fnan
sI12
Fnan
sI13
Fnan
sI14
Fnan
ssg94
(dp215
I0
F0.7167477142934502
sI1
F0.7130674360365427
sI2
F0.71078591238143
sI3
F0.7126633406067376
sI4
F0.7124758268458372
sI5
F0.7129038022070724
sI6
F0.712911259994051
sI7
F0.7146644883761647
sI8
F0.7130221338846348
sI9
F0.715330472412727
sI10
F0.7129178901960997
sI11
F0.715686612700019
sI12
F0.713393034384205
sI13
F0.7101853964013183
sI14
F0.7111691326496471
ssg96
(dp216
I0
F30.0
sI1
F30.0
sI2
F30.0
sI3
F30.0
sI4
F30.0
sI5
F30.0
sI6
F30.0
sI7
F30.0
sI8
F30.0
sI9
F30.0
sI10
F30.0
sI11
F30.0
sI12
F30.0
sI13
F30.0
sI14
F30.0
ssg98
(dp217
I0
F0.002
sI1
F0.002
sI2
F0.002
sI3
F0.002
sI4
F0.002
sI5
F0.002
sI6
F0.002
sI7
F0.002
sI8
F0.002
sI9
F0.002
sI10
F0.002
sI11
F0.002
sI12
F0.002
sI13
F0.002
sI14
F0.002
ssg100
(dp218
I0
F0.002
sI1
F0.002
sI2
F0.002
sI3
F0.002
sI4
F0.002
sI5
F0.002
sI6
F0.002
sI7
F0.002
sI8
F0.002
sI9
F0.002
sI10
F0.002
sI11
F0.002
sI12
F0.002
sI13
F0.002
sI14
F0.002
ssg102
(dp219
I0
F-3.458195
sI1
F2.751143
sI2
F-2.151537
sI3
F-1.721214
sI4
F3.596933
sI5
F2.95287
sI6
F1.552268
sI7
F4.105771
sI8
F2.55276
sI9
F-1.213289
sI10
F-2.664982
sI11
F3.068201
sI12
F-1.580102
sI13
F3.684119
sI14
F4.609613
ssg104
(dp220
I0
S"KIC8462852-20181110at022431_-25-1X1-030-r'_cal.fts.mag.1"
p221
sI1
S"KIC8462852-20181110at025744_-25-1X1-030-r'_cal.fts.mag.1"
p222
sI2
S"KIC8462852-20181110at025641_-25-1X1-030-r'_cal.fts.mag.1"
p223
sI3
S"KIC8462852-20181110at025848_-25-1X1-030-r'_cal.fts.mag.1"
p224
sI4
S"KIC8462852-20181110at033033_-25-1X1-030-r'_cal.fts.mag.1"
p225
sI5
S"KIC8462852-20181110at025953_-25-1X1-030-r'_cal.fts.mag.1"
p226
sI6
S"KIC8462852-20181110at025535_-25-1X1-030-r'_cal.fts.mag.1"
p227
sI7
S"KIC8462852-20181110at022852_-25-1X1-030-r'_cal.fts.mag.1"
p228
sI8
S"KIC8462852-20181110at032715_-25-1X1-030-r'_cal.fts.mag.1"
p229
sI9
S"KIC8462852-20181110at022643_-25-1X1-030-r'_cal.fts.mag.1"
p230
sI10
S"KIC8462852-20181110at032923_-25-1X1-030-r'_cal.fts.mag.1"
p231
sI11
S"KIC8462852-20181110at032819_-25-1X1-030-r'_cal.fts.mag.1"
p232
sI12
S"KIC8462852-20181110at022747_-25-1X1-030-r'_cal.fts.mag.1"
p233
sI13
S"KIC8462852-20181110at032609_-25-1X1-030-r'_cal.fts.mag.1"
p234
sI14
S"KIC8462852-20181110at022538_-25-1X1-030-r'_cal.fts.mag.1"
p235
ssg121
(dp236
I0
F0.003529492040690151
sI1
Fnan
sI2
Fnan
sI3
Fnan
sI4
Fnan
sI5
Fnan
sI6
Fnan
sI7
Fnan
sI8
Fnan
sI9
Fnan
sI10
Fnan
sI11
Fnan
sI12
Fnan
sI13
Fnan
sI14
Fnan
ssg123
(dp237
I0
F8160.1900000000005
sI1
F7525.7733333333335
sI2
F7833.04
sI3
F7554.076666666666
sI4
F6622.293333333333
sI5
F7781.793333333333
sI6
F7859.943333333333
sI7
F8132.843333333333
sI8
F7451.303333333333
sI9
F8099.429999999999
sI10
F7275.22
sI11
F7260.346666666666
sI12
F8053.376666666666
sI13
F7193.423333333334
sI14
F8185.866666666667
ssg125
(dp238
I0
F0.06324495086189744
sI1
Fnan
sI2
Fnan
sI3
Fnan
sI4
Fnan
sI5
Fnan
sI6
Fnan
sI7
Fnan
sI8
Fnan
sI9
Fnan
sI10
Fnan
sI11
Fnan
sI12
Fnan
sI13
Fnan
sI14
Fnan
ssg127
(dp239
I0
S"r'"
p240
sI1
S"r'"
p241
sI2
S"r'"
p242
sI3
S"r'"
p243
sI4
S"r'"
p244
sI5
S"r'"
p245
sI6
S"r'"
p246
sI7
S"r'"
p247
sI8
S"r'"
p248
sI9
S"r'"
p249
sI10
S"r'"
p250
sI11
S"r'"
p251
sI12
S"r'"
p252
sI13
S"r'"
p253
sI14
S"r'"
p254
ssg144
(dp255
I0
F0.0021573107798547922
sI1
Fnan
sI2
Fnan
sI3
Fnan
sI4
Fnan
sI5
Fnan
sI6
Fnan
sI7
Fnan
sI8
Fnan
sI9
Fnan
sI10
Fnan
sI11
Fnan
sI12
Fnan
sI13
Fnan
sI14
Fnan
ssg146
(dp256
I0
F-2.227155
sI1
F-2.051303
sI2
F3.954598
sI3
F3.57742
sI4
F-2.330755
sI5
F3.386649
sI6
F3.406532
sI7
F3.348509
sI8
F4.642972
sI9
F1.711296
sI10
F-3.471915
sI11
F4.321575
sI12
F2.980266
sI13
F4.260887
sI14
F4.94426
ssg148
(dp257
I0
F1.498497395385237
sI1
Fnan
sI2
Fnan
sI3
Fnan
sI4
Fnan
sI5
Fnan
sI6
Fnan
sI7
Fnan
sI8
Fnan
sI9
Fnan
sI10
Fnan
sI11
Fnan
sI12
Fnan
sI13
Fnan
sI14
Fnan
ssg150
(dp258
I0
F2458432.623425926
sI1
Fnan
sI2
Fnan
sI3
Fnan
sI4
Fnan
sI5
Fnan
sI6
Fnan
sI7
Fnan
sI8
Fnan
sI9
Fnan
sI10
Fnan
sI11
Fnan
sI12
Fnan
sI13
Fnan
sI14
Fnan
ssg152
(dp259
I0
F0.0021573107798547922
sI1
Fnan
sI2
Fnan
sI3
Fnan
sI4
Fnan
sI5
Fnan
sI6
Fnan
sI7
Fnan
sI8
Fnan
sI9
Fnan
sI10
Fnan
sI11
Fnan
sI12
Fnan
sI13
Fnan
sI14
Fnan
ssg154
(dp260
I0
F10.7132
sI1
F14.34027
sI2
F13.3622
sI3
F13.98574
sI4
F20.69097
sI5
F14.13239
sI6
F12.65981
sI7
F11.91072
sI8
F15.36511
sI9
F12.26717
sI10
F15.44478
sI11
F15.32384
sI12
F11.98147
sI13
F15.95852
sI14
F11.78578
ssg156
(dp261
I0
F10.305
sI1
F10.386
sI2
F10.343
sI3
F10.382
sI4
F10.516
sI5
F10.345
sI6
F10.343
sI7
F10.306
sI8
F10.4
sI9
F10.31
sI10
F10.415
sI11
F10.423
sI12
F10.313
sI13
F10.432
sI14
F10.298
ssg158
(dp262
I0
F0.5493841715902479
sI1
Fnan
sI2
Fnan
sI3
Fnan
sI4
Fnan
sI5
Fnan
sI6
Fnan
sI7
Fnan
sI8
Fnan
sI9
Fnan
sI10
Fnan
sI11
Fnan
sI12
Fnan
sI13
Fnan
sI14
Fnan
sssS'z'
p263
(dp264
g3
(dp265
I0
F0.3705755635533579
sI1
Fnan
sI2
Fnan
sI3
Fnan
sI4
Fnan
sI5
Fnan
sI6
Fnan
sI7
Fnan
sI8
Fnan
sI9
Fnan
sI10
Fnan
sI11
Fnan
sI12
Fnan
sI13
Fnan
sI14
Fnan
ssg5
(dp266
I0
S'NoError'
p267
sI1
S'NoError'
p268
sI2
S'NoError'
p269
sI3
S'NoError'
p270
sI4
S'NoError'
p271
sI5
S'NoError'
p272
sI6
S'NoError'
p273
sI7
S'NoError'
p274
sI8
S'NoError'
p275
sI9
S'NoError'
p276
sI10
S'NoError'
p277
sI11
S'NoError'
p278
sI12
S'NoError'
p279
sI13
S'NoError'
p280
sI14
S'NoError'
p281
ssg22
(dp282
I0
F0.007
sI1
F0.008
sI2
F0.007
sI3
F0.007
sI4
F0.007
sI5
F0.009
sI6
F0.007
sI7
F0.007
sI8
F0.007
sI9
F0.007
sI10
F0.008
sI11
F0.007
sI12
F0.008
sI13
F0.007
sI14
F0.009
ssg24
(dp283
I0
F0.9087154903727338
sI1
F0.9183015434441318
sI2
F0.9129263021792206
sI3
F0.913223167042083
sI4
F0.9085061723486009
sI5
F0.9054910909064307
sI6
F0.9091065860016438
sI7
F0.9135154980266377
sI8
F0.9204609991963987
sI9
F0.9068487519180645
sI10
F0.9097700503255924
sI11
F0.9139297355488022
sI12
F0.918934273848822
sI13
F0.918908287805319
sI14
F0.9180097047315435
ssg26
(dp284
I0
F0.004916170165398365
sI1
Fnan
sI2
Fnan
sI3
Fnan
sI4
Fnan
sI5
Fnan
sI6
Fnan
sI7
Fnan
sI8
Fnan
sI9
Fnan
sI10
Fnan
sI11
Fnan
sI12
Fnan
sI13
Fnan
sI14
Fnan
ssg28
(dp285
I0
F0.9131098435797349
sI1
Fnan
sI2
Fnan
sI3
Fnan
sI4
Fnan
sI5
Fnan
sI6
Fnan
sI7
Fnan
sI8
Fnan
sI9
Fnan
sI10
Fnan
sI11
Fnan
sI12
Fnan
sI13
Fnan
sI14
Fnan
ssg30
(dp286
I0
F13.259
sI1
F13.37
sI2
F13.232
sI3
F13.272
sI4
F13.293
sI5
F13.57
sI6
F13.256
sI7
F13.274
sI8
F13.365
sI9
F13.274
sI10
F13.476
sI11
F13.321
sI12
F13.421
sI13
F13.273
sI14
F13.573
ssg32
(dp287
I0
F6.283731
sI1
F7.646837
sI2
F5.253093
sI3
F5.641701
sI4
F5.426678
sI5
F8.617177
sI6
F5.938344
sI7
F6.599838
sI8
F6.299374
sI9
F6.037929
sI10
F8.630657
sI11
F6.831594
sI12
F8.594889
sI13
F4.830493
sI14
F7.991415
ssg34
(dp288
I0
F2458432.6079282407
sI1
F2458432.65375
sI2
F2458432.610949074
sI3
F2458432.629409722
sI4
F2458432.6316203703
sI5
F2458432.650752315
sI6
F2458432.6094444445
sI7
F2458432.6086805556
sI8
F2458432.632361111
sI9
F2458432.6308796294
sI10
F2458432.65224537
sI11
F2458432.630138889
sI12
F2458432.653009259
sI13
F2458432.6101967595
sI14
F2458432.6514930557
ssg36
(dp289
I0
F1.1441488666666666
sI1
Fnan
sI2
Fnan
sI3
Fnan
sI4
Fnan
sI5
Fnan
sI6
Fnan
sI7
Fnan
sI8
Fnan
sI9
Fnan
sI10
Fnan
sI11
Fnan
sI12
Fnan
sI13
Fnan
sI14
Fnan
ssg38
(dp290
I0
F1.3683072
sI1
Fnan
sI2
Fnan
sI3
Fnan
sI4
Fnan
sI5
Fnan
sI6
Fnan
sI7
Fnan
sI8
Fnan
sI9
Fnan
sI10
Fnan
sI11
Fnan
sI12
Fnan
sI13
Fnan
sI14
Fnan
ssg40
(dp291
I0
F0.37269109789288263
sI1
F0.36870714432114193
sI2
F0.3735191302729527
sI3
F0.3796995353837686
sI4
F0.372667337928039
sI5
F0.3632047581193223
sI6
F0.3732371794924895
sI7
F0.3694866407537089
sI8
F0.37079854645219934
sI9
F0.3744361312445628
sI10
F0.36715070432149105
sI11
F0.36858098625528707
sI12
F0.36868095329147715
sI13
F0.367875675158031
sI14
F0.3696507988093892
ssg42
(dp292
I0
F0.0023480330910769804
sI1
Fnan
sI2
Fnan
sI3
Fnan
sI4
Fnan
sI5
Fnan
sI6
Fnan
sI7
Fnan
sI8
Fnan
sI9
Fnan
sI10
Fnan
sI11
Fnan
sI12
Fnan
sI13
Fnan
sI14
Fnan
ssg44
(dp293
I0
F1.8040788666666667
sI1
Fnan
sI2
Fnan
sI3
Fnan
sI4
Fnan
sI5
Fnan
sI6
Fnan
sI7
Fnan
sI8
Fnan
sI9
Fnan
sI10
Fnan
sI11
Fnan
sI12
Fnan
sI13
Fnan
sI14
Fnan
ssg46
(dp294
I0
g267
sI1
g268
sI2
g269
sI3
g270
sI4
g271
sI5
g272
sI6
g273
sI7
g274
sI8
g275
sI9
g276
sI10
g277
sI11
g278
sI12
g279
sI13
g280
sI14
g281
ssg48
(dp295
I0
F0.004076878010297966
sI1
Fnan
sI2
Fnan
sI3
Fnan
sI4
Fnan
sI5
Fnan
sI6
Fnan
sI7
Fnan
sI8
Fnan
sI9
Fnan
sI10
Fnan
sI11
Fnan
sI12
Fnan
sI13
Fnan
sI14
Fnan
ssg50
(dp296
I0
F0.10546915595159946
sI1
Fnan
sI2
Fnan
sI3
Fnan
sI4
Fnan
sI5
Fnan
sI6
Fnan
sI7
Fnan
sI8
Fnan
sI9
Fnan
sI10
Fnan
sI11
Fnan
sI12
Fnan
sI13
Fnan
sI14
Fnan
ssg52
(dp297
I0
F1.292736
sI1
Fnan
sI2
Fnan
sI3
Fnan
sI4
Fnan
sI5
Fnan
sI6
Fnan
sI7
Fnan
sI8
Fnan
sI9
Fnan
sI10
Fnan
sI11
Fnan
sI12
Fnan
sI13
Fnan
sI14
Fnan
ssg54
(dp298
I0
F1.503566420829815
sI1
F1.5043672391079406
sI2
F1.5086100647238936
sI3
F1.512264912037276
sI4
F1.5143760704082618
sI5
F1.535414415922336
sI6
F1.510280451228259
sI7
F1.5102786415268452
sI8
F1.4927696357423363
sI9
F1.5180763136579138
sI10
F1.518437839705399
sI11
F1.5104628591827962
sI12
F1.5111212592307302
sI13
F1.503298799923144
sI14
F1.5141270691569164
ssg56
(dp299
I0
g267
sI1
g268
sI2
g269
sI3
g270
sI4
g271
sI5
g272
sI6
g273
sI7
g274
sI8
g275
sI9
g276
sI10
g277
sI11
g278
sI12
g279
sI13
g280
sI14
g281
ssg58
(dp300
I0
F5.822319
sI1
F8.445285
sI2
F6.201127
sI3
F7.256172
sI4
F6.950353
sI5
F8.727573
sI6
F6.202003
sI7
F6.712169
sI8
F6.832218
sI9
F7.502766
sI10
F9.189613
sI11
F5.964321
sI12
F8.291328
sI13
F6.299117
sI14
F9.617038
ssg60
(dp301
I0
F11.993666666666668
sI1
Fnan
sI2
Fnan
sI3
Fnan
sI4
Fnan
sI5
Fnan
sI6
Fnan
sI7
Fnan
sI8
Fnan
sI9
Fnan
sI10
Fnan
sI11
Fnan
sI12
Fnan
sI13
Fnan
sI14
Fnan
ssg62
(dp302
I0
F0.6887880810672927
sI1
Fnan
sI2
Fnan
sI3
Fnan
sI4
Fnan
sI5
Fnan
sI6
Fnan
sI7
Fnan
sI8
Fnan
sI9
Fnan
sI10
Fnan
sI11
Fnan
sI12
Fnan
sI13
Fnan
sI14
Fnan
ssg64
(dp303
I0
F4.682335
sI1
F3.997002
sI2
F-1.955931
sI3
F1.871327
sI4
F3.516939
sI5
F2.228004
sI6
F-2.756934
sI7
F2.973142
sI8
F-2.454023
sI9
F2.899393
sI10
F2.935876
sI11
F3.766585
sI12
F-3.036089
sI13
F4.095773
sI14
F-2.238791
ssg66
(dp304
I0
F12.3378
sI1
Fnan
sI2
Fnan
sI3
Fnan
sI4
Fnan
sI5
Fnan
sI6
Fnan
sI7
Fnan
sI8
Fnan
sI9
Fnan
sI10
Fnan
sI11
Fnan
sI12
Fnan
sI13
Fnan
sI14
Fnan
ssg68
(dp305
I0
g267
sI1
g268
sI2
g269
sI3
g270
sI4
g271
sI5
g272
sI6
g273
sI7
g274
sI8
g275
sI9
g276
sI10
g277
sI11
g278
sI12
g279
sI13
g280
sI14
g281
ssg70
(dp306
I0
F3140.025333333333
sI1
F2886.8296666666665
sI2
F3221.548333333333
sI3
F3056.31
sI4
F3042.5706666666665
sI5
F2413.652
sI6
F3143.7696666666666
sI7
F3135.9970000000003
sI8
F2887.603666666667
sI9
F3076.5076666666664
sI10
F2610.8993333333333
sI11
F3010.6956666666665
sI12
F2756.1603333333333
sI13
F3164.6386666666667
sI14
F2387.8056666666666
ssg72
(dp307
I0
F1.099106
sI1
F1.240113
sI2
F1.106035
sI3
F1.155108
sI4
F1.161838
sI5
F1.228224
sI6
F1.102539
sI7
F1.1008129999999998
sI8
F1.1641219999999999
sI9
F1.1595719999999998
sI10
F1.234151
sI11
F1.157322
sI12
F1.2371219999999998
sI13
F1.104276
sI14
F1.2311530000000002
ssg74
(dp308
I0
F2597.5196666666666
sI1
F2349.010666666667
sI2
F2637.854
sI3
F2495.5303333333336
sI4
F2500.6803333333332
sI5
F1967.6146666666668
sI6
F2587.934
sI7
F2562.5673333333334
sI8
F2358.5820000000003
sI9
F2529.7146666666667
sI10
F2135.8606666666665
sI11
F2458.188666666667
sI12
F2230.7149999999997
sI13
F2574.216
sI14
F1931.8683333333333
ssg76
(dp309
I0
F4313.39
sI1
F3938.313333333333
sI2
F4419.776666666667
sI3
F4197.926666666667
sI4
F4197.283333333334
sI5
F3363.5299999999997
sI6
F4328.24
sI7
F4303.21
sI8
F3915.673333333333
sI9
F4255.336666666667
sI10
F3603.83
sI11
F4130.2733333333335
sI12
F3767.8866666666668
sI13
F4313.606666666667
sI14
F3270.2676666666666
ssg78
(dp310
I0
F5.28842
sI1
F8.362074
sI2
F5.424869
sI3
F6.749564
sI4
F5.957094
sI5
F9.199279
sI6
F6.922565
sI7
F6.374853
sI8
F7.196001
sI9
F6.47551
sI10
F8.398077
sI11
F6.753671
sI12
F8.813228
sI13
F6.052426
sI14
F9.546773
ssg80
(dp311
I0
F12.464
sI1
F12.573
sI2
F12.447
sI3
F12.507
sI4
F12.505
sI5
F12.765
sI6
F12.468
sI7
F12.478
sI8
F12.568
sI9
F12.492
sI10
F12.676
sI11
F12.523
sI12
F12.629
sI13
F12.473
sI14
F12.785
ssg82
(dp312
I0
F0.003
sI1
F0.003
sI2
F0.003
sI3
F0.003
sI4
F0.003
sI5
F0.003
sI6
F0.003
sI7
F0.003
sI8
F0.003
sI9
F0.003
sI10
F0.003
sI11
F0.003
sI12
F0.003
sI13
F0.003
sI14
F0.004
ssg84
(dp313
I0
F0.37069244131311624
sI1
Fnan
sI2
Fnan
sI3
Fnan
sI4
Fnan
sI5
Fnan
sI6
Fnan
sI7
Fnan
sI8
Fnan
sI9
Fnan
sI10
Fnan
sI11
Fnan
sI12
Fnan
sI13
Fnan
sI14
Fnan
ssg86
(dp314
I0
F12.556866666666666
sI1
Fnan
sI2
Fnan
sI3
Fnan
sI4
Fnan
sI5
Fnan
sI6
Fnan
sI7
Fnan
sI8
Fnan
sI9
Fnan
sI10
Fnan
sI11
Fnan
sI12
Fnan
sI13
Fnan
sI14
Fnan
ssg88
(dp315
I0
F12.258
sI1
F12.349
sI2
F12.23
sI3
F12.287
sI4
F12.292
sI5
F12.543
sI6
F12.256
sI7
F12.259
sI8
F12.349
sI9
F12.28
sI10
F12.458
sI11
F12.303
sI12
F12.399
sI13
F12.249
sI14
F12.555
ssg90
(dp316
I0
F-1.994431
sI1
F4.685791
sI2
F1.76818
sI3
F2.11286
sI4
F2.931438
sI5
F-1.764446
sI6
F-1.805269
sI7
F3.733068
sI8
F2.927364
sI9
F2.962439
sI10
F2.464852
sI11
F1.775537
sI12
F2.94512
sI13
F-2.455856
sI14
F-3.124414
ssg92
(dp317
I0
F0.103951682915441
sI1
Fnan
sI2
Fnan
sI3
Fnan
sI4
Fnan
sI5
Fnan
sI6
Fnan
sI7
Fnan
sI8
Fnan
sI9
Fnan
sI10
Fnan
sI11
Fnan
sI12
Fnan
sI13
Fnan
sI14
Fnan
ssg94
(dp318
I0
F0.6970011868384632
sI1
F0.6883403517454996
sI2
F0.6904179576186067
sI3
F0.6880201041138718
sI4
F0.6908096028824153
sI5
F0.6811676234768671
sI6
F0.6927009239682907
sI7
F0.6889356172864483
sI8
F0.6933664467873351
sI9
F0.6900622958307034
sI10
F0.6873543648025862
sI11
F0.6884748181000833
sI12
F0.683843939199089
sI13
F0.6884545465567323
sI14
F0.6828714368023979
ssg96
(dp319
I0
F30.0
sI1
F30.0
sI2
F30.0
sI3
F30.0
sI4
F30.0
sI5
F30.0
sI6
F30.0
sI7
F30.0
sI8
F30.0
sI9
F30.0
sI10
F30.0
sI11
F30.0
sI12
F30.0
sI13
F30.0
sI14
F30.0
ssg98
(dp320
I0
F0.004
sI1
F0.004
sI2
F0.004
sI3
F0.004
sI4
F0.004
sI5
F0.005
sI6
F0.004
sI7
F0.004
sI8
F0.004
sI9
F0.004
sI10
F0.005
sI11
F0.004
sI12
F0.005
sI13
F0.004
sI14
F0.005
ssg100
(dp321
I0
F0.004
sI1
F0.004
sI2
F0.004
sI3
F0.004
sI4
F0.004
sI5
F0.004
sI6
F0.004
sI7
F0.004
sI8
F0.004
sI9
F0.004
sI10
F0.004
sI11
F0.004
sI12
F0.004
sI13
F0.004
sI14
F0.004
ssg102
(dp322
I0
F2.944529
sI1
F3.995188
sI2
F-1.586821
sI3
F-3.482202
sI4
F-2.393446
sI5
F2.505658
sI6
F3.105996
sI7
F4.019722
sI8
F-2.821052
sI9
F3.855012
sI10
F-2.875383
sI11
F2.300438
sI12
F3.889591
sI13
F2.793108
sI14
F3.140702
ssg104
(dp323
I0
S"KIC8462852-20181110at023523_-25-1X1-030-z'_cal.fts.mag.1"
p324
sI1
S"KIC8462852-20181110at034124_-25-1X1-030-z'_cal.fts.mag.1"
p325
sI2
S"KIC8462852-20181110at023946_-25-1X1-030-z'_cal.fts.mag.1"
p326
sI3
S"KIC8462852-20181110at030619_-25-1X1-030-z'_cal.fts.mag.1"
p327
sI4
S"KIC8462852-20181110at030932_-25-1X1-030-z'_cal.fts.mag.1"
p328
sI5
S"KIC8462852-20181110at033703_-25-1X1-030-z'_cal.fts.mag.1"
p329
sI6
S"KIC8462852-20181110at023736_-25-1X1-030-z'_cal.fts.mag.1"
p330
sI7
S"KIC8462852-20181110at023630_-25-1X1-030-z'_cal.fts.mag.1"
p331
sI8
S"KIC8462852-20181110at031036_-25-1X1-030-z'_cal.fts.mag.1"
p332
sI9
S"KIC8462852-20181110at030828_-25-1X1-030-z'_cal.fts.mag.1"
p333
sI10
S"KIC8462852-20181110at033914_-25-1X1-030-z'_cal.fts.mag.1"
p334
sI11
S"KIC8462852-20181110at030724_-25-1X1-030-z'_cal.fts.mag.1"
p335
sI12
S"KIC8462852-20181110at034020_-25-1X1-030-z'_cal.fts.mag.1"
p336
sI13
S"KIC8462852-20181110at023841_-25-1X1-030-z'_cal.fts.mag.1"
p337
sI14
S"KIC8462852-20181110at033809_-25-1X1-030-z'_cal.fts.mag.1"
p338
ssg121
(dp339
I0
F0.00934189633541117
sI1
Fnan
sI2
Fnan
sI3
Fnan
sI4
Fnan
sI5
Fnan
sI6
Fnan
sI7
Fnan
sI8
Fnan
sI9
Fnan
sI10
Fnan
sI11
Fnan
sI12
Fnan
sI13
Fnan
sI14
Fnan
ssg123
(dp340
I0
F1248.6313333333335
sI1
F1127.5253333333335
sI2
F1279.8233333333333
sI3
F1233.994
sI4
F1209.993
sI5
F937.649
sI6
F1251.5816666666665
sI7
F1231.8406666666667
sI8
F1132.4013333333335
sI9
F1230.8413333333333
sI10
F1021.975
sI11
F1179.3556666666666
sI12
F1075.9046666666666
sI13
F1232.6853333333333
sI14
F935.2093333333333
ssg125
(dp341
I0
F0.10938847331980689
sI1
Fnan
sI2
Fnan
sI3
Fnan
sI4
Fnan
sI5
Fnan
sI6
Fnan
sI7
Fnan
sI8
Fnan
sI9
Fnan
sI10
Fnan
sI11
Fnan
sI12
Fnan
sI13
Fnan
sI14
Fnan
ssg127
(dp342
I0
S"z'"
p343
sI1
S"z'"
p344
sI2
S"z'"
p345
sI3
S"z'"
p346
sI4
S"z'"
p347
sI5
S"z'"
p348
sI6
S"z'"
p349
sI7
S"z'"
p350
sI8
S"z'"
p351
sI9
S"z'"
p352
sI10
S"z'"
p353
sI11
S"z'"
p354
sI12
S"z'"
p355
sI13
S"z'"
p356
sI14
S"z'"
p357
ssg144
(dp358
I0
F0.0038641493307615387
sI1
Fnan
sI2
Fnan
sI3
Fnan
sI4
Fnan
sI5
Fnan
sI6
Fnan
sI7
Fnan
sI8
Fnan
sI9
Fnan
sI10
Fnan
sI11
Fnan
sI12
Fnan
sI13
Fnan
sI14
Fnan
ssg146
(dp359
I0
F2.767811
sI1
F1.179487
sI2
F3.510582
sI3
F2.324831
sI4
F3.565264
sI5
F-2.911196
sI6
F3.853551
sI7
F-3.147909
sI8
F-1.711893
sI9
F2.575773
sI10
F4.099483
sI11
F2.469508
sI12
F1.53518
sI13
F4.310162
sI14
F2.640549
ssg148
(dp360
I0
F1.511163466158924
sI1
Fnan
sI2
Fnan
sI3
Fnan
sI4
Fnan
sI5
Fnan
sI6
Fnan
sI7
Fnan
sI8
Fnan
sI9
Fnan
sI10
Fnan
sI11
Fnan
sI12
Fnan
sI13
Fnan
sI14
Fnan
ssg150
(dp361
I0
F2458432.6308796294
sI1
Fnan
sI2
Fnan
sI3
Fnan
sI4
Fnan
sI5
Fnan
sI6
Fnan
sI7
Fnan
sI8
Fnan
sI9
Fnan
sI10
Fnan
sI11
Fnan
sI12
Fnan
sI13
Fnan
sI14
Fnan
ssg152
(dp362
I0
F0.0038641493307615387
sI1
Fnan
sI2
Fnan
sI3
Fnan
sI4
Fnan
sI5
Fnan
sI6
Fnan
sI7
Fnan
sI8
Fnan
sI9
Fnan
sI10
Fnan
sI11
Fnan
sI12
Fnan
sI13
Fnan
sI14
Fnan
ssg154
(dp363
I0
F6.994957
sI1
F8.682334
sI2
F6.676709
sI3
F7.104787
sI4
F6.825023
sI5
F9.807184
sI6
F6.648404
sI7
F5.692167
sI8
F7.289275
sI9
F6.859367
sI10
F9.16216
sI11
F8.541224
sI12
F9.469259
sI13
F6.631824
sI14
F10.68525
ssg156
(dp364
I0
F11.913
sI1
F12.012
sI2
F11.886
sI3
F11.942
sI4
F11.943
sI5
F12.183
sI6
F11.909
sI7
F11.916
sI8
F12.018
sI9
F11.928
sI10
F12.108
sI11
F11.96
sI12
F12.06
sI13
F11.913
sI14
F12.214
ssg158
(dp365
I0
F0.37069244131311624
sI1
Fnan
sI2
Fnan
sI3
Fnan
sI4
Fnan
sI5
Fnan
sI6
Fnan
sI7
Fnan
sI8
Fnan
sI9
Fnan
sI10
Fnan
sI11
Fnan
sI12
Fnan
sI13
Fnan
sI14
Fnan
sssS'g'
p366
(dp367
g3
(dp368
I0
F0.8700777125917063
sI1
Fnan
sI2
Fnan
sI3
Fnan
sI4
Fnan
sI5
Fnan
sI6
Fnan
sI7
Fnan
sI8
Fnan
sI9
Fnan
sI10
Fnan
sI11
Fnan
sI12
Fnan
ssg5
(dp369
I0
S'NoError'
p370
sI1
S'NoError'
p371
sI2
S'NoError'
p372
sI3
S'NoError'
p373
sI4
S'NoError'
p374
sI5
S'NoError'
p375
sI6
S'NoError'
p376
sI7
S'NoError'
p377
sI8
S'NoError'
p378
sI9
S'NoError'
p379
sI10
S'NoError'
p380
sI11
S'NoError'
p381
sI12
S'NoError'
p382
ssg22
(dp383
I0
F0.003
sI1
F0.003
sI2
F0.002
sI3
F0.003
sI4
F0.003
sI5
F0.002
sI6
F0.002
sI7
F0.002
sI8
F0.002
sI9
F0.002
sI10
F0.002
sI11
F0.002
sI12
F0.002
ssg24
(dp384
I0
F0.876654280541133
sI1
F0.8758318260758218
sI2
F0.8766471751709672
sI3
F0.8710027759054842
sI4
F0.8766595729388643
sI5
F0.8800413448909573
sI6
F0.8760963781071738
sI7
F0.8755035245126644
sI8
F0.8732203002952409
sI9
F0.8730186569521456
sI10
F0.8724184221396115
sI11
F0.8756210725688975
sI12
F0.8821080888963952
ssg26
(dp385
I0
F0.0030137144729530285
sI1
Fnan
sI2
Fnan
sI3
Fnan
sI4
Fnan
sI5
Fnan
sI6
Fnan
sI7
Fnan
sI8
Fnan
sI9
Fnan
sI10
Fnan
sI11
Fnan
sI12
Fnan
ssg28
(dp386
I0
F0.8757556476150274
sI1
Fnan
sI2
Fnan
sI3
Fnan
sI4
Fnan
sI5
Fnan
sI6
Fnan
sI7
Fnan
sI8
Fnan
sI9
Fnan
sI10
Fnan
sI11
Fnan
sI12
Fnan
ssg30
(dp387
I0
F11.607
sI1
F11.633
sI2
F11.482
sI3
F11.625
sI4
F11.586
sI5
F11.443
sI6
F11.586
sI7
F11.457
sI8
F11.53
sI9
F11.509
sI10
F11.481
sI11
F11.573
sI12
F11.483
ssg32
(dp388
I0
F5.711761
sI1
F5.717909
sI2
F3.128505
sI3
F4.563564
sI4
F5.025556
sI5
F2.130677
sI6
F3.786266
sI7
F1.602817
sI8
F5.626407
sI9
F5.282411
sI10
F3.385369
sI11
F4.471032
sI12
F3.26399
ssg34
(dp389
I0
F2458432.6401388887
sI1
F2458432.639363426
sI2
F2458432.598090278
sI3
F2458432.6416319446
sI4
F2458432.6181944446
sI5
F2458432.5996064814
sI6
F2458432.6424189815
sI7
F2458432.5988541665
sI8
F2458432.5839699074
sI9
F2458432.5847106483
sI10
F2458432.596550926
sI11
F2458432.6408912037
sI12
F2458432.597326389
ssg36
(dp390
I0
F1.0273654615384613
sI1
Fnan
sI2
Fnan
sI3
Fnan
sI4
Fnan
sI5
Fnan
sI6
Fnan
sI7
Fnan
sI8
Fnan
sI9
Fnan
sI10
Fnan
sI11
Fnan
sI12
Fnan
ssg38
(dp391
I0
F1.730451
sI1
Fnan
sI2
Fnan
sI3
Fnan
sI4
Fnan
sI5
Fnan
sI6
Fnan
sI7
Fnan
sI8
Fnan
sI9
Fnan
sI10
Fnan
sI11
Fnan
sI12
Fnan
ssg40
(dp392
I0
F0.868354514515298
sI1
F0.8740461845730576
sI2
F0.8744381231537413
sI3
F0.8656259578963501
sI4
F0.867940141203381
sI5
F0.8712173406578628
sI6
F0.8632037518292999
sI7
F0.8711136644231682
sI8
F0.8706563907399386
sI9
F0.8661851110909502
sI10
F0.8726723015343503
sI11
F0.8676548903579415
sI12
F0.8710279309544353
ssg42
(dp393
I0
F0.0027910979099991604
sI1
Fnan
sI2
Fnan
sI3
Fnan
sI4
Fnan
sI5
Fnan
sI6
Fnan
sI7
Fnan
sI8
Fnan
sI9
Fnan
sI10
Fnan
sI11
Fnan
sI12
Fnan
ssg44
(dp394
I0
F2.0854158923076924
sI1
Fnan
sI2
Fnan
sI3
Fnan
sI4
Fnan
sI5
Fnan
sI6
Fnan
sI7
Fnan
sI8
Fnan
sI9
Fnan
sI10
Fnan
sI11
Fnan
sI12
Fnan
ssg46
(dp395
I0
g370
sI1
g371
sI2
g372
sI3
g373
sI4
g374
sI5
g375
sI6
g376
sI7
g377
sI8
g378
sI9
g379
sI10
g380
sI11
g381
sI12
g382
ssg48
(dp396
I0
F0.0024942653733405636
sI1
Fnan
sI2
Fnan
sI3
Fnan
sI4
Fnan
sI5
Fnan
sI6
Fnan
sI7
Fnan
sI8
Fnan
sI9
Fnan
sI10
Fnan
sI11
Fnan
sI12
Fnan
ssg50
(dp397
I0
F0.06586164597287578
sI1
Fnan
sI2
Fnan
sI3
Fnan
sI4
Fnan
sI5
Fnan
sI6
Fnan
sI7
Fnan
sI8
Fnan
sI9
Fnan
sI10
Fnan
sI11
Fnan
sI12
Fnan
ssg52
(dp398
I0
F1.1673866153846153
sI1
Fnan
sI2
Fnan
sI3
Fnan
sI4
Fnan
sI5
Fnan
sI6
Fnan
sI7
Fnan
sI8
Fnan
sI9
Fnan
sI10
Fnan
sI11
Fnan
sI12
Fnan
ssg54
(dp399
I0
F1.5238350574787805
sI1
F1.521290995102759
sI2
F1.5154311874971214
sI3
F1.5304049086275089
sI4
F1.519235153319593
sI5
F1.5160535547476761
sI6
F1.5196752670249971
sI7
F1.5185771751243673
sI8
F1.5217601284324427
sI9
F1.521488687421398
sI10
F1.525064660709318
sI11
F1.5319161948545215
sI12
F1.516806218316712
ssg56
(dp400
I0
g370
sI1
g371
sI2
g372
sI3
g373
sI4
g374
sI5
g375
sI6
g376
sI7
g377
sI8
g378
sI9
g379
sI10
g380
sI11
g381
sI12
g382
ssg58
(dp401
I0
F4.979167
sI1
F5.506469
sI2
F3.250593
sI3
F6.327326
sI4
F4.938046
sI5
F2.927627
sI6
F3.795289
sI7
F2.506823
sI8
F4.911181
sI9
F4.910661
sI10
F2.766862
sI11
F5.509791
sI12
F2.17924
ssg60
(dp402
I0
F11.104538461538462
sI1
Fnan
sI2
Fnan
sI3
Fnan
sI4
Fnan
sI5
Fnan
sI6
Fnan
sI7
Fnan
sI8
Fnan
sI9
Fnan
sI10
Fnan
sI11
Fnan
sI12
Fnan
ssg62
(dp403
I0
F0.7151271855529111
sI1
Fnan
sI2
Fnan
sI3
Fnan
sI4
Fnan
sI5
Fnan
sI6
Fnan
sI7
Fnan
sI8
Fnan
sI9
Fnan
sI10
Fnan
sI11
Fnan
sI12
Fnan
ssg64
(dp404
I0
F3.332456
sI1
F3.975953
sI2
F3.846273
sI3
F-3.276603
sI4
F3.790449
sI5
F3.295238
sI6
F2.874092
sI7
F2.294009
sI8
F2.690224
sI9
F3.235338
sI10
F-2.135865
sI11
F-4.277932
sI12
F2.852231
ssg66
(dp405
I0
F11.484384615384615
sI1
Fnan
sI2
Fnan
sI3
Fnan
sI4
Fnan
sI5
Fnan
sI6
Fnan
sI7
Fnan
sI8
Fnan
sI9
Fnan
sI10
Fnan
sI11
Fnan
sI12
Fnan
ssg68
(dp406
I0
g370
sI1
g371
sI2
g372
sI3
g373
sI4
g374
sI5
g375
sI6
g376
sI7
g377
sI8
g378
sI9
g379
sI10
g380
sI11
g381
sI12
g382
ssg70
(dp407
I0
F6021.5599999999995
sI1
F5836.59
sI2
F6706.653333333334
sI3
F5911.996666666667
sI4
F6139.296666666666
sI5
F6998.63
sI6
F6170.913333333333
sI7
F6886.176666666666
sI8
F6426.98
sI9
F6587.08
sI10
F6702.4766666666665
sI11
F6213.34
sI12
F6754.9
ssg72
(dp408
I0
F1.189478
sI1
F1.186828
sI2
F1.078478
sI3
F1.19464
sI4
F1.1238700000000001
sI5
F1.081474
sI6
F1.197392
sI7
F1.079971
sI8
F1.053788
sI9
F1.054937
sI10
F1.075511
sI11
F1.192072
sI12
F1.077015
ssg74
(dp409
I0
F5193.013333333333
sI1
F5048.45
sI2
F5813.77
sI3
F5127.613333333333
sI4
F5309.446666666667
sI5
F6029.533333333334
sI6
F5340.493333333333
sI7
F5969.5633333333335
sI8
F5582.446666666667
sI9
F5724.4366666666665
sI10
F5818.006666666667
sI11
F5341.4
sI12
F5796.406666666667
ssg76
(dp410
I0
F8544.58
sI1
F8279.656666666668
sI2
F9486.92
sI3
F8447.536666666667
sI4
F8696.666666666666
sI5
F9875.696666666667
sI6
F8746.8
sI7
F9761.216666666667
sI8
F9137.733333333334
sI9
F9365.916666666666
sI10
F9547.273333333334
sI11
F8850.446666666667
sI12
F9518.95
ssg78
(dp411
I0
F4.556319
sI1
F5.109911
sI2
F2.255795
sI3
F5.456982
sI4
F3.758861
sI5
F2.363795
sI6
F4.333859
sI7
F3.218777
sI8
F4.977558
sI9
F4.342031
sI10
F3.066111
sI11
F5.022623
sI12
F3.036565
ssg80
(dp412
I0
F11.711
sI1
F11.742
sI2
F11.589
sI3
F11.725
sI4
F11.687
sI5
F11.549
sI6
F11.681
sI7
F11.56
sI8
F11.633
sI9
F11.606
sI10
F11.588
sI11
F11.681
sI12
F11.592
ssg82
(dp413
I0
F0.002
sI1
F0.002
sI2
F0.002
sI3
F0.002
sI4
F0.002
sI5
F0.002
sI6
F0.002
sI7
F0.002
sI8
F0.002
sI9
F0.002
sI10
F0.002
sI11
F0.002
sI12
F0.002
ssg84
(dp414
I0
F0.8695489463792134
sI1
Fnan
sI2
Fnan
sI3
Fnan
sI4
Fnan
sI5
Fnan
sI6
Fnan
sI7
Fnan
sI8
Fnan
sI9
Fnan
sI10
Fnan
sI11
Fnan
sI12
Fnan
ssg86
(dp415
I0
F11.641846153846156
sI1
Fnan
sI2
Fnan
sI3
Fnan
sI4
Fnan
sI5
Fnan
sI6
Fnan
sI7
Fnan
sI8
Fnan
sI9
Fnan
sI10
Fnan
sI11
Fnan
sI12
Fnan
ssg88
(dp416
I0
F11.551
sI1
F11.585
sI2
F11.434
sI3
F11.571
sI4
F11.53
sI5
F11.387
sI6
F11.524
sI7
F11.405
sI8
F11.48
sI9
F11.453
sI10
F11.434
sI11
F11.517
sI12
F11.426
ssg90
(dp417
I0
F3.286327
sI1
F-3.026612
sI2
F2.439276
sI3
F-1.933899
sI4
F2.433415
sI5
F3.394691
sI6
F3.986971
sI7
F1.753138
sI8
F1.579102
sI9
F-2.800961
sI10
F2.828958
sI11
F-2.952718
sI12
F2.368063
ssg92
(dp418
I0
F0.0636966971731597
sI1
Fnan
sI2
Fnan
sI3
Fnan
sI4
Fnan
sI5
Fnan
sI6
Fnan
sI7
Fnan
sI8
Fnan
sI9
Fnan
sI10
Fnan
sI11
Fnan
sI12
Fnan
ssg94
(dp419
I0
F0.713025322197004
sI1
F0.7152680339485896
sI2
F0.7180342325103457
sI3
F0.7141754838829488
sI4
F0.7157535439222125
sI5
F0.714639873037897
sI6
F0.7159935593346075
sI7
F0.7171769434173678
sI8
F0.7173208458277635
sI9
F0.71766286751977
sI10
F0.7160733754878281
sI11
F0.7091709565722297
sI12
F0.7123583745292806
ssg96
(dp420
I0
F30.0
sI1
F30.0
sI2
F30.0
sI3
F30.0
sI4
F30.0
sI5
F30.0
sI6
F30.0
sI7
F30.0
sI8
F30.0
sI9
F30.0
sI10
F30.0
sI11
F30.0
sI12
F30.0
ssg98
(dp421
I0
F0.003
sI1
F0.003
sI2
F0.003
sI3
F0.003
sI4
F0.003
sI5
F0.002
sI6
F0.003
sI7
F0.002
sI8
F0.003
sI9
F0.003
sI10
F0.002
sI11
F0.003
sI12
F0.002
ssg100
(dp422
I0
F0.002
sI1
F0.003
sI2
F0.002
sI3
F0.002
sI4
F0.002
sI5
F0.002
sI6
F0.002
sI7
F0.002
sI8
F0.002
sI9
F0.002
sI10
F0.002
sI11
F0.002
sI12
F0.002
ssg102
(dp423
I0
F2.149145
sI1
F3.44034
sI2
F1.849562
sI3
F-2.384626
sI4
F3.586309
sI5
F-2.454272
sI6
F3.474776
sI7
F1.980819
sI8
F2.140928
sI9
F-2.850516
sI10
F3.540269
sI11
F-3.802554
sI12
F4.505846
ssg104
(dp424
I0
S"KIC8462852-20181110at032148_-25-1X1-030-g'_cal.fts.mag.1"
p425
sI1
S"KIC8462852-20181110at032030_-25-1X1-030-g'_cal.fts.mag.1"
p426
sI2
S"KIC8462852-20181110at022115_-25-1X1-030-g'_cal.fts.mag.1"
p427
sI3
S"KIC8462852-20181110at032357_-25-1X1-030-g'_cal.fts.mag.1"
p428
sI4
S"KIC8462852-20181110at025002_-25-1X1-030-g'_cal.fts.mag.1"
p429
sI5
S"KIC8462852-20181110at022326_-25-1X1-030-g'_cal.fts.mag.1"
p430
sI6
S"KIC8462852-20181110at032505_-25-1X1-030-g'_cal.fts.mag.1"
p431
sI7
S"KIC8462852-20181110at022220_-25-1X1-030-g'_cal.fts.mag.1"
p432
sI8
S"KIC8462852-20181110at020045_-25-1X1-030-g'_cal.fts.mag.1"
p433
sI9
S"KIC8462852-20181110at020159_-25-1X1-030-g'_cal.fts.mag.1"
p434
sI10
S"KIC8462852-20181110at021851_-25-1X1-030-g'_cal.fts.mag.1"
p435
sI11
S"KIC8462852-20181110at032253_-25-1X1-030-g'_cal.fts.mag.1"
p436
sI12
S"KIC8462852-20181110at022009_-25-1X1-030-g'_cal.fts.mag.1"
p437
ssg121
(dp438
I0
F0.005093078189947231
sI1
Fnan
sI2
Fnan
sI3
Fnan
sI4
Fnan
sI5
Fnan
sI6
Fnan
sI7
Fnan
sI8
Fnan
sI9
Fnan
sI10
Fnan
sI11
Fnan
sI12
Fnan
ssg123
(dp439
I0
F5719.316666666667
sI1
F5583.61
sI2
F6414.6866666666665
sI3
F5622.86
sI4
F5828.336666666667
sI5
F6651.413333333333
sI6
F5828.986666666667
sI7
F6567.3133333333335
sI8
F6137.303333333333
sI9
F6258.89
sI10
F6419.306666666667
sI11
F5901.553333333333
sI12
F6407.9366666666665
ssg125
(dp440
I0
F0.06563262165753418
sI1
Fnan
sI2
Fnan
sI3
Fnan
sI4
Fnan
sI5
Fnan
sI6
Fnan
sI7
Fnan
sI8
Fnan
sI9
Fnan
sI10
Fnan
sI11
Fnan
sI12
Fnan
ssg127
(dp441
I0
S"g'"
p442
sI1
S"g'"
p443
sI2
S"g'"
p444
sI3
S"g'"
p445
sI4
S"g'"
p446
sI5
S"g'"
p447
sI6
S"g'"
p448
sI7
S"g'"
p449
sI8
S"g'"
p450
sI9
S"g'"
p451
sI10
S"g'"
p452
sI11
S"g'"
p453
sI12
S"g'"
p454
ssg144
(dp455
I0
F0.003380080729858889
sI1
Fnan
sI2
Fnan
sI3
Fnan
sI4
Fnan
sI5
Fnan
sI6
Fnan
sI7
Fnan
sI8
Fnan
sI9
Fnan
sI10
Fnan
sI11
Fnan
sI12
Fnan
ssg146
(dp456
I0
F1.281563
sI1
F2.046113
sI2
F1.94983
sI3
F2.16036
sI4
F-3.210084
sI5
F2.938812
sI6
F3.920205
sI7
F4.131863
sI8
F1.650057
sI9
F3.475922
sI10
F0.9849816
sI11
F3.04266
sI12
F2.738124
ssg148
(dp457
I0
F1.5216568606659382
sI1
Fnan
sI2
Fnan
sI3
Fnan
sI4
Fnan
sI5
Fnan
sI6
Fnan
sI7
Fnan
sI8
Fnan
sI9
Fnan
sI10
Fnan
sI11
Fnan
sI12
Fnan
ssg150
(dp458
I0
F2458432.5996064814
sI1
Fnan
sI2
Fnan
sI3
Fnan
sI4
Fnan
sI5
Fnan
sI6
Fnan
sI7
Fnan
sI8
Fnan
sI9
Fnan
sI10
Fnan
sI11
Fnan
sI12
Fnan
ssg152
(dp459
I0
F0.003380080729858889
sI1
Fnan
sI2
Fnan
sI3
Fnan
sI4
Fnan
sI5
Fnan
sI6
Fnan
sI7
Fnan
sI8
Fnan
sI9
Fnan
sI10
Fnan
sI11
Fnan
sI12
Fnan
ssg154
(dp460
I0
F6.669495
sI1
F7.302759
sI2
F4.07456
sI3
F5.794606
sI4
F5.834231
sI5
F3.400884
sI6
F4.512901
sI7
F4.21315
sI8
F6.390039
sI9
F5.298372
sI10
F3.941602
sI11
F5.963563
sI12
F3.47539
ssg156
(dp461
I0
F11.171
sI1
F11.205
sI2
F11.057
sI3
F11.183
sI4
F11.152
sI5
F11.014
sI6
F11.145
sI7
F11.026
sI8
F11.098
sI9
F11.071
sI10
F11.05
sI11
F11.133
sI12
F11.054
ssg158
(dp462
I0
F0.8695489463792134
sI1
Fnan
sI2
Fnan
sI3
Fnan
sI4
Fnan
sI5
Fnan
sI6
Fnan
sI7
Fnan
sI8
Fnan
sI9
Fnan
sI10
Fnan
sI11
Fnan
sI12
Fnan
sssS'V'
p463
(dp464
g3
(dp465
I0
F0.6925428253179098
sI1
Fnan
sI2
Fnan
sI3
Fnan
sI4
Fnan
sI5
Fnan
sI6
Fnan
sI7
Fnan
sI8
Fnan
sI9
Fnan
sI10
Fnan
sI11
Fnan
sI12
Fnan
sI13
Fnan
sI14
Fnan
ssg5
(dp466
I0
S'NoError'
p467
sI1
S'NoError'
p468
sI2
S'NoError'
p469
sI3
S'NoError'
p470
sI4
S'NoError'
p471
sI5
S'NoError'
p472
sI6
S'NoError'
p473
sI7
S'NoError'
p474
sI8
S'NoError'
p475
sI9
S'NoError'
p476
sI10
S'NoError'
p477
sI11
S'NoError'
p478
sI12
S'NoError'
p479
sI13
S'NoError'
p480
sI14
S'NoError'
p481
ssg22
(dp482
I0
F0.002
sI1
F0.002
sI2
F0.002
sI3
F0.002
sI4
F0.002
sI5
F0.002
sI6
F0.002
sI7
F0.002
sI8
F0.002
sI9
F0.002
sI10
F0.002
sI11
F0.002
sI12
F0.002
sI13
F0.002
sI14
F0.002
ssg24
(dp483
I0
F0.8821018523840848
sI1
F0.8862067954031726
sI2
F0.8835973487848132
sI3
F0.8819790621118156
sI4
F0.8835546021963904
sI5
F0.8789029078754409
sI6
F0.8853633411197935
sI7
F0.8876059038193939
sI8
F0.8839060279535318
sI9
F0.8849202528289875
sI10
F0.8847418038993352
sI11
F0.887468901253372
sI12
F0.8847170810987558
sI13
F0.8858193097392394
sI14
F0.8880678239254409
ssg26
(dp484
I0
F0.0024234857154255543
sI1
Fnan
sI2
Fnan
sI3
Fnan
sI4
Fnan
sI5
Fnan
sI6
Fnan
sI7
Fnan
sI8
Fnan
sI9
Fnan
sI10
Fnan
sI11
Fnan
sI12
Fnan
sI13
Fnan
sI14
Fnan
ssg28
(dp485
I0
F0.8845968676262379
sI1
Fnan
sI2
Fnan
sI3
Fnan
sI4
Fnan
sI5
Fnan
sI6
Fnan
sI7
Fnan
sI8
Fnan
sI9
Fnan
sI10
Fnan
sI11
Fnan
sI12
Fnan
sI13
Fnan
sI14
Fnan
ssg30
(dp486
I0
F11.509
sI1
F11.497
sI2
F11.494
sI3
F11.434
sI4
F11.519
sI5
F11.504
sI6
F11.531
sI7
F11.434
sI8
F11.499
sI9
F11.51
sI10
F11.524
sI11
F11.435
sI12
F11.521
sI13
F11.566
sI14
F11.485
ssg32
(dp487
I0
F6.797586
sI1
F6.980603
sI2
F5.832206
sI3
F6.528211
sI4
F7.101
sI5
F7.633387
sI6
F6.34263
sI7
F5.529571
sI8
F7.278232
sI9
F6.946769
sI10
F6.536074
sI11
F6.377545
sI12
F7.464402
sI13
F7.48697
sI14
F6.985921
ssg34
(dp488
I0
F2458432.615
sI1
F2458432.633935185
sI2
F2458432.6140509257
sI3
F2458432.6117939814
sI4
F2458432.635439815
sI5
F2458432.6545833335
sI6
F2458432.634699074
sI7
F2458432.6132986112
sI8
F2458432.65681713
sI9
F2458432.655335648
sI10
F2458432.6361921295
sI11
F2458432.6125462963
sI12
F2458432.63318287
sI13
F2458432.6575810187
sI14
F2458432.656076389
ssg36
(dp489
I0
F0.8046776
sI1
Fnan
sI2
Fnan
sI3
Fnan
sI4
Fnan
sI5
Fnan
sI6
Fnan
sI7
Fnan
sI8
Fnan
sI9
Fnan
sI10
Fnan
sI11
Fnan
sI12
Fnan
sI13
Fnan
sI14
Fnan
ssg38
(dp490
I0
F1.8361605333333335
sI1
Fnan
sI2
Fnan
sI3
Fnan
sI4
Fnan
sI5
Fnan
sI6
Fnan
sI7
Fnan
sI8
Fnan
sI9
Fnan
sI10
Fnan
sI11
Fnan
sI12
Fnan
sI13
Fnan
sI14
Fnan
ssg40
(dp491
I0
F0.6935531527325751
sI1
F0.6928222654526498
sI2
F0.6900803929840169
sI3
F0.6917225057550485
sI4
F0.6939040247831967
sI5
F0.6923814852425144
sI6
F0.6914999849648177
sI7
F0.6939070101641625
sI8
F0.6941276798625574
sI9
F0.6918077473622513
sI10
F0.6919070373604415
sI11
F0.6925184327876408
sI12
F0.6904742889188233
sI13
F0.6924311137461487
sI14
F0.695275539216574
ssg42
(dp492
I0
F0.001050546763157178
sI1
Fnan
sI2
Fnan
sI3
Fnan
sI4
Fnan
sI5
Fnan
sI6
Fnan
sI7
Fnan
sI8
Fnan
sI9
Fnan
sI10
Fnan
sI11
Fnan
sI12
Fnan
sI13
Fnan
sI14
Fnan
ssg44
(dp493
I0
F0.5989355533333334
sI1
Fnan
sI2
Fnan
sI3
Fnan
sI4
Fnan
sI5
Fnan
sI6
Fnan
sI7
Fnan
sI8
Fnan
sI9
Fnan
sI10
Fnan
sI11
Fnan
sI12
Fnan
sI13
Fnan
sI14
Fnan
ssg46
(dp494
I0
g467
sI1
g468
sI2
g469
sI3
g470
sI4
g471
sI5
g472
sI6
g473
sI7
g474
sI8
g475
sI9
g476
sI10
g477
sI11
g478
sI12
g479
sI13
g480
sI14
g481
ssg48
(dp495
I0
F0.0019083847094456697
sI1
Fnan
sI2
Fnan
sI3
Fnan
sI4
Fnan
sI5
Fnan
sI6
Fnan
sI7
Fnan
sI8
Fnan
sI9
Fnan
sI10
Fnan
sI11
Fnan
sI12
Fnan
sI13
Fnan
sI14
Fnan
ssg50
(dp496
I0
F0.03795385669593062
sI1
Fnan
sI2
Fnan
sI3
Fnan
sI4
Fnan
sI5
Fnan
sI6
Fnan
sI7
Fnan
sI8
Fnan
sI9
Fnan
sI10
Fnan
sI11
Fnan
sI12
Fnan
sI13
Fnan
sI14
Fnan
ssg52
(dp497
I0
F1.0444094
sI1
Fnan
sI2
Fnan
sI3
Fnan
sI4
Fnan
sI5
Fnan
sI6
Fnan
sI7
Fnan
sI8
Fnan
sI9
Fnan
sI10
Fnan
sI11
Fnan
sI12
Fnan
sI13
Fnan
sI14
Fnan
ssg54
(dp498
I0
F1.50885890251125
sI1
F1.5050513582844538
sI2
F1.508163910026312
sI3
F1.507633463508953
sI4
F1.5057420419626009
sI5
F1.5087048708288715
sI6
F1.5090631864218393
sI7
F1.5023346067674097
sI8
F1.5031014155836988
sI9
F1.5126932969796865
sI10
F1.5064234739186326
sI11
F1.50134347122067
sI12
F1.5072401614530775
sI13
F1.5073168669737405
sI14
F1.5025079984472482
ssg56
(dp499
I0
g467
sI1
g468
sI2
g469
sI3
g470
sI4
g471
sI5
g472
sI6
g473
sI7
g474
sI8
g475
sI9
g476
sI10
g477
sI11
g478
sI12
g479
sI13
g480
sI14
g481
ssg58
(dp500
I0
F6.152883
sI1
F7.509171
sI2
F6.591827
sI3
F5.863748
sI4
F8.60142
sI5
F7.021366
sI6
F8.141437
sI7
F4.599554
sI8
F7.886727
sI9
F7.600646
sI10
F7.71593
sI11
F5.573684
sI12
F7.433198
sI13
F8.479296
sI14
F7.042201
ssg60
(dp501
I0
F10.822999999999999
sI1
Fnan
sI2
Fnan
sI3
Fnan
sI4
Fnan
sI5
Fnan
sI6
Fnan
sI7
Fnan
sI8
Fnan
sI9
Fnan
sI10
Fnan
sI11
Fnan
sI12
Fnan
sI13
Fnan
sI14
Fnan
ssg62
(dp502
I0
F0.7163676313879975
sI1
Fnan
sI2
Fnan
sI3
Fnan
sI4
Fnan
sI5
Fnan
sI6
Fnan
sI7
Fnan
sI8
Fnan
sI9
Fnan
sI10
Fnan
sI11
Fnan
sI12
Fnan
sI13
Fnan
sI14
Fnan
ssg64
(dp503
I0
F3.902568
sI1
F2.971004
sI2
F2.326594
sI3
F-2.282166
sI4
F1.683051
sI5
F2.327128
sI6
F3.939363
sI7
F-1.495155
sI8
F3.081872
sI9
F-3.411239
sI10
F-1.591583
sI11
F3.89742
sI12
F4.065806
sI13
F3.883152
sI14
F4.244593
ssg66
(dp504
I0
F11.189066666666667
sI1
Fnan
sI2
Fnan
sI3
Fnan
sI4
Fnan
sI5
Fnan
sI6
Fnan
sI7
Fnan
sI8
Fnan
sI9
Fnan
sI10
Fnan
sI11
Fnan
sI12
Fnan
sI13
Fnan
sI14
Fnan
ssg68
(dp505
I0
g467
sI1
g468
sI2
g469
sI3
g470
sI4
g471
sI5
g472
sI6
g473
sI7
g474
sI8
g475
sI9
g476
sI10
g477
sI11
g478
sI12
g479
sI13
g480
sI14
g481
ssg70
(dp506
I0
F8286.8
sI1
F8408.966666666667
sI2
F8450.206666666667
sI3
F8901.276666666667
sI4
F8216.08
sI5
F8315.63
sI6
F8163.423333333334
sI7
F8911.01
sI8
F8365.743333333334
sI9
F8317.343333333332
sI10
F8208.4
sI11
F8916.663333333334
sI12
F8243.413333333334
sI13
F7895.443333333333
sI14
F8489.796666666667
ssg72
(dp507
I0
F1.115825
sI1
F1.169076
sI2
F1.11394
sI3
F1.10802
sI4
F1.1739
sI5
F1.243472
sI6
F1.1714639999999998
sI7
F1.111646
sI8
F1.252769
sI9
F1.246523
sI10
F1.176317
sI11
F1.109818
sI12
F1.166684
sI13
F1.2559559999999999
sI14
F1.2495889999999998
ssg74
(dp508
I0
F7145.886666666667
sI1
F7217.8533333333335
sI2
F7271.426666666666
sI3
F7683.156666666667
sI4
F7081.033333333334
sI5
F7210.543333333333
sI6
F6999.75
sI7
F7643.526666666667
sI8
F7217.463333333333
sI9
F7121.12
sI10
F7057.223333333333
sI11
F7654.836666666667
sI12
F7084.053333333333
sI13
F6772.036666666667
sI14
F7275.763333333333
ssg76
(dp509
I0
F11642.873333333333
sI1
F11759.583333333334
sI2
F11855.4
sI3
F12501.623333333333
sI4
F11516.753333333332
sI5
F11712.206666666667
sI6
F11441.093333333332
sI7
F12435.226666666666
sI8
F11711.57
sI9
F11676.83
sI10
F11498.246666666668
sI11
F12439.756666666666
sI12
F11551.086666666666
sI13
F11054.269999999999
sI14
F11843.94
ssg78
(dp510
I0
F6.099003
sI1
F8.075677
sI2
F6.579111
sI3
F6.571637
sI4
F7.024061
sI5
F6.818066
sI6
F6.406343
sI7
F5.837002
sI8
F7.701286
sI9
F7.924886
sI10
F7.018688
sI11
F6.076538
sI12
F6.99358
sI13
F8.110819
sI14
F6.753482
ssg80
(dp511
I0
F11.365
sI1
F11.354
sI2
F11.346
sI3
F11.286
sI4
F11.375
sI5
F11.355
sI6
F11.387
sI7
F11.292
sI8
F11.354
sI9
F11.369
sI10
F11.378
sI11
F11.29
sI12
F11.374
sI13
F11.423
sI14
F11.345
ssg82
(dp512
I0
F0.002
sI1
F0.002
sI2
F0.002
sI3
F0.002
sI4
F0.002
sI5
F0.002
sI6
F0.002
sI7
F0.002
sI8
F0.002
sI9
F0.002
sI10
F0.002
sI11
F0.002
sI12
F0.002
sI13
F0.002
sI14
F0.002
ssg84
(dp513
I0
F0.6925608440888946
sI1
Fnan
sI2
Fnan
sI3
Fnan
sI4
Fnan
sI5
Fnan
sI6
Fnan
sI7
Fnan
sI8
Fnan
sI9
Fnan
sI10
Fnan
sI11
Fnan
sI12
Fnan
sI13
Fnan
sI14
Fnan
ssg86
(dp514
I0
F11.352866666666667
sI1
Fnan
sI2
Fnan
sI3
Fnan
sI4
Fnan
sI5
Fnan
sI6
Fnan
sI7
Fnan
sI8
Fnan
sI9
Fnan
sI10
Fnan
sI11
Fnan
sI12
Fnan
sI13
Fnan
sI14
Fnan
ssg88
(dp515
I0
F11.204
sI1
F11.188
sI2
F11.183
sI3
F11.126
sI4
F11.213
sI5
F11.2
sI6
F11.22
sI7
F11.125
sI8
F11.194
sI9
F11.2
sI10
F11.214
sI11
F11.124
sI12
F11.21
sI13
F11.257
sI14
F11.178
ssg90
(dp516
I0
F-3.360947
sI1
F3.605694
sI2
F-2.556523
sI3
F-2.638137
sI4
F3.600733
sI5
F2.651274
sI6
F2.695762
sI7
F-3.746246
sI8
F4.100749
sI9
F-2.812523
sI10
F-3.217061
sI11
F1.800655
sI12
F3.45907
sI13
F4.532892
sI14
F3.954772
ssg92
(dp517
I0
F0.03683941988065048
sI1
Fnan
sI2
Fnan
sI3
Fnan
sI4
Fnan
sI5
Fnan
sI6
Fnan
sI7
Fnan
sI8
Fnan
sI9
Fnan
sI10
Fnan
sI11
Fnan
sI12
Fnan
sI13
Fnan
sI14
Fnan
ssg94
(dp518
I0
F0.7171102653965562
sI1
F0.7157533222104051
sI2
F0.7161989086101342
sI3
F0.7179547319911476
sI4
F0.7176904820223486
sI5
F0.7200521407620827
sI6
F0.7140956463263993
sI7
F0.7161474676800954
sI8
F0.7189670463876807
sI9
F0.7123195224208653
sI10
F0.716227722829218
sI11
F0.7168651549900843
sI12
F0.7157597649178644
sI13
F0.714737637192049
sI14
F0.7156346570830316
ssg96
(dp519
I0
F30.0
sI1
F30.0
sI2
F30.0
sI3
F30.0
sI4
F30.0
sI5
F30.0
sI6
F30.0
sI7
F30.0
sI8
F30.0
sI9
F30.0
sI10
F30.0
sI11
F30.0
sI12
F30.0
sI13
F30.0
sI14
F30.0
ssg98
(dp520
I0
F0.002
sI1
F0.002
sI2
F0.002
sI3
F0.002
sI4
F0.002
sI5
F0.002
sI6
F0.002
sI7
F0.002
sI8
F0.002
sI9
F0.002
sI10
F0.002
sI11
F0.002
sI12
F0.002
sI13
F0.002
sI14
F0.002
ssg100
(dp521
I0
F0.002
sI1
F0.002
sI2
F0.002
sI3
F0.002
sI4
F0.002
sI5
F0.002
sI6
F0.002
sI7
F0.002
sI8
F0.002
sI9
F0.002
sI10
F0.002
sI11
F0.002
sI12
F0.002
sI13
F0.002
sI14
F0.002
ssg102
(dp522
I0
F-2.048441
sI1
F2.2277
sI2
F4.421499
sI3
F3.569825
sI4
F-3.972576
sI5
F3.034352
sI6
F2.379342
sI7
F-2.022303
sI8
F-1.622631
sI9
F3.25368
sI10
F-3.24154
sI11
F3.499792
sI12
F-1.602504
sI13
F3.777186
sI14
F4.01276
ssg104
(dp523
I0
S'KIC8462852-20181110at024536_-25-1X1-030-V_cal.fts.mag.1'
p524
sI1
S'KIC8462852-20181110at031252_-25-1X1-030-V_cal.fts.mag.1'
p525
sI2
S'KIC8462852-20181110at024414_-25-1X1-030-V_cal.fts.mag.1'
p526
sI3
S'KIC8462852-20181110at024051_-25-1X1-030-V_cal.fts.mag.1'
p527
sI4
S'KIC8462852-20181110at031502_-25-1X1-030-V_cal.fts.mag.1'
p528
sI5
S'KIC8462852-20181110at034228_-25-1X1-030-V_cal.fts.mag.1'
p529
sI6
S'KIC8462852-20181110at031358_-25-1X1-030-V_cal.fts.mag.1'
p530
sI7
S'KIC8462852-20181110at024309_-25-1X1-030-V_cal.fts.mag.1'
p531
sI8
S'KIC8462852-20181110at034549_-25-1X1-030-V_cal.fts.mag.1'
p532
sI9
S'KIC8462852-20181110at034341_-25-1X1-030-V_cal.fts.mag.1'
p533
sI10
S'KIC8462852-20181110at031607_-25-1X1-030-V_cal.fts.mag.1'
p534
sI11
S'KIC8462852-20181110at024204_-25-1X1-030-V_cal.fts.mag.1'
p535
sI12
S'KIC8462852-20181110at031140_-25-1X1-030-V_cal.fts.mag.1'
p536
sI13
S'KIC8462852-20181110at034655_-25-1X1-030-V_cal.fts.mag.1'
p537
sI14
S'KIC8462852-20181110at034445_-25-1X1-030-V_cal.fts.mag.1'
p538
ssg121
(dp539
I0
F0.003100812166688122
sI1
Fnan
sI2
Fnan
sI3
Fnan
sI4
Fnan
sI5
Fnan
sI6
Fnan
sI7
Fnan
sI8
Fnan
sI9
Fnan
sI10
Fnan
sI11
Fnan
sI12
Fnan
sI13
Fnan
sI14
Fnan
ssg123
(dp540
I0
F6259.446666666667
sI1
F6324.636666666667
sI2
F6343.456666666667
sI3
F6706.493333333333
sI4
F6202.083333333333
sI5
F6286.45
sI6
F6132.283333333334
sI7
F6705.4
sI8
F6315.3533333333335
sI9
F6252.8566666666675
sI10
F6172.703333333334
sI11
F6696.943333333333
sI12
F6186.316666666667
sI13
F5936.846666666666
sI14
F6398.736666666667
ssg125
(dp541
I0
F0.03808236687322209
sI1
Fnan
sI2
Fnan
sI3
Fnan
sI4
Fnan
sI5
Fnan
sI6
Fnan
sI7
Fnan
sI8
Fnan
sI9
Fnan
sI10
Fnan
sI11
Fnan
sI12
Fnan
sI13
Fnan
sI14
Fnan
ssg127
(dp542
I0
g463
sI1
g463
sI2
g463
sI3
g463
sI4
g463
sI5
g463
sI6
g463
sI7
g463
sI8
g463
sI9
g463
sI10
g463
sI11
g463
sI12
g463
sI13
g463
sI14
g463
ssg144
(dp543
I0
F0.001411024415853277
sI1
Fnan
sI2
Fnan
sI3
Fnan
sI4
Fnan
sI5
Fnan
sI6
Fnan
sI7
Fnan
sI8
Fnan
sI9
Fnan
sI10
Fnan
sI11
Fnan
sI12
Fnan
sI13
Fnan
sI14
Fnan
ssg146
(dp544
I0
F-2.574246
sI1
F2.825453
sI2
F3.388184
sI3
F-3.062611
sI4
F3.291744
sI5
F-2.697008
sI6
F-1.148049
sI7
F-1.860575
sI8
F2.255881
sI9
F2.959485
sI10
F3.667984
sI11
F-2.208343
sI12
F3.188192
sI13
F-0.7141147
sI14
F1.672057
ssg148
(dp545
I0
F1.506411934992563
sI1
Fnan
sI2
Fnan
sI3
Fnan
sI4
Fnan
sI5
Fnan
sI6
Fnan
sI7
Fnan
sI8
Fnan
sI9
Fnan
sI10
Fnan
sI11
Fnan
sI12
Fnan
sI13
Fnan
sI14
Fnan
ssg150
(dp546
I0
F2458432.634699074
sI1
Fnan
sI2
Fnan
sI3
Fnan
sI4
Fnan
sI5
Fnan
sI6
Fnan
sI7
Fnan
sI8
Fnan
sI9
Fnan
sI10
Fnan
sI11
Fnan
sI12
Fnan
sI13
Fnan
sI14
Fnan
ssg152
(dp547
I0
F0.001411024415853277
sI1
Fnan
sI2
Fnan
sI3
Fnan
sI4
Fnan
sI5
Fnan
sI6
Fnan
sI7
Fnan
sI8
Fnan
sI9
Fnan
sI10
Fnan
sI11
Fnan
sI12
Fnan
sI13
Fnan
sI14
Fnan
ssg154
(dp548
I0
F7.972469
sI1
F8.501809
sI2
F8.823349
sI3
F7.041503
sI4
F9.095687
sI5
F8.204979
sI6
F9.183387
sI7
F6.721229
sI8
F8.979223
sI9
F8.692337
sI10
F8.622976
sI11
F6.99128
sI12
F8.346695
sI13
F7.742143
sI14
F7.833659
ssg156
(dp549
I0
F10.835
sI1
F10.824
sI2
F10.815
sI3
F10.758
sI4
F10.847
sI5
F10.828
sI6
F10.854
sI7
F10.763
sI8
F10.828
sI9
F10.832
sI10
F10.848
sI11
F10.763
sI12
F10.843
sI13
F10.891
sI14
F10.816
ssg158
(dp550
I0
F0.6925608440888946
sI1
Fnan
sI2
Fnan
sI3
Fnan
sI4
Fnan
sI5
Fnan
sI6
Fnan
sI7
Fnan
sI8
Fnan
sI9
Fnan
sI10
Fnan
sI11
Fnan
sI12
Fnan
sI13
Fnan
sI14
Fnan
sss.