(dp0
S'i'
p1
(dp2
S'sigmean'
p3
(dp4
I0
F0.4380094615551812
sI1
Fnan
sI2
Fnan
sI3
Fnan
sI4
Fnan
sI5
Fnan
sI6
Fnan
sI7
Fnan
sI8
Fnan
sI9
Fnan
sI10
Fnan
sI11
Fnan
sI12
Fnan
sI13
Fnan
sI14
Fnan
ssS'ref3flag'
p5
(dp6
I0
S'NoError'
p7
sI1
S'NoError'
p8
sI2
S'NoError'
p9
sI3
S'NoError'
p10
sI4
S'NoError'
p11
sI5
S'NoError'
p12
sI6
S'NoError'
p13
sI7
S'NoError'
p14
sI8
S'NoError'
p15
sI9
S'NoError'
p16
sI10
S'NoError'
p17
sI11
S'NoError'
p18
sI12
S'NoError'
p19
sI13
S'NoError'
p20
sI14
S'NoError'
p21
ssS'tabbyerr'
p22
(dp23
I0
F0.003
sI1
F0.003
sI2
F0.003
sI3
F0.003
sI4
F0.003
sI5
F0.003
sI6
F0.003
sI7
F0.003
sI8
F0.003
sI9
F0.003
sI10
F0.003
sI11
F0.003
sI12
F0.003
sI13
F0.003
sI14
F0.003
ssS'ref2rel'
p24
(dp25
I0
F0.9120122897183099
sI1
F0.911251235482917
sI2
F0.911114651322972
sI3
F0.9134254777986175
sI4
F0.9138244646888223
sI5
F0.9071886054182294
sI6
F0.9101801611889658
sI7
F0.9152341611061771
sI8
F0.9073349606563728
sI9
F0.9130018386007505
sI10
F0.9078090419041199
sI11
F0.9103376554141124
sI12
F0.9118253206894624
sI13
F0.9091231698809457
sI14
F0.9128882988063906
ssS'ref2err'
p26
(dp27
I0
F0.0024459614442114306
sI1
Fnan
sI2
Fnan
sI3
Fnan
sI4
Fnan
sI5
Fnan
sI6
Fnan
sI7
Fnan
sI8
Fnan
sI9
Fnan
sI10
Fnan
sI11
Fnan
sI12
Fnan
sI13
Fnan
sI14
Fnan
ssS'ref2mean'
p28
(dp29
I0
F0.9111034221784777
sI1
Fnan
sI2
Fnan
sI3
Fnan
sI4
Fnan
sI5
Fnan
sI6
Fnan
sI7
Fnan
sI8
Fnan
sI9
Fnan
sI10
Fnan
sI11
Fnan
sI12
Fnan
sI13
Fnan
sI14
Fnan
ssS'tabbymag'
p30
(dp31
I0
F11.93
sI1
F11.949
sI2
F11.933
sI3
F11.92
sI4
F11.92
sI5
F11.916
sI6
F11.925
sI7
F11.92
sI8
F11.903
sI9
F11.928
sI10
F11.91
sI11
F11.916
sI12
F11.903
sI13
F11.906
sI14
F11.917
ssS'tabbybkg'
p32
(dp33
I0
F9.70889
sI1
F11.33421
sI2
F9.510746
sI3
F10.112
sI4
F9.537762
sI5
F10.03329
sI6
F9.764983
sI7
F9.754935
sI8
F10.33153
sI9
F10.86493
sI10
F10.15434
sI11
F10.15806
sI12
F9.413719
sI13
F8.88955
sI14
F9.539185
ssS'JD'
p34
(dp35
I0
F2458338.7278472222
sI1
F2458338.7061574073
sI2
F2458338.706886574
sI3
F2458338.7249305556
sI4
F2458338.7443402777
sI5
F2458338.746539352
sI6
F2458338.709085648
sI7
F2458338.725648148
sI8
F2458338.745798611
sI9
F2458338.7083564815
sI10
F2458338.7076157406
sI11
F2458338.7271180553
sI12
F2458338.726388889
sI13
F2458338.7450694446
sI14
F2458338.743599537
ssS'ref3rmsmean'
p36
(dp37
I0
F0.7410020666666668
sI1
Fnan
sI2
Fnan
sI3
Fnan
sI4
Fnan
sI5
Fnan
sI6
Fnan
sI7
Fnan
sI8
Fnan
sI9
Fnan
sI10
Fnan
sI11
Fnan
sI12
Fnan
sI13
Fnan
sI14
Fnan
ssS'ref1rmsmean'
p38
(dp39
I0
F1.5727961333333336
sI1
Fnan
sI2
Fnan
sI3
Fnan
sI4
Fnan
sI5
Fnan
sI6
Fnan
sI7
Fnan
sI8
Fnan
sI9
Fnan
sI10
Fnan
sI11
Fnan
sI12
Fnan
sI13
Fnan
sI14
Fnan
ssS'relflux'
p40
(dp41
I0
F0.437348333943975
sI1
F0.4366645436174966
sI2
F0.4382024952110242
sI3
F0.43764128689886933
sI4
F0.437660721984061
sI5
F0.43694784784287527
sI6
F0.43940675071329083
sI7
F0.4377206746074049
sI8
F0.4392592106112554
sI9
F0.43797143995081983
sI10
F0.43719705154980326
sI11
F0.436756870771242
sI12
F0.4402077324325035
sI13
F0.43981526285915173
sI14
F0.43953997121126875
ssS'sigerr'
p42
(dp43
I0
F0.0010385036141915356
sI1
Fnan
sI2
Fnan
sI3
Fnan
sI4
Fnan
sI5
Fnan
sI6
Fnan
sI7
Fnan
sI8
Fnan
sI9
Fnan
sI10
Fnan
sI11
Fnan
sI12
Fnan
sI13
Fnan
sI14
Fnan
ssS'tabbyrmsmean'
p44
(dp45
I0
F0.8768357266666666
sI1
Fnan
sI2
Fnan
sI3
Fnan
sI4
Fnan
sI5
Fnan
sI6
Fnan
sI7
Fnan
sI8
Fnan
sI9
Fnan
sI10
Fnan
sI11
Fnan
sI12
Fnan
sI13
Fnan
sI14
Fnan
ssS'tabbyflag'
p46
(dp47
I0
g7
sI1
g8
sI2
g9
sI3
g10
sI4
g11
sI5
g12
sI6
g13
sI7
g14
sI8
g15
sI9
g16
sI10
g17
sI11
g18
sI12
g19
sI13
g20
sI14
g21
ssS'ref1err'
p48
(dp49
I0
F0.0016840638272983776
sI1
Fnan
sI2
Fnan
sI3
Fnan
sI4
Fnan
sI5
Fnan
sI6
Fnan
sI7
Fnan
sI8
Fnan
sI9
Fnan
sI10
Fnan
sI11
Fnan
sI12
Fnan
sI13
Fnan
sI14
Fnan
ssS'ref2magmeanerr'
p50
(dp51
I0
F0.01047582250436023
sI1
Fnan
sI2
Fnan
sI3
Fnan
sI4
Fnan
sI5
Fnan
sI6
Fnan
sI7
Fnan
sI8
Fnan
sI9
Fnan
sI10
Fnan
sI11
Fnan
sI12
Fnan
sI13
Fnan
sI14
Fnan
ssS'ref2rmsmean'
p52
(dp53
I0
F1.4848730866666666
sI1
Fnan
sI2
Fnan
sI3
Fnan
sI4
Fnan
sI5
Fnan
sI6
Fnan
sI7
Fnan
sI8
Fnan
sI9
Fnan
sI10
Fnan
sI11
Fnan
sI12
Fnan
sI13
Fnan
sI14
Fnan
ssS'ref3rel'
p54
(dp55
I0
F1.5012218814971316
sI1
F1.5085186750704211
sI2
F1.502696960465453
sI3
F1.4973135340175217
sI4
F1.4966804667246127
sI5
F1.5027525791155167
sI6
F1.50337168697002
sI7
F1.499710857207562
sI8
F1.5066549892818664
sI9
F1.4998788672869994
sI10
F1.5033188757219953
sI11
F1.5052565197450618
sI12
F1.4999748390089713
sI13
F1.5036677429059093
sI14
F1.5019219844820568
ssS'ref1flag'
p56
(dp57
I0
g7
sI1
g8
sI2
g9
sI3
g10
sI4
g11
sI5
g12
sI6
g13
sI7
g14
sI8
g15
sI9
g16
sI10
g17
sI11
g18
sI12
g19
sI13
g20
sI14
g21
ssS'ref2bkg'
p58
(dp59
I0
F11.78744
sI1
F13.27428
sI2
F12.2349
sI3
F13.03132
sI4
F11.88939
sI5
F12.10036
sI6
F11.67765
sI7
F11.01924
sI8
F11.27567
sI9
F13.06367
sI10
F11.89755
sI11
F11.4283
sI12
F12.25687
sI13
F12.1634
sI14
F11.36209
ssS'ref3magmean'
p60
(dp61
I0
F10.750000000000002
sI1
Fnan
sI2
Fnan
sI3
Fnan
sI4
Fnan
sI5
Fnan
sI6
Fnan
sI7
Fnan
sI8
Fnan
sI9
Fnan
sI10
Fnan
sI11
Fnan
sI12
Fnan
sI13
Fnan
sI14
Fnan
ssS'ref1mean'
p62
(dp63
I0
F0.6957671252168102
sI1
Fnan
sI2
Fnan
sI3
Fnan
sI4
Fnan
sI5
Fnan
sI6
Fnan
sI7
Fnan
sI8
Fnan
sI9
Fnan
sI10
Fnan
sI11
Fnan
sI12
Fnan
sI13
Fnan
sI14
Fnan
ssS'ref1rms'
p64
(dp65
I0
F3.7938
sI1
F-2.07695
sI2
F-3.562448
sI3
F1.37829
sI4
F1.856383
sI5
F4.63095
sI6
F4.678416
sI7
F4.106673
sI8
F3.938462
sI9
F-3.515651
sI10
F-2.146898
sI11
F3.150122
sI12
F2.915498
sI13
F2.32851
sI14
F2.116785
ssS'ref2magmean'
p66
(dp67
I0
F11.092200000000002
sI1
Fnan
sI2
Fnan
sI3
Fnan
sI4
Fnan
sI5
Fnan
sI6
Fnan
sI7
Fnan
sI8
Fnan
sI9
Fnan
sI10
Fnan
sI11
Fnan
sI12
Fnan
sI13
Fnan
sI14
Fnan
ssS'ref2flag'
p68
(dp69
I0
g7
sI1
g8
sI2
g9
sI3
g10
sI4
g11
sI5
g12
sI6
g13
sI7
g14
sI8
g15
sI9
g16
sI10
g17
sI11
g18
sI12
g19
sI13
g20
sI14
g21
ssS'ref2'
p70
(dp71
I0
F9120.826666666666
sI1
F8972.193333333333
sI2
F9074.380000000001
sI3
F9208.6
sI4
F9212.17
sI5
F9212.926666666666
sI6
F9110.33
sI7
F9218.06
sI8
F9282.183333333332
sI9
F9131.173333333334
sI10
F9264.663333333334
sI11
F9243.74
sI12
F9292.706666666667
sI13
F9256.846666666668
sI14
F9192.926666666666
ssS'airmass'
p72
(dp73
I0
F1.029778
sI1
F1.059281
sI2
F1.058081
sI3
F1.033068
sI4
F1.015185
sI5
F1.013717
sI6
F1.054561
sI7
F1.0322280000000001
sI8
F1.0141930000000001
sI9
F1.055721
sI10
F1.056891
sI11
F1.0305870000000001
sI12
F1.031403
sI13
F1.014683
sI14
F1.015696
ssS'ref1'
p74
(dp75
I0
F7514.72
sI1
F7367.593333333333
sI2
F7480.676666666666
sI3
F7587.9400000000005
sI4
F7588.886666666667
sI5
F7644.596666666666
sI6
F7518.833333333333
sI7
F7561.423333333334
sI8
F7681.28
sI9
F7517.233333333334
sI10
F7676.816666666667
sI11
F7617.86
sI12
F7664.759999999999
sI13
F7651.826666666666
sI14
F7559.723333333333
ssS'ref3'
p76
(dp77
I0
F12486.823333333334
sI1
F12324.436666666666
sI2
F12438.616666666667
sI3
F12574.843333333332
sI4
F12572.906666666668
sI5
F12666.343333333332
sI6
F12499.906666666668
sI7
F12582.186666666666
sI8
F12779.043333333333
sI9
F12485.296666666667
sI10
F12734.223333333333
sI11
F12690.516666666666
sI12
F12717.886666666665
sI13
F12712.513333333334
sI14
F12580.586666666666
ssS'ref1bkg'
p78
(dp79
I0
F11.13597
sI1
F12.9642
sI2
F12.84163
sI3
F12.10122
sI4
F11.13679
sI5
F11.1694
sI6
F11.70474
sI7
F11.60624
sI8
F10.18717
sI9
F12.19444
sI10
F12.02032
sI11
F11.16496
sI12
F11.37917
sI13
F10.99538
sI14
F11.37174
ssS'ref1mag'
p80
(dp81
I0
F11.31
sI1
F11.332
sI2
F11.315
sI3
F11.3
sI4
F11.3
sI5
F11.292
sI6
F11.31
sI7
F11.303
sI8
F11.286
sI9
F11.31
sI10
F11.287
sI11
F11.295
sI12
F11.289
sI13
F11.291
sI14
F11.304
ssS'ref3magerr'
p82
(dp83
I0
F0.002
sI1
F0.002
sI2
F0.002
sI3
F0.002
sI4
F0.002
sI5
F0.002
sI6
F0.002
sI7
F0.002
sI8
F0.002
sI9
F0.002
sI10
F0.002
sI11
F0.002
sI12
F0.002
sI13
F0.002
sI14
F0.002
ssS'tabbymagmean'
p84
(dp85
I0
F0.4381560129470027
sI1
Fnan
sI2
Fnan
sI3
Fnan
sI4
Fnan
sI5
Fnan
sI6
Fnan
sI7
Fnan
sI8
Fnan
sI9
Fnan
sI10
Fnan
sI11
Fnan
sI12
Fnan
sI13
Fnan
sI14
Fnan
ssS'ref1magmean'
p86
(dp87
I0
F11.3016
sI1
Fnan
sI2
Fnan
sI3
Fnan
sI4
Fnan
sI5
Fnan
sI6
Fnan
sI7
Fnan
sI8
Fnan
sI9
Fnan
sI10
Fnan
sI11
Fnan
sI12
Fnan
sI13
Fnan
sI14
Fnan
ssS'ref2mag'
p88
(dp89
I0
F11.1
sI1
F11.118
sI2
F11.105
sI3
F11.09
sI4
F11.089
sI5
F11.089
sI6
F11.101
sI7
F11.088
sI8
F11.081
sI9
F11.099
sI10
F11.083
sI11
F11.085
sI12
F11.08
sI13
F11.084
sI14
F11.091
ssS'ref3rms'
p90
(dp91
I0
F3.998061
sI1
F2.87554
sI2
F-2.823491
sI3
F3.943058
sI4
F-3.454014
sI5
F3.389814
sI6
F3.891896
sI7
F-1.573155
sI8
F4.003726
sI9
F3.247113
sI10
F-3.538599
sI11
F-2.127291
sI12
F4.693882
sI13
F-1.678686
sI14
F-3.732823
ssS'ref3magmeanerr'
p92
(dp93
I0
F0.011019463300386651
sI1
Fnan
sI2
Fnan
sI3
Fnan
sI4
Fnan
sI5
Fnan
sI6
Fnan
sI7
Fnan
sI8
Fnan
sI9
Fnan
sI10
Fnan
sI11
Fnan
sI12
Fnan
sI13
Fnan
sI14
Fnan
ssS'ref1rel'
p94
(dp95
I0
F0.6955610628643096
sI1
F0.6919022712357151
sI2
F0.6954564984670507
sI3
F0.6966703917179914
sI4
F0.6967050685920622
sI5
F0.6987981469826614
sI6
F0.6958584905209274
sI7
F0.6937007134781656
sI8
F0.6963601903067342
sI9
F0.6955097972363974
sI10
F0.6979277436161163
sI11
F0.6946084488540527
sI12
F0.6964610071090012
sI13
F0.6965907670197644
sI14
F0.6943962802512044
ssS'exposure'
p96
(dp97
I0
F30.0
sI1
F30.0
sI2
F30.0
sI3
F30.0
sI4
F30.0
sI5
F30.0
sI6
F30.0
sI7
F30.0
sI8
F30.0
sI9
F30.0
sI10
F30.0
sI11
F30.0
sI12
F30.0
sI13
F30.0
sI14
F30.0
ssS'ref1magerr'
p98
(dp99
I0
F0.002
sI1
F0.002
sI2
F0.002
sI3
F0.002
sI4
F0.002
sI5
F0.002
sI6
F0.002
sI7
F0.002
sI8
F0.002
sI9
F0.002
sI10
F0.002
sI11
F0.002
sI12
F0.002
sI13
F0.002
sI14
F0.002
ssS'ref2magerr'
p100
(dp101
I0
F0.002
sI1
F0.002
sI2
F0.002
sI3
F0.002
sI4
F0.002
sI5
F0.002
sI6
F0.002
sI7
F0.002
sI8
F0.002
sI9
F0.002
sI10
F0.002
sI11
F0.002
sI12
F0.002
sI13
F0.002
sI14
F0.002
ssS'ref2rms'
p102
(dp103
I0
F2.217634
sI1
F3.311064
sI2
F3.470037
sI3
F2.971865
sI4
F4.021425
sI5
F-3.583055
sI6
F3.402933
sI7
F5.150476
sI8
F-3.694699
sI9
F2.411495
sI10
F-2.363999
sI11
F4.125479
sI12
F-2.317135
sI13
F-0.7163497
sI14
F3.865926
ssS'name'
p104
(dp105
I0
S"KIC8462852-20180808at052806_-25-1X1-030-i'_cal.fts.mag.1"
p106
sI1
S"KIC8462852-20180808at045650_-25-1X1-030-i'_cal.fts.mag.1"
p107
sI2
S"KIC8462852-20180808at045755_-25-1X1-030-i'_cal.fts.mag.1"
p108
sI3
S"KIC8462852-20180808at052352_-25-1X1-030-i'_cal.fts.mag.1"
p109
sI4
S"KIC8462852-20180808at055151_-25-1X1-030-i'_cal.fts.mag.1"
p110
sI5
S"KIC8462852-20180808at055501_-25-1X1-030-i'_cal.fts.mag.1"
p111
sI6
S"KIC8462852-20180808at050105_-25-1X1-030-i'_cal.fts.mag.1"
p112
sI7
S"KIC8462852-20180808at052456_-25-1X1-030-i'_cal.fts.mag.1"
p113
sI8
S"KIC8462852-20180808at055357_-25-1X1-030-i'_cal.fts.mag.1"
p114
sI9
S"KIC8462852-20180808at050002_-25-1X1-030-i'_cal.fts.mag.1"
p115
sI10
S"KIC8462852-20180808at045858_-25-1X1-030-i'_cal.fts.mag.1"
p116
sI11
S"KIC8462852-20180808at052703_-25-1X1-030-i'_cal.fts.mag.1"
p117
sI12
S"KIC8462852-20180808at052600_-25-1X1-030-i'_cal.fts.mag.1"
p118
sI13
S"KIC8462852-20180808at055254_-25-1X1-030-i'_cal.fts.mag.1"
p119
sI14
S"KIC8462852-20180808at055045_-25-1X1-030-i'_cal.fts.mag.1"
p120
ssS'ref3err'
p121
(dp122
I0
F0.0032332824185929473
sI1
Fnan
sI2
Fnan
sI3
Fnan
sI4
Fnan
sI5
Fnan
sI6
Fnan
sI7
Fnan
sI8
Fnan
sI9
Fnan
sI10
Fnan
sI11
Fnan
sI12
Fnan
sI13
Fnan
sI14
Fnan
ssS'tabby'
p123
(dp124
I0
F4245.54
sI1
F4172.216666666666
sI2
F4235.033333333334
sI3
F4284.71
sI4
F4285.276666666667
sI5
F4300.13
sI6
F4266.503333333333
sI7
F4284.070000000001
sI8
F4354.89
sI9
F4253.243333333334
sI10
F4324.71
sI11
F4302.363333333333
sI12
F4354.44
sI13
F4342.616666666667
sI14
F4297.71
ssS'ref1magmeanerr'
p125
(dp126
I0
F0.012511708801872775
sI1
Fnan
sI2
Fnan
sI3
Fnan
sI4
Fnan
sI5
Fnan
sI6
Fnan
sI7
Fnan
sI8
Fnan
sI9
Fnan
sI10
Fnan
sI11
Fnan
sI12
Fnan
sI13
Fnan
sI14
Fnan
ssS'filter'
p127
(dp128
I0
S"i'"
p129
sI1
S"i'"
p130
sI2
S"i'"
p131
sI3
S"i'"
p132
sI4
S"i'"
p133
sI5
S"i'"
p134
sI6
S"i'"
p135
sI7
S"i'"
p136
sI8
S"i'"
p137
sI9
S"i'"
p138
sI10
S"i'"
p139
sI11
S"i'"
p140
sI12
S"i'"
p141
sI13
S"i'"
p142
sI14
S"i'"
p143
ssS'tabbymagerr'
p144
(dp145
I0
F0.0011834903520354855
sI1
Fnan
sI2
Fnan
sI3
Fnan
sI4
Fnan
sI5
Fnan
sI6
Fnan
sI7
Fnan
sI8
Fnan
sI9
Fnan
sI10
Fnan
sI11
Fnan
sI12
Fnan
sI13
Fnan
sI14
Fnan
ssS'tabbyrms'
p146
(dp147
I0
F4.698403
sI1
F-2.670605
sI2
F-1.065125
sI3
F3.682441
sI4
F1.937921
sI5
F2.419998
sI6
F-2.589179
sI7
F2.172815
sI8
F-3.830066
sI9
F0.7148379
sI10
F2.605672
sI11
F-3.36246
sI12
F3.469683
sI13
F2.595914
sI14
F2.372286
ssS'ref3mean'
p148
(dp149
I0
F1.5021960306334063
sI1
Fnan
sI2
Fnan
sI3
Fnan
sI4
Fnan
sI5
Fnan
sI6
Fnan
sI7
Fnan
sI8
Fnan
sI9
Fnan
sI10
Fnan
sI11
Fnan
sI12
Fnan
sI13
Fnan
sI14
Fnan
ssS'median_JD'
p150
(dp151
I0
F2458338.726388889
sI1
Fnan
sI2
Fnan
sI3
Fnan
sI4
Fnan
sI5
Fnan
sI6
Fnan
sI7
Fnan
sI8
Fnan
sI9
Fnan
sI10
Fnan
sI11
Fnan
sI12
Fnan
sI13
Fnan
sI14
Fnan
ssS'error'
p152
(dp153
I0
F0.0011834903520354855
sI1
Fnan
sI2
Fnan
sI3
Fnan
sI4
Fnan
sI5
Fnan
sI6
Fnan
sI7
Fnan
sI8
Fnan
sI9
Fnan
sI10
Fnan
sI11
Fnan
sI12
Fnan
sI13
Fnan
sI14
Fnan
ssS'ref3bkg'
p154
(dp155
I0
F14.45003
sI1
F15.50197
sI2
F15.23618
sI3
F13.8594
sI4
F13.75014
sI5
F12.47202
sI6
F13.87458
sI7
F13.17255
sI8
F11.9372
sI9
F15.60075
sI10
F13.82247
sI11
F13.05231
sI12
F12.47678
sI13
F13.4992
sI14
F13.21144
ssS'ref3mag'
p156
(dp157
I0
F10.759
sI1
F10.773
sI2
F10.763
sI3
F10.751
sI4
F10.751
sI5
F10.743
sI6
F10.758
sI7
F10.751
sI8
F10.734
sI9
F10.759
sI10
F10.738
sI11
F10.741
sI12
F10.739
sI13
F10.739
sI14
F10.751
ssS'mean'
p158
(dp159
I0
F0.4381560129470027
sI1
Fnan
sI2
Fnan
sI3
Fnan
sI4
Fnan
sI5
Fnan
sI6
Fnan
sI7
Fnan
sI8
Fnan
sI9
Fnan
sI10
Fnan
sI11
Fnan
sI12
Fnan
sI13
Fnan
sI14
Fnan
sssS'r'
p160
(dp161
g3
(dp162
I0
F0.5470213376916448
sI1
Fnan
sI2
Fnan
sI3
Fnan
sI4
Fnan
sI5
Fnan
sI6
Fnan
sI7
Fnan
sI8
Fnan
sI9
Fnan
sI10
Fnan
sI11
Fnan
sI12
Fnan
sI13
Fnan
sI14
Fnan
ssg5
(dp163
I0
S'NoError'
p164
sI1
S'NoError'
p165
sI2
S'NoError'
p166
sI3
S'NoError'
p167
sI4
S'NoError'
p168
sI5
S'NoError'
p169
sI6
S'NoError'
p170
sI7
S'NoError'
p171
sI8
S'NoError'
p172
sI9
S'NoError'
p173
sI10
S'NoError'
p174
sI11
S'NoError'
p175
sI12
S'NoError'
p176
sI13
S'NoError'
p177
sI14
S'NoError'
p178
ssg22
(dp179
I0
F0.002
sI1
F0.002
sI2
F0.002
sI3
F0.002
sI4
F0.002
sI5
F0.002
sI6
F0.002
sI7
F0.002
sI8
F0.002
sI9
F0.002
sI10
F0.002
sI11
F0.002
sI12
F0.002
sI13
F0.002
sI14
F0.002
ssg24
(dp180
I0
F0.8936053422410317
sI1
F0.8928897416765949
sI2
F0.8952772028732889
sI3
F0.893195190726487
sI4
F0.8942158691579231
sI5
F0.8958577882318642
sI6
F0.893015427096037
sI7
F0.899064248635701
sI8
F0.8938857910210068
sI9
F0.8937233470380225
sI10
F0.897339071148684
sI11
F0.8916292238538926
sI12
F0.894570896353517
sI13
F0.8943256780825733
sI14
F0.8965401998662087
ssg26
(dp181
I0
F0.0019265493136102426
sI1
Fnan
sI2
Fnan
sI3
Fnan
sI4
Fnan
sI5
Fnan
sI6
Fnan
sI7
Fnan
sI8
Fnan
sI9
Fnan
sI10
Fnan
sI11
Fnan
sI12
Fnan
sI13
Fnan
sI14
Fnan
ssg28
(dp182
I0
F0.8946090012001888
sI1
Fnan
sI2
Fnan
sI3
Fnan
sI4
Fnan
sI5
Fnan
sI6
Fnan
sI7
Fnan
sI8
Fnan
sI9
Fnan
sI10
Fnan
sI11
Fnan
sI12
Fnan
sI13
Fnan
sI14
Fnan
ssg30
(dp183
I0
F11.239
sI1
F11.242
sI2
F11.244
sI3
F11.24
sI4
F11.272
sI5
F11.268
sI6
F11.252
sI7
F11.255
sI8
F11.266
sI9
F11.254
sI10
F11.278
sI11
F11.29
sI12
F11.276
sI13
F11.287
sI14
F11.239
ssg32
(dp184
I0
F10.09282
sI1
F10.65588
sI2
F11.05881
sI3
F10.89146
sI4
F11.30795
sI5
F11.11728
sI6
F10.08593
sI7
F10.39127
sI8
F11.25941
sI9
F9.850483
sI10
F10.95526
sI11
F11.34872
sI12
F11.63491
sI13
F11.68835
sI14
F10.69061
ssg34
(dp185
I0
F2458338.7219675924
sI1
F2458338.7227083333
sI2
F2458338.7241782406
sI3
F2458338.721226852
sI4
F2458338.703935185
sI5
F2458338.7032060185
sI6
F2458338.7413657405
sI7
F2458338.7024652776
sI8
F2458338.704664352
sI9
F2458338.7421064815
sI10
F2458338.739895833
sI11
F2458338.740636574
sI12
F2458338.705405093
sI13
F2458338.7428356484
sI14
F2458338.7234375
ssg36
(dp186
I0
F1.3481516
sI1
Fnan
sI2
Fnan
sI3
Fnan
sI4
Fnan
sI5
Fnan
sI6
Fnan
sI7
Fnan
sI8
Fnan
sI9
Fnan
sI10
Fnan
sI11
Fnan
sI12
Fnan
sI13
Fnan
sI14
Fnan
ssg38
(dp187
I0
F1.521767866666667
sI1
Fnan
sI2
Fnan
sI3
Fnan
sI4
Fnan
sI5
Fnan
sI6
Fnan
sI7
Fnan
sI8
Fnan
sI9
Fnan
sI10
Fnan
sI11
Fnan
sI12
Fnan
sI13
Fnan
sI14
Fnan
ssg40
(dp188
I0
F0.5492968002923788
sI1
F0.5486985547150133
sI2
F0.5462957719661161
sI3
F0.5482731482259258
sI4
F0.5476232014148097
sI5
F0.5464139018328131
sI6
F0.5487281543916527
sI7
F0.5460838822608135
sI8
F0.5475673196362609
sI9
F0.5461250527716995
sI10
F0.5443932044563575
sI11
F0.5455036453290618
sI12
F0.5466508716313987
sI13
F0.546331840077159
sI14
F0.5469820457386574
ssg42
(dp189
I0
F0.0010171152776398645
sI1
Fnan
sI2
Fnan
sI3
Fnan
sI4
Fnan
sI5
Fnan
sI6
Fnan
sI7
Fnan
sI8
Fnan
sI9
Fnan
sI10
Fnan
sI11
Fnan
sI12
Fnan
sI13
Fnan
sI14
Fnan
ssg44
(dp190
I0
F0.8451706
sI1
Fnan
sI2
Fnan
sI3
Fnan
sI4
Fnan
sI5
Fnan
sI6
Fnan
sI7
Fnan
sI8
Fnan
sI9
Fnan
sI10
Fnan
sI11
Fnan
sI12
Fnan
sI13
Fnan
sI14
Fnan
ssg46
(dp191
I0
g164
sI1
g165
sI2
g166
sI3
g167
sI4
g168
sI5
g169
sI6
g170
sI7
g171
sI8
g172
sI9
g173
sI10
g174
sI11
g175
sI12
g176
sI13
g177
sI14
g178
ssg48
(dp192
I0
F0.0021085905094850106
sI1
Fnan
sI2
Fnan
sI3
Fnan
sI4
Fnan
sI5
Fnan
sI6
Fnan
sI7
Fnan
sI8
Fnan
sI9
Fnan
sI10
Fnan
sI11
Fnan
sI12
Fnan
sI13
Fnan
sI14
Fnan
ssg50
(dp193
I0
F0.016521270561079313
sI1
Fnan
sI2
Fnan
sI3
Fnan
sI4
Fnan
sI5
Fnan
sI6
Fnan
sI7
Fnan
sI8
Fnan
sI9
Fnan
sI10
Fnan
sI11
Fnan
sI12
Fnan
sI13
Fnan
sI14
Fnan
ssg52
(dp194
I0
F3.0428740666666667
sI1
Fnan
sI2
Fnan
sI3
Fnan
sI4
Fnan
sI5
Fnan
sI6
Fnan
sI7
Fnan
sI8
Fnan
sI9
Fnan
sI10
Fnan
sI11
Fnan
sI12
Fnan
sI13
Fnan
sI14
Fnan
ssg54
(dp195
I0
F1.5004668627343651
sI1
F1.4968458177527046
sI2
F1.498571305105141
sI3
F1.504439831570916
sI4
F1.4994506211386545
sI5
F1.4981437697635904
sI6
F1.5010665274603563
sI7
F1.4931057194530915
sI8
F1.4939978460874548
sI9
F1.5018463731127376
sI10
F1.5021279385141475
sI11
F1.504865056635808
sI12
F1.4980839988388783
sI13
F1.5065421104991146
sI14
F1.495341268484684
ssg56
(dp196
I0
g164
sI1
g165
sI2
g166
sI3
g167
sI4
g168
sI5
g169
sI6
g170
sI7
g171
sI8
g172
sI9
g173
sI10
g174
sI11
g175
sI12
g176
sI13
g177
sI14
g178
ssg58
(dp197
I0
F12.4503
sI1
F12.35697
sI2
F11.57203
sI3
F12.43714
sI4
F12.83765
sI5
F12.89054
sI6
F12.43537
sI7
F11.77871
sI8
F12.9897
sI9
F11.5405
sI10
F12.88311
sI11
F13.8767
sI12
F14.4511
sI13
F14.91177
sI14
F11.6798
ssg60
(dp198
I0
F10.332466666666667
sI1
Fnan
sI2
Fnan
sI3
Fnan
sI4
Fnan
sI5
Fnan
sI6
Fnan
sI7
Fnan
sI8
Fnan
sI9
Fnan
sI10
Fnan
sI11
Fnan
sI12
Fnan
sI13
Fnan
sI14
Fnan
ssg62
(dp199
I0
F0.7115891195847764
sI1
Fnan
sI2
Fnan
sI3
Fnan
sI4
Fnan
sI5
Fnan
sI6
Fnan
sI7
Fnan
sI8
Fnan
sI9
Fnan
sI10
Fnan
sI11
Fnan
sI12
Fnan
sI13
Fnan
sI14
Fnan
ssg64
(dp200
I0
F3.204411
sI1
F3.695802
sI2
F3.137958
sI3
F3.018261
sI4
F-2.015679
sI5
F2.953149
sI6
F3.712073
sI7
F3.565694
sI8
F2.496821
sI9
F-2.525114
sI10
F2.727406
sI11
F2.779324
sI12
F-2.625806
sI13
F2.213523
sI14
F-3.511305
ssg66
(dp201
I0
F10.687333333333333
sI1
Fnan
sI2
Fnan
sI3
Fnan
sI4
Fnan
sI5
Fnan
sI6
Fnan
sI7
Fnan
sI8
Fnan
sI9
Fnan
sI10
Fnan
sI11
Fnan
sI12
Fnan
sI13
Fnan
sI14
Fnan
ssg68
(dp202
I0
g164
sI1
g165
sI2
g166
sI3
g167
sI4
g168
sI5
g169
sI6
g170
sI7
g171
sI8
g172
sI9
g173
sI10
g174
sI11
g175
sI12
g176
sI13
g177
sI14
g178
ssg70
(dp203
I0
F13528.26
sI1
F13502.74
sI2
F13560.44
sI3
F13537.263333333334
sI4
F13176.193333333333
sI5
F13274.396666666667
sI6
F13380.58
sI7
F13464.886666666665
sI8
F13246.523333333334
sI9
F13429.16
sI10
F13209.773333333334
sI11
F12976.813333333334
sI12
F13152.94
sI13
F13024.119999999999
sI14
F13618.74
ssg72
(dp204
I0
F1.036586
sI1
F1.035691
sI2
F1.033934
sI3
F1.0375020000000001
sI4
F1.062994
sI5
F1.064259
sI6
F1.017339
sI7
F1.065525
sI8
F1.061749
sI9
F1.016786
sI10
F1.018481
sI11
F1.017901
sI12
F1.060522
sI13
F1.0162440000000001
sI14
F1.0348030000000001
ssg74
(dp205
I0
F11500.51
sI1
F11518.536666666665
sI2
F11509.06
sI3
F11487.71
sI4
F11196.786666666665
sI5
F11258.3
sI6
F11382.026666666667
sI7
F11394.366666666667
sI8
F11301.053333333333
sI9
F11404.21
sI10
F11147.916666666666
sI11
F11038.323333333334
sI12
F11179.856666666667
sI13
F11016.796666666667
sI14
F11557.283333333333
ssg76
(dp206
I0
F18777.42
sI1
F18726.496666666666
sI2
F18784.216666666667
sI3
F18824.283333333333
sI4
F18273.039999999997
sI5
F18376.753333333334
sI6
F18585.16
sI7
F18558.746666666666
sI8
F18337.013333333332
sI9
F18647.95333333333
sI10
F18294.183333333334
sI11
F18069.77
sI12
F18226.286666666667
sI13
F18109.326666666668
sI14
F18823.373333333333
ssg78
(dp207
I0
F11.77865
sI1
F11.74868
sI2
F11.03196
sI3
F11.97349
sI4
F12.79844
sI5
F12.47553
sI6
F11.21874
sI7
F11.05262
sI8
F12.38066
sI9
F11.10884
sI10
F11.86973
sI11
F13.39569
sI12
F13.79257
sI13
F13.39045
sI14
F11.91044
ssg80
(dp208
I0
F10.848
sI1
F10.847
sI2
F10.847
sI3
F10.849
sI4
F10.877
sI5
F10.871
sI6
F10.859
sI7
F10.858
sI8
F10.867
sI9
F10.857
sI10
F10.882
sI11
F10.893
sI12
F10.879
sI13
F10.895
sI14
F10.843
ssg82
(dp209
I0
F0.001
sI1
F0.001
sI2
F0.001
sI3
F0.001
sI4
F0.001
sI5
F0.001
sI6
F0.001
sI7
F0.001
sI8
F0.001
sI9
F0.001
sI10
F0.001
sI11
F0.001
sI12
F0.001
sI13
F0.001
sI14
F0.001
ssg84
(dp210
I0
F0.5469978263160079
sI1
Fnan
sI2
Fnan
sI3
Fnan
sI4
Fnan
sI5
Fnan
sI6
Fnan
sI7
Fnan
sI8
Fnan
sI9
Fnan
sI10
Fnan
sI11
Fnan
sI12
Fnan
sI13
Fnan
sI14
Fnan
ssg86
(dp211
I0
F10.8648
sI1
Fnan
sI2
Fnan
sI3
Fnan
sI4
Fnan
sI5
Fnan
sI6
Fnan
sI7
Fnan
sI8
Fnan
sI9
Fnan
sI10
Fnan
sI11
Fnan
sI12
Fnan
sI13
Fnan
sI14
Fnan
ssg88
(dp212
I0
F10.672
sI1
F10.674
sI2
F10.669
sI3
F10.671
sI4
F10.701
sI5
F10.692
sI6
F10.684
sI7
F10.677
sI8
F10.695
sI9
F10.68
sI10
F10.698
sI11
F10.717
sI12
F10.702
sI13
F10.713
sI14
F10.665
ssg90
(dp213
I0
F-2.093125
sI1
F-2.062129
sI2
F3.548749
sI3
F2.403229
sI4
F4.286632
sI5
F1.995956
sI6
F-2.050115
sI7
F2.393498
sI8
F-4.005898
sI9
F1.416005
sI10
F4.727835
sI11
F4.574109
sI12
F2.603766
sI13
F-2.16637
sI14
F4.650132
ssg92
(dp214
I0
F0.015670111070199153
sI1
Fnan
sI2
Fnan
sI3
Fnan
sI4
Fnan
sI5
Fnan
sI6
Fnan
sI7
Fnan
sI8
Fnan
sI9
Fnan
sI10
Fnan
sI11
Fnan
sI12
Fnan
sI13
Fnan
sI14
Fnan
ssg94
(dp215
I0
F0.7119806795585173
sI1
F0.7147880532075896
sI2
F0.711651393836612
sI3
F0.7099605045659126
sI4
F0.7120546658795074
sI5
F0.7113991118806109
sI6
F0.7121391005912372
sI7
F0.7116223539073747
sI8
F0.715629376950713
sI9
F0.7110496434945206
sI10
F0.7077153377665683
sI11
F0.7110813589257003
sI12
F0.7125641932114749
sI13
F0.7077145543581533
sI14
F0.7124864656371542
ssg96
(dp216
I0
F30.0
sI1
F30.0
sI2
F30.0
sI3
F30.0
sI4
F30.0
sI5
F30.0
sI6
F30.0
sI7
F30.0
sI8
F30.0
sI9
F30.0
sI10
F30.0
sI11
F30.0
sI12
F30.0
sI13
F30.0
sI14
F30.0
ssg98
(dp217
I0
F0.002
sI1
F0.002
sI2
F0.002
sI3
F0.002
sI4
F0.002
sI5
F0.002
sI6
F0.002
sI7
F0.002
sI8
F0.002
sI9
F0.002
sI10
F0.002
sI11
F0.002
sI12
F0.002
sI13
F0.002
sI14
F0.002
ssg100
(dp218
I0
F0.002
sI1
F0.002
sI2
F0.002
sI3
F0.002
sI4
F0.002
sI5
F0.002
sI6
F0.002
sI7
F0.002
sI8
F0.002
sI9
F0.002
sI10
F0.002
sI11
F0.002
sI12
F0.002
sI13
F0.002
sI14
F0.002
ssg102
(dp219
I0
F1.778911
sI1
F3.869961
sI2
F4.02508
sI3
F2.297143
sI4
F3.017203
sI5
F3.093375
sI6
F1.205754
sI7
F1.470235
sI8
F4.570855
sI9
F2.626255
sI10
F3.390339
sI11
F3.69111
sI12
F4.210428
sI13
F4.567139
sI14
F1.829323
ssg104
(dp220
I0
S"KIC8462852-20180808at051938_-25-1X1-030-r'_cal.fts.mag.1"
p221
sI1
S"KIC8462852-20180808at052041_-25-1X1-030-r'_cal.fts.mag.1"
p222
sI2
S"KIC8462852-20180808at052248_-25-1X1-030-r'_cal.fts.mag.1"
p223
sI3
S"KIC8462852-20180808at051833_-25-1X1-030-r'_cal.fts.mag.1"
p224
sI4
S"KIC8462852-20180808at045340_-25-1X1-030-r'_cal.fts.mag.1"
p225
sI5
S"KIC8462852-20180808at045236_-25-1X1-030-r'_cal.fts.mag.1"
p226
sI6
S"KIC8462852-20180808at054734_-25-1X1-030-r'_cal.fts.mag.1"
p227
sI7
S"KIC8462852-20180808at045132_-25-1X1-030-r'_cal.fts.mag.1"
p228
sI8
S"KIC8462852-20180808at045443_-25-1X1-030-r'_cal.fts.mag.1"
p229
sI9
S"KIC8462852-20180808at054838_-25-1X1-030-r'_cal.fts.mag.1"
p230
sI10
S"KIC8462852-20180808at054526_-25-1X1-030-r'_cal.fts.mag.1"
p231
sI11
S"KIC8462852-20180808at054631_-25-1X1-030-r'_cal.fts.mag.1"
p232
sI12
S"KIC8462852-20180808at045547_-25-1X1-030-r'_cal.fts.mag.1"
p233
sI13
S"KIC8462852-20180808at054941_-25-1X1-030-r'_cal.fts.mag.1"
p234
sI14
S"KIC8462852-20180808at052145_-25-1X1-030-r'_cal.fts.mag.1"
p235
ssg121
(dp236
I0
F0.003949725275185371
sI1
Fnan
sI2
Fnan
sI3
Fnan
sI4
Fnan
sI5
Fnan
sI6
Fnan
sI7
Fnan
sI8
Fnan
sI9
Fnan
sI10
Fnan
sI11
Fnan
sI12
Fnan
sI13
Fnan
sI14
Fnan
ssg123
(dp237
I0
F8020.866666666667
sI1
F8001.446666666667
sI2
F7985.7
sI3
F8013.79
sI4
F7784.65
sI5
F7815.4400000000005
sI6
F7928.713333333333
sI7
F7903.29
sI8
F7827.4
sI9
F7915.413333333333
sI10
F7739.796666666666
sI11
F7652.490000000001
sI12
F7754.986666666667
sI13
F7676.006666666667
sI14
F8022.293333333333
ssg125
(dp238
I0
F0.017275912214906174
sI1
Fnan
sI2
Fnan
sI3
Fnan
sI4
Fnan
sI5
Fnan
sI6
Fnan
sI7
Fnan
sI8
Fnan
sI9
Fnan
sI10
Fnan
sI11
Fnan
sI12
Fnan
sI13
Fnan
sI14
Fnan
ssg127
(dp239
I0
S"r'"
p240
sI1
S"r'"
p241
sI2
S"r'"
p242
sI3
S"r'"
p243
sI4
S"r'"
p244
sI5
S"r'"
p245
sI6
S"r'"
p246
sI7
S"r'"
p247
sI8
S"r'"
p248
sI9
S"r'"
p249
sI10
S"r'"
p250
sI11
S"r'"
p251
sI12
S"r'"
p252
sI13
S"r'"
p253
sI14
S"r'"
p254
ssg144
(dp255
I0
F0.0013502731978091663
sI1
Fnan
sI2
Fnan
sI3
Fnan
sI4
Fnan
sI5
Fnan
sI6
Fnan
sI7
Fnan
sI8
Fnan
sI9
Fnan
sI10
Fnan
sI11
Fnan
sI12
Fnan
sI13
Fnan
sI14
Fnan
ssg146
(dp256
I0
F2.631365
sI1
F-2.956979
sI2
F-1.680774
sI3
F-4.440873
sI4
F2.80872
sI5
F-1.826476
sI6
F3.527215
sI7
F2.335621
sI8
F2.619861
sI9
F3.639386
sI10
F-3.043236
sI11
F3.736259
sI12
F3.910001
sI13
F2.982267
sI14
F-1.564798
ssg148
(dp257
I0
F1.4996596698101097
sI1
Fnan
sI2
Fnan
sI3
Fnan
sI4
Fnan
sI5
Fnan
sI6
Fnan
sI7
Fnan
sI8
Fnan
sI9
Fnan
sI10
Fnan
sI11
Fnan
sI12
Fnan
sI13
Fnan
sI14
Fnan
ssg150
(dp258
I0
F2458338.7227083333
sI1
Fnan
sI2
Fnan
sI3
Fnan
sI4
Fnan
sI5
Fnan
sI6
Fnan
sI7
Fnan
sI8
Fnan
sI9
Fnan
sI10
Fnan
sI11
Fnan
sI12
Fnan
sI13
Fnan
sI14
Fnan
ssg152
(dp259
I0
F0.0013502731978091663
sI1
Fnan
sI2
Fnan
sI3
Fnan
sI4
Fnan
sI5
Fnan
sI6
Fnan
sI7
Fnan
sI8
Fnan
sI9
Fnan
sI10
Fnan
sI11
Fnan
sI12
Fnan
sI13
Fnan
sI14
Fnan
ssg154
(dp260
I0
F13.76146
sI1
F15.03948
sI2
F14.56582
sI3
F14.88642
sI4
F14.38182
sI5
F16.06959
sI6
F14.81315
sI7
F14.63212
sI8
F15.9895
sI9
F14.27913
sI10
F16.03253
sI11
F16.61551
sI12
F16.37523
sI13
F16.96689
sI14
F13.32868
ssg156
(dp261
I0
F10.316
sI1
F10.319
sI2
F10.316
sI3
F10.313
sI4
F10.345
sI5
F10.339
sI6
F10.327
sI7
F10.329
sI8
F10.342
sI9
F10.323
sI10
F10.344
sI11
F10.358
sI12
F10.348
sI13
F10.355
sI14
F10.313
ssg158
(dp262
I0
F0.5469978263160079
sI1
Fnan
sI2
Fnan
sI3
Fnan
sI4
Fnan
sI5
Fnan
sI6
Fnan
sI7
Fnan
sI8
Fnan
sI9
Fnan
sI10
Fnan
sI11
Fnan
sI12
Fnan
sI13
Fnan
sI14
Fnan
sssS'z'
p263
(dp264
g3
(dp265
I0
F0.3691451332737612
sI1
Fnan
sI2
Fnan
sI3
Fnan
sI4
Fnan
sI5
Fnan
sI6
Fnan
sI7
Fnan
sI8
Fnan
sI9
Fnan
sI10
Fnan
sI11
Fnan
sI12
Fnan
sI13
Fnan
sI14
Fnan
ssg5
(dp266
I0
S'NoError'
p267
sI1
S'NoError'
p268
sI2
S'NoError'
p269
sI3
S'NoError'
p270
sI4
S'NoError'
p271
sI5
S'NoError'
p272
sI6
S'NoError'
p273
sI7
S'NoError'
p274
sI8
S'NoError'
p275
sI9
S'NoError'
p276
sI10
S'NoError'
p277
sI11
S'NoError'
p278
sI12
S'NoError'
p279
sI13
S'NoError'
p280
sI14
S'NoError'
p281
ssg22
(dp282
I0
F0.007
sI1
F0.007
sI2
F0.007
sI3
F0.007
sI4
F0.007
sI5
F0.007
sI6
F0.007
sI7
F0.007
sI8
F0.007
sI9
F0.007
sI10
F0.007
sI11
F0.007
sI12
F0.007
sI13
F0.007
sI14
F0.007
ssg24
(dp283
I0
F0.914864841251813
sI1
F0.9128970911260825
sI2
F0.9187609990608574
sI3
F0.9158361985582759
sI4
F0.9154476491691567
sI5
F0.9191233269608609
sI6
F0.9155856684509175
sI7
F0.9212265647801384
sI8
F0.9149828464692481
sI9
F0.9162823497903372
sI10
F0.9191459164921841
sI11
F0.9134251052863159
sI12
F0.9111192333062637
sI13
F0.9174169812961311
sI14
F0.9123197110203315
ssg26
(dp284
I0
F0.0028406179076872003
sI1
Fnan
sI2
Fnan
sI3
Fnan
sI4
Fnan
sI5
Fnan
sI6
Fnan
sI7
Fnan
sI8
Fnan
sI9
Fnan
sI10
Fnan
sI11
Fnan
sI12
Fnan
sI13
Fnan
sI14
Fnan
ssg28
(dp285
I0
F0.915895632201261
sI1
Fnan
sI2
Fnan
sI3
Fnan
sI4
Fnan
sI5
Fnan
sI6
Fnan
sI7
Fnan
sI8
Fnan
sI9
Fnan
sI10
Fnan
sI11
Fnan
sI12
Fnan
sI13
Fnan
sI14
Fnan
ssg30
(dp286
I0
F13.27
sI1
F13.273
sI2
F13.248
sI3
F13.27
sI4
F13.268
sI5
F13.26
sI6
F13.283
sI7
F13.251
sI8
F13.269
sI9
F13.279
sI10
F13.281
sI11
F13.291
sI12
F13.278
sI13
F13.261
sI14
F13.274
ssg32
(dp287
I0
F5.685995
sI1
F7.064463
sI2
F6.533787
sI3
F6.983798
sI4
F8.018543
sI5
F6.749964
sI6
F6.641788
sI7
F6.710993
sI8
F6.750781
sI9
F8.16582
sI10
F7.460349
sI11
F6.078569
sI12
F7.218635
sI13
F7.789662
sI14
F6.757051
ssg34
(dp288
I0
F2458338.730810185
sI1
F2458338.7502199076
sI2
F2458338.7472800924
sI3
F2458338.7494791667
sI4
F2458338.712083333
sI5
F2458338.710590278
sI6
F2458338.7300810185
sI7
F2458338.709849537
sI8
F2458338.74875
sI9
F2458338.7128125
sI10
F2458338.7480208334
sI11
F2458338.728611111
sI12
F2458338.7293518516
sI13
F2458338.7113310187
sI14
F2458338.731550926
ssg36
(dp289
I0
F1.5017432333333334
sI1
Fnan
sI2
Fnan
sI3
Fnan
sI4
Fnan
sI5
Fnan
sI6
Fnan
sI7
Fnan
sI8
Fnan
sI9
Fnan
sI10
Fnan
sI11
Fnan
sI12
Fnan
sI13
Fnan
sI14
Fnan
ssg38
(dp290
I0
F0.30214122000000004
sI1
Fnan
sI2
Fnan
sI3
Fnan
sI4
Fnan
sI5
Fnan
sI6
Fnan
sI7
Fnan
sI8
Fnan
sI9
Fnan
sI10
Fnan
sI11
Fnan
sI12
Fnan
sI13
Fnan
sI14
Fnan
ssg40
(dp291
I0
F0.3703661185937938
sI1
F0.3669481806935642
sI2
F0.3706244260600786
sI3
F0.3687115513615324
sI4
F0.3721477398075835
sI5
F0.3708500234835012
sI6
F0.36974763015203005
sI7
F0.3766661786871727
sI8
F0.3696587836919476
sI9
F0.3655673710650418
sI10
F0.36398778669402126
sI11
F0.3691239393796944
sI12
F0.36892613926018514
sI13
F0.36953144396961124
sI14
F0.3666833850403314
ssg42
(dp292
I0
F0.001760705111772207
sI1
Fnan
sI2
Fnan
sI3
Fnan
sI4
Fnan
sI5
Fnan
sI6
Fnan
sI7
Fnan
sI8
Fnan
sI9
Fnan
sI10
Fnan
sI11
Fnan
sI12
Fnan
sI13
Fnan
sI14
Fnan
ssg44
(dp293
I0
F0.5517260666666667
sI1
Fnan
sI2
Fnan
sI3
Fnan
sI4
Fnan
sI5
Fnan
sI6
Fnan
sI7
Fnan
sI8
Fnan
sI9
Fnan
sI10
Fnan
sI11
Fnan
sI12
Fnan
sI13
Fnan
sI14
Fnan
ssg46
(dp294
I0
g267
sI1
g268
sI2
g269
sI3
g270
sI4
g271
sI5
g272
sI6
g273
sI7
g274
sI8
g275
sI9
g276
sI10
g277
sI11
g278
sI12
g279
sI13
g280
sI14
g281
ssg48
(dp295
I0
F0.0032231839251514543
sI1
Fnan
sI2
Fnan
sI3
Fnan
sI4
Fnan
sI5
Fnan
sI6
Fnan
sI7
Fnan
sI8
Fnan
sI9
Fnan
sI10
Fnan
sI11
Fnan
sI12
Fnan
sI13
Fnan
sI14
Fnan
ssg50
(dp296
I0
F0.010355582805332221
sI1
Fnan
sI2
Fnan
sI3
Fnan
sI4
Fnan
sI5
Fnan
sI6
Fnan
sI7
Fnan
sI8
Fnan
sI9
Fnan
sI10
Fnan
sI11
Fnan
sI12
Fnan
sI13
Fnan
sI14
Fnan
ssg52
(dp297
I0
F-0.7541029333333332
sI1
Fnan
sI2
Fnan
sI3
Fnan
sI4
Fnan
sI5
Fnan
sI6
Fnan
sI7
Fnan
sI8
Fnan
sI9
Fnan
sI10
Fnan
sI11
Fnan
sI12
Fnan
sI13
Fnan
sI14
Fnan
ssg54
(dp298
I0
F1.5159361145608243
sI1
F1.5107822817437748
sI2
F1.5092221622528228
sI3
F1.5079604525674823
sI4
F1.5097500671490611
sI5
F1.503389273792165
sI6
F1.514350711341804
sI7
F1.4947318877888722
sI8
F1.5147484257121442
sI9
F1.516011603375896
sI10
F1.5011616072231582
sI11
F1.52022655413301
sI12
F1.5245591788687214
sI13
F1.506265486807457
sI14
F1.5041459899379352
ssg56
(dp299
I0
g267
sI1
g268
sI2
g269
sI3
g270
sI4
g271
sI5
g272
sI6
g273
sI7
g274
sI8
g275
sI9
g276
sI10
g277
sI11
g278
sI12
g279
sI13
g280
sI14
g281
ssg58
(dp300
I0
F7.624973
sI1
F8.316357
sI2
F8.30103
sI3
F7.414045
sI4
F9.176859
sI5
F8.360543
sI6
F8.663614
sI7
F7.487586
sI8
F8.305599
sI9
F8.80441
sI10
F8.495055
sI11
F7.716962
sI12
F8.356641
sI13
F8.529227
sI14
F7.914599
ssg60
(dp301
I0
F11.9118
sI1
Fnan
sI2
Fnan
sI3
Fnan
sI4
Fnan
sI5
Fnan
sI6
Fnan
sI7
Fnan
sI8
Fnan
sI9
Fnan
sI10
Fnan
sI11
Fnan
sI12
Fnan
sI13
Fnan
sI14
Fnan
ssg62
(dp302
I0
F0.6869632042627757
sI1
Fnan
sI2
Fnan
sI3
Fnan
sI4
Fnan
sI5
Fnan
sI6
Fnan
sI7
Fnan
sI8
Fnan
sI9
Fnan
sI10
Fnan
sI11
Fnan
sI12
Fnan
sI13
Fnan
sI14
Fnan
ssg64
(dp303
I0
F-3.251049
sI1
F-1.784762
sI2
F3.193974
sI3
F0.8670386
sI4
F-2.029426
sI5
F-2.591265
sI6
F3.140765
sI7
F2.062195
sI8
F-0.2419453
sI9
F1.275936
sI10
F3.677824
sI11
F-2.895825
sI12
F-3.67225
sI13
F3.460538
sI14
F3.32037
ssg66
(dp304
I0
F12.253333333333334
sI1
Fnan
sI2
Fnan
sI3
Fnan
sI4
Fnan
sI5
Fnan
sI6
Fnan
sI7
Fnan
sI8
Fnan
sI9
Fnan
sI10
Fnan
sI11
Fnan
sI12
Fnan
sI13
Fnan
sI14
Fnan
ssg68
(dp305
I0
g267
sI1
g268
sI2
g269
sI3
g270
sI4
g271
sI5
g272
sI6
g273
sI7
g274
sI8
g275
sI9
g276
sI10
g277
sI11
g278
sI12
g279
sI13
g280
sI14
g281
ssg70
(dp306
I0
F3141.4080000000004
sI1
F3158.3559999999998
sI2
F3212.8926666666666
sI3
F3157.762
sI4
F3133.346
sI5
F3178.1026666666667
sI6
F3112.987
sI7
F3158.0016666666666
sI8
F3152.351666666667
sI9
F3161.23
sI10
F3174.675
sI11
F3087.9820000000004
sI12
F3123.491666666667
sI13
F3181.1679999999997
sI14
F3156.8693333333335
ssg72
(dp307
I0
F1.026685
sI1
F1.011514
sI2
F1.0132510000000001
sI3
F1.011935
sI4
F1.050006
sI5
F1.052237
sI6
F1.027432
sI7
F1.053383
sI8
F1.01236
sI9
F1.048918
sI10
F1.0128
sI11
F1.0289700000000002
sI12
F1.0281930000000001
sI13
F1.051107
sI14
F1.02595
ssg74
(dp308
I0
F2552.0333333333333
sI1
F2582.683
sI2
F2604.2716666666665
sI3
F2574.1566666666668
sI4
F2553.0080000000003
sI5
F2584.095333333333
sI6
F2528.440666666667
sI7
F2572.9570000000003
sI8
F2562.3486666666668
sI9
F2561.9320000000002
sI10
F2584.873666666667
sI11
F2507.855
sI12
F2539.557333333333
sI13
F2589.200333333333
sI14
F2594.833
ssg76
(dp309
I0
F4315.446666666667
sI1
F4336.73
sI2
F4389.696666666667
sI3
F4321.753333333333
sI4
F4292.486666666667
sI5
F4331.413333333333
sI6
F4271.55
sI7
F4283.123333333333
sI8
F4328.166666666667
sI9
F4338.19
sI10
F4323.006666666666
sI11
F4253.47
sI12
F4316.826666666667
sI13
F4345.8533333333335
sI14
F4325.7
ssg78
(dp310
I0
F7.394769
sI1
F7.195942
sI2
F7.363626
sI3
F7.165502
sI4
F8.836485
sI5
F8.595634
sI6
F7.186817
sI7
F7.478595
sI8
F7.314723
sI9
F8.242153
sI10
F6.967864
sI11
F8.069374
sI12
F8.139125
sI13
F8.098838
sI14
F7.269165
ssg80
(dp311
I0
F12.483
sI1
F12.47
sI2
F12.461
sI3
F12.473
sI4
F12.482
sI5
F12.469
sI6
F12.493
sI7
F12.474
sI8
F12.478
sI9
F12.479
sI10
F12.469
sI11
F12.502
sI12
F12.488
sI13
F12.467
sI14
F12.465
ssg82
(dp312
I0
F0.003
sI1
F0.003
sI2
F0.003
sI3
F0.003
sI4
F0.003
sI5
F0.003
sI6
F0.003
sI7
F0.003
sI8
F0.003
sI9
F0.003
sI10
F0.003
sI11
F0.003
sI12
F0.003
sI13
F0.003
sI14
F0.003
ssg84
(dp313
I0
F0.3693027131960059
sI1
Fnan
sI2
Fnan
sI3
Fnan
sI4
Fnan
sI5
Fnan
sI6
Fnan
sI7
Fnan
sI8
Fnan
sI9
Fnan
sI10
Fnan
sI11
Fnan
sI12
Fnan
sI13
Fnan
sI14
Fnan
ssg86
(dp314
I0
F12.476866666666668
sI1
Fnan
sI2
Fnan
sI3
Fnan
sI4
Fnan
sI5
Fnan
sI6
Fnan
sI7
Fnan
sI8
Fnan
sI9
Fnan
sI10
Fnan
sI11
Fnan
sI12
Fnan
sI13
Fnan
sI14
Fnan
ssg88
(dp315
I0
F12.257
sI1
F12.251
sI2
F12.233
sI3
F12.252
sI4
F12.26
sI5
F12.245
sI6
F12.267
sI7
F12.251
sI8
F12.253
sI9
F12.25
sI10
F12.246
sI11
F12.276
sI12
F12.263
sI13
F12.244
sI14
F12.252
ssg90
(dp316
I0
F2.962459
sI1
F3.407821
sI2
F-2.17942
sI3
F2.632959
sI4
F3.687407
sI5
F-1.813533
sI6
F3.168857
sI7
F-3.431355
sI8
F3.387577
sI9
F3.630445
sI10
F2.904971
sI11
F-3.164939
sI12
F3.624509
sI13
F-0.6475005
sI14
F4.355891
ssg92
(dp317
I0
F0.008325520146770748
sI1
Fnan
sI2
Fnan
sI3
Fnan
sI4
Fnan
sI5
Fnan
sI6
Fnan
sI7
Fnan
sI8
Fnan
sI9
Fnan
sI10
Fnan
sI11
Fnan
sI12
Fnan
sI13
Fnan
sI14
Fnan
ssg94
(dp318
I0
F0.6844798369857819
sI1
F0.689167008890892
sI2
F0.6851012339304748
sI3
F0.6883217834168044
sI4
F0.6876018123758781
sI5
F0.688218876778033
sI6
F0.6847932826842541
sI7
F0.6915505383930522
sI8
F0.685072491634381
sI9
F0.6832347034837362
sI10
F0.6895127805061521
sI11
F0.6832040855133289
sI12
F0.6826474942492379
sI13
F0.6879747561939508
sI14
F0.6935673789056772
ssg96
(dp319
I0
F30.0
sI1
F30.0
sI2
F30.0
sI3
F30.0
sI4
F30.0
sI5
F30.0
sI6
F30.0
sI7
F30.0
sI8
F30.0
sI9
F30.0
sI10
F30.0
sI11
F30.0
sI12
F30.0
sI13
F30.0
sI14
F30.0
ssg98
(dp320
I0
F0.004
sI1
F0.004
sI2
F0.004
sI3
F0.004
sI4
F0.004
sI5
F0.004
sI6
F0.004
sI7
F0.004
sI8
F0.004
sI9
F0.004
sI10
F0.004
sI11
F0.004
sI12
F0.004
sI13
F0.004
sI14
F0.004
ssg100
(dp321
I0
F0.004
sI1
F0.004
sI2
F0.004
sI3
F0.004
sI4
F0.004
sI5
F0.004
sI6
F0.004
sI7
F0.004
sI8
F0.004
sI9
F0.004
sI10
F0.004
sI11
F0.004
sI12
F0.004
sI13
F0.004
sI14
F0.004
ssg102
(dp322
I0
F3.624951
sI1
F1.667182
sI2
F-2.973097
sI3
F-1.891343
sI4
F-2.866042
sI5
F-2.875198
sI6
F-2.759925
sI7
F2.658013
sI8
F-3.522537
sI9
F-1.960219
sI10
F-2.186081
sI11
F-2.309304
sI12
F-3.296591
sI13
F4.123141
sI14
F3.255506
ssg104
(dp323
I0
S"KIC8462852-20180808at053222_-25-1X1-030-z'_cal.fts.mag.1"
p324
sI1
S"KIC8462852-20180808at060019_-25-1X1-030-z'_cal.fts.mag.1"
p325
sI2
S"KIC8462852-20180808at055604_-25-1X1-030-z'_cal.fts.mag.1"
p326
sI3
S"KIC8462852-20180808at055915_-25-1X1-030-z'_cal.fts.mag.1"
p327
sI4
S"KIC8462852-20180808at050524_-25-1X1-030-z'_cal.fts.mag.1"
p328
sI5
S"KIC8462852-20180808at050315_-25-1X1-030-z'_cal.fts.mag.1"
p329
sI6
S"KIC8462852-20180808at053119_-25-1X1-030-z'_cal.fts.mag.1"
p330
sI7
S"KIC8462852-20180808at050209_-25-1X1-030-z'_cal.fts.mag.1"
p331
sI8
S"KIC8462852-20180808at055812_-25-1X1-030-z'_cal.fts.mag.1"
p332
sI9
S"KIC8462852-20180808at050627_-25-1X1-030-z'_cal.fts.mag.1"
p333
sI10
S"KIC8462852-20180808at055708_-25-1X1-030-z'_cal.fts.mag.1"
p334
sI11
S"KIC8462852-20180808at052910_-25-1X1-030-z'_cal.fts.mag.1"
p335
sI12
S"KIC8462852-20180808at053016_-25-1X1-030-z'_cal.fts.mag.1"
p336
sI13
S"KIC8462852-20180808at050419_-25-1X1-030-z'_cal.fts.mag.1"
p337
sI14
S"KIC8462852-20180808at053326_-25-1X1-030-z'_cal.fts.mag.1"
p338
ssg121
(dp339
I0
F0.00773347975037467
sI1
Fnan
sI2
Fnan
sI3
Fnan
sI4
Fnan
sI5
Fnan
sI6
Fnan
sI7
Fnan
sI8
Fnan
sI9
Fnan
sI10
Fnan
sI11
Fnan
sI12
Fnan
sI13
Fnan
sI14
Fnan
ssg123
(dp340
I0
F1235.651
sI1
F1232.673
sI2
F1260.9706666666668
sI3
F1235.635
sI4
F1237.8676666666665
sI5
F1247.7386666666669
sI6
F1221.7666666666667
sI7
F1257.3220000000001
sI8
F1237.4779999999998
sI9
F1226.0339999999999
sI10
F1223.309
sI11
F1211.8716666666667
sI12
F1227.279
sI13
F1246.0873333333334
sI14
F1231.7386666666669
ssg125
(dp341
I0
F0.011243199002487011
sI1
Fnan
sI2
Fnan
sI3
Fnan
sI4
Fnan
sI5
Fnan
sI6
Fnan
sI7
Fnan
sI8
Fnan
sI9
Fnan
sI10
Fnan
sI11
Fnan
sI12
Fnan
sI13
Fnan
sI14
Fnan
ssg127
(dp342
I0
S"z'"
p343
sI1
S"z'"
p344
sI2
S"z'"
p345
sI3
S"z'"
p346
sI4
S"z'"
p347
sI5
S"z'"
p348
sI6
S"z'"
p349
sI7
S"z'"
p350
sI8
S"z'"
p351
sI9
S"z'"
p352
sI10
S"z'"
p353
sI11
S"z'"
p354
sI12
S"z'"
p355
sI13
S"z'"
p356
sI14
S"z'"
p357
ssg144
(dp358
I0
F0.002965190294469238
sI1
Fnan
sI2
Fnan
sI3
Fnan
sI4
Fnan
sI5
Fnan
sI6
Fnan
sI7
Fnan
sI8
Fnan
sI9
Fnan
sI10
Fnan
sI11
Fnan
sI12
Fnan
sI13
Fnan
sI14
Fnan
ssg146
(dp359
I0
F4.231057
sI1
F3.540862
sI2
F1.412856
sI3
F-2.695528
sI4
F-2.768041
sI5
F-1.844084
sI6
F1.533585
sI7
F2.714133
sI8
F-3.803711
sI9
F-3.059053
sI10
F-3.391822
sI11
F3.861542
sI12
F3.57764
sI13
F3.338466
sI14
F1.627989
ssg148
(dp360
I0
F1.5102161198170085
sI1
Fnan
sI2
Fnan
sI3
Fnan
sI4
Fnan
sI5
Fnan
sI6
Fnan
sI7
Fnan
sI8
Fnan
sI9
Fnan
sI10
Fnan
sI11
Fnan
sI12
Fnan
sI13
Fnan
sI14
Fnan
ssg150
(dp361
I0
F2458338.7300810185
sI1
Fnan
sI2
Fnan
sI3
Fnan
sI4
Fnan
sI5
Fnan
sI6
Fnan
sI7
Fnan
sI8
Fnan
sI9
Fnan
sI10
Fnan
sI11
Fnan
sI12
Fnan
sI13
Fnan
sI14
Fnan
ssg152
(dp362
I0
F0.002965190294469238
sI1
Fnan
sI2
Fnan
sI3
Fnan
sI4
Fnan
sI5
Fnan
sI6
Fnan
sI7
Fnan
sI8
Fnan
sI9
Fnan
sI10
Fnan
sI11
Fnan
sI12
Fnan
sI13
Fnan
sI14
Fnan
ssg154
(dp363
I0
F7.386665
sI1
F8.722954
sI2
F7.660313
sI3
F8.577805
sI4
F8.343405
sI5
F8.603436
sI6
F7.901505
sI7
F9.17565
sI8
F8.412639
sI9
F9.034432
sI10
F8.575885
sI11
F9.194812
sI12
F7.589598
sI13
F9.188635
sI14
F7.555255
ssg156
(dp364
I0
F11.912
sI1
F11.907
sI2
F11.894
sI3
F11.911
sI4
F11.918
sI5
F11.908
sI6
F11.924
sI7
F11.921
sI8
F11.909
sI9
F11.907
sI10
F11.911
sI11
F11.928
sI12
F11.912
sI13
F11.905
sI14
F11.91
ssg158
(dp365
I0
F0.3693027131960059
sI1
Fnan
sI2
Fnan
sI3
Fnan
sI4
Fnan
sI5
Fnan
sI6
Fnan
sI7
Fnan
sI8
Fnan
sI9
Fnan
sI10
Fnan
sI11
Fnan
sI12
Fnan
sI13
Fnan
sI14
Fnan
sssS'g'
p366
(dp367
g3
(dp368
I0
F0.8632817050163887
sI1
Fnan
sI2
Fnan
sI3
Fnan
sI4
Fnan
sI5
Fnan
sI6
Fnan
sI7
Fnan
sI8
Fnan
sI9
Fnan
sI10
Fnan
sI11
Fnan
sI12
Fnan
sI13
Fnan
sI14
Fnan
ssg5
(dp369
I0
S'NoError'
p370
sI1
S'NoError'
p371
sI2
S'NoError'
p372
sI3
S'NoError'
p373
sI4
S'NoError'
p374
sI5
S'NoError'
p375
sI6
S'NoError'
p376
sI7
S'NoError'
p377
sI8
S'NoError'
p378
sI9
S'NoError'
p379
sI10
S'NoError'
p380
sI11
S'NoError'
p381
sI12
S'NoError'
p382
sI13
S'NoError'
p383
sI14
S'NoError'
p384
ssg22
(dp385
I0
F0.002
sI1
F0.002
sI2
F0.002
sI3
F0.002
sI4
F0.002
sI5
F0.003
sI6
F0.003
sI7
F0.002
sI8
F0.002
sI9
F0.002
sI10
F0.002
sI11
F0.002
sI12
F0.003
sI13
F0.002
sI14
F0.002
ssg24
(dp386
I0
F0.8801263735905793
sI1
F0.8771018277000445
sI2
F0.8742115906457386
sI3
F0.8812915967769289
sI4
F0.8791360233281188
sI5
F0.8821871150169763
sI6
F0.8737397551309821
sI7
F0.875633454321304
sI8
F0.8792531734878921
sI9
F0.8768615937008942
sI10
F0.8764067807779701
sI11
F0.875035180377518
sI12
F0.8745367839314723
sI13
F0.8729903860343594
sI14
F0.8806634659727702
ssg26
(dp387
I0
F0.002971948697675725
sI1
Fnan
sI2
Fnan
sI3
Fnan
sI4
Fnan
sI5
Fnan
sI6
Fnan
sI7
Fnan
sI8
Fnan
sI9
Fnan
sI10
Fnan
sI11
Fnan
sI12
Fnan
sI13
Fnan
sI14
Fnan
ssg28
(dp388
I0
F0.8772783400529032
sI1
Fnan
sI2
Fnan
sI3
Fnan
sI4
Fnan
sI5
Fnan
sI6
Fnan
sI7
Fnan
sI8
Fnan
sI9
Fnan
sI10
Fnan
sI11
Fnan
sI12
Fnan
sI13
Fnan
sI14
Fnan
ssg30
(dp389
I0
F11.522
sI1
F11.543
sI2
F11.593
sI3
F11.549
sI4
F11.55
sI5
F11.594
sI6
F11.595
sI7
F11.547
sI8
F11.569
sI9
F11.55
sI10
F11.518
sI11
F11.545
sI12
F11.588
sI13
F11.54
sI14
F11.534
ssg32
(dp390
I0
F7.863756
sI1
F6.033727
sI2
F8.05901
sI3
F7.306124
sI4
F7.335715
sI5
F9.211974
sI6
F7.956395
sI7
F7.484964
sI8
F7.778338
sI9
F6.545272
sI10
F6.86142
sI11
F6.376273
sI12
F8.654044
sI13
F6.391992
sI14
F6.797165
ssg34
(dp391
I0
F2458338.7175347223
sI1
F2458338.7009837963
sI2
F2458338.698761574
sI3
F2458338.7002314813
sI4
F2458338.701712963
sI5
F2458338.7362152776
sI6
F2458338.7376851854
sI7
F2458338.7197569446
sI8
F2458338.7391550927
sI9
F2458338.738425926
sI10
F2458338.718287037
sI11
F2458338.699502315
sI12
F2458338.7369560185
sI13
F2458338.7190162037
sI14
F2458338.720486111
ssg36
(dp392
I0
F1.4408991466666667
sI1
Fnan
sI2
Fnan
sI3
Fnan
sI4
Fnan
sI5
Fnan
sI6
Fnan
sI7
Fnan
sI8
Fnan
sI9
Fnan
sI10
Fnan
sI11
Fnan
sI12
Fnan
sI13
Fnan
sI14
Fnan
ssg38
(dp393
I0
F0.8336898200000001
sI1
Fnan
sI2
Fnan
sI3
Fnan
sI4
Fnan
sI5
Fnan
sI6
Fnan
sI7
Fnan
sI8
Fnan
sI9
Fnan
sI10
Fnan
sI11
Fnan
sI12
Fnan
sI13
Fnan
sI14
Fnan
ssg40
(dp394
I0
F0.8677545014984714
sI1
F0.8649278819569108
sI2
F0.8620403346197214
sI3
F0.8646495331382998
sI4
F0.8600132451570115
sI5
F0.8617999345897226
sI6
F0.8629318910213892
sI7
F0.8625173135025025
sI8
F0.8631516001246199
sI9
F0.8635885326246532
sI10
F0.8644151625515547
sI11
F0.86722594052749
sI12
F0.86270410413283
sI13
F0.8611936179946672
sI14
F0.8654605539397939
ssg42
(dp395
I0
F0.001286502682900894
sI1
Fnan
sI2
Fnan
sI3
Fnan
sI4
Fnan
sI5
Fnan
sI6
Fnan
sI7
Fnan
sI8
Fnan
sI9
Fnan
sI10
Fnan
sI11
Fnan
sI12
Fnan
sI13
Fnan
sI14
Fnan
ssg44
(dp396
I0
F1.0442561866666669
sI1
Fnan
sI2
Fnan
sI3
Fnan
sI4
Fnan
sI5
Fnan
sI6
Fnan
sI7
Fnan
sI8
Fnan
sI9
Fnan
sI10
Fnan
sI11
Fnan
sI12
Fnan
sI13
Fnan
sI14
Fnan
ssg46
(dp397
I0
g370
sI1
g371
sI2
g372
sI3
g373
sI4
g374
sI5
g375
sI6
g376
sI7
g377
sI8
g378
sI9
g379
sI10
g380
sI11
g381
sI12
g382
sI13
g383
sI14
g384
ssg48
(dp398
I0
F0.001874268414129791
sI1
Fnan
sI2
Fnan
sI3
Fnan
sI4
Fnan
sI5
Fnan
sI6
Fnan
sI7
Fnan
sI8
Fnan
sI9
Fnan
sI10
Fnan
sI11
Fnan
sI12
Fnan
sI13
Fnan
sI14
Fnan
ssg50
(dp399
I0
F0.025224326882330696
sI1
Fnan
sI2
Fnan
sI3
Fnan
sI4
Fnan
sI5
Fnan
sI6
Fnan
sI7
Fnan
sI8
Fnan
sI9
Fnan
sI10
Fnan
sI11
Fnan
sI12
Fnan
sI13
Fnan
sI14
Fnan
ssg52
(dp400
I0
F1.0475822666666668
sI1
Fnan
sI2
Fnan
sI3
Fnan
sI4
Fnan
sI5
Fnan
sI6
Fnan
sI7
Fnan
sI8
Fnan
sI9
Fnan
sI10
Fnan
sI11
Fnan
sI12
Fnan
sI13
Fnan
sI14
Fnan
ssg54
(dp401
I0
F1.5178044575828322
sI1
F1.5222292848959174
sI2
F1.523267911608689
sI3
F1.521070710220803
sI4
F1.5211983621141334
sI5
F1.5156979271346187
sI6
F1.5252327893422684
sI7
F1.5203216683531855
sI8
F1.5248811593275935
sI9
F1.5238973983547222
sI10
F1.5198949680166274
sI11
F1.5226878693745725
sI12
F1.523660533792532
sI13
F1.5245848416788264
sI14
F1.5185746612156092
ssg56
(dp402
I0
g370
sI1
g371
sI2
g372
sI3
g373
sI4
g374
sI5
g375
sI6
g376
sI7
g377
sI8
g378
sI9
g379
sI10
g380
sI11
g381
sI12
g382
sI13
g383
sI14
g384
ssg58
(dp403
I0
F7.262337
sI1
F7.672319
sI2
F7.849714
sI3
F8.081888
sI4
F6.733259
sI5
F8.61688
sI6
F8.516272
sI7
F8.057796
sI8
F6.95811
sI9
F6.632604
sI10
F7.064189
sI11
F7.707916
sI12
F8.721015
sI13
F8.552579
sI14
F6.740249
ssg60
(dp404
I0
F11.114933333333335
sI1
Fnan
sI2
Fnan
sI3
Fnan
sI4
Fnan
sI5
Fnan
sI6
Fnan
sI7
Fnan
sI8
Fnan
sI9
Fnan
sI10
Fnan
sI11
Fnan
sI12
Fnan
sI13
Fnan
sI14
Fnan
ssg62
(dp405
I0
F0.7137614907721594
sI1
Fnan
sI2
Fnan
sI3
Fnan
sI4
Fnan
sI5
Fnan
sI6
Fnan
sI7
Fnan
sI8
Fnan
sI9
Fnan
sI10
Fnan
sI11
Fnan
sI12
Fnan
sI13
Fnan
sI14
Fnan
ssg64
(dp406
I0
F3.67873
sI1
F-1.886572
sI2
F2.233718
sI3
F-1.962847
sI4
F3.547773
sI5
F3.966703
sI6
F3.898697
sI7
F-2.456296
sI8
F-2.423195
sI9
F-0.5716417
sI10
F-2.327276
sI11
F2.342534
sI12
F3.697445
sI13
F2.208175
sI14
F-1.4406
ssg66
(dp407
I0
F11.493466666666666
sI1
Fnan
sI2
Fnan
sI3
Fnan
sI4
Fnan
sI5
Fnan
sI6
Fnan
sI7
Fnan
sI8
Fnan
sI9
Fnan
sI10
Fnan
sI11
Fnan
sI12
Fnan
sI13
Fnan
sI14
Fnan
ssg68
(dp408
I0
g370
sI1
g371
sI2
g372
sI3
g373
sI4
g374
sI5
g375
sI6
g376
sI7
g377
sI8
g378
sI9
g379
sI10
g380
sI11
g381
sI12
g382
sI13
g383
sI14
g384
ssg70
(dp409
I0
F6529.8966666666665
sI1
F6413.62
sI2
F6128.593333333333
sI3
F6400.320000000001
sI4
F6419.63
sI5
F6164.363333333333
sI6
F6111.956666666667
sI7
F6401.846666666666
sI8
F6282.96
sI9
F6377.22
sI10
F6560.836666666667
sI11
F6373.66
sI12
F6155.953333333334
sI13
F6438.183333333333
sI14
F6480.033333333334
ssg72
(dp410
I0
F1.042273
sI1
F1.068152
sI2
F1.072185
sI3
F1.069477
sI4
F1.066845
sI5
F1.021562
sI6
F1.020299
sI7
F1.03938
sI8
F1.019085
sI9
F1.019685
sI10
F1.041292
sI11
F1.070832
sI12
F1.020923
sI13
F1.040331
sI14
F1.038447
ssg74
(dp411
I0
F5618.84
sI1
F5532.333333333333
sI2
F5309.333333333333
sI3
F5485.373333333334
sI4
F5521.78
sI5
F5292.5633333333335
sI6
F5292.846666666666
sI7
F5542.546666666666
sI8
F5390.933333333333
sI9
F5497.573333333334
sI10
F5674.166666666667
sI11
F5515.806666666667
sI12
F5328.783333333334
sI13
F5584.740000000001
sI14
F5568.1900000000005
ssg76
(dp412
I0
F9219.703333333333
sI1
F9092.24
sI2
F8711.513333333332
sI3
F9039.49
sI4
F9082.626666666667
sI5
F8682.62
sI6
F8697.49
sI7
F9079.66
sI8
F8900.65
sI9
F9047.983333333334
sI10
F9297.96
sI11
F9051.973333333333
sI12
F8749.42
sI13
F9164.983333333334
sI14
F9148.063333333334
ssg78
(dp413
I0
F6.661237
sI1
F7.411061
sI2
F7.430331
sI3
F6.8456
sI4
F6.460094
sI5
F7.613229
sI6
F6.947926
sI7
F6.967268
sI8
F7.615906
sI9
F6.766188
sI10
F6.503697
sI11
F6.806323
sI12
F7.244434
sI13
F6.451041
sI14
F6.967596
ssg80
(dp414
I0
F11.626
sI1
F11.643
sI2
F11.687
sI3
F11.652
sI4
F11.645
sI5
F11.691
sI6
F11.691
sI7
F11.641
sI8
F11.671
sI9
F11.65
sI10
F11.615
sI11
F11.646
sI12
F11.683
sI13
F11.632
sI14
F11.636
ssg82
(dp415
I0
F0.002
sI1
F0.002
sI2
F0.002
sI3
F0.002
sI4
F0.002
sI5
F0.002
sI6
F0.002
sI7
F0.002
sI8
F0.002
sI9
F0.002
sI10
F0.002
sI11
F0.002
sI12
F0.002
sI13
F0.002
sI14
F0.002
ssg84
(dp416
I0
F0.8636249431586426
sI1
Fnan
sI2
Fnan
sI3
Fnan
sI4
Fnan
sI5
Fnan
sI6
Fnan
sI7
Fnan
sI8
Fnan
sI9
Fnan
sI10
Fnan
sI11
Fnan
sI12
Fnan
sI13
Fnan
sI14
Fnan
ssg86
(dp417
I0
F11.653933333333333
sI1
Fnan
sI2
Fnan
sI3
Fnan
sI4
Fnan
sI5
Fnan
sI6
Fnan
sI7
Fnan
sI8
Fnan
sI9
Fnan
sI10
Fnan
sI11
Fnan
sI12
Fnan
sI13
Fnan
sI14
Fnan
ssg88
(dp418
I0
F11.463
sI1
F11.482
sI2
F11.532
sI3
F11.484
sI4
F11.481
sI5
F11.525
sI6
F11.535
sI7
F11.484
sI8
F11.505
sI9
F11.488
sI10
F11.458
sI11
F11.489
sI12
F11.527
sI13
F11.478
sI14
F11.471
ssg90
(dp419
I0
F3.125024
sI1
F4.148252
sI2
F3.104521
sI3
F3.725679
sI4
F3.61489
sI5
F-3.16399
sI6
F-2.326564
sI7
F2.19413
sI8
F2.811884
sI9
F0.8073362
sI10
F-3.208504
sI11
F3.340762
sI12
F3.172062
sI13
F-2.237134
sI14
F2.505139
ssg92
(dp420
I0
F0.024323611887178537
sI1
Fnan
sI2
Fnan
sI3
Fnan
sI4
Fnan
sI5
Fnan
sI6
Fnan
sI7
Fnan
sI8
Fnan
sI9
Fnan
sI10
Fnan
sI11
Fnan
sI12
Fnan
sI13
Fnan
sI14
Fnan
ssg94
(dp421
I0
F0.7135216132473207
sI1
F0.7135796832079399
sI2
F0.715538432787545
sI3
F0.7105493310258784
sI4
F0.7123840249494857
sI5
F0.7129479725960044
sI6
F0.714793305354195
sI7
F0.7160216102997726
sI8
F0.7100990256379521
sI9
F0.7128040019353608
sI10
F0.7155860291207468
sI11
F0.7151481624741503
sI12
F0.7150150773367636
sI13
F0.7158469968702934
sI14
F0.712587094738984
ssg96
(dp422
I0
F30.0
sI1
F30.0
sI2
F30.0
sI3
F30.0
sI4
F30.0
sI5
F30.0
sI6
F30.0
sI7
F30.0
sI8
F30.0
sI9
F30.0
sI10
F30.0
sI11
F30.0
sI12
F30.0
sI13
F30.0
sI14
F30.0
ssg98
(dp423
I0
F0.003
sI1
F0.003
sI2
F0.003
sI3
F0.003
sI4
F0.003
sI5
F0.003
sI6
F0.003
sI7
F0.003
sI8
F0.003
sI9
F0.003
sI10
F0.003
sI11
F0.003
sI12
F0.003
sI13
F0.003
sI14
F0.003
ssg100
(dp424
I0
F0.002
sI1
F0.002
sI2
F0.002
sI3
F0.002
sI4
F0.002
sI5
F0.002
sI6
F0.002
sI7
F0.002
sI8
F0.002
sI9
F0.002
sI10
F0.002
sI11
F0.002
sI12
F0.002
sI13
F0.002
sI14
F0.002
ssg102
(dp425
I0
F2.800063
sI1
F-1.868649
sI2
F3.663055
sI3
F-3.824884
sI4
F2.4066
sI5
F4.208966
sI6
F3.267078
sI7
F1.824858
sI8
F2.997089
sI9
F-3.123208
sI10
F2.705578
sI11
F-2.309973
sI12
F2.542645
sI13
F-2.183614
sI14
F2.60813
ssg104
(dp426
I0
S"KIC8462852-20180808at051310_-25-1X1-030-g'_cal.fts.mag.1"
p427
sI1
S"KIC8462852-20180808at044925_-25-1X1-030-g'_cal.fts.mag.1"
p428
sI2
S"KIC8462852-20180808at044603_-25-1X1-030-g'_cal.fts.mag.1"
p429
sI3
S"KIC8462852-20180808at044820_-25-1X1-030-g'_cal.fts.mag.1"
p430
sI4
S"KIC8462852-20180808at045028_-25-1X1-030-g'_cal.fts.mag.1"
p431
sI5
S"KIC8462852-20180808at054004_-25-1X1-030-g'_cal.fts.mag.1"
p432
sI6
S"KIC8462852-20180808at054216_-25-1X1-030-g'_cal.fts.mag.1"
p433
sI7
S"KIC8462852-20180808at051626_-25-1X1-030-g'_cal.fts.mag.1"
p434
sI8
S"KIC8462852-20180808at054423_-25-1X1-030-g'_cal.fts.mag.1"
p435
sI9
S"KIC8462852-20180808at054319_-25-1X1-030-g'_cal.fts.mag.1"
p436
sI10
S"KIC8462852-20180808at051420_-25-1X1-030-g'_cal.fts.mag.1"
p437
sI11
S"KIC8462852-20180808at044717_-25-1X1-030-g'_cal.fts.mag.1"
p438
sI12
S"KIC8462852-20180808at054113_-25-1X1-030-g'_cal.fts.mag.1"
p439
sI13
S"KIC8462852-20180808at051523_-25-1X1-030-g'_cal.fts.mag.1"
p440
sI14
S"KIC8462852-20180808at051729_-25-1X1-030-g'_cal.fts.mag.1"
p441
ssg121
(dp442
I0
F0.0028039055127751177
sI1
Fnan
sI2
Fnan
sI3
Fnan
sI4
Fnan
sI5
Fnan
sI6
Fnan
sI7
Fnan
sI8
Fnan
sI9
Fnan
sI10
Fnan
sI11
Fnan
sI12
Fnan
sI13
Fnan
sI14
Fnan
ssg123
(dp443
I0
F6180.8533333333335
sI1
F6065.506666666667
sI2
F5789.876666666666
sI3
F6030.983333333334
sI4
F6026.983333333334
sI5
F5785.42
sI6
F5782.303333333333
sI7
F6044.536666666667
sI8
F5919.65
sI9
F6022.89
sI10
F6204.473333333333
sI11
F6053.653333333334
sI12
F5818.696666666667
sI13
F6082.296666666666
sI14
F6114.85
ssg125
(dp444
I0
F0.02467638161327172
sI1
Fnan
sI2
Fnan
sI3
Fnan
sI4
Fnan
sI5
Fnan
sI6
Fnan
sI7
Fnan
sI8
Fnan
sI9
Fnan
sI10
Fnan
sI11
Fnan
sI12
Fnan
sI13
Fnan
sI14
Fnan
ssg127
(dp445
I0
S"g'"
p446
sI1
S"g'"
p447
sI2
S"g'"
p448
sI3
S"g'"
p449
sI4
S"g'"
p450
sI5
S"g'"
p451
sI6
S"g'"
p452
sI7
S"g'"
p453
sI8
S"g'"
p454
sI9
S"g'"
p455
sI10
S"g'"
p456
sI11
S"g'"
p457
sI12
S"g'"
p458
sI13
S"g'"
p459
sI14
S"g'"
p460
ssg144
(dp461
I0
F0.0021437553080715746
sI1
Fnan
sI2
Fnan
sI3
Fnan
sI4
Fnan
sI5
Fnan
sI6
Fnan
sI7
Fnan
sI8
Fnan
sI9
Fnan
sI10
Fnan
sI11
Fnan
sI12
Fnan
sI13
Fnan
sI14
Fnan
ssg146
(dp462
I0
F-3.902425
sI1
F2.899561
sI2
F-2.844212
sI3
F-0.2708852
sI4
F4.045452
sI5
F2.876688
sI6
F2.591034
sI7
F2.204013
sI8
F3.663662
sI9
F3.156447
sI10
F-3.434697
sI11
F3.419098
sI12
F1.85758
sI13
F-3.28037
sI14
F2.682897
ssg148
(dp463
I0
F1.5216669695341953
sI1
Fnan
sI2
Fnan
sI3
Fnan
sI4
Fnan
sI5
Fnan
sI6
Fnan
sI7
Fnan
sI8
Fnan
sI9
Fnan
sI10
Fnan
sI11
Fnan
sI12
Fnan
sI13
Fnan
sI14
Fnan
ssg150
(dp464
I0
F2458338.7190162037
sI1
Fnan
sI2
Fnan
sI3
Fnan
sI4
Fnan
sI5
Fnan
sI6
Fnan
sI7
Fnan
sI8
Fnan
sI9
Fnan
sI10
Fnan
sI11
Fnan
sI12
Fnan
sI13
Fnan
sI14
Fnan
ssg152
(dp465
I0
F0.0021437553080715746
sI1
Fnan
sI2
Fnan
sI3
Fnan
sI4
Fnan
sI5
Fnan
sI6
Fnan
sI7
Fnan
sI8
Fnan
sI9
Fnan
sI10
Fnan
sI11
Fnan
sI12
Fnan
sI13
Fnan
sI14
Fnan
ssg154
(dp466
I0
F8.212653
sI1
F7.96005
sI2
F8.476044
sI3
F8.339952
sI4
F7.878104
sI5
F10.71893
sI6
F10.71169
sI7
F8.99805
sI8
F9.392229
sI9
F8.332177
sI10
F8.22314
sI11
F7.896688
sI12
F9.643331
sI13
F8.927376
sI14
F8.479172
ssg156
(dp467
I0
F11.088
sI1
F11.103
sI2
F11.15
sI3
F11.11
sI4
F11.104
sI5
F11.153
sI6
F11.152
sI7
F11.105
sI8
F11.126
sI9
F11.109
sI10
F11.079
sI11
F11.108
sI12
F11.145
sI13
F11.095
sI14
F11.097
ssg158
(dp468
I0
F0.8636249431586426
sI1
Fnan
sI2
Fnan
sI3
Fnan
sI4
Fnan
sI5
Fnan
sI6
Fnan
sI7
Fnan
sI8
Fnan
sI9
Fnan
sI10
Fnan
sI11
Fnan
sI12
Fnan
sI13
Fnan
sI14
Fnan
sssS'V'
p469
(dp470
g3
(dp471
I0
F0.6896657927896128
sI1
Fnan
sI2
Fnan
sI3
Fnan
sI4
Fnan
sI5
Fnan
sI6
Fnan
sI7
Fnan
sI8
Fnan
sI9
Fnan
sI10
Fnan
sI11
Fnan
sI12
Fnan
sI13
Fnan
sI14
Fnan
ssg5
(dp472
I0
S'NoError'
p473
sI1
S'NoError'
p474
sI2
S'NoError'
p475
sI3
S'NoError'
p476
sI4
S'NoError'
p477
sI5
S'NoError'
p478
sI6
S'NoError'
p479
sI7
S'NoError'
p480
sI8
S'NoError'
p481
sI9
S'NoError'
p482
sI10
S'NoError'
p483
sI11
S'NoError'
p484
sI12
S'NoError'
p485
sI13
S'NoError'
p486
sI14
S'NoError'
p487
ssg22
(dp488
I0
F0.002
sI1
F0.002
sI2
F0.002
sI3
F0.002
sI4
F0.002
sI5
F0.002
sI6
F0.002
sI7
F0.002
sI8
F0.002
sI9
F0.002
sI10
F0.002
sI11
F0.002
sI12
F0.002
sI13
F0.002
sI14
F0.002
ssg24
(dp489
I0
F0.8888290914689903
sI1
F0.8849905779855689
sI2
F0.880813633945067
sI3
F0.8862806305489199
sI4
F0.885852212179011
sI5
F0.8858655026471945
sI6
F0.8903438456409289
sI7
F0.8846115611119727
sI8
F0.8876586334206388
sI9
F0.8805610992721611
sI10
F0.8898544297891211
sI11
F0.8838904585250575
sI12
F0.8879805060653685
sI13
F0.8811768202739659
sI14
F0.8871107489514325
ssg26
(dp490
I0
F0.00311368283727402
sI1
Fnan
sI2
Fnan
sI3
Fnan
sI4
Fnan
sI5
Fnan
sI6
Fnan
sI7
Fnan
sI8
Fnan
sI9
Fnan
sI10
Fnan
sI11
Fnan
sI12
Fnan
sI13
Fnan
sI14
Fnan
ssg28
(dp491
I0
F0.8857213167883597
sI1
Fnan
sI2
Fnan
sI3
Fnan
sI4
Fnan
sI5
Fnan
sI6
Fnan
sI7
Fnan
sI8
Fnan
sI9
Fnan
sI10
Fnan
sI11
Fnan
sI12
Fnan
sI13
Fnan
sI14
Fnan
ssg30
(dp492
I0
F11.543
sI1
F11.542
sI2
F11.543
sI3
F11.545
sI4
F11.537
sI5
F11.519
sI6
F11.542
sI7
F11.538
sI8
F11.543
sI9
F11.557
sI10
F11.537
sI11
F11.539
sI12
F11.527
sI13
F11.528
sI14
F11.556
ssg32
(dp493
I0
F8.376396
sI1
F7.601509
sI2
F7.711782
sI3
F8.272766
sI4
F7.401521
sI5
F7.162657
sI6
F7.211644
sI7
F7.911575
sI8
F7.482121
sI9
F8.743545
sI10
F7.593236
sI11
F7.79388
sI12
F6.425755
sI13
F7.526766
sI14
F8.393596
ssg34
(dp494
I0
F2458338.7338657407
sI1
F2458338.7517939815
sI2
F2458338.754027778
sI3
F2458338.733113426
sI4
F2458338.7345949076
sI5
F2458338.716655093
sI6
F2458338.7525347224
sI7
F2458338.715902778
sI8
F2458338.753287037
sI9
F2458338.735335648
sI10
F2458338.713634259
sI11
F2458338.714375
sI12
F2458338.7510416666
sI13
F2458338.7323611113
sI14
F2458338.715150463
ssg36
(dp495
I0
F0.09956366666666662
sI1
Fnan
sI2
Fnan
sI3
Fnan
sI4
Fnan
sI5
Fnan
sI6
Fnan
sI7
Fnan
sI8
Fnan
sI9
Fnan
sI10
Fnan
sI11
Fnan
sI12
Fnan
sI13
Fnan
sI14
Fnan
ssg38
(dp496
I0
F1.4813671333333334
sI1
Fnan
sI2
Fnan
sI3
Fnan
sI4
Fnan
sI5
Fnan
sI6
Fnan
sI7
Fnan
sI8
Fnan
sI9
Fnan
sI10
Fnan
sI11
Fnan
sI12
Fnan
sI13
Fnan
sI14
Fnan
ssg40
(dp497
I0
F0.686017757184394
sI1
F0.6899453401882158
sI2
F0.6916527550354105
sI3
F0.689907857854614
sI4
F0.6895366615893791
sI5
F0.6949284028712058
sI6
F0.6917861881450702
sI7
F0.6872159580434041
sI8
F0.6910900988477952
sI9
F0.6897404278640209
sI10
F0.6866589791931307
sI11
F0.6884448535566536
sI12
F0.6910583034228641
sI13
F0.687704153578147
sI14
F0.6909137289462625
ssg42
(dp498
I0
F0.0016292872554743087
sI1
Fnan
sI2
Fnan
sI3
Fnan
sI4
Fnan
sI5
Fnan
sI6
Fnan
sI7
Fnan
sI8
Fnan
sI9
Fnan
sI10
Fnan
sI11
Fnan
sI12
Fnan
sI13
Fnan
sI14
Fnan
ssg44
(dp499
I0
F0.7091012666666666
sI1
Fnan
sI2
Fnan
sI3
Fnan
sI4
Fnan
sI5
Fnan
sI6
Fnan
sI7
Fnan
sI8
Fnan
sI9
Fnan
sI10
Fnan
sI11
Fnan
sI12
Fnan
sI13
Fnan
sI14
Fnan
ssg46
(dp500
I0
g473
sI1
g474
sI2
g475
sI3
g476
sI4
g477
sI5
g478
sI6
g479
sI7
g480
sI8
g481
sI9
g482
sI10
g483
sI11
g484
sI12
g485
sI13
g486
sI14
g487
ssg48
(dp501
I0
F0.0022141317566869417
sI1
Fnan
sI2
Fnan
sI3
Fnan
sI4
Fnan
sI5
Fnan
sI6
Fnan
sI7
Fnan
sI8
Fnan
sI9
Fnan
sI10
Fnan
sI11
Fnan
sI12
Fnan
sI13
Fnan
sI14
Fnan
ssg50
(dp502
I0
F0.01041884739078091
sI1
Fnan
sI2
Fnan
sI3
Fnan
sI4
Fnan
sI5
Fnan
sI6
Fnan
sI7
Fnan
sI8
Fnan
sI9
Fnan
sI10
Fnan
sI11
Fnan
sI12
Fnan
sI13
Fnan
sI14
Fnan
ssg52
(dp503
I0
F0.5551351999999999
sI1
Fnan
sI2
Fnan
sI3
Fnan
sI4
Fnan
sI5
Fnan
sI6
Fnan
sI7
Fnan
sI8
Fnan
sI9
Fnan
sI10
Fnan
sI11
Fnan
sI12
Fnan
sI13
Fnan
sI14
Fnan
ssg54
(dp504
I0
F1.506381166869018
sI1
F1.5086474939305143
sI2
F1.5080902824333395
sI3
F1.5103628330164736
sI4
F1.5131586818515637
sI5
F1.5017442178573117
sI6
F1.4963315904780987
sI7
F1.5124908690225523
sI8
F1.5059797444729703
sI9
F1.5106280567581378
sI10
F1.5006024476462043
sI11
F1.5117396752340235
sI12
F1.503167701876929
sI13
F1.5139431570791753
sI14
F1.5044308312164416
ssg56
(dp505
I0
g473
sI1
g474
sI2
g475
sI3
g476
sI4
g477
sI5
g478
sI6
g479
sI7
g480
sI8
g481
sI9
g482
sI10
g483
sI11
g484
sI12
g485
sI13
g486
sI14
g487
ssg58
(dp506
I0
F8.765681
sI1
F8.264172
sI2
F8.711145
sI3
F8.109532
sI4
F9.205871
sI5
F8.77236
sI6
F8.703717
sI7
F9.154427
sI8
F8.644042
sI9
F10.3673
sI10
F8.564926
sI11
F9.488338
sI12
F7.665681
sI13
F9.561131
sI14
F10.27619
ssg60
(dp507
I0
F10.860666666666669
sI1
Fnan
sI2
Fnan
sI3
Fnan
sI4
Fnan
sI5
Fnan
sI6
Fnan
sI7
Fnan
sI8
Fnan
sI9
Fnan
sI10
Fnan
sI11
Fnan
sI12
Fnan
sI13
Fnan
sI14
Fnan
ssg62
(dp508
I0
F0.7149151193407964
sI1
Fnan
sI2
Fnan
sI3
Fnan
sI4
Fnan
sI5
Fnan
sI6
Fnan
sI7
Fnan
sI8
Fnan
sI9
Fnan
sI10
Fnan
sI11
Fnan
sI12
Fnan
sI13
Fnan
sI14
Fnan
ssg64
(dp509
I0
F3.470309
sI1
F4.371881
sI2
F-2.795091
sI3
F-2.474961
sI4
F3.012976
sI5
F3.75101
sI6
F2.640666
sI7
F2.87263
sI8
F2.620982
sI9
F3.614868
sI10
F4.755501
sI11
F-2.699061
sI12
F-1.54864
sI13
F3.190048
sI14
F-2.562611
ssg66
(dp510
I0
F11.226133333333333
sI1
Fnan
sI2
Fnan
sI3
Fnan
sI4
Fnan
sI5
Fnan
sI6
Fnan
sI7
Fnan
sI8
Fnan
sI9
Fnan
sI10
Fnan
sI11
Fnan
sI12
Fnan
sI13
Fnan
sI14
Fnan
ssg68
(dp511
I0
g473
sI1
g474
sI2
g475
sI3
g476
sI4
g477
sI5
g478
sI6
g479
sI7
g480
sI8
g481
sI9
g482
sI10
g483
sI11
g484
sI12
g485
sI13
g486
sI14
g487
ssg70
(dp512
I0
F8158.6866666666665
sI1
F8096.59
sI2
F8039.723333333333
sI3
F8086.056666666667
sI4
F8142.38
sI5
F8218.556666666667
sI6
F8107.276666666667
sI7
F8156.9766666666665
sI8
F8092.0233333333335
sI9
F7963.3
sI10
F8200.643333333333
sI11
F8128.713333333333
sI12
F8213.87
sI13
F8207.003333333334
sI14
F7998.076666666666
ssg72
(dp513
I0
F1.023716
sI1
F1.010672
sI2
F1.009562
sI3
F1.024419
sI4
F1.0230299999999999
sI5
F1.043475
sI6
F1.01029
sI7
F1.04451
sI8
F1.0099200000000002
sI9
F1.022351
sI10
F1.0477299999999998
sI11
F1.046627
sI12
F1.0110649999999999
sI13
F1.025142
sI14
F1.045564
ssg74
(dp514
I0
F6966.29
sI1
F6948.616666666667
sI2
F6951.306666666667
sI3
F6917.08
sI4
F6958.296666666666
sI5
F7072.92
sI6
F6947.84
sI7
F6988.3533333333335
sI8
F6924.783333333334
sI9
F6877.45
sI10
F7015.0633333333335
sI11
F6975.906666666667
sI12
F7037.46
sI13
F7066.08
sI14
F6857.3
ssg76
(dp515
I0
F11391.99
sI1
F11348.956666666667
sI2
F11303.913333333334
sI3
F11330.09
sI4
F11424.859999999999
sI5
F11481.943333333333
sI6
F11263.723333333333
sI7
F11453.586666666666
sI8
F11307.503333333332
sI9
F11209.426666666666
sI10
F11416.363333333335
sI11
F11417.126666666667
sI12
F11462.653333333332
sI13
F11561.29
sI14
F11174.443333333333
ssg78
(dp516
I0
F8.354936
sI1
F8.077862
sI2
F8.044755
sI3
F9.875532
sI4
F7.892372
sI5
F7.10895
sI6
F7.243845
sI7
F7.945971
sI8
F8.219128
sI9
F8.89488
sI10
F7.256635
sI11
F9.13181
sI12
F7.38119
sI13
F7.948482
sI14
F9.548463
ssg80
(dp517
I0
F11.392
sI1
F11.395
sI2
F11.395
sI3
F11.4
sI4
F11.394
sI5
F11.376
sI6
F11.395
sI7
F11.389
sI8
F11.399
sI9
F11.406
sI10
F11.385
sI11
F11.391
sI12
F11.381
sI13
F11.377
sI14
F11.41
ssg82
(dp518
I0
F0.002
sI1
F0.002
sI2
F0.002
sI3
F0.002
sI4
F0.002
sI5
F0.002
sI6
F0.002
sI7
F0.002
sI8
F0.002
sI9
F0.002
sI10
F0.002
sI11
F0.002
sI12
F0.002
sI13
F0.002
sI14
F0.002
ssg84
(dp519
I0
F0.6897734310880378
sI1
Fnan
sI2
Fnan
sI3
Fnan
sI4
Fnan
sI5
Fnan
sI6
Fnan
sI7
Fnan
sI8
Fnan
sI9
Fnan
sI10
Fnan
sI11
Fnan
sI12
Fnan
sI13
Fnan
sI14
Fnan
ssg86
(dp520
I0
F11.392333333333335
sI1
Fnan
sI2
Fnan
sI3
Fnan
sI4
Fnan
sI5
Fnan
sI6
Fnan
sI7
Fnan
sI8
Fnan
sI9
Fnan
sI10
Fnan
sI11
Fnan
sI12
Fnan
sI13
Fnan
sI14
Fnan
ssg88
(dp521
I0
F11.221
sI1
F11.229
sI2
F11.237
sI3
F11.231
sI4
F11.223
sI5
F11.213
sI6
F11.228
sI7
F11.221
sI8
F11.23
sI9
F11.247
sI10
F11.215
sI11
F11.225
sI12
F11.214
sI13
F11.215
sI14
F11.243
ssg90
(dp522
I0
F-1.622844
sI1
F-2.420955
sI2
F-2.632143
sI3
F3.092859
sI4
F-2.886575
sI5
F-2.909155
sI6
F-2.626607
sI7
F1.223492
sI8
F2.11465
sI9
F4.182484
sI10
F-3.052273
sI11
F4.345103
sI12
F3.30089
sI13
F-1.709058
sI14
F3.093587
ssg92
(dp523
I0
F0.01017466508165298
sI1
Fnan
sI2
Fnan
sI3
Fnan
sI4
Fnan
sI5
Fnan
sI6
Fnan
sI7
Fnan
sI8
Fnan
sI9
Fnan
sI10
Fnan
sI11
Fnan
sI12
Fnan
sI13
Fnan
sI14
Fnan
ssg94
(dp524
I0
F0.7126392726730857
sI1
F0.714674345317111
sI2
F0.7187176627076847
sI3
F0.7125080087981756
sI4
F0.7112190239059435
sI5
F0.7180447196771655
sI6
F0.7173444840225078
sI7
F0.7127131653025777
sI8
F0.7139126074897361
sI9
F0.7174201269928917
sI10
F0.7152022173957222
sI11
F0.7137996286336803
sI12
F0.7153153919298414
sI13
F0.7148902417473907
sI14
F0.7153258935184317
ssg96
(dp525
I0
F30.0
sI1
F30.0
sI2
F30.0
sI3
F30.0
sI4
F30.0
sI5
F30.0
sI6
F30.0
sI7
F30.0
sI8
F30.0
sI9
F30.0
sI10
F30.0
sI11
F30.0
sI12
F30.0
sI13
F30.0
sI14
F30.0
ssg98
(dp526
I0
F0.002
sI1
F0.002
sI2
F0.002
sI3
F0.002
sI4
F0.002
sI5
F0.002
sI6
F0.002
sI7
F0.002
sI8
F0.002
sI9
F0.002
sI10
F0.002
sI11
F0.002
sI12
F0.002
sI13
F0.002
sI14
F0.002
ssg100
(dp527
I0
F0.002
sI1
F0.002
sI2
F0.002
sI3
F0.002
sI4
F0.002
sI5
F0.002
sI6
F0.002
sI7
F0.002
sI8
F0.002
sI9
F0.002
sI10
F0.002
sI11
F0.002
sI12
F0.002
sI13
F0.002
sI14
F0.002
ssg102
(dp528
I0
F-1.963758
sI1
F2.990723
sI2
F1.779491
sI3
F3.701513
sI4
F-3.295938
sI5
F-1.537181
sI6
F-2.483943
sI7
F3.309236
sI8
F3.140301
sI9
F1.054796
sI10
F3.27269
sI11
F-4.489467
sI12
F4.123389
sI13
F-3.592877
sI14
F2.318053
ssg104
(dp529
I0
S'KIC8462852-20180808at053646_-25-1X1-030-V_cal.fts.mag.1'
p530
sI1
S'KIC8462852-20180808at060235_-25-1X1-030-V_cal.fts.mag.1'
p531
sI2
S'KIC8462852-20180808at060548_-25-1X1-030-V_cal.fts.mag.1'
p532
sI3
S'KIC8462852-20180808at053541_-25-1X1-030-V_cal.fts.mag.1'
p533
sI4
S'KIC8462852-20180808at053749_-25-1X1-030-V_cal.fts.mag.1'
p534
sI5
S'KIC8462852-20180808at051159_-25-1X1-030-V_cal.fts.mag.1'
p535
sI6
S'KIC8462852-20180808at060339_-25-1X1-030-V_cal.fts.mag.1'
p536
sI7
S'KIC8462852-20180808at051054_-25-1X1-030-V_cal.fts.mag.1'
p537
sI8
S'KIC8462852-20180808at060444_-25-1X1-030-V_cal.fts.mag.1'
p538
sI9
S'KIC8462852-20180808at053853_-25-1X1-030-V_cal.fts.mag.1'
p539
sI10
S'KIC8462852-20180808at050731_-25-1X1-030-V_cal.fts.mag.1'
p540
sI11
S'KIC8462852-20180808at050842_-25-1X1-030-V_cal.fts.mag.1'
p541
sI12
S'KIC8462852-20180808at060123_-25-1X1-030-V_cal.fts.mag.1'
p542
sI13
S'KIC8462852-20180808at053429_-25-1X1-030-V_cal.fts.mag.1'
p543
sI14
S'KIC8462852-20180808at050949_-25-1X1-030-V_cal.fts.mag.1'
p544
ssg121
(dp545
I0
F0.00515279187006906
sI1
Fnan
sI2
Fnan
sI3
Fnan
sI4
Fnan
sI5
Fnan
sI6
Fnan
sI7
Fnan
sI8
Fnan
sI9
Fnan
sI10
Fnan
sI11
Fnan
sI12
Fnan
sI13
Fnan
sI14
Fnan
ssg123
(dp546
I0
F6063.703333333334
sI1
F6070.176666666666
sI2
F6062.323333333334
sI3
F6055.833333333333
sI4
F6096.776666666667
sI5
F6201.87
sI6
F6069.003333333333
sI7
F6093.066666666667
sI8
F6064.156666666667
sI9
F5989.286666666667
sI10
F6095.716666666666
sI11
F6086.253333333333
sI12
F6153.64
sI13
F6151.37
sI14
F5994.786666666667
ssg125
(dp547
I0
F0.00972233560024597
sI1
Fnan
sI2
Fnan
sI3
Fnan
sI4
Fnan
sI5
Fnan
sI6
Fnan
sI7
Fnan
sI8
Fnan
sI9
Fnan
sI10
Fnan
sI11
Fnan
sI12
Fnan
sI13
Fnan
sI14
Fnan
ssg127
(dp548
I0
g469
sI1
g469
sI2
g469
sI3
g469
sI4
g469
sI5
g469
sI6
g469
sI7
g469
sI8
g469
sI9
g469
sI10
g469
sI11
g469
sI12
g469
sI13
g469
sI14
g469
ssg144
(dp549
I0
F0.002319774297666149
sI1
Fnan
sI2
Fnan
sI3
Fnan
sI4
Fnan
sI5
Fnan
sI6
Fnan
sI7
Fnan
sI8
Fnan
sI9
Fnan
sI10
Fnan
sI11
Fnan
sI12
Fnan
sI13
Fnan
sI14
Fnan
ssg146
(dp550
I0
F1.959451
sI1
F-2.467101
sI2
F3.005003
sI3
F1.966228
sI4
F3.128655
sI5
F-2.942764
sI6
F-1.529669
sI7
F-3.144037
sI8
F3.19188
sI9
F-3.257174
sI10
F3.340889
sI11
F1.95529
sI12
F3.947901
sI13
F-2.078977
sI14
F3.560944
ssg148
(dp551
I0
F1.507179916649517
sI1
Fnan
sI2
Fnan
sI3
Fnan
sI4
Fnan
sI5
Fnan
sI6
Fnan
sI7
Fnan
sI8
Fnan
sI9
Fnan
sI10
Fnan
sI11
Fnan
sI12
Fnan
sI13
Fnan
sI14
Fnan
ssg150
(dp552
I0
F2458338.7338657407
sI1
Fnan
sI2
Fnan
sI3
Fnan
sI4
Fnan
sI5
Fnan
sI6
Fnan
sI7
Fnan
sI8
Fnan
sI9
Fnan
sI10
Fnan
sI11
Fnan
sI12
Fnan
sI13
Fnan
sI14
Fnan
ssg152
(dp553
I0
F0.002319774297666149
sI1
Fnan
sI2
Fnan
sI3
Fnan
sI4
Fnan
sI5
Fnan
sI6
Fnan
sI7
Fnan
sI8
Fnan
sI9
Fnan
sI10
Fnan
sI11
Fnan
sI12
Fnan
sI13
Fnan
sI14
Fnan
ssg154
(dp554
I0
F10.93181
sI1
F10.90131
sI2
F10.27739
sI3
F10.94998
sI4
F11.1
sI5
F11.12486
sI6
F11.38082
sI7
F10.62981
sI8
F10.66874
sI9
F11.37143
sI10
F11.04403
sI11
F9.494369
sI12
F9.882152
sI13
F9.993037
sI14
F11.48585
ssg156
(dp555
I0
F10.859
sI1
F10.863
sI2
F10.867
sI3
F10.864
sI4
F10.855
sI5
F10.85
sI6
F10.871
sI7
F10.853
sI8
F10.867
sI9
F10.876
sI10
F10.856
sI11
F10.856
sI12
F10.852
sI13
F10.842
sI14
F10.879
ssg158
(dp556
I0
F0.6897734310880378
sI1
Fnan
sI2
Fnan
sI3
Fnan
sI4
Fnan
sI5
Fnan
sI6
Fnan
sI7
Fnan
sI8
Fnan
sI9
Fnan
sI10
Fnan
sI11
Fnan
sI12
Fnan
sI13
Fnan
sI14
Fnan
sss.