(dp0
S'r'
p1
(dp2
S'sigmean'
p3
(dp4
I0
F0.5523556129444189
sI1
Fnan
sI2
Fnan
sI3
Fnan
sI4
Fnan
sI5
Fnan
sI6
Fnan
sI7
Fnan
ssS'ref3flag'
p5
(dp6
I0
S'NoError'
p7
sI1
S'NoError'
p8
sI2
S'NoError'
p9
sI3
S'NoError'
p10
sI4
S'NoError'
p11
sI5
S'NoError'
p12
sI6
S'NoError'
p13
sI7
S'NoError'
p14
ssS'tabbyerr'
p15
(dp16
I0
F0.002
sI1
F0.002
sI2
F0.002
sI3
F0.002
sI4
F0.002
sI5
F0.002
sI6
F0.002
sI7
F0.002
ssS'ref2rel'
p17
(dp18
I0
F0.8918873914406309
sI1
F0.8947661399934669
sI2
F0.8936310269501707
sI3
F0.8940991088149133
sI4
F0.8939027898105949
sI5
F0.8945893950881286
sI6
F0.894830455983936
sI7
F0.8918768634014195
ssS'ref2err'
p19
(dp20
I0
F0.00119643035268662
sI1
Fnan
sI2
Fnan
sI3
Fnan
sI4
Fnan
sI5
Fnan
sI6
Fnan
sI7
Fnan
ssS'ref2mean'
p21
(dp22
I0
F0.8936978964354076
sI1
Fnan
sI2
Fnan
sI3
Fnan
sI4
Fnan
sI5
Fnan
sI6
Fnan
sI7
Fnan
ssS'tabbymag'
p23
(dp24
I0
F11.162
sI1
F11.162
sI2
F11.176
sI3
F11.156
sI4
F11.248
sI5
F11.183
sI6
F11.173
sI7
F11.166
ssS'tabbybkg'
p25
(dp26
I0
F30.4101
sI1
F31.68507
sI2
F31.14644
sI3
F29.73106
sI4
F36.0155
sI5
F32.19915
sI6
F31.58095
sI7
F30.62673
ssS'JD'
p27
(dp28
I0
F2458292.797615741
sI1
F2458292.7872337964
sI2
F2458292.7890046295
sI3
F2458292.799375
sI4
F2458292.788113426
sI5
F2458292.7863425924
sI6
F2458292.7984953704
sI7
F2458292.800266204
ssS'ref3rmsmean'
p29
(dp30
I0
F1.6243214999999998
sI1
Fnan
sI2
Fnan
sI3
Fnan
sI4
Fnan
sI5
Fnan
sI6
Fnan
sI7
Fnan
ssS'ref1rmsmean'
p31
(dp32
I0
F1.4614362499999998
sI1
Fnan
sI2
Fnan
sI3
Fnan
sI4
Fnan
sI5
Fnan
sI6
Fnan
sI7
Fnan
ssS'relflux'
p33
(dp34
I0
F0.5508595353214781
sI1
F0.5518451209873034
sI2
F0.5509693883969157
sI3
F0.5535266200190316
sI4
F0.5532469888744094
sI5
F0.5528687268807674
sI6
F0.5518304588229266
sI7
F0.5536980642525193
ssS'sigerr'
p35
(dp36
I0
F0.001056380949469675
sI1
Fnan
sI2
Fnan
sI3
Fnan
sI4
Fnan
sI5
Fnan
sI6
Fnan
sI7
Fnan
ssS'tabbyrmsmean'
p37
(dp38
I0
F2.849812375
sI1
Fnan
sI2
Fnan
sI3
Fnan
sI4
Fnan
sI5
Fnan
sI6
Fnan
sI7
Fnan
ssS'tabbyflag'
p39
(dp40
I0
g7
sI1
g8
sI2
g9
sI3
g10
sI4
g11
sI5
g12
sI6
g13
sI7
g14
ssS'ref1err'
p41
(dp42
I0
F0.0014046368883435393
sI1
Fnan
sI2
Fnan
sI3
Fnan
sI4
Fnan
sI5
Fnan
sI6
Fnan
sI7
Fnan
ssS'ref2magmeanerr'
p43
(dp44
I0
F0.029937732999391745
sI1
Fnan
sI2
Fnan
sI3
Fnan
sI4
Fnan
sI5
Fnan
sI6
Fnan
sI7
Fnan
ssS'ref2rmsmean'
p45
(dp46
I0
F1.5458788749999999
sI1
Fnan
sI2
Fnan
sI3
Fnan
sI4
Fnan
sI5
Fnan
sI6
Fnan
sI7
Fnan
ssS'ref3rel'
p47
(dp48
I0
F1.4946999185493917
sI1
F1.490644713156615
sI2
F1.497278867757784
sI3
F1.4908044459977778
sI4
F1.4950877346180282
sI5
F1.4904641697640297
sI6
F1.4924577598729927
sI7
F1.4928657479637581
ssS'ref1flag'
p49
(dp50
I0
g7
sI1
g8
sI2
g9
sI3
g10
sI4
g11
sI5
g12
sI6
g13
sI7
g14
ssS'ref2bkg'
p51
(dp52
I0
F30.45393
sI1
F33.13912
sI2
F34.03967
sI3
F31.33527
sI4
F36.67415
sI5
F33.5956
sI6
F32.69576
sI7
F33.22199
ssS'ref3magmean'
p53
(dp54
I0
F10.264
sI1
Fnan
sI2
Fnan
sI3
Fnan
sI4
Fnan
sI5
Fnan
sI6
Fnan
sI7
Fnan
ssS'ref1mean'
p55
(dp56
I0
F0.7163770256967812
sI1
Fnan
sI2
Fnan
sI3
Fnan
sI4
Fnan
sI5
Fnan
sI6
Fnan
sI7
Fnan
ssS'ref1rms'
p57
(dp58
I0
F2.190368
sI1
F4.385692
sI2
F1.685579
sI3
F3.963597
sI4
F-3.849699
sI5
F-2.441777
sI6
F2.526622
sI7
F3.231108
ssS'ref2magmean'
p59
(dp60
I0
F10.616624999999999
sI1
Fnan
sI2
Fnan
sI3
Fnan
sI4
Fnan
sI5
Fnan
sI6
Fnan
sI7
Fnan
ssS'ref2flag'
p61
(dp62
I0
g7
sI1
g8
sI2
g9
sI3
g10
sI4
g11
sI5
g12
sI6
g13
sI7
g14
ssS'ref2'
p63
(dp64
I0
F14473.49111111111
sI1
F14471.813333333334
sI2
F14293.511111111111
sI3
F14499.255555555555
sI4
F13324.968888888889
sI5
F14172.393333333332
sI6
F14331.397777777778
sI7
F14344.56
ssS'airmass'
p65
(dp66
I0
F1.1324319999999999
sI1
F1.162398
sI2
F1.156996
sI3
F1.127712
sI4
F1.159671
sI5
F1.165153
sI6
F1.130077
sI7
F1.125381
ssS'ref1'
p67
(dp68
I0
F12383.957777777778
sI1
F12353.897777777778
sI2
F12174.637777777776
sI3
F12389.946666666667
sI4
F11359.953333333335
sI5
F12103.242222222223
sI6
F12218.922222222222
sI7
F12287.835555555555
ssS'ref3'
p69
(dp70
I0
F20071.913333333334
sI1
F19993.80222222222
sI2
F19815.1
sI3
F20043.27111111111
sI4
F18453.062222222223
sI5
F19581.446666666667
sI6
F19812.615555555556
sI7
F19879.295555555556
ssS'ref1bkg'
p71
(dp72
I0
F30.65556
sI1
F32.1497
sI2
F32.91157
sI3
F29.41644
sI4
F37.05449
sI5
F33.59809
sI6
F32.18782
sI7
F32.98892
ssS'ref1mag'
p73
(dp74
I0
F10.768
sI1
F10.77
sI2
F10.786
sI3
F10.767
sI4
F10.862
sI5
F10.793
sI6
F10.782
sI7
F10.776
ssS'ref3magerr'
p75
(dp76
I0
F0.001
sI1
F0.001
sI2
F0.001
sI3
F0.001
sI4
F0.001
sI5
F0.001
sI6
F0.001
sI7
F0.001
ssS'tabbymagmean'
p77
(dp78
I0
F0.5523556129444189
sI1
Fnan
sI2
Fnan
sI3
Fnan
sI4
Fnan
sI5
Fnan
sI6
Fnan
sI7
Fnan
ssS'ref1magmean'
p79
(dp80
I0
F10.788
sI1
Fnan
sI2
Fnan
sI3
Fnan
sI4
Fnan
sI5
Fnan
sI6
Fnan
sI7
Fnan
ssS'ref2mag'
p81
(dp82
I0
F10.599
sI1
F10.599
sI2
F10.612
sI3
F10.597
sI4
F10.688
sI5
F10.621
sI6
F10.609
sI7
F10.608
ssS'ref3rms'
p83
(dp84
I0
F-3.480905
sI1
F3.336486
sI2
F5.588861
sI3
F-3.374578
sI4
F6.277872
sI5
F3.987234
sI6
F-3.973586
sI7
F4.633188
ssS'ref3magmeanerr'
p85
(dp86
I0
F0.029918938101859274
sI1
Fnan
sI2
Fnan
sI3
Fnan
sI4
Fnan
sI5
Fnan
sI6
Fnan
sI7
Fnan
ssS'ref1rel'
p87
(dp88
I0
F0.7169670164200004
sI1
F0.7168824684337569
sI2
F0.7138747302326717
sI3
F0.7173735023050813
sI4
F0.7149563982496924
sI5
F0.7171475732670549
sI6
F0.7157285292114979
sI7
F0.7180859874544948
ssS'exposure'
p89
(dp90
I0
F45.0
sI1
F45.0
sI2
F45.0
sI3
F45.0
sI4
F45.0
sI5
F45.0
sI6
F45.0
sI7
F45.0
ssS'ref1magerr'
p91
(dp92
I0
F0.001
sI1
F0.001
sI2
F0.001
sI3
F0.001
sI4
F0.001
sI5
F0.001
sI6
F0.001
sI7
F0.001
ssS'ref2magerr'
p93
(dp94
I0
F0.001
sI1
F0.001
sI2
F0.001
sI3
F0.001
sI4
F0.001
sI5
F0.001
sI6
F0.001
sI7
F0.001
ssS'ref2rms'
p95
(dp96
I0
F4.54183
sI1
F4.413082
sI2
F-4.250651
sI3
F-2.53175
sI4
F4.912775
sI5
F3.083207
sI6
F4.042405
sI7
F-1.843867
ssS'name'
p97
(dp98
I0
S"KIC8462852-20180623at070832_-25-1-045-r'_cal.fts.mag.1"
p99
sI1
S"KIC8462852-20180623at065337_-25-1-045-r'_cal.fts.mag.1"
p100
sI2
S"KIC8462852-20180623at065610_-25-1-045-r'_cal.fts.mag.1"
p101
sI3
S"KIC8462852-20180623at071106_-25-1-045-r'_cal.fts.mag.1"
p102
sI4
S"KIC8462852-20180623at065453_-25-1-045-r'_cal.fts.mag.1"
p103
sI5
S"KIC8462852-20180623at065219_-25-1-045-r'_cal.fts.mag.1"
p104
sI6
S"KIC8462852-20180623at070950_-25-1-045-r'_cal.fts.mag.1"
p105
sI7
S"KIC8462852-20180623at071223_-25-1-045-r'_cal.fts.mag.1"
p106
ssS'ref3err'
p107
(dp108
I0
F0.002468541541787999
sI1
Fnan
sI2
Fnan
sI3
Fnan
sI4
Fnan
sI5
Fnan
sI6
Fnan
sI7
Fnan
ssS'tabby'
p109
(dp110
I0
F8617.162222222221
sI1
F8612.373333333333
sI2
F8500.217777777778
sI3
F8659.457777777778
sI4
F7955.320000000001
sI5
F8450.982222222223
sI6
F8528.16
sI7
F8584.477777777778
ssS'ref1magmeanerr'
p111
(dp112
I0
F0.031282126343511754
sI1
Fnan
sI2
Fnan
sI3
Fnan
sI4
Fnan
sI5
Fnan
sI6
Fnan
sI7
Fnan
ssS'filter'
p113
(dp114
I0
S"r'"
p115
sI1
S"r'"
p116
sI2
S"r'"
p117
sI3
S"r'"
p118
sI4
S"r'"
p119
sI5
S"r'"
p120
sI6
S"r'"
p121
sI7
S"r'"
p122
ssS'tabbymagerr'
p123
(dp124
I0
F0.0011293187379515656
sI1
Fnan
sI2
Fnan
sI3
Fnan
sI4
Fnan
sI5
Fnan
sI6
Fnan
sI7
Fnan
ssS'tabbyrms'
p125
(dp126
I0
F2.792873
sI1
F4.542672
sI2
F3.292063
sI3
F2.573586
sI4
F4.035336
sI5
F4.68155
sI6
F3.469913
sI7
F-2.589494
ssS'ref3mean'
p127
(dp128
I0
F1.493037919710047
sI1
Fnan
sI2
Fnan
sI3
Fnan
sI4
Fnan
sI5
Fnan
sI6
Fnan
sI7
Fnan
ssS'median_JD'
p129
(dp130
I0
F2458292.793310185
sI1
Fnan
sI2
Fnan
sI3
Fnan
sI4
Fnan
sI5
Fnan
sI6
Fnan
sI7
Fnan
ssS'error'
p131
(dp132
I0
F0.0011293187379515656
sI1
Fnan
sI2
Fnan
sI3
Fnan
sI4
Fnan
sI5
Fnan
sI6
Fnan
sI7
Fnan
ssS'ref3bkg'
p133
(dp134
I0
F34.94743
sI1
F35.13332
sI2
F35.84082
sI3
F34.29057
sI4
F38.88218
sI5
F35.75671
sI6
F35.50577
sI7
F35.48437
ssS'ref3mag'
p135
(dp136
I0
F10.244
sI1
F10.248
sI2
F10.258
sI3
F10.245
sI4
F10.335
sI5
F10.27
sI6
F10.258
sI7
F10.254
ssS'mean'
p137
(dp138
I0
F0.5523556129444189
sI1
Fnan
sI2
Fnan
sI3
Fnan
sI4
Fnan
sI5
Fnan
sI6
Fnan
sI7
Fnan
sssS'z'
p139
(dp140
g3
(dp141
I0
F0.3755433925604067
sI1
Fnan
sI2
Fnan
sI3
Fnan
sI4
Fnan
sI5
Fnan
sI6
Fnan
sI7
Fnan
ssg5
(dp142
I0
S'NoError'
p143
sI1
S'NoError'
p144
sI2
S'NoError'
p145
sI3
S'NoError'
p146
sI4
S'NoError'
p147
sI5
S'NoError'
p148
sI6
S'NoError'
p149
sI7
S'NoError'
p150
ssg15
(dp151
I0
F0.006
sI1
F0.007
sI2
F0.007
sI3
F0.007
sI4
F0.007
sI5
F0.007
sI6
F0.006
sI7
F0.007
ssg17
(dp152
I0
F0.913428150952827
sI1
F0.9097119477226885
sI2
F0.9090188405769193
sI3
F0.9190997308645413
sI4
F0.912708647571727
sI5
F0.9084223618289434
sI6
F0.9135434321314098
sI7
F0.9162311559953986
ssg19
(dp153
I0
F0.003691787291485889
sI1
Fnan
sI2
Fnan
sI3
Fnan
sI4
Fnan
sI5
Fnan
sI6
Fnan
sI7
Fnan
ssg21
(dp154
I0
F0.9127705334555569
sI1
Fnan
sI2
Fnan
sI3
Fnan
sI4
Fnan
sI5
Fnan
sI6
Fnan
sI7
Fnan
ssg23
(dp155
I0
F13.258
sI1
F13.283
sI2
F13.249
sI3
F13.275
sI4
F13.25
sI5
F13.252
sI6
F13.228
sI7
F13.279
ssg25
(dp156
I0
F9.501894
sI1
F12.06799
sI2
F9.695247
sI3
F10.10369
sI4
F9.728491
sI5
F10.16756
sI6
F9.777246
sI7
F10.84437
ssg27
(dp157
I0
F2458292.802060185
sI1
F2458292.7899305555
sI2
F2458292.8038310185
sI3
F2458292.7925925925
sI4
F2458292.8011805555
sI5
F2458292.802939815
sI6
F2458292.791701389
sI7
F2458292.790810185
ssg29
(dp158
I0
F0.06961375
sI1
Fnan
sI2
Fnan
sI3
Fnan
sI4
Fnan
sI5
Fnan
sI6
Fnan
sI7
Fnan
ssg31
(dp159
I0
F2.1407715
sI1
Fnan
sI2
Fnan
sI3
Fnan
sI4
Fnan
sI5
Fnan
sI6
Fnan
sI7
Fnan
ssg33
(dp160
I0
F0.3749915329871265
sI1
F0.3727769724627488
sI2
F0.3754301060914016
sI3
F0.3746440670627603
sI4
F0.376487800576934
sI5
F0.37847351967212417
sI6
F0.38505124138758207
sI7
F0.3759997490697511
ssg35
(dp161
I0
F0.001624150854017777
sI1
Fnan
sI2
Fnan
sI3
Fnan
sI4
Fnan
sI5
Fnan
sI6
Fnan
sI7
Fnan
ssg37
(dp162
I0
F0.21718880000000002
sI1
Fnan
sI2
Fnan
sI3
Fnan
sI4
Fnan
sI5
Fnan
sI6
Fnan
sI7
Fnan
ssg39
(dp163
I0
g143
sI1
g144
sI2
g145
sI3
g146
sI4
g147
sI5
g148
sI6
g149
sI7
g150
ssg41
(dp164
I0
F0.003386798857380429
sI1
Fnan
sI2
Fnan
sI3
Fnan
sI4
Fnan
sI5
Fnan
sI6
Fnan
sI7
Fnan
ssg43
(dp165
I0
F0.0107437689582647
sI1
Fnan
sI2
Fnan
sI3
Fnan
sI4
Fnan
sI5
Fnan
sI6
Fnan
sI7
Fnan
ssg45
(dp166
I0
F1.50133635
sI1
Fnan
sI2
Fnan
sI3
Fnan
sI4
Fnan
sI5
Fnan
sI6
Fnan
sI7
Fnan
ssg47
(dp167
I0
F1.494590153240161
sI1
F1.5083734259165227
sI2
F1.5005513245499897
sI3
F1.4988009166606506
sI4
F1.509487726522095
sI5
F1.5139204667997315
sI6
F1.4970410202596323
sI7
F1.4991617210328487
ssg49
(dp168
I0
g143
sI1
g144
sI2
g145
sI3
g146
sI4
g147
sI5
g148
sI6
g149
sI7
g150
ssg51
(dp169
I0
F10.08827
sI1
F11.05293
sI2
F10.60012
sI3
F11.18962
sI4
F10.98854
sI5
F10.62649
sI6
F11.44474
sI7
F11.48983
ssg53
(dp170
I0
F11.925374999999999
sI1
Fnan
sI2
Fnan
sI3
Fnan
sI4
Fnan
sI5
Fnan
sI6
Fnan
sI7
Fnan
ssg55
(dp171
I0
F0.6940267367784052
sI1
Fnan
sI2
Fnan
sI3
Fnan
sI4
Fnan
sI5
Fnan
sI6
Fnan
sI7
Fnan
ssg57
(dp172
I0
F3.47767
sI1
F3.493461
sI2
F-2.212692
sI3
F-2.100838
sI4
F3.568745
sI5
F3.820354
sI6
F3.898015
sI7
F3.181457
ssg59
(dp173
I0
F12.2665
sI1
Fnan
sI2
Fnan
sI3
Fnan
sI4
Fnan
sI5
Fnan
sI6
Fnan
sI7
Fnan
ssg61
(dp174
I0
g143
sI1
g144
sI2
g145
sI3
g146
sI4
g147
sI5
g148
sI6
g149
sI7
g150
ssg63
(dp175
I0
F3135.1066666666666
sI1
F3072.2822222222226
sI2
F3146.9444444444443
sI3
F3102.7244444444445
sI4
F3143.1911111111112
sI5
F3109.868888888889
sI6
F3137.0533333333333
sI7
F3071.7555555555555
ssg65
(dp176
I0
F1.120776
sI1
F1.154244
sI2
F1.116314
sI3
F1.146455
sI4
F1.12303
sI5
F1.118533
sI6
F1.148998
sI7
F1.151612
ssg67
(dp177
I0
F2587.791111111111
sI1
F2529.5666666666666
sI2
F2606.8755555555554
sI3
F2530.282222222222
sI4
F2573.2
sI5
F2557.0866666666666
sI6
F2584.8888888888887
sI7
F2516.4133333333334
ssg69
(dp178
I0
F4276.693333333334
sI1
F4224.84
sI2
F4316.951111111111
sI3
F4221.377777777778
sI4
F4314.4111111111115
sI5
F4289.66
sI6
F4282.991111111111
sI7
F4188.7844444444445
ssg71
(dp179
I0
F9.305604
sI1
F11.18108
sI2
F9.607662
sI3
F10.72684
sI4
F10.63931
sI5
F9.485265
sI6
F11.14167
sI7
F10.78608
ssg73
(dp180
I0
F12.468
sI1
F12.492
sI2
F12.46
sI3
F12.492
sI4
F12.474
sI5
F12.481
sI6
F12.469
sI7
F12.498
ssg75
(dp181
I0
F0.003
sI1
F0.003
sI2
F0.003
sI3
F0.003
sI4
F0.003
sI5
F0.003
sI6
F0.003
sI7
F0.003
ssg77
(dp182
I0
F0.37673187366380356
sI1
Fnan
sI2
Fnan
sI3
Fnan
sI4
Fnan
sI5
Fnan
sI6
Fnan
sI7
Fnan
ssg79
(dp183
I0
F12.47925
sI1
Fnan
sI2
Fnan
sI3
Fnan
sI4
Fnan
sI5
Fnan
sI6
Fnan
sI7
Fnan
ssg81
(dp184
I0
F12.259
sI1
F12.281
sI2
F12.255
sI3
F12.271
sI4
F12.257
sI5
F12.268
sI6
F12.259
sI7
F12.282
ssg83
(dp185
I0
F2.587258
sI1
F2.829015
sI2
F-1.871926
sI3
F-2.319115
sI4
F2.264876
sI5
F-1.719126
sI6
F-2.657608
sI7
F1.443536
ssg85
(dp186
I0
F0.011915625995185523
sI1
Fnan
sI2
Fnan
sI3
Fnan
sI4
Fnan
sI5
Fnan
sI6
Fnan
sI7
Fnan
ssg87
(dp187
I0
F0.6982895143180095
sI1
F0.6933052755957066
sI2
F0.6985294840079042
sI3
F0.6909467250593626
sI4
F0.6900877583232738
sI5
F0.6911485055505034
sI6
F0.6967313762720797
sI7
F0.6931752551004012
ssg89
(dp188
I0
F45.0
sI1
F45.0
sI2
F45.0
sI3
F45.0
sI4
F45.0
sI5
F45.0
sI6
F45.0
sI7
F45.0
ssg91
(dp189
I0
F0.004
sI1
F0.004
sI2
F0.004
sI3
F0.004
sI4
F0.004
sI5
F0.004
sI6
F0.004
sI7
F0.004
ssg93
(dp190
I0
F0.003
sI1
F0.003
sI2
F0.003
sI3
F0.003
sI4
F0.003
sI5
F0.003
sI6
F0.003
sI7
F0.003
ssg95
(dp191
I0
F3.340535
sI1
F3.660098
sI2
F2.334936
sI3
F3.80983
sI4
F-0.6489902
sI5
F-2.75867
sI6
F4.421463
sI7
F-2.148511
ssg97
(dp192
I0
S"KIC8462852-20180623at071458_-25-1-045-z'_cal.fts.mag.1"
p193
sI1
S"KIC8462852-20180623at065728_-25-1-045-z'_cal.fts.mag.1"
p194
sI2
S"KIC8462852-20180623at071731_-25-1-045-z'_cal.fts.mag.1"
p195
sI3
S"KIC8462852-20180623at070120_-25-1-045-z'_cal.fts.mag.1"
p196
sI4
S"KIC8462852-20180623at071340_-25-1-045-z'_cal.fts.mag.1"
p197
sI5
S"KIC8462852-20180623at071614_-25-1-045-z'_cal.fts.mag.1"
p198
sI6
S"KIC8462852-20180623at070003_-25-1-045-z'_cal.fts.mag.1"
p199
sI7
S"KIC8462852-20180623at065846_-25-1-045-z'_cal.fts.mag.1"
p200
ssg107
(dp201
I0
F0.0069104399629076945
sI1
Fnan
sI2
Fnan
sI3
Fnan
sI4
Fnan
sI5
Fnan
sI6
Fnan
sI7
Fnan
ssg109
(dp202
I0
F1249.9206666666666
sI1
F1221.0544444444445
sI2
F1260.2902222222222
sI3
F1230.628888888889
sI4
F1258.8248888888888
sI5
F1256.1051111111112
sI6
F1284.1373333333333
sI7
F1225.3773333333334
ssg111
(dp203
I0
F0.013677405769056798
sI1
Fnan
sI2
Fnan
sI3
Fnan
sI4
Fnan
sI5
Fnan
sI6
Fnan
sI7
Fnan
ssg113
(dp204
I0
S"z'"
p205
sI1
S"z'"
p206
sI2
S"z'"
p207
sI3
S"z'"
p208
sI4
S"z'"
p209
sI5
S"z'"
p210
sI6
S"z'"
p211
sI7
S"z'"
p212
ssg123
(dp213
I0
F0.003733331576709911
sI1
Fnan
sI2
Fnan
sI3
Fnan
sI4
Fnan
sI5
Fnan
sI6
Fnan
sI7
Fnan
ssg125
(dp214
I0
F2.683508
sI1
F-3.258027
sI2
F2.671678
sI3
F3.591483
sI4
F-0.7638556
sI5
F-3.882538
sI6
F2.959172
sI7
F-2.26391
ssg127
(dp215
I0
F1.502740844372704
sI1
Fnan
sI2
Fnan
sI3
Fnan
sI4
Fnan
sI5
Fnan
sI6
Fnan
sI7
Fnan
ssg129
(dp216
I0
F2458292.796886574
sI1
Fnan
sI2
Fnan
sI3
Fnan
sI4
Fnan
sI5
Fnan
sI6
Fnan
sI7
Fnan
ssg131
(dp217
I0
F0.003733331576709911
sI1
Fnan
sI2
Fnan
sI3
Fnan
sI4
Fnan
sI5
Fnan
sI6
Fnan
sI7
Fnan
ssg133
(dp218
I0
F11.06337
sI1
F12.22535
sI2
F11.2175
sI3
F11.98328
sI4
F10.7894
sI5
F10.8214
sI6
F12.50694
sI7
F12.60179
ssg135
(dp219
I0
F11.922
sI1
F11.935
sI2
F11.912
sI3
F11.936
sI4
F11.913
sI5
F11.919
sI6
F11.921
sI7
F11.945
ssg137
(dp220
I0
F0.37673187366380356
sI1
Fnan
sI2
Fnan
sI3
Fnan
sI4
Fnan
sI5
Fnan
sI6
Fnan
sI7
Fnan
sssS'g'
p221
(dp222
g3
(dp223
I0
F0.8689120128318794
sI1
Fnan
sI2
Fnan
sI3
Fnan
sI4
Fnan
sI5
Fnan
sI6
Fnan
sI7
Fnan
ssg5
(dp224
I0
S'NoError'
p225
sI1
S'NoError'
p226
sI2
S'NoError'
p227
sI3
S'NoError'
p228
sI4
S'NoError'
p229
sI5
S'NoError'
p230
sI6
S'NoError'
p231
sI7
S'NoError'
p232
ssg15
(dp233
I0
F0.002
sI1
F0.002
sI2
F0.002
sI3
F0.002
sI4
F0.002
sI5
F0.002
sI6
F0.002
sI7
F0.002
ssg17
(dp234
I0
F0.8786753228753512
sI1
F0.8839251984728426
sI2
F0.8820810327657473
sI3
F0.8790160928703361
sI4
F0.8789928617162573
sI5
F0.8798350706010457
sI6
F0.8777284954228313
sI7
F0.8822477005389376
ssg19
(dp235
I0
F0.002168995264442278
sI1
Fnan
sI2
Fnan
sI3
Fnan
sI4
Fnan
sI5
Fnan
sI6
Fnan
sI7
Fnan
ssg21
(dp236
I0
F0.8803127219079186
sI1
Fnan
sI2
Fnan
sI3
Fnan
sI4
Fnan
sI5
Fnan
sI6
Fnan
sI7
Fnan
ssg23
(dp237
I0
F11.392
sI1
F11.36
sI2
F11.355
sI3
F11.362
sI4
F11.384
sI5
F11.381
sI6
F11.347
sI7
F11.356
ssg25
(dp238
I0
F38.82493
sI1
F39.45287
sI2
F35.77194
sI3
F37.69128
sI4
F37.95071
sI5
F39.58756
sI6
F35.51395
sI7
F35.54527
ssg27
(dp239
I0
F2458292.784548611
sI1
F2458292.7836689814
sI2
F2458292.7949189814
sI3
F2458292.794039352
sI4
F2458292.785439815
sI5
F2458292.782662037
sI6
F2458292.795798611
sI7
F2458292.796689815
ssg29
(dp240
I0
F0.7742249999999999
sI1
Fnan
sI2
Fnan
sI3
Fnan
sI4
Fnan
sI5
Fnan
sI6
Fnan
sI7
Fnan
ssg31
(dp241
I0
F2.47837
sI1
Fnan
sI2
Fnan
sI3
Fnan
sI4
Fnan
sI5
Fnan
sI6
Fnan
sI7
Fnan
ssg33
(dp242
I0
F0.8691536162267336
sI1
F0.8737316775828142
sI2
F0.869837098476482
sI3
F0.868658808546904
sI4
F0.8709909360833467
sI5
F0.8663112836699679
sI6
F0.8699817317188385
sI7
F0.8674506151008833
ssg35
(dp243
I0
F0.0014805387023730154
sI1
Fnan
sI2
Fnan
sI3
Fnan
sI4
Fnan
sI5
Fnan
sI6
Fnan
sI7
Fnan
ssg37
(dp244
I0
F0.90269675
sI1
Fnan
sI2
Fnan
sI3
Fnan
sI4
Fnan
sI5
Fnan
sI6
Fnan
sI7
Fnan
ssg39
(dp245
I0
g225
sI1
g226
sI2
g227
sI3
g228
sI4
g229
sI5
g230
sI6
g231
sI7
g232
ssg41
(dp246
I0
F0.002389625178820758
sI1
Fnan
sI2
Fnan
sI3
Fnan
sI4
Fnan
sI5
Fnan
sI6
Fnan
sI7
Fnan
ssg43
(dp247
I0
F0.016784346448828247
sI1
Fnan
sI2
Fnan
sI3
Fnan
sI4
Fnan
sI5
Fnan
sI6
Fnan
sI7
Fnan
ssg45
(dp248
I0
F1.5224046125
sI1
Fnan
sI2
Fnan
sI3
Fnan
sI4
Fnan
sI5
Fnan
sI6
Fnan
sI7
Fnan
ssg47
(dp249
I0
F1.5168143143114678
sI1
F1.510186806392906
sI2
F1.5059480954144764
sI3
F1.5065755607825757
sI4
F1.5104910671438943
sI5
F1.5082014400914197
sI6
F1.508617515298775
sI7
F1.506698268126788
ssg49
(dp250
I0
g225
sI1
g226
sI2
g227
sI3
g228
sI4
g229
sI5
g230
sI6
g231
sI7
g232
ssg51
(dp251
I0
F38.2183
sI1
F39.2248
sI2
F35.56466
sI3
F36.99584
sI4
F38.41972
sI5
F39.71143
sI6
F35.40741
sI7
F35.49006
ssg53
(dp252
I0
F10.938624999999998
sI1
Fnan
sI2
Fnan
sI3
Fnan
sI4
Fnan
sI5
Fnan
sI6
Fnan
sI7
Fnan
ssg55
(dp253
I0
F0.7185075598751979
sI1
Fnan
sI2
Fnan
sI3
Fnan
sI4
Fnan
sI5
Fnan
sI6
Fnan
sI7
Fnan
ssg57
(dp254
I0
F1.841101
sI1
F2.535158
sI2
F-2.763216
sI3
F3.863829
sI4
F2.148577
sI5
F4.243338
sI6
F3.149035
sI7
F4.809138
ssg59
(dp255
I0
F11.3095
sI1
Fnan
sI2
Fnan
sI3
Fnan
sI4
Fnan
sI5
Fnan
sI6
Fnan
sI7
Fnan
ssg61
(dp256
I0
g225
sI1
g226
sI2
g227
sI3
g228
sI4
g229
sI5
g230
sI6
g231
sI7
g232
ssg63
(dp257
I0
F7340.013333333332
sI1
F7552.495555555555
sI2
F7612.462222222222
sI3
F7556.757777777777
sI4
F7382.797777777779
sI5
F7447.124444444444
sI6
F7643.433333333333
sI7
F7628.115555555556
ssg65
(dp258
I0
F1.1708049999999999
sI1
F1.173638
sI2
F1.139824
sI3
F1.142319
sI4
F1.168018
sI5
F1.1766969999999999
sI6
F1.1373719999999998
sI7
F1.134929
ssg67
(dp259
I0
F6335.437777777778
sI1
F6487.233333333334
sI2
F6576.393333333333
sI3
F6559.8244444444435
sI4
F6393.684444444444
sI5
F6449.2155555555555
sI6
F6641.297777777779
sI7
F6585.011111111111
ssg69
(dp260
I0
F10371.56
sI1
F10601.306666666667
sI2
F10683.84
sI3
F10633.84888888889
sI4
F10404.626666666667
sI5
F10479.24
sI6
F10775.097777777779
sI7
F10707.446666666667
ssg71
(dp261
I0
F38.27638
sI1
F39.11101
sI2
F36.57449
sI3
F36.84927
sI4
F38.24137
sI5
F38.78789
sI6
F35.33421
sI7
F33.70464
ssg73
(dp262
I0
F11.496
sI1
F11.47
sI2
F11.455
sI3
F11.458
sI4
F11.486
sI5
F11.476
sI6
F11.444
sI7
F11.454
ssg75
(dp263
I0
F0.002
sI1
F0.002
sI2
F0.002
sI3
F0.002
sI4
F0.002
sI5
F0.002
sI6
F0.002
sI7
F0.002
ssg77
(dp264
I0
F0.8695144709257463
sI1
Fnan
sI2
Fnan
sI3
Fnan
sI4
Fnan
sI5
Fnan
sI6
Fnan
sI7
Fnan
ssg79
(dp265
I0
F11.467375
sI1
Fnan
sI2
Fnan
sI3
Fnan
sI4
Fnan
sI5
Fnan
sI6
Fnan
sI7
Fnan
ssg81
(dp266
I0
F11.336
sI1
F11.305
sI2
F11.296
sI3
F11.304
sI4
F11.329
sI5
F11.32
sI6
F11.292
sI7
F11.294
ssg83
(dp267
I0
F4.54141
sI1
F-3.717969
sI2
F4.846714
sI3
F-3.14024
sI4
F-1.122194
sI5
F3.332926
sI6
F4.847916
sI7
F-3.394763
ssg85
(dp268
I0
F0.015089613267788939
sI1
Fnan
sI2
Fnan
sI3
Fnan
sI4
Fnan
sI5
Fnan
sI6
Fnan
sI7
Fnan
ssg87
(dp269
I0
F0.7154009029626329
sI1
F0.7146969272797582
sI2
F0.7188767712140013
sI3
F0.7212320693476352
sI4
F0.7188994072091631
sI5
F0.7195229769585803
sI6
F0.7211539006790143
sI7
F0.7182775233507974
ssg89
(dp270
I0
F45.0
sI1
F45.0
sI2
F45.0
sI3
F45.0
sI4
F45.0
sI5
F45.0
sI6
F45.0
sI7
F45.0
ssg91
(dp271
I0
F0.002
sI1
F0.002
sI2
F0.002
sI3
F0.002
sI4
F0.002
sI5
F0.002
sI6
F0.002
sI7
F0.002
ssg93
(dp272
I0
F0.002
sI1
F0.002
sI2
F0.002
sI3
F0.002
sI4
F0.002
sI5
F0.002
sI6
F0.002
sI7
F0.002
ssg95
(dp273
I0
F2.138233
sI1
F-4.304218
sI2
F4.444639
sI3
F1.51801
sI4
F2.563555
sI5
F-0.7723991
sI6
F4.261693
sI7
F2.329724
ssg97
(dp274
I0
S"KIC8462852-20180623at064945_-25-1-045-g'_cal.fts.mag.1"
p275
sI1
S"KIC8462852-20180623at064829_-25-1-045-g'_cal.fts.mag.1"
p276
sI2
S"KIC8462852-20180623at070441_-25-1-045-g'_cal.fts.mag.1"
p277
sI3
S"KIC8462852-20180623at070315_-25-1-045-g'_cal.fts.mag.1"
p278
sI4
S"KIC8462852-20180623at065102_-25-1-045-g'_cal.fts.mag.1"
p279
sI5
S"KIC8462852-20180623at064657_-25-1-045-g'_cal.fts.mag.1"
p280
sI6
S"KIC8462852-20180623at070557_-25-1-045-g'_cal.fts.mag.1"
p281
sI7
S"KIC8462852-20180623at070714_-25-1-045-g'_cal.fts.mag.1"
p282
ssg107
(dp283
I0
F0.0034984792816712264
sI1
Fnan
sI2
Fnan
sI3
Fnan
sI4
Fnan
sI5
Fnan
sI6
Fnan
sI7
Fnan
ssg109
(dp284
I0
F6966.848888888889
sI1
F7176.551111111111
sI2
F7211.731111111111
sI3
F7166.56
sI4
F7020.5088888888895
sI5
F7038.946666666666
sI6
F7267.197777777778
sI7
F7205.788888888889
ssg111
(dp285
I0
F0.0177839213095104
sI1
Fnan
sI2
Fnan
sI3
Fnan
sI4
Fnan
sI5
Fnan
sI6
Fnan
sI7
Fnan
ssg113
(dp286
I0
S"g'"
p287
sI1
S"g'"
p288
sI2
S"g'"
p289
sI3
S"g'"
p290
sI4
S"g'"
p291
sI5
S"g'"
p292
sI6
S"g'"
p293
sI7
S"g'"
p294
ssg123
(dp295
I0
F0.0022573526282239974
sI1
Fnan
sI2
Fnan
sI3
Fnan
sI4
Fnan
sI5
Fnan
sI6
Fnan
sI7
Fnan
ssg125
(dp296
I0
F-3.260442
sI1
F-2.913376
sI2
F3.020593
sI3
F2.71714
sI4
F2.880373
sI5
F-2.433608
sI6
F3.801896
sI7
F3.408998
ssg127
(dp297
I0
F1.5091916334452877
sI1
Fnan
sI2
Fnan
sI3
Fnan
sI4
Fnan
sI5
Fnan
sI6
Fnan
sI7
Fnan
ssg129
(dp298
I0
F2458292.7897395836
sI1
Fnan
sI2
Fnan
sI3
Fnan
sI4
Fnan
sI5
Fnan
sI6
Fnan
sI7
Fnan
ssg131
(dp299
I0
F0.0022573526282239974
sI1
Fnan
sI2
Fnan
sI3
Fnan
sI4
Fnan
sI5
Fnan
sI6
Fnan
sI7
Fnan
ssg133
(dp300
I0
F38.65782
sI1
F39.5484
sI2
F38.70042
sI3
F39.20488
sI4
F39.17987
sI5
F40.12891
sI6
F36.80842
sI7
F37.0574
ssg135
(dp301
I0
F10.96
sI1
F10.937
sI2
F10.928
sI3
F10.933
sI4
F10.957
sI5
F10.949
sI6
F10.919
sI7
F10.926
ssg137
(dp302
I0
F0.8695144709257463
sI1
Fnan
sI2
Fnan
sI3
Fnan
sI4
Fnan
sI5
Fnan
sI6
Fnan
sI7
Fnan
sssS'V'
p303
(dp304
g3
(dp305
I0
F0.6964225840020793
sI1
Fnan
sI2
Fnan
sI3
Fnan
sI4
Fnan
sI5
Fnan
sI6
Fnan
sI7
Fnan
ssg5
(dp306
I0
S'NoError'
p307
sI1
S'NoError'
p308
sI2
S'NoError'
p309
sI3
S'NoError'
p310
sI4
S'NoError'
p311
sI5
S'NoError'
p312
sI6
S'NoError'
p313
sI7
S'NoError'
p314
ssg15
(dp315
I0
F0.002
sI1
F0.002
sI2
F0.002
sI3
F0.002
sI4
F0.002
sI5
F0.002
sI6
F0.002
sI7
F0.002
ssg17
(dp316
I0
F0.889455457980027
sI1
F0.8862117763281798
sI2
F0.88660569456786
sI3
F0.8847491669838634
sI4
F0.8844309568651239
sI5
F0.8890160078763127
sI6
F0.8894989611550933
sI7
F0.8897136184577429
ssg19
(dp317
I0
F0.002218454723790686
sI1
Fnan
sI2
Fnan
sI3
Fnan
sI4
Fnan
sI5
Fnan
sI6
Fnan
sI7
Fnan
ssg21
(dp318
I0
F0.8874602050267755
sI1
Fnan
sI2
Fnan
sI3
Fnan
sI4
Fnan
sI5
Fnan
sI6
Fnan
sI7
Fnan
ssg23
(dp319
I0
F11.371
sI1
F11.363
sI2
F11.36
sI3
F11.38
sI4
F11.36
sI5
F11.356
sI6
F11.386
sI7
F11.38
ssg25
(dp320
I0
F27.42339
sI1
F27.70787
sI2
F26.24213
sI3
F29.40696
sI4
F25.9296
sI5
F27.3005
sI6
F28.56328
sI7
F29.03087
ssg27
(dp321
I0
F2458292.8267939813
sI1
F2458292.839386574
sI2
F2458292.840277778
sI3
F2458292.8259143517
sI4
F2458292.8411574075
sI5
F2458292.8385069445
sI6
F2458292.824131944
sI7
F2458292.825023148
ssg29
(dp322
I0
F0.5696553750000001
sI1
Fnan
sI2
Fnan
sI3
Fnan
sI4
Fnan
sI5
Fnan
sI6
Fnan
sI7
Fnan
ssg31
(dp323
I0
F1.225884625
sI1
Fnan
sI2
Fnan
sI3
Fnan
sI4
Fnan
sI5
Fnan
sI6
Fnan
sI7
Fnan
ssg33
(dp324
I0
F0.6974497194582372
sI1
F0.6925710845704826
sI2
F0.6964479255605222
sI3
F0.6941669197761682
sI4
F0.6987722921878391
sI5
F0.6975976524709854
sI6
F0.6958709140536533
sI7
F0.6946526645071504
ssg35
(dp325
I0
F0.0015344864080441632
sI1
Fnan
sI2
Fnan
sI3
Fnan
sI4
Fnan
sI5
Fnan
sI6
Fnan
sI7
Fnan
ssg37
(dp326
I0
F1.6991815000000001
sI1
Fnan
sI2
Fnan
sI3
Fnan
sI4
Fnan
sI5
Fnan
sI6
Fnan
sI7
Fnan
ssg39
(dp327
I0
g307
sI1
g308
sI2
g309
sI3
g310
sI4
g311
sI5
g312
sI6
g313
sI7
g314
ssg41
(dp328
I0
F0.003160839752170144
sI1
Fnan
sI2
Fnan
sI3
Fnan
sI4
Fnan
sI5
Fnan
sI6
Fnan
sI7
Fnan
ssg43
(dp329
I0
F0.009775150711297012
sI1
Fnan
sI2
Fnan
sI3
Fnan
sI4
Fnan
sI5
Fnan
sI6
Fnan
sI7
Fnan
ssg45
(dp330
I0
F0.3005868749999999
sI1
Fnan
sI2
Fnan
sI3
Fnan
sI4
Fnan
sI5
Fnan
sI6
Fnan
sI7
Fnan
ssg47
(dp331
I0
F1.487025210216092
sI1
F1.4931004541284683
sI2
F1.498803301436881
sI3
F1.5007075515370936
sI4
F1.4986493314149503
sI5
F1.494065195833691
sI6
F1.503659678082286
sI7
F1.496598851276439
ssg49
(dp332
I0
g307
sI1
g308
sI2
g309
sI3
g310
sI4
g311
sI5
g312
sI6
g313
sI7
g314
ssg51
(dp333
I0
F28.17123
sI1
F27.55437
sI2
F27.73788
sI3
F29.83548
sI4
F28.23257
sI5
F28.05696
sI6
F28.82903
sI7
F29.48313
ssg53
(dp334
I0
F10.704374999999999
sI1
Fnan
sI2
Fnan
sI3
Fnan
sI4
Fnan
sI5
Fnan
sI6
Fnan
sI7
Fnan
ssg55
(dp335
I0
F0.7197587596456325
sI1
Fnan
sI2
Fnan
sI3
Fnan
sI4
Fnan
sI5
Fnan
sI6
Fnan
sI7
Fnan
ssg57
(dp336
I0
F4.079425
sI1
F-2.686492
sI2
F3.520835
sI3
F4.731684
sI4
F3.119848
sI5
F3.941591
sI6
F-3.064598
sI7
F-3.835216
ssg59
(dp337
I0
F11.063875
sI1
Fnan
sI2
Fnan
sI3
Fnan
sI4
Fnan
sI5
Fnan
sI6
Fnan
sI7
Fnan
ssg61
(dp338
I0
g307
sI1
g308
sI2
g309
sI3
g310
sI4
g311
sI5
g312
sI6
g313
sI7
g314
ssg63
(dp339
I0
F9410.857777777777
sI1
F9520.90888888889
sI2
F9495.384444444444
sI3
F9341.493333333334
sI4
F9448.446666666667
sI5
F9535.435555555556
sI6
F9303.982222222223
sI7
F9373.524444444443
ssg65
(dp340
I0
F1.067447
sI1
F1.0472270000000001
sI2
F1.045966
sI3
F1.069033
sI4
F1.044721
sI5
F1.048514
sI6
F1.072268
sI7
F1.070634
ssg67
(dp341
I0
F8123.7444444444445
sI1
F8232.755555555555
sI2
F8176.3822222222225
sI3
F8059.673333333333
sI4
F8166.697777777778
sI5
F8201.553333333333
sI6
F7948.597777777778
sI7
F8040.2
ssg69
(dp342
I0
F13037.197777777777
sI1
F13254.002222222221
sI2
F13243.251111111113
sI3
F13057.031111111111
sI4
F13199.462222222222
sI5
F13250.10888888889
sI6
F12971.004444444443
sI7
F13030.68
ssg71
(dp343
I0
F28.31551
sI1
F27.27773
sI2
F26.75453
sI3
F28.90639
sI4
F27.44273
sI5
F26.95348
sI6
F29.52573
sI7
F29.4996
ssg73
(dp344
I0
F11.226
sI1
F11.211
sI2
F11.219
sI3
F11.234
sI4
F11.22
sI5
F11.215
sI6
F11.249
sI7
F11.237
ssg75
(dp345
I0
F0.001
sI1
F0.001
sI2
F0.001
sI3
F0.001
sI4
F0.001
sI5
F0.001
sI6
F0.001
sI7
F0.001
ssg77
(dp346
I0
F0.6959411465731298
sI1
Fnan
sI2
Fnan
sI3
Fnan
sI4
Fnan
sI5
Fnan
sI6
Fnan
sI7
Fnan
ssg79
(dp347
I0
F11.226375
sI1
Fnan
sI2
Fnan
sI3
Fnan
sI4
Fnan
sI5
Fnan
sI6
Fnan
sI7
Fnan
ssg81
(dp348
I0
F11.066
sI1
F11.053
sI2
F11.056
sI3
F11.074
sI4
F11.062
sI5
F11.052
sI6
F11.078
sI7
F11.07
ssg83
(dp349
I0
F-1.443269
sI1
F2.401509
sI2
F3.115462
sI3
F4.39604
sI4
F-3.139338
sI5
F-3.038918
sI6
F-1.021081
sI7
F3.286838
ssg85
(dp350
I0
F0.009869686635638818
sI1
Fnan
sI2
Fnan
sI3
Fnan
sI4
Fnan
sI5
Fnan
sI6
Fnan
sI7
Fnan
ssg87
(dp351
I0
F0.7237815697969386
sI1
F0.7229670856137016
sI2
F0.71916208008572
sI3
F0.719661096723038
sI4
F0.7211877986478812
sI5
F0.7198909249967937
sI6
F0.7136792400125144
sI7
F0.7177402812884724
ssg89
(dp352
I0
F45.0
sI1
F45.0
sI2
F45.0
sI3
F45.0
sI4
F45.0
sI5
F45.0
sI6
F45.0
sI7
F45.0
ssg91
(dp353
I0
F0.002
sI1
F0.002
sI2
F0.002
sI3
F0.002
sI4
F0.002
sI5
F0.002
sI6
F0.002
sI7
F0.002
ssg93
(dp354
I0
F0.002
sI1
F0.002
sI2
F0.002
sI3
F0.002
sI4
F0.002
sI5
F0.002
sI6
F0.002
sI7
F0.002
ssg95
(dp355
I0
F2.89336
sI1
F3.698003
sI2
F-2.782597
sI3
F-3.166384
sI4
F-1.692816
sI5
F3.141076
sI6
F3.811317
sI7
F-3.497264
ssg97
(dp356
I0
S'KIC8462852-20180623at075035_-25-1-045-V_cal.fts.mag.1'
p357
sI1
S'KIC8462852-20180623at080843_-25-1-045-V_cal.fts.mag.1'
p358
sI2
S'KIC8462852-20180623at081000_-25-1-045-V_cal.fts.mag.1'
p359
sI3
S'KIC8462852-20180623at074919_-25-1-045-V_cal.fts.mag.1'
p360
sI4
S'KIC8462852-20180623at081116_-25-1-045-V_cal.fts.mag.1'
p361
sI5
S'KIC8462852-20180623at080725_-25-1-045-V_cal.fts.mag.1'
p362
sI6
S'KIC8462852-20180623at074644_-25-1-045-V_cal.fts.mag.1'
p363
sI7
S'KIC8462852-20180623at074802_-25-1-045-V_cal.fts.mag.1'
p364
ssg107
(dp365
I0
F0.005156264596977831
sI1
Fnan
sI2
Fnan
sI3
Fnan
sI4
Fnan
sI5
Fnan
sI6
Fnan
sI7
Fnan
ssg109
(dp366
I0
F7107.431111111112
sI1
F7158.337777777778
sI2
F7176.9
sI3
F7047.69111111111
sI4
F7177.464444444445
sI5
F7205.5088888888895
sI6
F7010.571111111111
sI7
F7049.428888888889
ssg111
(dp367
I0
F0.012783220028056987
sI1
Fnan
sI2
Fnan
sI3
Fnan
sI4
Fnan
sI5
Fnan
sI6
Fnan
sI7
Fnan
ssg113
(dp368
I0
g303
sI1
g303
sI2
g303
sI3
g303
sI4
g303
sI5
g303
sI6
g303
sI7
g303
ssg123
(dp369
I0
F0.0020515614834611005
sI1
Fnan
sI2
Fnan
sI3
Fnan
sI4
Fnan
sI5
Fnan
sI6
Fnan
sI7
Fnan
ssg125
(dp370
I0
F4.839454
sI1
F2.60633
sI2
F3.986031
sI3
F-2.153844
sI4
F3.115448
sI5
F-1.24274
sI6
F-1.325298
sI7
F3.768071
ssg127
(dp371
I0
F1.4965761967407376
sI1
Fnan
sI2
Fnan
sI3
Fnan
sI4
Fnan
sI5
Fnan
sI6
Fnan
sI7
Fnan
ssg129
(dp372
I0
F2458292.832650463
sI1
Fnan
sI2
Fnan
sI3
Fnan
sI4
Fnan
sI5
Fnan
sI6
Fnan
sI7
Fnan
ssg131
(dp373
I0
F0.0020515614834611005
sI1
Fnan
sI2
Fnan
sI3
Fnan
sI4
Fnan
sI5
Fnan
sI6
Fnan
sI7
Fnan
ssg133
(dp374
I0
F31.13017
sI1
F29.35441
sI2
F28.45513
sI3
F31.68439
sI4
F29.33124
sI5
F29.9824
sI6
F31.16791
sI7
F30.87245
ssg135
(dp375
I0
F10.712
sI1
F10.694
sI2
F10.695
sI3
F10.71
sI4
F10.699
sI5
F10.694
sI6
F10.718
sI7
F10.713
ssg137
(dp376
I0
F0.6959411465731298
sI1
Fnan
sI2
Fnan
sI3
Fnan
sI4
Fnan
sI5
Fnan
sI6
Fnan
sI7
Fnan
sss.