(dp0
S'V'
p1
(dp2
S'sigmean'
p3
(dp4
I0
F0.693668522008949
sI1
Fnan
sI2
Fnan
sI3
Fnan
sI4
Fnan
sI5
Fnan
sI6
Fnan
sI7
Fnan
sI8
Fnan
sI9
Fnan
sI10
Fnan
sI11
Fnan
sI12
Fnan
sI13
Fnan
sI14
Fnan
ssS'ref3flag'
p5
(dp6
I0
S'NoError'
p7
sI1
S'NoError'
p8
sI2
S'NoError'
p9
sI3
S'NoError'
p10
sI4
S'NoError'
p11
sI5
S'NoError'
p12
sI6
S'NoError'
p13
sI7
S'NoError'
p14
sI8
S'NoError'
p15
sI9
S'NoError'
p16
sI10
S'NoError'
p17
sI11
S'NoError'
p18
sI12
S'NoError'
p19
sI13
S'NoError'
p20
sI14
S'NoError'
p21
ssS'tabbyerr'
p22
(dp23
I0
F0.003
sI1
F0.003
sI2
F0.003
sI3
F0.003
sI4
F0.003
sI5
F0.003
sI6
F0.003
sI7
F0.003
sI8
F0.003
sI9
F0.003
sI10
F0.003
sI11
F0.003
sI12
F0.003
sI13
F0.003
sI14
F0.003
ssS'ref2rel'
p24
(dp25
I0
F0.8883513271047453
sI1
F0.8881814701321973
sI2
F0.8896613414976804
sI3
F0.8912998519764544
sI4
F0.8870398460308917
sI5
F0.882407199435044
sI6
F0.8883347329497934
sI7
F0.8889193012397711
sI8
F0.8861122135386603
sI9
F0.8887297275180738
sI10
F0.8839059470902494
sI11
F0.8937555538983087
sI12
F0.8832315190842873
sI13
F0.8749295848337315
sI14
F0.8922050964262641
ssS'ref2err'
p26
(dp27
I0
F0.004637194711748914
sI1
Fnan
sI2
Fnan
sI3
Fnan
sI4
Fnan
sI5
Fnan
sI6
Fnan
sI7
Fnan
sI8
Fnan
sI9
Fnan
sI10
Fnan
sI11
Fnan
sI12
Fnan
sI13
Fnan
sI14
Fnan
ssS'ref2mean'
p28
(dp29
I0
F0.887137647517077
sI1
Fnan
sI2
Fnan
sI3
Fnan
sI4
Fnan
sI5
Fnan
sI6
Fnan
sI7
Fnan
sI8
Fnan
sI9
Fnan
sI10
Fnan
sI11
Fnan
sI12
Fnan
sI13
Fnan
sI14
Fnan
ssS'tabbymag'
p30
(dp31
I0
F11.734
sI1
F11.689
sI2
F11.758
sI3
F11.748
sI4
F11.664
sI5
F11.722
sI6
F11.699
sI7
F11.669
sI8
F11.79
sI9
F11.653
sI10
F11.686
sI11
F11.76
sI12
F11.77
sI13
F11.749
sI14
F11.654
ssS'tabbybkg'
p32
(dp33
I0
F26.98441
sI1
F25.68978
sI2
F25.59838
sI3
F26.45929
sI4
F26.00576
sI5
F26.38902
sI6
F25.12731
sI7
F25.66392
sI8
F25.56654
sI9
F25.48161
sI10
F25.41722
sI11
F26.00136
sI12
F25.8024
sI13
F25.77401
sI14
F25.90689
ssS'JD'
p34
(dp35
I0
F2458597.8518287037
sI1
F2458597.8524421295
sI2
F2458597.8358217594
sI3
F2458597.837662037
sI4
F2458597.8666319447
sI5
F2458597.8678472224
sI6
F2458597.851226852
sI7
F2458597.8530439814
sI8
F2458597.838275463
sI9
F2458597.8659953703
sI10
F2458597.8672337965
sI11
F2458597.8364351853
sI12
F2458597.850613426
sI13
F2458597.837048611
sI14
F2458597.8653819445
ssS'ref3rmsmean'
p36
(dp37
I0
F1.3579596
sI1
Fnan
sI2
Fnan
sI3
Fnan
sI4
Fnan
sI5
Fnan
sI6
Fnan
sI7
Fnan
sI8
Fnan
sI9
Fnan
sI10
Fnan
sI11
Fnan
sI12
Fnan
sI13
Fnan
sI14
Fnan
ssS'ref1rmsmean'
p38
(dp39
I0
F2.886927386666667
sI1
Fnan
sI2
Fnan
sI3
Fnan
sI4
Fnan
sI5
Fnan
sI6
Fnan
sI7
Fnan
sI8
Fnan
sI9
Fnan
sI10
Fnan
sI11
Fnan
sI12
Fnan
sI13
Fnan
sI14
Fnan
ssS'relflux'
p40
(dp41
I0
F0.6915262704414054
sI1
F0.6937849658116911
sI2
F0.694812031918985
sI3
F0.6971972418407852
sI4
F0.6898444301449714
sI5
F0.6930241624350891
sI6
F0.6926894984804013
sI7
F0.6947916449333912
sI8
F0.6856896573759946
sI9
F0.6916114181666828
sI10
F0.6967131309420258
sI11
F0.6938080816909634
sI12
F0.695142771694806
sI13
F0.6965592439281683
sI14
F0.6898544156959203
ssS'sigerr'
p42
(dp43
I0
F0.0023024666666871755
sI1
Fnan
sI2
Fnan
sI3
Fnan
sI4
Fnan
sI5
Fnan
sI6
Fnan
sI7
Fnan
sI8
Fnan
sI9
Fnan
sI10
Fnan
sI11
Fnan
sI12
Fnan
sI13
Fnan
sI14
Fnan
ssS'tabbyrmsmean'
p44
(dp45
I0
F1.2957807333333335
sI1
Fnan
sI2
Fnan
sI3
Fnan
sI4
Fnan
sI5
Fnan
sI6
Fnan
sI7
Fnan
sI8
Fnan
sI9
Fnan
sI10
Fnan
sI11
Fnan
sI12
Fnan
sI13
Fnan
sI14
Fnan
ssS'tabbyflag'
p46
(dp47
I0
g7
sI1
g8
sI2
g9
sI3
g10
sI4
g11
sI5
g12
sI6
g13
sI7
g14
sI8
g15
sI9
g16
sI10
g17
sI11
g18
sI12
g19
sI13
g20
sI14
g21
ssS'ref1err'
p48
(dp49
I0
F0.003060864417559932
sI1
Fnan
sI2
Fnan
sI3
Fnan
sI4
Fnan
sI5
Fnan
sI6
Fnan
sI7
Fnan
sI8
Fnan
sI9
Fnan
sI10
Fnan
sI11
Fnan
sI12
Fnan
sI13
Fnan
sI14
Fnan
ssS'ref2magmeanerr'
p50
(dp51
I0
F0.04741890320275641
sI1
Fnan
sI2
Fnan
sI3
Fnan
sI4
Fnan
sI5
Fnan
sI6
Fnan
sI7
Fnan
sI8
Fnan
sI9
Fnan
sI10
Fnan
sI11
Fnan
sI12
Fnan
sI13
Fnan
sI14
Fnan
ssS'ref2rmsmean'
p52
(dp53
I0
F1.3283769333333335
sI1
Fnan
sI2
Fnan
sI3
Fnan
sI4
Fnan
sI5
Fnan
sI6
Fnan
sI7
Fnan
sI8
Fnan
sI9
Fnan
sI10
Fnan
sI11
Fnan
sI12
Fnan
sI13
Fnan
sI14
Fnan
ssS'ref3rel'
p54
(dp55
I0
F1.5061371007242137
sI1
F1.500737956093267
sI2
F1.4988830888492162
sI3
F1.5000163388763985
sI4
F1.5060323056658713
sI5
F1.516935759658876
sI6
F1.4981947274661334
sI7
F1.5091443019490125
sI8
F1.512075301581214
sI9
F1.504649398035654
sI10
F1.5122246352026412
sI11
F1.510175488311451
sI12
F1.5144775707243516
sI13
F1.5174952810574769
sI14
F1.4994677884601249
ssS'ref1flag'
p56
(dp57
I0
g7
sI1
g8
sI2
g9
sI3
g10
sI4
g11
sI5
g12
sI6
g13
sI7
g14
sI8
g15
sI9
g16
sI10
g17
sI11
g18
sI12
g19
sI13
g20
sI14
g21
ssS'ref2bkg'
p58
(dp59
I0
F28.13962
sI1
F25.72827
sI2
F25.98631
sI3
F26.76281
sI4
F26.07086
sI5
F28.14747
sI6
F27.33078
sI7
F26.45399
sI8
F26.50956
sI9
F26.02321
sI10
F27.03701
sI11
F26.11612
sI12
F28.36283
sI13
F26.69542
sI14
F25.09183
ssS'ref3magmean'
p60
(dp61
I0
F11.0426
sI1
Fnan
sI2
Fnan
sI3
Fnan
sI4
Fnan
sI5
Fnan
sI6
Fnan
sI7
Fnan
sI8
Fnan
sI9
Fnan
sI10
Fnan
sI11
Fnan
sI12
Fnan
sI13
Fnan
sI14
Fnan
ssS'ref1mean'
p62
(dp63
I0
F0.7137124906202402
sI1
Fnan
sI2
Fnan
sI3
Fnan
sI4
Fnan
sI5
Fnan
sI6
Fnan
sI7
Fnan
sI8
Fnan
sI9
Fnan
sI10
Fnan
sI11
Fnan
sI12
Fnan
sI13
Fnan
sI14
Fnan
ssS'ref1rms'
p64
(dp65
I0
F3.452392
sI1
F4.164052
sI2
F-1.770377
sI3
F2.075942
sI4
F3.517219
sI5
F4.412777
sI6
F4.467046
sI7
F1.752269
sI8
F0.8237698
sI9
F3.813907
sI10
F3.507327
sI11
F3.764829
sI12
F2.188761
sI13
F4.207819
sI14
F2.926178
ssS'ref2magmean'
p66
(dp67
I0
F11.40686666666667
sI1
Fnan
sI2
Fnan
sI3
Fnan
sI4
Fnan
sI5
Fnan
sI6
Fnan
sI7
Fnan
sI8
Fnan
sI9
Fnan
sI10
Fnan
sI11
Fnan
sI12
Fnan
sI13
Fnan
sI14
Fnan
ssS'ref2flag'
p68
(dp69
I0
g7
sI1
g8
sI2
g9
sI3
g10
sI4
g11
sI5
g12
sI6
g13
sI7
g14
sI8
g15
sI9
g16
sI10
g17
sI11
g18
sI12
g19
sI13
g20
sI14
g21
ssS'ref2'
p70
(dp71
I0
F6784.663333333333
sI1
F7048.6066666666675
sI2
F6612.243333333333
sI3
F6658.596666666666
sI4
F7251.373333333334
sI5
F6816.15
sI6
F6995.79
sI7
F7177.316666666667
sI8
F6486.08
sI9
F7312.746666666667
sI10
F7013.2
sI11
F6631.41
sI12
F6504.27
sI13
F6577.6433333333325
sI14
F7342.803333333333
ssS'airmass'
p72
(dp73
I0
F1.764125
sI1
F1.757739
sI2
F1.9527860000000001
sI3
F1.9289020000000001
sI4
F1.622315
sI5
F1.6116979999999999
sI6
F1.7705279999999999
sI7
F1.751424
sI8
F1.921142
sI9
F1.6276329999999999
sI10
F1.6169870000000002
sI11
F1.944764
sI12
F1.7769979999999999
sI13
F1.9367470000000002
sI14
F1.633129
ssS'ref1'
p74
(dp75
I0
F5798.64
sI1
F6046.12
sI2
F5664.173333333334
sI3
F5684.153333333334
sI4
F6211.693333333333
sI5
F5845.52
sI6
F6008.71
sI7
F6116.9366666666665
sI8
F5544.123333333334
sI9
F6251.733333333334
sI10
F6016.636666666667
sI11
F5602.073333333334
sI12
F5578.673333333334
sI13
F5711.48
sI14
F6260.8099999999995
ssS'ref3'
p76
(dp77
I0
F9476.09
sI1
F9825.876666666667
sI2
F9200.456666666667
sI3
F9257.163333333334
sI4
F10137.906666666668
sI5
F9603.47
sI6
F9741.636666666665
sI7
F10031.473333333333
sI8
F9095.286666666665
sI9
F10204.893333333333
sI10
F9852.019999999999
sI11
F9237.353333333333
sI12
F9149.673333333334
sI13
F9324.343333333332
sI14
F10199.09
ssS'ref1bkg'
p78
(dp79
I0
F26.41301
sI1
F26.27649
sI2
F26.20068
sI3
F25.37197
sI4
F24.88108
sI5
F27.11133
sI6
F25.83382
sI7
F25.92498
sI8
F26.14449
sI9
F25.681
sI10
F27.29608
sI11
F25.40228
sI12
F27.06215
sI13
F25.02864
sI14
F24.93446
ssS'ref1mag'
p80
(dp81
I0
F11.592
sI1
F11.546
sI2
F11.617
sI3
F11.613
sI4
F11.517
sI5
F11.583
sI6
F11.553
sI7
F11.534
sI8
F11.64
sI9
F11.51
sI10
F11.552
sI11
F11.629
sI12
F11.634
sI13
F11.608
sI14
F11.508
ssS'ref3magerr'
p82
(dp83
I0
F0.002
sI1
F0.002
sI2
F0.002
sI3
F0.002
sI4
F0.002
sI5
F0.002
sI6
F0.002
sI7
F0.002
sI8
F0.002
sI9
F0.002
sI10
F0.002
sI11
F0.002
sI12
F0.002
sI13
F0.002
sI14
F0.002
ssS'tabbymagmean'
p84
(dp85
I0
F11.716333333333333
sI1
Fnan
sI2
Fnan
sI3
Fnan
sI4
Fnan
sI5
Fnan
sI6
Fnan
sI7
Fnan
sI8
Fnan
sI9
Fnan
sI10
Fnan
sI11
Fnan
sI12
Fnan
sI13
Fnan
sI14
Fnan
ssS'ref1magmean'
p86
(dp87
I0
F11.575733333333334
sI1
Fnan
sI2
Fnan
sI3
Fnan
sI4
Fnan
sI5
Fnan
sI6
Fnan
sI7
Fnan
sI8
Fnan
sI9
Fnan
sI10
Fnan
sI11
Fnan
sI12
Fnan
sI13
Fnan
sI14
Fnan
ssS'ref2mag'
p88
(dp89
I0
F11.421
sI1
F11.38
sI2
F11.449
sI3
F11.442
sI4
F11.349
sI5
F11.416
sI6
F11.388
sI7
F11.36
sI8
F11.47
sI9
F11.34
sI10
F11.385
sI11
F11.446
sI12
F11.467
sI13
F11.455
sI14
F11.335
ssS'ref3rms'
p90
(dp91
I0
F-1.686107
sI1
F-2.932241
sI2
F2.424387
sI3
F1.6781
sI4
F2.009656
sI5
F3.778108
sI6
F3.749518
sI7
F3.375156
sI8
F2.626613
sI9
F1.151388
sI10
F4.790359
sI11
F3.180579
sI12
F-2.863495
sI13
F-4.15857
sI14
F3.245943
ssS'ref3magmeanerr'
p92
(dp93
I0
F0.04534912190046098
sI1
Fnan
sI2
Fnan
sI3
Fnan
sI4
Fnan
sI5
Fnan
sI6
Fnan
sI7
Fnan
sI8
Fnan
sI9
Fnan
sI10
Fnan
sI11
Fnan
sI12
Fnan
sI13
Fnan
sI14
Fnan
ssS'ref1rel'
p94
(dp95
I0
F0.7132068091966219
sI1
F0.7165991255040894
sI2
F0.7164081192121945
sI3
F0.7142798500773238
sI4
F0.7144278927400481
sI5
F0.712016477847843
sI6
F0.7179968724782065
sI7
F0.7109083981693851
sI8
F0.7116350512685025
sI9
F0.7137643350740549
sI10
F0.7134963749855227
sI11
F0.7060503979621181
sI12
F0.7127499077442255
sI13
F0.718335402955941
sI14
F0.7138123440875253
ssS'exposure'
p96
(dp97
I0
F30.0
sI1
F30.0
sI2
F30.0
sI3
F30.0
sI4
F30.0
sI5
F30.0
sI6
F30.0
sI7
F30.0
sI8
F30.0
sI9
F30.0
sI10
F30.0
sI11
F30.0
sI12
F30.0
sI13
F30.0
sI14
F30.0
ssS'ref1magerr'
p98
(dp99
I0
F0.003
sI1
F0.002
sI2
F0.003
sI3
F0.003
sI4
F0.002
sI5
F0.003
sI6
F0.002
sI7
F0.002
sI8
F0.003
sI9
F0.002
sI10
F0.002
sI11
F0.003
sI12
F0.003
sI13
F0.003
sI14
F0.002
ssS'ref2magerr'
p100
(dp101
I0
F0.002
sI1
F0.002
sI2
F0.002
sI3
F0.002
sI4
F0.002
sI5
F0.002
sI6
F0.002
sI7
F0.002
sI8
F0.002
sI9
F0.002
sI10
F0.002
sI11
F0.002
sI12
F0.002
sI13
F0.002
sI14
F0.002
ssS'ref2rms'
p102
(dp103
I0
F1.443168
sI1
F3.971153
sI2
F4.200325
sI3
F3.324624
sI4
F2.561592
sI5
F-3.072905
sI6
F4.269065
sI7
F-2.62744
sI8
F3.357533
sI9
F-3.493682
sI10
F-2.634769
sI11
F4.263435
sI12
F-2.694982
sI13
F2.137784
sI14
F4.920753
ssS'name'
p104
(dp105
I0
S'KIC8462852-20190424at082638_-35-1X1-030-V.fts.mag.1'
p106
sI1
S'KIC8462852-20190424at082731_-35-1X1-030-V.fts.mag.1'
p107
sI2
S'KIC8462852-20190424at080329_-35-1X1-030-V.fts.mag.1'
p108
sI3
S'KIC8462852-20190424at080614_-35-1X1-030-V.fts.mag.1'
p109
sI4
S'KIC8462852-20190424at084757_-35-1X1-030-V.fts.mag.1'
p110
sI5
S'KIC8462852-20190424at084942_-35-1X1-030-V.fts.mag.1'
p111
sI6
S'KIC8462852-20190424at082546_-35-1X1-030-V.fts.mag.1'
p112
sI7
S'KIC8462852-20190424at082823_-35-1X1-030-V.fts.mag.1'
p113
sI8
S'KIC8462852-20190424at080707_-35-1X1-030-V.fts.mag.1'
p114
sI9
S'KIC8462852-20190424at084702_-35-1X1-030-V.fts.mag.1'
p115
sI10
S'KIC8462852-20190424at084849_-35-1X1-030-V.fts.mag.1'
p116
sI11
S'KIC8462852-20190424at080428_-35-1X1-030-V.fts.mag.1'
p117
sI12
S'KIC8462852-20190424at082447_-35-1X1-030-V.fts.mag.1'
p118
sI13
S'KIC8462852-20190424at080521_-35-1X1-030-V.fts.mag.1'
p119
sI14
S'KIC8462852-20190424at084603_-35-1X1-030-V.fts.mag.1'
p120
ssS'ref3err'
p121
(dp122
I0
F0.006695857300363139
sI1
Fnan
sI2
Fnan
sI3
Fnan
sI4
Fnan
sI5
Fnan
sI6
Fnan
sI7
Fnan
sI8
Fnan
sI9
Fnan
sI10
Fnan
sI11
Fnan
sI12
Fnan
sI13
Fnan
sI14
Fnan
ssS'tabby'
p123
(dp124
I0
F5084.883333333333
sI1
F5300.656666666667
sI2
F4974.13
sI3
F5019.8
sI4
F5427.0
sI5
F5143.426666666666
sI6
F5252.003333333333
sI7
F5402.173333333334
sI8
F4828.509999999999
sI9
F5479.723333333333
sI10
F5314.03
sI11
F4965.546666666666
sI12
F4919.9
sI13
F5018.3533333333335
sI14
F5473.466666666666
ssS'ref1magmeanerr'
p125
(dp126
I0
F0.046962700498323795
sI1
Fnan
sI2
Fnan
sI3
Fnan
sI4
Fnan
sI5
Fnan
sI6
Fnan
sI7
Fnan
sI8
Fnan
sI9
Fnan
sI10
Fnan
sI11
Fnan
sI12
Fnan
sI13
Fnan
sI14
Fnan
ssS'filter'
p127
(dp128
I0
g1
sI1
g1
sI2
g1
sI3
g1
sI4
g1
sI5
g1
sI6
g1
sI7
g1
sI8
g1
sI9
g1
sI10
g1
sI11
g1
sI12
g1
sI13
g1
sI14
g1
ssS'tabbymagerr'
p129
(dp130
I0
F0.045675355447309565
sI1
Fnan
sI2
Fnan
sI3
Fnan
sI4
Fnan
sI5
Fnan
sI6
Fnan
sI7
Fnan
sI8
Fnan
sI9
Fnan
sI10
Fnan
sI11
Fnan
sI12
Fnan
sI13
Fnan
sI14
Fnan
ssS'tabbyrms'
p131
(dp132
I0
F-1.654231
sI1
F2.485596
sI2
F3.849102
sI3
F-1.980796
sI4
F-3.106566
sI5
F3.500659
sI6
F4.545276
sI7
F3.941458
sI8
F2.27293
sI9
F2.854697
sI10
F2.568799
sI11
F2.809882
sI12
F3.736093
sI13
F-3.288723
sI14
F-3.097465
ssS'ref3mean'
p133
(dp134
I0
F1.507109802843727
sI1
Fnan
sI2
Fnan
sI3
Fnan
sI4
Fnan
sI5
Fnan
sI6
Fnan
sI7
Fnan
sI8
Fnan
sI9
Fnan
sI10
Fnan
sI11
Fnan
sI12
Fnan
sI13
Fnan
sI14
Fnan
ssS'median_JD'
p135
(dp136
I0
F2458597.8518287037
sI1
Fnan
sI2
Fnan
sI3
Fnan
sI4
Fnan
sI5
Fnan
sI6
Fnan
sI7
Fnan
sI8
Fnan
sI9
Fnan
sI10
Fnan
sI11
Fnan
sI12
Fnan
sI13
Fnan
sI14
Fnan
ssS'error'
p137
(dp138
I0
F0.0030895800372552655
sI1
Fnan
sI2
Fnan
sI3
Fnan
sI4
Fnan
sI5
Fnan
sI6
Fnan
sI7
Fnan
sI8
Fnan
sI9
Fnan
sI10
Fnan
sI11
Fnan
sI12
Fnan
sI13
Fnan
sI14
Fnan
ssS'ref3bkg'
p139
(dp140
I0
F28.6533
sI1
F28.5711
sI2
F26.86667
sI3
F27.41925
sI4
F27.36829
sI5
F28.69898
sI6
F28.00928
sI7
F28.06538
sI8
F27.58512
sI9
F26.77534
sI10
F28.09042
sI11
F26.62308
sI12
F30.02271
sI13
F27.94802
sI14
F27.42847
ssS'ref3mag'
p141
(dp142
I0
F11.058
sI1
F11.019
sI2
F11.09
sI3
F11.084
sI4
F10.985
sI5
F11.044
sI6
F11.028
sI7
F10.997
sI8
F11.103
sI9
F10.978
sI10
F11.016
sI11
F11.086
sI12
F11.096
sI13
F11.076
sI14
F10.979
ssS'mean'
p143
(dp144
I0
F0.6931365977000855
sI1
Fnan
sI2
Fnan
sI3
Fnan
sI4
Fnan
sI5
Fnan
sI6
Fnan
sI7
Fnan
sI8
Fnan
sI9
Fnan
sI10
Fnan
sI11
Fnan
sI12
Fnan
sI13
Fnan
sI14
Fnan
sss.