(dp0
S'V'
p1
(dp2
S'sigmean'
p3
(dp4
I0
F0.6928768882504506
sI1
Fnan
sI2
Fnan
sI3
Fnan
sI4
Fnan
sI5
Fnan
sI6
Fnan
sI7
Fnan
sI8
Fnan
sI9
Fnan
sI10
Fnan
sI11
Fnan
sI12
Fnan
sI13
Fnan
sI14
Fnan
ssS'ref3flag'
p5
(dp6
I0
S'NoError'
p7
sI1
S'NoError'
p8
sI2
S'NoError'
p9
sI3
S'NoError'
p10
sI4
S'NoError'
p11
sI5
S'NoError'
p12
sI6
S'NoError'
p13
sI7
S'NoError'
p14
sI8
S'NoError'
p15
sI9
S'NoError'
p16
sI10
S'NoError'
p17
sI11
S'NoError'
p18
sI12
S'NoError'
p19
sI13
S'NoError'
p20
sI14
S'NoError'
p21
ssS'tabbyerr'
p22
(dp23
I0
F0.002
sI1
F0.002
sI2
F0.002
sI3
F0.002
sI4
F0.002
sI5
F0.002
sI6
F0.002
sI7
F0.002
sI8
F0.002
sI9
F0.002
sI10
F0.002
sI11
F0.002
sI12
F0.002
sI13
F0.002
sI14
F0.002
ssS'ref2rel'
p24
(dp25
I0
F0.8855552981345042
sI1
F0.8815263595433588
sI2
F0.8843528718783247
sI3
F0.8853554423573374
sI4
F0.8854924003935659
sI5
F0.8843455398689263
sI6
F0.881633459216
sI7
F0.8870662324385172
sI8
F0.8806790142474851
sI9
F0.8814225413184091
sI10
F0.8850544638899709
sI11
F0.8859546785695336
sI12
F0.8832610739766186
sI13
F0.8810164775154493
sI14
F0.885865336574852
ssS'ref2err'
p26
(dp27
I0
F0.0021254603620506083
sI1
Fnan
sI2
Fnan
sI3
Fnan
sI4
Fnan
sI5
Fnan
sI6
Fnan
sI7
Fnan
sI8
Fnan
sI9
Fnan
sI10
Fnan
sI11
Fnan
sI12
Fnan
sI13
Fnan
sI14
Fnan
ssS'ref2mean'
p28
(dp29
I0
F0.8839054126615233
sI1
Fnan
sI2
Fnan
sI3
Fnan
sI4
Fnan
sI5
Fnan
sI6
Fnan
sI7
Fnan
sI8
Fnan
sI9
Fnan
sI10
Fnan
sI11
Fnan
sI12
Fnan
sI13
Fnan
sI14
Fnan
ssS'tabbymag'
p30
(dp31
I0
F11.396
sI1
F11.408
sI2
F11.417
sI3
F11.404
sI4
F11.418
sI5
F11.417
sI6
F11.442
sI7
F11.419
sI8
F11.425
sI9
F11.443
sI10
F11.405
sI11
F11.402
sI12
F11.399
sI13
F11.406
sI14
F11.43
ssS'tabbybkg'
p32
(dp33
I0
F11.81751
sI1
F12.28224
sI2
F13.14579
sI3
F12.85081
sI4
F12.38416
sI5
F13.00816
sI6
F13.76142
sI7
F13.25622
sI8
F13.21212
sI9
F13.36559
sI10
F12.84629
sI11
F12.79201
sI12
F11.89796
sI13
F12.47108
sI14
F12.03804
ssS'JD'
p34
(dp35
I0
F2458305.7892939816
sI1
F2458305.771574074
sI2
F2458305.7725
sI3
F2458305.7688078703
sI4
F2458305.790219907
sI5
F2458305.791134259
sI6
F2458305.7697222224
sI7
F2458305.8087962964
sI8
F2458305.8097222224
sI9
F2458305.7874537036
sI10
F2458305.8078819443
sI11
F2458305.7706597224
sI12
F2458305.806053241
sI13
F2458305.806967593
sI14
F2458305.7883796296
ssS'ref3rmsmean'
p36
(dp37
I0
F1.3242280866666667
sI1
Fnan
sI2
Fnan
sI3
Fnan
sI4
Fnan
sI5
Fnan
sI6
Fnan
sI7
Fnan
sI8
Fnan
sI9
Fnan
sI10
Fnan
sI11
Fnan
sI12
Fnan
sI13
Fnan
sI14
Fnan
ssS'ref1rmsmean'
p38
(dp39
I0
F0.9327211999999998
sI1
Fnan
sI2
Fnan
sI3
Fnan
sI4
Fnan
sI5
Fnan
sI6
Fnan
sI7
Fnan
sI8
Fnan
sI9
Fnan
sI10
Fnan
sI11
Fnan
sI12
Fnan
sI13
Fnan
sI14
Fnan
ssS'relflux'
p40
(dp41
I0
F0.6935013915932537
sI1
F0.6918377437012623
sI2
F0.6920405060220347
sI3
F0.6930593907202098
sI4
F0.6927760336235229
sI5
F0.6937075830697175
sI6
F0.6914339592626206
sI7
F0.6929060681655624
sI8
F0.6900769233560023
sI9
F0.6905726553555539
sI10
F0.6924974636984863
sI11
F0.6939969272344374
sI12
F0.6926846787545351
sI13
F0.6936036307375675
sI14
F0.6933541706726484
ssS'sigerr'
p42
(dp43
I0
F0.0007430258941743723
sI1
Fnan
sI2
Fnan
sI3
Fnan
sI4
Fnan
sI5
Fnan
sI6
Fnan
sI7
Fnan
sI8
Fnan
sI9
Fnan
sI10
Fnan
sI11
Fnan
sI12
Fnan
sI13
Fnan
sI14
Fnan
ssS'tabbyrmsmean'
p44
(dp45
I0
F1.3781132666666667
sI1
Fnan
sI2
Fnan
sI3
Fnan
sI4
Fnan
sI5
Fnan
sI6
Fnan
sI7
Fnan
sI8
Fnan
sI9
Fnan
sI10
Fnan
sI11
Fnan
sI12
Fnan
sI13
Fnan
sI14
Fnan
ssS'tabbyflag'
p46
(dp47
I0
g7
sI1
g8
sI2
g9
sI3
g10
sI4
g11
sI5
g12
sI6
g13
sI7
g14
sI8
g15
sI9
g16
sI10
g17
sI11
g18
sI12
g19
sI13
g20
sI14
g21
ssS'ref1err'
p48
(dp49
I0
F0.0013487517513904163
sI1
Fnan
sI2
Fnan
sI3
Fnan
sI4
Fnan
sI5
Fnan
sI6
Fnan
sI7
Fnan
sI8
Fnan
sI9
Fnan
sI10
Fnan
sI11
Fnan
sI12
Fnan
sI13
Fnan
sI14
Fnan
ssS'ref2magmeanerr'
p50
(dp51
I0
F0.014111123609543143
sI1
Fnan
sI2
Fnan
sI3
Fnan
sI4
Fnan
sI5
Fnan
sI6
Fnan
sI7
Fnan
sI8
Fnan
sI9
Fnan
sI10
Fnan
sI11
Fnan
sI12
Fnan
sI13
Fnan
sI14
Fnan
ssS'ref2rmsmean'
p52
(dp53
I0
F2.1690868466666666
sI1
Fnan
sI2
Fnan
sI3
Fnan
sI4
Fnan
sI5
Fnan
sI6
Fnan
sI7
Fnan
sI8
Fnan
sI9
Fnan
sI10
Fnan
sI11
Fnan
sI12
Fnan
sI13
Fnan
sI14
Fnan
ssS'ref3rel'
p54
(dp55
I0
F1.5064156446165033
sI1
F1.5077510692043627
sI2
F1.5084041416759078
sI3
F1.505889934323702
sI4
F1.5027210428768834
sI5
F1.5085613153186481
sI6
F1.5133873715535973
sI7
F1.5060662915314982
sI8
F1.5106893724810635
sI9
F1.5091997969722308
sI10
F1.5048706388704471
sI11
F1.5026377060632499
sI12
F1.504149012216637
sI13
F1.5126729600922788
sI14
F1.5054470734448129
ssS'ref1flag'
p56
(dp57
I0
g7
sI1
g8
sI2
g9
sI3
g10
sI4
g11
sI5
g12
sI6
g13
sI7
g14
sI8
g15
sI9
g16
sI10
g17
sI11
g18
sI12
g19
sI13
g20
sI14
g21
ssS'ref2bkg'
p58
(dp59
I0
F11.97056
sI1
F13.60323
sI2
F14.1821
sI3
F13.2583
sI4
F13.35732
sI5
F13.58729
sI6
F15.0927
sI7
F14.14568
sI8
F14.70372
sI9
F14.07392
sI10
F13.66392
sI11
F12.88472
sI12
F12.80561
sI13
F13.76452
sI14
F13.05265
ssS'ref3magmean'
p60
(dp61
I0
F10.740666666666668
sI1
Fnan
sI2
Fnan
sI3
Fnan
sI4
Fnan
sI5
Fnan
sI6
Fnan
sI7
Fnan
sI8
Fnan
sI9
Fnan
sI10
Fnan
sI11
Fnan
sI12
Fnan
sI13
Fnan
sI14
Fnan
ssS'ref1mean'
p62
(dp63
I0
F0.7164727314599015
sI1
Fnan
sI2
Fnan
sI3
Fnan
sI4
Fnan
sI5
Fnan
sI6
Fnan
sI7
Fnan
sI8
Fnan
sI9
Fnan
sI10
Fnan
sI11
Fnan
sI12
Fnan
sI13
Fnan
sI14
Fnan
ssS'ref1rms'
p64
(dp65
I0
F-2.911118
sI1
F2.491198
sI2
F3.626683
sI3
F3.396139
sI4
F4.158986
sI5
F2.904003
sI6
F2.195276
sI7
F-2.307418
sI8
F3.61753
sI9
F-3.567305
sI10
F-1.929289
sI11
F3.020409
sI12
F3.809917
sI13
F-3.293366
sI14
F-1.220827
ssS'ref2magmean'
p66
(dp67
I0
F11.107533333333338
sI1
Fnan
sI2
Fnan
sI3
Fnan
sI4
Fnan
sI5
Fnan
sI6
Fnan
sI7
Fnan
sI8
Fnan
sI9
Fnan
sI10
Fnan
sI11
Fnan
sI12
Fnan
sI13
Fnan
sI14
Fnan
ssS'ref2flag'
p68
(dp69
I0
g7
sI1
g8
sI2
g9
sI3
g10
sI4
g11
sI5
g12
sI6
g13
sI7
g14
sI8
g15
sI9
g16
sI10
g17
sI11
g18
sI12
g19
sI13
g20
sI14
g21
ssS'ref2'
p70
(dp71
I0
F9216.082222222223
sI1
F9112.273333333333
sI2
F9054.873333333333
sI3
F9159.206666666667
sI4
F9041.682222222222
sI5
F9033.553333333333
sI6
F8838.3
sI7
F9041.233333333334
sI8
F8988.357777777777
sI9
F8840.282222222222
sI10
F9152.077777777778
sI11
F9165.175555555556
sI12
F9183.684444444445
sI13
F9097.24888888889
sI14
F8936.286666666667
ssS'airmass'
p72
(dp73
I0
F1.0711979999999999
sI1
F1.108452
sI2
F1.106273
sI3
F1.115155
sI4
F1.069515
sI5
F1.067862
sI6
F1.11289
sI7
F1.04059
sI8
F1.039403
sI9
F1.074627
sI10
F1.041807
sI11
F1.1106530000000001
sI12
F1.0442930000000001
sI13
F1.043042
sI14
F1.072904
ssS'ref1'
p74
(dp75
I0
F7912.706666666666
sI1
F7870.76
sI2
F7780.60888888889
sI3
F7869.091111111111
sI4
F7781.524444444444
sI5
F7761.633333333333
sI6
F7606.302222222222
sI7
F7744.42
sI8
F7760.884444444444
sI9
F7630.3711111111115
sI10
F7871.926666666667
sI11
F7882.044444444445
sI12
F7926.679999999999
sI13
F7840.826666666667
sI14
F7673.04
ssS'ref3'
p76
(dp77
I0
F12901.537777777778
sI1
F12803.093333333332
sI2
F12697.355555555556
sI3
F12821.37111111111
sI4
F12640.293333333333
sI5
F12668.284444444445
sI6
F12443.526666666665
sI7
F12640.153333333334
sI8
F12651.451111111111
sI9
F12428.753333333334
sI10
F12809.462222222222
sI11
F12807.897777777778
sI12
F12868.268888888888
sI13
F12810.884444444446
sI14
F12502.231111111112
ssS'ref1bkg'
p78
(dp79
I0
F12.60113
sI1
F12.14481
sI2
F13.44486
sI3
F11.77851
sI4
F12.69281
sI5
F12.9633
sI6
F15.19494
sI7
F13.9776
sI8
F13.54785
sI9
F13.63968
sI10
F13.11721
sI11
F12.64412
sI12
F12.99246
sI13
F13.51457
sI14
F13.30107
ssS'ref1mag'
p80
(dp81
I0
F11.254
sI1
F11.26
sI2
F11.272
sI3
F11.26
sI4
F11.272
sI5
F11.275
sI6
F11.297
sI7
F11.278
sI8
F11.275
sI9
F11.294
sI10
F11.26
sI11
F11.258
sI12
F11.252
sI13
F11.264
sI14
F11.288
ssS'ref3magerr'
p82
(dp83
I0
F0.001
sI1
F0.001
sI2
F0.001
sI3
F0.001
sI4
F0.001
sI5
F0.001
sI6
F0.001
sI7
F0.001
sI8
F0.001
sI9
F0.001
sI10
F0.001
sI11
F0.001
sI12
F0.001
sI13
F0.001
sI14
F0.001
ssS'tabbymagmean'
p84
(dp85
I0
F0.6925366083978278
sI1
Fnan
sI2
Fnan
sI3
Fnan
sI4
Fnan
sI5
Fnan
sI6
Fnan
sI7
Fnan
sI8
Fnan
sI9
Fnan
sI10
Fnan
sI11
Fnan
sI12
Fnan
sI13
Fnan
sI14
Fnan
ssS'ref1magmean'
p86
(dp87
I0
F11.270600000000004
sI1
Fnan
sI2
Fnan
sI3
Fnan
sI4
Fnan
sI5
Fnan
sI6
Fnan
sI7
Fnan
sI8
Fnan
sI9
Fnan
sI10
Fnan
sI11
Fnan
sI12
Fnan
sI13
Fnan
sI14
Fnan
ssS'ref2mag'
p88
(dp89
I0
F11.089
sI1
F11.101
sI2
F11.108
sI3
F11.095
sI4
F11.109
sI5
F11.11
sI6
F11.134
sI7
F11.109
sI8
F11.116
sI9
F11.134
sI10
F11.096
sI11
F11.095
sI12
F11.092
sI13
F11.103
sI14
F11.122
ssS'ref3rms'
p90
(dp91
I0
F-2.214666
sI1
F4.605058
sI2
F-3.380115
sI3
F3.695917
sI4
F-0.9189167
sI5
F3.339356
sI6
F-2.010302
sI7
F1.942119
sI8
F3.682282
sI9
F1.931901
sI10
F3.093648
sI11
F3.204743
sI12
F3.903182
sI13
F1.862135
sI14
F-2.87292
ssS'ref3magmeanerr'
p92
(dp93
I0
F0.013151136108807237
sI1
Fnan
sI2
Fnan
sI3
Fnan
sI4
Fnan
sI5
Fnan
sI6
Fnan
sI7
Fnan
sI8
Fnan
sI9
Fnan
sI10
Fnan
sI11
Fnan
sI12
Fnan
sI13
Fnan
sI14
Fnan
ssS'ref1rel'
p94
(dp95
I0
F0.7155115845797754
sI1
F0.7182868641638059
sI2
F0.7153849776620594
sI3
F0.7160040277982785
sI4
F0.7177874012915388
sI5
F0.7152973322177425
sI6
F0.7148166688281353
sI7
F0.7143841968287392
sI8
F0.717278464361053
sI9
F0.7175098364173854
sI10
F0.7168829386888776
sI11
F0.7174275828304199
sI12
F0.7189095569160464
sI13
F0.7157913955852012
sI14
F0.7158181437294638
ssS'exposure'
p96
(dp97
I0
F45.0
sI1
F45.0
sI2
F45.0
sI3
F45.0
sI4
F45.0
sI5
F45.0
sI6
F45.0
sI7
F45.0
sI8
F45.0
sI9
F45.0
sI10
F45.0
sI11
F45.0
sI12
F45.0
sI13
F45.0
sI14
F45.0
ssS'ref1magerr'
p98
(dp99
I0
F0.002
sI1
F0.002
sI2
F0.002
sI3
F0.002
sI4
F0.002
sI5
F0.002
sI6
F0.002
sI7
F0.002
sI8
F0.002
sI9
F0.002
sI10
F0.002
sI11
F0.002
sI12
F0.002
sI13
F0.002
sI14
F0.002
ssS'ref2magerr'
p100
(dp101
I0
F0.002
sI1
F0.002
sI2
F0.002
sI3
F0.002
sI4
F0.002
sI5
F0.002
sI6
F0.002
sI7
F0.002
sI8
F0.002
sI9
F0.002
sI10
F0.002
sI11
F0.002
sI12
F0.002
sI13
F0.002
sI14
F0.002
ssS'ref2rms'
p102
(dp103
I0
F2.557631
sI1
F3.695422
sI2
F2.507136
sI3
F3.291943
sI4
F0.4340627
sI5
F3.37878
sI6
F-1.646518
sI7
F3.186798
sI8
F2.95313
sI9
F3.523413
sI10
F-3.744633
sI11
F4.116961
sI12
F2.943405
sI13
F1.816287
sI14
F3.522485
ssS'name'
p104
(dp105
I0
S'KIC8462852-20180706at065635_-25-1X1-045-V_cal.fts.mag.1'
p106
sI1
S'KIC8462852-20180706at063104_-25-1X1-045-V_cal.fts.mag.1'
p107
sI2
S'KIC8462852-20180706at063224_-25-1X1-045-V_cal.fts.mag.1'
p108
sI3
S'KIC8462852-20180706at062704_-25-1X1-045-V_cal.fts.mag.1'
p109
sI4
S'KIC8462852-20180706at065754_-25-1X1-045-V_cal.fts.mag.1'
p110
sI5
S'KIC8462852-20180706at065914_-25-1X1-045-V_cal.fts.mag.1'
p111
sI6
S'KIC8462852-20180706at062824_-25-1X1-045-V_cal.fts.mag.1'
p112
sI7
S'KIC8462852-20180706at072440_-25-1X1-045-V_cal.fts.mag.1'
p113
sI8
S'KIC8462852-20180706at072600_-25-1X1-045-V_cal.fts.mag.1'
p114
sI9
S'KIC8462852-20180706at065354_-25-1X1-045-V_cal.fts.mag.1'
p115
sI10
S'KIC8462852-20180706at072321_-25-1X1-045-V_cal.fts.mag.1'
p116
sI11
S'KIC8462852-20180706at062945_-25-1X1-045-V_cal.fts.mag.1'
p117
sI12
S'KIC8462852-20180706at072042_-25-1X1-045-V_cal.fts.mag.1'
p118
sI13
S'KIC8462852-20180706at072202_-25-1X1-045-V_cal.fts.mag.1'
p119
sI14
S'KIC8462852-20180706at065516_-25-1X1-045-V_cal.fts.mag.1'
p120
ssS'ref3err'
p121
(dp122
I0
F0.0032761960896323123
sI1
Fnan
sI2
Fnan
sI3
Fnan
sI4
Fnan
sI5
Fnan
sI6
Fnan
sI7
Fnan
sI8
Fnan
sI9
Fnan
sI10
Fnan
sI11
Fnan
sI12
Fnan
sI13
Fnan
sI14
Fnan
ssS'tabby'
p123
(dp124
I0
F6942.024444444444
sI1
F6869.055555555556
sI2
F6812.639999999999
sI3
F6895.864444444445
sI4
F6803.868888888888
sI5
F6813.011111111111
sI6
F6658.077777777778
sI7
F6796.44
sI8
F6762.913333333333
sI9
F6652.379999999999
sI10
F6886.533333333334
sI11
F6906.453333333334
sI12
F6921.913333333333
sI13
F6877.995555555555
sI14
F6728.206666666666
ssS'ref1magmeanerr'
p125
(dp126
I0
F0.014156270695349391
sI1
Fnan
sI2
Fnan
sI3
Fnan
sI4
Fnan
sI5
Fnan
sI6
Fnan
sI7
Fnan
sI8
Fnan
sI9
Fnan
sI10
Fnan
sI11
Fnan
sI12
Fnan
sI13
Fnan
sI14
Fnan
ssS'filter'
p127
(dp128
I0
g1
sI1
g1
sI2
g1
sI3
g1
sI4
g1
sI5
g1
sI6
g1
sI7
g1
sI8
g1
sI9
g1
sI10
g1
sI11
g1
sI12
g1
sI13
g1
sI14
g1
ssS'tabbymagerr'
p129
(dp130
I0
F0.0011523136417327484
sI1
Fnan
sI2
Fnan
sI3
Fnan
sI4
Fnan
sI5
Fnan
sI6
Fnan
sI7
Fnan
sI8
Fnan
sI9
Fnan
sI10
Fnan
sI11
Fnan
sI12
Fnan
sI13
Fnan
sI14
Fnan
ssS'tabbyrms'
p131
(dp132
I0
F1.975996
sI1
F3.447326
sI2
F4.132407
sI3
F-1.238994
sI4
F1.11117
sI5
F-3.104406
sI6
F-1.638612
sI7
F2.244014
sI8
F2.538048
sI9
F-2.388243
sI10
F4.156488
sI11
F-1.91977
sI12
F4.06363
sI13
F3.805153
sI14
F3.487492
ssS'ref3mean'
p133
(dp134
I0
F1.5072575580827883
sI1
Fnan
sI2
Fnan
sI3
Fnan
sI4
Fnan
sI5
Fnan
sI6
Fnan
sI7
Fnan
sI8
Fnan
sI9
Fnan
sI10
Fnan
sI11
Fnan
sI12
Fnan
sI13
Fnan
sI14
Fnan
ssS'median_JD'
p135
(dp136
I0
F2458305.7892939816
sI1
Fnan
sI2
Fnan
sI3
Fnan
sI4
Fnan
sI5
Fnan
sI6
Fnan
sI7
Fnan
sI8
Fnan
sI9
Fnan
sI10
Fnan
sI11
Fnan
sI12
Fnan
sI13
Fnan
sI14
Fnan
ssS'error'
p137
(dp138
I0
F0.0011523136417327484
sI1
Fnan
sI2
Fnan
sI3
Fnan
sI4
Fnan
sI5
Fnan
sI6
Fnan
sI7
Fnan
sI8
Fnan
sI9
Fnan
sI10
Fnan
sI11
Fnan
sI12
Fnan
sI13
Fnan
sI14
Fnan
ssS'ref3bkg'
p139
(dp140
I0
F14.285
sI1
F14.84404
sI2
F16.49749
sI3
F14.36223
sI4
F16.52959
sI5
F15.01666
sI6
F18.28289
sI7
F15.35948
sI8
F16.16427
sI9
F17.6404
sI10
F15.03928
sI11
F15.32051
sI12
F15.09342
sI13
F15.36543
sI14
F16.77806
ssS'ref3mag'
p141
(dp142
I0
F10.723
sI1
F10.732
sI2
F10.741
sI3
F10.73
sI4
F10.746
sI5
F10.743
sI6
F10.763
sI7
F10.746
sI8
F10.745
sI9
F10.764
sI10
F10.731
sI11
F10.731
sI12
F10.726
sI13
F10.731
sI14
F10.758
ssS'mean'
p143
(dp144
I0
F0.6925366083978278
sI1
Fnan
sI2
Fnan
sI3
Fnan
sI4
Fnan
sI5
Fnan
sI6
Fnan
sI7
Fnan
sI8
Fnan
sI9
Fnan
sI10
Fnan
sI11
Fnan
sI12
Fnan
sI13
Fnan
sI14
Fnan
sss.