(dp0
S'V'
p1
(dp2
S'sigmean'
p3
(dp4
I0
F0.692709922093053
sI1
Fnan
sI2
Fnan
sI3
Fnan
sI4
Fnan
sI5
Fnan
sI6
Fnan
sI7
Fnan
ssS'ref3flag'
p5
(dp6
I0
S'NoError'
p7
sI1
S'NoError'
p8
sI2
S'NoError'
p9
sI3
S'NoError'
p10
sI4
S'NoError'
p11
sI5
S'NoError'
p12
sI6
S'NoError'
p13
sI7
S'NoError'
p14
ssS'tabbyerr'
p15
(dp16
I0
F0.002
sI1
F0.002
sI2
F0.002
sI3
F0.002
sI4
F0.002
sI5
F0.002
sI6
F0.002
sI7
F0.002
ssS'ref2rel'
p17
(dp18
I0
F0.8803093235771586
sI1
F0.8891875666341595
sI2
F0.8868257632317225
sI3
F0.8835751877905689
sI4
F0.8938863890689759
sI5
F0.8896199178879836
sI6
F0.881677603142293
sI7
F0.8865674924864397
ssS'ref2err'
p19
(dp20
I0
F0.004499927875400704
sI1
Fnan
sI2
Fnan
sI3
Fnan
sI4
Fnan
sI5
Fnan
sI6
Fnan
sI7
Fnan
ssS'ref2mean'
p21
(dp22
I0
F0.8864561554774127
sI1
Fnan
sI2
Fnan
sI3
Fnan
sI4
Fnan
sI5
Fnan
sI6
Fnan
sI7
Fnan
ssS'tabbymag'
p23
(dp24
I0
F11.553
sI1
F11.486
sI2
F11.497
sI3
F11.51
sI4
F11.514
sI5
F11.485
sI6
F11.57
sI7
F11.486
ssS'tabbybkg'
p25
(dp26
I0
F103.7839
sI1
F109.5682
sI2
F109.4006
sI3
F101.565
sI4
F102.664
sI5
F107.0443
sI6
F104.1783
sI7
F107.6916
ssS'JD'
p27
(dp28
I0
F2458295.773611111
sI1
F2458295.758125
sI2
F2458295.759907407
sI3
F2458295.772662037
sI4
F2458295.7717708335
sI5
F2458295.757233796
sI6
F2458295.7744907406
sI7
F2458295.7590162037
ssS'ref3rmsmean'
p29
(dp30
I0
F2.342359375
sI1
Fnan
sI2
Fnan
sI3
Fnan
sI4
Fnan
sI5
Fnan
sI6
Fnan
sI7
Fnan
ssS'ref1rmsmean'
p31
(dp32
I0
F1.3559032500000003
sI1
Fnan
sI2
Fnan
sI3
Fnan
sI4
Fnan
sI5
Fnan
sI6
Fnan
sI7
Fnan
ssS'relflux'
p33
(dp34
I0
F0.6921753123603439
sI1
F0.6927331981250693
sI2
F0.6950174055001821
sI3
F0.6946307125523727
sI4
F0.6909765839782468
sI5
F0.6934990507462412
sI6
F0.6899371913889145
sI7
F0.6964601315572158
ssS'sigerr'
p35
(dp36
I0
F0.0017161204424914092
sI1
Fnan
sI2
Fnan
sI3
Fnan
sI4
Fnan
sI5
Fnan
sI6
Fnan
sI7
Fnan
ssS'tabbyrmsmean'
p37
(dp38
I0
F3.6141983749999995
sI1
Fnan
sI2
Fnan
sI3
Fnan
sI4
Fnan
sI5
Fnan
sI6
Fnan
sI7
Fnan
ssS'tabbyflag'
p39
(dp40
I0
g7
sI1
g8
sI2
g9
sI3
g10
sI4
g11
sI5
g12
sI6
g13
sI7
g14
ssS'ref1err'
p41
(dp42
I0
F0.003228444897375799
sI1
Fnan
sI2
Fnan
sI3
Fnan
sI4
Fnan
sI5
Fnan
sI6
Fnan
sI7
Fnan
ssS'ref2magmeanerr'
p43
(dp44
I0
F0.032970766272129914
sI1
Fnan
sI2
Fnan
sI3
Fnan
sI4
Fnan
sI5
Fnan
sI6
Fnan
sI7
Fnan
ssS'ref2rmsmean'
p45
(dp46
I0
F-0.08558825000000025
sI1
Fnan
sI2
Fnan
sI3
Fnan
sI4
Fnan
sI5
Fnan
sI6
Fnan
sI7
Fnan
ssS'ref3rel'
p47
(dp48
I0
F1.5079946770518748
sI1
F1.4970792531861896
sI2
F1.496850848334477
sI3
F1.5173611829898523
sI4
F1.4977136751492068
sI5
F1.4989109991056542
sI6
F1.513440356567317
sI7
F1.4998448960634114
ssS'ref1flag'
p49
(dp50
I0
g7
sI1
g8
sI2
g9
sI3
g10
sI4
g11
sI5
g12
sI6
g13
sI7
g14
ssS'ref2bkg'
p51
(dp52
I0
F105.8277
sI1
F108.7368
sI2
F110.2945
sI3
F102.5956
sI4
F104.0695
sI5
F109.223
sI6
F106.314
sI7
F110.5998
ssS'ref3magmean'
p53
(dp54
I0
F10.840625
sI1
Fnan
sI2
Fnan
sI3
Fnan
sI4
Fnan
sI5
Fnan
sI6
Fnan
sI7
Fnan
ssS'ref1mean'
p55
(dp56
I0
F0.7163933688390733
sI1
Fnan
sI2
Fnan
sI3
Fnan
sI4
Fnan
sI5
Fnan
sI6
Fnan
sI7
Fnan
ssS'ref1rms'
p57
(dp58
I0
F4.48542
sI1
F4.130346
sI2
F-5.061685
sI3
F-3.476439
sI4
F4.171477
sI5
F-3.392308
sI6
F3.756889
sI7
F6.233526
ssS'ref2magmean'
p59
(dp60
I0
F11.20375
sI1
Fnan
sI2
Fnan
sI3
Fnan
sI4
Fnan
sI5
Fnan
sI6
Fnan
sI7
Fnan
ssS'ref2flag'
p61
(dp62
I0
g7
sI1
g8
sI2
g9
sI3
g10
sI4
g11
sI5
g12
sI6
g13
sI7
g14
ssS'ref2'
p63
(dp64
I0
F7957.437777777778
sI1
F8518.124444444444
sI2
F8388.784444444444
sI3
F8272.366666666667
sI4
F8355.460000000001
sI5
F8522.2
sI6
F7866.831111111112
sI7
F8455.044444444444
ssS'airmass'
p65
(dp66
I0
F1.179522
sI1
F1.235716
sI2
F1.2286629999999998
sI3
F1.182652
sI4
F1.185618
sI5
F1.239284
sI6
F1.176617
sI7
F1.2322030000000002
ssS'ref1'
p67
(dp68
I0
F6886.466666666666
sI1
F7310.78
sI2
F7229.531111111111
sI3
F7078.417777777778
sI4
F7111.866666666667
sI5
F7300.662222222222
sI6
F6769.52
sI7
F7276.3422222222225
ssS'ref3'
p69
(dp70
I0
F11192.264444444445
sI1
F11848.562222222223
sI2
F11689.144444444444
sI3
F11646.342222222223
sI4
F11582.813333333334
sI5
F11858.531111111111
sI6
F11075.622222222222
sI7
F11797.32
ssS'ref1bkg'
p71
(dp72
I0
F105.0276
sI1
F108.6205
sI2
F109.9132
sI3
F102.413
sI4
F104.2028
sI5
F108.7916
sI6
F103.6042
sI7
F108.2219
ssS'ref1mag'
p73
(dp74
I0
F11.405
sI1
F11.34
sI2
F11.352
sI3
F11.375
sI4
F11.37
sI5
F11.342
sI6
F11.424
sI7
F11.345
ssS'ref3magerr'
p75
(dp76
I0
F0.002
sI1
F0.002
sI2
F0.002
sI3
F0.002
sI4
F0.002
sI5
F0.002
sI6
F0.002
sI7
F0.002
ssS'tabbymagmean'
p77
(dp78
I0
F0.6931786982760733
sI1
Fnan
sI2
Fnan
sI3
Fnan
sI4
Fnan
sI5
Fnan
sI6
Fnan
sI7
Fnan
ssS'ref1magmean'
p79
(dp80
I0
F11.369124999999999
sI1
Fnan
sI2
Fnan
sI3
Fnan
sI4
Fnan
sI5
Fnan
sI6
Fnan
sI7
Fnan
ssS'ref2mag'
p81
(dp82
I0
F11.248
sI1
F11.174
sI2
F11.191
sI3
F11.206
sI4
F11.195
sI5
F11.174
sI6
F11.26
sI7
F11.182
ssS'ref3rms'
p83
(dp84
I0
F4.884768
sI1
F-3.095522
sI2
F5.238463
sI3
F6.135044
sI4
F-3.97666
sI5
F6.897808
sI6
F6.300705
sI7
F-3.645731
ssS'ref3magmeanerr'
p85
(dp86
I0
F0.028055748074146805
sI1
Fnan
sI2
Fnan
sI3
Fnan
sI4
Fnan
sI5
Fnan
sI6
Fnan
sI7
Fnan
ssS'ref1rel'
p87
(dp88
I0
F0.7192244126569534
sI1
F0.7179154979553211
sI2
F0.7201470979521128
sI3
F0.7107305817121792
sI4
F0.7133884211304155
sI5
F0.7164279026518403
sI6
F0.7147458548135969
sI7
F0.7185671818401671
ssS'exposure'
p89
(dp90
I0
F45.0
sI1
F45.0
sI2
F45.0
sI3
F45.0
sI4
F45.0
sI5
F45.0
sI6
F45.0
sI7
F45.0
ssS'ref1magerr'
p91
(dp92
I0
F0.002
sI1
F0.002
sI2
F0.002
sI3
F0.002
sI4
F0.002
sI5
F0.002
sI6
F0.002
sI7
F0.002
ssS'ref2magerr'
p93
(dp94
I0
F0.002
sI1
F0.002
sI2
F0.002
sI3
F0.002
sI4
F0.002
sI5
F0.002
sI6
F0.002
sI7
F0.002
ssS'ref2rms'
p95
(dp96
I0
F4.946018
sI1
F5.042528
sI2
F-4.920746
sI3
F5.514219
sI4
F-3.292654
sI5
F4.153817
sI6
F-6.058741
sI7
F-6.069147
ssS'name'
p97
(dp98
I0
S'KIC8462852-20180626at063400_-25-1-045-V_cal.fts.mag.1'
p99
sI1
S'KIC8462852-20180626at061142_-25-1-045-V_cal.fts.mag.1'
p100
sI2
S'KIC8462852-20180626at061416_-25-1-045-V_cal.fts.mag.1'
p101
sI3
S'KIC8462852-20180626at063238_-25-1-045-V_cal.fts.mag.1'
p102
sI4
S'KIC8462852-20180626at063119_-25-1-045-V_cal.fts.mag.1'
p103
sI5
S'KIC8462852-20180626at061023_-25-1-045-V_cal.fts.mag.1'
p104
sI6
S'KIC8462852-20180626at063516_-25-1-045-V_cal.fts.mag.1'
p105
sI7
S'KIC8462852-20180626at061258_-25-1-045-V_cal.fts.mag.1'
p106
ssS'ref3err'
p107
(dp108
I0
F0.008144269786695635
sI1
Fnan
sI2
Fnan
sI3
Fnan
sI4
Fnan
sI5
Fnan
sI6
Fnan
sI7
Fnan
ssS'tabby'
p109
(dp110
I0
F6007.197777777778
sI1
F6391.033333333334
sI2
F6326.386666666667
sI3
F6251.011111111111
sI4
F6230.337777777778
sI5
F6399.006666666666
sI6
F5913.2155555555555
sI7
F6390.8822222222225
ssS'ref1magmeanerr'
p111
(dp112
I0
F0.031151415927461314
sI1
Fnan
sI2
Fnan
sI3
Fnan
sI4
Fnan
sI5
Fnan
sI6
Fnan
sI7
Fnan
ssS'filter'
p113
(dp114
I0
g1
sI1
g1
sI2
g1
sI3
g1
sI4
g1
sI5
g1
sI6
g1
sI7
g1
ssS'tabbymagerr'
p115
(dp116
I0
F0.002168658168378309
sI1
Fnan
sI2
Fnan
sI3
Fnan
sI4
Fnan
sI5
Fnan
sI6
Fnan
sI7
Fnan
ssS'tabbyrms'
p117
(dp118
I0
F-3.004771
sI1
F4.776848
sI2
F5.67796
sI3
F3.069738
sI4
F3.710734
sI5
F5.233085
sI6
F4.11838
sI7
F5.331613
ssS'ref3mean'
p119
(dp120
I0
F1.503649486055998
sI1
Fnan
sI2
Fnan
sI3
Fnan
sI4
Fnan
sI5
Fnan
sI6
Fnan
sI7
Fnan
ssS'median_JD'
p121
(dp122
I0
F2458295.7658391204
sI1
Fnan
sI2
Fnan
sI3
Fnan
sI4
Fnan
sI5
Fnan
sI6
Fnan
sI7
Fnan
ssS'error'
p123
(dp124
I0
F0.002168658168378309
sI1
Fnan
sI2
Fnan
sI3
Fnan
sI4
Fnan
sI5
Fnan
sI6
Fnan
sI7
Fnan
ssS'ref3bkg'
p125
(dp126
I0
F107.6292
sI1
F111.1951
sI2
F111.1262
sI3
F104.0066
sI4
F105.8851
sI5
F109.2002
sI6
F107.5041
sI7
F111.1117
ssS'ref3mag'
p127
(dp128
I0
F10.878
sI1
F10.816
sI2
F10.831
sI3
F10.835
sI4
F10.84
sI5
F10.815
sI6
F10.889
sI7
F10.821
ssS'mean'
p129
(dp130
I0
F0.6931786982760733
sI1
Fnan
sI2
Fnan
sI3
Fnan
sI4
Fnan
sI5
Fnan
sI6
Fnan
sI7
Fnan
sss.