(dp0
S'r'
p1
(dp2
S'sigmean'
p3
(dp4
I0
F0.5500650597384225
sI1
Fnan
sI2
Fnan
sI3
Fnan
sI4
Fnan
sI5
Fnan
sI6
Fnan
sI7
Fnan
ssS'ref3flag'
p5
(dp6
I0
S'NoError'
p7
sI1
S'NoError'
p8
sI2
S'NoError'
p9
sI3
S'NoError'
p10
sI4
S'NoError'
p11
sI5
S'NoError'
p12
sI6
S'NoError'
p13
sI7
S'NoError'
p14
ssS'tabbyerr'
p15
(dp16
I0
F0.002
sI1
F0.002
sI2
F0.002
sI3
F0.002
sI4
F0.002
sI5
F0.002
sI6
F0.002
sI7
F0.002
ssS'ref2rel'
p17
(dp18
I0
F0.8954751416300533
sI1
F0.8973324603575564
sI2
F0.8970000756144407
sI3
F0.8961182919001222
sI4
F0.8963127176905131
sI5
F0.8916966239636942
sI6
F0.895175728131925
sI7
F0.8965563568880874
ssS'ref2err'
p19
(dp20
I0
F0.0017724372166874162
sI1
Fnan
sI2
Fnan
sI3
Fnan
sI4
Fnan
sI5
Fnan
sI6
Fnan
sI7
Fnan
ssS'ref2mean'
p21
(dp22
I0
F0.895708424522049
sI1
Fnan
sI2
Fnan
sI3
Fnan
sI4
Fnan
sI5
Fnan
sI6
Fnan
sI7
Fnan
ssS'tabbymag'
p23
(dp24
I0
F11.166
sI1
F11.164
sI2
F11.181
sI3
F11.157
sI4
F11.175
sI5
F11.162
sI6
F11.187
sI7
F11.19
ssS'tabbybkg'
p25
(dp26
I0
F9.49281
sI1
F8.188519
sI2
F8.678347
sI3
F7.855392
sI4
F9.111159
sI5
F7.936528
sI6
F9.033424
sI7
F9.585649
ssS'JD'
p27
(dp28
I0
F2458280.8224768518
sI1
F2458280.823310185
sI2
F2458280.812314815
sI3
F2458280.8249652777
sI4
F2458280.814791667
sI5
F2458280.824131944
sI6
F2458280.8139699074
sI7
F2458280.813136574
ssS'ref3rmsmean'
p29
(dp30
I0
F2.5290495
sI1
Fnan
sI2
Fnan
sI3
Fnan
sI4
Fnan
sI5
Fnan
sI6
Fnan
sI7
Fnan
ssS'ref1rmsmean'
p31
(dp32
I0
F0.45503562499999983
sI1
Fnan
sI2
Fnan
sI3
Fnan
sI4
Fnan
sI5
Fnan
sI6
Fnan
sI7
Fnan
ssS'relflux'
p33
(dp34
I0
F0.5500436697055441
sI1
F0.5498801468813216
sI2
F0.550995294358653
sI3
F0.5490613138453617
sI4
F0.5495461303779985
sI5
F0.5504169912792031
sI6
F0.5505118717208751
sI7
F0.5473258848709014
ssS'sigerr'
p35
(dp36
I0
F0.0005976474119303205
sI1
Fnan
sI2
Fnan
sI3
Fnan
sI4
Fnan
sI5
Fnan
sI6
Fnan
sI7
Fnan
ssS'tabbyrmsmean'
p37
(dp38
I0
F1.3589726249999998
sI1
Fnan
sI2
Fnan
sI3
Fnan
sI4
Fnan
sI5
Fnan
sI6
Fnan
sI7
Fnan
ssS'tabbyflag'
p39
(dp40
I0
g7
sI1
g8
sI2
g9
sI3
g10
sI4
g11
sI5
g12
sI6
g13
sI7
g14
ssS'ref1err'
p41
(dp42
I0
F0.0013888927429689438
sI1
Fnan
sI2
Fnan
sI3
Fnan
sI4
Fnan
sI5
Fnan
sI6
Fnan
sI7
Fnan
ssS'ref2magmeanerr'
p43
(dp44
I0
F0.011770878107795101
sI1
Fnan
sI2
Fnan
sI3
Fnan
sI4
Fnan
sI5
Fnan
sI6
Fnan
sI7
Fnan
ssS'ref2rmsmean'
p45
(dp46
I0
F0.9010527500000001
sI1
Fnan
sI2
Fnan
sI3
Fnan
sI4
Fnan
sI5
Fnan
sI6
Fnan
sI7
Fnan
ssS'ref3rel'
p47
(dp48
I0
F1.4964024754121794
sI1
F1.4914083786374073
sI2
F1.4936920682532426
sI3
F1.4917352873842955
sI4
F1.4948691188394134
sI5
F1.4973371332446068
sI6
F1.49939699023897
sI7
F1.494802776164068
ssS'ref1flag'
p49
(dp50
I0
g7
sI1
g8
sI2
g9
sI3
g10
sI4
g11
sI5
g12
sI6
g13
sI7
g14
ssS'ref2bkg'
p51
(dp52
I0
F10.98242
sI1
F10.50401
sI2
F9.994206
sI3
F9.576932
sI4
F11.43296
sI5
F10.30198
sI6
F11.739
sI7
F11.65132
ssS'ref3magmean'
p53
(dp54
I0
F10.252125
sI1
Fnan
sI2
Fnan
sI3
Fnan
sI4
Fnan
sI5
Fnan
sI6
Fnan
sI7
Fnan
ssS'ref1mean'
p55
(dp56
I0
F0.7134513490221449
sI1
Fnan
sI2
Fnan
sI3
Fnan
sI4
Fnan
sI5
Fnan
sI6
Fnan
sI7
Fnan
ssS'ref1rms'
p57
(dp58
I0
F1.939204
sI1
F-3.390224
sI2
F-2.457593
sI3
F3.310437
sI4
F1.366509
sI5
F2.730067
sI6
F-2.976639
sI7
F3.118524
ssS'ref2magmean'
p59
(dp60
I0
F10.604375000000001
sI1
Fnan
sI2
Fnan
sI3
Fnan
sI4
Fnan
sI5
Fnan
sI6
Fnan
sI7
Fnan
ssS'ref2flag'
p61
(dp62
I0
g7
sI1
g8
sI2
g9
sI3
g10
sI4
g11
sI5
g12
sI6
g13
sI7
g14
ssS'ref2'
p63
(dp64
I0
F14481.82
sI1
F14523.095555555557
sI2
F14274.92
sI3
F14635.16
sI4
F14378.204444444444
sI5
F14483.164444444445
sI6
F14187.166666666666
sI7
F14236.375555555556
ssS'airmass'
p65
(dp66
I0
F1.154667
sI1
F1.15221
sI2
F1.18703
sI3
F1.147365
sI4
F1.178736
sI5
F1.149773
sI6
F1.1814850000000001
sI7
F1.184228
ssS'ref1'
p67
(dp68
I0
F12303.573333333334
sI1
F12338.604444444443
sI2
F12117.248888888887
sI3
F12456.593333333332
sI4
F12210.037777777778
sI5
F12375.942222222222
sI6
F12036.842222222223
sI7
F12085.155555555555
ssS'ref3'
p69
(dp70
I0
F20040.864444444444
sI1
F20030.882222222222
sI2
F19710.886666666665
sI3
F20206.862222222222
sI4
F19872.97111111111
sI5
F20108.568888888887
sI6
F19660.1
sI7
F19672.748888888887
ssS'ref1bkg'
p71
(dp72
I0
F9.640405
sI1
F9.800635
sI2
F10.92077
sI3
F8.808057
sI4
F9.957328
sI5
F8.912692
sI6
F11.22709
sI7
F10.07916
ssS'ref1mag'
p73
(dp74
I0
F10.775
sI1
F10.772
sI2
F10.791
sI3
F10.762
sI4
F10.783
sI5
F10.769
sI6
F10.799
sI7
F10.794
ssS'ref3magerr'
p75
(dp76
I0
F0.001
sI1
F0.001
sI2
F0.001
sI3
F0.001
sI4
F0.001
sI5
F0.001
sI6
F0.001
sI7
F0.001
ssS'tabbymagmean'
p77
(dp78
I0
F0.5497226628799823
sI1
Fnan
sI2
Fnan
sI3
Fnan
sI4
Fnan
sI5
Fnan
sI6
Fnan
sI7
Fnan
ssS'ref1magmean'
p79
(dp80
I0
F10.780625
sI1
Fnan
sI2
Fnan
sI3
Fnan
sI4
Fnan
sI5
Fnan
sI6
Fnan
sI7
Fnan
ssS'ref2mag'
p81
(dp82
I0
F10.598
sI1
F10.595
sI2
F10.614
sI3
F10.587
sI4
F10.606
sI5
F10.598
sI6
F10.62
sI7
F10.617
ssS'ref3rms'
p83
(dp84
I0
F-2.09184
sI1
F2.75912
sI2
F3.335007
sI3
F3.709706
sI4
F3.782073
sI5
F3.474032
sI6
F2.156635
sI7
F3.107663
ssS'ref3magmeanerr'
p85
(dp86
I0
F0.01153178836335196
sI1
Fnan
sI2
Fnan
sI3
Fnan
sI4
Fnan
sI5
Fnan
sI6
Fnan
sI7
Fnan
ssS'ref1rel'
p87
(dp88
I0
F0.7127819595334675
sI1
F0.7141640550790421
sI2
F0.7130770211067848
sI3
F0.715032741434194
sI4
F0.7129704355970523
sI5
F0.715543341119394
sI6
F0.711244564635779
sI7
F0.7127966736714457
ssS'exposure'
p89
(dp90
I0
F45.0
sI1
F45.0
sI2
F45.0
sI3
F45.0
sI4
F45.0
sI5
F45.0
sI6
F45.0
sI7
F45.0
ssS'ref1magerr'
p91
(dp92
I0
F0.001
sI1
F0.001
sI2
F0.001
sI3
F0.001
sI4
F0.001
sI5
F0.001
sI6
F0.001
sI7
F0.001
ssS'ref2magerr'
p93
(dp94
I0
F0.001
sI1
F0.001
sI2
F0.001
sI3
F0.001
sI4
F0.001
sI5
F0.001
sI6
F0.001
sI7
F0.001
ssS'ref2rms'
p95
(dp96
I0
F2.650738
sI1
F-3.973051
sI2
F3.337618
sI3
F3.217346
sI4
F4.067921
sI5
F-2.866571
sI6
F-2.879026
sI7
F3.653447
ssS'name'
p97
(dp98
I0
S"KIC8462852-20180611at074420_-25-1-045-r'_cal.fts.mag.1"
p99
sI1
S"KIC8462852-20180611at074534_-25-1-045-r'_cal.fts.mag.1"
p100
sI2
S"KIC8462852-20180611at072942_-25-1-045-r'_cal.fts.mag.1"
p101
sI3
S"KIC8462852-20180611at074757_-25-1-045-r'_cal.fts.mag.1"
p102
sI4
S"KIC8462852-20180611at073318_-25-1-045-r'_cal.fts.mag.1"
p103
sI5
S"KIC8462852-20180611at074645_-25-1-045-r'_cal.fts.mag.1"
p104
sI6
S"KIC8462852-20180611at073207_-25-1-045-r'_cal.fts.mag.1"
p105
sI7
S"KIC8462852-20180611at073055_-25-1-045-r'_cal.fts.mag.1"
p106
ssS'ref3err'
p107
(dp108
I0
F0.0027274172920970876
sI1
Fnan
sI2
Fnan
sI3
Fnan
sI4
Fnan
sI5
Fnan
sI6
Fnan
sI7
Fnan
ssS'tabby'
p109
(dp110
I0
F8585.495555555555
sI1
F8595.1
sI2
F8467.522222222222
sI3
F8656.613333333333
sI4
F8510.86
sI5
F8617.268888888888
sI6
F8419.915555555555
sI7
F8391.286666666667
ssS'ref1magmeanerr'
p111
(dp112
I0
F0.013190229067652265
sI1
Fnan
sI2
Fnan
sI3
Fnan
sI4
Fnan
sI5
Fnan
sI6
Fnan
sI7
Fnan
ssS'filter'
p113
(dp114
I0
S"r'"
p115
sI1
S"r'"
p116
sI2
S"r'"
p117
sI3
S"r'"
p118
sI4
S"r'"
p119
sI5
S"r'"
p120
sI6
S"r'"
p121
sI7
S"r'"
p122
ssS'tabbymagerr'
p123
(dp124
I0
F0.0011380102364848836
sI1
Fnan
sI2
Fnan
sI3
Fnan
sI4
Fnan
sI5
Fnan
sI6
Fnan
sI7
Fnan
ssS'tabbyrms'
p125
(dp126
I0
F-3.663414
sI1
F2.058807
sI2
F3.381569
sI3
F-3.576776
sI4
F3.663226
sI5
F3.164675
sI6
F3.438354
sI7
F2.40534
ssS'ref3mean'
p127
(dp128
I0
F1.4949555285217728
sI1
Fnan
sI2
Fnan
sI3
Fnan
sI4
Fnan
sI5
Fnan
sI6
Fnan
sI7
Fnan
ssS'median_JD'
p129
(dp130
I0
F2458280.8186342595
sI1
Fnan
sI2
Fnan
sI3
Fnan
sI4
Fnan
sI5
Fnan
sI6
Fnan
sI7
Fnan
ssS'error'
p131
(dp132
I0
F0.0011380102364848836
sI1
Fnan
sI2
Fnan
sI3
Fnan
sI4
Fnan
sI5
Fnan
sI6
Fnan
sI7
Fnan
ssS'ref3bkg'
p133
(dp134
I0
F12.57972
sI1
F12.37219
sI2
F13.21821
sI3
F13.07085
sI4
F12.91814
sI5
F12.54343
sI6
F14.22788
sI7
F13.37271
ssS'ref3mag'
p135
(dp136
I0
F10.245
sI1
F10.246
sI2
F10.263
sI3
F10.236
sI4
F10.254
sI5
F10.242
sI6
F10.266
sI7
F10.265
ssS'mean'
p137
(dp138
I0
F0.5497226628799823
sI1
Fnan
sI2
Fnan
sI3
Fnan
sI4
Fnan
sI5
Fnan
sI6
Fnan
sI7
Fnan
sssS'z'
p139
(dp140
g3
(dp141
I0
F0.37351242047149874
sI1
Fnan
sI2
Fnan
sI3
Fnan
sI4
Fnan
sI5
Fnan
sI6
Fnan
sI7
Fnan
ssg5
(dp142
I0
S'NoError'
p143
sI1
S'NoError'
p144
sI2
S'NoError'
p145
sI3
S'NoError'
p146
sI4
S'NoError'
p147
sI5
S'NoError'
p148
sI6
S'NoError'
p149
sI7
S'NoError'
p150
ssg15
(dp151
I0
F0.006
sI1
F0.006
sI2
F0.006
sI3
F0.006
sI4
F0.006
sI5
F0.007
sI6
F0.006
sI7
F0.006
ssg17
(dp152
I0
F0.9203212964774794
sI1
F0.9183279062763465
sI2
F0.9158724910441906
sI3
F0.9210491359882716
sI4
F0.9199683237324615
sI5
F0.9173186818281925
sI6
F0.9238195206163908
sI7
F0.9081851548803367
ssg19
(dp153
I0
F0.004686804753310853
sI1
Fnan
sI2
Fnan
sI3
Fnan
sI4
Fnan
sI5
Fnan
sI6
Fnan
sI7
Fnan
ssg21
(dp154
I0
F0.9181078138554587
sI1
Fnan
sI2
Fnan
sI3
Fnan
sI4
Fnan
sI5
Fnan
sI6
Fnan
sI7
Fnan
ssg23
(dp155
I0
F13.25
sI1
F13.233
sI2
F13.248
sI3
F13.261
sI4
F13.22
sI5
F13.256
sI6
F13.233
sI7
F13.251
ssg25
(dp156
I0
F3.833988
sI1
F2.641762
sI2
F3.65565
sI3
F2.789844
sI4
F2.081233
sI5
F3.138632
sI6
F3.248423
sI7
F2.862628
ssg27
(dp157
I0
F2458280.8156597223
sI1
F2458280.8266550926
sI2
F2458280.825821759
sI3
F2458280.817326389
sI4
F2458280.828310185
sI5
F2458280.8181597223
sI6
F2458280.827488426
sI7
F2458280.816493056
ssg29
(dp158
I0
F-0.8953977499999999
sI1
Fnan
sI2
Fnan
sI3
Fnan
sI4
Fnan
sI5
Fnan
sI6
Fnan
sI7
Fnan
ssg31
(dp159
I0
F2.45306125
sI1
Fnan
sI2
Fnan
sI3
Fnan
sI4
Fnan
sI5
Fnan
sI6
Fnan
sI7
Fnan
ssg33
(dp160
I0
F0.3733926409440006
sI1
F0.3723377190570318
sI2
F0.36739061102805864
sI3
F0.3741449567083154
sI4
F0.3764869269174577
sI5
F0.3731447340538249
sI6
F0.371782473555838
sI7
F0.3732974920640227
ssg35
(dp161
I0
F0.0014048978147579775
sI1
Fnan
sI2
Fnan
sI3
Fnan
sI4
Fnan
sI5
Fnan
sI6
Fnan
sI7
Fnan
ssg37
(dp162
I0
F1.507354125
sI1
Fnan
sI2
Fnan
sI3
Fnan
sI4
Fnan
sI5
Fnan
sI6
Fnan
sI7
Fnan
ssg39
(dp163
I0
g143
sI1
g144
sI2
g145
sI3
g146
sI4
g147
sI5
g148
sI6
g149
sI7
g150
ssg41
(dp164
I0
F0.0036452217676674736
sI1
Fnan
sI2
Fnan
sI3
Fnan
sI4
Fnan
sI5
Fnan
sI6
Fnan
sI7
Fnan
ssg43
(dp165
I0
F0.015332039282868614
sI1
Fnan
sI2
Fnan
sI3
Fnan
sI4
Fnan
sI5
Fnan
sI6
Fnan
sI7
Fnan
ssg45
(dp166
I0
F2.299008625
sI1
Fnan
sI2
Fnan
sI3
Fnan
sI4
Fnan
sI5
Fnan
sI6
Fnan
sI7
Fnan
ssg47
(dp167
I0
F1.508050960774446
sI1
F1.5021793095321991
sI2
F1.5050276701485348
sI3
F1.5018240885592076
sI4
F1.4999371855267907
sI5
F1.4976471269470555
sI6
F1.505946796232878
sI7
F1.5117864098362428
ssg49
(dp168
I0
g143
sI1
g144
sI2
g145
sI3
g146
sI4
g147
sI5
g148
sI6
g149
sI7
g150
ssg51
(dp169
I0
F3.102033
sI1
F3.451475
sI2
F2.950301
sI3
F4.146736
sI4
F3.698723
sI5
F3.658286
sI6
F3.49945
sI7
F3.217056
ssg53
(dp170
I0
F11.898125
sI1
Fnan
sI2
Fnan
sI3
Fnan
sI4
Fnan
sI5
Fnan
sI6
Fnan
sI7
Fnan
ssg55
(dp171
I0
F0.6887045655968072
sI1
Fnan
sI2
Fnan
sI3
Fnan
sI4
Fnan
sI5
Fnan
sI6
Fnan
sI7
Fnan
ssg57
(dp172
I0
F3.447339
sI1
F3.794744
sI2
F1.470789
sI3
F4.138961
sI4
F-2.492449
sI5
F1.658727
sI6
F3.757039
sI7
F3.84934
ssg59
(dp173
I0
F12.23525
sI1
Fnan
sI2
Fnan
sI3
Fnan
sI4
Fnan
sI5
Fnan
sI6
Fnan
sI7
Fnan
ssg61
(dp174
I0
g143
sI1
g144
sI2
g145
sI3
g146
sI4
g147
sI5
g148
sI6
g149
sI7
g150
ssg63
(dp175
I0
F3187.757777777778
sI1
F3242.3066666666664
sI2
F3234.722222222222
sI3
F3151.08
sI4
F3247.633333333333
sI5
F3165.52
sI6
F3261.2933333333335
sI7
F3155.9222222222224
ssg65
(dp176
I0
F1.175916
sI1
F1.142525
sI2
F1.1449040000000001
sI3
F1.170555
sI4
F1.137875
sI5
F1.167905
sI6
F1.140188
sI7
F1.173226
ssg67
(dp177
I0
F2579.117777777778
sI1
F2641.8199999999997
sI2
F2641.646666666667
sI3
F2556.488888888889
sI4
F2642.728888888889
sI5
F2591.0355555555557
sI6
F2626.8444444444444
sI7
F2599.482222222222
ssg69
(dp178
I0
F4348.3711111111115
sI1
F4419.506666666666
sI2
F4422.048888888889
sI3
F4285.8822222222225
sI4
F4417.586666666666
sI5
F4310.644444444444
sI6
F4433.611111111111
sI7
F4350.471111111111
ssg71
(dp179
I0
F3.88572
sI1
F2.974581
sI2
F2.623255
sI3
F3.660006
sI4
F3.327894
sI5
F3.192433
sI6
F4.200651
sI7
F2.565381
ssg73
(dp180
I0
F12.471
sI1
F12.445
sI2
F12.445
sI3
F12.481
sI4
F12.445
sI5
F12.466
sI6
F12.451
sI7
F12.463
ssg75
(dp181
I0
F0.003
sI1
F0.003
sI2
F0.003
sI3
F0.003
sI4
F0.003
sI5
F0.003
sI6
F0.003
sI7
F0.003
ssg77
(dp182
I0
F0.37274719429106873
sI1
Fnan
sI2
Fnan
sI3
Fnan
sI4
Fnan
sI5
Fnan
sI6
Fnan
sI7
Fnan
ssg79
(dp183
I0
F12.458375
sI1
Fnan
sI2
Fnan
sI3
Fnan
sI4
Fnan
sI5
Fnan
sI6
Fnan
sI7
Fnan
ssg81
(dp184
I0
F12.241
sI1
F12.223
sI2
F12.225
sI3
F12.254
sI4
F12.221
sI5
F12.249
sI6
F12.217
sI7
F12.252
ssg83
(dp185
I0
F3.089207
sI1
F-2.963875
sI2
F2.543143
sI3
F-1.85313
sI4
F-1.954796
sI5
F-1.540969
sI6
F-1.827833
sI7
F-2.654929
ssg85
(dp186
I0
F0.014257203692970745
sI1
Fnan
sI2
Fnan
sI3
Fnan
sI4
Fnan
sI5
Fnan
sI6
Fnan
sI7
Fnan
ssg87
(dp187
I0
F0.6844675338768091
sI1
F0.6896069859876514
sI2
F0.6900158378335864
sI3
F0.6875089082071444
sI4
F0.6895376489882584
sI5
F0.6931456831399583
sI6
F0.6827490746401587
sI7
F0.6926048521008905
ssg89
(dp188
I0
F45.0
sI1
F45.0
sI2
F45.0
sI3
F45.0
sI4
F45.0
sI5
F45.0
sI6
F45.0
sI7
F45.0
ssg91
(dp189
I0
F0.004
sI1
F0.004
sI2
F0.004
sI3
F0.004
sI4
F0.004
sI5
F0.004
sI6
F0.004
sI7
F0.004
ssg93
(dp190
I0
F0.003
sI1
F0.003
sI2
F0.003
sI3
F0.003
sI4
F0.003
sI5
F0.003
sI6
F0.003
sI7
F0.003
ssg95
(dp191
I0
F4.74328
sI1
F2.849125
sI2
F3.787917
sI3
F1.795698
sI4
F-0.9281965
sI5
F2.81176
sI6
F4.304607
sI7
F-0.9721215
ssg97
(dp192
I0
S"KIC8462852-20180611at073431_-25-1-045-z'_cal.fts.mag.1"
p193
sI1
S"KIC8462852-20180611at075022_-25-1-045-z'_cal.fts.mag.1"
p194
sI2
S"KIC8462852-20180611at074909_-25-1-045-z'_cal.fts.mag.1"
p195
sI3
S"KIC8462852-20180611at073657_-25-1-045-z'_cal.fts.mag.1"
p196
sI4
S"KIC8462852-20180611at075246_-25-1-045-z'_cal.fts.mag.1"
p197
sI5
S"KIC8462852-20180611at073809_-25-1-045-z'_cal.fts.mag.1"
p198
sI6
S"KIC8462852-20180611at075134_-25-1-045-z'_cal.fts.mag.1"
p199
sI7
S"KIC8462852-20180611at073545_-25-1-045-z'_cal.fts.mag.1"
p200
ssg107
(dp201
I0
F0.0045791388758073615
sI1
Fnan
sI2
Fnan
sI3
Fnan
sI4
Fnan
sI5
Fnan
sI6
Fnan
sI7
Fnan
ssg109
(dp202
I0
F1258.986222222222
sI1
F1278.8104444444446
sI2
F1261.1806666666666
sI3
F1246.333111111111
sI4
F1293.6026666666667
sI5
F1252.1742222222222
sI6
F1279.1484444444445
sI7
F1257.4993333333334
ssg111
(dp203
I0
F0.013845447936828232
sI1
Fnan
sI2
Fnan
sI3
Fnan
sI4
Fnan
sI5
Fnan
sI6
Fnan
sI7
Fnan
ssg113
(dp204
I0
S"z'"
p205
sI1
S"z'"
p206
sI2
S"z'"
p207
sI3
S"z'"
p208
sI4
S"z'"
p209
sI5
S"z'"
p210
sI6
S"z'"
p211
sI7
S"z'"
p212
ssg123
(dp213
I0
F0.002580369494401094
sI1
Fnan
sI2
Fnan
sI3
Fnan
sI4
Fnan
sI5
Fnan
sI6
Fnan
sI7
Fnan
ssg125
(dp214
I0
F-1.946839
sI1
F2.688524
sI2
F2.175053
sI3
F1.801409
sI4
F2.558669
sI5
F3.039102
sI6
F-1.429995
sI7
F3.17291
ssg127
(dp215
I0
F1.5040499434446692
sI1
Fnan
sI2
Fnan
sI3
Fnan
sI4
Fnan
sI5
Fnan
sI6
Fnan
sI7
Fnan
ssg129
(dp216
I0
F2458280.8219907405
sI1
Fnan
sI2
Fnan
sI3
Fnan
sI4
Fnan
sI5
Fnan
sI6
Fnan
sI7
Fnan
ssg131
(dp217
I0
F0.002580369494401094
sI1
Fnan
sI2
Fnan
sI3
Fnan
sI4
Fnan
sI5
Fnan
sI6
Fnan
sI7
Fnan
ssg133
(dp218
I0
F4.154369
sI1
F4.648983
sI2
F4.515915
sI3
F4.682815
sI4
F4.312362
sI5
F5.256609
sI6
F4.259314
sI7
F4.318819
ssg135
(dp219
I0
F11.904
sI1
F11.887
sI2
F11.886
sI3
F11.92
sI4
F11.887
sI5
F11.914
sI6
F11.883
sI7
F11.904
ssg137
(dp220
I0
F0.37274719429106873
sI1
Fnan
sI2
Fnan
sI3
Fnan
sI4
Fnan
sI5
Fnan
sI6
Fnan
sI7
Fnan
sssS'g'
p221
(dp222
g3
(dp223
I0
F0.8683722728433472
sI1
Fnan
sI2
Fnan
sI3
Fnan
sI4
Fnan
sI5
Fnan
sI6
Fnan
sI7
Fnan
ssg5
(dp224
I0
S'NoError'
p225
sI1
S'NoError'
p226
sI2
S'NoError'
p227
sI3
S'NoError'
p228
sI4
S'NoError'
p229
sI5
S'NoError'
p230
sI6
S'NoError'
p231
sI7
S'NoError'
p232
ssg15
(dp233
I0
F0.002
sI1
F0.002
sI2
F0.002
sI3
F0.002
sI4
F0.002
sI5
F0.002
sI6
F0.002
sI7
F0.002
ssg17
(dp234
I0
F0.8839067459403709
sI1
F0.8785682179751394
sI2
F0.8799255766936385
sI3
F0.8784094310212156
sI4
F0.8802472110866878
sI5
F0.8764629045211829
sI6
F0.8847939494824436
sI7
F0.877466968363215
ssg19
(dp235
I0
F0.00297159110646814
sI1
Fnan
sI2
Fnan
sI3
Fnan
sI4
Fnan
sI5
Fnan
sI6
Fnan
sI7
Fnan
ssg21
(dp236
I0
F0.8799726256354867
sI1
Fnan
sI2
Fnan
sI3
Fnan
sI4
Fnan
sI5
Fnan
sI6
Fnan
sI7
Fnan
ssg23
(dp237
I0
F11.367
sI1
F11.361
sI2
F11.375
sI3
F11.361
sI4
F11.391
sI5
F11.384
sI6
F11.407
sI7
F11.39
ssg25
(dp238
I0
F5.154644
sI1
F4.55186
sI2
F5.268804
sI3
F4.581254
sI4
F6.096541
sI5
F4.843092
sI6
F6.36403
sI7
F5.591014
ssg27
(dp239
I0
F2458280.819965278
sI1
F2458280.8191319443
sI2
F2458280.8207870373
sI3
F2458280.8216203703
sI4
F2458280.8097916665
sI5
F2458280.8114467594
sI6
F2458280.8089583335
sI7
F2458280.810625
ssg29
(dp240
I0
F1.8982045000000003
sI1
Fnan
sI2
Fnan
sI3
Fnan
sI4
Fnan
sI5
Fnan
sI6
Fnan
sI7
Fnan
ssg31
(dp241
I0
F0.66401675
sI1
Fnan
sI2
Fnan
sI3
Fnan
sI4
Fnan
sI5
Fnan
sI6
Fnan
sI7
Fnan
ssg33
(dp242
I0
F0.8683970849117741
sI1
F0.866752123800122
sI2
F0.8680030224203417
sI3
F0.8686986065795067
sI4
F0.8702422186914855
sI5
F0.8702969707670003
sI6
F0.8664655442616457
sI7
F0.8681226113149018
ssg35
(dp243
I0
F0.0013118423342096178
sI1
Fnan
sI2
Fnan
sI3
Fnan
sI4
Fnan
sI5
Fnan
sI6
Fnan
sI7
Fnan
ssg37
(dp244
I0
F-0.831464
sI1
Fnan
sI2
Fnan
sI3
Fnan
sI4
Fnan
sI5
Fnan
sI6
Fnan
sI7
Fnan
ssg39
(dp245
I0
g225
sI1
g226
sI2
g227
sI3
g228
sI4
g229
sI5
g230
sI6
g231
sI7
g232
ssg41
(dp246
I0
F0.0019975261754265126
sI1
Fnan
sI2
Fnan
sI3
Fnan
sI4
Fnan
sI5
Fnan
sI6
Fnan
sI7
Fnan
ssg43
(dp247
I0
F0.016077935190813426
sI1
Fnan
sI2
Fnan
sI3
Fnan
sI4
Fnan
sI5
Fnan
sI6
Fnan
sI7
Fnan
ssg45
(dp248
I0
F1.097958
sI1
Fnan
sI2
Fnan
sI3
Fnan
sI4
Fnan
sI5
Fnan
sI6
Fnan
sI7
Fnan
ssg47
(dp249
I0
F1.5097849937516319
sI1
F1.5111817617110521
sI2
F1.5196536232935904
sI3
F1.5146534006936874
sI4
F1.5182070624319506
sI5
F1.5198227886409874
sI6
F1.50882992844812
sI7
F1.5197927245419276
ssg49
(dp250
I0
g225
sI1
g226
sI2
g227
sI3
g228
sI4
g229
sI5
g230
sI6
g231
sI7
g232
ssg51
(dp251
I0
F4.571622
sI1
F4.340491
sI2
F5.111866
sI3
F4.555267
sI4
F5.665378
sI5
F5.201035
sI6
F5.55119
sI7
F5.852
ssg53
(dp252
I0
F10.9475
sI1
Fnan
sI2
Fnan
sI3
Fnan
sI4
Fnan
sI5
Fnan
sI6
Fnan
sI7
Fnan
ssg55
(dp253
I0
F0.7151926492404712
sI1
Fnan
sI2
Fnan
sI3
Fnan
sI4
Fnan
sI5
Fnan
sI6
Fnan
sI7
Fnan
ssg57
(dp254
I0
F3.132197
sI1
F3.124874
sI2
F4.175314
sI3
F-3.721943
sI4
F-3.636883
sI5
F2.148529
sI6
F-2.649599
sI7
F2.739645
ssg59
(dp255
I0
F11.32075
sI1
Fnan
sI2
Fnan
sI3
Fnan
sI4
Fnan
sI5
Fnan
sI6
Fnan
sI7
Fnan
ssg61
(dp256
I0
g225
sI1
g226
sI2
g227
sI3
g228
sI4
g229
sI5
g230
sI6
g231
sI7
g232
ssg63
(dp257
I0
F7549.335555555555
sI1
F7577.4
sI2
F7474.397777777778
sI3
F7555.717777777778
sI4
F7346.142222222223
sI5
F7371.153333333334
sI6
F7302.102222222222
sI7
F7355.988888888889
ssg65
(dp258
I0
F1.162307
sI1
F1.164874
sI2
F1.15977
sI3
F1.157262
sI4
F1.195716
sI5
F1.189972
sI6
F1.1986370000000002
sI7
F1.1928290000000001
ssg67
(dp259
I0
F6486.328888888888
sI1
F6564.179999999999
sI2
F6426.46
sI3
F6533.237777777778
sI4
F6318.335555555555
sI5
F6374.642222222223
sI6
F6268.16
sI7
F6350.731111111111
ssg69
(dp260
I0
F10595.417777777777
sI1
F10685.24888888889
sI2
F10562.244444444445
sI3
F10669.942222222222
sI4
F10372.753333333334
sI5
F10445.586666666668
sI6
F10237.60888888889
sI7
F10415.686666666666
ssg71
(dp261
I0
F4.454074
sI1
F3.598245
sI2
F4.328152
sI3
F4.441133
sI4
F5.495836
sI5
F5.07159
sI6
F5.06288
sI7
F4.858453
ssg73
(dp262
I0
F11.47
sI1
F11.457
sI2
F11.48
sI3
F11.462
sI4
F11.498
sI5
F11.489
sI6
F11.507
sI7
F11.493
ssg75
(dp263
I0
F0.001
sI1
F0.001
sI2
F0.002
sI3
F0.002
sI4
F0.002
sI5
F0.002
sI6
F0.002
sI7
F0.002
ssg77
(dp264
I0
F0.8683722728433472
sI1
Fnan
sI2
Fnan
sI3
Fnan
sI4
Fnan
sI5
Fnan
sI6
Fnan
sI7
Fnan
ssg79
(dp265
I0
F11.482
sI1
Fnan
sI2
Fnan
sI3
Fnan
sI4
Fnan
sI5
Fnan
sI6
Fnan
sI7
Fnan
ssg81
(dp266
I0
F11.305
sI1
F11.301
sI2
F11.316
sI3
F11.304
sI4
F11.335
sI5
F11.331
sI6
F11.341
sI7
F11.333
ssg83
(dp267
I0
F3.096277
sI1
F1.068808
sI2
F3.526424
sI3
F4.597888
sI4
F2.99885
sI5
F3.807461
sI6
F-2.31465
sI7
F-1.595422
ssg85
(dp268
I0
F0.016274432182326312
sI1
Fnan
sI2
Fnan
sI3
Fnan
sI4
Fnan
sI5
Fnan
sI6
Fnan
sI7
Fnan
ssg87
(dp269
I0
F0.7149536584741545
sI1
F0.7188639545048351
sI2
F0.7126004852590818
sI3
F0.7169274284473406
sI4
F0.7131748743306422
sI5
F0.715578969241536
sI6
F0.7147392520084582
sI7
F0.7147025716577214
ssg89
(dp270
I0
F45.0
sI1
F45.0
sI2
F45.0
sI3
F45.0
sI4
F45.0
sI5
F45.0
sI6
F45.0
sI7
F45.0
ssg91
(dp271
I0
F0.002
sI1
F0.002
sI2
F0.002
sI3
F0.002
sI4
F0.002
sI5
F0.002
sI6
F0.002
sI7
F0.002
ssg93
(dp272
I0
F0.002
sI1
F0.002
sI2
F0.002
sI3
F0.002
sI4
F0.002
sI5
F0.002
sI6
F0.002
sI7
F0.002
ssg95
(dp273
I0
F-1.586108
sI1
F4.15808
sI2
F2.067069
sI3
F3.622043
sI4
F-3.438028
sI5
F2.242297
sI6
F2.723186
sI7
F-1.004875
ssg97
(dp274
I0
S"KIC8462852-20180611at074045_-25-1-045-g'_cal.fts.mag.1"
p275
sI1
S"KIC8462852-20180611at073923_-25-1-045-g'_cal.fts.mag.1"
p276
sI2
S"KIC8462852-20180611at074156_-25-1-045-g'_cal.fts.mag.1"
p277
sI3
S"KIC8462852-20180611at074308_-25-1-045-g'_cal.fts.mag.1"
p278
sI4
S"KIC8462852-20180611at072606_-25-1-045-g'_cal.fts.mag.1"
p279
sI5
S"KIC8462852-20180611at072829_-25-1-045-g'_cal.fts.mag.1"
p280
sI6
S"KIC8462852-20180611at072449_-25-1-045-g'_cal.fts.mag.1"
p281
sI7
S"KIC8462852-20180611at072718_-25-1-045-g'_cal.fts.mag.1"
p282
ssg107
(dp283
I0
F0.004746010126202842
sI1
Fnan
sI2
Fnan
sI3
Fnan
sI4
Fnan
sI5
Fnan
sI6
Fnan
sI7
Fnan
ssg109
(dp284
I0
F7129.8533333333335
sI1
F7172.902222222222
sI2
F7078.015555555556
sI3
F7169.34
sI4
F6972.737777777778
sI5
F7017.895555555555
sI6
F6876.233333333334
sI7
F6980.402222222222
ssg111
(dp285
I0
F0.017824541669122285
sI1
Fnan
sI2
Fnan
sI3
Fnan
sI4
Fnan
sI5
Fnan
sI6
Fnan
sI7
Fnan
ssg113
(dp286
I0
S"g'"
p287
sI1
S"g'"
p288
sI2
S"g'"
p289
sI3
S"g'"
p290
sI4
S"g'"
p291
sI5
S"g'"
p292
sI6
S"g'"
p293
sI7
S"g'"
p294
ssg123
(dp295
I0
F0.0014024184457366246
sI1
Fnan
sI2
Fnan
sI3
Fnan
sI4
Fnan
sI5
Fnan
sI6
Fnan
sI7
Fnan
ssg125
(dp296
I0
F2.807528
sI1
F-2.653485
sI2
F-3.396937
sI3
F-1.644361
sI4
F-3.277371
sI5
F2.50074
sI6
F-4.038492
sI7
F3.050666
ssg127
(dp297
I0
F1.5152407854391186
sI1
Fnan
sI2
Fnan
sI3
Fnan
sI4
Fnan
sI5
Fnan
sI6
Fnan
sI7
Fnan
ssg129
(dp298
I0
F2458280.815289352
sI1
Fnan
sI2
Fnan
sI3
Fnan
sI4
Fnan
sI5
Fnan
sI6
Fnan
sI7
Fnan
ssg131
(dp299
I0
F0.0014024184457366246
sI1
Fnan
sI2
Fnan
sI3
Fnan
sI4
Fnan
sI5
Fnan
sI6
Fnan
sI7
Fnan
ssg133
(dp300
I0
F5.77926
sI1
F5.575545
sI2
F5.644684
sI3
F5.606338
sI4
F6.795575
sI5
F6.054545
sI6
F8.060987
sI7
F7.828068
ssg135
(dp301
I0
F10.937
sI1
F10.928
sI2
F10.941
sI3
F10.93
sI4
F10.96
sI5
F10.953
sI6
F10.975
sI7
F10.956
ssg137
(dp302
I0
F0.8683722728433472
sI1
Fnan
sI2
Fnan
sI3
Fnan
sI4
Fnan
sI5
Fnan
sI6
Fnan
sI7
Fnan
sssS'V'
p303
(dp304
g3
(dp305
I0
F0.6933474030679582
sI1
Fnan
sI2
Fnan
sI3
Fnan
sI4
Fnan
sI5
Fnan
sI6
Fnan
sI7
Fnan
ssg5
(dp306
I0
S'NoError'
p307
sI1
S'NoError'
p308
sI2
S'NoError'
p309
sI3
S'NoError'
p310
sI4
S'NoError'
p311
sI5
S'NoError'
p312
sI6
S'NoError'
p313
sI7
S'NoError'
p314
ssg15
(dp315
I0
F0.002
sI1
F0.002
sI2
F0.002
sI3
F0.002
sI4
F0.002
sI5
F0.002
sI6
F0.002
sI7
F0.002
ssg17
(dp316
I0
F0.8882278662869237
sI1
F0.8833412989910365
sI2
F0.8863671072341611
sI3
F0.8850681529511117
sI4
F0.8880979335444025
sI5
F0.881575338406689
sI6
F0.8867110852437087
sI7
F0.8851983230130482
ssg19
(dp317
I0
F0.0022899310194259216
sI1
Fnan
sI2
Fnan
sI3
Fnan
sI4
Fnan
sI5
Fnan
sI6
Fnan
sI7
Fnan
ssg21
(dp318
I0
F0.8855733882088852
sI1
Fnan
sI2
Fnan
sI3
Fnan
sI4
Fnan
sI5
Fnan
sI6
Fnan
sI7
Fnan
ssg23
(dp319
I0
F11.44
sI1
F11.451
sI2
F11.43
sI3
F11.466
sI4
F11.436
sI5
F11.431
sI6
F11.488
sI7
F11.449
ssg25
(dp320
I0
F6.901752
sI1
F8.253262
sI2
F7.532914
sI3
F7.903089
sI4
F8.094423
sI5
F7.15491
sI6
F8.117049
sI7
F7.86096
ssg27
(dp321
I0
F2458280.7788773146
sI1
F2458280.794212963
sI2
F2458280.7933796295
sI3
F2458280.7780555557
sI4
F2458280.791701389
sI5
F2458280.7925462965
sI6
F2458280.779722222
sI7
F2458280.7805555556
ssg29
(dp322
I0
F2.4467927499999997
sI1
Fnan
sI2
Fnan
sI3
Fnan
sI4
Fnan
sI5
Fnan
sI6
Fnan
sI7
Fnan
ssg31
(dp323
I0
F2.9323153375
sI1
Fnan
sI2
Fnan
sI3
Fnan
sI4
Fnan
sI5
Fnan
sI6
Fnan
sI7
Fnan
ssg33
(dp324
I0
F0.6939632589214744
sI1
F0.6928671196010279
sI2
F0.6941578718556625
sI3
F0.6927961758625916
sI4
F0.6891157093612699
sI5
F0.6941995070134865
sI6
F0.691285883112828
sI7
F0.6941620051086362
ssg35
(dp325
I0
F0.0010149020975132545
sI1
Fnan
sI2
Fnan
sI3
Fnan
sI4
Fnan
sI5
Fnan
sI6
Fnan
sI7
Fnan
ssg37
(dp326
I0
F2.3891361250000003
sI1
Fnan
sI2
Fnan
sI3
Fnan
sI4
Fnan
sI5
Fnan
sI6
Fnan
sI7
Fnan
ssg39
(dp327
I0
g307
sI1
g308
sI2
g309
sI3
g310
sI4
g311
sI5
g312
sI6
g313
sI7
g314
ssg41
(dp328
I0
F0.0014596411152258586
sI1
Fnan
sI2
Fnan
sI3
Fnan
sI4
Fnan
sI5
Fnan
sI6
Fnan
sI7
Fnan
ssg43
(dp329
I0
F0.019305347149725927
sI1
Fnan
sI2
Fnan
sI3
Fnan
sI4
Fnan
sI5
Fnan
sI6
Fnan
sI7
Fnan
ssg45
(dp330
I0
F1.21281845
sI1
Fnan
sI2
Fnan
sI3
Fnan
sI4
Fnan
sI5
Fnan
sI6
Fnan
sI7
Fnan
ssg47
(dp331
I0
F1.4999680397008948
sI1
F1.5049303029522685
sI2
F1.4999209802830433
sI3
F1.5045681687109582
sI4
F1.501247235802552
sI5
F1.506601550828597
sI6
F1.5042573626665028
sI7
F1.4993473992502948
ssg49
(dp332
I0
g307
sI1
g308
sI2
g309
sI3
g310
sI4
g311
sI5
g312
sI6
g313
sI7
g314
ssg51
(dp333
I0
F8.177979
sI1
F8.721139
sI2
F7.582411
sI3
F10.30975
sI4
F7.452992
sI5
F7.639312
sI6
F10.31056
sI7
F8.335372
ssg53
(dp334
I0
F10.7765
sI1
Fnan
sI2
Fnan
sI3
Fnan
sI4
Fnan
sI5
Fnan
sI6
Fnan
sI7
Fnan
ssg55
(dp335
I0
F0.7177886110929954
sI1
Fnan
sI2
Fnan
sI3
Fnan
sI4
Fnan
sI5
Fnan
sI6
Fnan
sI7
Fnan
ssg57
(dp336
I0
F2.899004
sI1
F2.885681
sI2
F4.50671
sI3
F3.123219
sI4
F3.451107
sI5
F3.405713
sI6
F0.7288827
sI7
F2.458206
ssg59
(dp337
I0
F11.139875
sI1
Fnan
sI2
Fnan
sI3
Fnan
sI4
Fnan
sI5
Fnan
sI6
Fnan
sI7
Fnan
ssg61
(dp338
I0
g307
sI1
g308
sI2
g309
sI3
g310
sI4
g311
sI5
g312
sI6
g313
sI7
g314
ssg63
(dp339
I0
F8868.537777777778
sI1
F8756.495555555555
sI2
F8931.611111111111
sI3
F8649.873333333333
sI4
F8957.86
sI5
F8892.428888888888
sI6
F8506.293333333333
sI7
F8767.713333333333
ssg65
(dp340
I0
F1.326602
sI1
F1.255639
sI2
F1.259192
sI3
F1.330904
sI4
F1.2663959999999999
sI5
F1.262777
sI6
F1.322393
sI7
F1.318167
ssg67
(dp341
I0
F7610.24
sI1
F7553.297777777779
sI2
F7688.713333333333
sI3
F7441.184444444444
sI4
F7682.493333333334
sI5
F7685.662222222222
sI6
F7298.7444444444445
sI7
F7565.226666666667
ssg69
(dp342
I0
F12358.82
sI1
F12272.551111111112
sI2
F12464.586666666668
sI3
F12105.046666666665
sI4
F12490.642222222223
sI5
F12488.288888888888
sI6
F11887.422222222222
sI7
F12244.375555555556
ssg71
(dp343
I0
F7.895497
sI1
F7.976486
sI2
F7.208314
sI3
F8.814812
sI4
F7.580439
sI5
F7.553286
sI6
F8.734336
sI7
F7.890917
ssg73
(dp344
I0
F11.297
sI1
F11.305
sI2
F11.285
sI3
F11.321
sI4
F11.286
sI5
F11.286
sI6
F11.342
sI7
F11.303
ssg75
(dp345
I0
F0.001
sI1
F0.001
sI2
F0.001
sI3
F0.001
sI4
F0.001
sI5
F0.001
sI6
F0.001
sI7
F0.001
ssg77
(dp346
I0
F0.6928184413546221
sI1
Fnan
sI2
Fnan
sI3
Fnan
sI4
Fnan
sI5
Fnan
sI6
Fnan
sI7
Fnan
ssg79
(dp347
I0
F11.303125
sI1
Fnan
sI2
Fnan
sI3
Fnan
sI4
Fnan
sI5
Fnan
sI6
Fnan
sI7
Fnan
ssg81
(dp348
I0
F11.13
sI1
F11.144
sI2
F11.123
sI3
F11.157
sI4
F11.119
sI5
F11.127
sI6
F11.176
sI7
F11.143
ssg83
(dp349
I0
F3.354113
sI1
F-2.026782
sI2
F3.154209
sI3
F4.012477
sI4
F2.525057
sI5
F2.772999
sI6
F2.763731
sI7
F3.018538
ssg85
(dp350
I0
F0.018677717817151364
sI1
Fnan
sI2
Fnan
sI3
Fnan
sI4
Fnan
sI5
Fnan
sI6
Fnan
sI7
Fnan
ssg87
(dp351
I0
F0.717021880883066
sI1
F0.7183680646589252
sI2
F0.7186990336496961
sI3
F0.7170525778412487
sI4
F0.7163664160543299
sI5
F0.7189339761278153
sI6
F0.7157836858674982
sI7
F0.7200832536613845
ssg89
(dp352
I0
F45.0
sI1
F45.0
sI2
F45.0
sI3
F45.0
sI4
F45.0
sI5
F45.0
sI6
F45.0
sI7
F45.0
ssg91
(dp353
I0
F0.002
sI1
F0.002
sI2
F0.002
sI3
F0.002
sI4
F0.002
sI5
F0.002
sI6
F0.002
sI7
F0.002
ssg93
(dp354
I0
F0.002
sI1
F0.002
sI2
F0.002
sI3
F0.002
sI4
F0.002
sI5
F0.002
sI6
F0.002
sI7
F0.002
ssg95
(dp355
I0
F-2.581078
sI1
F2.887603
sI2
F2.998908
sI3
F-4.204009
sI4
F2.69597
sI5
F3.835965
sI6
F0.9781176
sI7
F3.091071
ssg97
(dp356
I0
S'KIC8462852-20180611at064135_-25-1-045-V_cal.fts.mag.1'
p357
sI1
S'KIC8462852-20180611at070340_-25-1-045-V_cal.fts.mag.1'
p358
sI2
S'KIC8462852-20180611at070228_-25-1-045-V_cal.fts.mag.1'
p359
sI3
S'KIC8462852-20180611at064022_-25-1-045-V_cal.fts.mag.1'
p360
sI4
S'KIC8462852-20180611at070001_-25-1-045-V_cal.fts.mag.1'
p361
sI5
S'KIC8462852-20180611at070116_-25-1-045-V_cal.fts.mag.1'
p362
sI6
S'KIC8462852-20180611at064248_-25-1-045-V_cal.fts.mag.1'
p363
sI7
S'KIC8462852-20180611at064400_-25-1-045-V_cal.fts.mag.1'
p364
ssg107
(dp365
I0
F0.0027922544322233345
sI1
Fnan
sI2
Fnan
sI3
Fnan
sI4
Fnan
sI5
Fnan
sI6
Fnan
sI7
Fnan
ssg109
(dp366
I0
F6670.7444444444445
sI1
F6601.2555555555555
sI2
F6729.84
sI3
F6511.384444444444
sI4
F6691.542222222222
sI5
F6725.955555555555
sI6
F6381.135555555555
sI7
F6612.428888888889
ssg111
(dp367
I0
F0.01995306993923508
sI1
Fnan
sI2
Fnan
sI3
Fnan
sI4
Fnan
sI5
Fnan
sI6
Fnan
sI7
Fnan
ssg113
(dp368
I0
g303
sI1
g303
sI2
g303
sI3
g303
sI4
g303
sI5
g303
sI6
g303
sI7
g303
ssg123
(dp369
I0
F0.0018078800349967798
sI1
Fnan
sI2
Fnan
sI3
Fnan
sI4
Fnan
sI5
Fnan
sI6
Fnan
sI7
Fnan
ssg125
(dp370
I0
F2.447625
sI1
F1.8922
sI2
F2.940364
sI3
F4.199777
sI4
F-2.868619
sI5
F3.489832
sI6
F5.048325
sI7
F1.963585
ssg127
(dp371
I0
F1.502605130024389
sI1
Fnan
sI2
Fnan
sI3
Fnan
sI4
Fnan
sI5
Fnan
sI6
Fnan
sI7
Fnan
ssg129
(dp372
I0
F2458280.7861284725
sI1
Fnan
sI2
Fnan
sI3
Fnan
sI4
Fnan
sI5
Fnan
sI6
Fnan
sI7
Fnan
ssg131
(dp373
I0
F0.0018078800349967798
sI1
Fnan
sI2
Fnan
sI3
Fnan
sI4
Fnan
sI5
Fnan
sI6
Fnan
sI7
Fnan
ssg133
(dp374
I0
F9.256924
sI1
F10.99575
sI2
F9.713982
sI3
F10.76875
sI4
F9.684919
sI5
F9.884072
sI6
F12.60403
sI7
F10.02824
ssg135
(dp375
I0
F10.77
sI1
F10.778
sI2
F10.761
sI3
F10.793
sI4
F10.759
sI5
F10.759
sI6
F10.812
sI7
F10.78
ssg137
(dp376
I0
F0.6928184413546221
sI1
Fnan
sI2
Fnan
sI3
Fnan
sI4
Fnan
sI5
Fnan
sI6
Fnan
sI7
Fnan
sss.