(dp0
S'r'
p1
(dp2
S'sigmean'
p3
(dp4
I0
F0.541352896497767
sI1
Fnan
sI2
Fnan
sI3
Fnan
sI4
Fnan
sI5
Fnan
sI6
Fnan
sI7
Fnan
sI8
Fnan
sI9
Fnan
sI10
Fnan
sI11
Fnan
sI12
Fnan
sI13
Fnan
sI14
Fnan
sI15
Fnan
sI16
Fnan
sI17
Fnan
ssS'ref3flag'
p5
(dp6
I0
S'NoError'
p7
sI1
S'NoError'
p8
sI2
S'NoError'
p9
sI3
S'NoError'
p10
sI4
S'NoError'
p11
sI5
S'NoError'
p12
sI6
S'NoError'
p13
sI7
S'NoError'
p14
sI8
S'NoError'
p15
sI9
S'NoError'
p16
sI10
S'NoError'
p17
sI11
S'NoError'
p18
sI12
S'NoError'
p19
sI13
S'NoError'
p20
sI14
S'NoError'
p21
sI15
S'NoError'
p22
sI16
S'NoError'
p23
sI17
S'NoError'
p24
ssS'tabbyerr'
p25
(dp26
I0
F0.003
sI1
F0.002
sI2
F0.002
sI3
F0.002
sI4
F0.002
sI5
F0.002
sI6
F0.002
sI7
F0.002
sI8
F0.002
sI9
F0.002
sI10
F0.002
sI11
F0.002
sI12
F0.002
sI13
F0.002
sI14
F0.002
sI15
F0.002
sI16
F0.002
sI17
F0.002
ssS'ref2rel'
p27
(dp28
I0
F0.8969490412072231
sI1
F0.8975269221855482
sI2
F0.8952340360155803
sI3
F0.8930451355335273
sI4
F0.894047611644009
sI5
F0.8973965183309334
sI6
F0.8902155486206552
sI7
F0.8973844517933666
sI8
F0.8938308022091329
sI9
F0.8937708359711521
sI10
F0.8954328461339116
sI11
F0.8968342106035104
sI12
F0.8956980287104157
sI13
F0.8977625084786578
sI14
F0.8930536357232639
sI15
F0.8955850177738026
sI16
F0.8930267573814418
sI17
F0.892267845934617
ssS'ref2err'
p29
(dp30
I0
F0.0021594603035226577
sI1
Fnan
sI2
Fnan
sI3
Fnan
sI4
Fnan
sI5
Fnan
sI6
Fnan
sI7
Fnan
sI8
Fnan
sI9
Fnan
sI10
Fnan
sI11
Fnan
sI12
Fnan
sI13
Fnan
sI14
Fnan
sI15
Fnan
sI16
Fnan
sI17
Fnan
ssS'ref2mean'
p31
(dp32
I0
F0.8949478752361527
sI1
Fnan
sI2
Fnan
sI3
Fnan
sI4
Fnan
sI5
Fnan
sI6
Fnan
sI7
Fnan
sI8
Fnan
sI9
Fnan
sI10
Fnan
sI11
Fnan
sI12
Fnan
sI13
Fnan
sI14
Fnan
sI15
Fnan
sI16
Fnan
sI17
Fnan
ssS'tabbymag'
p33
(dp34
I0
F11.348
sI1
F11.252
sI2
F11.223
sI3
F11.242
sI4
F11.21
sI5
F11.33
sI6
F11.274
sI7
F11.211
sI8
F11.243
sI9
F11.275
sI10
F11.303
sI11
F11.197
sI12
F11.242
sI13
F11.328
sI14
F11.234
sI15
F11.235
sI16
F11.264
sI17
F11.239
ssS'tabbybkg'
p35
(dp36
I0
F11.58216
sI1
F7.123655
sI2
F7.017789
sI3
F8.346445
sI4
F13.58707
sI5
F9.606298
sI6
F9.844812
sI7
F15.85853
sI8
F7.921769
sI9
F9.763421
sI10
F7.922599
sI11
F12.41024
sI12
F6.326076
sI13
F10.85437
sI14
F7.732929
sI15
F5.643955
sI16
F7.523303
sI17
F8.238249
ssS'JD'
p37
(dp38
I0
F2458217.983240741
sI1
F2458217.9740277776
sI2
F2458217.982037037
sI3
F2458217.9924421296
sI4
F2458218.003634259
sI5
F2458217.9838425927
sI6
F2458217.991840278
sI7
F2458218.004236111
sI8
F2458217.9844444445
sI9
F2458217.9930439815
sI10
F2458217.9752199072
sI11
F2458218.0030324073
sI12
F2458217.9728125
sI13
F2458217.9746296294
sI14
F2458217.982638889
sI15
F2458217.9734259257
sI16
F2458217.991238426
sI17
F2458217.9936342593
ssS'ref3rmsmean'
p39
(dp40
I0
F3.4953272222222216
sI1
Fnan
sI2
Fnan
sI3
Fnan
sI4
Fnan
sI5
Fnan
sI6
Fnan
sI7
Fnan
sI8
Fnan
sI9
Fnan
sI10
Fnan
sI11
Fnan
sI12
Fnan
sI13
Fnan
sI14
Fnan
sI15
Fnan
sI16
Fnan
sI17
Fnan
ssS'ref1rmsmean'
p41
(dp42
I0
F1.5516825222222221
sI1
Fnan
sI2
Fnan
sI3
Fnan
sI4
Fnan
sI5
Fnan
sI6
Fnan
sI7
Fnan
sI8
Fnan
sI9
Fnan
sI10
Fnan
sI11
Fnan
sI12
Fnan
sI13
Fnan
sI14
Fnan
sI15
Fnan
sI16
Fnan
sI17
Fnan
ssS'relflux'
p43
(dp44
I0
F0.5422533829137017
sI1
F0.5416076873330374
sI2
F0.5420049559312559
sI3
F0.5427854520941557
sI4
F0.54222628457796
sI5
F0.5401470904310987
sI6
F0.5406757263916792
sI7
F0.5443660447073037
sI8
F0.5405988953183246
sI9
F0.5401536239945413
sI10
F0.5423093651767419
sI11
F0.543639246703526
sI12
F0.5408672438851826
sI13
F0.5396856442739346
sI14
F0.5412555027578788
sI15
F0.5408328852053119
sI16
F0.5409199425941928
sI17
F0.5416554088614425
ssS'sigerr'
p45
(dp46
I0
F0.0008060127693527096
sI1
Fnan
sI2
Fnan
sI3
Fnan
sI4
Fnan
sI5
Fnan
sI6
Fnan
sI7
Fnan
sI8
Fnan
sI9
Fnan
sI10
Fnan
sI11
Fnan
sI12
Fnan
sI13
Fnan
sI14
Fnan
sI15
Fnan
sI16
Fnan
sI17
Fnan
ssS'tabbyrmsmean'
p47
(dp48
I0
F1.2040700555555555
sI1
Fnan
sI2
Fnan
sI3
Fnan
sI4
Fnan
sI5
Fnan
sI6
Fnan
sI7
Fnan
sI8
Fnan
sI9
Fnan
sI10
Fnan
sI11
Fnan
sI12
Fnan
sI13
Fnan
sI14
Fnan
sI15
Fnan
sI16
Fnan
sI17
Fnan
ssS'tabbyflag'
p49
(dp50
I0
g7
sI1
g8
sI2
g9
sI3
g10
sI4
g11
sI5
g12
sI6
g13
sI7
g14
sI8
g15
sI9
g16
sI10
g17
sI11
g18
sI12
g19
sI13
g20
sI14
g21
sI15
g22
sI16
g23
sI17
g24
ssS'ref1err'
p51
(dp52
I0
F0.002592237840641322
sI1
Fnan
sI2
Fnan
sI3
Fnan
sI4
Fnan
sI5
Fnan
sI6
Fnan
sI7
Fnan
sI8
Fnan
sI9
Fnan
sI10
Fnan
sI11
Fnan
sI12
Fnan
sI13
Fnan
sI14
Fnan
sI15
Fnan
sI16
Fnan
sI17
Fnan
ssS'ref2magmeanerr'
p53
(dp54
I0
F0.04207680496829427
sI1
Fnan
sI2
Fnan
sI3
Fnan
sI4
Fnan
sI5
Fnan
sI6
Fnan
sI7
Fnan
sI8
Fnan
sI9
Fnan
sI10
Fnan
sI11
Fnan
sI12
Fnan
sI13
Fnan
sI14
Fnan
sI15
Fnan
sI16
Fnan
sI17
Fnan
ssS'ref2rmsmean'
p55
(dp56
I0
F1.0680143888888889
sI1
Fnan
sI2
Fnan
sI3
Fnan
sI4
Fnan
sI5
Fnan
sI6
Fnan
sI7
Fnan
sI8
Fnan
sI9
Fnan
sI10
Fnan
sI11
Fnan
sI12
Fnan
sI13
Fnan
sI14
Fnan
sI15
Fnan
sI16
Fnan
sI17
Fnan
ssS'ref3rel'
p57
(dp58
I0
F1.5027286182916266
sI1
F1.4965964001509635
sI2
F1.4983388879644968
sI3
F1.5053826348726629
sI4
F1.499279114232042
sI5
F1.5067901507131072
sI6
F1.5065189694937924
sI7
F1.4948633640036184
sI8
F1.5030680804824539
sI9
F1.5046307837232527
sI10
F1.5075882485355254
sI11
F1.495519016436527
sI12
F1.4987015577997063
sI13
F1.5020733058800915
sI14
F1.4993519319037574
sI15
F1.493085387401707
sI16
F1.501045269685698
sI17
F1.5011274031737392
ssS'ref1flag'
p59
(dp60
I0
g7
sI1
g8
sI2
g9
sI3
g10
sI4
g11
sI5
g12
sI6
g13
sI7
g14
sI8
g15
sI9
g16
sI10
g17
sI11
g18
sI12
g19
sI13
g20
sI14
g21
sI15
g22
sI16
g23
sI17
g24
ssS'ref2bkg'
p61
(dp62
I0
F15.77619
sI1
F9.798923
sI2
F7.733903
sI3
F10.63719
sI4
F15.72921
sI5
F12.68036
sI6
F12.30755
sI7
F16.58801
sI8
F9.684357
sI9
F12.34631
sI10
F12.3468
sI11
F13.80941
sI12
F8.889002
sI13
F13.4054
sI14
F8.804701
sI15
F7.677229
sI16
F9.484261
sI17
F10.73226
ssS'ref3magmean'
p63
(dp64
I0
F10.319111111111113
sI1
Fnan
sI2
Fnan
sI3
Fnan
sI4
Fnan
sI5
Fnan
sI6
Fnan
sI7
Fnan
sI8
Fnan
sI9
Fnan
sI10
Fnan
sI11
Fnan
sI12
Fnan
sI13
Fnan
sI14
Fnan
sI15
Fnan
sI16
Fnan
sI17
Fnan
ssS'ref1mean'
p65
(dp66
I0
F0.7105331435031206
sI1
Fnan
sI2
Fnan
sI3
Fnan
sI4
Fnan
sI5
Fnan
sI6
Fnan
sI7
Fnan
sI8
Fnan
sI9
Fnan
sI10
Fnan
sI11
Fnan
sI12
Fnan
sI13
Fnan
sI14
Fnan
sI15
Fnan
sI16
Fnan
sI17
Fnan
ssS'ref1rms'
p67
(dp68
I0
F6.059662
sI1
F3.346497
sI2
F-2.530868
sI3
F3.204263
sI4
F3.567928
sI5
F3.435098
sI6
F2.663834
sI7
F-3.750897
sI8
F-4.282656
sI9
F2.242763
sI10
F1.660975
sI11
F1.951339
sI12
F3.246368
sI13
F-0.8046066
sI14
F3.005607
sI15
F3.957044
sI16
F3.860471
sI17
F-2.902536
ssS'ref2magmean'
p69
(dp70
I0
F10.674111111111113
sI1
Fnan
sI2
Fnan
sI3
Fnan
sI4
Fnan
sI5
Fnan
sI6
Fnan
sI7
Fnan
sI8
Fnan
sI9
Fnan
sI10
Fnan
sI11
Fnan
sI12
Fnan
sI13
Fnan
sI14
Fnan
sI15
Fnan
sI16
Fnan
sI17
Fnan
ssS'ref2flag'
p71
(dp72
I0
g7
sI1
g8
sI2
g9
sI3
g10
sI4
g11
sI5
g12
sI6
g13
sI7
g14
sI8
g15
sI9
g16
sI10
g17
sI11
g18
sI12
g19
sI13
g20
sI14
g21
sI15
g22
sI16
g23
sI17
g24
ssS'ref2'
p73
(dp74
I0
F12431.276000000002
sI1
F13608.663999999999
sI2
F13938.332
sI3
F13649.668
sI4
F14088.472
sI5
F12692.692
sI6
F13282.323999999999
sI7
F14053.08
sI8
F13703.556
sI9
F13313.176000000001
sI10
F12943.48
sI11
F14247.128
sI12
F13734.836000000001
sI13
F12735.316
sI14
F13796.248
sI15
F13819.896
sI16
F13423.212
sI17
F13715.356000000002
ssS'airmass'
p75
(dp76
I0
F1.1914420000000001
sI1
F1.2250379999999998
sI2
F1.1956229999999999
sI3
F1.161513
sI4
F1.129464
sI5
F1.189395
sI6
F1.163363
sI7
F1.127859
sI8
F1.187351
sI9
F1.159708
sI10
F1.220461
sI11
F1.131081
sI12
F1.229714
sI13
F1.2227540000000001
sI14
F1.193538
sI15
F1.227378
sI16
F1.165227
sI17
F1.157878
ssS'ref1'
p77
(dp78
I0
F10493.88
sI1
F11520.612
sI2
F11832.356000000002
sI3
F11579.24
sI4
F11976.684
sI5
F10679.396
sI6
F11313.588
sI7
F11912.552
sI8
F11626.288
sI9
F11285.252
sI10
F10921.052
sI11
F12083.252
sI12
F11647.888
sI13
F10740.236
sI14
F11747.364
sI15
F11763.316
sI16
F11418.223999999998
sI17
F11681.06
ssS'ref3'
p79
(dp80
I0
F17225.144
sI1
F18804.192
sI2
F19306.612
sI3
F18989.58
sI4
F19539.471999999998
sI5
F17608.416
sI6
F18527.104
sI7
F19407.536
sI8
F19036.24
sI9
F18505.776
sI10
F17988.944
sI11
F19688.792
sI12
F19020.564
sI13
F17631.0
sI14
F19149.432
sI15
F19098.96
sI16
F18644.06
sI17
F19061.628
ssS'ref1bkg'
p81
(dp82
I0
F15.19357
sI1
F8.364301
sI2
F7.736549
sI3
F9.171864
sI4
F14.73011
sI5
F12.90231
sI6
F9.70752
sI7
F16.64674
sI8
F10.00123
sI9
F10.60118
sI10
F11.4936
sI11
F14.68067
sI12
F7.187984
sI13
F12.35179
sI14
F8.51062
sI15
F7.404068
sI16
F9.508594
sI17
F9.646873
ssS'ref1mag'
p83
(dp84
I0
F10.948
sI1
F10.846
sI2
F10.817
sI3
F10.841
sI4
F10.804
sI5
F10.929
sI6
F10.866
sI7
F10.81
sI8
F10.836
sI9
F10.869
sI10
F10.904
sI11
F10.795
sI12
F10.834
sI13
F10.922
sI14
F10.825
sI15
F10.824
sI16
F10.856
sI17
F10.831
ssS'ref3magerr'
p85
(dp86
I0
F0.002
sI1
F0.001
sI2
F0.001
sI3
F0.001
sI4
F0.001
sI5
F0.002
sI6
F0.001
sI7
F0.001
sI8
F0.001
sI9
F0.001
sI10
F0.002
sI11
F0.001
sI12
F0.001
sI13
F0.002
sI14
F0.001
sI15
F0.001
sI16
F0.001
sI17
F0.001
ssS'tabbymagmean'
p87
(dp88
I0
F0.5415546879528483
sI1
Fnan
sI2
Fnan
sI3
Fnan
sI4
Fnan
sI5
Fnan
sI6
Fnan
sI7
Fnan
sI8
Fnan
sI9
Fnan
sI10
Fnan
sI11
Fnan
sI12
Fnan
sI13
Fnan
sI14
Fnan
sI15
Fnan
sI16
Fnan
sI17
Fnan
ssS'ref1magmean'
p89
(dp90
I0
F10.853166666666665
sI1
Fnan
sI2
Fnan
sI3
Fnan
sI4
Fnan
sI5
Fnan
sI6
Fnan
sI7
Fnan
sI8
Fnan
sI9
Fnan
sI10
Fnan
sI11
Fnan
sI12
Fnan
sI13
Fnan
sI14
Fnan
sI15
Fnan
sI16
Fnan
sI17
Fnan
ssS'ref2mag'
p91
(dp92
I0
F10.764
sI1
F10.665
sI2
F10.639
sI3
F10.662
sI4
F10.628
sI5
F10.741
sI6
F10.692
sI7
F10.631
sI8
F10.658
sI9
F10.689
sI10
F10.72
sI11
F10.616
sI12
F10.655
sI13
F10.737
sI14
F10.651
sI15
F10.649
sI16
F10.68
sI17
F10.657
ssS'ref3rms'
p93
(dp94
I0
F7.780599
sI1
F4.260442
sI2
F-2.100558
sI3
F4.496597
sI4
F3.623794
sI5
F5.927979
sI6
F3.967323
sI7
F3.578882
sI8
F2.702024
sI9
F5.204654
sI10
F4.381338
sI11
F3.359072
sI12
F-2.065738
sI13
F4.987722
sI14
F3.169621
sI15
F4.2782
sI16
F3.333746
sI17
F2.030193
ssS'ref3magmeanerr'
p95
(dp96
I0
F0.0414400898376396
sI1
Fnan
sI2
Fnan
sI3
Fnan
sI4
Fnan
sI5
Fnan
sI6
Fnan
sI7
Fnan
sI8
Fnan
sI9
Fnan
sI10
Fnan
sI11
Fnan
sI12
Fnan
sI13
Fnan
sI14
Fnan
sI15
Fnan
sI16
Fnan
sI17
Fnan
ssS'ref1rel'
p97
(dp98
I0
F0.7076970180487057
sI1
F0.7108668239540508
sI2
F0.711828902464086
sI3
F0.7095286018844552
sI4
F0.7123054564382527
sI5
F0.7048848510754129
sI6
F0.7113355197710566
sI7
F0.7120342315275965
sI8
F0.7102236067689609
sI9
F0.7093415270245229
sI10
F0.7061232575888653
sI11
F0.712121669310866
sI12
F0.711204137333081
sI13
F0.7073782674197292
sI14
F0.7131353185000279
sI15
F0.7146855893169557
sI16
F0.7121418996913736
sI17
F0.7127599049381723
ssS'exposure'
p99
(dp100
I0
F25.0
sI1
F25.0
sI2
F25.0
sI3
F25.0
sI4
F25.0
sI5
F25.0
sI6
F25.0
sI7
F25.0
sI8
F25.0
sI9
F25.0
sI10
F25.0
sI11
F25.0
sI12
F25.0
sI13
F25.0
sI14
F25.0
sI15
F25.0
sI16
F25.0
sI17
F25.0
ssS'ref1magerr'
p101
(dp102
I0
F0.002
sI1
F0.002
sI2
F0.002
sI3
F0.002
sI4
F0.002
sI5
F0.002
sI6
F0.002
sI7
F0.002
sI8
F0.002
sI9
F0.002
sI10
F0.002
sI11
F0.002
sI12
F0.002
sI13
F0.002
sI14
F0.002
sI15
F0.002
sI16
F0.002
sI17
F0.002
ssS'ref2magerr'
p103
(dp104
I0
F0.002
sI1
F0.002
sI2
F0.002
sI3
F0.002
sI4
F0.002
sI5
F0.002
sI6
F0.002
sI7
F0.002
sI8
F0.002
sI9
F0.002
sI10
F0.002
sI11
F0.002
sI12
F0.002
sI13
F0.002
sI14
F0.002
sI15
F0.002
sI16
F0.002
sI17
F0.002
ssS'ref2rms'
p105
(dp106
I0
F5.954895
sI1
F-3.837876
sI2
F4.26761
sI3
F-0.318855
sI4
F-2.013683
sI5
F4.994001
sI6
F-3.621894
sI7
F4.71235
sI8
F-2.618199
sI9
F2.950655
sI10
F-1.896874
sI11
F1.27081
sI12
F-2.225887
sI13
F3.894786
sI14
F-2.479848
sI15
F1.863776
sI16
F3.978724
sI17
F4.349768
ssS'name'
p107
(dp108
I0
S"KIC8462852-20180409at113552_-35-1-025-r'_cal.fts.mag.1"
p109
sI1
S"KIC8462852-20180409at112235_-35-1-025-r'_cal.fts.mag.1"
p110
sI2
S"KIC8462852-20180409at113407_-35-1-025-r'_cal.fts.mag.1"
p111
sI3
S"KIC8462852-20180409at114907_-35-1-025-r'_cal.fts.mag.1"
p112
sI4
S"KIC8462852-20180409at120514_-35-1-025-r'_cal.fts.mag.1"
p113
sI5
S"KIC8462852-20180409at113644_-35-1-025-r'_cal.fts.mag.1"
p114
sI6
S"KIC8462852-20180409at114815_-35-1-025-r'_cal.fts.mag.1"
p115
sI7
S"KIC8462852-20180409at120606_-35-1-025-r'_cal.fts.mag.1"
p116
sI8
S"KIC8462852-20180409at113736_-35-1-025-r'_cal.fts.mag.1"
p117
sI9
S"KIC8462852-20180409at114959_-35-1-025-r'_cal.fts.mag.1"
p118
sI10
S"KIC8462852-20180409at112419_-35-1-025-r'_cal.fts.mag.1"
p119
sI11
S"KIC8462852-20180409at120421_-35-1-025-r'_cal.fts.mag.1"
p120
sI12
S"KIC8462852-20180409at112050_-35-1-025-r'_cal.fts.mag.1"
p121
sI13
S"KIC8462852-20180409at112328_-35-1-025-r'_cal.fts.mag.1"
p122
sI14
S"KIC8462852-20180409at113500_-35-1-025-r'_cal.fts.mag.1"
p123
sI15
S"KIC8462852-20180409at112144_-35-1-025-r'_cal.fts.mag.1"
p124
sI16
S"KIC8462852-20180409at114721_-35-1-025-r'_cal.fts.mag.1"
p125
sI17
S"KIC8462852-20180409at115050_-35-1-025-r'_cal.fts.mag.1"
p126
ssS'ref3err'
p127
(dp128
I0
F0.00431068468591861
sI1
Fnan
sI2
Fnan
sI3
Fnan
sI4
Fnan
sI5
Fnan
sI6
Fnan
sI7
Fnan
sI8
Fnan
sI9
Fnan
sI10
Fnan
sI11
Fnan
sI12
Fnan
sI13
Fnan
sI14
Fnan
sI15
Fnan
sI16
Fnan
sI17
Fnan
ssS'tabby'
p129
(dp130
I0
F7257.2119999999995
sI1
F7931.568
sI2
F8144.04
sI3
F8000.384
sI4
F8242.676
sI5
F7378.5
sI6
F7771.856
sI7
F8233.204
sI8
F7994.7519999999995
sI9
F7760.964
sI10
F7565.844
sI11
F8339.276
sI12
F8005.428000000001
sI13
F7394.871999999999
sI14
F8063.451999999999
sI15
F8055.196
sI16
F7840.724
sI17
F8026.98
ssS'ref1magmeanerr'
p131
(dp132
I0
F0.04502189010065332
sI1
Fnan
sI2
Fnan
sI3
Fnan
sI4
Fnan
sI5
Fnan
sI6
Fnan
sI7
Fnan
sI8
Fnan
sI9
Fnan
sI10
Fnan
sI11
Fnan
sI12
Fnan
sI13
Fnan
sI14
Fnan
sI15
Fnan
sI16
Fnan
sI17
Fnan
ssS'filter'
p133
(dp134
I0
S"r'"
p135
sI1
S"r'"
p136
sI2
S"r'"
p137
sI3
S"r'"
p138
sI4
S"r'"
p139
sI5
S"r'"
p140
sI6
S"r'"
p141
sI7
S"r'"
p142
sI8
S"r'"
p143
sI9
S"r'"
p144
sI10
S"r'"
p145
sI11
S"r'"
p146
sI12
S"r'"
p147
sI13
S"r'"
p148
sI14
S"r'"
p149
sI15
S"r'"
p150
sI16
S"r'"
p151
sI17
S"r'"
p152
ssS'tabbymagerr'
p153
(dp154
I0
F0.0012390243290373057
sI1
Fnan
sI2
Fnan
sI3
Fnan
sI4
Fnan
sI5
Fnan
sI6
Fnan
sI7
Fnan
sI8
Fnan
sI9
Fnan
sI10
Fnan
sI11
Fnan
sI12
Fnan
sI13
Fnan
sI14
Fnan
sI15
Fnan
sI16
Fnan
sI17
Fnan
ssS'tabbyrms'
p155
(dp156
I0
F4.212344
sI1
F-2.604512
sI2
F3.673847
sI3
F-3.617198
sI4
F-1.908319
sI5
F1.97983
sI6
F-1.957335
sI7
F-2.856145
sI8
F-3.713056
sI9
F3.902973
sI10
F4.722652
sI11
F4.873844
sI12
F4.195616
sI13
F2.94683
sI14
F-1.669963
sI15
F3.61854
sI16
F4.610222
sI17
F1.263091
ssS'ref3mean'
p157
(dp158
I0
F1.5009271735969316
sI1
Fnan
sI2
Fnan
sI3
Fnan
sI4
Fnan
sI5
Fnan
sI6
Fnan
sI7
Fnan
sI8
Fnan
sI9
Fnan
sI10
Fnan
sI11
Fnan
sI12
Fnan
sI13
Fnan
sI14
Fnan
sI15
Fnan
sI16
Fnan
sI17
Fnan
ssS'median_JD'
p159
(dp160
I0
F2458217.984143519
sI1
Fnan
sI2
Fnan
sI3
Fnan
sI4
Fnan
sI5
Fnan
sI6
Fnan
sI7
Fnan
sI8
Fnan
sI9
Fnan
sI10
Fnan
sI11
Fnan
sI12
Fnan
sI13
Fnan
sI14
Fnan
sI15
Fnan
sI16
Fnan
sI17
Fnan
ssS'error'
p161
(dp162
I0
F0.0012390243290373057
sI1
Fnan
sI2
Fnan
sI3
Fnan
sI4
Fnan
sI5
Fnan
sI6
Fnan
sI7
Fnan
sI8
Fnan
sI9
Fnan
sI10
Fnan
sI11
Fnan
sI12
Fnan
sI13
Fnan
sI14
Fnan
sI15
Fnan
sI16
Fnan
sI17
Fnan
ssS'ref3bkg'
p163
(dp164
I0
F18.22463
sI1
F11.34408
sI2
F9.73765
sI3
F12.68546
sI4
F17.16296
sI5
F16.23173
sI6
F13.76684
sI7
F19.58848
sI8
F11.04807
sI9
F13.25536
sI10
F15.0073
sI11
F15.08925
sI12
F10.22482
sI13
F16.0514
sI14
F10.2356
sI15
F9.262184
sI16
F12.6943
sI17
F12.51947
ssS'ref3mag'
p165
(dp166
I0
F10.41
sI1
F10.314
sI2
F10.286
sI3
F10.304
sI4
F10.273
sI5
F10.386
sI6
F10.33
sI7
F10.28
sI8
F10.301
sI9
F10.332
sI10
F10.362
sI11
F10.264
sI12
F10.302
sI13
F10.384
sI14
F10.295
sI15
F10.297
sI16
F10.324
sI17
F10.3
ssS'mean'
p167
(dp168
I0
F0.5415546879528483
sI1
Fnan
sI2
Fnan
sI3
Fnan
sI4
Fnan
sI5
Fnan
sI6
Fnan
sI7
Fnan
sI8
Fnan
sI9
Fnan
sI10
Fnan
sI11
Fnan
sI12
Fnan
sI13
Fnan
sI14
Fnan
sI15
Fnan
sI16
Fnan
sI17
Fnan
sssS'z'
p169
(dp170
g3
(dp171
I0
F0.3659704012104884
sI1
Fnan
sI2
Fnan
sI3
Fnan
sI4
Fnan
sI5
Fnan
sI6
Fnan
sI7
Fnan
sI8
Fnan
sI9
Fnan
sI10
Fnan
sI11
Fnan
sI12
Fnan
sI13
Fnan
sI14
Fnan
sI15
Fnan
sI16
Fnan
sI17
Fnan
ssg5
(dp172
I0
S'NoError'
p173
sI1
S'NoError'
p174
sI2
S'NoError'
p175
sI3
S'NoError'
p176
sI4
S'NoError'
p177
sI5
S'NoError'
p178
sI6
S'NoError'
p179
sI7
S'NoError'
p180
sI8
S'NoError'
p181
sI9
S'NoError'
p182
sI10
S'NoError'
p183
sI11
S'NoError'
p184
sI12
S'NoError'
p185
sI13
S'NoError'
p186
sI14
S'NoError'
p187
sI15
S'NoError'
p188
sI16
S'NoError'
p189
sI17
S'NoError'
p190
ssg25
(dp191
I0
F0.009
sI1
F0.009
sI2
F0.008
sI3
F0.008
sI4
F0.008
sI5
F0.009
sI6
F0.009
sI7
F0.008
sI8
F0.008
sI9
F0.008
sI10
F0.008
sI11
F0.009
sI12
F0.008
sI13
F0.009
sI14
F0.008
sI15
F0.008
sI16
F0.009
sI17
F0.008
ssg27
(dp192
I0
F0.9174745592880029
sI1
F0.9141989090108725
sI2
F0.9181139790846315
sI3
F0.9140356847405452
sI4
F0.915123287617239
sI5
F0.9148827217848938
sI6
F0.9082797499106441
sI7
F0.9052343361291058
sI8
F0.9161767950208481
sI9
F0.9271903220284853
sI10
F0.9118047941860334
sI11
F0.92279510916922
sI12
F0.919159790201345
sI13
F0.914348012208682
sI14
F0.9161157340161009
sI15
F0.9056026335955069
sI16
F0.9206589972507835
sI17
F0.9161222077678461
ssg29
(dp193
I0
F0.005512049712260482
sI1
Fnan
sI2
Fnan
sI3
Fnan
sI4
Fnan
sI5
Fnan
sI6
Fnan
sI7
Fnan
sI8
Fnan
sI9
Fnan
sI10
Fnan
sI11
Fnan
sI12
Fnan
sI13
Fnan
sI14
Fnan
sI15
Fnan
sI16
Fnan
sI17
Fnan
ssg31
(dp194
I0
F0.9154065346117102
sI1
Fnan
sI2
Fnan
sI3
Fnan
sI4
Fnan
sI5
Fnan
sI6
Fnan
sI7
Fnan
sI8
Fnan
sI9
Fnan
sI10
Fnan
sI11
Fnan
sI12
Fnan
sI13
Fnan
sI14
Fnan
sI15
Fnan
sI16
Fnan
sI17
Fnan
ssg33
(dp195
I0
F13.408
sI1
F13.39
sI2
F13.325
sI3
F13.343
sI4
F13.329
sI5
F13.388
sI6
F13.359
sI7
F13.348
sI8
F13.298
sI9
F13.339
sI10
F13.348
sI11
F13.437
sI12
F13.323
sI13
F13.351
sI14
F13.348
sI15
F13.345
sI16
F13.397
sI17
F13.331
ssg35
(dp196
I0
F2.137378
sI1
F0.5722743
sI2
F1.867576
sI3
F2.053403
sI4
F-0.01348449
sI5
F0.7562817
sI6
F1.39855
sI7
F-0.1522751
sI8
F2.579891
sI9
F0.1960232
sI10
F1.182071
sI11
F1.25338
sI12
F2.656636
sI13
F1.985427
sI14
F1.11345
sI15
F0.2638215
sI16
F1.16372
sI17
F0.7580954
ssg37
(dp197
I0
F2458217.9856828703
sI1
F2458217.9758564816
sI2
F2458217.9966666666
sI3
F2458218.0048726853
sI4
F2458217.978263889
sI5
F2458217.977662037
sI6
F2458217.9770717593
sI7
F2458217.987465278
sI8
F2458218.006076389
sI9
F2458217.986284722
sI10
F2458217.9960763888
sI11
F2458217.9764699074
sI12
F2458218.005474537
sI13
F2458217.995474537
sI14
F2458217.9850694444
sI15
F2458217.986863426
sI16
F2458217.994872685
sI17
F2458217.994259259
ssg39
(dp198
I0
F0.45377383333333327
sI1
Fnan
sI2
Fnan
sI3
Fnan
sI4
Fnan
sI5
Fnan
sI6
Fnan
sI7
Fnan
sI8
Fnan
sI9
Fnan
sI10
Fnan
sI11
Fnan
sI12
Fnan
sI13
Fnan
sI14
Fnan
sI15
Fnan
sI16
Fnan
sI17
Fnan
ssg41
(dp199
I0
F1.8434279111111112
sI1
Fnan
sI2
Fnan
sI3
Fnan
sI4
Fnan
sI5
Fnan
sI6
Fnan
sI7
Fnan
sI8
Fnan
sI9
Fnan
sI10
Fnan
sI11
Fnan
sI12
Fnan
sI13
Fnan
sI14
Fnan
sI15
Fnan
sI16
Fnan
sI17
Fnan
ssg43
(dp200
I0
F0.3552964427548483
sI1
F0.3644018674534938
sI2
F0.36749962413848913
sI3
F0.3697684759161851
sI4
F0.37080361512660154
sI5
F0.3647884307811727
sI6
F0.3661078943032123
sI7
F0.3698971310156858
sI8
F0.3687849552906739
sI9
F0.36703475571514727
sI10
F0.36471538787254854
sI11
F0.3595493656600813
sI12
F0.37076146946897204
sI13
F0.36085485618217056
sI14
F0.36429791023962454
sI15
F0.3627963616465262
sI16
F0.3628814301161107
sI17
F0.3665532896516083
ssg45
(dp201
I0
F0.003282350541381712
sI1
Fnan
sI2
Fnan
sI3
Fnan
sI4
Fnan
sI5
Fnan
sI6
Fnan
sI7
Fnan
sI8
Fnan
sI9
Fnan
sI10
Fnan
sI11
Fnan
sI12
Fnan
sI13
Fnan
sI14
Fnan
sI15
Fnan
sI16
Fnan
sI17
Fnan
ssg47
(dp202
I0
F0.642449488888889
sI1
Fnan
sI2
Fnan
sI3
Fnan
sI4
Fnan
sI5
Fnan
sI6
Fnan
sI7
Fnan
sI8
Fnan
sI9
Fnan
sI10
Fnan
sI11
Fnan
sI12
Fnan
sI13
Fnan
sI14
Fnan
sI15
Fnan
sI16
Fnan
sI17
Fnan
ssg49
(dp203
I0
g173
sI1
g174
sI2
g175
sI3
g176
sI4
g177
sI5
g178
sI6
g179
sI7
g180
sI8
g181
sI9
g182
sI10
g183
sI11
g184
sI12
g185
sI13
g186
sI14
g187
sI15
g188
sI16
g189
sI17
g190
ssg51
(dp204
I0
F0.005512507892915815
sI1
Fnan
sI2
Fnan
sI3
Fnan
sI4
Fnan
sI5
Fnan
sI6
Fnan
sI7
Fnan
sI8
Fnan
sI9
Fnan
sI10
Fnan
sI11
Fnan
sI12
Fnan
sI13
Fnan
sI14
Fnan
sI15
Fnan
sI16
Fnan
sI17
Fnan
ssg53
(dp205
I0
F0.02634611256065738
sI1
Fnan
sI2
Fnan
sI3
Fnan
sI4
Fnan
sI5
Fnan
sI6
Fnan
sI7
Fnan
sI8
Fnan
sI9
Fnan
sI10
Fnan
sI11
Fnan
sI12
Fnan
sI13
Fnan
sI14
Fnan
sI15
Fnan
sI16
Fnan
sI17
Fnan
ssg55
(dp206
I0
F1.02363365
sI1
Fnan
sI2
Fnan
sI3
Fnan
sI4
Fnan
sI5
Fnan
sI6
Fnan
sI7
Fnan
sI8
Fnan
sI9
Fnan
sI10
Fnan
sI11
Fnan
sI12
Fnan
sI13
Fnan
sI14
Fnan
sI15
Fnan
sI16
Fnan
sI17
Fnan
ssg57
(dp207
I0
F1.4971154533379336
sI1
F1.5249198960524335
sI2
F1.4937388466810944
sI3
F1.5084511852908484
sI4
F1.510103552767373
sI5
F1.5136180917379045
sI6
F1.5083997670708438
sI7
F1.5148424707303578
sI8
F1.505540976080188
sI9
F1.504465386371155
sI10
F1.5085694147214634
sI11
F1.5176091117681203
sI12
F1.5134061821063893
sI13
F1.5142439027050263
sI14
F1.5062312722715248
sI15
F1.5250189942568695
sI16
F1.5164517439362997
sI17
F1.5057582063754777
ssg59
(dp208
I0
g173
sI1
g174
sI2
g175
sI3
g176
sI4
g177
sI5
g178
sI6
g179
sI7
g180
sI8
g181
sI9
g182
sI10
g183
sI11
g184
sI12
g185
sI13
g186
sI14
g187
sI15
g188
sI16
g189
sI17
g190
ssg61
(dp209
I0
F1.126331
sI1
F1.28142
sI2
F1.960441
sI3
F3.096653
sI4
F1.247901
sI5
F1.851897
sI6
F0.787214
sI7
F1.119501
sI8
F3.252095
sI9
F0.9224256
sI10
F2.700705
sI11
F1.06811
sI12
F2.424852
sI13
F2.189065
sI14
F2.500003
sI15
F1.127266
sI16
F2.512168
sI17
F2.175255
ssg63
(dp210
I0
F11.985388888888888
sI1
Fnan
sI2
Fnan
sI3
Fnan
sI4
Fnan
sI5
Fnan
sI6
Fnan
sI7
Fnan
sI8
Fnan
sI9
Fnan
sI10
Fnan
sI11
Fnan
sI12
Fnan
sI13
Fnan
sI14
Fnan
sI15
Fnan
sI16
Fnan
sI17
Fnan
ssg65
(dp211
I0
F0.6872434781339539
sI1
Fnan
sI2
Fnan
sI3
Fnan
sI4
Fnan
sI5
Fnan
sI6
Fnan
sI7
Fnan
sI8
Fnan
sI9
Fnan
sI10
Fnan
sI11
Fnan
sI12
Fnan
sI13
Fnan
sI14
Fnan
sI15
Fnan
sI16
Fnan
sI17
Fnan
ssg67
(dp212
I0
F4.017092
sI1
F2.657024
sI2
F4.003152
sI3
F2.80549
sI4
F-2.473104
sI5
F4.465308
sI6
F3.781513
sI7
F3.735435
sI8
F-1.738346
sI9
F0.6024787
sI10
F0.8473307
sI11
F2.160595
sI12
F3.562432
sI13
F2.750109
sI14
F3.74841
sI15
F-0.542904
sI16
F-2.773786
sI17
F1.573473
ssg69
(dp213
I0
F12.327666666666666
sI1
Fnan
sI2
Fnan
sI3
Fnan
sI4
Fnan
sI5
Fnan
sI6
Fnan
sI7
Fnan
sI8
Fnan
sI9
Fnan
sI10
Fnan
sI11
Fnan
sI12
Fnan
sI13
Fnan
sI14
Fnan
sI15
Fnan
sI16
Fnan
sI17
Fnan
ssg71
(dp214
I0
g173
sI1
g174
sI2
g175
sI3
g176
sI4
g177
sI5
g178
sI6
g179
sI7
g180
sI8
g181
sI9
g182
sI10
g183
sI11
g184
sI12
g185
sI13
g186
sI14
g187
sI15
g188
sI16
g189
sI17
g190
ssg73
(dp215
I0
F2889.7476
sI1
F2859.3008
sI2
F3018.5071999999996
sI3
F2941.6564000000003
sI4
F2971.8291999999997
sI5
F2862.1567999999997
sI6
F2914.2312
sI7
F2907.39
sI8
F3077.2592
sI9
F3003.0708
sI10
F2962.8588
sI11
F2791.3716
sI12
F2998.7408
sI13
F2992.4352000000003
sI14
F2976.9364
sI15
F2973.6388
sI16
F2865.8403999999996
sI17
F3003.5204
ssg75
(dp216
I0
F1.18319
sI1
F1.218034
sI2
F1.148893
sI3
F1.126197
sI4
F1.209134
sI5
F1.211341
sI6
F1.213566
sI7
F1.177308
sI8
F1.123073
sI9
F1.181218
sI10
F1.150634
sI11
F1.215766
sI12
F1.124625
sI13
F1.152388
sI14
F1.185194
sI15
F1.17926
sI16
F1.1541700000000001
sI17
F1.155968
ssg77
(dp217
I0
F2365.4976
sI1
F2312.2296
sI2
F2473.58
sI3
F2404.4576
sI4
F2422.1744
sI5
F2328.5264
sI6
F2405.1544
sI7
F2402.036
sI8
F2510.962
sI9
F2407.6592
sI10
F2430.6484
sI11
F2235.4464000000003
sI12
F2422.6088
sI13
F2435.726
sI14
F2428.284
sI15
F2439.5764
sI16
F2304.9792
sI17
F2450.678
ssg79
(dp218
I0
F3933.8544
sI1
F3943.0847999999996
sI2
F4101.872
sI3
F4032.176
sI4
F4072.752
sI5
F3928.3559999999998
sI6
F4011.88
sI7
F4021.472
sI8
F4206.648
sI9
F4070.1279999999997
sI10
F4068.24
sI11
F3814.3723999999997
sI12
F4102.352
sI13
F4109.78
sI14
F4070.756
sI15
F4127.628
sI16
F3920.6492
sI17
F4106.352
ssg81
(dp219
I0
F0.4143512
sI1
F1.086081
sI2
F0.8484042
sI3
F3.916141
sI4
F0.7921563
sI5
F0.1025686
sI6
F0.9127614
sI7
F0.02251875
sI8
F3.779251
sI9
F0.8737397
sI10
F2.384813
sI11
F1.141147
sI12
F3.529523
sI13
F1.454771
sI14
F0.5756391
sI15
F1.329694
sI16
F1.617163
sI17
F2.330485
ssg83
(dp220
I0
F12.565
sI1
F12.59
sI2
F12.517
sI3
F12.547
sI4
F12.539
sI5
F12.582
sI6
F12.547
sI7
F12.549
sI8
F12.5
sI9
F12.546
sI10
F12.536
sI11
F12.627
sI12
F12.539
sI13
F12.533
sI14
F12.537
sI15
F12.532
sI16
F12.593
sI17
F12.527
ssg85
(dp221
I0
F0.004
sI1
F0.004
sI2
F0.003
sI3
F0.003
sI4
F0.003
sI5
F0.004
sI6
F0.003
sI7
F0.003
sI8
F0.003
sI9
F0.003
sI10
F0.003
sI11
F0.004
sI12
F0.003
sI13
F0.003
sI14
F0.003
sI15
F0.003
sI16
F0.004
sI17
F0.003
ssg87
(dp222
I0
F0.3653774035185084
sI1
Fnan
sI2
Fnan
sI3
Fnan
sI4
Fnan
sI5
Fnan
sI6
Fnan
sI7
Fnan
sI8
Fnan
sI9
Fnan
sI10
Fnan
sI11
Fnan
sI12
Fnan
sI13
Fnan
sI14
Fnan
sI15
Fnan
sI16
Fnan
sI17
Fnan
ssg89
(dp223
I0
F12.550333333333333
sI1
Fnan
sI2
Fnan
sI3
Fnan
sI4
Fnan
sI5
Fnan
sI6
Fnan
sI7
Fnan
sI8
Fnan
sI9
Fnan
sI10
Fnan
sI11
Fnan
sI12
Fnan
sI13
Fnan
sI14
Fnan
sI15
Fnan
sI16
Fnan
sI17
Fnan
ssg91
(dp224
I0
F12.348
sI1
F12.359
sI2
F12.301
sI3
F12.329
sI4
F12.317
sI5
F12.358
sI6
F12.339
sI7
F12.341
sI8
F12.28
sI9
F12.306
sI10
F12.321
sI11
F12.385
sI12
F12.308
sI13
F12.31
sI14
F12.316
sI15
F12.317
sI16
F12.357
sI17
F12.306
ssg93
(dp225
I0
F-2.862373
sI1
F2.570646
sI2
F1.877579
sI3
F-2.645611
sI4
F-2.061463
sI5
F-2.024317
sI6
F3.357128
sI7
F-3.57479
sI8
F-3.556003
sI9
F-2.482575
sI10
F2.138053
sI11
F3.992835
sI12
F-3.088464
sI13
F2.251788
sI14
F3.546442
sI15
F3.239218
sI16
F4.479167
sI17
F3.010669
ssg95
(dp226
I0
F0.02586876128571888
sI1
Fnan
sI2
Fnan
sI3
Fnan
sI4
Fnan
sI5
Fnan
sI6
Fnan
sI7
Fnan
sI8
Fnan
sI9
Fnan
sI10
Fnan
sI11
Fnan
sI12
Fnan
sI13
Fnan
sI14
Fnan
sI15
Fnan
sI16
Fnan
sI17
Fnan
ssg97
(dp227
I0
F0.6933281278714672
sI1
F0.6798290293922769
sI2
F0.6947888393359725
sI3
F0.689565639690452
sI4
F0.6876702336825928
sI5
F0.6858175423805991
sI6
F0.6945179857926623
sI7
F0.6933421390121495
sI8
F0.6894546926682427
sI9
F0.6807836929452626
sI10
F0.69139930162836
sI11
F0.6768189624060515
sI12
F0.6823199944662038
sI13
F0.6859059973288334
sI14
F0.6891004493896471
sI15
F0.6870820288008331
sI16
F0.6792846776041624
sI17
F0.6893732720154021
ssg99
(dp228
I0
F25.0
sI1
F25.0
sI2
F25.0
sI3
F25.0
sI4
F25.0
sI5
F25.0
sI6
F25.0
sI7
F25.0
sI8
F25.0
sI9
F25.0
sI10
F25.0
sI11
F25.0
sI12
F25.0
sI13
F25.0
sI14
F25.0
sI15
F25.0
sI16
F25.0
sI17
F25.0
ssg101
(dp229
I0
F0.005
sI1
F0.005
sI2
F0.005
sI3
F0.005
sI4
F0.005
sI5
F0.005
sI6
F0.005
sI7
F0.005
sI8
F0.005
sI9
F0.005
sI10
F0.005
sI11
F0.005
sI12
F0.005
sI13
F0.005
sI14
F0.005
sI15
F0.005
sI16
F0.005
sI17
F0.005
ssg103
(dp230
I0
F0.004
sI1
F0.004
sI2
F0.004
sI3
F0.004
sI4
F0.004
sI5
F0.004
sI6
F0.004
sI7
F0.004
sI8
F0.004
sI9
F0.004
sI10
F0.004
sI11
F0.005
sI12
F0.004
sI13
F0.004
sI14
F0.004
sI15
F0.004
sI16
F0.004
sI17
F0.004
ssg105
(dp231
I0
F4.177578
sI1
F1.321814
sI2
F1.574233
sI3
F1.787588
sI4
F2.615301
sI5
F1.855381
sI6
F-1.403161
sI7
F1.07269
sI8
F3.051219
sI9
F2.351385
sI10
F-4.166087
sI11
F3.334353
sI12
F4.486015
sI13
F2.494095
sI14
F-3.609622
sI15
F0.7397233
sI16
F-0.8665706
sI17
F-2.390529
ssg107
(dp232
I0
S"KIC8462852-20180409at113923_-35-1-025-z'_cal.fts.mag.1"
p233
sI1
S"KIC8462852-20180409at112512_-35-1-025-z'_cal.fts.mag.1"
p234
sI2
S"KIC8462852-20180409at115512_-35-1-025-z'_cal.fts.mag.1"
p235
sI3
S"KIC8462852-20180409at120700_-35-1-025-z'_cal.fts.mag.1"
p236
sI4
S"KIC8462852-20180409at112842_-35-1-025-z'_cal.fts.mag.1"
p237
sI5
S"KIC8462852-20180409at112750_-35-1-025-z'_cal.fts.mag.1"
p238
sI6
S"KIC8462852-20180409at112659_-35-1-025-z'_cal.fts.mag.1"
p239
sI7
S"KIC8462852-20180409at114157_-35-1-025-z'_cal.fts.mag.1"
p240
sI8
S"KIC8462852-20180409at120845_-35-1-025-z'_cal.fts.mag.1"
p241
sI9
S"KIC8462852-20180409at114014_-35-1-025-z'_cal.fts.mag.1"
p242
sI10
S"KIC8462852-20180409at115421_-35-1-025-z'_cal.fts.mag.1"
p243
sI11
S"KIC8462852-20180409at112607_-35-1-025-z'_cal.fts.mag.1"
p244
sI12
S"KIC8462852-20180409at120753_-35-1-025-z'_cal.fts.mag.1"
p245
sI13
S"KIC8462852-20180409at115329_-35-1-025-z'_cal.fts.mag.1"
p246
sI14
S"KIC8462852-20180409at113829_-35-1-025-z'_cal.fts.mag.1"
p247
sI15
S"KIC8462852-20180409at114105_-35-1-025-z'_cal.fts.mag.1"
p248
sI16
S"KIC8462852-20180409at115237_-35-1-025-z'_cal.fts.mag.1"
p249
sI17
S"KIC8462852-20180409at115143_-35-1-025-z'_cal.fts.mag.1"
p250
ssg127
(dp251
I0
F0.008153004604871969
sI1
Fnan
sI2
Fnan
sI3
Fnan
sI4
Fnan
sI5
Fnan
sI6
Fnan
sI7
Fnan
sI8
Fnan
sI9
Fnan
sI10
Fnan
sI11
Fnan
sI12
Fnan
sI13
Fnan
sI14
Fnan
sI15
Fnan
sI16
Fnan
sI17
Fnan
ssg129
(dp252
I0
F1088.2848
sI1
F1107.1276
sI2
F1175.2588
sI3
F1155.932
sI4
F1170.1024
sI5
F1108.84
sI6
F1138.75
sI7
F1150.4908
sI8
F1204.0667999999998
sI9
F1159.9348
sI10
F1150.2816
sI11
F1059.6148
sI12
F1177.0072
sI13
F1147.2708
sI14
F1150.6928
sI15
F1153.7944
sI16
F1099.7084
sI17
F1168.1504
ssg131
(dp253
I0
F0.030676682081500015
sI1
Fnan
sI2
Fnan
sI3
Fnan
sI4
Fnan
sI5
Fnan
sI6
Fnan
sI7
Fnan
sI8
Fnan
sI9
Fnan
sI10
Fnan
sI11
Fnan
sI12
Fnan
sI13
Fnan
sI14
Fnan
sI15
Fnan
sI16
Fnan
sI17
Fnan
ssg133
(dp254
I0
S"z'"
p255
sI1
S"z'"
p256
sI2
S"z'"
p257
sI3
S"z'"
p258
sI4
S"z'"
p259
sI5
S"z'"
p260
sI6
S"z'"
p261
sI7
S"z'"
p262
sI8
S"z'"
p263
sI9
S"z'"
p264
sI10
S"z'"
p265
sI11
S"z'"
p266
sI12
S"z'"
p267
sI13
S"z'"
p268
sI14
S"z'"
p269
sI15
S"z'"
p270
sI16
S"z'"
p271
sI17
S"z'"
p272
ssg153
(dp273
I0
F0.004135632697060262
sI1
Fnan
sI2
Fnan
sI3
Fnan
sI4
Fnan
sI5
Fnan
sI6
Fnan
sI7
Fnan
sI8
Fnan
sI9
Fnan
sI10
Fnan
sI11
Fnan
sI12
Fnan
sI13
Fnan
sI14
Fnan
sI15
Fnan
sI16
Fnan
sI17
Fnan
ssg155
(dp274
I0
F2.599408
sI1
F3.554295
sI2
F-2.606556
sI3
F1.783655
sI4
F-1.376556
sI5
F-3.824934
sI6
F-3.10272
sI7
F3.835907
sI8
F-0.8912402
sI9
F2.878738
sI10
F3.713294
sI11
F-2.003825
sI12
F2.738715
sI13
F-3.103904
sI14
F-1.368079
sI15
F2.413386
sI16
F3.610395
sI17
F2.714112
ssg157
(dp275
I0
F1.5104713585700726
sI1
Fnan
sI2
Fnan
sI3
Fnan
sI4
Fnan
sI5
Fnan
sI6
Fnan
sI7
Fnan
sI8
Fnan
sI9
Fnan
sI10
Fnan
sI11
Fnan
sI12
Fnan
sI13
Fnan
sI14
Fnan
sI15
Fnan
sI16
Fnan
sI17
Fnan
ssg159
(dp276
I0
F2458217.987164352
sI1
Fnan
sI2
Fnan
sI3
Fnan
sI4
Fnan
sI5
Fnan
sI6
Fnan
sI7
Fnan
sI8
Fnan
sI9
Fnan
sI10
Fnan
sI11
Fnan
sI12
Fnan
sI13
Fnan
sI14
Fnan
sI15
Fnan
sI16
Fnan
sI17
Fnan
ssg161
(dp277
I0
F0.004135632697060262
sI1
Fnan
sI2
Fnan
sI3
Fnan
sI4
Fnan
sI5
Fnan
sI6
Fnan
sI7
Fnan
sI8
Fnan
sI9
Fnan
sI10
Fnan
sI11
Fnan
sI12
Fnan
sI13
Fnan
sI14
Fnan
sI15
Fnan
sI16
Fnan
sI17
Fnan
ssg163
(dp278
I0
F2.662054
sI1
F2.1014
sI2
F2.884659
sI3
F3.797198
sI4
F1.403303
sI5
F1.698489
sI6
F1.133156
sI7
F1.047871
sI8
F3.918798
sI9
F1.759336
sI10
F2.279067
sI11
F1.568433
sI12
F3.654358
sI13
F1.691234
sI14
F1.179932
sI15
F0.8098682
sI16
F2.267154
sI17
F1.363494
ssg165
(dp279
I0
F12.013
sI1
F12.01
sI2
F11.968
sI3
F11.986
sI4
F11.975
sI5
F12.014
sI6
F11.992
sI7
F11.989
sI8
F11.94
sI9
F11.976
sI10
F11.976
sI11
F12.046
sI12
F11.967
sI13
F11.965
sI14
F11.976
sI15
F11.961
sI16
F12.017
sI17
F11.966
ssg167
(dp280
I0
F0.3653774035185084
sI1
Fnan
sI2
Fnan
sI3
Fnan
sI4
Fnan
sI5
Fnan
sI6
Fnan
sI7
Fnan
sI8
Fnan
sI9
Fnan
sI10
Fnan
sI11
Fnan
sI12
Fnan
sI13
Fnan
sI14
Fnan
sI15
Fnan
sI16
Fnan
sI17
Fnan
sssS'g'
p281
(dp282
g3
(dp283
I0
F0.8547720185268234
sI1
Fnan
sI2
Fnan
sI3
Fnan
sI4
Fnan
sI5
Fnan
sI6
Fnan
sI7
Fnan
sI8
Fnan
sI9
Fnan
sI10
Fnan
sI11
Fnan
sI12
Fnan
sI13
Fnan
sI14
Fnan
sI15
Fnan
sI16
Fnan
sI17
Fnan
ssg5
(dp284
I0
S'NoError'
p285
sI1
S'NoError'
p286
sI2
S'NoError'
p287
sI3
S'NoError'
p288
sI4
S'NoError'
p289
sI5
S'NoError'
p290
sI6
S'NoError'
p291
sI7
S'NoError'
p292
sI8
S'NoError'
p293
sI9
S'NoError'
p294
sI10
S'NoError'
p295
sI11
S'NoError'
p296
sI12
S'NoError'
p297
sI13
S'NoError'
p298
sI14
S'NoError'
p299
sI15
S'NoError'
p300
sI16
S'NoError'
p301
sI17
S'NoError'
p302
ssg25
(dp303
I0
F0.003
sI1
F0.003
sI2
F0.003
sI3
F0.003
sI4
F0.003
sI5
F0.003
sI6
F0.003
sI7
F0.003
sI8
F0.003
sI9
F0.003
sI10
F0.003
sI11
F0.003
sI12
F0.003
sI13
F0.003
sI14
F0.003
sI15
F0.003
sI16
F0.003
sI17
F0.003
ssg27
(dp304
I0
F0.8762268468030995
sI1
F0.8813503428258084
sI2
F0.8819416409322873
sI3
F0.8768276738361814
sI4
F0.8802738684747751
sI5
F0.8790533792045772
sI6
F0.8834272399429733
sI7
F0.8782766894815512
sI8
F0.8798537553985011
sI9
F0.876177857069577
sI10
F0.8855483053880674
sI11
F0.8719063995215309
sI12
F0.8818646803566141
sI13
F0.8785460845740484
sI14
F0.8833227458809768
sI15
F0.8826489463601532
sI16
F0.8828702056228955
sI17
F0.8748000681121804
ssg29
(dp305
I0
F0.0035479167309767226
sI1
Fnan
sI2
Fnan
sI3
Fnan
sI4
Fnan
sI5
Fnan
sI6
Fnan
sI7
Fnan
sI8
Fnan
sI9
Fnan
sI10
Fnan
sI11
Fnan
sI12
Fnan
sI13
Fnan
sI14
Fnan
sI15
Fnan
sI16
Fnan
sI17
Fnan
ssg31
(dp306
I0
F0.8797175960992111
sI1
Fnan
sI2
Fnan
sI3
Fnan
sI4
Fnan
sI5
Fnan
sI6
Fnan
sI7
Fnan
sI8
Fnan
sI9
Fnan
sI10
Fnan
sI11
Fnan
sI12
Fnan
sI13
Fnan
sI14
Fnan
sI15
Fnan
sI16
Fnan
sI17
Fnan
ssg33
(dp307
I0
F11.488
sI1
F11.402
sI2
F11.446
sI3
F11.488
sI4
F11.46
sI5
F11.449
sI6
F11.461
sI7
F11.436
sI8
F11.402
sI9
F11.459
sI10
F11.466
sI11
F11.461
sI12
F11.447
sI13
F11.484
sI14
F11.46
sI15
F11.407
sI16
F11.443
sI17
F11.452
ssg35
(dp308
I0
F5.2269
sI1
F18.65136
sI2
F3.782228
sI3
F7.059372
sI4
F4.677764
sI5
F3.77142
sI6
F4.456157
sI7
F5.639937
sI8
F20.56576
sI9
F6.618303
sI10
F5.040516
sI11
F4.615928
sI12
F4.766503
sI13
F5.819849
sI14
F4.643976
sI15
F17.66308
sI16
F4.874956
sI17
F4.868089
ssg37
(dp309
I0
F2458217.9709722223
sI1
F2458218.0018055555
sI2
F2458217.9796064813
sI3
F2458217.990601852
sI4
F2458217.9790046294
sI5
F2458217.972175926
sI6
F2458217.980208333
sI7
F2458217.9894097224
sI8
F2458218.0024074074
sI9
F2458217.988796296
sI10
F2458217.9697800926
sI11
F2458217.9703819444
sI12
F2458217.981412037
sI13
F2458217.988194444
sI14
F2458217.971574074
sI15
F2458218.0011921297
sI16
F2458217.980810185
sI17
F2458217.9900115742
ssg39
(dp310
I0
F1.775361111111111
sI1
Fnan
sI2
Fnan
sI3
Fnan
sI4
Fnan
sI5
Fnan
sI6
Fnan
sI7
Fnan
sI8
Fnan
sI9
Fnan
sI10
Fnan
sI11
Fnan
sI12
Fnan
sI13
Fnan
sI14
Fnan
sI15
Fnan
sI16
Fnan
sI17
Fnan
ssg41
(dp311
I0
F2.2698648944444444
sI1
Fnan
sI2
Fnan
sI3
Fnan
sI4
Fnan
sI5
Fnan
sI6
Fnan
sI7
Fnan
sI8
Fnan
sI9
Fnan
sI10
Fnan
sI11
Fnan
sI12
Fnan
sI13
Fnan
sI14
Fnan
sI15
Fnan
sI16
Fnan
sI17
Fnan
ssg43
(dp312
I0
F0.8560675593696615
sI1
F0.8580611148184825
sI2
F0.8567927649885988
sI3
F0.8506426966963411
sI4
F0.853213017539702
sI5
F0.8578566373893847
sI6
F0.8478593019813505
sI7
F0.8572066260725651
sI8
F0.8587216845412399
sI9
F0.8486448270096303
sI10
F0.8547309865829867
sI11
F0.8510088086254661
sI12
F0.8545001846621095
sI13
F0.8521334308808
sI14
F0.8586826083451812
sI15
F0.8565113538510154
sI16
F0.8515779950560088
sI17
F0.846846155913615
ssg45
(dp313
I0
F0.0031060984508485528
sI1
Fnan
sI2
Fnan
sI3
Fnan
sI4
Fnan
sI5
Fnan
sI6
Fnan
sI7
Fnan
sI8
Fnan
sI9
Fnan
sI10
Fnan
sI11
Fnan
sI12
Fnan
sI13
Fnan
sI14
Fnan
sI15
Fnan
sI16
Fnan
sI17
Fnan
ssg47
(dp314
I0
F1.3460904555555553
sI1
Fnan
sI2
Fnan
sI3
Fnan
sI4
Fnan
sI5
Fnan
sI6
Fnan
sI7
Fnan
sI8
Fnan
sI9
Fnan
sI10
Fnan
sI11
Fnan
sI12
Fnan
sI13
Fnan
sI14
Fnan
sI15
Fnan
sI16
Fnan
sI17
Fnan
ssg49
(dp315
I0
g285
sI1
g286
sI2
g287
sI3
g288
sI4
g289
sI5
g290
sI6
g291
sI7
g292
sI8
g293
sI9
g294
sI10
g295
sI11
g296
sI12
g297
sI13
g298
sI14
g299
sI15
g300
sI16
g301
sI17
g302
ssg51
(dp316
I0
F0.0031998652423598315
sI1
Fnan
sI2
Fnan
sI3
Fnan
sI4
Fnan
sI5
Fnan
sI6
Fnan
sI7
Fnan
sI8
Fnan
sI9
Fnan
sI10
Fnan
sI11
Fnan
sI12
Fnan
sI13
Fnan
sI14
Fnan
sI15
Fnan
sI16
Fnan
sI17
Fnan
ssg53
(dp317
I0
F0.025080784509938746
sI1
Fnan
sI2
Fnan
sI3
Fnan
sI4
Fnan
sI5
Fnan
sI6
Fnan
sI7
Fnan
sI8
Fnan
sI9
Fnan
sI10
Fnan
sI11
Fnan
sI12
Fnan
sI13
Fnan
sI14
Fnan
sI15
Fnan
sI16
Fnan
sI17
Fnan
ssg55
(dp318
I0
F0.4977813888888888
sI1
Fnan
sI2
Fnan
sI3
Fnan
sI4
Fnan
sI5
Fnan
sI6
Fnan
sI7
Fnan
sI8
Fnan
sI9
Fnan
sI10
Fnan
sI11
Fnan
sI12
Fnan
sI13
Fnan
sI14
Fnan
sI15
Fnan
sI16
Fnan
sI17
Fnan
ssg57
(dp319
I0
F1.5210566303409054
sI1
F1.5072808864748681
sI2
F1.5121368212372583
sI3
F1.5315962439987907
sI4
F1.5103522219403187
sI5
F1.5175101843351744
sI6
F1.5174593159004603
sI7
F1.5163932382829173
sI8
F1.51291000183228
sI9
F1.5181398395841352
sI10
F1.5105600865359203
sI11
F1.5263389480332232
sI12
F1.5108232255291636
sI13
F1.5249961141237296
sI14
F1.5226724944517571
sI15
F1.5120563775580909
sI16
F1.51858620045427
sI17
F1.5271048245226062
ssg59
(dp320
I0
g285
sI1
g286
sI2
g287
sI3
g288
sI4
g289
sI5
g290
sI6
g291
sI7
g292
sI8
g293
sI9
g294
sI10
g295
sI11
g296
sI12
g297
sI13
g298
sI14
g299
sI15
g300
sI16
g301
sI17
g302
ssg61
(dp321
I0
F5.255527
sI1
F18.2446
sI2
F5.021338
sI3
F6.336203
sI4
F4.516587
sI5
F4.259654
sI6
F3.874252
sI7
F4.993779
sI8
F20.23105
sI9
F5.100726
sI10
F3.815921
sI11
F3.955338
sI12
F4.442184
sI13
F5.289448
sI14
F4.657101
sI15
F16.60021
sI16
F4.855216
sI17
F6.421361
ssg63
(dp322
I0
F10.999055555555556
sI1
Fnan
sI2
Fnan
sI3
Fnan
sI4
Fnan
sI5
Fnan
sI6
Fnan
sI7
Fnan
sI8
Fnan
sI9
Fnan
sI10
Fnan
sI11
Fnan
sI12
Fnan
sI13
Fnan
sI14
Fnan
sI15
Fnan
sI16
Fnan
sI17
Fnan
ssg65
(dp323
I0
F0.7139821515238539
sI1
Fnan
sI2
Fnan
sI3
Fnan
sI4
Fnan
sI5
Fnan
sI6
Fnan
sI7
Fnan
sI8
Fnan
sI9
Fnan
sI10
Fnan
sI11
Fnan
sI12
Fnan
sI13
Fnan
sI14
Fnan
sI15
Fnan
sI16
Fnan
sI17
Fnan
ssg67
(dp324
I0
F3.964443
sI1
F-1.424655
sI2
F4.650041
sI3
F5.235769
sI4
F3.182553
sI5
F2.517655
sI6
F3.06446
sI7
F-3.959214
sI8
F-0.7957603
sI9
F3.722532
sI10
F2.718669
sI11
F3.521633
sI12
F3.602421
sI13
F3.30927
sI14
F0.8611954
sI15
F3.732213
sI16
F4.159833
sI17
F-1.20549
ssg69
(dp325
I0
F11.37388888888889
sI1
Fnan
sI2
Fnan
sI3
Fnan
sI4
Fnan
sI5
Fnan
sI6
Fnan
sI7
Fnan
sI8
Fnan
sI9
Fnan
sI10
Fnan
sI11
Fnan
sI12
Fnan
sI13
Fnan
sI14
Fnan
sI15
Fnan
sI16
Fnan
sI17
Fnan
ssg71
(dp326
I0
g285
sI1
g286
sI2
g287
sI3
g288
sI4
g289
sI5
g290
sI6
g291
sI7
g292
sI8
g293
sI9
g294
sI10
g295
sI11
g296
sI12
g297
sI13
g298
sI14
g299
sI15
g300
sI16
g301
sI17
g302
ssg73
(dp327
I0
F6813.568
sI1
F7387.052
sI2
F7104.368
sI3
F6856.596
sI4
F7036.316
sI5
F7063.92
sI6
F7091.38
sI7
F7144.816
sI8
F7368.784000000001
sI9
F7054.348000000001
sI10
F7011.7519999999995
sI11
F6997.571999999999
sI12
F7118.932
sI13
F6879.984
sI14
F7008.2119999999995
sI15
F7371.884
sI16
F7175.012
sI17
F7110.172
ssg75
(dp328
I0
F1.237021
sI1
F1.1343860000000001
sI2
F1.204267
sI3
F1.167224
sI4
F1.206437
sI5
F1.23221
sI6
F1.2020959999999998
sI7
F1.171019
sI8
F1.132766
sI9
F1.172933
sI10
F1.241835
sI11
F1.239416
sI12
F1.197835
sI13
F1.174895
sI14
F1.234618
sI15
F1.13605
sI16
F1.199949
sI17
F1.169111
ssg77
(dp329
I0
F5890.3640000000005
sI1
F6384.348000000001
sI2
F6115.568
sI3
F5883.335999999999
sI4
F6080.868
sI5
F6090.596
sI6
F6069.044
sI7
F6172.7480000000005
sI8
F6362.74
sI9
F6109.936
sI10
F6004.808000000001
sI11
F6074.78
sI12
F6133.8640000000005
sI13
F5909.924
sI14
F5979.684
sI15
F6338.536
sI16
F6142.18
sI17
F6139.056
ssg79
(dp330
I0
F9661.7
sI1
F10378.684000000001
sI2
F9995.176
sI3
F9756.216
sI4
F9905.784
sI5
F9981.056
sI6
F9985.204
sI7
F10097.332
sI8
F10387.28
sI9
F9992.612
sI10
F9831.148000000001
sI11
F9976.42
sI12
F10011.315999999999
sI13
F9752.28
sI14
F9888.155999999999
sI15
F10365.464
sI16
F10111.652
sI17
F10116.48
ssg81
(dp331
I0
F3.860308
sI1
F19.20825
sI2
F2.843832
sI3
F4.7885
sI4
F3.521678
sI5
F3.277851
sI6
F4.427963
sI7
F5.050604
sI8
F20.39001
sI9
F4.826213
sI10
F4.507596
sI11
F3.762341
sI12
F3.923705
sI13
F5.039238
sI14
F4.451031
sI15
F16.92609
sI16
F3.710571
sI17
F5.274028
ssg83
(dp332
I0
F11.575
sI1
F11.487
sI2
F11.534
sI3
F11.576
sI4
F11.54
sI5
F11.538
sI6
F11.542
sI7
F11.524
sI8
F11.491
sI9
F11.535
sI10
F11.554
sI11
F11.541
sI12
F11.531
sI13
F11.571
sI14
F11.558
sI15
F11.495
sI16
F11.529
sI17
F11.53
ssg85
(dp333
I0
F0.002
sI1
F0.002
sI2
F0.002
sI3
F0.002
sI4
F0.002
sI5
F0.002
sI6
F0.002
sI7
F0.002
sI8
F0.002
sI9
F0.002
sI10
F0.002
sI11
F0.002
sI12
F0.002
sI13
F0.002
sI14
F0.002
sI15
F0.002
sI16
F0.002
sI17
F0.002
ssg87
(dp334
I0
F0.8539476530180077
sI1
Fnan
sI2
Fnan
sI3
Fnan
sI4
Fnan
sI5
Fnan
sI6
Fnan
sI7
Fnan
sI8
Fnan
sI9
Fnan
sI10
Fnan
sI11
Fnan
sI12
Fnan
sI13
Fnan
sI14
Fnan
sI15
Fnan
sI16
Fnan
sI17
Fnan
ssg89
(dp335
I0
F11.536166666666666
sI1
Fnan
sI2
Fnan
sI3
Fnan
sI4
Fnan
sI5
Fnan
sI6
Fnan
sI7
Fnan
sI8
Fnan
sI9
Fnan
sI10
Fnan
sI11
Fnan
sI12
Fnan
sI13
Fnan
sI14
Fnan
sI15
Fnan
sI16
Fnan
sI17
Fnan
ssg91
(dp336
I0
F11.417
sI1
F11.329
sI2
F11.371
sI3
F11.41
sI4
F11.382
sI5
F11.377
sI6
F11.373
sI7
F11.365
sI8
F11.332
sI9
F11.379
sI10
F11.385
sI11
F11.388
sI12
F11.369
sI13
F11.406
sI14
F11.386
sI15
F11.331
sI16
F11.36
sI17
F11.37
ssg93
(dp337
I0
F-1.342839
sI1
F4.003007
sI2
F1.70997
sI3
F3.621564
sI4
F-2.991482
sI5
F3.312373
sI6
F-1.666507
sI7
F3.548459
sI8
F1.712743
sI9
F2.603494
sI10
F1.474635
sI11
F3.502208
sI12
F-1.73526
sI13
F1.687304
sI14
F1.542572
sI15
F3.991806
sI16
F3.135318
sI17
F3.847135
ssg95
(dp338
I0
F0.022537477864586552
sI1
Fnan
sI2
Fnan
sI3
Fnan
sI4
Fnan
sI5
Fnan
sI6
Fnan
sI7
Fnan
sI8
Fnan
sI9
Fnan
sI10
Fnan
sI11
Fnan
sI12
Fnan
sI13
Fnan
sI14
Fnan
sI15
Fnan
sI16
Fnan
sI17
Fnan
ssg97
(dp339
I0
F0.7150553180682706
sI1
F0.718725979041904
sI2
F0.7152901855160582
sI3
F0.708289000080179
sI4
F0.7178411176890706
sI5
F0.7146499942270378
sI6
F0.7108030505398504
sI7
F0.716006845550798
sI8
F0.7166836073580269
sI9
F0.7168358463913801
sI10
F0.7130373035522387
sI11
F0.7157750516201493
sI12
F0.7161442146079847
sI13
F0.7106577913866686
sI14
F0.7078070269302847
sI15
F0.7147106771542173
sI16
F0.7106264112034572
sI17
F0.7127393065117935
ssg99
(dp340
I0
F25.0
sI1
F25.0
sI2
F25.0
sI3
F25.0
sI4
F25.0
sI5
F25.0
sI6
F25.0
sI7
F25.0
sI8
F25.0
sI9
F25.0
sI10
F25.0
sI11
F25.0
sI12
F25.0
sI13
F25.0
sI14
F25.0
sI15
F25.0
sI16
F25.0
sI17
F25.0
ssg101
(dp341
I0
F0.003
sI1
F0.003
sI2
F0.003
sI3
F0.003
sI4
F0.003
sI5
F0.003
sI6
F0.003
sI7
F0.003
sI8
F0.003
sI9
F0.003
sI10
F0.003
sI11
F0.003
sI12
F0.003
sI13
F0.003
sI14
F0.003
sI15
F0.003
sI16
F0.003
sI17
F0.003
ssg103
(dp342
I0
F0.003
sI1
F0.002
sI2
F0.003
sI3
F0.003
sI4
F0.003
sI5
F0.002
sI6
F0.003
sI7
F0.002
sI8
F0.002
sI9
F0.002
sI10
F0.003
sI11
F0.002
sI12
F0.002
sI13
F0.003
sI14
F0.003
sI15
F0.002
sI16
F0.002
sI17
F0.002
ssg105
(dp343
I0
F-2.091657
sI1
F4.243119
sI2
F-2.499064
sI3
F-2.564654
sI4
F-2.781325
sI5
F3.56708
sI6
F4.078336
sI7
F4.00659
sI8
F1.322507
sI9
F2.814696
sI10
F3.376175
sI11
F2.305787
sI12
F-2.007534
sI13
F4.330931
sI14
F-1.605988
sI15
F-2.403479
sI16
F-2.841568
sI17
F-2.289887
ssg107
(dp344
I0
S"KIC8462852-20180409at111812_-35-1-025-g'_cal.fts.mag.1"
p345
sI1
S"KIC8462852-20180409at120236_-35-1-025-g'_cal.fts.mag.1"
p346
sI2
S"KIC8462852-20180409at113038_-35-1-025-g'_cal.fts.mag.1"
p347
sI3
S"KIC8462852-20180409at114628_-35-1-025-g'_cal.fts.mag.1"
p348
sI4
S"KIC8462852-20180409at112936_-35-1-025-g'_cal.fts.mag.1"
p349
sI5
S"KIC8462852-20180409at111956_-35-1-025-g'_cal.fts.mag.1"
p350
sI6
S"KIC8462852-20180409at113130_-35-1-025-g'_cal.fts.mag.1"
p351
sI7
S"KIC8462852-20180409at114445_-35-1-025-g'_cal.fts.mag.1"
p352
sI8
S"KIC8462852-20180409at120328_-35-1-025-g'_cal.fts.mag.1"
p353
sI9
S"KIC8462852-20180409at114352_-35-1-025-g'_cal.fts.mag.1"
p354
sI10
S"KIC8462852-20180409at111624_-35-1-025-g'_cal.fts.mag.1"
p355
sI11
S"KIC8462852-20180409at111721_-35-1-025-g'_cal.fts.mag.1"
p356
sI12
S"KIC8462852-20180409at113314_-35-1-025-g'_cal.fts.mag.1"
p357
sI13
S"KIC8462852-20180409at114251_-35-1-025-g'_cal.fts.mag.1"
p358
sI14
S"KIC8462852-20180409at111904_-35-1-025-g'_cal.fts.mag.1"
p359
sI15
S"KIC8462852-20180409at120138_-35-1-025-g'_cal.fts.mag.1"
p360
sI16
S"KIC8462852-20180409at113222_-35-1-025-g'_cal.fts.mag.1"
p361
sI17
S"KIC8462852-20180409at114537_-35-1-025-g'_cal.fts.mag.1"
p362
ssg127
(dp363
I0
F0.0068373196058416
sI1
Fnan
sI2
Fnan
sI3
Fnan
sI4
Fnan
sI5
Fnan
sI6
Fnan
sI7
Fnan
sI8
Fnan
sI9
Fnan
sI10
Fnan
sI11
Fnan
sI12
Fnan
sI13
Fnan
sI14
Fnan
sI15
Fnan
sI16
Fnan
sI17
Fnan
ssg129
(dp364
I0
F6382.164000000001
sI1
F6907.416
sI2
F6630.18
sI3
F6378.728
sI4
F6547.831999999999
sI5
F6615.668000000001
sI6
F6541.411999999999
sI7
F6690.468000000001
sI8
F6903.78
sI9
F6550.66
sI10
F6509.548000000001
sI11
F6538.236
sI12
F6626.396
sI13
F6402.984
sI14
F6547.755999999999
sI15
F6873.755999999999
sI16
F6650.496
sI17
F6595.72
ssg131
(dp365
I0
F0.026122449214060706
sI1
Fnan
sI2
Fnan
sI3
Fnan
sI4
Fnan
sI5
Fnan
sI6
Fnan
sI7
Fnan
sI8
Fnan
sI9
Fnan
sI10
Fnan
sI11
Fnan
sI12
Fnan
sI13
Fnan
sI14
Fnan
sI15
Fnan
sI16
Fnan
sI17
Fnan
ssg133
(dp366
I0
S"g'"
p367
sI1
S"g'"
p368
sI2
S"g'"
p369
sI3
S"g'"
p370
sI4
S"g'"
p371
sI5
S"g'"
p372
sI6
S"g'"
p373
sI7
S"g'"
p374
sI8
S"g'"
p375
sI9
S"g'"
p376
sI10
S"g'"
p377
sI11
S"g'"
p378
sI12
S"g'"
p379
sI13
S"g'"
p380
sI14
S"g'"
p381
sI15
S"g'"
p382
sI16
S"g'"
p383
sI17
S"g'"
p384
ssg153
(dp385
I0
F0.0038557679995276225
sI1
Fnan
sI2
Fnan
sI3
Fnan
sI4
Fnan
sI5
Fnan
sI6
Fnan
sI7
Fnan
sI8
Fnan
sI9
Fnan
sI10
Fnan
sI11
Fnan
sI12
Fnan
sI13
Fnan
sI14
Fnan
sI15
Fnan
sI16
Fnan
sI17
Fnan
ssg155
(dp386
I0
F3.409909
sI1
F2.785259
sI2
F3.980088
sI3
F0.9867542
sI4
F2.768381
sI5
F4.039152
sI6
F3.574588
sI7
F-3.114632
sI8
F4.895034
sI9
F-2.636055
sI10
F2.899011
sI11
F1.153092
sI12
F-1.157229
sI13
F2.565397
sI14
F-3.186124
sI15
F-4.914834
sI16
F2.754184
sI17
F3.427653
ssg157
(dp387
I0
F1.517665203063104
sI1
Fnan
sI2
Fnan
sI3
Fnan
sI4
Fnan
sI5
Fnan
sI6
Fnan
sI7
Fnan
sI8
Fnan
sI9
Fnan
sI10
Fnan
sI11
Fnan
sI12
Fnan
sI13
Fnan
sI14
Fnan
sI15
Fnan
sI16
Fnan
sI17
Fnan
ssg159
(dp388
I0
F2458217.981111111
sI1
Fnan
sI2
Fnan
sI3
Fnan
sI4
Fnan
sI5
Fnan
sI6
Fnan
sI7
Fnan
sI8
Fnan
sI9
Fnan
sI10
Fnan
sI11
Fnan
sI12
Fnan
sI13
Fnan
sI14
Fnan
sI15
Fnan
sI16
Fnan
sI17
Fnan
ssg161
(dp389
I0
F0.0038557679995276225
sI1
Fnan
sI2
Fnan
sI3
Fnan
sI4
Fnan
sI5
Fnan
sI6
Fnan
sI7
Fnan
sI8
Fnan
sI9
Fnan
sI10
Fnan
sI11
Fnan
sI12
Fnan
sI13
Fnan
sI14
Fnan
sI15
Fnan
sI16
Fnan
sI17
Fnan
ssg163
(dp390
I0
F6.362792
sI1
F19.27489
sI2
F5.67274
sI3
F6.469176
sI4
F6.326057
sI5
F4.887269
sI6
F4.447211
sI7
F5.782128
sI8
F22.22377
sI9
F6.377468
sI10
F5.535061
sI11
F4.953444
sI12
F5.191601
sI13
F6.736843
sI14
F5.520884
sI15
F17.41315
sI16
F4.857587
sI17
F6.22606
ssg165
(dp391
I0
F11.037
sI1
F10.96
sI2
F11.001
sI3
F11.027
sI4
F11.01
sI5
F11.002
sI6
F11.002
sI7
F10.989
sI8
F10.959
sI9
F11.001
sI10
F11.018
sI11
F11.003
sI12
F10.999
sI13
F11.027
sI14
F11.012
sI15
F10.961
sI16
F10.988
sI17
F10.987
ssg167
(dp392
I0
F0.8539476530180077
sI1
Fnan
sI2
Fnan
sI3
Fnan
sI4
Fnan
sI5
Fnan
sI6
Fnan
sI7
Fnan
sI8
Fnan
sI9
Fnan
sI10
Fnan
sI11
Fnan
sI12
Fnan
sI13
Fnan
sI14
Fnan
sI15
Fnan
sI16
Fnan
sI17
Fnan
sss.