(dp0
S'i'
p1
(dp2
S'sigmean'
p3
(dp4
I0
F0.43819114701290407
sI1
Fnan
sI2
Fnan
sI3
Fnan
sI4
Fnan
sI5
Fnan
sI6
Fnan
sI7
Fnan
sI8
Fnan
sI9
Fnan
sI10
Fnan
sI11
Fnan
sI12
Fnan
sI13
Fnan
sI14
Fnan
ssS'ref3flag'
p5
(dp6
I0
S'NoError'
p7
sI1
S'NoError'
p8
sI2
S'NoError'
p9
sI3
S'NoError'
p10
sI4
S'NoError'
p11
sI5
S'NoError'
p12
sI6
S'NoError'
p13
sI7
S'NoError'
p14
sI8
S'NoError'
p15
sI9
S'NoError'
p16
sI10
S'NoError'
p17
sI11
S'NoError'
p18
sI12
S'NoError'
p19
sI13
S'NoError'
p20
sI14
S'NoError'
p21
ssS'tabbyerr'
p22
(dp23
I0
F0.003
sI1
F0.003
sI2
F0.003
sI3
F0.003
sI4
F0.003
sI5
F0.003
sI6
F0.003
sI7
F0.003
sI8
F0.003
sI9
F0.003
sI10
F0.003
sI11
F0.003
sI12
F0.003
sI13
F0.003
sI14
F0.003
ssS'ref2rel'
p24
(dp25
I0
F0.9105925286657593
sI1
F0.9094536887081505
sI2
F0.9096066760702922
sI3
F0.9125173272611783
sI4
F0.9086959429309427
sI5
F0.915571443730441
sI6
F0.9065766305560051
sI7
F0.9103414110888625
sI8
F0.9084652998565979
sI9
F0.9082896983589686
sI10
F0.908462551827155
sI11
F0.9146934320715648
sI12
F0.9120326595484697
sI13
F0.9111785822758453
sI14
F0.9068864204964554
ssS'ref2err'
p26
(dp27
I0
F0.0026165929025062174
sI1
Fnan
sI2
Fnan
sI3
Fnan
sI4
Fnan
sI5
Fnan
sI6
Fnan
sI7
Fnan
sI8
Fnan
sI9
Fnan
sI10
Fnan
sI11
Fnan
sI12
Fnan
sI13
Fnan
sI14
Fnan
ssS'ref2mean'
p28
(dp29
I0
F0.9102242862297791
sI1
Fnan
sI2
Fnan
sI3
Fnan
sI4
Fnan
sI5
Fnan
sI6
Fnan
sI7
Fnan
sI8
Fnan
sI9
Fnan
sI10
Fnan
sI11
Fnan
sI12
Fnan
sI13
Fnan
sI14
Fnan
ssS'tabbymag'
p30
(dp31
I0
F11.921
sI1
F11.959
sI2
F11.959
sI3
F11.933
sI4
F11.943
sI5
F11.913
sI6
F11.985
sI7
F11.943
sI8
F11.927
sI9
F11.927
sI10
F11.944
sI11
F11.947
sI12
F11.989
sI13
F11.964
sI14
F11.954
ssS'tabbybkg'
p32
(dp33
I0
F14.07986
sI1
F15.65201
sI2
F14.96123
sI3
F13.92889
sI4
F14.27702
sI5
F13.9846
sI6
F15.8285
sI7
F14.39268
sI8
F15.36355
sI9
F14.39178
sI10
F14.58947
sI11
F14.49164
sI12
F15.57384
sI13
F14.19711
sI14
F14.25833
ssS'JD'
p34
(dp35
I0
F2458419.6196296294
sI1
F2458419.618877315
sI2
F2458419.599247685
sI3
F2458419.580428241
sI4
F2458419.581921296
sI5
F2458419.6014699074
sI6
F2458419.617384259
sI7
F2458419.5796875
sI8
F2458419.6203587963
sI9
F2458419.582662037
sI10
F2458419.5985185187
sI11
F2458419.599988426
sI12
F2458419.618125
sI13
F2458419.6007291665
sI14
F2458419.5811805557
ssS'ref3rmsmean'
p36
(dp37
I0
F1.899612533333333
sI1
Fnan
sI2
Fnan
sI3
Fnan
sI4
Fnan
sI5
Fnan
sI6
Fnan
sI7
Fnan
sI8
Fnan
sI9
Fnan
sI10
Fnan
sI11
Fnan
sI12
Fnan
sI13
Fnan
sI14
Fnan
ssS'ref1rmsmean'
p38
(dp39
I0
F1.002043
sI1
Fnan
sI2
Fnan
sI3
Fnan
sI4
Fnan
sI5
Fnan
sI6
Fnan
sI7
Fnan
sI8
Fnan
sI9
Fnan
sI10
Fnan
sI11
Fnan
sI12
Fnan
sI13
Fnan
sI14
Fnan
ssS'relflux'
p40
(dp41
I0
F0.43967769028260306
sI1
F0.43593161016014537
sI2
F0.439201725969822
sI3
F0.4377101193019161
sI4
F0.4372528312061837
sI5
F0.439483904505534
sI6
F0.4374560854320941
sI7
F0.43557507346123514
sI8
F0.437336534707047
sI9
F0.4402072285252892
sI10
F0.44062101160459116
sI11
F0.4389769580028262
sI12
F0.43723747163250654
sI13
F0.4387766823442141
sI14
F0.4372360690975708
ssS'sigerr'
p42
(dp43
I0
F0.001216455036747626
sI1
Fnan
sI2
Fnan
sI3
Fnan
sI4
Fnan
sI5
Fnan
sI6
Fnan
sI7
Fnan
sI8
Fnan
sI9
Fnan
sI10
Fnan
sI11
Fnan
sI12
Fnan
sI13
Fnan
sI14
Fnan
ssS'tabbyrmsmean'
p44
(dp45
I0
F0.7918660933333332
sI1
Fnan
sI2
Fnan
sI3
Fnan
sI4
Fnan
sI5
Fnan
sI6
Fnan
sI7
Fnan
sI8
Fnan
sI9
Fnan
sI10
Fnan
sI11
Fnan
sI12
Fnan
sI13
Fnan
sI14
Fnan
ssS'tabbyflag'
p46
(dp47
I0
g7
sI1
g8
sI2
g9
sI3
g10
sI4
g11
sI5
g12
sI6
g13
sI7
g14
sI8
g15
sI9
g16
sI10
g17
sI11
g18
sI12
g19
sI13
g20
sI14
g21
ssS'ref1err'
p48
(dp49
I0
F0.0016649261280758916
sI1
Fnan
sI2
Fnan
sI3
Fnan
sI4
Fnan
sI5
Fnan
sI6
Fnan
sI7
Fnan
sI8
Fnan
sI9
Fnan
sI10
Fnan
sI11
Fnan
sI12
Fnan
sI13
Fnan
sI14
Fnan
ssS'ref2magmeanerr'
p50
(dp51
I0
F0.021326710281442104
sI1
Fnan
sI2
Fnan
sI3
Fnan
sI4
Fnan
sI5
Fnan
sI6
Fnan
sI7
Fnan
sI8
Fnan
sI9
Fnan
sI10
Fnan
sI11
Fnan
sI12
Fnan
sI13
Fnan
sI14
Fnan
ssS'ref2rmsmean'
p52
(dp53
I0
F1.3108672666666668
sI1
Fnan
sI2
Fnan
sI3
Fnan
sI4
Fnan
sI5
Fnan
sI6
Fnan
sI7
Fnan
sI8
Fnan
sI9
Fnan
sI10
Fnan
sI11
Fnan
sI12
Fnan
sI13
Fnan
sI14
Fnan
ssS'ref3rel'
p54
(dp55
I0
F1.5009090889113126
sI1
F1.509940413873674
sI2
F1.5088966600394154
sI3
F1.5032976782606033
sI4
F1.5051674548490928
sI5
F1.498667140888981
sI6
F1.5136672195461762
sI7
F1.5064448500339775
sI8
F1.5069054134429491
sI9
F1.508506685602438
sI10
F1.506539405544344
sI11
F1.4944918272694754
sI12
F1.5012509018436824
sI13
F1.4991542539658071
sI14
F1.5060712673971886
ssS'ref1flag'
p56
(dp57
I0
g7
sI1
g8
sI2
g9
sI3
g10
sI4
g11
sI5
g12
sI6
g13
sI7
g14
sI8
g15
sI9
g16
sI10
g17
sI11
g18
sI12
g19
sI13
g20
sI14
g21
ssS'ref2bkg'
p58
(dp59
I0
F16.29374
sI1
F17.45065
sI2
F16.69338
sI3
F16.22867
sI4
F16.64043
sI5
F16.85846
sI6
F19.13152
sI7
F16.57265
sI8
F17.53178
sI9
F16.52037
sI10
F18.00244
sI11
F17.44731
sI12
F18.98273
sI13
F17.25504
sI14
F16.61286
ssS'ref3magmean'
p60
(dp61
I0
F10.776533333333335
sI1
Fnan
sI2
Fnan
sI3
Fnan
sI4
Fnan
sI5
Fnan
sI6
Fnan
sI7
Fnan
sI8
Fnan
sI9
Fnan
sI10
Fnan
sI11
Fnan
sI12
Fnan
sI13
Fnan
sI14
Fnan
ssS'ref1mean'
p62
(dp63
I0
F0.6950646960868472
sI1
Fnan
sI2
Fnan
sI3
Fnan
sI4
Fnan
sI5
Fnan
sI6
Fnan
sI7
Fnan
sI8
Fnan
sI9
Fnan
sI10
Fnan
sI11
Fnan
sI12
Fnan
sI13
Fnan
sI14
Fnan
ssS'ref1rms'
p64
(dp65
I0
F3.34441
sI1
F4.113122
sI2
F-3.162282
sI3
F4.061196
sI4
F4.560272
sI5
F3.957001
sI6
F-3.790084
sI7
F-3.512017
sI8
F-1.256066
sI9
F-4.159372
sI10
F4.683187
sI11
F-2.919676
sI12
F3.529583
sI13
F2.231615
sI14
F3.349756
ssS'ref2magmean'
p66
(dp67
I0
F11.120599999999998
sI1
Fnan
sI2
Fnan
sI3
Fnan
sI4
Fnan
sI5
Fnan
sI6
Fnan
sI7
Fnan
sI8
Fnan
sI9
Fnan
sI10
Fnan
sI11
Fnan
sI12
Fnan
sI13
Fnan
sI14
Fnan
ssS'ref2flag'
p68
(dp69
I0
g7
sI1
g8
sI2
g9
sI3
g10
sI4
g11
sI5
g12
sI6
g13
sI7
g14
sI8
g15
sI9
g16
sI10
g17
sI11
g18
sI12
g19
sI13
g20
sI14
g21
ssS'ref2'
p70
(dp71
I0
F9137.45
sI1
F8890.393333333333
sI2
F8826.016666666666
sI3
F9088.873333333333
sI4
F8990.83
sI5
F9246.619999999999
sI6
F8636.993333333334
sI7
F9041.08
sI8
F9119.369999999999
sI9
F9060.583333333334
sI10
F8910.786666666665
sI11
F8967.380000000001
sI12
F8645.72
sI13
F8810.073333333334
sI14
F8891.206666666667
ssS'airmass'
p72
(dp73
I0
F1.054135
sI1
F1.052991
sI2
F1.027796
sI3
F1.012486
sI4
F1.013392
sI5
F1.0301559999999998
sI6
F1.050718
sI7
F1.012047
sI8
F1.055297
sI9
F1.013859
sI10
F1.027038
sI11
F1.028566
sI12
F1.051848
sI13
F1.02935
sI14
F1.012932
ssS'ref1'
p74
(dp75
I0
F7547.753333333333
sI1
F7315.84
sI2
F7265.79
sI3
F7472.2733333333335
sI4
F7430.213333333333
sI5
F7585.616666666667
sI6
F7124.929999999999
sI7
F7445.21
sI8
F7531.093333333333
sI9
F7477.193333333333
sI10
F7360.570000000001
sI11
F7386.803333333333
sI12
F7122.903333333334
sI13
F7278.286666666667
sI14
F7365.97
ssS'ref3'
p76
(dp77
I0
F12521.486666666666
sI1
F12235.223333333333
sI2
F12140.436666666666
sI3
F12448.166666666666
sI4
F12358.21
sI5
F12612.96
sI6
F11929.153333333332
sI7
F12417.843333333332
sI8
F12545.336666666666
sI9
F12473.673333333334
sI10
F12256.72
sI11
F12220.596666666668
sI12
F11836.33
sI13
F12059.466666666667
sI14
F12242.233333333334
ssS'ref1bkg'
p78
(dp79
I0
F15.82379
sI1
F17.03589
sI2
F16.6215
sI3
F14.77805
sI4
F15.21364
sI5
F15.3961
sI6
F18.70442
sI7
F16.39329
sI8
F16.84167
sI9
F15.96335
sI10
F16.79522
sI11
F15.26694
sI12
F18.50066
sI13
F15.94669
sI14
F14.87913
ssS'ref1mag'
p80
(dp81
I0
F11.305
sI1
F11.339
sI2
F11.347
sI3
F11.316
sI4
F11.322
sI5
F11.3
sI6
F11.368
sI7
F11.32
sI8
F11.308
sI9
F11.316
sI10
F11.333
sI11
F11.329
sI12
F11.368
sI13
F11.345
sI14
F11.332
ssS'ref3magerr'
p82
(dp83
I0
F0.002
sI1
F0.002
sI2
F0.002
sI3
F0.002
sI4
F0.002
sI5
F0.002
sI6
F0.002
sI7
F0.002
sI8
F0.002
sI9
F0.002
sI10
F0.002
sI11
F0.002
sI12
F0.002
sI13
F0.002
sI14
F0.002
ssS'tabbymagmean'
p84
(dp85
I0
F0.4381787330822386
sI1
Fnan
sI2
Fnan
sI3
Fnan
sI4
Fnan
sI5
Fnan
sI6
Fnan
sI7
Fnan
sI8
Fnan
sI9
Fnan
sI10
Fnan
sI11
Fnan
sI12
Fnan
sI13
Fnan
sI14
Fnan
ssS'ref1magmean'
p86
(dp87
I0
F11.329866666666668
sI1
Fnan
sI2
Fnan
sI3
Fnan
sI4
Fnan
sI5
Fnan
sI6
Fnan
sI7
Fnan
sI8
Fnan
sI9
Fnan
sI10
Fnan
sI11
Fnan
sI12
Fnan
sI13
Fnan
sI14
Fnan
ssS'ref2mag'
p88
(dp89
I0
F11.098
sI1
F11.128
sI2
F11.136
sI3
F11.104
sI4
F11.116
sI5
F11.085
sI6
F11.159
sI7
F11.109
sI8
F11.1
sI9
F11.107
sI10
F11.125
sI11
F11.118
sI12
F11.158
sI13
F11.138
sI14
F11.128
ssS'ref3rms'
p90
(dp91
I0
F-2.107056
sI1
F3.182139
sI2
F-3.843043
sI3
F3.300032
sI4
F3.575716
sI5
F2.174799
sI6
F3.939516
sI7
F1.276644
sI8
F4.178087
sI9
F2.774578
sI10
F2.701282
sI11
F-2.886956
sI12
F3.958274
sI13
F3.476882
sI14
F2.793294
ssS'ref3magmeanerr'
p92
(dp93
I0
F0.020131236093858484
sI1
Fnan
sI2
Fnan
sI3
Fnan
sI4
Fnan
sI5
Fnan
sI6
Fnan
sI7
Fnan
sI8
Fnan
sI9
Fnan
sI10
Fnan
sI11
Fnan
sI12
Fnan
sI13
Fnan
sI14
Fnan
ssS'ref1rel'
p94
(dp95
I0
F0.6969643477419097
sI1
F0.6926036873085362
sI2
F0.6930871792654171
sI3
F0.6938997497644368
sI4
F0.6960700184489169
sI5
F0.69403132783582
sI6
F0.6928794309872339
sI7
F0.6939034064616787
sI8
F0.6952407387006702
sI9
F0.6944463836457786
sI10
F0.6954593298029749
sI11
F0.697263683979263
sI12
F0.6955264080825243
sI13
F0.6975033150387279
sI14
F0.6970914342388177
ssS'exposure'
p96
(dp97
I0
F30.0
sI1
F30.0
sI2
F30.0
sI3
F30.0
sI4
F30.0
sI5
F30.0
sI6
F30.0
sI7
F30.0
sI8
F30.0
sI9
F30.0
sI10
F30.0
sI11
F30.0
sI12
F30.0
sI13
F30.0
sI14
F30.0
ssS'ref1magerr'
p98
(dp99
I0
F0.002
sI1
F0.002
sI2
F0.002
sI3
F0.002
sI4
F0.002
sI5
F0.002
sI6
F0.002
sI7
F0.002
sI8
F0.002
sI9
F0.002
sI10
F0.002
sI11
F0.002
sI12
F0.002
sI13
F0.002
sI14
F0.002
ssS'ref2magerr'
p100
(dp101
I0
F0.002
sI1
F0.002
sI2
F0.002
sI3
F0.002
sI4
F0.002
sI5
F0.002
sI6
F0.002
sI7
F0.002
sI8
F0.002
sI9
F0.002
sI10
F0.002
sI11
F0.002
sI12
F0.002
sI13
F0.002
sI14
F0.002
ssS'ref2rms'
p102
(dp103
I0
F3.461061
sI1
F2.913733
sI2
F3.988193
sI3
F1.224412
sI4
F2.411365
sI5
F3.70271
sI6
F5.147439
sI7
F-3.409057
sI8
F1.438009
sI9
F1.780817
sI10
F-3.098944
sI11
F-4.219999
sI12
F4.13738
sI13
F-2.446298
sI14
F2.632188
ssS'name'
p104
(dp105
I0
S"KIC8462852-20181028at025216_-25-1X1-030-i'_cal.fts.mag.1"
p106
sI1
S"KIC8462852-20181028at025111_-25-1X1-030-i'_cal.fts.mag.1"
p107
sI2
S"KIC8462852-20181028at022255_-25-1X1-030-i'_cal.fts.mag.1"
p108
sI3
S"KIC8462852-20181028at015549_-25-1X1-030-i'_cal.fts.mag.1"
p109
sI4
S"KIC8462852-20181028at015758_-25-1X1-030-i'_cal.fts.mag.1"
p110
sI5
S"KIC8462852-20181028at022607_-25-1X1-030-i'_cal.fts.mag.1"
p111
sI6
S"KIC8462852-20181028at024900_-25-1X1-030-i'_cal.fts.mag.1"
p112
sI7
S"KIC8462852-20181028at015443_-25-1X1-030-i'_cal.fts.mag.1"
p113
sI8
S"KIC8462852-20181028at025319_-25-1X1-030-i'_cal.fts.mag.1"
p114
sI9
S"KIC8462852-20181028at015902_-25-1X1-030-i'_cal.fts.mag.1"
p115
sI10
S"KIC8462852-20181028at022150_-25-1X1-030-i'_cal.fts.mag.1"
p116
sI11
S"KIC8462852-20181028at022359_-25-1X1-030-i'_cal.fts.mag.1"
p117
sI12
S"KIC8462852-20181028at025006_-25-1X1-030-i'_cal.fts.mag.1"
p118
sI13
S"KIC8462852-20181028at022503_-25-1X1-030-i'_cal.fts.mag.1"
p119
sI14
S"KIC8462852-20181028at015654_-25-1X1-030-i'_cal.fts.mag.1"
p120
ssS'ref3err'
p121
(dp122
I0
F0.005020917030921548
sI1
Fnan
sI2
Fnan
sI3
Fnan
sI4
Fnan
sI5
Fnan
sI6
Fnan
sI7
Fnan
sI8
Fnan
sI9
Fnan
sI10
Fnan
sI11
Fnan
sI12
Fnan
sI13
Fnan
sI14
Fnan
ssS'tabby'
p123
(dp124
I0
F4280.51
sI1
F4132.843333333333
sI2
F4133.216666666666
sI3
F4232.556666666666
sI4
F4194.6033333333335
sI5
F4313.5633333333335
sI6
F4037.8766666666666
sI7
F4196.64
sI8
F4256.13
sI9
F4257.016666666666
sI10
F4190.0233333333335
sI11
F4181.223333333333
sI12
F4023.3066666666664
sI13
F4116.87
sI14
F4153.656666666667
ssS'ref1magmeanerr'
p125
(dp126
I0
F0.020808194356573884
sI1
Fnan
sI2
Fnan
sI3
Fnan
sI4
Fnan
sI5
Fnan
sI6
Fnan
sI7
Fnan
sI8
Fnan
sI9
Fnan
sI10
Fnan
sI11
Fnan
sI12
Fnan
sI13
Fnan
sI14
Fnan
ssS'filter'
p127
(dp128
I0
S"i'"
p129
sI1
S"i'"
p130
sI2
S"i'"
p131
sI3
S"i'"
p132
sI4
S"i'"
p133
sI5
S"i'"
p134
sI6
S"i'"
p135
sI7
S"i'"
p136
sI8
S"i'"
p137
sI9
S"i'"
p138
sI10
S"i'"
p139
sI11
S"i'"
p140
sI12
S"i'"
p141
sI13
S"i'"
p142
sI14
S"i'"
p143
ssS'tabbymagerr'
p144
(dp145
I0
F0.0015114488864787635
sI1
Fnan
sI2
Fnan
sI3
Fnan
sI4
Fnan
sI5
Fnan
sI6
Fnan
sI7
Fnan
sI8
Fnan
sI9
Fnan
sI10
Fnan
sI11
Fnan
sI12
Fnan
sI13
Fnan
sI14
Fnan
ssS'tabbyrms'
p146
(dp147
I0
F-2.444617
sI1
F2.228658
sI2
F-2.957643
sI3
F1.111194
sI4
F-2.533406
sI5
F2.584419
sI6
F-0.9475706
sI7
F-2.840318
sI8
F-2.732262
sI9
F3.517294
sI10
F3.709285
sI11
F2.960091
sI12
F2.889255
sI13
F4.002864
sI14
F3.330748
ssS'ref3mean'
p148
(dp149
I0
F1.504660684097941
sI1
Fnan
sI2
Fnan
sI3
Fnan
sI4
Fnan
sI5
Fnan
sI6
Fnan
sI7
Fnan
sI8
Fnan
sI9
Fnan
sI10
Fnan
sI11
Fnan
sI12
Fnan
sI13
Fnan
sI14
Fnan
ssS'median_JD'
p150
(dp151
I0
F2458419.599988426
sI1
Fnan
sI2
Fnan
sI3
Fnan
sI4
Fnan
sI5
Fnan
sI6
Fnan
sI7
Fnan
sI8
Fnan
sI9
Fnan
sI10
Fnan
sI11
Fnan
sI12
Fnan
sI13
Fnan
sI14
Fnan
ssS'error'
p152
(dp153
I0
F0.0015114488864787635
sI1
Fnan
sI2
Fnan
sI3
Fnan
sI4
Fnan
sI5
Fnan
sI6
Fnan
sI7
Fnan
sI8
Fnan
sI9
Fnan
sI10
Fnan
sI11
Fnan
sI12
Fnan
sI13
Fnan
sI14
Fnan
ssS'ref3bkg'
p154
(dp155
I0
F19.66727
sI1
F20.68445
sI2
F19.53653
sI3
F18.29007
sI4
F18.15995
sI5
F19.11664
sI6
F22.3715
sI7
F18.91217
sI8
F20.00871
sI9
F17.71199
sI10
F20.89031
sI11
F19.36734
sI12
F22.86997
sI13
F18.79815
sI14
F17.9764
ssS'ref3mag'
p156
(dp157
I0
F10.756
sI1
F10.781
sI2
F10.789
sI3
F10.762
sI4
F10.77
sI5
F10.748
sI6
F10.808
sI7
F10.765
sI8
F10.754
sI9
F10.76
sI10
F10.779
sI11
F10.782
sI12
F10.817
sI13
F10.797
sI14
F10.78
ssS'mean'
p158
(dp159
I0
F0.4381787330822386
sI1
Fnan
sI2
Fnan
sI3
Fnan
sI4
Fnan
sI5
Fnan
sI6
Fnan
sI7
Fnan
sI8
Fnan
sI9
Fnan
sI10
Fnan
sI11
Fnan
sI12
Fnan
sI13
Fnan
sI14
Fnan
sssS'r'
p160
(dp161
g3
(dp162
I0
F0.5489733348222015
sI1
Fnan
sI2
Fnan
sI3
Fnan
sI4
Fnan
sI5
Fnan
sI6
Fnan
sI7
Fnan
sI8
Fnan
sI9
Fnan
sI10
Fnan
sI11
Fnan
sI12
Fnan
sI13
Fnan
sI14
Fnan
ssg5
(dp163
I0
S'NoError'
p164
sI1
S'NoError'
p165
sI2
S'NoError'
p166
sI3
S'NoError'
p167
sI4
S'NoError'
p168
sI5
S'NoError'
p169
sI6
S'NoError'
p170
sI7
S'NoError'
p171
sI8
S'NoError'
p172
sI9
S'NoError'
p173
sI10
S'NoError'
p174
sI11
S'NoError'
p175
sI12
S'NoError'
p176
sI13
S'NoError'
p177
sI14
S'NoError'
p178
ssg22
(dp179
I0
F0.002
sI1
F0.002
sI2
F0.002
sI3
F0.002
sI4
F0.002
sI5
F0.002
sI6
F0.002
sI7
F0.002
sI8
F0.002
sI9
F0.002
sI10
F0.002
sI11
F0.002
sI12
F0.002
sI13
F0.002
sI14
F0.002
ssg24
(dp180
I0
F0.8957530933534429
sI1
F0.8944864789089313
sI2
F0.8898531877048368
sI3
F0.8944929475786194
sI4
F0.8957081884638395
sI5
F0.8913081669571328
sI6
F0.8977722673946783
sI7
F0.8937803962714593
sI8
F0.8975247878980299
sI9
F0.8951446936089521
sI10
F0.8950849400234469
sI11
F0.8961505302974306
sI12
F0.897167961552178
sI13
F0.8954603875980096
sI14
F0.8919430966098154
ssg26
(dp181
I0
F0.002269489717032566
sI1
Fnan
sI2
Fnan
sI3
Fnan
sI4
Fnan
sI5
Fnan
sI6
Fnan
sI7
Fnan
sI8
Fnan
sI9
Fnan
sI10
Fnan
sI11
Fnan
sI12
Fnan
sI13
Fnan
sI14
Fnan
ssg28
(dp182
I0
F0.8947754082813868
sI1
Fnan
sI2
Fnan
sI3
Fnan
sI4
Fnan
sI5
Fnan
sI6
Fnan
sI7
Fnan
sI8
Fnan
sI9
Fnan
sI10
Fnan
sI11
Fnan
sI12
Fnan
sI13
Fnan
sI14
Fnan
ssg30
(dp183
I0
F11.249
sI1
F11.212
sI2
F11.225
sI3
F11.191
sI4
F11.251
sI5
F11.203
sI6
F11.251
sI7
F11.222
sI8
F11.208
sI9
F11.199
sI10
F11.204
sI11
F11.214
sI12
F11.285
sI13
F11.234
sI14
F11.209
ssg32
(dp184
I0
F18.32474
sI1
F16.13027
sI2
F17.23086
sI3
F14.83463
sI4
F16.60143
sI5
F15.62962
sI6
F19.1815
sI7
F16.91875
sI8
F16.28076
sI9
F14.34305
sI10
F16.17874
sI11
F14.71498
sI12
F18.63657
sI13
F16.74567
sI14
F15.01686
ssg34
(dp185
I0
F2458419.5767013887
sI1
F2458419.5781828705
sI2
F2458419.615150463
sI3
F2458419.597025463
sI4
F2458419.5774421296
sI5
F2458419.5962847224
sI6
F2458419.5759606482
sI7
F2458419.578923611
sI8
F2458419.6144097224
sI9
F2458419.5955324075
sI10
F2458419.5948032406
sI11
F2458419.597766204
sI12
F2458419.6158796297
sI13
F2458419.6166319447
sI14
F2458419.6136574075
ssg36
(dp186
I0
F2.2510582000000006
sI1
Fnan
sI2
Fnan
sI3
Fnan
sI4
Fnan
sI5
Fnan
sI6
Fnan
sI7
Fnan
sI8
Fnan
sI9
Fnan
sI10
Fnan
sI11
Fnan
sI12
Fnan
sI13
Fnan
sI14
Fnan
ssg38
(dp187
I0
F0.8969145999999999
sI1
Fnan
sI2
Fnan
sI3
Fnan
sI4
Fnan
sI5
Fnan
sI6
Fnan
sI7
Fnan
sI8
Fnan
sI9
Fnan
sI10
Fnan
sI11
Fnan
sI12
Fnan
sI13
Fnan
sI14
Fnan
ssg40
(dp188
I0
F0.549929305379246
sI1
F0.5514261483555515
sI2
F0.5478002348833784
sI3
F0.5507066532101477
sI4
F0.5482253570852936
sI5
F0.5480500753463787
sI6
F0.5487580010326663
sI7
F0.549383238728309
sI8
F0.549555373901152
sI9
F0.5491936805346552
sI10
F0.5485990988501904
sI11
F0.5490898116275954
sI12
F0.5467805668245223
sI13
F0.5480061988512063
sI14
F0.5493563232583996
ssg42
(dp189
I0
F0.0008106824131167148
sI1
Fnan
sI2
Fnan
sI3
Fnan
sI4
Fnan
sI5
Fnan
sI6
Fnan
sI7
Fnan
sI8
Fnan
sI9
Fnan
sI10
Fnan
sI11
Fnan
sI12
Fnan
sI13
Fnan
sI14
Fnan
ssg44
(dp190
I0
F1.794828
sI1
Fnan
sI2
Fnan
sI3
Fnan
sI4
Fnan
sI5
Fnan
sI6
Fnan
sI7
Fnan
sI8
Fnan
sI9
Fnan
sI10
Fnan
sI11
Fnan
sI12
Fnan
sI13
Fnan
sI14
Fnan
ssg46
(dp191
I0
g164
sI1
g165
sI2
g166
sI3
g167
sI4
g168
sI5
g169
sI6
g170
sI7
g171
sI8
g172
sI9
g173
sI10
g174
sI11
g175
sI12
g176
sI13
g177
sI14
g178
ssg48
(dp192
I0
F0.0015516519741349
sI1
Fnan
sI2
Fnan
sI3
Fnan
sI4
Fnan
sI5
Fnan
sI6
Fnan
sI7
Fnan
sI8
Fnan
sI9
Fnan
sI10
Fnan
sI11
Fnan
sI12
Fnan
sI13
Fnan
sI14
Fnan
ssg50
(dp193
I0
F0.02375409739091646
sI1
Fnan
sI2
Fnan
sI3
Fnan
sI4
Fnan
sI5
Fnan
sI6
Fnan
sI7
Fnan
sI8
Fnan
sI9
Fnan
sI10
Fnan
sI11
Fnan
sI12
Fnan
sI13
Fnan
sI14
Fnan
ssg52
(dp194
I0
F2.6646716666666665
sI1
Fnan
sI2
Fnan
sI3
Fnan
sI4
Fnan
sI5
Fnan
sI6
Fnan
sI7
Fnan
sI8
Fnan
sI9
Fnan
sI10
Fnan
sI11
Fnan
sI12
Fnan
sI13
Fnan
sI14
Fnan
ssg54
(dp195
I0
F1.495101877536397
sI1
F1.4970114707722388
sI2
F1.5035711737686206
sI3
F1.493975501451246
sI4
F1.496207573689744
sI5
F1.5003633404511585
sI6
F1.4959544174383932
sI7
F1.4987655410788454
sI8
F1.4937862599481966
sI9
F1.4984099413261491
sI10
F1.494504217373736
sI11
F1.492470725977085
sI12
F1.4985488975034735
sI13
F1.4986060895480104
sI14
F1.4967821899435958
ssg56
(dp196
I0
g164
sI1
g165
sI2
g166
sI3
g167
sI4
g168
sI5
g169
sI6
g170
sI7
g171
sI8
g172
sI9
g173
sI10
g174
sI11
g175
sI12
g176
sI13
g177
sI14
g178
ssg58
(dp197
I0
F21.67379
sI1
F20.17525
sI2
F20.82941
sI3
F17.48937
sI4
F20.43677
sI5
F18.84358
sI6
F22.76129
sI7
F20.39526
sI8
F19.41421
sI9
F17.83056
sI10
F18.8759
sI11
F17.7508
sI12
F23.42781
sI13
F20.50172
sI14
F17.86916
ssg60
(dp198
I0
F10.301133333333334
sI1
Fnan
sI2
Fnan
sI3
Fnan
sI4
Fnan
sI5
Fnan
sI6
Fnan
sI7
Fnan
sI8
Fnan
sI9
Fnan
sI10
Fnan
sI11
Fnan
sI12
Fnan
sI13
Fnan
sI14
Fnan
ssg62
(dp199
I0
F0.7130780806685709
sI1
Fnan
sI2
Fnan
sI3
Fnan
sI4
Fnan
sI5
Fnan
sI6
Fnan
sI7
Fnan
sI8
Fnan
sI9
Fnan
sI10
Fnan
sI11
Fnan
sI12
Fnan
sI13
Fnan
sI14
Fnan
ssg64
(dp200
I0
F-3.040975
sI1
F2.31288
sI2
F4.03665
sI3
F4.430765
sI4
F-1.871848
sI5
F-3.431181
sI6
F-3.06308
sI7
F3.71773
sI8
F-3.194712
sI9
F2.402598
sI10
F-2.288294
sI11
F2.385936
sI12
F3.077558
sI13
F4.197673
sI14
F3.782019
ssg66
(dp201
I0
F10.6544
sI1
Fnan
sI2
Fnan
sI3
Fnan
sI4
Fnan
sI5
Fnan
sI6
Fnan
sI7
Fnan
sI8
Fnan
sI9
Fnan
sI10
Fnan
sI11
Fnan
sI12
Fnan
sI13
Fnan
sI14
Fnan
ssg68
(dp202
I0
g164
sI1
g165
sI2
g166
sI3
g167
sI4
g168
sI5
g169
sI6
g170
sI7
g171
sI8
g172
sI9
g173
sI10
g174
sI11
g175
sI12
g176
sI13
g177
sI14
g178
ssg70
(dp203
I0
F13418.593333333332
sI1
F13824.996666666668
sI2
F13710.046666666667
sI3
F14125.176666666666
sI4
F13433.986666666666
sI5
F14002.79
sI6
F13446.640000000001
sI7
F13751.706666666667
sI8
F13964.893333333333
sI9
F14057.186666666666
sI10
F14006.466666666667
sI11
F13882.119999999999
sI12
F13064.936666666666
sI13
F13647.369999999999
sI14
F13887.463333333335
ssg72
(dp204
I0
F1.010424
sI1
F1.011203
sI2
F1.0474299999999999
sI3
F1.025547
sI4
F1.0108059999999999
sI5
F1.0248190000000001
sI6
F1.010054
sI7
F1.0116129999999999
sI8
F1.0463799999999999
sI9
F1.0241149999999999
sI10
F1.0234159999999999
sI11
F1.026276
sI12
F1.048509
sI13
F1.04959
sI14
F1.045341
ssg74
(dp205
I0
F11404.183333333332
sI1
F11760.609999999999
sI2
F11706.433333333332
sI3
F12038.55
sI4
F11410.266666666666
sI5
F11950.83
sI6
F11383.323333333334
sI7
F11699.390000000001
sI8
F11842.966666666667
sI9
F11934.516666666666
sI10
F11921.596666666668
sI11
F11809.6
sI12
F11053.506666666666
sI13
F11579.023333333334
sI14
F11866.076666666666
ssg76
(dp206
I0
F18556.289999999997
sI1
F19150.97333333333
sI2
F19107.743333333336
sI3
F19543.983333333334
sI4
F18586.08
sI5
F19469.93
sI6
F18572.246666666666
sI7
F19072.613333333335
sI8
F19275.713333333333
sI9
F19473.113333333335
sI10
F19374.8
sI11
F19172.07
sI12
F18071.333333333332
sI13
F18902.213333333333
sI14
F19273.719999999998
ssg78
(dp207
I0
F20.73813
sI1
F19.83918
sI2
F18.39287
sI3
F15.80429
sI4
F19.12073
sI5
F17.6501
sI6
F21.22153
sI7
F19.0742
sI8
F18.15839
sI9
F16.19232
sI10
F17.28332
sI11
F15.38178
sI12
F22.03016
sI13
F19.60089
sI14
F16.71895
ssg80
(dp208
I0
F10.857
sI1
F10.824
sI2
F10.829
sI3
F10.799
sI4
F10.857
sI5
F10.807
sI6
F10.859
sI7
F10.83
sI8
F10.816
sI9
F10.808
sI10
F10.809
sI11
F10.819
sI12
F10.891
sI13
F10.841
sI14
F10.814
ssg82
(dp209
I0
F0.001
sI1
F0.001
sI2
F0.001
sI3
F0.001
sI4
F0.001
sI5
F0.001
sI6
F0.001
sI7
F0.001
sI8
F0.001
sI9
F0.001
sI10
F0.001
sI11
F0.001
sI12
F0.001
sI13
F0.001
sI14
F0.001
ssg84
(dp210
I0
F0.5489906711912462
sI1
Fnan
sI2
Fnan
sI3
Fnan
sI4
Fnan
sI5
Fnan
sI6
Fnan
sI7
Fnan
sI8
Fnan
sI9
Fnan
sI10
Fnan
sI11
Fnan
sI12
Fnan
sI13
Fnan
sI14
Fnan
ssg86
(dp211
I0
F10.830666666666666
sI1
Fnan
sI2
Fnan
sI3
Fnan
sI4
Fnan
sI5
Fnan
sI6
Fnan
sI7
Fnan
sI8
Fnan
sI9
Fnan
sI10
Fnan
sI11
Fnan
sI12
Fnan
sI13
Fnan
sI14
Fnan
ssg88
(dp212
I0
F10.681
sI1
F10.648
sI2
F10.657
sI3
F10.625
sI4
F10.679
sI5
F10.634
sI6
F10.678
sI7
F10.654
sI8
F10.637
sI9
F10.63
sI10
F10.634
sI11
F10.644
sI12
F10.71
sI13
F10.662
sI14
F10.643
ssg90
(dp213
I0
F2.855914
sI1
F-2.007979
sI2
F5.333306
sI3
F-3.678419
sI4
F3.206804
sI5
F3.192775
sI6
F4.701041
sI7
F-2.995904
sI8
F-3.482107
sI9
F5.204856
sI10
F4.310945
sI11
F3.469148
sI12
F5.093315
sI13
F5.314114
sI14
F3.248064
ssg92
(dp214
I0
F0.02447992374715802
sI1
Fnan
sI2
Fnan
sI3
Fnan
sI4
Fnan
sI5
Fnan
sI6
Fnan
sI7
Fnan
sI8
Fnan
sI9
Fnan
sI10
Fnan
sI11
Fnan
sI12
Fnan
sI13
Fnan
sI14
Fnan
ssg94
(dp215
I0
F0.7133213412819333
sI1
F0.713283642603993
sI2
F0.7134199672393133
sI3
F0.7151084256334282
sI4
F0.7126947476686495
sI5
F0.7140638705190375
sI6
F0.711038047752233
sI7
F0.7128488876540322
sI8
F0.7125601999642606
sI9
F0.7118645921251325
sI10
F0.7142686816358079
sI11
F0.7145599392996772
sI12
F0.7100084028476543
sI13
F0.7114698344832884
sI14
F0.7156606293201238
ssg96
(dp216
I0
F30.0
sI1
F30.0
sI2
F30.0
sI3
F30.0
sI4
F30.0
sI5
F30.0
sI6
F30.0
sI7
F30.0
sI8
F30.0
sI9
F30.0
sI10
F30.0
sI11
F30.0
sI12
F30.0
sI13
F30.0
sI14
F30.0
ssg98
(dp217
I0
F0.002
sI1
F0.002
sI2
F0.002
sI3
F0.002
sI4
F0.002
sI5
F0.002
sI6
F0.002
sI7
F0.002
sI8
F0.002
sI9
F0.002
sI10
F0.002
sI11
F0.002
sI12
F0.002
sI13
F0.002
sI14
F0.002
ssg100
(dp218
I0
F0.002
sI1
F0.002
sI2
F0.002
sI3
F0.002
sI4
F0.002
sI5
F0.002
sI6
F0.002
sI7
F0.002
sI8
F0.002
sI9
F0.002
sI10
F0.002
sI11
F0.002
sI12
F0.002
sI13
F0.002
sI14
F0.002
ssg102
(dp219
I0
F3.764288
sI1
F1.810389
sI2
F4.662838
sI3
F2.900258
sI4
F1.185555
sI5
F4.043374
sI6
F2.898069
sI7
F3.805029
sI8
F4.148987
sI9
F-2.686362
sI10
F4.338209
sI11
F3.335623
sI12
F3.699746
sI13
F3.515925
sI14
F-1.451853
ssg104
(dp220
I0
S"KIC8462852-20181028at015027_-25-1X1-030-r'_cal.fts.mag.1"
p221
sI1
S"KIC8462852-20181028at015235_-25-1X1-030-r'_cal.fts.mag.1"
p222
sI2
S"KIC8462852-20181028at024549_-25-1X1-030-r'_cal.fts.mag.1"
p223
sI3
S"KIC8462852-20181028at021942_-25-1X1-030-r'_cal.fts.mag.1"
p224
sI4
S"KIC8462852-20181028at015131_-25-1X1-030-r'_cal.fts.mag.1"
p225
sI5
S"KIC8462852-20181028at021839_-25-1X1-030-r'_cal.fts.mag.1"
p226
sI6
S"KIC8462852-20181028at014921_-25-1X1-030-r'_cal.fts.mag.1"
p227
sI7
S"KIC8462852-20181028at015339_-25-1X1-030-r'_cal.fts.mag.1"
p228
sI8
S"KIC8462852-20181028at024445_-25-1X1-030-r'_cal.fts.mag.1"
p229
sI9
S"KIC8462852-20181028at021734_-25-1X1-030-r'_cal.fts.mag.1"
p230
sI10
S"KIC8462852-20181028at021629_-25-1X1-030-r'_cal.fts.mag.1"
p231
sI11
S"KIC8462852-20181028at022047_-25-1X1-030-r'_cal.fts.mag.1"
p232
sI12
S"KIC8462852-20181028at024652_-25-1X1-030-r'_cal.fts.mag.1"
p233
sI13
S"KIC8462852-20181028at024757_-25-1X1-030-r'_cal.fts.mag.1"
p234
sI14
S"KIC8462852-20181028at024338_-25-1X1-030-r'_cal.fts.mag.1"
p235
ssg121
(dp236
I0
F0.0028798270114575595
sI1
Fnan
sI2
Fnan
sI3
Fnan
sI4
Fnan
sI5
Fnan
sI6
Fnan
sI7
Fnan
sI8
Fnan
sI9
Fnan
sI10
Fnan
sI11
Fnan
sI12
Fnan
sI13
Fnan
sI14
Fnan
ssg123
(dp237
I0
F7951.806666666667
sI1
F8222.973333333333
sI2
F8130.126666666666
sI3
F8390.513333333332
sI4
F7936.536666666667
sI5
F8298.126666666667
sI6
F7939.1033333333335
sI7
F8153.526666666667
sI8
F8258.640000000001
sI9
F8322.996666666666
sI10
F8284.37
sI11
F8211.416666666666
sI12
F7689.516666666666
sI13
F8060.916666666667
sI14
F8245.336666666666
ssg125
(dp238
I0
F0.02557807841175896
sI1
Fnan
sI2
Fnan
sI3
Fnan
sI4
Fnan
sI5
Fnan
sI6
Fnan
sI7
Fnan
sI8
Fnan
sI9
Fnan
sI10
Fnan
sI11
Fnan
sI12
Fnan
sI13
Fnan
sI14
Fnan
ssg127
(dp239
I0
S"r'"
p240
sI1
S"r'"
p241
sI2
S"r'"
p242
sI3
S"r'"
p243
sI4
S"r'"
p244
sI5
S"r'"
p245
sI6
S"r'"
p246
sI7
S"r'"
p247
sI8
S"r'"
p248
sI9
S"r'"
p249
sI10
S"r'"
p250
sI11
S"r'"
p251
sI12
S"r'"
p252
sI13
S"r'"
p253
sI14
S"r'"
p254
ssg144
(dp255
I0
F0.0011760616829618227
sI1
Fnan
sI2
Fnan
sI3
Fnan
sI4
Fnan
sI5
Fnan
sI6
Fnan
sI7
Fnan
sI8
Fnan
sI9
Fnan
sI10
Fnan
sI11
Fnan
sI12
Fnan
sI13
Fnan
sI14
Fnan
ssg146
(dp256
I0
F2.872137
sI1
F2.156654
sI2
F-2.568403
sI3
F4.477129
sI4
F3.558912
sI5
F2.82978
sI6
F-2.969369
sI7
F2.160365
sI8
F-2.915346
sI9
F3.786627
sI10
F2.784119
sI11
F4.265257
sI12
F-1.668251
sI13
F3.608352
sI14
F4.544457
ssg148
(dp257
I0
F1.4969372811871258
sI1
Fnan
sI2
Fnan
sI3
Fnan
sI4
Fnan
sI5
Fnan
sI6
Fnan
sI7
Fnan
sI8
Fnan
sI9
Fnan
sI10
Fnan
sI11
Fnan
sI12
Fnan
sI13
Fnan
sI14
Fnan
ssg150
(dp258
I0
F2458419.5962847224
sI1
Fnan
sI2
Fnan
sI3
Fnan
sI4
Fnan
sI5
Fnan
sI6
Fnan
sI7
Fnan
sI8
Fnan
sI9
Fnan
sI10
Fnan
sI11
Fnan
sI12
Fnan
sI13
Fnan
sI14
Fnan
ssg152
(dp259
I0
F0.0011760616829618227
sI1
Fnan
sI2
Fnan
sI3
Fnan
sI4
Fnan
sI5
Fnan
sI6
Fnan
sI7
Fnan
sI8
Fnan
sI9
Fnan
sI10
Fnan
sI11
Fnan
sI12
Fnan
sI13
Fnan
sI14
Fnan
ssg154
(dp260
I0
F25.602
sI1
F23.2818
sI2
F21.80577
sI3
F21.35781
sI4
F23.44191
sI5
F21.10304
sI6
F26.5276
sI7
F24.22713
sI8
F22.16371
sI9
F19.42642
sI10
F22.02174
sI11
F20.60736
sI12
F29.16847
sI13
F23.9418
sI14
F22.22501
ssg156
(dp261
I0
F10.329
sI1
F10.295
sI2
F10.297
sI3
F10.272
sI4
F10.327
sI5
F10.277
sI6
F10.328
sI7
F10.299
sI8
F10.287
sI9
F10.276
sI10
F10.282
sI11
F10.293
sI12
F10.358
sI13
F10.309
sI14
F10.288
ssg158
(dp262
I0
F0.5489906711912462
sI1
Fnan
sI2
Fnan
sI3
Fnan
sI4
Fnan
sI5
Fnan
sI6
Fnan
sI7
Fnan
sI8
Fnan
sI9
Fnan
sI10
Fnan
sI11
Fnan
sI12
Fnan
sI13
Fnan
sI14
Fnan
sssS'z'
p263
(dp264
g3
(dp265
I0
F0.3707427638354957
sI1
Fnan
sI2
Fnan
sI3
Fnan
sI4
Fnan
sI5
Fnan
sI6
Fnan
sI7
Fnan
sI8
Fnan
sI9
Fnan
sI10
Fnan
sI11
Fnan
sI12
Fnan
sI13
Fnan
sI14
Fnan
ssg5
(dp266
I0
S'NoError'
p267
sI1
S'NoError'
p268
sI2
S'NoError'
p269
sI3
S'NoError'
p270
sI4
S'NoError'
p271
sI5
S'NoError'
p272
sI6
S'NoError'
p273
sI7
S'NoError'
p274
sI8
S'NoError'
p275
sI9
S'NoError'
p276
sI10
S'NoError'
p277
sI11
S'NoError'
p278
sI12
S'NoError'
p279
sI13
S'NoError'
p280
sI14
S'NoError'
p281
ssg22
(dp282
I0
F0.007
sI1
F0.008
sI2
F0.007
sI3
F0.007
sI4
F0.007
sI5
F0.007
sI6
F0.007
sI7
F0.007
sI8
F0.007
sI9
F0.007
sI10
F0.007
sI11
F0.007
sI12
F0.007
sI13
F0.007
sI14
F0.008
ssg24
(dp283
I0
F0.916736069048111
sI1
F0.9179454545713128
sI2
F0.9195017258299729
sI3
F0.9120015543440234
sI4
F0.9138049871572405
sI5
F0.9140615093640917
sI6
F0.9150341472823826
sI7
F0.9129328066246849
sI8
F0.9096132754971826
sI9
F0.9130764960025893
sI10
F0.9098396732652781
sI11
F0.9196327254303445
sI12
F0.9253035772825243
sI13
F0.9206507455428835
sI14
F0.9108676558205834
ssg26
(dp284
I0
F0.004480958810310507
sI1
Fnan
sI2
Fnan
sI3
Fnan
sI4
Fnan
sI5
Fnan
sI6
Fnan
sI7
Fnan
sI8
Fnan
sI9
Fnan
sI10
Fnan
sI11
Fnan
sI12
Fnan
sI13
Fnan
sI14
Fnan
ssg28
(dp285
I0
F0.9154001602042137
sI1
Fnan
sI2
Fnan
sI3
Fnan
sI4
Fnan
sI5
Fnan
sI6
Fnan
sI7
Fnan
sI8
Fnan
sI9
Fnan
sI10
Fnan
sI11
Fnan
sI12
Fnan
sI13
Fnan
sI14
Fnan
ssg30
(dp286
I0
F13.304
sI1
F13.372
sI2
F13.322
sI3
F13.307
sI4
F13.282
sI5
F13.297
sI6
F13.305
sI7
F13.286
sI8
F13.316
sI9
F13.317
sI10
F13.288
sI11
F13.295
sI12
F13.291
sI13
F13.294
sI14
F13.346
ssg32
(dp287
I0
F9.914709
sI1
F10.52581
sI2
F10.18637
sI3
F10.10608
sI4
F9.38407
sI5
F10.51355
sI6
F10.5468
sI7
F9.918756
sI8
F10.7267
sI9
F11.02221
sI10
F9.672158
sI11
F10.10675
sI12
F10.35634
sI13
F10.62998
sI14
F10.62279
ssg34
(dp288
I0
F2458419.6022337964
sI1
F2458419.583414352
sI2
F2458419.5848842594
sI3
F2458419.6211111112
sI4
F2458419.6037268518
sI5
F2458419.605208333
sI6
F2458419.6226041666
sI7
F2458419.585625
sI8
F2458419.602974537
sI9
F2458419.6235300926
sI10
F2458419.5863657407
sI11
F2458419.5841550925
sI12
F2458419.6218634257
sI13
F2458419.6044560187
sI14
F2458419.6242939816
ssg36
(dp289
I0
F2.2180687333333333
sI1
Fnan
sI2
Fnan
sI3
Fnan
sI4
Fnan
sI5
Fnan
sI6
Fnan
sI7
Fnan
sI8
Fnan
sI9
Fnan
sI10
Fnan
sI11
Fnan
sI12
Fnan
sI13
Fnan
sI14
Fnan
ssg38
(dp290
I0
F0.5590514666666667
sI1
Fnan
sI2
Fnan
sI3
Fnan
sI4
Fnan
sI5
Fnan
sI6
Fnan
sI7
Fnan
sI8
Fnan
sI9
Fnan
sI10
Fnan
sI11
Fnan
sI12
Fnan
sI13
Fnan
sI14
Fnan
ssg40
(dp291
I0
F0.3710846377139675
sI1
F0.36548433869715347
sI2
F0.37011995242827045
sI3
F0.37681634982269724
sI4
F0.376683331153887
sI5
F0.37016832389179094
sI6
F0.37106035189115005
sI7
F0.3706506237358248
sI8
F0.36756113602037077
sI9
F0.37203388350484423
sI10
F0.36868737797518686
sI11
F0.3720126768409313
sI12
F0.3756539035223617
sI13
F0.3715889368438509
sI14
F0.36829136165739895
ssg42
(dp292
I0
F0.002029281791488075
sI1
Fnan
sI2
Fnan
sI3
Fnan
sI4
Fnan
sI5
Fnan
sI6
Fnan
sI7
Fnan
sI8
Fnan
sI9
Fnan
sI10
Fnan
sI11
Fnan
sI12
Fnan
sI13
Fnan
sI14
Fnan
ssg44
(dp293
I0
F1.2078117333333331
sI1
Fnan
sI2
Fnan
sI3
Fnan
sI4
Fnan
sI5
Fnan
sI6
Fnan
sI7
Fnan
sI8
Fnan
sI9
Fnan
sI10
Fnan
sI11
Fnan
sI12
Fnan
sI13
Fnan
sI14
Fnan
ssg46
(dp294
I0
g267
sI1
g268
sI2
g269
sI3
g270
sI4
g271
sI5
g272
sI6
g273
sI7
g274
sI8
g275
sI9
g276
sI10
g277
sI11
g278
sI12
g279
sI13
g280
sI14
g281
ssg48
(dp295
I0
F0.003850948133253166
sI1
Fnan
sI2
Fnan
sI3
Fnan
sI4
Fnan
sI5
Fnan
sI6
Fnan
sI7
Fnan
sI8
Fnan
sI9
Fnan
sI10
Fnan
sI11
Fnan
sI12
Fnan
sI13
Fnan
sI14
Fnan
ssg50
(dp296
I0
F0.019974984355438326
sI1
Fnan
sI2
Fnan
sI3
Fnan
sI4
Fnan
sI5
Fnan
sI6
Fnan
sI7
Fnan
sI8
Fnan
sI9
Fnan
sI10
Fnan
sI11
Fnan
sI12
Fnan
sI13
Fnan
sI14
Fnan
ssg52
(dp297
I0
F0.27892313333333335
sI1
Fnan
sI2
Fnan
sI3
Fnan
sI4
Fnan
sI5
Fnan
sI6
Fnan
sI7
Fnan
sI8
Fnan
sI9
Fnan
sI10
Fnan
sI11
Fnan
sI12
Fnan
sI13
Fnan
sI14
Fnan
ssg54
(dp298
I0
F1.5083194616259843
sI1
F1.5032904553742839
sI2
F1.5061918973221267
sI3
F1.5124362951558796
sI4
F1.5098754179522498
sI5
F1.5235887778028476
sI6
F1.5049929048115314
sI7
F1.512777145822108
sI8
F1.5117759288734427
sI9
F1.5046915109664452
sI10
F1.515729572539241
sI11
F1.506765640591731
sI12
F1.5090675183570046
sI13
F1.5117048506696926
sI14
F1.5125937731322028
ssg56
(dp299
I0
g267
sI1
g268
sI2
g269
sI3
g270
sI4
g271
sI5
g272
sI6
g273
sI7
g274
sI8
g275
sI9
g276
sI10
g277
sI11
g278
sI12
g279
sI13
g280
sI14
g281
ssg58
(dp300
I0
F11.20475
sI1
F11.3687
sI2
F10.89356
sI3
F12.92881
sI4
F11.72204
sI5
F12.43128
sI6
F11.60875
sI7
F10.55361
sI8
F11.58884
sI9
F12.15924
sI10
F12.14285
sI11
F10.48992
sI12
F12.99218
sI13
F10.84461
sI14
F12.51971
ssg60
(dp301
I0
F11.955066666666669
sI1
Fnan
sI2
Fnan
sI3
Fnan
sI4
Fnan
sI5
Fnan
sI6
Fnan
sI7
Fnan
sI8
Fnan
sI9
Fnan
sI10
Fnan
sI11
Fnan
sI12
Fnan
sI13
Fnan
sI14
Fnan
ssg62
(dp302
I0
F0.6873618115081844
sI1
Fnan
sI2
Fnan
sI3
Fnan
sI4
Fnan
sI5
Fnan
sI6
Fnan
sI7
Fnan
sI8
Fnan
sI9
Fnan
sI10
Fnan
sI11
Fnan
sI12
Fnan
sI13
Fnan
sI14
Fnan
ssg64
(dp303
I0
F2.91319
sI1
F2.621761
sI2
F-2.26847
sI3
F4.390621
sI4
F2.938288
sI5
F-2.386107
sI6
F3.057442
sI7
F-2.222556
sI8
F-3.377773
sI9
F3.159929
sI10
F-4.030961
sI11
F2.66719
sI12
F2.887308
sI13
F-3.554363
sI14
F1.590273
ssg66
(dp304
I0
F12.297
sI1
Fnan
sI2
Fnan
sI3
Fnan
sI4
Fnan
sI5
Fnan
sI6
Fnan
sI7
Fnan
sI8
Fnan
sI9
Fnan
sI10
Fnan
sI11
Fnan
sI12
Fnan
sI13
Fnan
sI14
Fnan
ssg68
(dp305
I0
g267
sI1
g268
sI2
g269
sI3
g270
sI4
g271
sI5
g272
sI6
g273
sI7
g274
sI8
g275
sI9
g276
sI10
g277
sI11
g278
sI12
g279
sI13
g280
sI14
g281
ssg70
(dp306
I0
F3043.3903333333337
sI1
F2904.468
sI2
F3007.589
sI3
F2977.5286666666666
sI4
F3052.1809999999996
sI5
F3064.8596666666663
sI6
F3036.065
sI7
F3089.3186666666666
sI8
F3022.5299999999997
sI9
F2991.2536666666665
sI10
F3093.516
sI11
F3066.923333333333
sI12
F3061.563666666667
sI13
F3077.241666666667
sI14
F2937.109
ssg72
(dp307
I0
F1.030992
sI1
F1.014356
sI2
F1.0153590000000001
sI3
F1.056494
sI4
F1.032671
sI5
F1.034404
sI6
F1.058901
sI7
F1.01588
sI8
F1.03183
sI9
F1.060323
sI10
F1.016419
sI11
F1.01485
sI12
F1.057696
sI13
F1.0335379999999998
sI14
F1.061605
ssg74
(dp308
I0
F2476.6383333333333
sI1
F2366.3830000000003
sI2
F2439.5566666666664
sI3
F2435.913666666667
sI4
F2493.508333333333
sI5
F2481.125
sI6
F2482.9333333333334
sI7
F2522.889333333333
sI8
F2483.674
sI9
F2454.7529999999997
sI10
F2534.7043333333336
sI11
F2486.234
sI12
F2454.9953333333333
sI13
F2482.5473333333334
sI14
F2407.1723333333334
ssg76
(dp309
I0
F4162.983333333334
sI1
F3961.81
sI2
F4102.223333333333
sI3
F4093.7433333333333
sI4
F4186.65
sI5
F4224.9
sI6
F4153.026666666667
sI7
F4245.01
sI8
F4162.073333333333
sI9
F4097.28
sI10
F4265.429999999999
sI11
F4183.653333333334
sI12
F4162.429999999999
sI13
F4202.38
sI14
F4041.8633333333332
ssg78
(dp310
I0
F11.18831
sI1
F10.93441
sI2
F10.95677
sI3
F11.17937
sI4
F10.62496
sI5
F12.5313
sI6
F11.46373
sI7
F10.45079
sI8
F11.37098
sI9
F11.33704
sI10
F11.23202
sI11
F11.00336
sI12
F11.73313
sI13
F11.57526
sI14
F11.86063
ssg80
(dp311
I0
F12.515
sI1
F12.565
sI2
F12.532
sI3
F12.533
sI4
F12.508
sI5
F12.513
sI6
F12.513
sI7
F12.495
sI8
F12.512
sI9
F12.525
sI10
F12.49
sI11
F12.511
sI12
F12.525
sI13
F12.513
sI14
F12.546
ssg82
(dp312
I0
F0.003
sI1
F0.003
sI2
F0.003
sI3
F0.003
sI4
F0.003
sI5
F0.003
sI6
F0.003
sI7
F0.003
sI8
F0.003
sI9
F0.003
sI10
F0.003
sI11
F0.003
sI12
F0.003
sI13
F0.003
sI14
F0.003
ssg84
(dp313
I0
F0.3711931457133124
sI1
Fnan
sI2
Fnan
sI3
Fnan
sI4
Fnan
sI5
Fnan
sI6
Fnan
sI7
Fnan
sI8
Fnan
sI9
Fnan
sI10
Fnan
sI11
Fnan
sI12
Fnan
sI13
Fnan
sI14
Fnan
ssg86
(dp314
I0
F12.519733333333333
sI1
Fnan
sI2
Fnan
sI3
Fnan
sI4
Fnan
sI5
Fnan
sI6
Fnan
sI7
Fnan
sI8
Fnan
sI9
Fnan
sI10
Fnan
sI11
Fnan
sI12
Fnan
sI13
Fnan
sI14
Fnan
ssg88
(dp315
I0
F12.292
sI1
F12.342
sI2
F12.304
sI3
F12.315
sI4
F12.288
sI5
F12.284
sI6
F12.294
sI7
F12.275
sI8
F12.299
sI9
F12.31
sI10
F12.274
sI11
F12.283
sI12
F12.285
sI13
F12.28
sI14
F12.33
ssg90
(dp316
I0
F-2.865741
sI1
F2.530066
sI2
F1.760827
sI3
F3.870321
sI4
F3.497552
sI5
F3.395885
sI6
F3.654566
sI7
F4.12932
sI8
F1.688904
sI9
F4.096519
sI10
F-3.563694
sI11
F4.096942
sI12
F4.313317
sI13
F-2.124192
sI14
F4.790439
ssg92
(dp317
I0
F0.021116908143092607
sI1
Fnan
sI2
Fnan
sI3
Fnan
sI4
Fnan
sI5
Fnan
sI6
Fnan
sI7
Fnan
sI8
Fnan
sI9
Fnan
sI10
Fnan
sI11
Fnan
sI12
Fnan
sI13
Fnan
sI14
Fnan
ssg94
(dp318
I0
F0.6873466317155077
sI1
F0.6892767813945198
sI2
F0.6862506497475764
sI3
F0.6889605340217904
sI4
F0.6889256934809871
sI5
F0.680715171268335
sI6
F0.6907502222696191
sI7
F0.6879673513404044
sI8
F0.69138792631094
sI9
F0.6925982482225637
sI10
F0.6888770031287996
sI11
F0.6858031062356879
sI12
F0.6796781521726141
sI13
F0.6820539437374608
sI14
F0.6898357575759603
ssg96
(dp319
I0
F30.0
sI1
F30.0
sI2
F30.0
sI3
F30.0
sI4
F30.0
sI5
F30.0
sI6
F30.0
sI7
F30.0
sI8
F30.0
sI9
F30.0
sI10
F30.0
sI11
F30.0
sI12
F30.0
sI13
F30.0
sI14
F30.0
ssg98
(dp320
I0
F0.004
sI1
F0.004
sI2
F0.004
sI3
F0.004
sI4
F0.004
sI5
F0.004
sI6
F0.004
sI7
F0.004
sI8
F0.004
sI9
F0.004
sI10
F0.004
sI11
F0.004
sI12
F0.004
sI13
F0.004
sI14
F0.004
ssg100
(dp321
I0
F0.004
sI1
F0.004
sI2
F0.004
sI3
F0.004
sI4
F0.004
sI5
F0.004
sI6
F0.004
sI7
F0.004
sI8
F0.004
sI9
F0.004
sI10
F0.004
sI11
F0.004
sI12
F0.004
sI13
F0.004
sI14
F0.004
ssg102
(dp322
I0
F2.769021
sI1
F3.075945
sI2
F-1.984767
sI3
F-2.842428
sI4
F-2.827006
sI5
F-3.981941
sI6
F-2.381766
sI7
F4.016755
sI8
F4.124815
sI9
F3.331259
sI10
F-3.779682
sI11
F1.925918
sI12
F-3.341443
sI13
F3.649494
sI14
F2.429673
ssg104
(dp323
I0
S"KIC8462852-20181028at022711_-25-1X1-030-z'_cal.fts.mag.1"
p324
sI1
S"KIC8462852-20181028at020005_-25-1X1-030-z'_cal.fts.mag.1"
p325
sI2
S"KIC8462852-20181028at020214_-25-1X1-030-z'_cal.fts.mag.1"
p326
sI3
S"KIC8462852-20181028at025423_-25-1X1-030-z'_cal.fts.mag.1"
p327
sI4
S"KIC8462852-20181028at022921_-25-1X1-030-z'_cal.fts.mag.1"
p328
sI5
S"KIC8462852-20181028at023130_-25-1X1-030-z'_cal.fts.mag.1"
p329
sI6
S"KIC8462852-20181028at025633_-25-1X1-030-z'_cal.fts.mag.1"
p330
sI7
S"KIC8462852-20181028at020318_-25-1X1-030-z'_cal.fts.mag.1"
p331
sI8
S"KIC8462852-20181028at022817_-25-1X1-030-z'_cal.fts.mag.1"
p332
sI9
S"KIC8462852-20181028at025753_-25-1X1-030-z'_cal.fts.mag.1"
p333
sI10
S"KIC8462852-20181028at020422_-25-1X1-030-z'_cal.fts.mag.1"
p334
sI11
S"KIC8462852-20181028at020111_-25-1X1-030-z'_cal.fts.mag.1"
p335
sI12
S"KIC8462852-20181028at025529_-25-1X1-030-z'_cal.fts.mag.1"
p336
sI13
S"KIC8462852-20181028at023025_-25-1X1-030-z'_cal.fts.mag.1"
p337
sI14
S"KIC8462852-20181028at025859_-25-1X1-030-z'_cal.fts.mag.1"
p338
ssg121
(dp339
I0
F0.005140155853741481
sI1
Fnan
sI2
Fnan
sI3
Fnan
sI4
Fnan
sI5
Fnan
sI6
Fnan
sI7
Fnan
sI8
Fnan
sI9
Fnan
sI10
Fnan
sI11
Fnan
sI12
Fnan
sI13
Fnan
sI14
Fnan
ssg123
(dp340
I0
F1197.739
sI1
F1124.7976666666666
sI2
F1178.1373333333333
sI3
F1194.1543333333332
sI4
F1222.0033333333333
sI5
F1205.624
sI6
F1196.3016666666667
sI7
F1217.8613333333333
sI8
F1184.5610000000001
sI9
F1183.4753333333333
sI10
F1215.888
sI11
F1207.4056666666665
sI12
F1211.9833333333333
sI13
F1209.1713333333332
sI14
F1152.2786666666666
ssg125
(dp341
I0
F0.01899047380235925
sI1
Fnan
sI2
Fnan
sI3
Fnan
sI4
Fnan
sI5
Fnan
sI6
Fnan
sI7
Fnan
sI8
Fnan
sI9
Fnan
sI10
Fnan
sI11
Fnan
sI12
Fnan
sI13
Fnan
sI14
Fnan
ssg127
(dp342
I0
S"z'"
p343
sI1
S"z'"
p344
sI2
S"z'"
p345
sI3
S"z'"
p346
sI4
S"z'"
p347
sI5
S"z'"
p348
sI6
S"z'"
p349
sI7
S"z'"
p350
sI8
S"z'"
p351
sI9
S"z'"
p352
sI10
S"z'"
p353
sI11
S"z'"
p354
sI12
S"z'"
p355
sI13
S"z'"
p356
sI14
S"z'"
p357
ssg144
(dp358
I0
F0.003231573911944175
sI1
Fnan
sI2
Fnan
sI3
Fnan
sI4
Fnan
sI5
Fnan
sI6
Fnan
sI7
Fnan
sI8
Fnan
sI9
Fnan
sI10
Fnan
sI11
Fnan
sI12
Fnan
sI13
Fnan
sI14
Fnan
ssg146
(dp359
I0
F2.420549
sI1
F-1.267811
sI2
F-2.931308
sI3
F3.784393
sI4
F2.951413
sI5
F-1.022545
sI6
F4.292007
sI7
F3.651284
sI8
F3.500409
sI9
F1.148182
sI10
F-1.517597
sI11
F3.045676
sI12
F-1.268588
sI13
F-1.475994
sI14
F2.807106
ssg148
(dp360
I0
F1.510253410066451
sI1
Fnan
sI2
Fnan
sI3
Fnan
sI4
Fnan
sI5
Fnan
sI6
Fnan
sI7
Fnan
sI8
Fnan
sI9
Fnan
sI10
Fnan
sI11
Fnan
sI12
Fnan
sI13
Fnan
sI14
Fnan
ssg150
(dp361
I0
F2458419.6037268518
sI1
Fnan
sI2
Fnan
sI3
Fnan
sI4
Fnan
sI5
Fnan
sI6
Fnan
sI7
Fnan
sI8
Fnan
sI9
Fnan
sI10
Fnan
sI11
Fnan
sI12
Fnan
sI13
Fnan
sI14
Fnan
ssg152
(dp362
I0
F0.003231573911944175
sI1
Fnan
sI2
Fnan
sI3
Fnan
sI4
Fnan
sI5
Fnan
sI6
Fnan
sI7
Fnan
sI8
Fnan
sI9
Fnan
sI10
Fnan
sI11
Fnan
sI12
Fnan
sI13
Fnan
sI14
Fnan
ssg154
(dp363
I0
F12.6396
sI1
F11.79262
sI2
F12.77043
sI3
F13.24739
sI4
F12.46812
sI5
F12.5268
sI6
F14.3069
sI7
F11.19885
sI8
F12.95686
sI9
F12.67009
sI10
F12.15554
sI11
F11.88779
sI12
F13.26572
sI13
F12.82905
sI14
F14.0398
ssg156
(dp364
I0
F11.951
sI1
F12.005
sI2
F11.967
sI3
F11.97
sI4
F11.945
sI5
F11.935
sI6
F11.954
sI7
F11.93
sI8
F11.952
sI9
F11.969
sI10
F11.925
sI11
F11.946
sI12
F11.952
sI13
F11.941
sI14
F11.984
ssg158
(dp365
I0
F0.3711931457133124
sI1
Fnan
sI2
Fnan
sI3
Fnan
sI4
Fnan
sI5
Fnan
sI6
Fnan
sI7
Fnan
sI8
Fnan
sI9
Fnan
sI10
Fnan
sI11
Fnan
sI12
Fnan
sI13
Fnan
sI14
Fnan
sssS'g'
p366
(dp367
g3
(dp368
I0
F0.8695751123035138
sI1
Fnan
sI2
Fnan
sI3
Fnan
sI4
Fnan
sI5
Fnan
sI6
Fnan
sI7
Fnan
sI8
Fnan
sI9
Fnan
sI10
Fnan
sI11
Fnan
sI12
Fnan
sI13
Fnan
sI14
Fnan
ssg5
(dp369
I0
S'NoError'
p370
sI1
S'NoError'
p371
sI2
S'NoError'
p372
sI3
S'NoError'
p373
sI4
S'NoError'
p374
sI5
S'NoError'
p375
sI6
S'NoError'
p376
sI7
S'NoError'
p377
sI8
S'NoError'
p378
sI9
S'NoError'
p379
sI10
S'NoError'
p380
sI11
S'NoError'
p381
sI12
S'NoError'
p382
sI13
S'NoError'
p383
sI14
S'NoError'
p384
ssg22
(dp385
I0
F0.002
sI1
F0.002
sI2
F0.002
sI3
F0.002
sI4
F0.002
sI5
F0.002
sI6
F0.002
sI7
F0.002
sI8
F0.002
sI9
F0.003
sI10
F0.003
sI11
F0.002
sI12
F0.003
sI13
F0.002
sI14
F0.002
ssg24
(dp386
I0
F0.8769515021601152
sI1
F0.8766847246154142
sI2
F0.8776201574267399
sI3
F0.876602317495248
sI4
F0.878297344284545
sI5
F0.8851143992095933
sI6
F0.8828038083056716
sI7
F0.8791851873217146
sI8
F0.8779522930614597
sI9
F0.8785174228830415
sI10
F0.8770555975695247
sI11
F0.8809996723102129
sI12
F0.875266921077148
sI13
F0.8779918745849203
sI14
F0.8867384078833417
ssg26
(dp387
I0
F0.0033060747806581726
sI1
Fnan
sI2
Fnan
sI3
Fnan
sI4
Fnan
sI5
Fnan
sI6
Fnan
sI7
Fnan
sI8
Fnan
sI9
Fnan
sI10
Fnan
sI11
Fnan
sI12
Fnan
sI13
Fnan
sI14
Fnan
ssg28
(dp388
I0
F0.8791854420125795
sI1
Fnan
sI2
Fnan
sI3
Fnan
sI4
Fnan
sI5
Fnan
sI6
Fnan
sI7
Fnan
sI8
Fnan
sI9
Fnan
sI10
Fnan
sI11
Fnan
sI12
Fnan
sI13
Fnan
sI14
Fnan
ssg30
(dp389
I0
F11.444
sI1
F11.441
sI2
F11.437
sI3
F11.507
sI4
F11.487
sI5
F11.449
sI6
F11.432
sI7
F11.435
sI8
F11.404
sI9
F11.566
sI10
F11.588
sI11
F11.492
sI12
F11.532
sI13
F11.479
sI14
F11.433
ssg32
(dp390
I0
F9.758546
sI1
F10.07927
sI2
F8.897514
sI3
F25.92329
sI4
F18.15022
sI5
F9.063045
sI6
F10.12711
sI7
F8.289527
sI8
F7.739705
sI9
F24.94088
sI10
F23.85284
sI11
F10.44664
sI12
F20.01717
sI13
F9.940137
sI14
F8.75238
ssg34
(dp391
I0
F2458419.591828704
sI1
F2458419.591087963
sI2
F2458419.594050926
sI3
F2458419.572233796
sI4
F2458419.5751967593
sI5
F2458419.6128935185
sI6
F2458419.610648148
sI7
F2458419.611412037
sI8
F2458419.5933101852
sI9
F2458419.572974537
sI10
F2458419.573715278
sI11
F2458419.5925694443
sI12
F2458419.5744444444
sI13
F2458419.6099189813
sI14
F2458419.6121527776
ssg36
(dp392
I0
F1.8062912
sI1
Fnan
sI2
Fnan
sI3
Fnan
sI4
Fnan
sI5
Fnan
sI6
Fnan
sI7
Fnan
sI8
Fnan
sI9
Fnan
sI10
Fnan
sI11
Fnan
sI12
Fnan
sI13
Fnan
sI14
Fnan
ssg38
(dp393
I0
F1.8656718
sI1
Fnan
sI2
Fnan
sI3
Fnan
sI4
Fnan
sI5
Fnan
sI6
Fnan
sI7
Fnan
sI8
Fnan
sI9
Fnan
sI10
Fnan
sI11
Fnan
sI12
Fnan
sI13
Fnan
sI14
Fnan
ssg40
(dp394
I0
F0.8701960143558499
sI1
F0.8677074584984605
sI2
F0.8673650415866073
sI3
F0.8722467818534242
sI4
F0.8727734437368091
sI5
F0.8728570829618323
sI6
F0.8683443393847577
sI7
F0.8689826799891606
sI8
F0.8694871988186069
sI9
F0.8706337133550488
sI10
F0.8661306763423275
sI11
F0.8674301110361595
sI12
F0.8703219180266328
sI13
F0.8635915585008569
sI14
F0.8741629427522272
ssg42
(dp395
I0
F0.0020923591307891944
sI1
Fnan
sI2
Fnan
sI3
Fnan
sI4
Fnan
sI5
Fnan
sI6
Fnan
sI7
Fnan
sI8
Fnan
sI9
Fnan
sI10
Fnan
sI11
Fnan
sI12
Fnan
sI13
Fnan
sI14
Fnan
ssg44
(dp396
I0
F1.8613668666666667
sI1
Fnan
sI2
Fnan
sI3
Fnan
sI4
Fnan
sI5
Fnan
sI6
Fnan
sI7
Fnan
sI8
Fnan
sI9
Fnan
sI10
Fnan
sI11
Fnan
sI12
Fnan
sI13
Fnan
sI14
Fnan
ssg46
(dp397
I0
g370
sI1
g371
sI2
g372
sI3
g373
sI4
g374
sI5
g375
sI6
g376
sI7
g377
sI8
g378
sI9
g379
sI10
g380
sI11
g381
sI12
g382
sI13
g383
sI14
g384
ssg48
(dp398
I0
F0.002212160424230966
sI1
Fnan
sI2
Fnan
sI3
Fnan
sI4
Fnan
sI5
Fnan
sI6
Fnan
sI7
Fnan
sI8
Fnan
sI9
Fnan
sI10
Fnan
sI11
Fnan
sI12
Fnan
sI13
Fnan
sI14
Fnan
ssg50
(dp399
I0
F0.05438986250081095
sI1
Fnan
sI2
Fnan
sI3
Fnan
sI4
Fnan
sI5
Fnan
sI6
Fnan
sI7
Fnan
sI8
Fnan
sI9
Fnan
sI10
Fnan
sI11
Fnan
sI12
Fnan
sI13
Fnan
sI14
Fnan
ssg52
(dp400
I0
F2.1717522666666667
sI1
Fnan
sI2
Fnan
sI3
Fnan
sI4
Fnan
sI5
Fnan
sI6
Fnan
sI7
Fnan
sI8
Fnan
sI9
Fnan
sI10
Fnan
sI11
Fnan
sI12
Fnan
sI13
Fnan
sI14
Fnan
ssg54
(dp401
I0
F1.5228455172247655
sI1
F1.5206884439224333
sI2
F1.5169149952970942
sI3
F1.5173371276894552
sI4
F1.5190930372922202
sI5
F1.5167038154704164
sI6
F1.5159902723696095
sI7
F1.5192954956463072
sI8
F1.51686458115151
sI9
F1.5212549890419578
sI10
F1.516043738730879
sI11
F1.516451448787673
sI12
F1.5252598132744692
sI13
F1.5185717694613552
sI14
F1.513536667600186
ssg56
(dp402
I0
g370
sI1
g371
sI2
g372
sI3
g373
sI4
g374
sI5
g375
sI6
g376
sI7
g377
sI8
g378
sI9
g379
sI10
g380
sI11
g381
sI12
g382
sI13
g383
sI14
g384
ssg58
(dp403
I0
F9.446743
sI1
F10.46692
sI2
F8.882995
sI3
F27.42399
sI4
F19.34019
sI5
F9.399855
sI6
F9.273308
sI7
F10.29969
sI8
F9.663568
sI9
F25.90918
sI10
F22.49834
sI11
F9.69173
sI12
F20.4787
sI13
F9.681884
sI14
F8.717511
ssg60
(dp404
I0
F11.042933333333334
sI1
Fnan
sI2
Fnan
sI3
Fnan
sI4
Fnan
sI5
Fnan
sI6
Fnan
sI7
Fnan
sI8
Fnan
sI9
Fnan
sI10
Fnan
sI11
Fnan
sI12
Fnan
sI13
Fnan
sI14
Fnan
ssg62
(dp405
I0
F0.7139753945430419
sI1
Fnan
sI2
Fnan
sI3
Fnan
sI4
Fnan
sI5
Fnan
sI6
Fnan
sI7
Fnan
sI8
Fnan
sI9
Fnan
sI10
Fnan
sI11
Fnan
sI12
Fnan
sI13
Fnan
sI14
Fnan
ssg64
(dp406
I0
F-2.697709
sI1
F1.664992
sI2
F1.574379
sI3
F4.76778
sI4
F3.10755
sI5
F2.539529
sI6
F3.943828
sI7
F3.955359
sI8
F2.654559
sI9
F-1.683853
sI10
F4.17113
sI11
F3.258551
sI12
F-2.739437
sI13
F2.243565
sI14
F1.224854
ssg66
(dp407
I0
F11.418399999999998
sI1
Fnan
sI2
Fnan
sI3
Fnan
sI4
Fnan
sI5
Fnan
sI6
Fnan
sI7
Fnan
sI8
Fnan
sI9
Fnan
sI10
Fnan
sI11
Fnan
sI12
Fnan
sI13
Fnan
sI14
Fnan
ssg68
(dp408
I0
g370
sI1
g371
sI2
g372
sI3
g373
sI4
g374
sI5
g375
sI6
g376
sI7
g377
sI8
g378
sI9
g379
sI10
g380
sI11
g381
sI12
g382
sI13
g383
sI14
g384
ssg70
(dp409
I0
F6983.4366666666665
sI1
F7020.37
sI2
F7051.173333333334
sI3
F6570.0233333333335
sI4
F6695.53
sI5
F6975.740000000001
sI6
F7104.516666666666
sI7
F7061.570000000001
sI8
F7256.376666666666
sI9
F6246.383333333333
sI10
F6142.759999999999
sI11
F6721.293333333333
sI12
F6427.763333333333
sI13
F6815.03
sI14
F7071.703333333334
ssg72
(dp410
I0
F1.020759
sI1
F1.020133
sI2
F1.022721
sI3
F1.008375
sI4
F1.009685
sI5
F1.044271
sI6
F1.0412290000000002
sI7
F1.042239
sI8
F1.0220559999999999
sI9
F1.008684
sI10
F1.009002
sI11
F1.021408
sI12
F1.0093370000000002
sI13
F1.040263
sI14
F1.043245
ssg74
(dp411
I0
F6023.126666666666
sI1
F6065.759999999999
sI2
F6096.7266666666665
sI3
F5689.12
sI4
F5774.8099999999995
sI5
F5955.736666666667
sI6
F6092.256666666667
sI7
F6080.53
sI8
F6270.79
sI9
F5378.259999999999
sI10
F5319.240000000001
sI11
F5779.733333333334
sI12
F5551.673333333334
sI13
F5882.826666666666
sI14
F6032.826666666666
ssg76
(dp412
I0
F9903.493333333334
sI1
F9949.963333333335
sI2
F9972.123333333333
sI3
F9300.626666666667
sI4
F9471.803333333333
sI5
F9806.609999999999
sI6
F10003.09
sI7
F9983.366666666667
sI8
F10259.44
sI9
F8842.023333333334
sI10
F8688.446666666667
sI11
F9478.6
sI12
F9135.876666666667
sI13
F9641.303333333333
sI14
F9917.093333333332
ssg78
(dp413
I0
F9.145604
sI1
F9.431749
sI2
F8.206752
sI3
F25.73084
sI4
F18.03721
sI5
F9.174189
sI6
F8.321764
sI7
F7.975555
sI8
F8.21347
sI9
F24.6988
sI10
F22.26183
sI11
F9.042372
sI12
F20.09507
sI13
F9.142586
sI14
F8.640607
ssg80
(dp414
I0
F11.55
sI1
F11.543
sI2
F11.537
sI3
F11.612
sI4
F11.596
sI5
F11.563
sI6
F11.538
sI7
F11.54
sI8
F11.507
sI9
F11.673
sI10
F11.685
sI11
F11.595
sI12
F11.639
sI13
F11.576
sI14
F11.549
ssg82
(dp415
I0
F0.002
sI1
F0.002
sI2
F0.002
sI3
F0.002
sI4
F0.002
sI5
F0.002
sI6
F0.002
sI7
F0.002
sI8
F0.002
sI9
F0.002
sI10
F0.002
sI11
F0.002
sI12
F0.002
sI13
F0.002
sI14
F0.002
ssg84
(dp416
I0
F0.8694820640799176
sI1
Fnan
sI2
Fnan
sI3
Fnan
sI4
Fnan
sI5
Fnan
sI6
Fnan
sI7
Fnan
sI8
Fnan
sI9
Fnan
sI10
Fnan
sI11
Fnan
sI12
Fnan
sI13
Fnan
sI14
Fnan
ssg86
(dp417
I0
F11.580200000000001
sI1
Fnan
sI2
Fnan
sI3
Fnan
sI4
Fnan
sI5
Fnan
sI6
Fnan
sI7
Fnan
sI8
Fnan
sI9
Fnan
sI10
Fnan
sI11
Fnan
sI12
Fnan
sI13
Fnan
sI14
Fnan
ssg88
(dp418
I0
F11.39
sI1
F11.384
sI2
F11.379
sI3
F11.456
sI4
F11.436
sI5
F11.391
sI6
F11.371
sI7
F11.378
sI8
F11.348
sI9
F11.511
sI10
F11.529
sI11
F11.431
sI12
F11.48
sI13
F11.416
sI14
F11.376
ssg90
(dp419
I0
F2.559496
sI1
F-2.020242
sI2
F2.284226
sI3
F5.112432
sI4
F3.988881
sI5
F3.788639
sI6
F-2.842033
sI7
F-2.134012
sI8
F-4.396059
sI9
F2.738366
sI10
F5.550653
sI11
F3.083545
sI12
F3.539966
sI13
F3.533496
sI14
F2.307014
ssg92
(dp420
I0
F0.053097574153179505
sI1
Fnan
sI2
Fnan
sI3
Fnan
sI4
Fnan
sI5
Fnan
sI6
Fnan
sI7
Fnan
sI8
Fnan
sI9
Fnan
sI10
Fnan
sI11
Fnan
sI12
Fnan
sI13
Fnan
sI14
Fnan
ssg94
(dp421
I0
F0.7133477389515639
sI1
F0.7148663353695663
sI2
F0.7162803757752365
sI3
F0.7169359793077157
sI4
F0.714380025565956
sI5
F0.7097619423580925
sI6
F0.7122278160085515
sI7
F0.7134705301535293
sI8
F0.7160145734950031
sI9
F0.7128996611526465
sI10
F0.7173037392776764
sI11
F0.7135520233878083
sI12
F0.713415799046153
sI13
F0.7149620207012497
sI14
F0.7102123575948777
ssg96
(dp422
I0
F30.0
sI1
F30.0
sI2
F30.0
sI3
F30.0
sI4
F30.0
sI5
F30.0
sI6
F30.0
sI7
F30.0
sI8
F30.0
sI9
F30.0
sI10
F30.0
sI11
F30.0
sI12
F30.0
sI13
F30.0
sI14
F30.0
ssg98
(dp423
I0
F0.002
sI1
F0.002
sI2
F0.002
sI3
F0.003
sI4
F0.003
sI5
F0.002
sI6
F0.002
sI7
F0.002
sI8
F0.002
sI9
F0.003
sI10
F0.003
sI11
F0.003
sI12
F0.003
sI13
F0.002
sI14
F0.002
ssg100
(dp424
I0
F0.002
sI1
F0.002
sI2
F0.002
sI3
F0.002
sI4
F0.002
sI5
F0.002
sI6
F0.002
sI7
F0.002
sI8
F0.002
sI9
F0.002
sI10
F0.002
sI11
F0.002
sI12
F0.002
sI13
F0.002
sI14
F0.002
ssg102
(dp425
I0
F-1.841894
sI1
F3.681656
sI2
F-2.217134
sI3
F2.799609
sI4
F3.786249
sI5
F3.963668
sI6
F4.013197
sI7
F-3.360301
sI8
F2.594703
sI9
F1.769137
sI10
F4.431379
sI11
F3.119164
sI12
F3.049312
sI13
F3.316141
sI14
F3.471398
ssg104
(dp426
I0
S"KIC8462852-20181028at021214_-25-1X1-030-g'_cal.fts.mag.1"
p427
sI1
S"KIC8462852-20181028at021105_-25-1X1-030-g'_cal.fts.mag.1"
p428
sI2
S"KIC8462852-20181028at021526_-25-1X1-030-g'_cal.fts.mag.1"
p429
sI3
S"KIC8462852-20181028at014350_-25-1X1-030-g'_cal.fts.mag.1"
p430
sI4
S"KIC8462852-20181028at014817_-25-1X1-030-g'_cal.fts.mag.1"
p431
sI5
S"KIC8462852-20181028at024234_-25-1X1-030-g'_cal.fts.mag.1"
p432
sI6
S"KIC8462852-20181028at023920_-25-1X1-030-g'_cal.fts.mag.1"
p433
sI7
S"KIC8462852-20181028at024026_-25-1X1-030-g'_cal.fts.mag.1"
p434
sI8
S"KIC8462852-20181028at021422_-25-1X1-030-g'_cal.fts.mag.1"
p435
sI9
S"KIC8462852-20181028at014505_-25-1X1-030-g'_cal.fts.mag.1"
p436
sI10
S"KIC8462852-20181028at014609_-25-1X1-030-g'_cal.fts.mag.1"
p437
sI11
S"KIC8462852-20181028at021318_-25-1X1-030-g'_cal.fts.mag.1"
p438
sI12
S"KIC8462852-20181028at014712_-25-1X1-030-g'_cal.fts.mag.1"
p439
sI13
S"KIC8462852-20181028at023812_-25-1X1-030-g'_cal.fts.mag.1"
p440
sI14
S"KIC8462852-20181028at024130_-25-1X1-030-g'_cal.fts.mag.1"
p441
ssg121
(dp442
I0
F0.0030337159469766227
sI1
Fnan
sI2
Fnan
sI3
Fnan
sI4
Fnan
sI5
Fnan
sI6
Fnan
sI7
Fnan
sI8
Fnan
sI9
Fnan
sI10
Fnan
sI11
Fnan
sI12
Fnan
sI13
Fnan
sI14
Fnan
ssg123
(dp443
I0
F6645.413333333333
sI1
F6662.863333333333
sI2
F6684.5
sI3
F6268.48
sI4
F6383.506666666667
sI5
F6615.7
sI6
F6715.156666666667
sI7
F6698.543333333333
sI8
F6894.05
sI9
F5939.656666666667
sI10
F5817.64
sI11
F6355.263333333333
sI12
F6125.706666666667
sI13
F6430.636666666667
sI14
F6708.216666666666
ssg125
(dp444
I0
F0.05260119498914185
sI1
Fnan
sI2
Fnan
sI3
Fnan
sI4
Fnan
sI5
Fnan
sI6
Fnan
sI7
Fnan
sI8
Fnan
sI9
Fnan
sI10
Fnan
sI11
Fnan
sI12
Fnan
sI13
Fnan
sI14
Fnan
ssg127
(dp445
I0
S"g'"
p446
sI1
S"g'"
p447
sI2
S"g'"
p448
sI3
S"g'"
p449
sI4
S"g'"
p450
sI5
S"g'"
p451
sI6
S"g'"
p452
sI7
S"g'"
p453
sI8
S"g'"
p454
sI9
S"g'"
p455
sI10
S"g'"
p456
sI11
S"g'"
p457
sI12
S"g'"
p458
sI13
S"g'"
p459
sI14
S"g'"
p460
ssg144
(dp461
I0
F0.0028489948387266425
sI1
Fnan
sI2
Fnan
sI3
Fnan
sI4
Fnan
sI5
Fnan
sI6
Fnan
sI7
Fnan
sI8
Fnan
sI9
Fnan
sI10
Fnan
sI11
Fnan
sI12
Fnan
sI13
Fnan
sI14
Fnan
ssg146
(dp462
I0
F-1.62278
sI1
F-2.523999
sI2
F2.57492
sI3
F5.281655
sI4
F3.889467
sI5
F3.694808
sI6
F-4.05966
sI7
F4.523276
sI8
F3.487939
sI9
F3.899261
sI10
F3.872877
sI11
F3.797228
sI12
F1.298077
sI13
F-3.662969
sI14
F3.470403
ssg148
(dp463
I0
F1.5184567808640221
sI1
Fnan
sI2
Fnan
sI3
Fnan
sI4
Fnan
sI5
Fnan
sI6
Fnan
sI7
Fnan
sI8
Fnan
sI9
Fnan
sI10
Fnan
sI11
Fnan
sI12
Fnan
sI13
Fnan
sI14
Fnan
ssg150
(dp464
I0
F2458419.5925694443
sI1
Fnan
sI2
Fnan
sI3
Fnan
sI4
Fnan
sI5
Fnan
sI6
Fnan
sI7
Fnan
sI8
Fnan
sI9
Fnan
sI10
Fnan
sI11
Fnan
sI12
Fnan
sI13
Fnan
sI14
Fnan
ssg152
(dp465
I0
F0.0028489948387266425
sI1
Fnan
sI2
Fnan
sI3
Fnan
sI4
Fnan
sI5
Fnan
sI6
Fnan
sI7
Fnan
sI8
Fnan
sI9
Fnan
sI10
Fnan
sI11
Fnan
sI12
Fnan
sI13
Fnan
sI14
Fnan
ssg154
(dp466
I0
F11.71739
sI1
F12.24657
sI2
F10.33473
sI3
F29.15795
sI4
F21.71924
sI5
F11.46275
sI6
F12.65455
sI7
F12.0589
sI8
F10.31656
sI9
F26.88448
sI10
F26.06985
sI11
F11.38532
sI12
F23.79202
sI13
F11.65176
sI14
F11.7548
ssg156
(dp467
I0
F11.011
sI1
F11.005
sI2
F11.003
sI3
F11.079
sI4
F11.059
sI5
F11.021
sI6
F11.0
sI7
F11.002
sI8
F10.972
sI9
F11.134
sI10
F11.153
sI11
F11.058
sI12
F11.098
sI13
F11.04
sI14
F11.009
ssg158
(dp468
I0
F0.8694820640799176
sI1
Fnan
sI2
Fnan
sI3
Fnan
sI4
Fnan
sI5
Fnan
sI6
Fnan
sI7
Fnan
sI8
Fnan
sI9
Fnan
sI10
Fnan
sI11
Fnan
sI12
Fnan
sI13
Fnan
sI14
Fnan
sssS'V'
p469
(dp470
g3
(dp471
I0
F0.6916387950323065
sI1
Fnan
sI2
Fnan
sI3
Fnan
sI4
Fnan
sI5
Fnan
sI6
Fnan
sI7
Fnan
sI8
Fnan
sI9
Fnan
sI10
Fnan
sI11
Fnan
sI12
Fnan
sI13
Fnan
sI14
Fnan
ssg5
(dp472
I0
S'NoError'
p473
sI1
S'NoError'
p474
sI2
S'NoError'
p475
sI3
S'NoError'
p476
sI4
S'NoError'
p477
sI5
S'NoError'
p478
sI6
S'NoError'
p479
sI7
S'NoError'
p480
sI8
S'NoError'
p481
sI9
S'NoError'
p482
sI10
S'NoError'
p483
sI11
S'NoError'
p484
sI12
S'NoError'
p485
sI13
S'NoError'
p486
sI14
S'NoError'
p487
ssg22
(dp488
I0
F0.002
sI1
F0.002
sI2
F0.002
sI3
F0.002
sI4
F0.002
sI5
F0.002
sI6
F0.002
sI7
F0.002
sI8
F0.002
sI9
F0.002
sI10
F0.002
sI11
F0.002
sI12
F0.002
sI13
F0.003
sI14
F0.002
ssg24
(dp489
I0
F0.8824889710937255
sI1
F0.885358136824391
sI2
F0.884362100849213
sI3
F0.8812342367464154
sI4
F0.8845022287093306
sI5
F0.8872105032164735
sI6
F0.8879607103778919
sI7
F0.8871614849685271
sI8
F0.8853562250495812
sI9
F0.8878047457198761
sI10
F0.8888367067397313
sI11
F0.8821498711078516
sI12
F0.8899699726661149
sI13
F0.8863768232833017
sI14
F0.8871628799422434
ssg26
(dp490
I0
F0.0025431897424224546
sI1
Fnan
sI2
Fnan
sI3
Fnan
sI4
Fnan
sI5
Fnan
sI6
Fnan
sI7
Fnan
sI8
Fnan
sI9
Fnan
sI10
Fnan
sI11
Fnan
sI12
Fnan
sI13
Fnan
sI14
Fnan
ssg28
(dp491
I0
F0.8858623731529779
sI1
Fnan
sI2
Fnan
sI3
Fnan
sI4
Fnan
sI5
Fnan
sI6
Fnan
sI7
Fnan
sI8
Fnan
sI9
Fnan
sI10
Fnan
sI11
Fnan
sI12
Fnan
sI13
Fnan
sI14
Fnan
ssg30
(dp492
I0
F11.438
sI1
F11.481
sI2
F11.444
sI3
F11.433
sI4
F11.546
sI5
F11.475
sI6
F11.44
sI7
F11.471
sI8
F11.465
sI9
F11.472
sI10
F11.458
sI11
F11.455
sI12
F11.433
sI13
F11.582
sI14
F11.506
ssg32
(dp493
I0
F9.994878
sI1
F13.57743
sI2
F10.73594
sI3
F10.97699
sI4
F11.17687
sI5
F12.10255
sI6
F11.56589
sI7
F12.34073
sI8
F11.59921
sI9
F12.50296
sI10
F11.22702
sI11
F11.31505
sI12
F11.63818
sI13
F11.32713
sI14
F13.44165
ssg34
(dp494
I0
F2458419.5887037036
sI1
F2458419.6258912035
sI2
F2458419.625138889
sI3
F2458419.587199074
sI4
F2458419.609027778
sI5
F2458419.5879513887
sI6
F2458419.6067708335
sI7
F2458419.5894560185
sI8
F2458419.607523148
sI9
F2458419.6266550925
sI10
F2458419.5902083335
sI11
F2458419.6281712963
sI12
F2458419.6060300926
sI13
F2458419.608287037
sI14
F2458419.6274189814
ssg36
(dp495
I0
F0.10081946666666665
sI1
Fnan
sI2
Fnan
sI3
Fnan
sI4
Fnan
sI5
Fnan
sI6
Fnan
sI7
Fnan
sI8
Fnan
sI9
Fnan
sI10
Fnan
sI11
Fnan
sI12
Fnan
sI13
Fnan
sI14
Fnan
ssg38
(dp496
I0
F1.6112818000000002
sI1
Fnan
sI2
Fnan
sI3
Fnan
sI4
Fnan
sI5
Fnan
sI6
Fnan
sI7
Fnan
sI8
Fnan
sI9
Fnan
sI10
Fnan
sI11
Fnan
sI12
Fnan
sI13
Fnan
sI14
Fnan
ssg40
(dp497
I0
F0.6921130081595523
sI1
F0.6916991866757203
sI2
F0.6931434200614244
sI3
F0.6870676503950557
sI4
F0.6899924278506518
sI5
F0.6906018483840015
sI6
F0.6918033380403146
sI7
F0.6914935744876616
sI8
F0.69304361249789
sI9
F0.6926212271307342
sI10
F0.6928302110034691
sI11
F0.6926556240575386
sI12
F0.6899488599860085
sI13
F0.6878637194099637
sI14
F0.6893579970850183
ssg42
(dp498
I0
F0.0012333938897583331
sI1
Fnan
sI2
Fnan
sI3
Fnan
sI4
Fnan
sI5
Fnan
sI6
Fnan
sI7
Fnan
sI8
Fnan
sI9
Fnan
sI10
Fnan
sI11
Fnan
sI12
Fnan
sI13
Fnan
sI14
Fnan
ssg44
(dp499
I0
F0.15291364000000005
sI1
Fnan
sI2
Fnan
sI3
Fnan
sI4
Fnan
sI5
Fnan
sI6
Fnan
sI7
Fnan
sI8
Fnan
sI9
Fnan
sI10
Fnan
sI11
Fnan
sI12
Fnan
sI13
Fnan
sI14
Fnan
ssg46
(dp500
I0
g473
sI1
g474
sI2
g475
sI3
g476
sI4
g477
sI5
g478
sI6
g479
sI7
g480
sI8
g481
sI9
g482
sI10
g483
sI11
g484
sI12
g485
sI13
g486
sI14
g487
ssg48
(dp501
I0
F0.0014875591328119399
sI1
Fnan
sI2
Fnan
sI3
Fnan
sI4
Fnan
sI5
Fnan
sI6
Fnan
sI7
Fnan
sI8
Fnan
sI9
Fnan
sI10
Fnan
sI11
Fnan
sI12
Fnan
sI13
Fnan
sI14
Fnan
ssg50
(dp502
I0
F0.04113531676934405
sI1
Fnan
sI2
Fnan
sI3
Fnan
sI4
Fnan
sI5
Fnan
sI6
Fnan
sI7
Fnan
sI8
Fnan
sI9
Fnan
sI10
Fnan
sI11
Fnan
sI12
Fnan
sI13
Fnan
sI14
Fnan
ssg52
(dp503
I0
F1.1688214666666665
sI1
Fnan
sI2
Fnan
sI3
Fnan
sI4
Fnan
sI5
Fnan
sI6
Fnan
sI7
Fnan
sI8
Fnan
sI9
Fnan
sI10
Fnan
sI11
Fnan
sI12
Fnan
sI13
Fnan
sI14
Fnan
ssg54
(dp504
I0
F1.5123227962079848
sI1
F1.5100825350853913
sI2
F1.5053693678614686
sI3
F1.5123655616536469
sI4
F1.5060635153454676
sI5
F1.5098857280571893
sI6
F1.498990900657221
sI7
F1.5029775258492617
sI8
F1.508151841498859
sI9
F1.5016529126926081
sI10
F1.5031558430744465
sI11
F1.5117204751197943
sI12
F1.4987729843155386
sI13
F1.5067550257166962
sI14
F1.5039455256697147
ssg56
(dp505
I0
g473
sI1
g474
sI2
g475
sI3
g476
sI4
g477
sI5
g478
sI6
g479
sI7
g480
sI8
g481
sI9
g482
sI10
g483
sI11
g484
sI12
g485
sI13
g486
sI14
g487
ssg58
(dp506
I0
F13.017
sI1
F14.39707
sI2
F13.33735
sI3
F11.73521
sI4
F11.49751
sI5
F14.28268
sI6
F11.9762
sI7
F13.50012
sI8
F12.55113
sI9
F13.10821
sI10
F12.98352
sI11
F13.60668
sI12
F11.35464
sI13
F11.08079
sI14
F15.68873
ssg60
(dp507
I0
F10.796800000000001
sI1
Fnan
sI2
Fnan
sI3
Fnan
sI4
Fnan
sI5
Fnan
sI6
Fnan
sI7
Fnan
sI8
Fnan
sI9
Fnan
sI10
Fnan
sI11
Fnan
sI12
Fnan
sI13
Fnan
sI14
Fnan
ssg62
(dp508
I0
F0.7154064445435128
sI1
Fnan
sI2
Fnan
sI3
Fnan
sI4
Fnan
sI5
Fnan
sI6
Fnan
sI7
Fnan
sI8
Fnan
sI9
Fnan
sI10
Fnan
sI11
Fnan
sI12
Fnan
sI13
Fnan
sI14
Fnan
ssg64
(dp509
I0
F-3.070254
sI1
F2.779654
sI2
F3.293891
sI3
F3.065852
sI4
F2.889626
sI5
F3.398263
sI6
F4.146123
sI7
F3.5811
sI8
F3.049942
sI9
F-3.974652
sI10
F-2.960031
sI11
F3.220506
sI12
F-1.995568
sI13
F3.2502
sI14
F3.494575
ssg66
(dp510
I0
F11.1616
sI1
Fnan
sI2
Fnan
sI3
Fnan
sI4
Fnan
sI5
Fnan
sI6
Fnan
sI7
Fnan
sI8
Fnan
sI9
Fnan
sI10
Fnan
sI11
Fnan
sI12
Fnan
sI13
Fnan
sI14
Fnan
ssg68
(dp511
I0
g473
sI1
g474
sI2
g475
sI3
g476
sI4
g477
sI5
g478
sI6
g479
sI7
g480
sI8
g481
sI9
g482
sI10
g483
sI11
g484
sI12
g485
sI13
g486
sI14
g487
ssg70
(dp512
I0
F8868.106666666667
sI1
F8548.373333333333
sI2
F8818.493333333334
sI3
F8964.493333333334
sI4
F8062.693333333333
sI5
F8614.963333333333
sI6
F8888.883333333333
sI7
F8636.336666666666
sI8
F8653.073333333334
sI9
F8618.163333333334
sI10
F8737.476666666666
sI11
F8717.093333333332
sI12
F8987.43
sI13
F7839.363333333333
sI14
F8388.806666666667
ssg72
(dp513
I0
F1.0181879999999999
sI1
F1.064337
sI2
F1.063042
sI3
F1.0170299999999999
sI4
F1.039124
sI5
F1.017601
sI6
F1.036295
sI7
F1.018784
sI8
F1.0372299999999999
sI9
F1.065667
sI10
F1.019392
sI11
F1.068366
sI12
F1.035384
sI13
F1.038166
sI14
F1.0670030000000001
ssg74
(dp514
I0
F7625.85
sI1
F7325.28
sI2
F7591.570000000001
sI3
F7725.003333333333
sI4
F6936.306666666667
sI5
F7360.086666666667
sI6
F7635.753333333333
sI7
F7410.543333333333
sI8
F7423.866666666667
sI9
F7392.966666666666
sI10
F7475.306666666667
sI11
F7503.096666666666
sI12
F7695.323333333334
sI13
F6719.92
sI14
F7193.823333333334
ssg76
(dp515
I0
F12472.093333333332
sI1
F11985.263333333334
sI2
F12351.603333333333
sI3
F12620.31
sI4
F11294.723333333333
sI5
F12060.25
sI6
F12385.140000000001
sI7
F12059.05
sI8
F12123.233333333334
sI9
F12021.58
sI10
F12185.17
sI11
F12260.196666666667
sI12
F12501.83
sI13
F10968.636666666665
sI14
F11717.713333333335
ssg78
(dp516
I0
F11.39422
sI1
F13.90577
sI2
F11.58009
sI3
F10.25187
sI4
F11.48712
sI5
F12.89153
sI6
F10.82287
sI7
F12.58704
sI8
F11.158
sI9
F13.07986
sI10
F12.9331
sI11
F13.45682
sI12
F11.96152
sI13
F11.24883
sI14
F12.83036
ssg80
(dp517
I0
F11.294
sI1
F11.338
sI2
F11.299
sI3
F11.28
sI4
F11.397
sI5
F11.333
sI6
F11.293
sI7
F11.325
sI8
F11.323
sI9
F11.328
sI10
F11.316
sI11
F11.312
sI12
F11.284
sI13
F11.432
sI14
F11.358
ssg82
(dp518
I0
F0.002
sI1
F0.002
sI2
F0.002
sI3
F0.002
sI4
F0.002
sI5
F0.002
sI6
F0.002
sI7
F0.002
sI8
F0.002
sI9
F0.002
sI10
F0.002
sI11
F0.002
sI12
F0.002
sI13
F0.002
sI14
F0.002
ssg84
(dp519
I0
F0.6910823803483337
sI1
Fnan
sI2
Fnan
sI3
Fnan
sI4
Fnan
sI5
Fnan
sI6
Fnan
sI7
Fnan
sI8
Fnan
sI9
Fnan
sI10
Fnan
sI11
Fnan
sI12
Fnan
sI13
Fnan
sI14
Fnan
ssg86
(dp520
I0
F11.327466666666668
sI1
Fnan
sI2
Fnan
sI3
Fnan
sI4
Fnan
sI5
Fnan
sI6
Fnan
sI7
Fnan
sI8
Fnan
sI9
Fnan
sI10
Fnan
sI11
Fnan
sI12
Fnan
sI13
Fnan
sI14
Fnan
ssg88
(dp521
I0
F11.13
sI1
F11.17
sI2
F11.137
sI3
F11.119
sI4
F11.234
sI5
F11.162
sI6
F11.128
sI7
F11.159
sI8
F11.157
sI9
F11.161
sI10
F11.147
sI11
F11.149
sI12
F11.116
sI13
F11.264
sI14
F11.191
ssg90
(dp522
I0
F-3.858104
sI1
F-3.329234
sI2
F-4.421782
sI3
F2.421764
sI4
F-2.938221
sI5
F3.856488
sI6
F-3.170318
sI7
F3.833769
sI8
F-2.879892
sI9
F4.373824
sI10
F1.753984
sI11
F4.635033
sI12
F-2.317716
sI13
F4.557343
sI14
F-1.004646
ssg92
(dp523
I0
F0.04146116944115999
sI1
Fnan
sI2
Fnan
sI3
Fnan
sI4
Fnan
sI5
Fnan
sI6
Fnan
sI7
Fnan
sI8
Fnan
sI9
Fnan
sI10
Fnan
sI11
Fnan
sI12
Fnan
sI13
Fnan
sI14
Fnan
ssg94
(dp524
I0
F0.7146933955633032
sI1
F0.7134907584969118
sI2
F0.7171974809121484
sI3
F0.7157816741747782
sI4
F0.7166562342599091
sI5
F0.711972016733725
sI6
F0.717847603501422
sI7
F0.7161541316132292
sI8
F0.7146473900077204
sI9
F0.7163816475107976
sI10
F0.7145660666894597
sI11
F0.7153542394338512
sI12
F0.7162017987900312
sI13
F0.7145810293492131
sI14
F0.7155712011161884
ssg96
(dp525
I0
F30.0
sI1
F30.0
sI2
F30.0
sI3
F30.0
sI4
F30.0
sI5
F30.0
sI6
F30.0
sI7
F30.0
sI8
F30.0
sI9
F30.0
sI10
F30.0
sI11
F30.0
sI12
F30.0
sI13
F30.0
sI14
F30.0
ssg98
(dp526
I0
F0.002
sI1
F0.002
sI2
F0.002
sI3
F0.002
sI4
F0.002
sI5
F0.002
sI6
F0.002
sI7
F0.002
sI8
F0.002
sI9
F0.002
sI10
F0.002
sI11
F0.002
sI12
F0.002
sI13
F0.002
sI14
F0.002
ssg100
(dp527
I0
F0.002
sI1
F0.002
sI2
F0.002
sI3
F0.002
sI4
F0.002
sI5
F0.002
sI6
F0.002
sI7
F0.002
sI8
F0.002
sI9
F0.002
sI10
F0.002
sI11
F0.002
sI12
F0.002
sI13
F0.002
sI14
F0.002
ssg102
(dp528
I0
F-3.793239
sI1
F2.488389
sI2
F-2.362183
sI3
F-2.50463
sI4
F2.65862
sI5
F3.460089
sI6
F3.743515
sI7
F1.728243
sI8
F1.720894
sI9
F3.881717
sI10
F3.195971
sI11
F3.495318
sI12
F4.2515
sI13
F-2.524743
sI14
F-1.907139
ssg104
(dp529
I0
S'KIC8462852-20181028at020744_-25-1X1-030-V_cal.fts.mag.1'
p530
sI1
S'KIC8462852-20181028at030117_-25-1X1-030-V_cal.fts.mag.1'
p531
sI2
S'KIC8462852-20181028at030005_-25-1X1-030-V_cal.fts.mag.1'
p532
sI3
S'KIC8462852-20181028at020527_-25-1X1-030-V_cal.fts.mag.1'
p533
sI4
S'KIC8462852-20181028at023700_-25-1X1-030-V_cal.fts.mag.1'
p534
sI5
S'KIC8462852-20181028at020639_-25-1X1-030-V_cal.fts.mag.1'
p535
sI6
S'KIC8462852-20181028at023345_-25-1X1-030-V_cal.fts.mag.1'
p536
sI7
S'KIC8462852-20181028at020849_-25-1X1-030-V_cal.fts.mag.1'
p537
sI8
S'KIC8462852-20181028at023450_-25-1X1-030-V_cal.fts.mag.1'
p538
sI9
S'KIC8462852-20181028at030223_-25-1X1-030-V_cal.fts.mag.1'
p539
sI10
S'KIC8462852-20181028at020954_-25-1X1-030-V_cal.fts.mag.1'
p540
sI11
S'KIC8462852-20181028at030434_-25-1X1-030-V_cal.fts.mag.1'
p541
sI12
S'KIC8462852-20181028at023234_-25-1X1-030-V_cal.fts.mag.1'
p542
sI13
S'KIC8462852-20181028at023555_-25-1X1-030-V_cal.fts.mag.1'
p543
sI14
S'KIC8462852-20181028at030329_-25-1X1-030-V_cal.fts.mag.1'
p544
ssg121
(dp545
I0
F0.004566677756266999
sI1
Fnan
sI2
Fnan
sI3
Fnan
sI4
Fnan
sI5
Fnan
sI6
Fnan
sI7
Fnan
sI8
Fnan
sI9
Fnan
sI10
Fnan
sI11
Fnan
sI12
Fnan
sI13
Fnan
sI14
Fnan
ssg123
(dp546
I0
F6682.593333333333
sI1
F6423.33
sI2
F6645.320000000001
sI3
F6712.6066666666675
sI4
F6047.490000000001
sI5
F6453.743333333333
sI6
F6666.626666666666
sI7
F6478.3566666666675
sI8
F6514.65
sI9
F6472.016666666666
sI10
F6558.320000000001
sI11
F6575.7
sI12
F6711.956666666667
sI13
F5853.243333333333
sI14
F6273.236666666667
ssg125
(dp547
I0
F0.041827650913628826
sI1
Fnan
sI2
Fnan
sI3
Fnan
sI4
Fnan
sI5
Fnan
sI6
Fnan
sI7
Fnan
sI8
Fnan
sI9
Fnan
sI10
Fnan
sI11
Fnan
sI12
Fnan
sI13
Fnan
sI14
Fnan
ssg127
(dp548
I0
g469
sI1
g469
sI2
g469
sI3
g469
sI4
g469
sI5
g469
sI6
g469
sI7
g469
sI8
g469
sI9
g469
sI10
g469
sI11
g469
sI12
g469
sI13
g469
sI14
g469
ssg144
(dp549
I0
F0.0018950873721994205
sI1
Fnan
sI2
Fnan
sI3
Fnan
sI4
Fnan
sI5
Fnan
sI6
Fnan
sI7
Fnan
sI8
Fnan
sI9
Fnan
sI10
Fnan
sI11
Fnan
sI12
Fnan
sI13
Fnan
sI14
Fnan
ssg146
(dp550
I0
F3.10157
sI1
F-3.704959
sI2
F-2.398618
sI3
F3.66187
sI4
F1.786203
sI5
F-2.491865
sI6
F1.526546
sI7
F0.8069306
sI8
F-2.083608
sI9
F-1.705809
sI10
F-3.891691
sI11
F4.422462
sI12
F-2.209332
sI13
F2.256272
sI14
F3.217733
ssg148
(dp551
I0
F1.5061475025870192
sI1
Fnan
sI2
Fnan
sI3
Fnan
sI4
Fnan
sI5
Fnan
sI6
Fnan
sI7
Fnan
sI8
Fnan
sI9
Fnan
sI10
Fnan
sI11
Fnan
sI12
Fnan
sI13
Fnan
sI14
Fnan
ssg150
(dp552
I0
F2458419.607523148
sI1
Fnan
sI2
Fnan
sI3
Fnan
sI4
Fnan
sI5
Fnan
sI6
Fnan
sI7
Fnan
sI8
Fnan
sI9
Fnan
sI10
Fnan
sI11
Fnan
sI12
Fnan
sI13
Fnan
sI14
Fnan
ssg152
(dp553
I0
F0.0018950873721994205
sI1
Fnan
sI2
Fnan
sI3
Fnan
sI4
Fnan
sI5
Fnan
sI6
Fnan
sI7
Fnan
sI8
Fnan
sI9
Fnan
sI10
Fnan
sI11
Fnan
sI12
Fnan
sI13
Fnan
sI14
Fnan
ssg154
(dp554
I0
F14.63275
sI1
F17.9905
sI2
F16.59021
sI3
F14.13943
sI4
F13.63919
sI5
F16.37461
sI6
F14.51246
sI7
F15.57938
sI8
F14.38869
sI9
F15.68719
sI10
F16.00129
sI11
F15.64446
sI12
F14.11632
sI13
F13.44736
sI14
F19.01194
ssg156
(dp555
I0
F10.76
sI1
F10.803
sI2
F10.771
sI3
F10.747
sI4
F10.868
sI5
F10.797
sI6
F10.768
sI7
F10.797
sI8
F10.791
sI9
F10.8
sI10
F10.785
sI11
F10.779
sI12
F10.758
sI13
F10.9
sI14
F10.828
ssg158
(dp556
I0
F0.6910823803483337
sI1
Fnan
sI2
Fnan
sI3
Fnan
sI4
Fnan
sI5
Fnan
sI6
Fnan
sI7
Fnan
sI8
Fnan
sI9
Fnan
sI10
Fnan
sI11
Fnan
sI12
Fnan
sI13
Fnan
sI14
Fnan
sss.