(dp0
S'i'
p1
(dp2
S'sigmean'
p3
(dp4
I0
F0.4411584093135335
sI1
Fnan
sI2
Fnan
sI3
Fnan
sI4
Fnan
sI5
Fnan
sI6
Fnan
sI7
Fnan
sI8
Fnan
sI9
Fnan
sI10
Fnan
sI11
Fnan
sI12
Fnan
sI13
Fnan
sI14
Fnan
ssS'ref3flag'
p5
(dp6
I0
S'NoError'
p7
sI1
S'NoError'
p8
sI2
S'NoError'
p9
sI3
S'NoError'
p10
sI4
S'NoError'
p11
sI5
S'NoError'
p12
sI6
S'NoError'
p13
sI7
S'NoError'
p14
sI8
S'NoError'
p15
sI9
S'NoError'
p16
sI10
S'NoError'
p17
sI11
S'NoError'
p18
sI12
S'NoError'
p19
sI13
S'NoError'
p20
sI14
S'NoError'
p21
ssS'tabbyerr'
p22
(dp23
I0
F0.003
sI1
F0.003
sI2
F0.003
sI3
F0.003
sI4
F0.003
sI5
F0.003
sI6
F0.003
sI7
F0.003
sI8
F0.003
sI9
F0.003
sI10
F0.003
sI11
F0.003
sI12
F0.003
sI13
F0.003
sI14
F0.003
ssS'ref2rel'
p24
(dp25
I0
F0.9094990855319327
sI1
F0.9142110066880137
sI2
F0.9111962441433616
sI3
F0.912167260295395
sI4
F0.9087897245169364
sI5
F0.9062055595792796
sI6
F0.9088592295772463
sI7
F0.91029604439205
sI8
F0.9079382040543414
sI9
F0.913763192944363
sI10
F0.9059253076352293
sI11
F0.9134001155919909
sI12
F0.909572367803537
sI13
F0.9090728299610333
sI14
F0.9074012538703258
ssS'ref2err'
p26
(dp27
I0
F0.002612365189032194
sI1
Fnan
sI2
Fnan
sI3
Fnan
sI4
Fnan
sI5
Fnan
sI6
Fnan
sI7
Fnan
sI8
Fnan
sI9
Fnan
sI10
Fnan
sI11
Fnan
sI12
Fnan
sI13
Fnan
sI14
Fnan
ssS'ref2mean'
p28
(dp29
I0
F0.909886495105669
sI1
Fnan
sI2
Fnan
sI3
Fnan
sI4
Fnan
sI5
Fnan
sI6
Fnan
sI7
Fnan
sI8
Fnan
sI9
Fnan
sI10
Fnan
sI11
Fnan
sI12
Fnan
sI13
Fnan
sI14
Fnan
ssS'tabbymag'
p30
(dp31
I0
F11.866
sI1
F11.848
sI2
F11.867
sI3
F11.872
sI4
F11.877
sI5
F11.87
sI6
F11.876
sI7
F11.909
sI8
F11.87
sI9
F11.867
sI10
F11.869
sI11
F11.86
sI12
F11.853
sI13
F11.863
sI14
F11.879
ssS'tabbybkg'
p32
(dp33
I0
F19.70781
sI1
F20.72666
sI2
F20.0002
sI3
F19.80601
sI4
F19.85919
sI5
F20.43618
sI6
F20.21933
sI7
F19.84072
sI8
F20.77777
sI9
F20.50923
sI10
F20.00063
sI11
F18.74774
sI12
F19.81111
sI13
F18.54893
sI14
F20.9646
ssS'JD'
p34
(dp35
I0
F2458359.6943171294
sI1
F2458359.731087963
sI2
F2458359.7130671297
sI3
F2458359.712326389
sI4
F2458359.714537037
sI5
F2458359.713796296
sI6
F2458359.730358796
sI7
F2458359.6950462963
sI8
F2458359.7318287035
sI9
F2458359.7325694445
sI10
F2458359.6957870373
sI11
F2458359.693587963
sI12
F2458359.711574074
sI13
F2458359.692858796
sI14
F2458359.733298611
ssS'ref3rmsmean'
p36
(dp37
I0
F1.2387126266666668
sI1
Fnan
sI2
Fnan
sI3
Fnan
sI4
Fnan
sI5
Fnan
sI6
Fnan
sI7
Fnan
sI8
Fnan
sI9
Fnan
sI10
Fnan
sI11
Fnan
sI12
Fnan
sI13
Fnan
sI14
Fnan
ssS'ref1rmsmean'
p38
(dp39
I0
F0.6585085333333335
sI1
Fnan
sI2
Fnan
sI3
Fnan
sI4
Fnan
sI5
Fnan
sI6
Fnan
sI7
Fnan
sI8
Fnan
sI9
Fnan
sI10
Fnan
sI11
Fnan
sI12
Fnan
sI13
Fnan
sI14
Fnan
ssS'relflux'
p40
(dp41
I0
F0.44098582455786006
sI1
F0.44319894391461123
sI2
F0.4410982323159454
sI3
F0.4410931319323106
sI4
F0.44154507159371037
sI5
F0.44287015103663285
sI6
F0.4407089593148118
sI7
F0.43960272270847744
sI8
F0.4390453751430163
sI9
F0.43818292027377836
sI10
F0.43835092793198444
sI11
F0.44314834083620375
sI12
F0.4450310616255277
sI13
F0.44246313996428627
sI14
F0.4409484998260855
ssS'sigerr'
p42
(dp43
I0
F0.0014664520125382166
sI1
Fnan
sI2
Fnan
sI3
Fnan
sI4
Fnan
sI5
Fnan
sI6
Fnan
sI7
Fnan
sI8
Fnan
sI9
Fnan
sI10
Fnan
sI11
Fnan
sI12
Fnan
sI13
Fnan
sI14
Fnan
ssS'tabbyrmsmean'
p44
(dp45
I0
F1.1961613333333332
sI1
Fnan
sI2
Fnan
sI3
Fnan
sI4
Fnan
sI5
Fnan
sI6
Fnan
sI7
Fnan
sI8
Fnan
sI9
Fnan
sI10
Fnan
sI11
Fnan
sI12
Fnan
sI13
Fnan
sI14
Fnan
ssS'tabbyflag'
p46
(dp47
I0
g7
sI1
g8
sI2
g9
sI3
g10
sI4
g11
sI5
g12
sI6
g13
sI7
g14
sI8
g15
sI9
g16
sI10
g17
sI11
g18
sI12
g19
sI13
g20
sI14
g21
ssS'ref1err'
p48
(dp49
I0
F0.0018254637953106455
sI1
Fnan
sI2
Fnan
sI3
Fnan
sI4
Fnan
sI5
Fnan
sI6
Fnan
sI7
Fnan
sI8
Fnan
sI9
Fnan
sI10
Fnan
sI11
Fnan
sI12
Fnan
sI13
Fnan
sI14
Fnan
ssS'ref2magmeanerr'
p50
(dp51
I0
F0.012674308471790364
sI1
Fnan
sI2
Fnan
sI3
Fnan
sI4
Fnan
sI5
Fnan
sI6
Fnan
sI7
Fnan
sI8
Fnan
sI9
Fnan
sI10
Fnan
sI11
Fnan
sI12
Fnan
sI13
Fnan
sI14
Fnan
ssS'ref2rmsmean'
p52
(dp53
I0
F1.4648006000000002
sI1
Fnan
sI2
Fnan
sI3
Fnan
sI4
Fnan
sI5
Fnan
sI6
Fnan
sI7
Fnan
sI8
Fnan
sI9
Fnan
sI10
Fnan
sI11
Fnan
sI12
Fnan
sI13
Fnan
sI14
Fnan
ssS'ref3rel'
p54
(dp55
I0
F1.4957168700559793
sI1
F1.494142299517199
sI2
F1.4934053711076436
sI3
F1.4951802498999427
sI4
F1.4961846157042142
sI5
F1.4999599950190443
sI6
F1.4982826075647426
sI7
F1.5012060502550233
sI8
F1.497057256375596
sI9
F1.4874278792635667
sI10
F1.5011175941466968
sI11
F1.4972051208515174
sI12
F1.4937543674344764
sI13
F1.5006178039180866
sI14
F1.4982515573436614
ssS'ref1flag'
p56
(dp57
I0
g7
sI1
g8
sI2
g9
sI3
g10
sI4
g11
sI5
g12
sI6
g13
sI7
g14
sI8
g15
sI9
g16
sI10
g17
sI11
g18
sI12
g19
sI13
g20
sI14
g21
ssS'ref2bkg'
p58
(dp59
I0
F20.20256
sI1
F22.24362
sI2
F22.60967
sI3
F21.76364
sI4
F22.41463
sI5
F22.12798
sI6
F22.15145
sI7
F21.70806
sI8
F22.47145
sI9
F22.21466
sI10
F20.04816
sI11
F21.38598
sI12
F21.61347
sI13
F20.123
sI14
F23.28118
ssS'ref3magmean'
p60
(dp61
I0
F10.709933333333334
sI1
Fnan
sI2
Fnan
sI3
Fnan
sI4
Fnan
sI5
Fnan
sI6
Fnan
sI7
Fnan
sI8
Fnan
sI9
Fnan
sI10
Fnan
sI11
Fnan
sI12
Fnan
sI13
Fnan
sI14
Fnan
ssS'ref1mean'
p62
(dp63
I0
F0.7001197208017973
sI1
Fnan
sI2
Fnan
sI3
Fnan
sI4
Fnan
sI5
Fnan
sI6
Fnan
sI7
Fnan
sI8
Fnan
sI9
Fnan
sI10
Fnan
sI11
Fnan
sI12
Fnan
sI13
Fnan
sI14
Fnan
ssS'ref1rms'
p64
(dp65
I0
F2.138371
sI1
F1.809716
sI2
F4.162296
sI3
F3.603952
sI4
F-1.000466
sI5
F-2.78455
sI6
F-2.153956
sI7
F-4.035889
sI8
F5.229435
sI9
F-2.912544
sI10
F-2.605233
sI11
F3.442073
sI12
F3.044108
sI13
F4.750998
sI14
F-2.810683
ssS'ref2magmean'
p66
(dp67
I0
F11.050733333333335
sI1
Fnan
sI2
Fnan
sI3
Fnan
sI4
Fnan
sI5
Fnan
sI6
Fnan
sI7
Fnan
sI8
Fnan
sI9
Fnan
sI10
Fnan
sI11
Fnan
sI12
Fnan
sI13
Fnan
sI14
Fnan
ssS'ref2flag'
p68
(dp69
I0
g7
sI1
g8
sI2
g9
sI3
g10
sI4
g11
sI5
g12
sI6
g13
sI7
g14
sI8
g15
sI9
g16
sI10
g17
sI11
g18
sI12
g19
sI13
g20
sI14
g21
ssS'ref2'
p70
(dp71
I0
F9575.186666666666
sI1
F9720.99
sI2
F9581.35
sI3
F9546.526666666667
sI4
F9464.53
sI5
F9479.91
sI6
F9489.890000000001
sI7
F9242.936666666666
sI8
F9573.156666666668
sI9
F9660.97
sI10
F9579.936666666666
sI11
F9608.75
sI12
F9609.736666666666
sI13
F9569.006666666666
sI14
F9448.369999999999
ssS'airmass'
p72
(dp73
I0
F1.010744
sI1
F1.006614
sI2
F1.004879
sI3
F1.0049620000000001
sI4
F1.004751
sI5
F1.004809
sI6
F1.006402
sI7
F1.010363
sI8
F1.00684
sI9
F1.007077
sI10
F1.01
sI11
F1.011132
sI12
F1.005056
sI13
F1.011535
sI14
F1.007323
ssS'ref1'
p74
(dp75
I0
F7949.77
sI1
F8015.776666666667
sI2
F7944.0233333333335
sI3
F7893.52
sI4
F7864.873333333334
sI5
F7892.926666666666
sI6
F7874.613333333333
sI7
F7637.233333333334
sI8
F7962.066666666667
sI9
F8006.163333333333
sI10
F7974.14
sI11
F7918.543333333333
sI12
F7987.36
sI13
F7925.756666666667
sI14
F7859.413333333333
ssS'ref3'
p76
(dp77
I0
F13106.186666666666
sI1
F13250.626666666667
sI2
F13086.243333333334
sI3
F13038.006666666666
sI4
F12963.993333333334
sI5
F13029.28
sI6
F13008.466666666667
sI7
F12670.306666666667
sI8
F13125.616666666667
sI9
F13139.293333333333
sI10
F13175.366666666667
sI11
F13120.976666666666
sI12
F13142.869999999999
sI13
F13126.476666666666
sI14
F12965.706666666667
ssS'ref1bkg'
p78
(dp79
I0
F19.09098
sI1
F20.91578
sI2
F20.54788
sI3
F21.71506
sI4
F21.39037
sI5
F22.08162
sI6
F20.86402
sI7
F21.68964
sI8
F20.4532
sI9
F20.72997
sI10
F18.89568
sI11
F19.91076
sI12
F20.64885
sI13
F18.57788
sI14
F21.75041
ssS'ref1mag'
p80
(dp81
I0
F11.249
sI1
F11.24
sI2
F11.25
sI3
F11.257
sI4
F11.261
sI5
F11.257
sI6
F11.259
sI7
F11.293
sI8
F11.247
sI9
F11.241
sI10
F11.246
sI11
F11.253
sI12
F11.244
sI13
F11.252
sI14
F11.262
ssS'ref3magerr'
p82
(dp83
I0
F0.002
sI1
F0.002
sI2
F0.002
sI3
F0.002
sI4
F0.002
sI5
F0.002
sI6
F0.002
sI7
F0.002
sI8
F0.002
sI9
F0.002
sI10
F0.002
sI11
F0.002
sI12
F0.002
sI13
F0.002
sI14
F0.002
ssS'tabbymagmean'
p84
(dp85
I0
F0.44121822019834944
sI1
Fnan
sI2
Fnan
sI3
Fnan
sI4
Fnan
sI5
Fnan
sI6
Fnan
sI7
Fnan
sI8
Fnan
sI9
Fnan
sI10
Fnan
sI11
Fnan
sI12
Fnan
sI13
Fnan
sI14
Fnan
ssS'ref1magmean'
p86
(dp87
I0
F11.254066666666667
sI1
Fnan
sI2
Fnan
sI3
Fnan
sI4
Fnan
sI5
Fnan
sI6
Fnan
sI7
Fnan
sI8
Fnan
sI9
Fnan
sI10
Fnan
sI11
Fnan
sI12
Fnan
sI13
Fnan
sI14
Fnan
ssS'ref2mag'
p88
(dp89
I0
F11.047
sI1
F11.031
sI2
F11.046
sI3
F11.05
sI4
F11.06
sI5
F11.058
sI6
F11.057
sI7
F11.085
sI8
F11.047
sI9
F11.037
sI10
F11.047
sI11
F11.043
sI12
F11.043
sI13
F11.048
sI14
F11.062
ssS'ref3rms'
p90
(dp91
I0
F2.169832
sI1
F-0.7090806
sI2
F2.569423
sI3
F-3.765089
sI4
F2.402695
sI5
F-3.774211
sI6
F3.591715
sI7
F3.961216
sI8
F-3.466942
sI9
F-3.384462
sI10
F3.664805
sI11
F3.102756
sI12
F5.022789
sI13
F3.703475
sI14
F3.491768
ssS'ref3magmeanerr'
p92
(dp93
I0
F0.011221577853573372
sI1
Fnan
sI2
Fnan
sI3
Fnan
sI4
Fnan
sI5
Fnan
sI6
Fnan
sI7
Fnan
sI8
Fnan
sI9
Fnan
sI10
Fnan
sI11
Fnan
sI12
Fnan
sI13
Fnan
sI14
Fnan
ssS'ref1rel'
p94
(dp95
I0
F0.7009954717615571
sI1
F0.6978852888746039
sI2
F0.7009145802568659
sI3
F0.6990199782742172
sI4
F0.7013277884099072
sI5
F0.7013070365185655
sI6
F0.700016756779421
sI7
F0.6970427167863331
sI8
F0.7015415811015925
sI9
F0.7022869180312099
sI10
F0.7008599167578664
sI11
F0.696756582202631
sI12
F0.7021050481834902
sI13
F0.6984435229036029
sI14
F0.7012926251850957
ssS'exposure'
p96
(dp97
I0
F30.0
sI1
F30.0
sI2
F30.0
sI3
F30.0
sI4
F30.0
sI5
F30.0
sI6
F30.0
sI7
F30.0
sI8
F30.0
sI9
F30.0
sI10
F30.0
sI11
F30.0
sI12
F30.0
sI13
F30.0
sI14
F30.0
ssS'ref1magerr'
p98
(dp99
I0
F0.002
sI1
F0.002
sI2
F0.002
sI3
F0.002
sI4
F0.002
sI5
F0.002
sI6
F0.002
sI7
F0.002
sI8
F0.002
sI9
F0.002
sI10
F0.002
sI11
F0.002
sI12
F0.002
sI13
F0.002
sI14
F0.002
ssS'ref2magerr'
p100
(dp101
I0
F0.002
sI1
F0.002
sI2
F0.002
sI3
F0.002
sI4
F0.002
sI5
F0.002
sI6
F0.002
sI7
F0.002
sI8
F0.002
sI9
F0.002
sI10
F0.002
sI11
F0.002
sI12
F0.002
sI13
F0.002
sI14
F0.002
ssS'ref2rms'
p102
(dp103
I0
F3.16007
sI1
F2.148168
sI2
F3.167373
sI3
F5.42624
sI4
F2.858647
sI5
F3.280131
sI6
F3.523777
sI7
F-3.369195
sI8
F-3.284608
sI9
F-1.924729
sI10
F3.639525
sI11
F-1.775001
sI12
F-1.971998
sI13
F3.859061
sI14
F3.234548
ssS'name'
p104
(dp105
I0
S"KIC8462852-20180829at043949_-25-1X1-030-i'_cal.fts.mag.1"
p106
sI1
S"KIC8462852-20180829at053246_-25-1X1-030-i'_cal.fts.mag.1"
p107
sI2
S"KIC8462852-20180829at050649_-25-1X1-030-i'_cal.fts.mag.1"
p108
sI3
S"KIC8462852-20180829at050545_-25-1X1-030-i'_cal.fts.mag.1"
p109
sI4
S"KIC8462852-20180829at050856_-25-1X1-030-i'_cal.fts.mag.1"
p110
sI5
S"KIC8462852-20180829at050752_-25-1X1-030-i'_cal.fts.mag.1"
p111
sI6
S"KIC8462852-20180829at053141_-25-1X1-030-i'_cal.fts.mag.1"
p112
sI7
S"KIC8462852-20180829at044052_-25-1X1-030-i'_cal.fts.mag.1"
p113
sI8
S"KIC8462852-20180829at053350_-25-1X1-030-i'_cal.fts.mag.1"
p114
sI9
S"KIC8462852-20180829at053454_-25-1X1-030-i'_cal.fts.mag.1"
p115
sI10
S"KIC8462852-20180829at044156_-25-1X1-030-i'_cal.fts.mag.1"
p116
sI11
S"KIC8462852-20180829at043846_-25-1X1-030-i'_cal.fts.mag.1"
p117
sI12
S"KIC8462852-20180829at050439_-25-1X1-030-i'_cal.fts.mag.1"
p118
sI13
S"KIC8462852-20180829at043741_-25-1X1-030-i'_cal.fts.mag.1"
p119
sI14
S"KIC8462852-20180829at053557_-25-1X1-030-i'_cal.fts.mag.1"
p120
ssS'ref3err'
p121
(dp122
I0
F0.003650958207407281
sI1
Fnan
sI2
Fnan
sI3
Fnan
sI4
Fnan
sI5
Fnan
sI6
Fnan
sI7
Fnan
sI8
Fnan
sI9
Fnan
sI10
Fnan
sI11
Fnan
sI12
Fnan
sI13
Fnan
sI14
Fnan
ssS'tabby'
p123
(dp124
I0
F4502.633333333333
sI1
F4577.86
sI2
F4500.91
sI3
F4481.22
sI4
F4458.633333333333
sI5
F4488.0633333333335
sI6
F4461.88
sI7
F4330.156666666667
sI8
F4487.166666666667
sI9
F4499.616666666667
sI10
F4490.093333333333
sI11
F4527.243333333333
sI12
F4560.08
sI13
F4516.256666666667
sI14
F4449.683333333333
ssS'ref1magmeanerr'
p125
(dp126
I0
F0.012819999257112932
sI1
Fnan
sI2
Fnan
sI3
Fnan
sI4
Fnan
sI5
Fnan
sI6
Fnan
sI7
Fnan
sI8
Fnan
sI9
Fnan
sI10
Fnan
sI11
Fnan
sI12
Fnan
sI13
Fnan
sI14
Fnan
ssS'filter'
p127
(dp128
I0
S"i'"
p129
sI1
S"i'"
p130
sI2
S"i'"
p131
sI3
S"i'"
p132
sI4
S"i'"
p133
sI5
S"i'"
p134
sI6
S"i'"
p135
sI7
S"i'"
p136
sI8
S"i'"
p137
sI9
S"i'"
p138
sI10
S"i'"
p139
sI11
S"i'"
p140
sI12
S"i'"
p141
sI13
S"i'"
p142
sI14
S"i'"
p143
ssS'tabbymagerr'
p144
(dp145
I0
F0.0019226761556331892
sI1
Fnan
sI2
Fnan
sI3
Fnan
sI4
Fnan
sI5
Fnan
sI6
Fnan
sI7
Fnan
sI8
Fnan
sI9
Fnan
sI10
Fnan
sI11
Fnan
sI12
Fnan
sI13
Fnan
sI14
Fnan
ssS'tabbyrms'
p146
(dp147
I0
F-3.680563
sI1
F-2.994976
sI2
F2.258707
sI3
F3.141235
sI4
F4.601136
sI5
F3.135637
sI6
F3.6867
sI7
F1.404718
sI8
F-2.393866
sI9
F3.768729
sI10
F3.003469
sI11
F3.455191
sI12
F3.917853
sI13
F-2.146664
sI14
F-3.214886
ssS'ref3mean'
p148
(dp149
I0
F1.4966339758971594
sI1
Fnan
sI2
Fnan
sI3
Fnan
sI4
Fnan
sI5
Fnan
sI6
Fnan
sI7
Fnan
sI8
Fnan
sI9
Fnan
sI10
Fnan
sI11
Fnan
sI12
Fnan
sI13
Fnan
sI14
Fnan
ssS'median_JD'
p150
(dp151
I0
F2458359.7130671297
sI1
Fnan
sI2
Fnan
sI3
Fnan
sI4
Fnan
sI5
Fnan
sI6
Fnan
sI7
Fnan
sI8
Fnan
sI9
Fnan
sI10
Fnan
sI11
Fnan
sI12
Fnan
sI13
Fnan
sI14
Fnan
ssS'error'
p152
(dp153
I0
F0.0019226761556331892
sI1
Fnan
sI2
Fnan
sI3
Fnan
sI4
Fnan
sI5
Fnan
sI6
Fnan
sI7
Fnan
sI8
Fnan
sI9
Fnan
sI10
Fnan
sI11
Fnan
sI12
Fnan
sI13
Fnan
sI14
Fnan
ssS'ref3bkg'
p154
(dp155
I0
F21.98007
sI1
F22.53912
sI2
F24.12911
sI3
F24.8051
sI4
F24.38663
sI5
F23.88668
sI6
F23.75448
sI7
F24.01641
sI8
F24.58341
sI9
F23.75692
sI10
F22.50848
sI11
F21.63727
sI12
F22.79035
sI13
F21.24775
sI14
F24.33179
ssS'ref3mag'
p156
(dp157
I0
F10.706
sI1
F10.694
sI2
F10.708
sI3
F10.712
sI4
F10.718
sI5
F10.713
sI6
F10.714
sI7
F10.743
sI8
F10.705
sI9
F10.704
sI10
F10.701
sI11
F10.705
sI12
F10.703
sI13
F10.705
sI14
F10.718
ssS'mean'
p158
(dp159
I0
F0.44121822019834944
sI1
Fnan
sI2
Fnan
sI3
Fnan
sI4
Fnan
sI5
Fnan
sI6
Fnan
sI7
Fnan
sI8
Fnan
sI9
Fnan
sI10
Fnan
sI11
Fnan
sI12
Fnan
sI13
Fnan
sI14
Fnan
sssS'r'
p160
(dp161
g3
(dp162
I0
F0.5504123421318095
sI1
Fnan
sI2
Fnan
sI3
Fnan
sI4
Fnan
sI5
Fnan
sI6
Fnan
sI7
Fnan
sI8
Fnan
sI9
Fnan
sI10
Fnan
sI11
Fnan
sI12
Fnan
sI13
Fnan
sI14
Fnan
ssg5
(dp163
I0
S'NoError'
p164
sI1
S'NoError'
p165
sI2
S'NoError'
p166
sI3
S'NoError'
p167
sI4
S'NoError'
p168
sI5
S'NoError'
p169
sI6
S'NoError'
p170
sI7
S'NoError'
p171
sI8
S'NoError'
p172
sI9
S'NoError'
p173
sI10
S'NoError'
p174
sI11
S'NoError'
p175
sI12
S'NoError'
p176
sI13
S'NoError'
p177
sI14
S'NoError'
p178
ssg22
(dp179
I0
F0.002
sI1
F0.002
sI2
F0.002
sI3
F0.002
sI4
F0.002
sI5
F0.002
sI6
F0.002
sI7
F0.002
sI8
F0.002
sI9
F0.002
sI10
F0.002
sI11
F0.002
sI12
F0.002
sI13
F0.002
sI14
F0.002
ssg24
(dp180
I0
F0.8959603611777793
sI1
F0.8918776163040394
sI2
F0.8939158741513332
sI3
F0.893650179027394
sI4
F0.8956508441399561
sI5
F0.8950487961510522
sI6
F0.8937945546123642
sI7
F0.8946925537390181
sI8
F0.8960714404372312
sI9
F0.8985555491864995
sI10
F0.8924016739680025
sI11
F0.8950811879474476
sI12
F0.8929147322959916
sI13
F0.8941414409153755
sI14
F0.8932197683009321
ssg26
(dp181
I0
F0.001693544919702864
sI1
Fnan
sI2
Fnan
sI3
Fnan
sI4
Fnan
sI5
Fnan
sI6
Fnan
sI7
Fnan
sI8
Fnan
sI9
Fnan
sI10
Fnan
sI11
Fnan
sI12
Fnan
sI13
Fnan
sI14
Fnan
ssg28
(dp182
I0
F0.8944651048236277
sI1
Fnan
sI2
Fnan
sI3
Fnan
sI4
Fnan
sI5
Fnan
sI6
Fnan
sI7
Fnan
sI8
Fnan
sI9
Fnan
sI10
Fnan
sI11
Fnan
sI12
Fnan
sI13
Fnan
sI14
Fnan
ssg30
(dp183
I0
F11.147
sI1
F11.156
sI2
F11.148
sI3
F11.152
sI4
F11.152
sI5
F11.167
sI6
F11.146
sI7
F11.164
sI8
F11.177
sI9
F11.154
sI10
F11.175
sI11
F11.15
sI12
F11.158
sI13
F11.153
sI14
F11.143
ssg32
(dp184
I0
F34.45001
sI1
F31.78396
sI2
F36.75322
sI3
F35.35555
sI4
F35.46863
sI5
F36.28308
sI6
F30.07445
sI7
F34.77321
sI8
F37.8369
sI9
F31.44437
sI10
F36.96737
sI11
F34.49907
sI12
F36.56179
sI13
F31.58645
sI14
F31.39699
ssg34
(dp185
I0
F2458359.7100925925
sI1
F2458359.690625
sI2
F2458359.7296064813
sI3
F2458359.708634259
sI4
F2458359.728877315
sI5
F2458359.7266782406
sI6
F2458359.6898958334
sI7
F2458359.7079050927
sI8
F2458359.7274074075
sI9
F2458359.6891550925
sI10
F2458359.728148148
sI11
F2458359.709363426
sI12
F2458359.7108217594
sI13
F2458359.6913657407
sI14
F2458359.6921064816
ssg36
(dp186
I0
F1.9283981333333335
sI1
Fnan
sI2
Fnan
sI3
Fnan
sI4
Fnan
sI5
Fnan
sI6
Fnan
sI7
Fnan
sI8
Fnan
sI9
Fnan
sI10
Fnan
sI11
Fnan
sI12
Fnan
sI13
Fnan
sI14
Fnan
ssg38
(dp187
I0
F0.9559647333333333
sI1
Fnan
sI2
Fnan
sI3
Fnan
sI4
Fnan
sI5
Fnan
sI6
Fnan
sI7
Fnan
sI8
Fnan
sI9
Fnan
sI10
Fnan
sI11
Fnan
sI12
Fnan
sI13
Fnan
sI14
Fnan
ssg40
(dp188
I0
F0.5502506729980526
sI1
F0.5486649529861671
sI2
F0.5511883806275687
sI3
F0.550023714653476
sI4
F0.5507420027419775
sI5
F0.5502848852929199
sI6
F0.5552983283587482
sI7
F0.549962898187283
sI8
F0.5480731939296403
sI9
F0.550504193439609
sI10
F0.5491681384726683
sI11
F0.5528443070396355
sI12
F0.5475332385642149
sI13
F0.5516757270503697
sI14
F0.5519773802941544
ssg42
(dp189
I0
F0.0012754404052868302
sI1
Fnan
sI2
Fnan
sI3
Fnan
sI4
Fnan
sI5
Fnan
sI6
Fnan
sI7
Fnan
sI8
Fnan
sI9
Fnan
sI10
Fnan
sI11
Fnan
sI12
Fnan
sI13
Fnan
sI14
Fnan
ssg44
(dp190
I0
F1.9845347333333336
sI1
Fnan
sI2
Fnan
sI3
Fnan
sI4
Fnan
sI5
Fnan
sI6
Fnan
sI7
Fnan
sI8
Fnan
sI9
Fnan
sI10
Fnan
sI11
Fnan
sI12
Fnan
sI13
Fnan
sI14
Fnan
ssg46
(dp191
I0
g164
sI1
g165
sI2
g166
sI3
g167
sI4
g168
sI5
g169
sI6
g170
sI7
g171
sI8
g172
sI9
g173
sI10
g174
sI11
g175
sI12
g176
sI13
g177
sI14
g178
ssg48
(dp192
I0
F0.0017725122296277911
sI1
Fnan
sI2
Fnan
sI3
Fnan
sI4
Fnan
sI5
Fnan
sI6
Fnan
sI7
Fnan
sI8
Fnan
sI9
Fnan
sI10
Fnan
sI11
Fnan
sI12
Fnan
sI13
Fnan
sI14
Fnan
ssg50
(dp193
I0
F0.008364892621631799
sI1
Fnan
sI2
Fnan
sI3
Fnan
sI4
Fnan
sI5
Fnan
sI6
Fnan
sI7
Fnan
sI8
Fnan
sI9
Fnan
sI10
Fnan
sI11
Fnan
sI12
Fnan
sI13
Fnan
sI14
Fnan
ssg52
(dp194
I0
F3.6670113733333336
sI1
Fnan
sI2
Fnan
sI3
Fnan
sI4
Fnan
sI5
Fnan
sI6
Fnan
sI7
Fnan
sI8
Fnan
sI9
Fnan
sI10
Fnan
sI11
Fnan
sI12
Fnan
sI13
Fnan
sI14
Fnan
ssg54
(dp195
I0
F1.4898793014160403
sI1
F1.4952397388292633
sI2
F1.4929670526273222
sI3
F1.4937286934095175
sI4
F1.492520058142144
sI5
F1.4897357726611746
sI6
F1.4966859707493068
sI7
F1.4912499747299077
sI8
F1.4897275145623368
sI9
F1.489236310643691
sI10
F1.4927338509544918
sI11
F1.4880431867835027
sI12
F1.4952462856783755
sI13
F1.5009598147511831
sI14
F1.4981430749093203
ssg56
(dp196
I0
g164
sI1
g165
sI2
g166
sI3
g167
sI4
g168
sI5
g169
sI6
g170
sI7
g171
sI8
g172
sI9
g173
sI10
g174
sI11
g175
sI12
g176
sI13
g177
sI14
g178
ssg58
(dp197
I0
F36.93517
sI1
F31.53518
sI2
F39.06214
sI3
F37.28921
sI4
F38.27668
sI5
F39.4052
sI6
F31.86725
sI7
F37.63329
sI8
F39.97565
sI9
F30.857
sI10
F40.98065
sI11
F37.29502
sI12
F37.84892
sI13
F33.48704
sI14
F31.90536
ssg60
(dp198
I0
F10.238066666666667
sI1
Fnan
sI2
Fnan
sI3
Fnan
sI4
Fnan
sI5
Fnan
sI6
Fnan
sI7
Fnan
sI8
Fnan
sI9
Fnan
sI10
Fnan
sI11
Fnan
sI12
Fnan
sI13
Fnan
sI14
Fnan
ssg62
(dp199
I0
F0.7156821542365004
sI1
Fnan
sI2
Fnan
sI3
Fnan
sI4
Fnan
sI5
Fnan
sI6
Fnan
sI7
Fnan
sI8
Fnan
sI9
Fnan
sI10
Fnan
sI11
Fnan
sI12
Fnan
sI13
Fnan
sI14
Fnan
ssg64
(dp200
I0
F4.930596
sI1
F-1.363372
sI2
F3.928881
sI3
F-2.552096
sI4
F2.690046
sI5
F4.206167
sI6
F4.603603
sI7
F-3.380934
sI8
F-1.727972
sI9
F1.333431
sI10
F-3.49744
sI11
F-3.108373
sI12
F1.574775
sI13
F2.888909
sI14
F3.81325
ssg66
(dp201
I0
F10.590399999999997
sI1
Fnan
sI2
Fnan
sI3
Fnan
sI4
Fnan
sI5
Fnan
sI6
Fnan
sI7
Fnan
sI8
Fnan
sI9
Fnan
sI10
Fnan
sI11
Fnan
sI12
Fnan
sI13
Fnan
sI14
Fnan
ssg68
(dp202
I0
g164
sI1
g165
sI2
g166
sI3
g167
sI4
g168
sI5
g169
sI6
g170
sI7
g171
sI8
g172
sI9
g173
sI10
g174
sI11
g175
sI12
g176
sI13
g177
sI14
g178
ssg70
(dp203
I0
F14726.373333333333
sI1
F14605.81
sI2
F14674.913333333334
sI3
F14639.81
sI4
F14642.1
sI5
F14453.06
sI6
F14592.243333333334
sI7
F14500.796666666667
sI8
F14384.216666666667
sI9
F14656.793333333333
sI10
F14350.846666666668
sI11
F14618.246666666668
sI12
F14620.69
sI13
F14595.26
sI14
F14705.609999999999
ssg72
(dp204
I0
F1.005287
sI1
F1.0128270000000001
sI2
F1.006197
sI3
F1.005558
sI4
F1.006011
sI5
F1.005522
sI6
F1.0132809999999999
sI7
F1.0057120000000002
sI8
F1.005674
sI9
F1.0137479999999999
sI10
F1.005836
sI11
F1.005417
sI12
F1.005167
sI13
F1.012385
sI14
F1.011958
ssg74
(dp205
I0
F12552.046666666667
sI1
F12493.193333333333
sI2
F12527.053333333333
sI3
F12496.746666666668
sI4
F12466.176666666666
sI5
F12339.019999999999
sI6
F12430.25
sI7
F12375.506666666666
sI8
F12259.286666666665
sI9
F12443.58
sI10
F12283.390000000001
sI11
F12492.516666666666
sI12
F12484.08
sI13
F12392.586666666666
sI14
F12527.583333333334
ssg76
(dp206
I0
F20320.77666666667
sI1
F20259.753333333334
sI2
F20305.82
sI3
F20267.326666666668
sI4
F20229.82333333333
sI5
F19956.56
sI6
F20222.093333333334
sI7
F20039.643333333333
sI8
F19845.780000000002
sI9
F20179.43
sI10
F19878.913333333334
sI11
F20170.993333333336
sI12
F20264.153333333332
sI13
F20253.836666666666
sI14
F20399.61
ssg78
(dp207
I0
F36.67454
sI1
F32.03799
sI2
F37.72083
sI3
F36.39726
sI4
F37.72207
sI5
F38.57679
sI6
F30.47424
sI7
F35.96347
sI8
F38.53182
sI9
F30.90343
sI10
F39.30038
sI11
F37.81521
sI12
F36.63366
sI13
F32.60865
sI14
F31.53878
ssg80
(dp208
I0
F10.753
sI1
F10.758
sI2
F10.755
sI3
F10.758
sI4
F10.761
sI5
F10.772
sI6
F10.764
sI7
F10.769
sI8
F10.779
sI9
F10.763
sI10
F10.777
sI11
F10.758
sI12
F10.759
sI13
F10.767
sI14
F10.755
ssg82
(dp209
I0
F0.001
sI1
F0.001
sI2
F0.001
sI3
F0.001
sI4
F0.001
sI5
F0.001
sI6
F0.001
sI7
F0.001
sI8
F0.001
sI9
F0.001
sI10
F0.001
sI11
F0.001
sI12
F0.001
sI13
F0.001
sI14
F0.001
ssg84
(dp210
I0
F0.5505461343090992
sI1
Fnan
sI2
Fnan
sI3
Fnan
sI4
Fnan
sI5
Fnan
sI6
Fnan
sI7
Fnan
sI8
Fnan
sI9
Fnan
sI10
Fnan
sI11
Fnan
sI12
Fnan
sI13
Fnan
sI14
Fnan
ssg86
(dp211
I0
F10.7632
sI1
Fnan
sI2
Fnan
sI3
Fnan
sI4
Fnan
sI5
Fnan
sI6
Fnan
sI7
Fnan
sI8
Fnan
sI9
Fnan
sI10
Fnan
sI11
Fnan
sI12
Fnan
sI13
Fnan
sI14
Fnan
ssg88
(dp212
I0
F10.58
sI1
F10.589
sI2
F10.584
sI3
F10.586
sI4
F10.586
sI5
F10.6
sI6
F10.59
sI7
F10.597
sI8
F10.605
sI9
F10.585
sI10
F10.608
sI11
F10.588
sI12
F10.588
sI13
F10.589
sI14
F10.581
ssg90
(dp213
I0
F3.177299
sI1
F4.373731
sI2
F-2.602947
sI3
F3.519247
sI4
F4.307229
sI5
F4.950093
sI6
F-3.355876
sI7
F-3.324882
sI8
F-3.843406
sI9
F3.589383
sI10
F3.711933
sI11
F3.011735
sI12
F5.222369
sI13
F1.851356
sI14
F4.338708
ssg92
(dp214
I0
F0.009019555474211422
sI1
Fnan
sI2
Fnan
sI3
Fnan
sI4
Fnan
sI5
Fnan
sI6
Fnan
sI7
Fnan
sI8
Fnan
sI9
Fnan
sI10
Fnan
sI11
Fnan
sI12
Fnan
sI13
Fnan
sI14
Fnan
ssg94
(dp215
I0
F0.7162948580222167
sI1
F0.7166494465551443
sI2
F0.7162258843439531
sI3
F0.7159995267443402
sI4
F0.7149692632382288
sI5
F0.717184322291266
sI6
F0.7140879988043239
sI7
F0.7165807191029799
sI8
F0.7162890949741059
sI9
F0.7144046517863063
sI10
F0.7177023736070601
sI11
F0.7181827867850327
sI12
F0.7157308909609551
sI13
F0.7112142265954479
sI14
F0.7137162697361437
ssg96
(dp216
I0
F30.0
sI1
F30.0
sI2
F30.0
sI3
F30.0
sI4
F30.0
sI5
F30.0
sI6
F30.0
sI7
F30.0
sI8
F30.0
sI9
F30.0
sI10
F30.0
sI11
F30.0
sI12
F30.0
sI13
F30.0
sI14
F30.0
ssg98
(dp217
I0
F0.002
sI1
F0.002
sI2
F0.002
sI3
F0.002
sI4
F0.002
sI5
F0.002
sI6
F0.002
sI7
F0.002
sI8
F0.002
sI9
F0.002
sI10
F0.002
sI11
F0.002
sI12
F0.002
sI13
F0.002
sI14
F0.002
ssg100
(dp218
I0
F0.002
sI1
F0.002
sI2
F0.002
sI3
F0.002
sI4
F0.002
sI5
F0.002
sI6
F0.002
sI7
F0.002
sI8
F0.002
sI9
F0.002
sI10
F0.002
sI11
F0.002
sI12
F0.002
sI13
F0.002
sI14
F0.002
ssg102
(dp219
I0
F2.947819
sI1
F4.710816
sI2
F4.265637
sI3
F3.87073
sI4
F4.41025
sI5
F4.513168
sI6
F4.49122
sI7
F0.6021286
sI8
F3.709175
sI9
F4.843043
sI10
F1.674598
sI11
F2.752783
sI12
F5.356546
sI13
F2.736202
sI14
F4.121055
ssg104
(dp220
I0
S"KIC8462852-20180829at050232_-25-1X1-030-r'_cal.fts.mag.1"
p221
sI1
S"KIC8462852-20180829at043430_-25-1X1-030-r'_cal.fts.mag.1"
p222
sI2
S"KIC8462852-20180829at053038_-25-1X1-030-r'_cal.fts.mag.1"
p223
sI3
S"KIC8462852-20180829at050025_-25-1X1-030-r'_cal.fts.mag.1"
p224
sI4
S"KIC8462852-20180829at052935_-25-1X1-030-r'_cal.fts.mag.1"
p225
sI5
S"KIC8462852-20180829at052623_-25-1X1-030-r'_cal.fts.mag.1"
p226
sI6
S"KIC8462852-20180829at043327_-25-1X1-030-r'_cal.fts.mag.1"
p227
sI7
S"KIC8462852-20180829at045921_-25-1X1-030-r'_cal.fts.mag.1"
p228
sI8
S"KIC8462852-20180829at052728_-25-1X1-030-r'_cal.fts.mag.1"
p229
sI9
S"KIC8462852-20180829at043221_-25-1X1-030-r'_cal.fts.mag.1"
p230
sI10
S"KIC8462852-20180829at052832_-25-1X1-030-r'_cal.fts.mag.1"
p231
sI11
S"KIC8462852-20180829at050129_-25-1X1-030-r'_cal.fts.mag.1"
p232
sI12
S"KIC8462852-20180829at050335_-25-1X1-030-r'_cal.fts.mag.1"
p233
sI13
S"KIC8462852-20180829at043534_-25-1X1-030-r'_cal.fts.mag.1"
p234
sI14
S"KIC8462852-20180829at043638_-25-1X1-030-r'_cal.fts.mag.1"
p235
ssg121
(dp236
I0
F0.0036558428219703974
sI1
Fnan
sI2
Fnan
sI3
Fnan
sI4
Fnan
sI5
Fnan
sI6
Fnan
sI7
Fnan
sI8
Fnan
sI9
Fnan
sI10
Fnan
sI11
Fnan
sI12
Fnan
sI13
Fnan
sI14
Fnan
ssg123
(dp237
I0
F8730.496666666666
sI1
F8661.363333333333
sI2
F8728.58
sI3
F8691.086666666666
sI4
F8690.359999999999
sI5
F8575.023333333334
sI6
F8744.946666666667
sI7
F8600.676666666666
sI8
F8493.176666666666
sI9
F8675.91
sI10
F8514.513333333332
sI11
F8713.15
sI12
F8645.353333333334
sI13
F8687.363333333333
sI14
F8764.076666666666
ssg125
(dp238
I0
F0.008055166930965035
sI1
Fnan
sI2
Fnan
sI3
Fnan
sI4
Fnan
sI5
Fnan
sI6
Fnan
sI7
Fnan
sI8
Fnan
sI9
Fnan
sI10
Fnan
sI11
Fnan
sI12
Fnan
sI13
Fnan
sI14
Fnan
ssg127
(dp239
I0
S"r'"
p240
sI1
S"r'"
p241
sI2
S"r'"
p242
sI3
S"r'"
p243
sI4
S"r'"
p244
sI5
S"r'"
p245
sI6
S"r'"
p246
sI7
S"r'"
p247
sI8
S"r'"
p248
sI9
S"r'"
p249
sI10
S"r'"
p250
sI11
S"r'"
p251
sI12
S"r'"
p252
sI13
S"r'"
p253
sI14
S"r'"
p254
ssg144
(dp255
I0
F0.0019464495244805782
sI1
Fnan
sI2
Fnan
sI3
Fnan
sI4
Fnan
sI5
Fnan
sI6
Fnan
sI7
Fnan
sI8
Fnan
sI9
Fnan
sI10
Fnan
sI11
Fnan
sI12
Fnan
sI13
Fnan
sI14
Fnan
ssg146
(dp256
I0
F4.570583
sI1
F2.94705
sI2
F3.788011
sI3
F4.42908
sI4
F5.919724
sI5
F5.008121
sI6
F-3.109538
sI7
F2.028443
sI8
F-4.092746
sI9
F4.221498
sI10
F3.685046
sI11
F4.452949
sI12
F-4.27735
sI13
F3.384172
sI14
F-3.187022
ssg148
(dp257
I0
F1.493073106723172
sI1
Fnan
sI2
Fnan
sI3
Fnan
sI4
Fnan
sI5
Fnan
sI6
Fnan
sI7
Fnan
sI8
Fnan
sI9
Fnan
sI10
Fnan
sI11
Fnan
sI12
Fnan
sI13
Fnan
sI14
Fnan
ssg150
(dp258
I0
F2458359.709363426
sI1
Fnan
sI2
Fnan
sI3
Fnan
sI4
Fnan
sI5
Fnan
sI6
Fnan
sI7
Fnan
sI8
Fnan
sI9
Fnan
sI10
Fnan
sI11
Fnan
sI12
Fnan
sI13
Fnan
sI14
Fnan
ssg152
(dp259
I0
F0.0019464495244805782
sI1
Fnan
sI2
Fnan
sI3
Fnan
sI4
Fnan
sI5
Fnan
sI6
Fnan
sI7
Fnan
sI8
Fnan
sI9
Fnan
sI10
Fnan
sI11
Fnan
sI12
Fnan
sI13
Fnan
sI14
Fnan
ssg154
(dp260
I0
F40.05655
sI1
F34.73133
sI2
F41.51989
sI3
F39.82853
sI4
F40.38734
sI5
F41.09854
sI6
F34.47675
sI7
F39.7951
sI8
F43.03575
sI9
F34.4698
sI10
F43.16614
sI11
F39.76199
sI12
F40.4902
sI13
F35.52728
sI14
F34.60559
ssg156
(dp261
I0
F10.23
sI1
F10.233
sI2
F10.231
sI3
F10.233
sI4
F10.235
sI5
F10.25
sI6
F10.235
sI7
F10.245
sI8
F10.256
sI9
F10.238
sI10
F10.254
sI11
F10.238
sI12
F10.233
sI13
F10.234
sI14
F10.226
ssg158
(dp262
I0
F0.5505461343090992
sI1
Fnan
sI2
Fnan
sI3
Fnan
sI4
Fnan
sI5
Fnan
sI6
Fnan
sI7
Fnan
sI8
Fnan
sI9
Fnan
sI10
Fnan
sI11
Fnan
sI12
Fnan
sI13
Fnan
sI14
Fnan
sssS'z'
p263
(dp264
g3
(dp265
I0
F0.37129158200838697
sI1
Fnan
sI2
Fnan
sI3
Fnan
sI4
Fnan
sI5
Fnan
sI6
Fnan
sI7
Fnan
sI8
Fnan
sI9
Fnan
sI10
Fnan
sI11
Fnan
sI12
Fnan
sI13
Fnan
ssg5
(dp266
I0
S'NoError'
p267
sI1
S'NoError'
p268
sI2
S'NoError'
p269
sI3
S'NoError'
p270
sI4
S'NoError'
p271
sI5
S'NoError'
p272
sI6
S'NoError'
p273
sI7
S'NoError'
p274
sI8
S'NoError'
p275
sI9
S'NoError'
p276
sI10
S'NoError'
p277
sI11
S'NoError'
p278
sI12
S'NoError'
p279
sI13
S'NoError'
p280
ssg22
(dp281
I0
F0.007
sI1
F0.007
sI2
F0.007
sI3
F0.007
sI4
F0.007
sI5
F0.007
sI6
F0.007
sI7
F0.007
sI8
F0.007
sI9
F0.007
sI10
F0.007
sI11
F0.007
sI12
F0.007
sI13
F0.007
ssg24
(dp282
I0
F0.9140154172469317
sI1
F0.9163659742624871
sI2
F0.9167617757568665
sI3
F0.9202825045813271
sI4
F0.9124922916207715
sI5
F0.9233478639256181
sI6
F0.9138265335153869
sI7
F0.9214193929062213
sI8
F0.9147783924699211
sI9
F0.9173897669548633
sI10
F0.9172460565459624
sI11
F0.9197320552717803
sI12
F0.914720743179031
sI13
F0.9092908940807171
ssg26
(dp283
I0
F0.0037696472861468806
sI1
Fnan
sI2
Fnan
sI3
Fnan
sI4
Fnan
sI5
Fnan
sI6
Fnan
sI7
Fnan
sI8
Fnan
sI9
Fnan
sI10
Fnan
sI11
Fnan
sI12
Fnan
sI13
Fnan
ssg28
(dp284
I0
F0.9165478330227061
sI1
Fnan
sI2
Fnan
sI3
Fnan
sI4
Fnan
sI5
Fnan
sI6
Fnan
sI7
Fnan
sI8
Fnan
sI9
Fnan
sI10
Fnan
sI11
Fnan
sI12
Fnan
sI13
Fnan
ssg30
(dp285
I0
F13.243
sI1
F13.254
sI2
F13.271
sI3
F13.215
sI4
F13.241
sI5
F13.248
sI6
F13.234
sI7
F13.237
sI8
F13.261
sI9
F13.24
sI10
F13.26
sI11
F13.247
sI12
F13.24
sI13
F13.22
ssg32
(dp286
I0
F7.896378
sI1
F8.713761
sI2
F8.407987
sI3
F7.379754
sI4
F8.123428
sI5
F8.429382
sI6
F9.023834
sI7
F8.962063
sI8
F8.739114
sI9
F9.197227
sI10
F8.675843
sI11
F8.196527
sI12
F8.90546
sI13
F8.040897
ssg34
(dp287
I0
F2458359.7347800927
sI1
F2458359.736261574
sI2
F2458359.7175
sI3
F2458359.6965277777
sI4
F2458359.69875
sI5
F2458359.698009259
sI6
F2458359.7160300924
sI7
F2458359.715277778
sI8
F2458359.699479167
sI9
F2458359.734050926
sI10
F2458359.735532407
sI11
F2458359.7167592593
sI12
F2458359.6972685186
sI13
F2458359.737002315
ssg36
(dp288
I0
F0.4278168357142858
sI1
Fnan
sI2
Fnan
sI3
Fnan
sI4
Fnan
sI5
Fnan
sI6
Fnan
sI7
Fnan
sI8
Fnan
sI9
Fnan
sI10
Fnan
sI11
Fnan
sI12
Fnan
sI13
Fnan
ssg38
(dp289
I0
F0.6355244999999999
sI1
Fnan
sI2
Fnan
sI3
Fnan
sI4
Fnan
sI5
Fnan
sI6
Fnan
sI7
Fnan
sI8
Fnan
sI9
Fnan
sI10
Fnan
sI11
Fnan
sI12
Fnan
sI13
Fnan
ssg40
(dp290
I0
F0.37427306489281886
sI1
F0.36955649159666687
sI2
F0.3724814710613479
sI3
F0.3775370102780443
sI4
F0.37052852403262904
sI5
F0.37512463107400335
sI6
F0.3720403961463281
sI7
F0.36795524620007325
sI8
F0.3697812855786123
sI9
F0.3719356181391849
sI10
F0.3685848898829595
sI11
F0.37011884212691876
sI12
F0.368318269594201
sI13
F0.3760918357832864
ssg42
(dp291
I0
F0.002535324265240977
sI1
Fnan
sI2
Fnan
sI3
Fnan
sI4
Fnan
sI5
Fnan
sI6
Fnan
sI7
Fnan
sI8
Fnan
sI9
Fnan
sI10
Fnan
sI11
Fnan
sI12
Fnan
sI13
Fnan
ssg44
(dp292
I0
F1.2324627428571429
sI1
Fnan
sI2
Fnan
sI3
Fnan
sI4
Fnan
sI5
Fnan
sI6
Fnan
sI7
Fnan
sI8
Fnan
sI9
Fnan
sI10
Fnan
sI11
Fnan
sI12
Fnan
sI13
Fnan
ssg46
(dp293
I0
g267
sI1
g268
sI2
g269
sI3
g270
sI4
g271
sI5
g272
sI6
g273
sI7
g274
sI8
g275
sI9
g276
sI10
g277
sI11
g278
sI12
g279
sI13
g280
ssg48
(dp294
I0
F0.0026147331724867126
sI1
Fnan
sI2
Fnan
sI3
Fnan
sI4
Fnan
sI5
Fnan
sI6
Fnan
sI7
Fnan
sI8
Fnan
sI9
Fnan
sI10
Fnan
sI11
Fnan
sI12
Fnan
sI13
Fnan
ssg50
(dp295
I0
F0.013168602352265425
sI1
Fnan
sI2
Fnan
sI3
Fnan
sI4
Fnan
sI5
Fnan
sI6
Fnan
sI7
Fnan
sI8
Fnan
sI9
Fnan
sI10
Fnan
sI11
Fnan
sI12
Fnan
sI13
Fnan
ssg52
(dp296
I0
F1.7203340857142855
sI1
Fnan
sI2
Fnan
sI3
Fnan
sI4
Fnan
sI5
Fnan
sI6
Fnan
sI7
Fnan
sI8
Fnan
sI9
Fnan
sI10
Fnan
sI11
Fnan
sI12
Fnan
sI13
Fnan
ssg54
(dp297
I0
F1.5036229341844554
sI1
F1.503647631255158
sI2
F1.506681824906113
sI3
F1.4957904993506086
sI4
F1.499886910760782
sI5
F1.4981307062897373
sI6
F1.5040697327671033
sI7
F1.494312126741811
sI8
F1.5122975517116526
sI9
F1.4964102906385113
sI10
F1.4999829108483371
sI11
F1.4985085122648474
sI12
F1.4999984499571488
sI13
F1.50780796717565
ssg56
(dp298
I0
g267
sI1
g268
sI2
g269
sI3
g270
sI4
g271
sI5
g272
sI6
g273
sI7
g274
sI8
g275
sI9
g276
sI10
g277
sI11
g278
sI12
g279
sI13
g280
ssg58
(dp299
I0
F9.363657
sI1
F9.471292
sI2
F9.778028
sI3
F8.408607
sI4
F9.716526
sI5
F8.579768
sI6
F9.51657
sI7
F8.438745
sI8
F9.334947
sI9
F8.138353
sI10
F9.653283
sI11
F8.445397
sI12
F9.018661
sI13
F9.643852
ssg60
(dp300
I0
F11.895857142857142
sI1
Fnan
sI2
Fnan
sI3
Fnan
sI4
Fnan
sI5
Fnan
sI6
Fnan
sI7
Fnan
sI8
Fnan
sI9
Fnan
sI10
Fnan
sI11
Fnan
sI12
Fnan
sI13
Fnan
ssg62
(dp301
I0
F0.6915260045462462
sI1
Fnan
sI2
Fnan
sI3
Fnan
sI4
Fnan
sI5
Fnan
sI6
Fnan
sI7
Fnan
sI8
Fnan
sI9
Fnan
sI10
Fnan
sI11
Fnan
sI12
Fnan
sI13
Fnan
ssg64
(dp302
I0
F-3.589958
sI1
F-1.92691
sI2
F4.188408
sI3
F-2.756444
sI4
F-2.490109
sI5
F1.747679
sI6
F2.649323
sI7
F2.702308
sI8
F-3.581053
sI9
F3.894246
sI10
F3.300435
sI11
F3.000752
sI12
F-1.921995
sI13
F3.680661
ssg66
(dp303
I0
F12.233214285714284
sI1
Fnan
sI2
Fnan
sI3
Fnan
sI4
Fnan
sI5
Fnan
sI6
Fnan
sI7
Fnan
sI8
Fnan
sI9
Fnan
sI10
Fnan
sI11
Fnan
sI12
Fnan
sI13
Fnan
ssg68
(dp304
I0
g267
sI1
g268
sI2
g269
sI3
g270
sI4
g271
sI5
g272
sI6
g273
sI7
g274
sI8
g275
sI9
g276
sI10
g277
sI11
g278
sI12
g279
sI13
g280
ssg70
(dp305
I0
F3184.6853333333333
sI1
F3198.8796666666667
sI2
F3125.463666666667
sI3
F3256.7156666666665
sI4
F3219.105666666667
sI5
F3184.6683333333335
sI6
F3230.691
sI7
F3277.8086666666663
sI8
F3172.737333333333
sI9
F3223.141
sI10
F3192.963333333333
sI11
F3223.113
sI12
F3247.859
sI13
F3225.8826666666664
ssg72
(dp306
I0
F1.007865
sI1
F1.008448
sI2
F1.004638
sI3
F1.009639
sI4
F1.008648
sI5
F1.008965
sI6
F1.0046700000000002
sI7
F1.004704
sI8
F1.00834
sI9
F1.00759
sI10
F1.008149
sI11
F1.004648
sI12
F1.009295
sI13
F1.008757
ssg74
(dp307
I0
F2611.1693333333333
sI1
F2612.5173333333337
sI2
F2545.966
sI3
F2655.7433333333333
sI4
F2652.3636666666666
sI5
F2579.9866666666667
sI6
F2648.974333333333
sI7
F2670.4309999999996
sI8
F2583.815
sI9
F2639.961333333333
sI10
F2609.938333333333
sI11
F2626.192
sI12
F2665.9559999999997
sI13
F2658.8543333333337
ssg76
(dp308
I0
F4357.39
sI1
F4369.1466666666665
sI2
F4272.52
sI3
F4421.9
sI4
F4403.27
sI5
F4318.1033333333335
sI6
F4421.713333333333
sI7
F4444.263333333333
sI8
F4352.81
sI9
F4386.803333333333
sI10
F4352.126666666667
sI11
F4382.616666666667
sI12
F4435.3566666666675
sI13
F4436.526666666667
ssg78
(dp309
I0
F9.349575
sI1
F8.851851
sI2
F9.199494
sI3
F8.220015
sI4
F8.805318
sI5
F9.321529
sI6
F8.7061
sI7
F9.194296
sI8
F9.510763
sI9
F9.162666
sI10
F9.378497
sI11
F8.160406
sI12
F8.611992
sI13
F8.717864
ssg80
(dp310
I0
F12.458
sI1
F12.457
sI2
F12.485
sI3
F12.44
sI4
F12.441
sI5
F12.471
sI6
F12.442
sI7
F12.434
sI8
F12.469
sI9
F12.446
sI10
F12.458
sI11
F12.452
sI12
F12.435
sI13
F12.438
ssg82
(dp311
I0
F0.003
sI1
F0.003
sI2
F0.003
sI3
F0.003
sI4
F0.003
sI5
F0.003
sI6
F0.003
sI7
F0.003
sI8
F0.003
sI9
F0.003
sI10
F0.003
sI11
F0.003
sI12
F0.003
sI13
F0.003
ssg84
(dp312
I0
F0.3717376840276482
sI1
Fnan
sI2
Fnan
sI3
Fnan
sI4
Fnan
sI5
Fnan
sI6
Fnan
sI7
Fnan
sI8
Fnan
sI9
Fnan
sI10
Fnan
sI11
Fnan
sI12
Fnan
sI13
Fnan
ssg86
(dp313
I0
F12.45185714285714
sI1
Fnan
sI2
Fnan
sI3
Fnan
sI4
Fnan
sI5
Fnan
sI6
Fnan
sI7
Fnan
sI8
Fnan
sI9
Fnan
sI10
Fnan
sI11
Fnan
sI12
Fnan
sI13
Fnan
ssg88
(dp314
I0
F12.242
sI1
F12.238
sI2
F12.263
sI3
F12.218
sI4
F12.231
sI5
F12.242
sI6
F12.227
sI7
F12.211
sI8
F12.246
sI9
F12.229
sI10
F12.24
sI11
F12.229
sI12
F12.221
sI13
F12.228
ssg90
(dp315
I0
F-0.7444713
sI1
F2.473788
sI2
F3.949823
sI3
F-2.541204
sI4
F3.529275
sI5
F3.31519
sI6
F-2.762712
sI7
F2.83791
sI8
F3.423062
sI9
F-4.228314
sI10
F2.841594
sI11
F-1.722465
sI12
F-2.846998
sI13
F-1.535042
ssg92
(dp316
I0
F0.012227693303174149
sI1
Fnan
sI2
Fnan
sI3
Fnan
sI4
Fnan
sI5
Fnan
sI6
Fnan
sI7
Fnan
sI8
Fnan
sI9
Fnan
sI10
Fnan
sI11
Fnan
sI12
Fnan
sI13
Fnan
ssg94
(dp317
I0
F0.6924272744380789
sI1
F0.6904091551126122
sI2
F0.6882864614777242
sI3
F0.6917245109328951
sI4
F0.6959414709158698
sI5
F0.6877422854620614
sI6
F0.6923247172903784
sI7
F0.6916358718230028
sI8
F0.6866782934326549
sI9
F0.6938188290733445
sI10
F0.6918243078169599
sI11
F0.6905825253058122
sI12
F0.6939688056827941
sI13
F0.6939995548832596
ssg96
(dp318
I0
F30.0
sI1
F30.0
sI2
F30.0
sI3
F30.0
sI4
F30.0
sI5
F30.0
sI6
F30.0
sI7
F30.0
sI8
F30.0
sI9
F30.0
sI10
F30.0
sI11
F30.0
sI12
F30.0
sI13
F30.0
ssg98
(dp319
I0
F0.004
sI1
F0.004
sI2
F0.004
sI3
F0.004
sI4
F0.004
sI5
F0.004
sI6
F0.004
sI7
F0.004
sI8
F0.004
sI9
F0.004
sI10
F0.004
sI11
F0.004
sI12
F0.004
sI13
F0.004
ssg100
(dp320
I0
F0.004
sI1
F0.004
sI2
F0.004
sI3
F0.004
sI4
F0.004
sI5
F0.004
sI6
F0.004
sI7
F0.004
sI8
F0.004
sI9
F0.004
sI10
F0.004
sI11
F0.004
sI12
F0.004
sI13
F0.004
ssg102
(dp321
I0
F2.944574
sI1
F3.599929
sI2
F-2.792377
sI3
F2.664244
sI4
F0.6455082
sI5
F3.143754
sI6
F-2.033856
sI7
F3.451479
sI8
F-2.305563
sI9
F3.713492
sI10
F2.69737
sI11
F2.193604
sI12
F2.79971
sI13
F3.362809
ssg104
(dp322
I0
S"KIC8462852-20180829at053805_-25-1X1-030-z'_cal.fts.mag.1"
p323
sI1
S"KIC8462852-20180829at054013_-25-1X1-030-z'_cal.fts.mag.1"
p324
sI2
S"KIC8462852-20180829at051312_-25-1X1-030-z'_cal.fts.mag.1"
p325
sI3
S"KIC8462852-20180829at044259_-25-1X1-030-z'_cal.fts.mag.1"
p326
sI4
S"KIC8462852-20180829at044612_-25-1X1-030-z'_cal.fts.mag.1"
p327
sI5
S"KIC8462852-20180829at044508_-25-1X1-030-z'_cal.fts.mag.1"
p328
sI6
S"KIC8462852-20180829at051105_-25-1X1-030-z'_cal.fts.mag.1"
p329
sI7
S"KIC8462852-20180829at050958_-25-1X1-030-z'_cal.fts.mag.1"
p330
sI8
S"KIC8462852-20180829at044715_-25-1X1-030-z'_cal.fts.mag.1"
p331
sI9
S"KIC8462852-20180829at053700_-25-1X1-030-z'_cal.fts.mag.1"
p332
sI10
S"KIC8462852-20180829at053909_-25-1X1-030-z'_cal.fts.mag.1"
p333
sI11
S"KIC8462852-20180829at051208_-25-1X1-030-z'_cal.fts.mag.1"
p334
sI12
S"KIC8462852-20180829at044404_-25-1X1-030-z'_cal.fts.mag.1"
p335
sI13
S"KIC8462852-20180829at054117_-25-1X1-030-z'_cal.fts.mag.1"
p336
ssg121
(dp337
I0
F0.005088285804610273
sI1
Fnan
sI2
Fnan
sI3
Fnan
sI4
Fnan
sI5
Fnan
sI6
Fnan
sI7
Fnan
sI8
Fnan
sI9
Fnan
sI10
Fnan
sI11
Fnan
sI12
Fnan
sI13
Fnan
ssg123
(dp338
I0
F1266.6953333333333
sI1
F1254.0953333333334
sI2
F1234.6456666666668
sI3
F1300.5343333333333
sI4
F1269.0279999999998
sI5
F1260.7636666666667
sI6
F1277.5096666666666
sI7
F1274.6586666666667
sI8
F1246.0843333333332
sI9
F1270.7683333333334
sI10
F1247.6633333333334
sI11
F1262.3423333333333
sI12
F1270.5963333333334
sI13
F1293.9143333333334
ssg125
(dp339
I0
F0.015306394555404291
sI1
Fnan
sI2
Fnan
sI3
Fnan
sI4
Fnan
sI5
Fnan
sI6
Fnan
sI7
Fnan
sI8
Fnan
sI9
Fnan
sI10
Fnan
sI11
Fnan
sI12
Fnan
sI13
Fnan
ssg127
(dp340
I0
S"z'"
p341
sI1
S"z'"
p342
sI2
S"z'"
p343
sI3
S"z'"
p344
sI4
S"z'"
p345
sI5
S"z'"
p346
sI6
S"z'"
p347
sI7
S"z'"
p348
sI8
S"z'"
p349
sI9
S"z'"
p350
sI10
S"z'"
p351
sI11
S"z'"
p352
sI12
S"z'"
p353
sI13
S"z'"
p354
ssg144
(dp355
I0
F0.0030354517443314916
sI1
Fnan
sI2
Fnan
sI3
Fnan
sI4
Fnan
sI5
Fnan
sI6
Fnan
sI7
Fnan
sI8
Fnan
sI9
Fnan
sI10
Fnan
sI11
Fnan
sI12
Fnan
sI13
Fnan
ssg146
(dp356
I0
F3.956808
sI1
F2.621032
sI2
F3.425735
sI3
F2.385221
sI4
F2.972715
sI5
F2.55863
sI6
F-2.44418
sI7
F-0.8295778
sI8
F1.64798
sI9
F2.545073
sI10
F-2.398002
sI11
F-2.39599
sI12
F4.048859
sI13
F-0.8398248
ssg148
(dp357
I0
F1.5015105749179942
sI1
Fnan
sI2
Fnan
sI3
Fnan
sI4
Fnan
sI5
Fnan
sI6
Fnan
sI7
Fnan
sI8
Fnan
sI9
Fnan
sI10
Fnan
sI11
Fnan
sI12
Fnan
sI13
Fnan
ssg150
(dp358
I0
F2458359.716394676
sI1
Fnan
sI2
Fnan
sI3
Fnan
sI4
Fnan
sI5
Fnan
sI6
Fnan
sI7
Fnan
sI8
Fnan
sI9
Fnan
sI10
Fnan
sI11
Fnan
sI12
Fnan
sI13
Fnan
ssg152
(dp359
I0
F0.0030354517443314916
sI1
Fnan
sI2
Fnan
sI3
Fnan
sI4
Fnan
sI5
Fnan
sI6
Fnan
sI7
Fnan
sI8
Fnan
sI9
Fnan
sI10
Fnan
sI11
Fnan
sI12
Fnan
sI13
Fnan
ssg154
(dp360
I0
F10.43252
sI1
F9.768112
sI2
F10.42157
sI3
F9.731374
sI4
F9.908953
sI5
F9.394581
sI6
F10.57868
sI7
F9.947296
sI8
F9.077218
sI9
F10.75242
sI10
F9.789835
sI11
F10.3503
sI12
F10.08172
sI13
F10.01601
ssg156
(dp361
I0
F11.902
sI1
F11.899
sI2
F11.923
sI3
F11.886
sI4
F11.891
sI5
F11.912
sI6
F11.886
sI7
F11.881
sI8
F11.903
sI9
F11.895
sI10
F11.903
sI11
F11.896
sI12
F11.883
sI13
F11.882
ssg158
(dp362
I0
F0.3717376840276482
sI1
Fnan
sI2
Fnan
sI3
Fnan
sI4
Fnan
sI5
Fnan
sI6
Fnan
sI7
Fnan
sI8
Fnan
sI9
Fnan
sI10
Fnan
sI11
Fnan
sI12
Fnan
sI13
Fnan
sssS'g'
p363
(dp364
g3
(dp365
I0
F0.8674576815978761
sI1
Fnan
sI2
Fnan
sI3
Fnan
sI4
Fnan
sI5
Fnan
sI6
Fnan
sI7
Fnan
sI8
Fnan
sI9
Fnan
sI10
Fnan
sI11
Fnan
sI12
Fnan
sI13
Fnan
sI14
Fnan
ssg5
(dp366
I0
S'NoError'
p367
sI1
S'NoError'
p368
sI2
S'NoError'
p369
sI3
S'NoError'
p370
sI4
S'NoError'
p371
sI5
S'NoError'
p372
sI6
S'NoError'
p373
sI7
S'NoError'
p374
sI8
S'NoError'
p375
sI9
S'NoError'
p376
sI10
S'NoError'
p377
sI11
S'NoError'
p378
sI12
S'NoError'
p379
sI13
S'NoError'
p380
sI14
S'NoError'
p381
ssg22
(dp382
I0
F0.002
sI1
F0.002
sI2
F0.002
sI3
F0.002
sI4
F0.002
sI5
F0.002
sI6
F0.002
sI7
F0.002
sI8
F0.002
sI9
F0.002
sI10
F0.002
sI11
F0.002
sI12
F0.002
sI13
F0.002
sI14
F0.002
ssg24
(dp383
I0
F0.8815520875334845
sI1
F0.87742542124373
sI2
F0.8774614015585899
sI3
F0.8736896592562876
sI4
F0.8836410924296457
sI5
F0.8794596959117772
sI6
F0.8799974370089578
sI7
F0.8819554427646215
sI8
F0.8752620679516918
sI9
F0.8815748974785189
sI10
F0.8833719958879255
sI11
F0.8810618810455338
sI12
F0.8760224501091486
sI13
F0.8765330718370408
sI14
F0.8823669268761967
ssg26
(dp384
I0
F0.003146266259374277
sI1
Fnan
sI2
Fnan
sI3
Fnan
sI4
Fnan
sI5
Fnan
sI6
Fnan
sI7
Fnan
sI8
Fnan
sI9
Fnan
sI10
Fnan
sI11
Fnan
sI12
Fnan
sI13
Fnan
sI14
Fnan
ssg28
(dp385
I0
F0.8794250352595434
sI1
Fnan
sI2
Fnan
sI3
Fnan
sI4
Fnan
sI5
Fnan
sI6
Fnan
sI7
Fnan
sI8
Fnan
sI9
Fnan
sI10
Fnan
sI11
Fnan
sI12
Fnan
sI13
Fnan
sI14
Fnan
ssg30
(dp386
I0
F11.385
sI1
F11.374
sI2
F11.372
sI3
F11.372
sI4
F11.375
sI5
F11.394
sI6
F11.383
sI7
F11.38
sI8
F11.383
sI9
F11.381
sI10
F11.381
sI11
F11.364
sI12
F11.397
sI13
F11.372
sI14
F11.368
ssg32
(dp387
I0
F37.68017
sI1
F41.61513
sI2
F31.88533
sI3
F31.96444
sI4
F31.97219
sI5
F39.19336
sI6
F36.82528
sI7
F31.0305
sI8
F38.1812
sI9
F40.97017
sI10
F42.32442
sI11
F40.54041
sI12
F42.25682
sI13
F32.31261
sI14
F36.56013
ssg34
(dp388
I0
F2458359.706388889
sI1
F2458359.7236805554
sI2
F2458359.6883912035
sI3
F2458359.685451389
sI4
F2458359.687662037
sI5
F2458359.7056597224
sI6
F2458359.7049189815
sI7
F2458359.6861921297
sI8
F2458359.707141204
sI9
F2458359.7244328703
sI10
F2458359.725162037
sI11
F2458359.7259143516
sI12
F2458359.722951389
sI13
F2458359.686921296
sI14
F2458359.7041782406
ssg36
(dp389
I0
F2.7655372000000003
sI1
Fnan
sI2
Fnan
sI3
Fnan
sI4
Fnan
sI5
Fnan
sI6
Fnan
sI7
Fnan
sI8
Fnan
sI9
Fnan
sI10
Fnan
sI11
Fnan
sI12
Fnan
sI13
Fnan
sI14
Fnan
ssg38
(dp390
I0
F1.6120360133333334
sI1
Fnan
sI2
Fnan
sI3
Fnan
sI4
Fnan
sI5
Fnan
sI6
Fnan
sI7
Fnan
sI8
Fnan
sI9
Fnan
sI10
Fnan
sI11
Fnan
sI12
Fnan
sI13
Fnan
sI14
Fnan
ssg40
(dp391
I0
F0.8655343468294839
sI1
F0.8675594556124279
sI2
F0.8673205988642231
sI3
F0.8676649133753698
sI4
F0.8664946909275977
sI5
F0.8652016076861064
sI6
F0.8683433573861159
sI7
F0.8672894272406724
sI8
F0.8681133779502919
sI9
F0.8686050448144426
sI10
F0.8677831750702591
sI11
F0.8694490294337853
sI12
F0.8673530319932028
sI13
F0.8676954851862875
sI14
F0.8744219967040775
ssg42
(dp392
I0
F0.001085177973279739
sI1
Fnan
sI2
Fnan
sI3
Fnan
sI4
Fnan
sI5
Fnan
sI6
Fnan
sI7
Fnan
sI8
Fnan
sI9
Fnan
sI10
Fnan
sI11
Fnan
sI12
Fnan
sI13
Fnan
sI14
Fnan
ssg44
(dp393
I0
F1.0843995333333334
sI1
Fnan
sI2
Fnan
sI3
Fnan
sI4
Fnan
sI5
Fnan
sI6
Fnan
sI7
Fnan
sI8
Fnan
sI9
Fnan
sI10
Fnan
sI11
Fnan
sI12
Fnan
sI13
Fnan
sI14
Fnan
ssg46
(dp394
I0
g367
sI1
g368
sI2
g369
sI3
g370
sI4
g371
sI5
g372
sI6
g373
sI7
g374
sI8
g375
sI9
g376
sI10
g377
sI11
g378
sI12
g379
sI13
g380
sI14
g381
ssg48
(dp395
I0
F0.002791239711066172
sI1
Fnan
sI2
Fnan
sI3
Fnan
sI4
Fnan
sI5
Fnan
sI6
Fnan
sI7
Fnan
sI8
Fnan
sI9
Fnan
sI10
Fnan
sI11
Fnan
sI12
Fnan
sI13
Fnan
sI14
Fnan
ssg50
(dp396
I0
F0.00860121807542122
sI1
Fnan
sI2
Fnan
sI3
Fnan
sI4
Fnan
sI5
Fnan
sI6
Fnan
sI7
Fnan
sI8
Fnan
sI9
Fnan
sI10
Fnan
sI11
Fnan
sI12
Fnan
sI13
Fnan
sI14
Fnan
ssg52
(dp397
I0
F0.9221047333333332
sI1
Fnan
sI2
Fnan
sI3
Fnan
sI4
Fnan
sI5
Fnan
sI6
Fnan
sI7
Fnan
sI8
Fnan
sI9
Fnan
sI10
Fnan
sI11
Fnan
sI12
Fnan
sI13
Fnan
sI14
Fnan
ssg54
(dp398
I0
F1.5131367222520204
sI1
F1.5132035772657586
sI2
F1.5099736363803176
sI3
F1.5201296534766577
sI4
F1.5138698588832702
sI5
F1.516474585300872
sI6
F1.5113582277046524
sI7
F1.5103964042363691
sI8
F1.5195635302975004
sI9
F1.513386190165122
sI10
F1.5118149384057622
sI11
F1.5116634821912514
sI12
F1.5066079745748782
sI13
F1.5214172752243282
sI14
F1.50785457251574
ssg56
(dp399
I0
g367
sI1
g368
sI2
g369
sI3
g370
sI4
g371
sI5
g372
sI6
g373
sI7
g374
sI8
g375
sI9
g376
sI10
g377
sI11
g378
sI12
g379
sI13
g380
sI14
g381
ssg58
(dp400
I0
F38.10177
sI1
F41.40793
sI2
F32.05308
sI3
F29.63068
sI4
F30.60838
sI5
F38.32406
sI6
F37.80806
sI7
F28.92419
sI8
F39.34558
sI9
F42.13794
sI10
F40.45979
sI11
F41.89072
sI12
F42.62656
sI13
F30.27514
sI14
F37.31615
ssg60
(dp401
I0
F10.946733333333334
sI1
Fnan
sI2
Fnan
sI3
Fnan
sI4
Fnan
sI5
Fnan
sI6
Fnan
sI7
Fnan
sI8
Fnan
sI9
Fnan
sI10
Fnan
sI11
Fnan
sI12
Fnan
sI13
Fnan
sI14
Fnan
ssg62
(dp402
I0
F0.7167866614057419
sI1
Fnan
sI2
Fnan
sI3
Fnan
sI4
Fnan
sI5
Fnan
sI6
Fnan
sI7
Fnan
sI8
Fnan
sI9
Fnan
sI10
Fnan
sI11
Fnan
sI12
Fnan
sI13
Fnan
sI14
Fnan
ssg64
(dp403
I0
F-3.106023
sI1
F4.635974
sI2
F4.240588
sI3
F3.775272
sI4
F-3.271962
sI5
F3.338092
sI6
F4.559828
sI7
F-1.00383
sI8
F1.729226
sI9
F4.312084
sI10
F-0.8367188
sI11
F-3.473426
sI12
F3.968096
sI13
F2.132272
sI14
F3.181068
ssg66
(dp404
I0
F11.319866666666666
sI1
Fnan
sI2
Fnan
sI3
Fnan
sI4
Fnan
sI5
Fnan
sI6
Fnan
sI7
Fnan
sI8
Fnan
sI9
Fnan
sI10
Fnan
sI11
Fnan
sI12
Fnan
sI13
Fnan
sI14
Fnan
ssg68
(dp405
I0
g367
sI1
g368
sI2
g369
sI3
g370
sI4
g371
sI5
g372
sI6
g373
sI7
g374
sI8
g375
sI9
g376
sI10
g377
sI11
g378
sI12
g379
sI13
g380
sI14
g381
ssg70
(dp406
I0
F7440.743333333333
sI1
F7474.456666666667
sI2
F7485.8133333333335
sI3
F7463.1866666666665
sI4
F7514.196666666667
sI5
F7365.073333333334
sI6
F7416.3133333333335
sI7
F7460.27
sI8
F7392.85
sI9
F7437.3566666666675
sI10
F7458.6866666666665
sI11
F7545.566666666667
sI12
F7309.6466666666665
sI13
F7477.173333333334
sI14
F7484.283333333334
ssg72
(dp407
I0
F1.006063
sI1
F1.0050290000000002
sI2
F1.014243
sI3
F1.016282
sI4
F1.014736
sI5
F1.006257
sI6
F1.006461
sI7
F1.015757
sI8
F1.005882
sI9
F1.005133
sI10
F1.00525
sI11
F1.005378
sI12
F1.0049379999999999
sI13
F1.015234
sI14
F1.006675
ssg74
(dp408
I0
F6405.429999999999
sI1
F6479.59
sI2
F6501.8966666666665
sI3
F6483.733333333334
sI4
F6442.806666666667
sI5
F6349.89
sI6
F6408.320000000001
sI7
F6428.666666666667
sI8
F6407.573333333334
sI9
F6401.283333333334
sI10
F6406.246666666667
sI11
F6506.983333333334
sI12
F6377.6033333333335
sI13
F6459.240000000001
sI14
F6454.943333333333
ssg76
(dp409
I0
F10475.576666666666
sI1
F10557.656666666668
sI2
F10560.536666666665
sI3
F10600.563333333334
sI4
F10564.543333333333
sI5
F10399.196666666667
sI6
F10446.986666666666
sI7
F10488.9
sI8
F10485.31
sI9
F10471.603333333333
sI10
F10480.606666666667
sI11
F10621.363333333335
sI12
F10310.66
sI13
F10601.55
sI14
F10509.163333333334
ssg78
(dp410
I0
F37.67519
sI1
F40.81114
sI2
F30.18995
sI3
F28.63329
sI4
F31.60176
sI5
F37.28676
sI6
F36.74489
sI7
F29.63926
sI8
F39.4429
sI9
F41.0131
sI10
F41.73978
sI11
F41.56952
sI12
F41.77723
sI13
F30.67687
sI14
F37.64828
ssg80
(dp411
I0
F11.484
sI1
F11.471
sI2
F11.467
sI3
F11.47
sI4
F11.477
sI5
F11.493
sI6
F11.483
sI7
F11.48
sI8
F11.483
sI9
F11.484
sI10
F11.483
sI11
F11.467
sI12
F11.488
sI13
F11.475
sI14
F11.475
ssg82
(dp412
I0
F0.002
sI1
F0.002
sI2
F0.002
sI3
F0.002
sI4
F0.002
sI5
F0.002
sI6
F0.002
sI7
F0.002
sI8
F0.002
sI9
F0.002
sI10
F0.002
sI11
F0.002
sI12
F0.002
sI13
F0.002
sI14
F0.002
ssg84
(dp413
I0
F0.8679219692716228
sI1
Fnan
sI2
Fnan
sI3
Fnan
sI4
Fnan
sI5
Fnan
sI6
Fnan
sI7
Fnan
sI8
Fnan
sI9
Fnan
sI10
Fnan
sI11
Fnan
sI12
Fnan
sI13
Fnan
sI14
Fnan
ssg86
(dp414
I0
F11.478666666666665
sI1
Fnan
sI2
Fnan
sI3
Fnan
sI4
Fnan
sI5
Fnan
sI6
Fnan
sI7
Fnan
sI8
Fnan
sI9
Fnan
sI10
Fnan
sI11
Fnan
sI12
Fnan
sI13
Fnan
sI14
Fnan
ssg88
(dp415
I0
F11.321
sI1
F11.316
sI2
F11.314
sI3
F11.318
sI4
F11.31
sI5
F11.332
sI6
F11.325
sI7
F11.318
sI8
F11.328
sI9
F11.321
sI10
F11.318
sI11
F11.306
sI12
F11.34
sI13
F11.316
sI14
F11.315
ssg90
(dp416
I0
F4.892491
sI1
F6.514044
sI2
F-3.985141
sI3
F3.108651
sI4
F3.772012
sI5
F2.729326
sI6
F4.012598
sI7
F3.026997
sI8
F4.116574
sI9
F3.374179
sI10
F3.570396
sI11
F-2.448523
sI12
F1.972379
sI13
F3.7888
sI14
F3.038275
ssg92
(dp417
I0
F0.008655854060912203
sI1
Fnan
sI2
Fnan
sI3
Fnan
sI4
Fnan
sI5
Fnan
sI6
Fnan
sI7
Fnan
sI8
Fnan
sI9
Fnan
sI10
Fnan
sI11
Fnan
sI12
Fnan
sI13
Fnan
sI14
Fnan
ssg94
(dp418
I0
F0.7150385793511167
sI1
F0.7186722798621866
sI2
F0.7205774759623599
sI3
F0.7178723502410445
sI4
F0.7127495242109426
sI5
F0.7149058193778861
sI6
F0.7174844513611708
sI7
F0.7163191018489063
sI8
F0.7168045630348239
sI9
F0.7148693540365643
sI10
F0.714213937821408
sI11
F0.7163547537567804
sI12
F0.7238924332001788
sI13
F0.7145681562691466
sI14
F0.7174771407516143
ssg96
(dp419
I0
F30.0
sI1
F30.0
sI2
F30.0
sI3
F30.0
sI4
F30.0
sI5
F30.0
sI6
F30.0
sI7
F30.0
sI8
F30.0
sI9
F30.0
sI10
F30.0
sI11
F30.0
sI12
F30.0
sI13
F30.0
sI14
F30.0
ssg98
(dp420
I0
F0.002
sI1
F0.002
sI2
F0.002
sI3
F0.002
sI4
F0.002
sI5
F0.002
sI6
F0.002
sI7
F0.002
sI8
F0.002
sI9
F0.002
sI10
F0.002
sI11
F0.002
sI12
F0.002
sI13
F0.002
sI14
F0.002
ssg100
(dp421
I0
F0.002
sI1
F0.002
sI2
F0.002
sI3
F0.002
sI4
F0.002
sI5
F0.002
sI6
F0.002
sI7
F0.002
sI8
F0.002
sI9
F0.002
sI10
F0.002
sI11
F0.002
sI12
F0.002
sI13
F0.002
sI14
F0.002
ssg102
(dp422
I0
F2.126392
sI1
F3.165628
sI2
F-3.746679
sI3
F4.820302
sI4
F2.367447
sI5
F-2.696488
sI6
F3.995837
sI7
F4.881678
sI8
F-2.591284
sI9
F-4.497414
sI10
F6.14478
sI11
F2.233387
sI12
F-3.796735
sI13
F3.217689
sI14
F-1.792969
ssg104
(dp423
I0
S"KIC8462852-20180829at045712_-25-1X1-030-g'_cal.fts.mag.1"
p424
sI1
S"KIC8462852-20180829at052206_-25-1X1-030-g'_cal.fts.mag.1"
p425
sI2
S"KIC8462852-20180829at043117_-25-1X1-030-g'_cal.fts.mag.1"
p426
sI3
S"KIC8462852-20180829at042652_-25-1X1-030-g'_cal.fts.mag.1"
p427
sI4
S"KIC8462852-20180829at043014_-25-1X1-030-g'_cal.fts.mag.1"
p428
sI5
S"KIC8462852-20180829at045609_-25-1X1-030-g'_cal.fts.mag.1"
p429
sI6
S"KIC8462852-20180829at045505_-25-1X1-030-g'_cal.fts.mag.1"
p430
sI7
S"KIC8462852-20180829at042807_-25-1X1-030-g'_cal.fts.mag.1"
p431
sI8
S"KIC8462852-20180829at045817_-25-1X1-030-g'_cal.fts.mag.1"
p432
sI9
S"KIC8462852-20180829at052311_-25-1X1-030-g'_cal.fts.mag.1"
p433
sI10
S"KIC8462852-20180829at052414_-25-1X1-030-g'_cal.fts.mag.1"
p434
sI11
S"KIC8462852-20180829at052519_-25-1X1-030-g'_cal.fts.mag.1"
p435
sI12
S"KIC8462852-20180829at052059_-25-1X1-030-g'_cal.fts.mag.1"
p436
sI13
S"KIC8462852-20180829at042910_-25-1X1-030-g'_cal.fts.mag.1"
p437
sI14
S"KIC8462852-20180829at045356_-25-1X1-030-g'_cal.fts.mag.1"
p438
ssg121
(dp439
I0
F0.0043480386803622885
sI1
Fnan
sI2
Fnan
sI3
Fnan
sI4
Fnan
sI5
Fnan
sI6
Fnan
sI7
Fnan
sI8
Fnan
sI9
Fnan
sI10
Fnan
sI11
Fnan
sI12
Fnan
sI13
Fnan
sI14
Fnan
ssg123
(dp440
I0
F7017.1033333333335
sI1
F7088.453333333334
sI2
F7097.066666666667
sI3
F7099.663333333333
sI4
F7082.596666666666
sI5
F6954.536666666667
sI6
F7025.366666666667
sI7
F7047.546666666666
sI8
F7027.59
sI9
F7038.666666666667
sI10
F7042.216666666666
sI11
F7150.903333333334
sI12
F6938.22
sI13
F7097.16
sI14
F7126.070000000001
ssg125
(dp441
I0
F0.007761320457119008
sI1
Fnan
sI2
Fnan
sI3
Fnan
sI4
Fnan
sI5
Fnan
sI6
Fnan
sI7
Fnan
sI8
Fnan
sI9
Fnan
sI10
Fnan
sI11
Fnan
sI12
Fnan
sI13
Fnan
sI14
Fnan
ssg127
(dp442
I0
S"g'"
p443
sI1
S"g'"
p444
sI2
S"g'"
p445
sI3
S"g'"
p446
sI4
S"g'"
p447
sI5
S"g'"
p448
sI6
S"g'"
p449
sI7
S"g'"
p450
sI8
S"g'"
p451
sI9
S"g'"
p452
sI10
S"g'"
p453
sI11
S"g'"
p454
sI12
S"g'"
p455
sI13
S"g'"
p456
sI14
S"g'"
p457
ssg144
(dp458
I0
F0.002100251626255562
sI1
Fnan
sI2
Fnan
sI3
Fnan
sI4
Fnan
sI5
Fnan
sI6
Fnan
sI7
Fnan
sI8
Fnan
sI9
Fnan
sI10
Fnan
sI11
Fnan
sI12
Fnan
sI13
Fnan
sI14
Fnan
ssg146
(dp459
I0
F2.259006
sI1
F-4.288941
sI2
F3.297639
sI3
F2.681751
sI4
F3.742738
sI5
F3.997918
sI6
F-3.078866
sI7
F4.787205
sI8
F3.054367
sI9
F-2.168332
sI10
F-2.724297
sI11
F5.458275
sI12
F-2.943984
sI13
F-3.635585
sI14
F5.827099
ssg148
(dp460
I0
F1.5133900419249666
sI1
Fnan
sI2
Fnan
sI3
Fnan
sI4
Fnan
sI5
Fnan
sI6
Fnan
sI7
Fnan
sI8
Fnan
sI9
Fnan
sI10
Fnan
sI11
Fnan
sI12
Fnan
sI13
Fnan
sI14
Fnan
ssg150
(dp461
I0
F2458359.7056597224
sI1
Fnan
sI2
Fnan
sI3
Fnan
sI4
Fnan
sI5
Fnan
sI6
Fnan
sI7
Fnan
sI8
Fnan
sI9
Fnan
sI10
Fnan
sI11
Fnan
sI12
Fnan
sI13
Fnan
sI14
Fnan
ssg152
(dp462
I0
F0.002100251626255562
sI1
Fnan
sI2
Fnan
sI3
Fnan
sI4
Fnan
sI5
Fnan
sI6
Fnan
sI7
Fnan
sI8
Fnan
sI9
Fnan
sI10
Fnan
sI11
Fnan
sI12
Fnan
sI13
Fnan
sI14
Fnan
ssg154
(dp463
I0
F39.68475
sI1
F41.80325
sI2
F33.61329
sI3
F31.11518
sI4
F31.88513
sI5
F40.19986
sI6
F38.97676
sI7
F31.60058
sI8
F40.8348
sI9
F43.82111
sI10
F43.10248
sI11
F42.95787
sI12
F43.62467
sI13
F31.92517
sI14
F39.50474
ssg156
(dp464
I0
F10.95
sI1
F10.941
sI2
F10.941
sI3
F10.937
sI4
F10.94
sI5
F10.958
sI6
F10.953
sI7
F10.948
sI8
F10.949
sI9
F10.95
sI10
F10.949
sI11
F10.935
sI12
F10.967
sI13
F10.937
sI14
F10.946
ssg158
(dp465
I0
F0.8679219692716228
sI1
Fnan
sI2
Fnan
sI3
Fnan
sI4
Fnan
sI5
Fnan
sI6
Fnan
sI7
Fnan
sI8
Fnan
sI9
Fnan
sI10
Fnan
sI11
Fnan
sI12
Fnan
sI13
Fnan
sI14
Fnan
sssS'V'
p466
(dp467
g3
(dp468
I0
F0.6934400325061646
sI1
Fnan
sI2
Fnan
sI3
Fnan
sI4
Fnan
sI5
Fnan
sI6
Fnan
sI7
Fnan
sI8
Fnan
sI9
Fnan
sI10
Fnan
sI11
Fnan
sI12
Fnan
sI13
Fnan
sI14
Fnan
ssg5
(dp469
I0
S'NoError'
p470
sI1
S'NoError'
p471
sI2
S'NoError'
p472
sI3
S'NoError'
p473
sI4
S'NoError'
p474
sI5
S'NoError'
p475
sI6
S'NoError'
p476
sI7
S'NoError'
p477
sI8
S'NoError'
p478
sI9
S'NoError'
p479
sI10
S'NoError'
p480
sI11
S'NoError'
p481
sI12
S'NoError'
p482
sI13
S'NoError'
p483
sI14
S'NoError'
p484
ssg22
(dp485
I0
F0.002
sI1
F0.002
sI2
F0.002
sI3
F0.002
sI4
F0.002
sI5
F0.002
sI6
F0.002
sI7
F0.002
sI8
F0.002
sI9
F0.002
sI10
F0.002
sI11
F0.002
sI12
F0.002
sI13
F0.002
sI14
F0.002
ssg24
(dp486
I0
F0.8849326325631655
sI1
F0.8887887732906249
sI2
F0.8817203892195551
sI3
F0.8865536221133954
sI4
F0.8885891206135954
sI5
F0.886315193231403
sI6
F0.8871981746301035
sI7
F0.885996527663778
sI8
F0.888383673520406
sI9
F0.8879104608865971
sI10
F0.8890789689312393
sI11
F0.8852419258637557
sI12
F0.8797326174083814
sI13
F0.8868627291513111
sI14
F0.8850219197274609
ssg26
(dp487
I0
F0.0026156564973129006
sI1
Fnan
sI2
Fnan
sI3
Fnan
sI4
Fnan
sI5
Fnan
sI6
Fnan
sI7
Fnan
sI8
Fnan
sI9
Fnan
sI10
Fnan
sI11
Fnan
sI12
Fnan
sI13
Fnan
sI14
Fnan
ssg28
(dp488
I0
F0.8861551152543181
sI1
Fnan
sI2
Fnan
sI3
Fnan
sI4
Fnan
sI5
Fnan
sI6
Fnan
sI7
Fnan
sI8
Fnan
sI9
Fnan
sI10
Fnan
sI11
Fnan
sI12
Fnan
sI13
Fnan
sI14
Fnan
ssg30
(dp489
I0
F11.405
sI1
F11.378
sI2
F11.388
sI3
F11.388
sI4
F11.386
sI5
F11.413
sI6
F11.392
sI7
F11.422
sI8
F11.394
sI9
F11.396
sI10
F11.393
sI11
F11.425
sI12
F11.401
sI13
F11.392
sI14
F11.417
ssg32
(dp490
I0
F34.04201
sI1
F36.35061
sI2
F31.20286
sI3
F36.02361
sI4
F35.3323
sI5
F35.23234
sI6
F34.7092
sI7
F31.66089
sI8
F35.33493
sI9
F34.48454
sI10
F31.06664
sI11
F32.17614
sI12
F31.74816
sI13
F36.4594
sI14
F35.18825
ssg34
(dp491
I0
F2458359.7198148146
sI1
F2458359.740775463
sI2
F2458359.7018055557
sI3
F2458359.737824074
sI4
F2458359.738564815
sI5
F2458359.7205671296
sI6
F2458359.7400347223
sI7
F2458359.702546296
sI8
F2458359.719074074
sI9
F2458359.7220717594
sI10
F2458359.701053241
sI11
F2458359.703287037
sI12
F2458359.700300926
sI13
F2458359.7392939813
sI14
F2458359.7213194445
ssg36
(dp492
I0
F1.4166778
sI1
Fnan
sI2
Fnan
sI3
Fnan
sI4
Fnan
sI5
Fnan
sI6
Fnan
sI7
Fnan
sI8
Fnan
sI9
Fnan
sI10
Fnan
sI11
Fnan
sI12
Fnan
sI13
Fnan
sI14
Fnan
ssg38
(dp493
I0
F2.606643866666666
sI1
Fnan
sI2
Fnan
sI3
Fnan
sI4
Fnan
sI5
Fnan
sI6
Fnan
sI7
Fnan
sI8
Fnan
sI9
Fnan
sI10
Fnan
sI11
Fnan
sI12
Fnan
sI13
Fnan
sI14
Fnan
ssg40
(dp494
I0
F0.6947451467674928
sI1
F0.6979201353774676
sI2
F0.6923091641162648
sI3
F0.6885800267384272
sI4
F0.6966365187590765
sI5
F0.6915925614696761
sI6
F0.6952972246737237
sI7
F0.6905361038438864
sI8
F0.694885813618745
sI9
F0.6922608784526207
sI10
F0.6933297547073228
sI11
F0.6928375509092074
sI12
F0.6923280768510635
sI13
F0.6940278408892789
sI14
F0.693933787521782
ssg42
(dp495
I0
F0.0016214052602520717
sI1
Fnan
sI2
Fnan
sI3
Fnan
sI4
Fnan
sI5
Fnan
sI6
Fnan
sI7
Fnan
sI8
Fnan
sI9
Fnan
sI10
Fnan
sI11
Fnan
sI12
Fnan
sI13
Fnan
sI14
Fnan
ssg44
(dp496
I0
F1.0666322
sI1
Fnan
sI2
Fnan
sI3
Fnan
sI4
Fnan
sI5
Fnan
sI6
Fnan
sI7
Fnan
sI8
Fnan
sI9
Fnan
sI10
Fnan
sI11
Fnan
sI12
Fnan
sI13
Fnan
sI14
Fnan
ssg46
(dp497
I0
g470
sI1
g471
sI2
g472
sI3
g473
sI4
g474
sI5
g475
sI6
g476
sI7
g477
sI8
g478
sI9
g479
sI10
g480
sI11
g481
sI12
g482
sI13
g483
sI14
g484
ssg48
(dp498
I0
F0.0022366850908848534
sI1
Fnan
sI2
Fnan
sI3
Fnan
sI4
Fnan
sI5
Fnan
sI6
Fnan
sI7
Fnan
sI8
Fnan
sI9
Fnan
sI10
Fnan
sI11
Fnan
sI12
Fnan
sI13
Fnan
sI14
Fnan
ssg50
(dp499
I0
F0.013898612469287466
sI1
Fnan
sI2
Fnan
sI3
Fnan
sI4
Fnan
sI5
Fnan
sI6
Fnan
sI7
Fnan
sI8
Fnan
sI9
Fnan
sI10
Fnan
sI11
Fnan
sI12
Fnan
sI13
Fnan
sI14
Fnan
ssg52
(dp500
I0
F0.8718672000000002
sI1
Fnan
sI2
Fnan
sI3
Fnan
sI4
Fnan
sI5
Fnan
sI6
Fnan
sI7
Fnan
sI8
Fnan
sI9
Fnan
sI10
Fnan
sI11
Fnan
sI12
Fnan
sI13
Fnan
sI14
Fnan
ssg54
(dp501
I0
F1.5038836664388902
sI1
F1.489116829095619
sI2
F1.5110636825816495
sI3
F1.5024238012222457
sI4
F1.4956591422557781
sI5
F1.5046973398065333
sI6
F1.4988897242398382
sI7
F1.499999405717709
sI8
F1.492646134116857
sI9
F1.4947581667224563
sI10
F1.4988727086282905
sI11
F1.5073872143506586
sI12
F1.5059282671580612
sI13
F1.5011749923795539
sI14
F1.5031207069331833
ssg56
(dp502
I0
g470
sI1
g471
sI2
g472
sI3
g473
sI4
g474
sI5
g475
sI6
g476
sI7
g477
sI8
g478
sI9
g479
sI10
g480
sI11
g481
sI12
g482
sI13
g483
sI14
g484
ssg58
(dp503
I0
F35.08978
sI1
F36.92776
sI2
F31.70466
sI3
F35.21803
sI4
F36.14619
sI5
F35.71415
sI6
F36.64922
sI7
F32.17866
sI8
F35.35185
sI9
F35.56005
sI10
F32.32375
sI11
F33.73704
sI12
F32.31487
sI13
F37.23457
sI14
F36.32179
ssg60
(dp504
I0
F10.728800000000001
sI1
Fnan
sI2
Fnan
sI3
Fnan
sI4
Fnan
sI5
Fnan
sI6
Fnan
sI7
Fnan
sI8
Fnan
sI9
Fnan
sI10
Fnan
sI11
Fnan
sI12
Fnan
sI13
Fnan
sI14
Fnan
ssg62
(dp505
I0
F0.7184617174010994
sI1
Fnan
sI2
Fnan
sI3
Fnan
sI4
Fnan
sI5
Fnan
sI6
Fnan
sI7
Fnan
sI8
Fnan
sI9
Fnan
sI10
Fnan
sI11
Fnan
sI12
Fnan
sI13
Fnan
sI14
Fnan
ssg64
(dp506
I0
F2.396312
sI1
F4.223172
sI2
F4.65269
sI3
F3.712676
sI4
F2.713139
sI5
F3.752419
sI6
F3.264065
sI7
F-2.890043
sI8
F3.568436
sI9
F1.848398
sI10
F4.492467
sI11
F3.269447
sI12
F4.417078
sI13
F2.413165
sI14
F-2.733763
ssg66
(dp507
I0
F11.091199999999999
sI1
Fnan
sI2
Fnan
sI3
Fnan
sI4
Fnan
sI5
Fnan
sI6
Fnan
sI7
Fnan
sI8
Fnan
sI9
Fnan
sI10
Fnan
sI11
Fnan
sI12
Fnan
sI13
Fnan
sI14
Fnan
ssg68
(dp508
I0
g470
sI1
g471
sI2
g472
sI3
g473
sI4
g474
sI5
g475
sI6
g476
sI7
g477
sI8
g478
sI9
g479
sI10
g480
sI11
g481
sI12
g482
sI13
g483
sI14
g484
ssg70
(dp509
I0
F9117.416666666666
sI1
F9337.946666666667
sI2
F9274.966666666667
sI3
F9358.473333333333
sI4
F9281.406666666668
sI5
F9101.563333333334
sI6
F9243.136666666665
sI7
F9040.269999999999
sI8
F9239.55
sI9
F9255.356666666667
sI10
F9268.166666666666
sI11
F8979.359999999999
sI12
F9153.236666666666
sI13
F9250.84
sI14
F9031.01
ssg72
(dp510
I0
F1.004685
sI1
F1.0105389999999999
sI2
F1.007457
sI3
F1.009116
sI4
F1.009452
sI5
F1.004726
sI6
F1.010166
sI7
F1.0072
sI8
F1.004657
sI9
F1.004845
sI10
F1.0077260000000001
sI11
F1.0069489999999999
sI12
F1.008011
sI13
F1.009802
sI14
F1.004779
ssg74
(dp511
I0
F7848.509999999999
sI1
F8059.403333333334
sI2
F7992.34
sI3
F8041.193333333333
sI4
F7980.926666666666
sI5
F7812.62
sI6
F7950.79
sI7
F7786.75
sI8
F7962.513333333333
sI9
F7972.076666666666
sI10
F7947.14
sI11
F7708.933333333333
sI12
F7939.166666666667
sI13
F7950.6900000000005
sI14
F7776.613333333333
ssg76
(dp512
I0
F12757.390000000001
sI1
F12953.343333333332
sI2
F13046.0
sI3
F13070.836666666666
sI4
F12909.283333333333
sI5
F12725.363333333335
sI6
F12885.9
sI7
F12620.26
sI8
F12838.296666666667
sI9
F12875.423333333334
sI10
F12901.776666666667
sI11
F12577.859999999999
sI12
F12869.966666666667
sI13
F12911.253333333332
sI14
F12631.943333333333
ssg78
(dp513
I0
F35.4827
sI1
F35.74199
sI2
F30.6574
sI3
F35.72445
sI4
F35.37775
sI5
F35.31915
sI6
F35.51435
sI7
F32.34737
sI8
F35.05669
sI9
F35.38198
sI10
F30.58301
sI11
F33.05613
sI12
F30.00551
sI13
F36.64526
sI14
F36.11233
ssg80
(dp514
I0
F11.263
sI1
F11.234
sI2
F11.243
sI3
F11.237
sI4
F11.245
sI5
F11.268
sI6
F11.249
sI7
F11.272
sI8
F11.247
sI9
F11.246
sI10
F11.249
sI11
F11.283
sI12
F11.251
sI13
F11.249
sI14
F11.273
ssg82
(dp515
I0
F0.002
sI1
F0.002
sI2
F0.002
sI3
F0.002
sI4
F0.002
sI5
F0.002
sI6
F0.002
sI7
F0.002
sI8
F0.002
sI9
F0.002
sI10
F0.002
sI11
F0.002
sI12
F0.002
sI13
F0.002
sI14
F0.002
ssg84
(dp516
I0
F0.6934147056464024
sI1
Fnan
sI2
Fnan
sI3
Fnan
sI4
Fnan
sI5
Fnan
sI6
Fnan
sI7
Fnan
sI8
Fnan
sI9
Fnan
sI10
Fnan
sI11
Fnan
sI12
Fnan
sI13
Fnan
sI14
Fnan
ssg86
(dp517
I0
F11.25393333333333
sI1
Fnan
sI2
Fnan
sI3
Fnan
sI4
Fnan
sI5
Fnan
sI6
Fnan
sI7
Fnan
sI8
Fnan
sI9
Fnan
sI10
Fnan
sI11
Fnan
sI12
Fnan
sI13
Fnan
sI14
Fnan
ssg88
(dp518
I0
F11.1
sI1
F11.074
sI2
F11.082
sI3
F11.072
sI4
F11.081
sI5
F11.102
sI6
F11.085
sI7
F11.11
sI8
F11.086
sI9
F11.084
sI10
F11.083
sI11
F11.117
sI12
F11.096
sI13
F11.085
sI14
F11.111
ssg90
(dp519
I0
F-3.720082
sI1
F-2.082526
sI2
F3.674762
sI3
F-4.330902
sI4
F4.127391
sI5
F1.662971
sI6
F3.08806
sI7
F3.593704
sI8
F4.070346
sI9
F4.055362
sI10
F3.849236
sI11
F4.356809
sI12
F-1.082275
sI13
F-3.603607
sI14
F3.590918
ssg92
(dp520
I0
F0.012513992168768438
sI1
Fnan
sI2
Fnan
sI3
Fnan
sI4
Fnan
sI5
Fnan
sI6
Fnan
sI7
Fnan
sI8
Fnan
sI9
Fnan
sI10
Fnan
sI11
Fnan
sI12
Fnan
sI13
Fnan
sI14
Fnan
ssg94
(dp521
I0
F0.7175843992221188
sI1
F0.7230988725491735
sI2
F0.71612848308541
sI3
F0.7170254754455962
sI4
F0.7193040564909577
sI5
F0.7158699086968726
sI6
F0.7185843757922283
sI7
F0.7189805604941338
sI8
F0.7213124951497384
sI9
F0.7204514858189965
sI10
F0.7169292118172608
sI11
F0.7152066299210506
sI12
F0.7209820067047468
sI13
F0.7175035210271955
sI14
F0.717964278801013
ssg96
(dp522
I0
F30.0
sI1
F30.0
sI2
F30.0
sI3
F30.0
sI4
F30.0
sI5
F30.0
sI6
F30.0
sI7
F30.0
sI8
F30.0
sI9
F30.0
sI10
F30.0
sI11
F30.0
sI12
F30.0
sI13
F30.0
sI14
F30.0
ssg98
(dp523
I0
F0.002
sI1
F0.002
sI2
F0.002
sI3
F0.002
sI4
F0.002
sI5
F0.002
sI6
F0.002
sI7
F0.002
sI8
F0.002
sI9
F0.002
sI10
F0.002
sI11
F0.002
sI12
F0.002
sI13
F0.002
sI14
F0.002
ssg100
(dp524
I0
F0.002
sI1
F0.002
sI2
F0.002
sI3
F0.002
sI4
F0.002
sI5
F0.002
sI6
F0.002
sI7
F0.002
sI8
F0.002
sI9
F0.002
sI10
F0.002
sI11
F0.002
sI12
F0.002
sI13
F0.002
sI14
F0.002
ssg102
(dp525
I0
F-2.616317
sI1
F3.696471
sI2
F2.279296
sI3
F5.15494
sI4
F-1.350012
sI5
F4.092879
sI6
F4.953687
sI7
F3.889823
sI8
F-3.870022
sI9
F2.132539
sI10
F3.910412
sI11
F2.390994
sI12
F-4.420534
sI13
F-4.589272
sI14
F-2.576876
ssg104
(dp526
I0
S'KIC8462852-20180829at051632_-25-1X1-030-V_cal.fts.mag.1'
p527
sI1
S'KIC8462852-20180829at054643_-25-1X1-030-V_cal.fts.mag.1'
p528
sI2
S'KIC8462852-20180829at045036_-25-1X1-030-V_cal.fts.mag.1'
p529
sI3
S'KIC8462852-20180829at054220_-25-1X1-030-V_cal.fts.mag.1'
p530
sI4
S'KIC8462852-20180829at054332_-25-1X1-030-V_cal.fts.mag.1'
p531
sI5
S'KIC8462852-20180829at051737_-25-1X1-030-V_cal.fts.mag.1'
p532
sI6
S'KIC8462852-20180829at054539_-25-1X1-030-V_cal.fts.mag.1'
p533
sI7
S'KIC8462852-20180829at045140_-25-1X1-030-V_cal.fts.mag.1'
p534
sI8
S'KIC8462852-20180829at051520_-25-1X1-030-V_cal.fts.mag.1'
p535
sI9
S'KIC8462852-20180829at051947_-25-1X1-030-V_cal.fts.mag.1'
p536
sI10
S'KIC8462852-20180829at044931_-25-1X1-030-V_cal.fts.mag.1'
p537
sI11
S'KIC8462852-20180829at045244_-25-1X1-030-V_cal.fts.mag.1'
p538
sI12
S'KIC8462852-20180829at044819_-25-1X1-030-V_cal.fts.mag.1'
p539
sI13
S'KIC8462852-20180829at054435_-25-1X1-030-V_cal.fts.mag.1'
p540
sI14
S'KIC8462852-20180829at051842_-25-1X1-030-V_cal.fts.mag.1'
p541
ssg121
(dp542
I0
F0.005864156606365674
sI1
Fnan
sI2
Fnan
sI3
Fnan
sI4
Fnan
sI5
Fnan
sI6
Fnan
sI7
Fnan
sI8
Fnan
sI9
Fnan
sI10
Fnan
sI11
Fnan
sI12
Fnan
sI13
Fnan
sI14
Fnan
ssg123
(dp543
I0
F6883.376666666666
sI1
F7060.786666666667
sI2
F6995.3933333333325
sI3
F6993.793333333333
sI4
F7006.216666666666
sI5
F6832.83
sI6
F6971.473333333333
sI7
F6778.136666666667
sI8
F6958.206666666667
sI9
F6946.343333333333
sI10
F6960.3566666666675
sI11
F6758.8966666666665
sI12
F6914.596666666666
sI13
F6966.37
sI14
F6809.703333333334
ssg125
(dp544
I0
F0.014369942174387336
sI1
Fnan
sI2
Fnan
sI3
Fnan
sI4
Fnan
sI5
Fnan
sI6
Fnan
sI7
Fnan
sI8
Fnan
sI9
Fnan
sI10
Fnan
sI11
Fnan
sI12
Fnan
sI13
Fnan
sI14
Fnan
ssg127
(dp545
I0
g466
sI1
g466
sI2
g466
sI3
g466
sI4
g466
sI5
g466
sI6
g466
sI7
g466
sI8
g466
sI9
g466
sI10
g466
sI11
g466
sI12
g466
sI13
g466
sI14
g466
ssg144
(dp546
I0
F0.0023582343771523895
sI1
Fnan
sI2
Fnan
sI3
Fnan
sI4
Fnan
sI5
Fnan
sI6
Fnan
sI7
Fnan
sI8
Fnan
sI9
Fnan
sI10
Fnan
sI11
Fnan
sI12
Fnan
sI13
Fnan
sI14
Fnan
ssg146
(dp547
I0
F5.284511
sI1
F-4.593313
sI2
F-3.76904
sI3
F-3.836649
sI4
F3.113619
sI5
F4.520102
sI6
F3.479863
sI7
F3.765946
sI8
F-4.159889
sI9
F3.454731
sI10
F3.404926
sI11
F2.220321
sI12
F-2.853449
sI13
F2.504679
sI14
F3.463125
ssg148
(dp548
I0
F1.5006414521098217
sI1
Fnan
sI2
Fnan
sI3
Fnan
sI4
Fnan
sI5
Fnan
sI6
Fnan
sI7
Fnan
sI8
Fnan
sI9
Fnan
sI10
Fnan
sI11
Fnan
sI12
Fnan
sI13
Fnan
sI14
Fnan
ssg150
(dp549
I0
F2458359.7205671296
sI1
Fnan
sI2
Fnan
sI3
Fnan
sI4
Fnan
sI5
Fnan
sI6
Fnan
sI7
Fnan
sI8
Fnan
sI9
Fnan
sI10
Fnan
sI11
Fnan
sI12
Fnan
sI13
Fnan
sI14
Fnan
ssg152
(dp550
I0
F0.0023582343771523895
sI1
Fnan
sI2
Fnan
sI3
Fnan
sI4
Fnan
sI5
Fnan
sI6
Fnan
sI7
Fnan
sI8
Fnan
sI9
Fnan
sI10
Fnan
sI11
Fnan
sI12
Fnan
sI13
Fnan
sI14
Fnan
ssg154
(dp551
I0
F38.75049
sI1
F37.90736
sI2
F33.30934
sI3
F38.80257
sI4
F38.5649
sI5
F37.71019
sI6
F39.65317
sI7
F35.50185
sI8
F36.99364
sI9
F36.47136
sI10
F32.08639
sI11
F34.06931
sI12
F33.36264
sI13
F38.59141
sI14
F38.38511
ssg156
(dp552
I0
F10.736
sI1
F10.719
sI2
F10.711
sI3
F10.709
sI4
F10.723
sI5
F10.738
sI6
F10.725
sI7
F10.747
sI8
F10.729
sI9
F10.726
sI10
F10.723
sI11
F10.751
sI12
F10.726
sI13
F10.723
sI14
F10.746
ssg158
(dp553
I0
F0.6934147056464024
sI1
Fnan
sI2
Fnan
sI3
Fnan
sI4
Fnan
sI5
Fnan
sI6
Fnan
sI7
Fnan
sI8
Fnan
sI9
Fnan
sI10
Fnan
sI11
Fnan
sI12
Fnan
sI13
Fnan
sI14
Fnan
sss.