(dp0
S'i'
p1
(dp2
S'sigmean'
p3
(dp4
I0
F0.44218481672731325
sI1
Fnan
sI2
Fnan
sI3
Fnan
sI4
Fnan
sI5
Fnan
sI6
Fnan
sI7
Fnan
sI8
Fnan
sI9
Fnan
ssS'ref3flag'
p5
(dp6
I0
S'NoError'
p7
sI1
S'NoError'
p8
sI2
S'NoError'
p9
sI3
S'NoError'
p10
sI4
S'NoError'
p11
sI5
S'NoError'
p12
sI6
S'NoError'
p13
sI7
S'NoError'
p14
sI8
S'NoError'
p15
sI9
S'NoError'
p16
ssS'tabbyerr'
p17
(dp18
I0
F0.003
sI1
F0.003
sI2
F0.003
sI3
F0.003
sI4
F0.003
sI5
F0.003
sI6
F0.003
sI7
F0.003
sI8
F0.003
sI9
F0.003
ssS'ref2rel'
p19
(dp20
I0
F0.9134024213836222
sI1
F0.9132030940656953
sI2
F0.9079635388563259
sI3
F0.9135543431960688
sI4
F0.9099288953385322
sI5
F0.9152958950392124
sI6
F0.9127119736318224
sI7
F0.9091046698167335
sI8
F0.9084332799258291
sI9
F0.908901856261364
ssS'ref2err'
p21
(dp22
I0
F0.002642818410122827
sI1
Fnan
sI2
Fnan
sI3
Fnan
sI4
Fnan
sI5
Fnan
sI6
Fnan
sI7
Fnan
sI8
Fnan
sI9
Fnan
ssS'ref2mean'
p23
(dp24
I0
F0.9112499967515205
sI1
Fnan
sI2
Fnan
sI3
Fnan
sI4
Fnan
sI5
Fnan
sI6
Fnan
sI7
Fnan
sI8
Fnan
sI9
Fnan
ssS'tabbymag'
p25
(dp26
I0
F11.899
sI1
F11.957
sI2
F11.91
sI3
F11.891
sI4
F11.924
sI5
F11.901
sI6
F11.901
sI7
F11.897
sI8
F11.888
sI9
F11.892
ssS'tabbybkg'
p27
(dp28
I0
F80.63379
sI1
F88.58891
sI2
F83.70332
sI3
F71.06866
sI4
F72.5573
sI5
F77.09374
sI6
F72.03474
sI7
F70.7575
sI8
F76.86036
sI9
F70.19209
ssS'JD'
p29
(dp30
I0
F2458327.7397569446
sI1
F2458327.740474537
sI2
F2458327.741203704
sI3
F2458327.722488426
sI4
F2458327.721030093
sI5
F2458327.7382870372
sI6
F2458327.7217592592
sI7
F2458327.719560185
sI8
F2458327.7390277777
sI9
F2458327.720289352
ssS'ref3rmsmean'
p31
(dp32
I0
F2.480372
sI1
Fnan
sI2
Fnan
sI3
Fnan
sI4
Fnan
sI5
Fnan
sI6
Fnan
sI7
Fnan
sI8
Fnan
sI9
Fnan
ssS'ref1rmsmean'
p33
(dp34
I0
F1.8454195000000002
sI1
Fnan
sI2
Fnan
sI3
Fnan
sI4
Fnan
sI5
Fnan
sI6
Fnan
sI7
Fnan
sI8
Fnan
sI9
Fnan
ssS'relflux'
p35
(dp36
I0
F0.44214431693766115
sI1
F0.44394548673341905
sI2
F0.4409662833802422
sI3
F0.4454513752581686
sI4
F0.4381460191299855
sI5
F0.4411425926040372
sI6
F0.4423819058687688
sI7
F0.4426732791768302
sI8
F0.44282414283333815
sI9
F0.44140052628420917
ssS'sigerr'
p37
(dp38
I0
F0.0009336717040589208
sI1
Fnan
sI2
Fnan
sI3
Fnan
sI4
Fnan
sI5
Fnan
sI6
Fnan
sI7
Fnan
sI8
Fnan
sI9
Fnan
ssS'tabbyrmsmean'
p39
(dp40
I0
F3.2782364
sI1
Fnan
sI2
Fnan
sI3
Fnan
sI4
Fnan
sI5
Fnan
sI6
Fnan
sI7
Fnan
sI8
Fnan
sI9
Fnan
ssS'tabbyflag'
p41
(dp42
I0
g7
sI1
g8
sI2
g9
sI3
g10
sI4
g11
sI5
g12
sI6
g13
sI7
g14
sI8
g15
sI9
g16
ssS'ref1err'
p43
(dp44
I0
F0.002609264643424233
sI1
Fnan
sI2
Fnan
sI3
Fnan
sI4
Fnan
sI5
Fnan
sI6
Fnan
sI7
Fnan
sI8
Fnan
sI9
Fnan
ssS'ref2magmeanerr'
p45
(dp46
I0
F0.020461345670963572
sI1
Fnan
sI2
Fnan
sI3
Fnan
sI4
Fnan
sI5
Fnan
sI6
Fnan
sI7
Fnan
sI8
Fnan
sI9
Fnan
ssS'ref2rmsmean'
p47
(dp48
I0
F1.6956626
sI1
Fnan
sI2
Fnan
sI3
Fnan
sI4
Fnan
sI5
Fnan
sI6
Fnan
sI7
Fnan
sI8
Fnan
sI9
Fnan
ssS'ref3rel'
p49
(dp50
I0
F1.4928080183837724
sI1
F1.483577188830182
sI2
F1.4972823943938265
sI3
F1.4979527258091818
sI4
F1.4998142678610744
sI5
F1.4957657036430523
sI6
F1.495827758324088
sI7
F1.4991496214094853
sI8
F1.4998506922088641
sI9
F1.4986752553303901
ssS'ref1flag'
p51
(dp52
I0
g7
sI1
g8
sI2
g9
sI3
g10
sI4
g11
sI5
g12
sI6
g13
sI7
g14
sI8
g15
sI9
g16
ssS'ref2bkg'
p53
(dp54
I0
F83.59579
sI1
F90.12499
sI2
F85.77164
sI3
F74.98374
sI4
F73.65431
sI5
F79.10046
sI6
F74.94662
sI7
F73.4858
sI8
F80.43712
sI9
F72.5678
ssS'ref3magmean'
p55
(dp56
I0
F10.7488
sI1
Fnan
sI2
Fnan
sI3
Fnan
sI4
Fnan
sI5
Fnan
sI6
Fnan
sI7
Fnan
sI8
Fnan
sI9
Fnan
ssS'ref1mean'
p57
(dp58
I0
F0.6992853307689316
sI1
Fnan
sI2
Fnan
sI3
Fnan
sI4
Fnan
sI5
Fnan
sI6
Fnan
sI7
Fnan
sI8
Fnan
sI9
Fnan
ssS'ref1rms'
p59
(dp60
I0
F5.109755
sI1
F6.141572
sI2
F-4.460659
sI3
F2.371438
sI4
F5.108137
sI5
F5.232853
sI6
F-3.374629
sI7
F-4.555112
sI8
F3.056421
sI9
F3.824419
ssS'ref2magmean'
p61
(dp62
I0
F11.088
sI1
Fnan
sI2
Fnan
sI3
Fnan
sI4
Fnan
sI5
Fnan
sI6
Fnan
sI7
Fnan
sI8
Fnan
sI9
Fnan
ssS'ref2flag'
p63
(dp64
I0
g7
sI1
g8
sI2
g9
sI3
g10
sI4
g11
sI5
g12
sI6
g13
sI7
g14
sI8
g15
sI9
g16
ssS'ref2'
p65
(dp66
I0
F9297.926666666666
sI1
F8775.496666666668
sI2
F9184.769999999999
sI3
F9297.216666666667
sI4
F9137.936666666666
sI5
F9313.81
sI6
F9265.053333333333
sI7
F9269.143333333333
sI8
F9341.033333333333
sI9
F9338.516666666666
ssS'airmass'
p67
(dp68
I0
F1.053596
sI1
F1.052478
sI2
F1.0513540000000001
sI3
F1.0844719999999999
sI4
F1.087487
sI5
F1.055876
sI6
F1.08597
sI7
F1.0905690000000001
sI8
F1.054721
sI9
F1.089012
ssS'ref1'
p69
(dp70
I0
F7683.716666666666
sI1
F7296.863333333333
sI2
F7637.636666666667
sI3
F7656.22
sI4
F7561.740000000001
sI5
F7658.3133333333335
sI6
F7650.713333333333
sI7
F7684.09
sI8
F7748.943333333333
sI9
F7746.536666666667
ssS'ref3'
p71
(dp72
I0
F12675.166666666666
sI1
F11922.293333333333
sI2
F12593.946666666667
sI3
F12697.723333333333
sI4
F12523.206666666667
sI5
F12693.16
sI6
F12651.536666666665
sI7
F12707.716666666667
sI8
F12816.206666666667
sI9
F12802.473333333333
ssS'ref1bkg'
p73
(dp74
I0
F83.11276
sI1
F88.89773
sI2
F85.08504
sI3
F73.80061
sI4
F73.07323
sI5
F78.45199
sI6
F74.15878
sI7
F73.41438
sI8
F77.33292
sI9
F72.57221
ssS'ref1mag'
p75
(dp76
I0
F11.286
sI1
F11.342
sI2
F11.293
sI3
F11.29
sI4
F11.303
sI5
F11.29
sI6
F11.291
sI7
F11.286
sI8
F11.277
sI9
F11.277
ssS'ref3magerr'
p77
(dp78
I0
F0.002
sI1
F0.002
sI2
F0.002
sI3
F0.002
sI4
F0.002
sI5
F0.002
sI6
F0.002
sI7
F0.002
sI8
F0.002
sI9
F0.002
ssS'tabbymagmean'
p79
(dp80
I0
F0.4421075928206659
sI1
Fnan
sI2
Fnan
sI3
Fnan
sI4
Fnan
sI5
Fnan
sI6
Fnan
sI7
Fnan
sI8
Fnan
sI9
Fnan
ssS'ref1magmean'
p81
(dp82
I0
F11.2935
sI1
Fnan
sI2
Fnan
sI3
Fnan
sI4
Fnan
sI5
Fnan
sI6
Fnan
sI7
Fnan
sI8
Fnan
sI9
Fnan
ssS'ref2mag'
p83
(dp84
I0
F11.079
sI1
F11.142
sI2
F11.092
sI3
F11.079
sI4
F11.098
sI5
F11.077
sI6
F11.083
sI7
F11.082
sI8
F11.074
sI9
F11.074
ssS'ref3rms'
p85
(dp86
I0
F4.417694
sI1
F-5.231065
sI2
F-4.374758
sI3
F5.869332
sI4
F2.418315
sI5
F5.00396
sI6
F5.905483
sI7
F4.860263
sI8
F2.6929
sI9
F3.241596
ssS'ref3magmeanerr'
p87
(dp88
I0
F0.0224192377707677
sI1
Fnan
sI2
Fnan
sI3
Fnan
sI4
Fnan
sI5
Fnan
sI6
Fnan
sI7
Fnan
sI8
Fnan
sI9
Fnan
ssS'ref1rel'
p89
(dp90
I0
F0.6993750538537435
sI1
F0.705086227402378
sI2
F0.7013853739468886
sI3
F0.6961801214279284
sI4
F0.6981847526361721
sI5
F0.6959898008070473
sI6
F0.6981663966276993
sI7
F0.6992891614179642
sI8
F0.6994502323694949
sI9
F0.6997461872000004
ssS'exposure'
p91
(dp92
I0
F30.0
sI1
F30.0
sI2
F30.0
sI3
F30.0
sI4
F30.0
sI5
F30.0
sI6
F30.0
sI7
F30.0
sI8
F30.0
sI9
F30.0
ssS'ref1magerr'
p93
(dp94
I0
F0.002
sI1
F0.002
sI2
F0.002
sI3
F0.002
sI4
F0.002
sI5
F0.002
sI6
F0.002
sI7
F0.002
sI8
F0.002
sI9
F0.002
ssS'ref2magerr'
p95
(dp96
I0
F0.002
sI1
F0.002
sI2
F0.002
sI3
F0.002
sI4
F0.002
sI5
F0.002
sI6
F0.002
sI7
F0.002
sI8
F0.002
sI9
F0.002
ssS'ref2rms'
p97
(dp98
I0
F2.984075
sI1
F3.000773
sI2
F5.413938
sI3
F-3.426713
sI4
F-2.645362
sI5
F5.080451
sI6
F2.901443
sI7
F3.741501
sI8
F-3.673085
sI9
F3.579605
ssS'name'
p99
(dp100
I0
S"KIC8462852-20180728at054515_-25-1X1-030-i'_cal.fts.mag.1"
p101
sI1
S"KIC8462852-20180728at054617_-25-1X1-030-i'_cal.fts.mag.1"
p102
sI2
S"KIC8462852-20180728at054720_-25-1X1-030-i'_cal.fts.mag.1"
p103
sI3
S"KIC8462852-20180728at052023_-25-1X1-030-i'_cal.fts.mag.1"
p104
sI4
S"KIC8462852-20180728at051817_-25-1X1-030-i'_cal.fts.mag.1"
p105
sI5
S"KIC8462852-20180728at054307_-25-1X1-030-i'_cal.fts.mag.1"
p106
sI6
S"KIC8462852-20180728at051920_-25-1X1-030-i'_cal.fts.mag.1"
p107
sI7
S"KIC8462852-20180728at051608_-25-1X1-030-i'_cal.fts.mag.1"
p108
sI8
S"KIC8462852-20180728at054412_-25-1X1-030-i'_cal.fts.mag.1"
p109
sI9
S"KIC8462852-20180728at051713_-25-1X1-030-i'_cal.fts.mag.1"
p110
ssS'ref3err'
p111
(dp112
I0
F0.004904207789365672
sI1
Fnan
sI2
Fnan
sI3
Fnan
sI4
Fnan
sI5
Fnan
sI6
Fnan
sI7
Fnan
sI8
Fnan
sI9
Fnan
ssS'tabby'
p113
(dp114
I0
F4370.863333333333
sI1
F4142.7
sI2
F4323.873333333333
sI3
F4402.716666666666
sI4
F4267.963333333333
sI5
F4362.206666666667
sI6
F4360.013333333333
sI7
F4376.703333333334
sI8
F4414.3933333333325
sI9
F4397.456666666667
ssS'ref1magmeanerr'
p115
(dp116
I0
F0.01865029043562992
sI1
Fnan
sI2
Fnan
sI3
Fnan
sI4
Fnan
sI5
Fnan
sI6
Fnan
sI7
Fnan
sI8
Fnan
sI9
Fnan
ssS'filter'
p117
(dp118
I0
S"i'"
p119
sI1
S"i'"
p120
sI2
S"i'"
p121
sI3
S"i'"
p122
sI4
S"i'"
p123
sI5
S"i'"
p124
sI6
S"i'"
p125
sI7
S"i'"
p126
sI8
S"i'"
p127
sI9
S"i'"
p128
ssS'tabbymagerr'
p129
(dp130
I0
F0.0019406928361280229
sI1
Fnan
sI2
Fnan
sI3
Fnan
sI4
Fnan
sI5
Fnan
sI6
Fnan
sI7
Fnan
sI8
Fnan
sI9
Fnan
ssS'tabbyrms'
p131
(dp132
I0
F4.821538
sI1
F2.314086
sI2
F4.255986
sI3
F5.428848
sI4
F-5.582962
sI5
F3.689484
sI6
F4.836343
sI7
F5.425088
sI8
F3.346409
sI9
F4.247544
ssS'ref3mean'
p133
(dp134
I0
F1.4960703626193916
sI1
Fnan
sI2
Fnan
sI3
Fnan
sI4
Fnan
sI5
Fnan
sI6
Fnan
sI7
Fnan
sI8
Fnan
sI9
Fnan
ssS'median_JD'
p135
(dp136
I0
F2458327.7303877315
sI1
Fnan
sI2
Fnan
sI3
Fnan
sI4
Fnan
sI5
Fnan
sI6
Fnan
sI7
Fnan
sI8
Fnan
sI9
Fnan
ssS'error'
p137
(dp138
I0
F0.0019406928361280229
sI1
Fnan
sI2
Fnan
sI3
Fnan
sI4
Fnan
sI5
Fnan
sI6
Fnan
sI7
Fnan
sI8
Fnan
sI9
Fnan
ssS'ref3bkg'
p139
(dp140
I0
F86.16729
sI1
F94.8296
sI2
F89.04527
sI3
F76.16827
sI4
F75.90799
sI5
F81.82719
sI6
F75.36057
sI7
F75.12584
sI8
F82.01693
sI9
F74.09452
ssS'ref3mag'
p141
(dp142
I0
F10.743
sI1
F10.809
sI2
F10.75
sI3
F10.741
sI4
F10.756
sI5
F10.741
sI6
F10.745
sI7
F10.74
sI8
F10.731
sI9
F10.732
ssS'mean'
p143
(dp144
I0
F0.4421075928206659
sI1
Fnan
sI2
Fnan
sI3
Fnan
sI4
Fnan
sI5
Fnan
sI6
Fnan
sI7
Fnan
sI8
Fnan
sI9
Fnan
sssS'r'
p145
(dp146
g3
(dp147
I0
F0.551620448739798
sI1
Fnan
sI2
Fnan
sI3
Fnan
sI4
Fnan
sI5
Fnan
sI6
Fnan
sI7
Fnan
sI8
Fnan
sI9
Fnan
ssg5
(dp148
I0
S'NoError'
p149
sI1
S'NoError'
p150
sI2
S'NoError'
p151
sI3
S'NoError'
p152
sI4
S'NoError'
p153
sI5
S'NoError'
p154
sI6
S'NoError'
p155
sI7
S'NoError'
p156
sI8
S'NoError'
p157
sI9
S'NoError'
p158
ssg17
(dp159
I0
F0.002
sI1
F0.002
sI2
F0.002
sI3
F0.002
sI4
F0.002
sI5
F0.002
sI6
F0.002
sI7
F0.002
sI8
F0.002
sI9
F0.002
ssg19
(dp160
I0
F0.8972432437515179
sI1
F0.8971421810892891
sI2
F0.8942916613257741
sI3
F0.8944911336532854
sI4
F0.8930636519597823
sI5
F0.8950958073531613
sI6
F0.8964914311111981
sI7
F0.8959069040066105
sI8
F0.8968080305482355
sI9
F0.8951361054523875
ssg21
(dp161
I0
F0.0013848254672638154
sI1
Fnan
sI2
Fnan
sI3
Fnan
sI4
Fnan
sI5
Fnan
sI6
Fnan
sI7
Fnan
sI8
Fnan
sI9
Fnan
ssg23
(dp162
I0
F0.8955670150251243
sI1
Fnan
sI2
Fnan
sI3
Fnan
sI4
Fnan
sI5
Fnan
sI6
Fnan
sI7
Fnan
sI8
Fnan
sI9
Fnan
ssg25
(dp163
I0
F11.212
sI1
F11.233
sI2
F11.236
sI3
F11.221
sI4
F11.216
sI5
F11.25
sI6
F11.218
sI7
F11.2
sI8
F11.208
sI9
F11.213
ssg27
(dp164
I0
F157.4576
sI1
F160.7877
sI2
F160.9003
sI3
F161.8349
sI4
F167.8624
sI5
F168.8389
sI6
F163.2125
sI7
F164.7825
sI8
F156.334
sI9
F164.824
ssg29
(dp165
I0
F2458327.7180671296
sI1
F2458327.7165972223
sI2
F2458327.717337963
sI3
F2458327.734571759
sI4
F2458327.7368055554
sI5
F2458327.7158564813
sI6
F2458327.7353125
sI7
F2458327.7375347223
sI8
F2458327.7188078705
sI9
F2458327.736064815
ssg31
(dp166
I0
F2.4024275000000004
sI1
Fnan
sI2
Fnan
sI3
Fnan
sI4
Fnan
sI5
Fnan
sI6
Fnan
sI7
Fnan
sI8
Fnan
sI9
Fnan
ssg33
(dp167
I0
F0.6518438999999999
sI1
Fnan
sI2
Fnan
sI3
Fnan
sI4
Fnan
sI5
Fnan
sI6
Fnan
sI7
Fnan
sI8
Fnan
sI9
Fnan
ssg35
(dp168
I0
F0.5523696337173077
sI1
F0.550165312379749
sI2
F0.5503481633456742
sI3
F0.5532328778948694
sI4
F0.5514408030654866
sI5
F0.5514145021572364
sI6
F0.5526758597661519
sI7
F0.5547535999099096
sI8
F0.5507784785551813
sI9
F0.5521584077765251
ssg37
(dp169
I0
F0.0010046685786193389
sI1
Fnan
sI2
Fnan
sI3
Fnan
sI4
Fnan
sI5
Fnan
sI6
Fnan
sI7
Fnan
sI8
Fnan
sI9
Fnan
ssg39
(dp170
I0
F3.8038867999999995
sI1
Fnan
sI2
Fnan
sI3
Fnan
sI4
Fnan
sI5
Fnan
sI6
Fnan
sI7
Fnan
sI8
Fnan
sI9
Fnan
ssg41
(dp171
I0
g149
sI1
g150
sI2
g151
sI3
g152
sI4
g153
sI5
g154
sI6
g155
sI7
g156
sI8
g157
sI9
g158
ssg43
(dp172
I0
F0.002789949955952644
sI1
Fnan
sI2
Fnan
sI3
Fnan
sI4
Fnan
sI5
Fnan
sI6
Fnan
sI7
Fnan
sI8
Fnan
sI9
Fnan
ssg45
(dp173
I0
F0.013850391089544457
sI1
Fnan
sI2
Fnan
sI3
Fnan
sI4
Fnan
sI5
Fnan
sI6
Fnan
sI7
Fnan
sI8
Fnan
sI9
Fnan
ssg47
(dp174
I0
F1.4838957999999998
sI1
Fnan
sI2
Fnan
sI3
Fnan
sI4
Fnan
sI5
Fnan
sI6
Fnan
sI7
Fnan
sI8
Fnan
sI9
Fnan
ssg49
(dp175
I0
F1.4895431357366797
sI1
F1.4906335157069837
sI2
F1.4944621637154456
sI3
F1.4902358708211905
sI4
F1.4967653919224413
sI5
F1.5044519100418057
sI6
F1.484938462592484
sI7
F1.4899555144154757
sI8
F1.4935967652210254
sI9
F1.493617489043659
ssg51
(dp176
I0
g149
sI1
g150
sI2
g151
sI3
g152
sI4
g153
sI5
g154
sI6
g155
sI7
g156
sI8
g157
sI9
g158
ssg53
(dp177
I0
F162.0441
sI1
F164.5576
sI2
F164.4834
sI3
F166.6447
sI4
F171.3339
sI5
F170.5609
sI6
F166.8012
sI7
F168.1689
sI8
F159.7296
sI9
F167.8604
ssg55
(dp178
I0
F10.305299999999999
sI1
Fnan
sI2
Fnan
sI3
Fnan
sI4
Fnan
sI5
Fnan
sI6
Fnan
sI7
Fnan
sI8
Fnan
sI9
Fnan
ssg57
(dp179
I0
F0.7148690913558232
sI1
Fnan
sI2
Fnan
sI3
Fnan
sI4
Fnan
sI5
Fnan
sI6
Fnan
sI7
Fnan
sI8
Fnan
sI9
Fnan
ssg59
(dp180
I0
F-4.731937
sI1
F-5.953753
sI2
F-5.832902
sI3
F5.049304
sI4
F2.940596
sI5
F5.615194
sI6
F-7.492178
sI7
F5.469029
sI8
F6.296259
sI9
F5.158827
ssg61
(dp181
I0
F10.656500000000001
sI1
Fnan
sI2
Fnan
sI3
Fnan
sI4
Fnan
sI5
Fnan
sI6
Fnan
sI7
Fnan
sI8
Fnan
sI9
Fnan
ssg63
(dp182
I0
g149
sI1
g150
sI2
g151
sI3
g152
sI4
g153
sI5
g154
sI6
g155
sI7
g156
sI8
g157
sI9
g158
ssg65
(dp183
I0
F13835.92
sI1
F13624.156666666668
sI2
F13558.18
sI3
F13675.026666666667
sI4
F13761.923333333334
sI5
F13355.336666666666
sI6
F13749.466666666667
sI7
F13919.136666666665
sI8
F13923.883333333333
sI9
F13806.203333333333
ssg67
(dp184
I0
F1.093766
sI1
F1.096993
sI2
F1.095373
sI3
F1.061962
sI4
F1.058265
sI5
F1.098646
sI6
F1.0607030000000002
sI7
F1.057073
sI8
F1.092176
sI9
F1.059477
ssg69
(dp185
I0
F11770.226666666666
sI1
F11584.163333333334
sI2
F11555.72
sI3
F11682.073333333334
sI4
F11736.786666666665
sI5
F11297.003333333332
sI6
F11745.053333333333
sI7
F11864.496666666668
sI8
F11823.78
sI9
F11756.619999999999
ssg71
(dp186
I0
F19070.73
sI1
F18788.183333333334
sI2
F18765.886666666665
sI3
F18894.030000000002
sI4
F19082.793333333335
sI5
F18544.13
sI6
F18928.896666666667
sI7
F19208.233333333334
sI8
F19228.313333333335
sI9
F19090.539999999997
ssg73
(dp187
I0
F159.916
sI1
F164.5188
sI2
F164.1548
sI3
F164.6276
sI4
F169.3944
sI5
F170.1969
sI6
F166.6827
sI7
F167.8904
sI8
F157.9652
sI9
F166.3983
ssg75
(dp188
I0
F10.823
sI1
F10.84
sI2
F10.843
sI3
F10.831
sI4
F10.826
sI5
F10.868
sI6
F10.825
sI7
F10.814
sI8
F10.818
sI9
F10.824
ssg77
(dp189
I0
F0.001
sI1
F0.001
sI2
F0.001
sI3
F0.001
sI4
F0.001
sI5
F0.001
sI6
F0.001
sI7
F0.001
sI8
F0.001
sI9
F0.001
ssg79
(dp190
I0
F0.5519337638568091
sI1
Fnan
sI2
Fnan
sI3
Fnan
sI4
Fnan
sI5
Fnan
sI6
Fnan
sI7
Fnan
sI8
Fnan
sI9
Fnan
ssg81
(dp191
I0
F10.831199999999999
sI1
Fnan
sI2
Fnan
sI3
Fnan
sI4
Fnan
sI5
Fnan
sI6
Fnan
sI7
Fnan
sI8
Fnan
sI9
Fnan
ssg83
(dp192
I0
F10.647
sI1
F10.664
sI2
F10.669
sI3
F10.66
sI4
F10.653
sI5
F10.686
sI6
F10.654
sI7
F10.641
sI8
F10.641
sI9
F10.65
ssg85
(dp193
I0
F2.439109
sI1
F4.155865
sI2
F4.481615
sI3
F-5.537502
sI4
F7.574134
sI5
F-4.545223
sI6
F6.788119
sI7
F5.603562
sI8
F5.014087
sI9
F-1.949491
ssg87
(dp194
I0
F0.01244588285337784
sI1
Fnan
sI2
Fnan
sI3
Fnan
sI4
Fnan
sI5
Fnan
sI6
Fnan
sI7
Fnan
sI8
Fnan
sI9
Fnan
ssg89
(dp195
I0
F0.7153707026796507
sI1
F0.7147995691352943
sI2
F0.7149917192762462
sI3
F0.7173725326401327
sI4
F0.7146833864198351
sI5
F0.708287912859567
sI6
F0.7188275136994314
sI7
F0.7162957196219724
sI8
F0.7133029596128321
sI9
F0.7147588976132693
ssg91
(dp196
I0
F30.0
sI1
F30.0
sI2
F30.0
sI3
F30.0
sI4
F30.0
sI5
F30.0
sI6
F30.0
sI7
F30.0
sI8
F30.0
sI9
F30.0
ssg93
(dp197
I0
F0.002
sI1
F0.002
sI2
F0.002
sI3
F0.002
sI4
F0.002
sI5
F0.002
sI6
F0.002
sI7
F0.002
sI8
F0.002
sI9
F0.002
ssg95
(dp198
I0
F0.002
sI1
F0.002
sI2
F0.002
sI3
F0.002
sI4
F0.002
sI5
F0.002
sI6
F0.002
sI7
F0.002
sI8
F0.002
sI9
F0.002
ssg97
(dp199
I0
F1.677168
sI1
F5.206948
sI2
F-4.167635
sI3
F-5.515949
sI4
F-4.451883
sI5
F5.334045
sI6
F4.38276
sI7
F5.603349
sI8
F1.588975
sI9
F5.18118
ssg99
(dp200
I0
S"KIC8462852-20180728at051401_-25-1X1-030-r'_cal.fts.mag.1"
p201
sI1
S"KIC8462852-20180728at051154_-25-1X1-030-r'_cal.fts.mag.1"
p202
sI2
S"KIC8462852-20180728at051258_-25-1X1-030-r'_cal.fts.mag.1"
p203
sI3
S"KIC8462852-20180728at053745_-25-1X1-030-r'_cal.fts.mag.1"
p204
sI4
S"KIC8462852-20180728at054100_-25-1X1-030-r'_cal.fts.mag.1"
p205
sI5
S"KIC8462852-20180728at051049_-25-1X1-030-r'_cal.fts.mag.1"
p206
sI6
S"KIC8462852-20180728at053851_-25-1X1-030-r'_cal.fts.mag.1"
p207
sI7
S"KIC8462852-20180728at054203_-25-1X1-030-r'_cal.fts.mag.1"
p208
sI8
S"KIC8462852-20180728at051505_-25-1X1-030-r'_cal.fts.mag.1"
p209
sI9
S"KIC8462852-20180728at053956_-25-1X1-030-r'_cal.fts.mag.1"
p210
ssg111
(dp211
I0
F0.005242176068896766
sI1
Fnan
sI2
Fnan
sI3
Fnan
sI4
Fnan
sI5
Fnan
sI6
Fnan
sI7
Fnan
sI8
Fnan
sI9
Fnan
ssg113
(dp212
I0
F8226.05
sI1
F8068.45
sI2
F8049.72
sI3
F8160.3933333333325
sI4
F8194.686666666666
sI5
F7939.72
sI6
F8183.916666666667
sI7
F8319.8
sI8
F8257.266666666666
sI9
F8218.576666666666
ssg115
(dp213
I0
F0.015725421739619324
sI1
Fnan
sI2
Fnan
sI3
Fnan
sI4
Fnan
sI5
Fnan
sI6
Fnan
sI7
Fnan
sI8
Fnan
sI9
Fnan
ssg117
(dp214
I0
S"r'"
p215
sI1
S"r'"
p216
sI2
S"r'"
p217
sI3
S"r'"
p218
sI4
S"r'"
p219
sI5
S"r'"
p220
sI6
S"r'"
p221
sI7
S"r'"
p222
sI8
S"r'"
p223
sI9
S"r'"
p224
ssg129
(dp225
I0
F0.0014110359947011237
sI1
Fnan
sI2
Fnan
sI3
Fnan
sI4
Fnan
sI5
Fnan
sI6
Fnan
sI7
Fnan
sI8
Fnan
sI9
Fnan
ssg131
(dp226
I0
F4.406375
sI1
F5.602824
sI2
F5.850661
sI3
F5.673532
sI4
F4.114345
sI5
F5.731666
sI6
F-3.213435
sI7
F2.215435
sI8
F3.551328
sI9
F4.106137
ssg133
(dp227
I0
F1.4928200219217191
sI1
Fnan
sI2
Fnan
sI3
Fnan
sI4
Fnan
sI5
Fnan
sI6
Fnan
sI7
Fnan
sI8
Fnan
sI9
Fnan
ssg135
(dp228
I0
F2458327.7266898146
sI1
Fnan
sI2
Fnan
sI3
Fnan
sI4
Fnan
sI5
Fnan
sI6
Fnan
sI7
Fnan
sI8
Fnan
sI9
Fnan
ssg137
(dp229
I0
F0.0014110359947011237
sI1
Fnan
sI2
Fnan
sI3
Fnan
sI4
Fnan
sI5
Fnan
sI6
Fnan
sI7
Fnan
sI8
Fnan
sI9
Fnan
ssg139
(dp230
I0
F163.2808
sI1
F167.1042
sI2
F166.2554
sI3
F170.2277
sI4
F171.4124
sI5
F172.2164
sI6
F167.6953
sI7
F171.5415
sI8
F162.1022
sI9
F170.4528
ssg141
(dp231
I0
F10.299
sI1
F10.315
sI2
F10.317
sI3
F10.309
sI4
F10.298
sI5
F10.329
sI6
F10.307
sI7
F10.291
sI8
F10.29
sI9
F10.298
ssg143
(dp232
I0
F0.5519337638568091
sI1
Fnan
sI2
Fnan
sI3
Fnan
sI4
Fnan
sI5
Fnan
sI6
Fnan
sI7
Fnan
sI8
Fnan
sI9
Fnan
sssS'z'
p233
(dp234
g3
(dp235
I0
F0.37283814478563837
sI1
Fnan
sI2
Fnan
sI3
Fnan
sI4
Fnan
sI5
Fnan
sI6
Fnan
sI7
Fnan
sI8
Fnan
sI9
Fnan
sI10
Fnan
sI11
Fnan
sI12
Fnan
sI13
Fnan
sI14
Fnan
ssg5
(dp236
I0
S'NoError'
p237
sI1
S'NoError'
p238
sI2
S'NoError'
p239
sI3
S'NoError'
p240
sI4
S'NoError'
p241
sI5
S'NoError'
p242
sI6
S'NoError'
p243
sI7
S'NoError'
p244
sI8
S'NoError'
p245
sI9
S'NoError'
p246
sI10
S'NoError'
p247
sI11
S'NoError'
p248
sI12
S'NoError'
p249
sI13
S'NoError'
p250
sI14
S'NoError'
p251
ssg17
(dp252
I0
F0.011
sI1
F0.007
sI2
F0.007
sI3
F0.007
sI4
F0.008
sI5
F0.007
sI6
F0.008
sI7
F0.007
sI8
F0.007
sI9
F0.007
sI10
F0.007
sI11
F0.007
sI12
F0.008
sI13
F0.007
sI14
F0.008
ssg19
(dp253
I0
F0.943612407629042
sI1
F0.9241414202319668
sI2
F0.9210265154831436
sI3
F0.9060037824597154
sI4
F0.9194594573932834
sI5
F0.9129265706401498
sI6
F0.9167071426277339
sI7
F0.9146041712321034
sI8
F0.9122397180015217
sI9
F0.9194549174531745
sI10
F0.9144400937956882
sI11
F0.9142889327224805
sI12
F0.9164164169554602
sI13
F0.9172555778943997
sI14
F0.9146953407116042
ssg21
(dp254
I0
F0.008294075460077823
sI1
Fnan
sI2
Fnan
sI3
Fnan
sI4
Fnan
sI5
Fnan
sI6
Fnan
sI7
Fnan
sI8
Fnan
sI9
Fnan
sI10
Fnan
sI11
Fnan
sI12
Fnan
sI13
Fnan
sI14
Fnan
ssg23
(dp255
I0
F0.9178181643487644
sI1
Fnan
sI2
Fnan
sI3
Fnan
sI4
Fnan
sI5
Fnan
sI6
Fnan
sI7
Fnan
sI8
Fnan
sI9
Fnan
sI10
Fnan
sI11
Fnan
sI12
Fnan
sI13
Fnan
sI14
Fnan
ssg25
(dp256
I0
F13.829
sI1
F13.269
sI2
F13.278
sI3
F13.275
sI4
F13.291
sI5
F13.269
sI6
F13.296
sI7
F13.256
sI8
F13.282
sI9
F13.257
sI10
F13.28
sI11
F13.272
sI12
F13.291
sI13
F13.265
sI14
F13.269
ssg27
(dp257
I0
F33.67435
sI1
F24.77363
sI2
F24.0006
sI3
F24.1634
sI4
F24.8049
sI5
F24.30683
sI6
F24.833
sI7
F23.76326
sI8
F20.6671
sI9
F21.18553
sI10
F21.19435
sI11
F22.21012
sI12
F22.74982
sI13
F25.02968
sI14
F24.86579
ssg29
(dp258
I0
F2458327.704386574
sI1
F2458327.7051273147
sI2
F2458327.7434375
sI3
F2458327.7441898147
sI4
F2458327.7449189816
sI5
F2458327.7058564816
sI6
F2458327.707337963
sI7
F2458327.7419560184
sI8
F2458327.725428241
sI9
F2458327.7261689813
sI10
F2458327.7239699075
sI11
F2458327.7232407406
sI12
F2458327.724699074
sI13
F2458327.7426967593
sI14
F2458327.706597222
ssg31
(dp259
I0
F2.5375890933333336
sI1
Fnan
sI2
Fnan
sI3
Fnan
sI4
Fnan
sI5
Fnan
sI6
Fnan
sI7
Fnan
sI8
Fnan
sI9
Fnan
sI10
Fnan
sI11
Fnan
sI12
Fnan
sI13
Fnan
sI14
Fnan
ssg33
(dp260
I0
F-1.1012816666666667
sI1
Fnan
sI2
Fnan
sI3
Fnan
sI4
Fnan
sI5
Fnan
sI6
Fnan
sI7
Fnan
sI8
Fnan
sI9
Fnan
sI10
Fnan
sI11
Fnan
sI12
Fnan
sI13
Fnan
sI14
Fnan
ssg35
(dp261
I0
F0.39052507141655785
sI1
F0.37839712362561395
sI2
F0.37007853146222597
sI3
F0.37449398970610964
sI4
F0.3710828356889258
sI5
F0.3732513544467741
sI6
F0.36786062659687535
sI7
F0.3803835755899251
sI8
F0.37186088830470426
sI9
F0.37173553741932214
sI10
F0.37618138566613735
sI11
F0.3716063511390665
sI12
F0.3663735080304419
sI13
F0.37390858107772057
sI14
F0.37251973824509443
ssg37
(dp262
I0
F0.0036265360567545074
sI1
Fnan
sI2
Fnan
sI3
Fnan
sI4
Fnan
sI5
Fnan
sI6
Fnan
sI7
Fnan
sI8
Fnan
sI9
Fnan
sI10
Fnan
sI11
Fnan
sI12
Fnan
sI13
Fnan
sI14
Fnan
ssg39
(dp263
I0
F-0.43832866666666653
sI1
Fnan
sI2
Fnan
sI3
Fnan
sI4
Fnan
sI5
Fnan
sI6
Fnan
sI7
Fnan
sI8
Fnan
sI9
Fnan
sI10
Fnan
sI11
Fnan
sI12
Fnan
sI13
Fnan
sI14
Fnan
ssg41
(dp264
I0
g237
sI1
g238
sI2
g239
sI3
g240
sI4
g241
sI5
g242
sI6
g243
sI7
g244
sI8
g245
sI9
g246
sI10
g247
sI11
g248
sI12
g249
sI13
g250
sI14
g251
ssg43
(dp265
I0
F0.003978883739598534
sI1
Fnan
sI2
Fnan
sI3
Fnan
sI4
Fnan
sI5
Fnan
sI6
Fnan
sI7
Fnan
sI8
Fnan
sI9
Fnan
sI10
Fnan
sI11
Fnan
sI12
Fnan
sI13
Fnan
sI14
Fnan
ssg45
(dp266
I0
F0.15053925290988607
sI1
Fnan
sI2
Fnan
sI3
Fnan
sI4
Fnan
sI5
Fnan
sI6
Fnan
sI7
Fnan
sI8
Fnan
sI9
Fnan
sI10
Fnan
sI11
Fnan
sI12
Fnan
sI13
Fnan
sI14
Fnan
ssg47
(dp267
I0
F2.7448370666666664
sI1
Fnan
sI2
Fnan
sI3
Fnan
sI4
Fnan
sI5
Fnan
sI6
Fnan
sI7
Fnan
sI8
Fnan
sI9
Fnan
sI10
Fnan
sI11
Fnan
sI12
Fnan
sI13
Fnan
sI14
Fnan
ssg49
(dp268
I0
F1.4498040647842725
sI1
F1.4885298605299027
sI2
F1.502411352311866
sI3
F1.505670829820561
sI4
F1.5081971711512547
sI5
F1.5076267402281334
sI6
F1.5007463558442005
sI7
F1.508786352904985
sI8
F1.511053039421164
sI9
F1.4978823318513277
sI10
F1.5105036678333412
sI11
F1.5066347947576464
sI12
F1.503668995116613
sI13
F1.5085862202118885
sI14
F1.500230838541138
ssg51
(dp269
I0
g237
sI1
g238
sI2
g239
sI3
g240
sI4
g241
sI5
g242
sI6
g243
sI7
g244
sI8
g245
sI9
g246
sI10
g247
sI11
g248
sI12
g249
sI13
g250
sI14
g251
ssg53
(dp270
I0
F33.38623
sI1
F25.99084
sI2
F24.59726
sI3
F26.03974
sI4
F23.66963
sI5
F25.34566
sI6
F24.45662
sI7
F24.97648
sI8
F22.29466
sI9
F21.33367
sI10
F23.36686
sI11
F22.87845
sI12
F22.10836
sI13
F25.27555
sI14
F24.57133
ssg55
(dp271
I0
F11.970933333333331
sI1
Fnan
sI2
Fnan
sI3
Fnan
sI4
Fnan
sI5
Fnan
sI6
Fnan
sI7
Fnan
sI8
Fnan
sI9
Fnan
sI10
Fnan
sI11
Fnan
sI12
Fnan
sI13
Fnan
sI14
Fnan
ssg57
(dp272
I0
F0.6909812503747543
sI1
Fnan
sI2
Fnan
sI3
Fnan
sI4
Fnan
sI5
Fnan
sI6
Fnan
sI7
Fnan
sI8
Fnan
sI9
Fnan
sI10
Fnan
sI11
Fnan
sI12
Fnan
sI13
Fnan
sI14
Fnan
ssg59
(dp273
I0
F-3.749447
sI1
F3.048973
sI2
F-2.025562
sI3
F-2.653098
sI4
F1.488727
sI5
F-1.876472
sI6
F-2.539475
sI7
F2.505457
sI8
F-2.149588
sI9
F-4.431997
sI10
F-3.256011
sI11
F3.859667
sI12
F-3.807869
sI13
F-4.261573
sI14
F3.329043
ssg61
(dp274
I0
F12.307066666666667
sI1
Fnan
sI2
Fnan
sI3
Fnan
sI4
Fnan
sI5
Fnan
sI6
Fnan
sI7
Fnan
sI8
Fnan
sI9
Fnan
sI10
Fnan
sI11
Fnan
sI12
Fnan
sI13
Fnan
sI14
Fnan
ssg63
(dp275
I0
g237
sI1
g238
sI2
g239
sI3
g240
sI4
g241
sI5
g242
sI6
g243
sI7
g244
sI8
g245
sI9
g246
sI10
g247
sI11
g248
sI12
g249
sI13
g250
sI14
g251
ssg65
(dp276
I0
F1818.9063333333334
sI1
F3098.5326666666665
sI2
F3136.7186666666666
sI3
F3072.501333333333
sI4
F3086.974333333333
sI5
F3116.3396666666667
sI6
F3092.1066666666666
sI7
F3099.585
sI8
F3088.864666666667
sI9
F3179.1566666666668
sI10
F3063.0926666666664
sI11
F3124.864333333333
sI12
F3119.9289999999996
sI13
F3133.563666666667
sI14
F3125.1563333333334
ssg67
(dp277
I0
F1.126514
sI1
F1.124586
sI2
F1.0480399999999999
sI3
F1.046985
sI4
F1.045931
sI5
F1.122676
sI6
F1.1189149999999999
sI7
F1.050222
sI8
F1.0785930000000001
sI9
F1.077167
sI10
F1.08148
sI11
F1.0829520000000001
sI12
F1.0800370000000001
sI13
F1.04913
sI14
F1.120774
ssg69
(dp278
I0
F1470.6163333333332
sI1
F2522.337666666667
sI2
F2543.9803333333334
sI3
F2549.838666666667
sI4
F2500.9289999999996
sI5
F2553.2953333333335
sI6
F2528.536666666667
sI7
F2530.6046666666666
sI8
F2528.2026666666666
sI9
F2592.6006666666667
sI10
F2498.774
sI11
F2556.07
sI12
F2547.79
sI13
F2547.3799999999997
sI14
F2564.968
ssg71
(dp279
I0
F2384.5816666666665
sI1
F4183.416666666667
sI2
F4267.373333333333
sI3
F4232.696666666667
sI4
F4213.83
sI5
F4273.846666666666
sI6
F4217.58
sI7
F4247.376666666667
sI8
F4243.843333333333
sI9
F4322.706666666667
sI10
F4200.61
sI11
F4279.546666666666
sI12
F4261.1866666666665
sI13
F4285.096666666666
sI14
F4268.25
ssg73
(dp280
I0
F34.70445
sI1
F26.3915
sI2
F25.32669
sI3
F24.96154
sI4
F25.60908
sI5
F25.07971
sI6
F24.65032
sI7
F24.6282
sI8
F21.61916
sI9
F22.48109
sI10
F23.34503
sI11
F22.61953
sI12
F21.79888
sI13
F25.31138
sI14
F24.92027
ssg75
(dp281
I0
F13.081
sI1
F12.495
sI2
F12.486
sI3
F12.484
sI4
F12.505
sI5
F12.482
sI6
F12.493
sI7
F12.492
sI8
F12.493
sI9
F12.466
sI10
F12.506
sI11
F12.481
sI12
F12.485
sI13
F12.485
sI14
F12.477
ssg77
(dp282
I0
F0.005
sI1
F0.003
sI2
F0.003
sI3
F0.003
sI4
F0.003
sI5
F0.003
sI6
F0.003
sI7
F0.003
sI8
F0.003
sI9
F0.003
sI10
F0.003
sI11
F0.003
sI12
F0.003
sI13
F0.003
sI14
F0.003
ssg79
(dp283
I0
F0.37401727322769956
sI1
Fnan
sI2
Fnan
sI3
Fnan
sI4
Fnan
sI5
Fnan
sI6
Fnan
sI7
Fnan
sI8
Fnan
sI9
Fnan
sI10
Fnan
sI11
Fnan
sI12
Fnan
sI13
Fnan
sI14
Fnan
ssg81
(dp284
I0
F12.527400000000002
sI1
Fnan
sI2
Fnan
sI3
Fnan
sI4
Fnan
sI5
Fnan
sI6
Fnan
sI7
Fnan
sI8
Fnan
sI9
Fnan
sI10
Fnan
sI11
Fnan
sI12
Fnan
sI13
Fnan
sI14
Fnan
ssg83
(dp285
I0
F12.85
sI1
F12.272
sI2
F12.259
sI3
F12.281
sI4
F12.276
sI5
F12.266
sI6
F12.274
sI7
F12.272
sI8
F12.276
sI9
F12.244
sI10
F12.285
sI11
F12.263
sI12
F12.265
sI13
F12.26
sI14
F12.263
ssg85
(dp286
I0
F5.320569
sI1
F-2.257287
sI2
F2.238553
sI3
F2.610997
sI4
F3.87867
sI5
F4.528984
sI6
F2.831428
sI7
F4.293921
sI8
F3.994743
sI9
F-0.9142286
sI10
F3.548639
sI11
F2.838455
sI12
F3.79124
sI13
F3.727235
sI14
F-2.368082
ssg87
(dp287
I0
F0.16211039742219155
sI1
Fnan
sI2
Fnan
sI3
Fnan
sI4
Fnan
sI5
Fnan
sI6
Fnan
sI7
Fnan
sI8
Fnan
sI9
Fnan
sI10
Fnan
sI11
Fnan
sI12
Fnan
sI13
Fnan
sI14
Fnan
ssg89
(dp288
I0
F0.6997123975771232
sI1
F0.6927644099693452
sI2
F0.6871822590354991
sI3
F0.6980888585543245
sI4
F0.6851105401035036
sI5
F0.6909961990584
sI6
F0.6918317520222026
sI7
F0.6888846795398642
sI8
F0.6895686195786512
sI9
F0.6911884558458588
sI10
F0.6880165983299243
sI11
F0.690418184511908
sI12
F0.6903536308219349
sI13
F0.686749328191824
sI14
F0.6938528424809511
ssg91
(dp289
I0
F30.0
sI1
F30.0
sI2
F30.0
sI3
F30.0
sI4
F30.0
sI5
F30.0
sI6
F30.0
sI7
F30.0
sI8
F30.0
sI9
F30.0
sI10
F30.0
sI11
F30.0
sI12
F30.0
sI13
F30.0
sI14
F30.0
ssg93
(dp290
I0
F0.007
sI1
F0.004
sI2
F0.004
sI3
F0.004
sI4
F0.004
sI5
F0.004
sI6
F0.004
sI7
F0.004
sI8
F0.004
sI9
F0.004
sI10
F0.004
sI11
F0.004
sI12
F0.004
sI13
F0.004
sI14
F0.004
ssg95
(dp291
I0
F0.006
sI1
F0.004
sI2
F0.004
sI3
F0.004
sI4
F0.004
sI5
F0.004
sI6
F0.004
sI7
F0.004
sI8
F0.004
sI9
F0.004
sI10
F0.004
sI11
F0.004
sI12
F0.004
sI13
F0.004
sI14
F0.004
ssg97
(dp292
I0
F3.505875
sI1
F3.893431
sI2
F4.280994
sI3
F-2.276793
sI4
F4.925948
sI5
F3.260546
sI6
F3.071404
sI7
F4.14066
sI8
F1.526211
sI9
F4.278744
sI10
F-2.235338
sI11
F0.938529
sI12
F3.835647
sI13
F4.188035
sI14
F3.838663
ssg99
(dp293
I0
S"KIC8462852-20180728at045417_-25-1X1-030-z'_cal.fts.mag.1"
p294
sI1
S"KIC8462852-20180728at045523_-25-1X1-030-z'_cal.fts.mag.1"
p295
sI2
S"KIC8462852-20180728at055033_-25-1X1-030-z'_cal.fts.mag.1"
p296
sI3
S"KIC8462852-20180728at055138_-25-1X1-030-z'_cal.fts.mag.1"
p297
sI4
S"KIC8462852-20180728at055241_-25-1X1-030-z'_cal.fts.mag.1"
p298
sI5
S"KIC8462852-20180728at045626_-25-1X1-030-z'_cal.fts.mag.1"
p299
sI6
S"KIC8462852-20180728at045834_-25-1X1-030-z'_cal.fts.mag.1"
p300
sI7
S"KIC8462852-20180728at054824_-25-1X1-030-z'_cal.fts.mag.1"
p301
sI8
S"KIC8462852-20180728at052437_-25-1X1-030-z'_cal.fts.mag.1"
p302
sI9
S"KIC8462852-20180728at052541_-25-1X1-030-z'_cal.fts.mag.1"
p303
sI10
S"KIC8462852-20180728at052231_-25-1X1-030-z'_cal.fts.mag.1"
p304
sI11
S"KIC8462852-20180728at052126_-25-1X1-030-z'_cal.fts.mag.1"
p305
sI12
S"KIC8462852-20180728at052334_-25-1X1-030-z'_cal.fts.mag.1"
p306
sI13
S"KIC8462852-20180728at054929_-25-1X1-030-z'_cal.fts.mag.1"
p307
sI14
S"KIC8462852-20180728at045730_-25-1X1-030-z'_cal.fts.mag.1"
p308
ssg111
(dp309
I0
F0.015244223651675113
sI1
Fnan
sI2
Fnan
sI3
Fnan
sI4
Fnan
sI5
Fnan
sI6
Fnan
sI7
Fnan
sI8
Fnan
sI9
Fnan
sI10
Fnan
sI11
Fnan
sI12
Fnan
sI13
Fnan
sI14
Fnan
ssg113
(dp310
I0
F738.6266666666667
sI1
F1236.638
sI2
F1227.1893333333333
sI3
F1230.2173333333333
sI4
F1212.4183333333335
sI5
F1237.1393333333333
sI6
F1206.365
sI7
F1252.4213333333332
sI8
F1222.2956666666666
sI9
F1250.8236666666667
sI10
F1224.154
sI11
F1233.7926666666667
sI12
F1212.5626666666665
sI13
F1242.1293333333333
sI14
F1236.5636666666667
ssg115
(dp311
I0
F0.15348792414109597
sI1
Fnan
sI2
Fnan
sI3
Fnan
sI4
Fnan
sI5
Fnan
sI6
Fnan
sI7
Fnan
sI8
Fnan
sI9
Fnan
sI10
Fnan
sI11
Fnan
sI12
Fnan
sI13
Fnan
sI14
Fnan
ssg117
(dp312
I0
S"z'"
p313
sI1
S"z'"
p314
sI2
S"z'"
p315
sI3
S"z'"
p316
sI4
S"z'"
p317
sI5
S"z'"
p318
sI6
S"z'"
p319
sI7
S"z'"
p320
sI8
S"z'"
p321
sI9
S"z'"
p322
sI10
S"z'"
p323
sI11
S"z'"
p324
sI12
S"z'"
p325
sI13
S"z'"
p326
sI14
S"z'"
p327
ssg129
(dp328
I0
F0.005831545422450994
sI1
Fnan
sI2
Fnan
sI3
Fnan
sI4
Fnan
sI5
Fnan
sI6
Fnan
sI7
Fnan
sI8
Fnan
sI9
Fnan
sI10
Fnan
sI11
Fnan
sI12
Fnan
sI13
Fnan
sI14
Fnan
ssg131
(dp329
I0
F2.261088
sI1
F1.000083
sI2
F-2.719012
sI3
F3.22944
sI4
F-3.684582
sI5
F-2.419539
sI6
F-4.310396
sI7
F2.390769
sI8
F4.069321
sI9
F-3.268336
sI10
F4.211587
sI11
F-4.343159
sI12
F-4.428898
sI13
F3.812431
sI14
F-2.375727
ssg133
(dp330
I0
F1.5006888410205532
sI1
Fnan
sI2
Fnan
sI3
Fnan
sI4
Fnan
sI5
Fnan
sI6
Fnan
sI7
Fnan
sI8
Fnan
sI9
Fnan
sI10
Fnan
sI11
Fnan
sI12
Fnan
sI13
Fnan
sI14
Fnan
ssg135
(dp331
I0
F2458327.724699074
sI1
Fnan
sI2
Fnan
sI3
Fnan
sI4
Fnan
sI5
Fnan
sI6
Fnan
sI7
Fnan
sI8
Fnan
sI9
Fnan
sI10
Fnan
sI11
Fnan
sI12
Fnan
sI13
Fnan
sI14
Fnan
ssg137
(dp332
I0
F0.005831545422450994
sI1
Fnan
sI2
Fnan
sI3
Fnan
sI4
Fnan
sI5
Fnan
sI6
Fnan
sI7
Fnan
sI8
Fnan
sI9
Fnan
sI10
Fnan
sI11
Fnan
sI12
Fnan
sI13
Fnan
sI14
Fnan
ssg139
(dp333
I0
F35.14293
sI1
F27.28148
sI2
F26.00809
sI3
F25.91746
sI4
F25.49147
sI5
F25.56289
sI6
F25.57139
sI7
F26.75502
sI8
F22.39384
sI9
F23.5391
sI10
F23.10138
sI11
F23.03664
sI12
F22.67565
sI13
F25.43704
sI14
F26.0313
ssg141
(dp334
I0
F12.556
sI1
F11.946
sI2
F11.925
sI3
F11.933
sI4
F11.938
sI5
F11.923
sI6
F11.937
sI7
F11.93
sI8
F11.931
sI9
F11.911
sI10
F11.942
sI11
F11.922
sI12
F11.926
sI13
F11.92
sI14
F11.924
ssg143
(dp335
I0
F0.37401727322769956
sI1
Fnan
sI2
Fnan
sI3
Fnan
sI4
Fnan
sI5
Fnan
sI6
Fnan
sI7
Fnan
sI8
Fnan
sI9
Fnan
sI10
Fnan
sI11
Fnan
sI12
Fnan
sI13
Fnan
sI14
Fnan
sssS'g'
p336
(dp337
g3
(dp338
I0
F0.865781872303246
sI1
Fnan
sI2
Fnan
sI3
Fnan
sI4
Fnan
sI5
Fnan
sI6
Fnan
sI7
Fnan
sI8
Fnan
sI9
Fnan
sI10
Fnan
sI11
Fnan
sI12
Fnan
sI13
Fnan
sI14
Fnan
ssg5
(dp339
I0
S'NoError'
p340
sI1
S'NoError'
p341
sI2
S'NoError'
p342
sI3
S'NoError'
p343
sI4
S'NoError'
p344
sI5
S'NoError'
p345
sI6
S'NoError'
p346
sI7
S'NoError'
p347
sI8
S'NoError'
p348
sI9
S'NoError'
p349
sI10
S'NoError'
p350
sI11
S'NoError'
p351
sI12
S'NoError'
p352
sI13
S'NoError'
p353
sI14
S'NoError'
p354
ssg17
(dp355
I0
F0.003
sI1
F0.003
sI2
F0.003
sI3
F0.003
sI4
F0.003
sI5
F0.003
sI6
F0.003
sI7
F0.003
sI8
F0.003
sI9
F0.003
sI10
F0.003
sI11
F0.003
sI12
F0.003
sI13
F0.003
sI14
F0.003
ssg19
(dp356
I0
F0.8796394411409985
sI1
F0.8862887092091968
sI2
F0.8731413234530122
sI3
F0.8848564777383628
sI4
F0.8828293287273582
sI5
F0.8809439092077254
sI6
F0.8843228754296028
sI7
F0.8781032594195496
sI8
F0.878457768303579
sI9
F0.8865048029979872
sI10
F0.8808478217393263
sI11
F0.8783041698734745
sI12
F0.8852219459035164
sI13
F0.8843216431517985
sI14
F0.8845611196317448
ssg21
(dp357
I0
F0.0038075044988159887
sI1
Fnan
sI2
Fnan
sI3
Fnan
sI4
Fnan
sI5
Fnan
sI6
Fnan
sI7
Fnan
sI8
Fnan
sI9
Fnan
sI10
Fnan
sI11
Fnan
sI12
Fnan
sI13
Fnan
sI14
Fnan
ssg23
(dp358
I0
F0.8818896397284823
sI1
Fnan
sI2
Fnan
sI3
Fnan
sI4
Fnan
sI5
Fnan
sI6
Fnan
sI7
Fnan
sI8
Fnan
sI9
Fnan
sI10
Fnan
sI11
Fnan
sI12
Fnan
sI13
Fnan
sI14
Fnan
ssg25
(dp359
I0
F11.529
sI1
F11.521
sI2
F11.466
sI3
F11.513
sI4
F11.533
sI5
F11.503
sI6
F11.51
sI7
F11.524
sI8
F11.515
sI9
F11.491
sI10
F11.488
sI11
F11.514
sI12
F11.523
sI13
F11.504
sI14
F11.531
ssg27
(dp360
I0
F167.5574
sI1
F169.22
sI2
F169.3231
sI3
F160.3961
sI4
F175.0515
sI5
F174.558
sI6
F161.6765
sI7
F174.6916
sI8
F158.9765
sI9
F173.5792
sI10
F170.2962
sI11
F171.4627
sI12
F166.0886
sI13
F173.2628
sI14
F167.9257
ssg29
(dp361
I0
F2458327.7127777776
sI1
F2458327.713587963
sI2
F2458327.7308449075
sI3
F2458327.6940162037
sI4
F2458327.714363426
sI5
F2458327.73380787
sI6
F2458327.6947800927
sI7
F2458327.715104167
sI8
F2458327.693263889
sI9
F2458327.732337963
sI10
F2458327.7315856484
sI11
F2458327.696273148
sI12
F2458327.712025463
sI13
F2458327.7330671297
sI14
F2458327.6955324076
ssg31
(dp362
I0
F1.1998676
sI1
Fnan
sI2
Fnan
sI3
Fnan
sI4
Fnan
sI5
Fnan
sI6
Fnan
sI7
Fnan
sI8
Fnan
sI9
Fnan
sI10
Fnan
sI11
Fnan
sI12
Fnan
sI13
Fnan
sI14
Fnan
ssg33
(dp363
I0
F0.5033847333333333
sI1
Fnan
sI2
Fnan
sI3
Fnan
sI4
Fnan
sI5
Fnan
sI6
Fnan
sI7
Fnan
sI8
Fnan
sI9
Fnan
sI10
Fnan
sI11
Fnan
sI12
Fnan
sI13
Fnan
sI14
Fnan
ssg35
(dp364
I0
F0.8680008122186814
sI1
F0.8683760817038741
sI2
F0.8675359474646331
sI3
F0.8633364692244793
sI4
F0.8636756960739982
sI5
F0.8653832661566756
sI6
F0.8626907058620382
sI7
F0.8623796285254309
sI8
F0.8663024997354006
sI9
F0.8656315017807754
sI10
F0.8721988979549552
sI11
F0.8727165442251708
sI12
F0.8683005549387488
sI13
F0.8635555241445726
sI14
F0.8699956521128887
ssg37
(dp365
I0
F0.0024144727622438015
sI1
Fnan
sI2
Fnan
sI3
Fnan
sI4
Fnan
sI5
Fnan
sI6
Fnan
sI7
Fnan
sI8
Fnan
sI9
Fnan
sI10
Fnan
sI11
Fnan
sI12
Fnan
sI13
Fnan
sI14
Fnan
ssg39
(dp366
I0
F-0.42375453333333307
sI1
Fnan
sI2
Fnan
sI3
Fnan
sI4
Fnan
sI5
Fnan
sI6
Fnan
sI7
Fnan
sI8
Fnan
sI9
Fnan
sI10
Fnan
sI11
Fnan
sI12
Fnan
sI13
Fnan
sI14
Fnan
ssg41
(dp367
I0
g340
sI1
g341
sI2
g342
sI3
g343
sI4
g344
sI5
g345
sI6
g346
sI7
g347
sI8
g348
sI9
g349
sI10
g350
sI11
g351
sI12
g352
sI13
g353
sI14
g354
ssg43
(dp368
I0
F0.00282806571825965
sI1
Fnan
sI2
Fnan
sI3
Fnan
sI4
Fnan
sI5
Fnan
sI6
Fnan
sI7
Fnan
sI8
Fnan
sI9
Fnan
sI10
Fnan
sI11
Fnan
sI12
Fnan
sI13
Fnan
sI14
Fnan
ssg45
(dp369
I0
F0.017630601102574278
sI1
Fnan
sI2
Fnan
sI3
Fnan
sI4
Fnan
sI5
Fnan
sI6
Fnan
sI7
Fnan
sI8
Fnan
sI9
Fnan
sI10
Fnan
sI11
Fnan
sI12
Fnan
sI13
Fnan
sI14
Fnan
ssg47
(dp370
I0
F0.9557641999999998
sI1
Fnan
sI2
Fnan
sI3
Fnan
sI4
Fnan
sI5
Fnan
sI6
Fnan
sI7
Fnan
sI8
Fnan
sI9
Fnan
sI10
Fnan
sI11
Fnan
sI12
Fnan
sI13
Fnan
sI14
Fnan
ssg49
(dp371
I0
F1.505132842270155
sI1
F1.5038972016259218
sI2
F1.5184600258128251
sI3
F1.5001569425966974
sI4
F1.5023333881741123
sI5
F1.5059041731397769
sI6
F1.5078493362102308
sI7
F1.5101139603857054
sI8
F1.5083483775948128
sI9
F1.50595285420039
sI10
F1.5034428878693853
sI11
F1.4993888206773165
sI12
F1.4999150034955153
sI13
F1.4999795647478278
sI14
F1.506638739691559
ssg51
(dp372
I0
g340
sI1
g341
sI2
g342
sI3
g343
sI4
g344
sI5
g345
sI6
g346
sI7
g347
sI8
g348
sI9
g349
sI10
g350
sI11
g351
sI12
g352
sI13
g353
sI14
g354
ssg53
(dp373
I0
F167.0805
sI1
F170.2342
sI2
F169.7094
sI3
F160.4774
sI4
F175.2034
sI5
F175.8557
sI6
F160.9952
sI7
F174.2368
sI8
F160.1559
sI9
F173.4851
sI10
F171.5496
sI11
F174.2691
sI12
F165.3711
sI13
F174.7913
sI14
F167.0408
ssg55
(dp374
I0
F11.080666666666668
sI1
Fnan
sI2
Fnan
sI3
Fnan
sI4
Fnan
sI5
Fnan
sI6
Fnan
sI7
Fnan
sI8
Fnan
sI9
Fnan
sI10
Fnan
sI11
Fnan
sI12
Fnan
sI13
Fnan
sI14
Fnan
ssg57
(dp375
I0
F0.7195276586230961
sI1
Fnan
sI2
Fnan
sI3
Fnan
sI4
Fnan
sI5
Fnan
sI6
Fnan
sI7
Fnan
sI8
Fnan
sI9
Fnan
sI10
Fnan
sI11
Fnan
sI12
Fnan
sI13
Fnan
sI14
Fnan
ssg59
(dp376
I0
F6.999401
sI1
F6.601477
sI2
F5.021189
sI3
F7.293774
sI4
F-6.279783
sI5
F-4.540777
sI6
F2.541801
sI7
F-4.625782
sI8
F2.720308
sI9
F1.282408
sI10
F6.471303
sI11
F3.426949
sI12
F-5.870007
sI13
F-5.828754
sI14
F-7.662736
ssg61
(dp377
I0
F11.448533333333334
sI1
Fnan
sI2
Fnan
sI3
Fnan
sI4
Fnan
sI5
Fnan
sI6
Fnan
sI7
Fnan
sI8
Fnan
sI9
Fnan
sI10
Fnan
sI11
Fnan
sI12
Fnan
sI13
Fnan
sI14
Fnan
ssg63
(dp378
I0
g340
sI1
g341
sI2
g342
sI3
g343
sI4
g344
sI5
g345
sI6
g346
sI7
g347
sI8
g348
sI9
g349
sI10
g350
sI11
g351
sI12
g352
sI13
g353
sI14
g354
ssg65
(dp379
I0
F6488.833333333333
sI1
F6564.016666666666
sI2
F6840.366666666667
sI3
F6646.8
sI4
F6508.276666666667
sI5
F6668.316666666667
sI6
F6664.286666666667
sI7
F6549.5
sI8
F6574.266666666666
sI9
F6771.53
sI10
F6709.426666666666
sI11
F6531.453333333334
sI12
F6548.45
sI13
F6695.179999999999
sI14
F6481.6466666666665
ssg67
(dp380
I0
F1.105702
sI1
F1.103792
sI2
F1.06844
sI3
F1.155565
sI4
F1.102033
sI5
F1.063265
sI6
F1.153303
sI7
F1.100352
sI8
F1.157874
sI9
F1.065818
sI10
F1.067118
sI11
F1.148939
sI12
F1.107459
sI13
F1.064534
sI14
F1.1511120000000001
ssg69
(dp381
I0
F5631.806666666667
sI1
F5637.473333333333
sI2
F5954.306666666667
sI3
F5735.6466666666665
sI4
F5627.866666666667
sI5
F5772.036666666667
sI6
F5728.693333333333
sI7
F5681.943333333333
sI8
F5706.163333333333
sI9
F5806.1900000000005
sI10
F5817.363333333333
sI11
F5701.7266666666665
sI12
F5648.13
sI13
F5783.256666666667
sI14
F5573.6033333333335
ssg71
(dp382
I0
F9121.586666666666
sI1
F9174.893333333333
sI2
F9714.1
sI3
F9287.806666666667
sI4
F9116.266666666666
sI5
F9366.99
sI6
F9343.373333333333
sI7
F9235.436666666666
sI8
F9261.583333333334
sI9
F9470.726666666666
sI10
F9416.656666666668
sI11
F9171.146666666667
sI12
F9146.916666666666
sI13
F9358.7
sI14
F9081.453333333333
ssg73
(dp383
I0
F166.5117
sI1
F169.119
sI2
F168.4113
sI3
F160.2864
sI4
F174.7626
sI5
F174.2985
sI6
F159.8227
sI7
F172.7233
sI8
F157.1596
sI9
F171.3848
sI10
F169.6605
sI11
F170.821
sI12
F165.5957
sI13
F171.5686
sI14
F166.4852
ssg75
(dp384
I0
F11.623
sI1
F11.622
sI2
F11.563
sI3
F11.604
sI4
F11.624
sI5
F11.597
sI6
F11.605
sI7
F11.614
sI8
F11.609
sI9
F11.59
sI10
F11.588
sI11
F11.61
sI12
F11.62
sI13
F11.595
sI14
F11.635
ssg77
(dp385
I0
F0.002
sI1
F0.002
sI2
F0.002
sI3
F0.002
sI4
F0.002
sI5
F0.002
sI6
F0.002
sI7
F0.002
sI8
F0.002
sI9
F0.002
sI10
F0.002
sI11
F0.002
sI12
F0.002
sI13
F0.002
sI14
F0.002
ssg79
(dp386
I0
F0.8666719854748216
sI1
Fnan
sI2
Fnan
sI3
Fnan
sI4
Fnan
sI5
Fnan
sI6
Fnan
sI7
Fnan
sI8
Fnan
sI9
Fnan
sI10
Fnan
sI11
Fnan
sI12
Fnan
sI13
Fnan
sI14
Fnan
ssg81
(dp387
I0
F11.606599999999998
sI1
Fnan
sI2
Fnan
sI3
Fnan
sI4
Fnan
sI5
Fnan
sI6
Fnan
sI7
Fnan
sI8
Fnan
sI9
Fnan
sI10
Fnan
sI11
Fnan
sI12
Fnan
sI13
Fnan
sI14
Fnan
ssg83
(dp388
I0
F11.47
sI1
F11.457
sI2
F11.412
sI3
F11.443
sI4
F11.466
sI5
F11.44
sI6
F11.441
sI7
F11.459
sI8
F11.455
sI9
F11.423
sI10
F11.433
sI11
F11.462
sI12
F11.46
sI13
F11.436
sI14
F11.471
ssg85
(dp389
I0
F-6.83631
sI1
F4.974514
sI2
F7.544791
sI3
F-4.203026
sI4
F7.876542
sI5
F-6.044264
sI6
F4.547301
sI7
F-6.028639
sI8
F6.566701
sI9
F-4.601171
sI10
F-3.82384
sI11
F-2.860545
sI12
F6.871766
sI13
F7.111687
sI14
F6.902507
ssg87
(dp390
I0
F0.019576467894850017
sI1
Fnan
sI2
Fnan
sI3
Fnan
sI4
Fnan
sI5
Fnan
sI6
Fnan
sI7
Fnan
sI8
Fnan
sI9
Fnan
sI10
Fnan
sI11
Fnan
sI12
Fnan
sI13
Fnan
sI14
Fnan
ssg89
(dp391
I0
F0.7215445409754084
sI1
F0.7163740479275037
sI2
F0.7193595283448173
sI3
F0.7198981169287307
sI4
F0.7203879878729256
sI5
F0.7199159687622646
sI6
F0.715744004224644
sI7
F0.7199196871447694
sI8
F0.7206639786728635
sI9
F0.7149486822130835
sI10
F0.7214849648344038
sI11
F0.726214342423123
sI12
F0.7197194076383477
sI13
F0.7204808640237335
sI14
F0.7162587573598235
ssg91
(dp392
I0
F30.0
sI1
F30.0
sI2
F30.0
sI3
F30.0
sI4
F30.0
sI5
F30.0
sI6
F30.0
sI7
F30.0
sI8
F30.0
sI9
F30.0
sI10
F30.0
sI11
F30.0
sI12
F30.0
sI13
F30.0
sI14
F30.0
ssg93
(dp393
I0
F0.003
sI1
F0.003
sI2
F0.003
sI3
F0.003
sI4
F0.003
sI5
F0.003
sI6
F0.003
sI7
F0.003
sI8
F0.003
sI9
F0.003
sI10
F0.003
sI11
F0.003
sI12
F0.003
sI13
F0.003
sI14
F0.003
ssg95
(dp394
I0
F0.003
sI1
F0.003
sI2
F0.003
sI3
F0.003
sI4
F0.003
sI5
F0.003
sI6
F0.003
sI7
F0.003
sI8
F0.003
sI9
F0.003
sI10
F0.003
sI11
F0.003
sI12
F0.003
sI13
F0.003
sI14
F0.003
ssg97
(dp395
I0
F6.57579
sI1
F-5.702015
sI2
F6.165101
sI3
F4.629454
sI4
F-6.26615
sI5
F2.238624
sI6
F-4.271593
sI7
F5.122355
sI8
F-6.124241
sI9
F-3.903257
sI10
F-6.520413
sI11
F3.146103
sI12
F6.924716
sI13
F5.724261
sI14
F6.597728
ssg99
(dp396
I0
S"KIC8462852-20180728at050624_-25-1X1-030-g'_cal.fts.mag.1"
p397
sI1
S"KIC8462852-20180728at050734_-25-1X1-030-g'_cal.fts.mag.1"
p398
sI2
S"KIC8462852-20180728at053220_-25-1X1-030-g'_cal.fts.mag.1"
p399
sI3
S"KIC8462852-20180728at043923_-23-1X1-030-g'_cal.fts.mag.1"
p400
sI4
S"KIC8462852-20180728at050840_-25-1X1-030-g'_cal.fts.mag.1"
p401
sI5
S"KIC8462852-20180728at053641_-25-1X1-030-g'_cal.fts.mag.1"
p402
sI6
S"KIC8462852-20180728at044029_-25-1X1-030-g'_cal.fts.mag.1"
p403
sI7
S"KIC8462852-20180728at050945_-25-1X1-030-g'_cal.fts.mag.1"
p404
sI8
S"KIC8462852-20180728at043808_-17-1X1-030-g'_cal.fts.mag.1"
p405
sI9
S"KIC8462852-20180728at053434_-25-1X1-030-g'_cal.fts.mag.1"
p406
sI10
S"KIC8462852-20180728at053329_-25-1X1-030-g'_cal.fts.mag.1"
p407
sI11
S"KIC8462852-20180728at044238_-26-1X1-030-g'_cal.fts.mag.1"
p408
sI12
S"KIC8462852-20180728at050515_-25-1X1-030-g'_cal.fts.mag.1"
p409
sI13
S"KIC8462852-20180728at053537_-25-1X1-030-g'_cal.fts.mag.1"
p410
sI14
S"KIC8462852-20180728at044134_-26-1X1-030-g'_cal.fts.mag.1"
p411
ssg111
(dp412
I0
F0.004981512270605214
sI1
Fnan
sI2
Fnan
sI3
Fnan
sI4
Fnan
sI5
Fnan
sI6
Fnan
sI7
Fnan
sI8
Fnan
sI9
Fnan
sI10
Fnan
sI11
Fnan
sI12
Fnan
sI13
Fnan
sI14
Fnan
ssg113
(dp413
I0
F6146.09
sI1
F6187.58
sI2
F6509.056666666667
sI3
F6236.240000000001
sI4
F6118.3966666666665
sI5
F6290.570000000001
sI6
F6250.583333333333
sI7
F6170.866666666667
sI8
F6220.633333333333
sI9
F6361.943333333333
sI10
F6379.683333333333
sI11
F6226.636666666667
sI12
F6177.5233333333335
sI13
F6285.86
sI14
F6129.613333333333
ssg115
(dp414
I0
F0.01817690842800272
sI1
Fnan
sI2
Fnan
sI3
Fnan
sI4
Fnan
sI5
Fnan
sI6
Fnan
sI7
Fnan
sI8
Fnan
sI9
Fnan
sI10
Fnan
sI11
Fnan
sI12
Fnan
sI13
Fnan
sI14
Fnan
ssg117
(dp415
I0
S"g'"
p416
sI1
S"g'"
p417
sI2
S"g'"
p418
sI3
S"g'"
p419
sI4
S"g'"
p420
sI5
S"g'"
p421
sI6
S"g'"
p422
sI7
S"g'"
p423
sI8
S"g'"
p424
sI9
S"g'"
p425
sI10
S"g'"
p426
sI11
S"g'"
p427
sI12
S"g'"
p428
sI13
S"g'"
p429
sI14
S"g'"
p430
ssg129
(dp431
I0
F0.003307666358641752
sI1
Fnan
sI2
Fnan
sI3
Fnan
sI4
Fnan
sI5
Fnan
sI6
Fnan
sI7
Fnan
sI8
Fnan
sI9
Fnan
sI10
Fnan
sI11
Fnan
sI12
Fnan
sI13
Fnan
sI14
Fnan
ssg131
(dp432
I0
F6.552461
sI1
F5.434991
sI2
F-6.188429
sI3
F-4.121634
sI4
F-5.72197
sI5
F4.18747
sI6
F-6.885964
sI7
F-5.911368
sI8
F3.970487
sI9
F4.739741
sI10
F-4.239823
sI11
F4.949822
sI12
F6.306549
sI13
F-5.28532
sI14
F-4.143331
ssg133
(dp433
I0
F1.5051676078994825
sI1
Fnan
sI2
Fnan
sI3
Fnan
sI4
Fnan
sI5
Fnan
sI6
Fnan
sI7
Fnan
sI8
Fnan
sI9
Fnan
sI10
Fnan
sI11
Fnan
sI12
Fnan
sI13
Fnan
sI14
Fnan
ssg135
(dp434
I0
F2458327.713587963
sI1
Fnan
sI2
Fnan
sI3
Fnan
sI4
Fnan
sI5
Fnan
sI6
Fnan
sI7
Fnan
sI8
Fnan
sI9
Fnan
sI10
Fnan
sI11
Fnan
sI12
Fnan
sI13
Fnan
sI14
Fnan
ssg137
(dp435
I0
F0.003307666358641752
sI1
Fnan
sI2
Fnan
sI3
Fnan
sI4
Fnan
sI5
Fnan
sI6
Fnan
sI7
Fnan
sI8
Fnan
sI9
Fnan
sI10
Fnan
sI11
Fnan
sI12
Fnan
sI13
Fnan
sI14
Fnan
ssg139
(dp436
I0
F171.482
sI1
F172.0577
sI2
F170.2934
sI3
F162.5652
sI4
F177.2443
sI5
F176.8904
sI6
F162.2991
sI7
F176.482
sI8
F159.5403
sI9
F174.2672
sI10
F173.879
sI11
F175.0415
sI12
F168.7061
sI13
F175.8464
sI14
F167.7881
ssg141
(dp437
I0
F11.1
sI1
F11.093
sI2
F11.031
sI3
F11.08
sI4
F11.1
sI5
F11.071
sI6
F11.074
sI7
F11.086
sI8
F11.083
sI9
F11.059
sI10
F11.065
sI11
F11.094
sI12
F11.097
sI13
F11.072
sI14
F11.105
ssg143
(dp438
I0
F0.8666719854748216
sI1
Fnan
sI2
Fnan
sI3
Fnan
sI4
Fnan
sI5
Fnan
sI6
Fnan
sI7
Fnan
sI8
Fnan
sI9
Fnan
sI10
Fnan
sI11
Fnan
sI12
Fnan
sI13
Fnan
sI14
Fnan
sssS'V'
p439
(dp440
g3
(dp441
I0
F0.6936424614120205
sI1
Fnan
sI2
Fnan
sI3
Fnan
sI4
Fnan
sI5
Fnan
sI6
Fnan
sI7
Fnan
sI8
Fnan
sI9
Fnan
sI10
Fnan
sI11
Fnan
sI12
Fnan
sI13
Fnan
sI14
Fnan
ssg5
(dp442
I0
S'NoError'
p443
sI1
S'NoError'
p444
sI2
S'NoError'
p445
sI3
S'NoError'
p446
sI4
S'NoError'
p447
sI5
S'NoError'
p448
sI6
S'NoError'
p449
sI7
S'NoError'
p450
sI8
S'NoError'
p451
sI9
S'NoError'
p452
sI10
S'NoError'
p453
sI11
S'NoError'
p454
sI12
S'NoError'
p455
sI13
S'NoError'
p456
sI14
S'NoError'
p457
ssg17
(dp458
I0
F0.003
sI1
F0.003
sI2
F0.003
sI3
F0.003
sI4
F0.003
sI5
F0.003
sI6
F0.003
sI7
F0.003
sI8
F0.003
sI9
F0.003
sI10
F0.003
sI11
F0.003
sI12
F0.003
sI13
F0.003
sI14
F0.003
ssg19
(dp459
I0
F0.8932727081622086
sI1
F0.8864734712063268
sI2
F0.8888345383930748
sI3
F0.8892422359906933
sI4
F0.8888340747167319
sI5
F0.8895566616358085
sI6
F0.8820970251073654
sI7
F0.8840619986371093
sI8
F0.8895944167856014
sI9
F0.8906786312633811
sI10
F0.8825564414012538
sI11
F0.886068626540959
sI12
F0.8816271912696734
sI13
F0.8849424548054686
sI14
F0.8811330036506746
ssg21
(dp460
I0
F0.0037470518123545004
sI1
Fnan
sI2
Fnan
sI3
Fnan
sI4
Fnan
sI5
Fnan
sI6
Fnan
sI7
Fnan
sI8
Fnan
sI9
Fnan
sI10
Fnan
sI11
Fnan
sI12
Fnan
sI13
Fnan
sI14
Fnan
ssg23
(dp461
I0
F0.8865982319710888
sI1
Fnan
sI2
Fnan
sI3
Fnan
sI4
Fnan
sI5
Fnan
sI6
Fnan
sI7
Fnan
sI8
Fnan
sI9
Fnan
sI10
Fnan
sI11
Fnan
sI12
Fnan
sI13
Fnan
sI14
Fnan
ssg25
(dp462
I0
F11.503
sI1
F11.554
sI2
F11.501
sI3
F11.475
sI4
F11.503
sI5
F11.513
sI6
F11.458
sI7
F11.471
sI8
F11.467
sI9
F11.512
sI10
F11.51
sI11
F11.498
sI12
F11.522
sI13
F11.467
sI14
F11.507
ssg27
(dp463
I0
F161.4626
sI1
F162.4325
sI2
F150.63
sI3
F146.2827
sI4
F147.4346
sI5
F162.9278
sI6
F142.6717
sI7
F141.8148
sI8
F141.4769
sI9
F163.1795
sI10
F145.741
sI11
F145.1319
sI12
F161.7559
sI13
F143.6546
sI14
F146.39
ssg29
(dp464
I0
F2458327.7457407406
sI1
F2458327.74875
sI2
F2458327.7081597224
sI3
F2458327.729224537
sI4
F2458327.7096412037
sI5
F2458327.7464930555
sI6
F2458327.728472222
sI7
F2458327.7269791667
sI8
F2458327.7277314817
sI9
F2458327.7472453704
sI10
F2458327.711145833
sI11
F2458327.7104050927
sI12
F2458327.7479976853
sI13
F2458327.729976852
sI14
F2458327.708900463
ssg31
(dp465
I0
F0.8399335333333335
sI1
Fnan
sI2
Fnan
sI3
Fnan
sI4
Fnan
sI5
Fnan
sI6
Fnan
sI7
Fnan
sI8
Fnan
sI9
Fnan
sI10
Fnan
sI11
Fnan
sI12
Fnan
sI13
Fnan
sI14
Fnan
ssg33
(dp466
I0
F-1.6456457333333332
sI1
Fnan
sI2
Fnan
sI3
Fnan
sI4
Fnan
sI5
Fnan
sI6
Fnan
sI7
Fnan
sI8
Fnan
sI9
Fnan
sI10
Fnan
sI11
Fnan
sI12
Fnan
sI13
Fnan
sI14
Fnan
ssg35
(dp467
I0
F0.6928728283560829
sI1
F0.6952111352781316
sI2
F0.691915335594021
sI3
F0.69106537470076
sI4
F0.6967771011073136
sI5
F0.6915401319169381
sI6
F0.6948301882129917
sI7
F0.6954032064200387
sI8
F0.6926969812892881
sI9
F0.6944704383533127
sI10
F0.6943916951356681
sI11
F0.6972744624141394
sI12
F0.6919097435351664
sI13
F0.6942678384565539
sI14
F0.689616114962673
ssg37
(dp468
I0
F0.0016863324530521258
sI1
Fnan
sI2
Fnan
sI3
Fnan
sI4
Fnan
sI5
Fnan
sI6
Fnan
sI7
Fnan
sI8
Fnan
sI9
Fnan
sI10
Fnan
sI11
Fnan
sI12
Fnan
sI13
Fnan
sI14
Fnan
ssg39
(dp469
I0
F1.0811793333333333
sI1
Fnan
sI2
Fnan
sI3
Fnan
sI4
Fnan
sI5
Fnan
sI6
Fnan
sI7
Fnan
sI8
Fnan
sI9
Fnan
sI10
Fnan
sI11
Fnan
sI12
Fnan
sI13
Fnan
sI14
Fnan
ssg41
(dp470
I0
g443
sI1
g444
sI2
g445
sI3
g446
sI4
g447
sI5
g448
sI6
g449
sI7
g450
sI8
g451
sI9
g452
sI10
g453
sI11
g454
sI12
g455
sI13
g456
sI14
g457
ssg43
(dp471
I0
F0.0018933069785055
sI1
Fnan
sI2
Fnan
sI3
Fnan
sI4
Fnan
sI5
Fnan
sI6
Fnan
sI7
Fnan
sI8
Fnan
sI9
Fnan
sI10
Fnan
sI11
Fnan
sI12
Fnan
sI13
Fnan
sI14
Fnan
ssg45
(dp472
I0
F0.02578168415940352
sI1
Fnan
sI2
Fnan
sI3
Fnan
sI4
Fnan
sI5
Fnan
sI6
Fnan
sI7
Fnan
sI8
Fnan
sI9
Fnan
sI10
Fnan
sI11
Fnan
sI12
Fnan
sI13
Fnan
sI14
Fnan
ssg47
(dp473
I0
F0.9135914000000002
sI1
Fnan
sI2
Fnan
sI3
Fnan
sI4
Fnan
sI5
Fnan
sI6
Fnan
sI7
Fnan
sI8
Fnan
sI9
Fnan
sI10
Fnan
sI11
Fnan
sI12
Fnan
sI13
Fnan
sI14
Fnan
ssg49
(dp474
I0
F1.4930103953772498
sI1
F1.5007519006910188
sI2
F1.4970671168326097
sI3
F1.4951052183705733
sI4
F1.5006365679426452
sI5
F1.4918525365183433
sI6
F1.501203037257075
sI7
F1.4978233650016268
sI8
F1.493936974289795
sI9
F1.4939091454274804
sI10
F1.506219647858936
sI11
F1.495002606767747
sI12
F1.507708685310672
sI13
F1.500536343498952
sI14
F1.5027160297144442
ssg51
(dp475
I0
g443
sI1
g444
sI2
g445
sI3
g446
sI4
g447
sI5
g448
sI6
g449
sI7
g450
sI8
g451
sI9
g452
sI10
g453
sI11
g454
sI12
g455
sI13
g456
sI14
g457
ssg53
(dp476
I0
F162.0265
sI1
F162.6732
sI2
F151.454
sI3
F145.0081
sI4
F149.4687
sI5
F163.4122
sI6
F144.1347
sI7
F144.1389
sI8
F143.0951
sI9
F163.4569
sI10
F148.2828
sI11
F145.7606
sI12
F162.4545
sI13
F145.9819
sI14
F149.4928
ssg55
(dp477
I0
F10.827800000000002
sI1
Fnan
sI2
Fnan
sI3
Fnan
sI4
Fnan
sI5
Fnan
sI6
Fnan
sI7
Fnan
sI8
Fnan
sI9
Fnan
sI10
Fnan
sI11
Fnan
sI12
Fnan
sI13
Fnan
sI14
Fnan
ssg57
(dp478
I0
F0.7193617532131323
sI1
Fnan
sI2
Fnan
sI3
Fnan
sI4
Fnan
sI5
Fnan
sI6
Fnan
sI7
Fnan
sI8
Fnan
sI9
Fnan
sI10
Fnan
sI11
Fnan
sI12
Fnan
sI13
Fnan
sI14
Fnan
ssg59
(dp479
I0
F2.415656
sI1
F6.561586
sI2
F-5.657069
sI3
F-4.643674
sI4
F-5.788493
sI5
F3.301347
sI6
F-2.446507
sI7
F-3.040864
sI8
F4.254359
sI9
F-5.875745
sI10
F-5.768437
sI11
F-4.679662
sI12
F-2.876698
sI13
F-5.775696
sI14
F5.335211
ssg61
(dp480
I0
F11.188866666666666
sI1
Fnan
sI2
Fnan
sI3
Fnan
sI4
Fnan
sI5
Fnan
sI6
Fnan
sI7
Fnan
sI8
Fnan
sI9
Fnan
sI10
Fnan
sI11
Fnan
sI12
Fnan
sI13
Fnan
sI14
Fnan
ssg63
(dp481
I0
g443
sI1
g444
sI2
g445
sI3
g446
sI4
g447
sI5
g448
sI6
g449
sI7
g450
sI8
g451
sI9
g452
sI10
g453
sI11
g454
sI12
g455
sI13
g456
sI14
g457
ssg65
(dp482
I0
F8413.643333333333
sI1
F7958.463333333333
sI2
F8407.04
sI3
F8625.5
sI4
F8335.92
sI5
F8323.313333333334
sI6
F8669.77
sI7
F8573.213333333333
sI8
F8675.403333333334
sI9
F8308.483333333334
sI10
F8273.24
sI11
F8352.636666666667
sI12
F8202.63
sI13
F8622.053333333333
sI14
F8337.84
ssg67
(dp483
I0
F1.0447879999999998
sI1
F1.040721
sI2
F1.116883
sI3
F1.071401
sI4
F1.113181
sI5
F1.0437450000000001
sI6
F1.07279
sI7
F1.075602
sI8
F1.074186
sI9
F1.0427170000000001
sI10
F1.109559
sI11
F1.111361
sI12
F1.0417100000000001
sI13
F1.070039
sI14
F1.115034
ssg69
(dp484
I0
F7189.766666666666
sI1
F6846.240000000001
sI2
F7219.79
sI3
F7411.306666666667
sI4
F7142.92
sI5
F7162.283333333334
sI6
F7511.496666666667
sI7
F7418.596666666666
sI8
F7455.156666666667
sI9
F7126.953333333334
sI10
F7140.28
sI11
F7215.8133333333335
sI12
F7084.0233333333335
sI13
F7437.306666666667
sI14
F7229.0
ssg71
(dp485
I0
F11648.026666666667
sI1
F11109.093333333332
sI2
F11697.206666666667
sI3
F11988.356666666667
sI4
F11614.056666666667
sI5
F11551.113333333335
sI6
F12145.683333333332
sI7
F11976.453333333333
sI8
F12049.019999999999
sI9
F11529.57
sI10
F11608.073333333334
sI11
F11637.436666666666
sI12
F11523.91
sI13
F12048.826666666666
sI14
F11696.269999999999
ssg73
(dp486
I0
F160.7413
sI1
F161.2829
sI2
F151.2276
sI3
F144.8335
sI4
F149.6978
sI5
F163.4369
sI6
F141.8553
sI7
F141.8803
sI8
F142.2994
sI9
F163.3871
sI10
F144.8764
sI11
F144.6178
sI12
F161.2531
sI13
F145.6393
sI14
F144.8223
ssg75
(dp487
I0
F11.358
sI1
F11.411
sI2
F11.354
sI3
F11.325
sI4
F11.365
sI5
F11.362
sI6
F11.311
sI7
F11.324
sI8
F11.319
sI9
F11.368
sI10
F11.366
sI11
F11.354
sI12
F11.374
sI13
F11.321
sI14
F11.352
ssg77
(dp488
I0
F0.002
sI1
F0.002
sI2
F0.002
sI3
F0.002
sI4
F0.002
sI5
F0.002
sI6
F0.002
sI7
F0.002
sI8
F0.002
sI9
F0.002
sI10
F0.002
sI11
F0.002
sI12
F0.002
sI13
F0.002
sI14
F0.002
ssg79
(dp489
I0
F0.6936161717155386
sI1
Fnan
sI2
Fnan
sI3
Fnan
sI4
Fnan
sI5
Fnan
sI6
Fnan
sI7
Fnan
sI8
Fnan
sI9
Fnan
sI10
Fnan
sI11
Fnan
sI12
Fnan
sI13
Fnan
sI14
Fnan
ssg81
(dp490
I0
F11.350933333333332
sI1
Fnan
sI2
Fnan
sI3
Fnan
sI4
Fnan
sI5
Fnan
sI6
Fnan
sI7
Fnan
sI8
Fnan
sI9
Fnan
sI10
Fnan
sI11
Fnan
sI12
Fnan
sI13
Fnan
sI14
Fnan
ssg83
(dp491
I0
F11.188
sI1
F11.248
sI2
F11.188
sI3
F11.161
sI4
F11.198
sI5
F11.199
sI6
F11.155
sI7
F11.167
sI8
F11.154
sI9
F11.201
sI10
F11.206
sI11
F11.195
sI12
F11.215
sI13
F11.161
sI14
F11.197
ssg85
(dp492
I0
F6.107068
sI1
F3.838603
sI2
F-4.597816
sI3
F-5.367836
sI4
F3.06082
sI5
F-5.981408
sI6
F7.15547
sI7
F6.241643
sI8
F-5.382185
sI9
F2.68475
sI10
F-1.379241
sI11
F-3.125645
sI12
F-3.964165
sI13
F7.45059
sI14
F5.858355
ssg87
(dp493
I0
F0.025377718010659717
sI1
Fnan
sI2
Fnan
sI3
Fnan
sI4
Fnan
sI5
Fnan
sI6
Fnan
sI7
Fnan
sI8
Fnan
sI9
Fnan
sI10
Fnan
sI11
Fnan
sI12
Fnan
sI13
Fnan
sI14
Fnan
ssg89
(dp494
I0
F0.7167665171111545
sI1
F0.7181035430688814
sI2
F0.7182353181102368
sI3
F0.7190606577420334
sI4
F0.7160830430378113
sI5
F0.7207537055995578
sI6
F0.7217230916261573
sI7
F0.722016253305001
sI8
F0.7194561264028738
sI9
F0.7185133756403519
sI10
F0.718290575706434
sI11
F0.7219396560492858
sI12
F0.7182225908175821
sI13
F0.7195926507886136
sI14
F0.7216691931910127
ssg91
(dp495
I0
F30.0
sI1
F30.0
sI2
F30.0
sI3
F30.0
sI4
F30.0
sI5
F30.0
sI6
F30.0
sI7
F30.0
sI8
F30.0
sI9
F30.0
sI10
F30.0
sI11
F30.0
sI12
F30.0
sI13
F30.0
sI14
F30.0
ssg93
(dp496
I0
F0.003
sI1
F0.003
sI2
F0.003
sI3
F0.002
sI4
F0.002
sI5
F0.002
sI6
F0.002
sI7
F0.002
sI8
F0.002
sI9
F0.003
sI10
F0.003
sI11
F0.002
sI12
F0.003
sI13
F0.002
sI14
F0.003
ssg95
(dp497
I0
F0.002
sI1
F0.002
sI2
F0.002
sI3
F0.002
sI4
F0.002
sI5
F0.002
sI6
F0.002
sI7
F0.002
sI8
F0.002
sI9
F0.002
sI10
F0.002
sI11
F0.002
sI12
F0.002
sI13
F0.002
sI14
F0.002
ssg97
(dp498
I0
F4.902707
sI1
F-2.86344
sI2
F3.72492
sI3
F5.824945
sI4
F-5.30657
sI5
F4.569524
sI6
F6.696254
sI7
F-5.129937
sI8
F7.718048
sI9
F-2.743431
sI10
F-3.349856
sI11
F2.454769
sI12
F6.1012
sI13
F-4.216244
sI14
F-4.679018
ssg99
(dp499
I0
S'KIC8462852-20180728at055345_-25-1X1-030-V_cal.fts.mag.1'
p500
sI1
S'KIC8462852-20180728at055812_-25-1X1-030-V_cal.fts.mag.1'
p501
sI2
S'KIC8462852-20180728at045938_-25-1X1-030-V_cal.fts.mag.1'
p502
sI3
S'KIC8462852-20180728at053005_-25-1X1-030-V_cal.fts.mag.1'
p503
sI4
S'KIC8462852-20180728at050153_-25-1X1-030-V_cal.fts.mag.1'
p504
sI5
S'KIC8462852-20180728at055457_-25-1X1-030-V_cal.fts.mag.1'
p505
sI6
S'KIC8462852-20180728at052900_-25-1X1-030-V_cal.fts.mag.1'
p506
sI7
S'KIC8462852-20180728at052644_-25-1X1-030-V_cal.fts.mag.1'
p507
sI8
S'KIC8462852-20180728at052756_-25-1X1-030-V_cal.fts.mag.1'
p508
sI9
S'KIC8462852-20180728at055602_-25-1X1-030-V_cal.fts.mag.1'
p509
sI10
S'KIC8462852-20180728at050403_-25-1X1-030-V_cal.fts.mag.1'
p510
sI11
S'KIC8462852-20180728at050259_-25-1X1-030-V_cal.fts.mag.1'
p511
sI12
S'KIC8462852-20180728at055707_-25-1X1-030-V_cal.fts.mag.1'
p512
sI13
S'KIC8462852-20180728at053110_-25-1X1-030-V_cal.fts.mag.1'
p513
sI14
S'KIC8462852-20180728at050049_-25-1X1-030-V_cal.fts.mag.1'
p514
ssg111
(dp515
I0
F0.004823645489508211
sI1
Fnan
sI2
Fnan
sI3
Fnan
sI4
Fnan
sI5
Fnan
sI6
Fnan
sI7
Fnan
sI8
Fnan
sI9
Fnan
sI10
Fnan
sI11
Fnan
sI12
Fnan
sI13
Fnan
sI14
Fnan
ssg113
(dp516
I0
F6293.926666666666
sI1
F6005.1866666666665
sI2
F6301.973333333333
sI3
F6455.740000000001
sI4
F6292.570000000001
sI5
F6232.323333333334
sI6
F6560.806666666667
sI7
F6483.073333333334
sI8
F6506.636666666667
sI9
F6242.133333333333
sI10
F6254.5233333333335
sI11
F6323.323333333334
sI12
F6183.496666666667
sI13
F6504.87
sI14
F6267.026666666667
ssg115
(dp517
I0
F0.026668511840924374
sI1
Fnan
sI2
Fnan
sI3
Fnan
sI4
Fnan
sI5
Fnan
sI6
Fnan
sI7
Fnan
sI8
Fnan
sI9
Fnan
sI10
Fnan
sI11
Fnan
sI12
Fnan
sI13
Fnan
sI14
Fnan
ssg117
(dp518
I0
g439
sI1
g439
sI2
g439
sI3
g439
sI4
g439
sI5
g439
sI6
g439
sI7
g439
sI8
g439
sI9
g439
sI10
g439
sI11
g439
sI12
g439
sI13
g439
sI14
g439
ssg129
(dp519
I0
F0.0021771680924059364
sI1
Fnan
sI2
Fnan
sI3
Fnan
sI4
Fnan
sI5
Fnan
sI6
Fnan
sI7
Fnan
sI8
Fnan
sI9
Fnan
sI10
Fnan
sI11
Fnan
sI12
Fnan
sI13
Fnan
sI14
Fnan
ssg131
(dp520
I0
F4.150815
sI1
F5.121599
sI2
F-6.671875
sI3
F-3.733876
sI4
F6.130232
sI5
F6.951459
sI6
F-1.533668
sI7
F3.738329
sI8
F-3.96382
sI9
F-5.459645
sI10
F-5.598984
sI11
F3.697544
sI12
F3.768635
sI13
F4.645901
sI14
F4.975044
ssg133
(dp521
I0
F1.4984986380572778
sI1
Fnan
sI2
Fnan
sI3
Fnan
sI4
Fnan
sI5
Fnan
sI6
Fnan
sI7
Fnan
sI8
Fnan
sI9
Fnan
sI10
Fnan
sI11
Fnan
sI12
Fnan
sI13
Fnan
sI14
Fnan
ssg135
(dp522
I0
F2458327.728472222
sI1
Fnan
sI2
Fnan
sI3
Fnan
sI4
Fnan
sI5
Fnan
sI6
Fnan
sI7
Fnan
sI8
Fnan
sI9
Fnan
sI10
Fnan
sI11
Fnan
sI12
Fnan
sI13
Fnan
sI14
Fnan
ssg137
(dp523
I0
F0.0021771680924059364
sI1
Fnan
sI2
Fnan
sI3
Fnan
sI4
Fnan
sI5
Fnan
sI6
Fnan
sI7
Fnan
sI8
Fnan
sI9
Fnan
sI10
Fnan
sI11
Fnan
sI12
Fnan
sI13
Fnan
sI14
Fnan
ssg139
(dp524
I0
F163.7789
sI1
F163.2885
sI2
F151.2762
sI3
F149.0052
sI4
F149.7223
sI5
F166.8757
sI6
F144.099
sI7
F146.2979
sI8
F145.2734
sI9
F164.9086
sI10
F147.9668
sI11
F149.1498
sI12
F165.523
sI13
F146.4686
sI14
F148.1311
ssg141
(dp525
I0
F10.834
sI1
F10.886
sI2
F10.83
sI3
F10.803
sI4
F10.838
sI5
F10.843
sI6
F10.789
sI7
F10.804
sI8
F10.798
sI9
F10.845
sI10
F10.838
sI11
F10.835
sI12
F10.846
sI13
F10.798
sI14
F10.83
ssg143
(dp526
I0
F0.6936161717155386
sI1
Fnan
sI2
Fnan
sI3
Fnan
sI4
Fnan
sI5
Fnan
sI6
Fnan
sI7
Fnan
sI8
Fnan
sI9
Fnan
sI10
Fnan
sI11
Fnan
sI12
Fnan
sI13
Fnan
sI14
Fnan
sss.