(dp0
S'V'
p1
(dp2
S'sigmean'
p3
(dp4
I0
F0.694873646415649
sI1
Fnan
sI2
Fnan
sI3
Fnan
sI4
Fnan
sI5
Fnan
sI6
Fnan
sI7
Fnan
sI8
Fnan
sI9
Fnan
sI10
Fnan
sI11
Fnan
sI12
Fnan
sI13
Fnan
sI14
Fnan
ssS'ref3flag'
p5
(dp6
I0
S'NoError'
p7
sI1
S'NoError'
p8
sI2
S'NoError'
p9
sI3
S'NoError'
p10
sI4
S'NoError'
p11
sI5
S'NoError'
p12
sI6
S'NoError'
p13
sI7
S'NoError'
p14
sI8
S'NoError'
p15
sI9
S'NoError'
p16
sI10
S'NoError'
p17
sI11
S'NoError'
p18
sI12
S'NoError'
p19
sI13
S'NoError'
p20
sI14
S'NoError'
p21
ssS'tabbyerr'
p22
(dp23
I0
F0.002
sI1
F0.002
sI2
F0.002
sI3
F0.002
sI4
F0.002
sI5
F0.002
sI6
F0.002
sI7
F0.002
sI8
F0.002
sI9
F0.002
sI10
F0.002
sI11
F0.002
sI12
F0.002
sI13
F0.002
sI14
F0.002
ssS'ref2rel'
p24
(dp25
I0
F0.8866987955627817
sI1
F0.8869877323599951
sI2
F0.8860706405791288
sI3
F0.8880333578278166
sI4
F0.8894331515819871
sI5
F0.8894316831229128
sI6
F0.8867370190150364
sI7
F0.8855712233124671
sI8
F0.8874665680735643
sI9
F0.8823165677086712
sI10
F0.8873387820544226
sI11
F0.8899852834015727
sI12
F0.8821380543302672
sI13
F0.8870087175223401
sI14
F0.8890140508264551
ssS'ref2err'
p26
(dp27
I0
F0.0023114749450621175
sI1
Fnan
sI2
Fnan
sI3
Fnan
sI4
Fnan
sI5
Fnan
sI6
Fnan
sI7
Fnan
sI8
Fnan
sI9
Fnan
sI10
Fnan
sI11
Fnan
sI12
Fnan
sI13
Fnan
sI14
Fnan
ssS'ref2mean'
p28
(dp29
I0
F0.8869487751519612
sI1
Fnan
sI2
Fnan
sI3
Fnan
sI4
Fnan
sI5
Fnan
sI6
Fnan
sI7
Fnan
sI8
Fnan
sI9
Fnan
sI10
Fnan
sI11
Fnan
sI12
Fnan
sI13
Fnan
sI14
Fnan
ssS'tabbymag'
p30
(dp31
I0
F11.52
sI1
F11.516
sI2
F11.536
sI3
F11.547
sI4
F11.517
sI5
F11.526
sI6
F11.544
sI7
F11.523
sI8
F11.521
sI9
F11.522
sI10
F11.536
sI11
F11.542
sI12
F11.505
sI13
F11.535
sI14
F11.525
ssS'tabbybkg'
p32
(dp33
I0
F1.875878
sI1
F-0.7184178
sI2
F-0.7436758
sI3
F-0.8212768
sI4
F-2.33142
sI5
F-1.706518
sI6
F-1.785586
sI7
F-1.868734
sI8
F-1.783436
sI9
F-2.383691
sI10
F-1.339724
sI11
F1.436336
sI12
F2.998976
sI13
F4.231551
sI14
F1.58438
ssS'JD'
p34
(dp35
I0
F2458558.0273726853
sI1
F2458558.023125
sI2
F2458558.021898148
sI3
F2458558.0212731482
sI4
F2458558.015810185
sI5
F2458558.0151967593
sI6
F2458558.0206597224
sI7
F2458558.016435185
sI8
F2458558.017662037
sI9
F2458558.0170486113
sI10
F2458558.022511574
sI11
F2458558.0267476854
sI12
F2458558.027986111
sI13
F2458558.028599537
sI14
F2458558.026134259
ssS'ref3rmsmean'
p36
(dp37
I0
F1.3232871333333331
sI1
Fnan
sI2
Fnan
sI3
Fnan
sI4
Fnan
sI5
Fnan
sI6
Fnan
sI7
Fnan
sI8
Fnan
sI9
Fnan
sI10
Fnan
sI11
Fnan
sI12
Fnan
sI13
Fnan
sI14
Fnan
ssS'ref1rmsmean'
p38
(dp39
I0
F0.5248279333333332
sI1
Fnan
sI2
Fnan
sI3
Fnan
sI4
Fnan
sI5
Fnan
sI6
Fnan
sI7
Fnan
sI8
Fnan
sI9
Fnan
sI10
Fnan
sI11
Fnan
sI12
Fnan
sI13
Fnan
sI14
Fnan
ssS'relflux'
p40
(dp41
I0
F0.6957959364093236
sI1
F0.6973419166845379
sI2
F0.6941094929710947
sI3
F0.6955122008269304
sI4
F0.6947418726407838
sI5
F0.6930802843377073
sI6
F0.6960209804566448
sI7
F0.6953492328999173
sI8
F0.695002559017457
sI9
F0.6941591326949538
sI10
F0.6904229817468082
sI11
F0.691558361379258
sI12
F0.695366908309257
sI13
F0.693676275246648
sI14
F0.6956688811770714
ssS'sigerr'
p42
(dp43
I0
F0.0008876430628915231
sI1
Fnan
sI2
Fnan
sI3
Fnan
sI4
Fnan
sI5
Fnan
sI6
Fnan
sI7
Fnan
sI8
Fnan
sI9
Fnan
sI10
Fnan
sI11
Fnan
sI12
Fnan
sI13
Fnan
sI14
Fnan
ssS'tabbyrmsmean'
p44
(dp45
I0
F0.3915765333333333
sI1
Fnan
sI2
Fnan
sI3
Fnan
sI4
Fnan
sI5
Fnan
sI6
Fnan
sI7
Fnan
sI8
Fnan
sI9
Fnan
sI10
Fnan
sI11
Fnan
sI12
Fnan
sI13
Fnan
sI14
Fnan
ssS'tabbyflag'
p46
(dp47
I0
g7
sI1
g8
sI2
g9
sI3
g10
sI4
g11
sI5
g12
sI6
g13
sI7
g14
sI8
g15
sI9
g16
sI10
g17
sI11
g18
sI12
g19
sI13
g20
sI14
g21
ssS'ref1err'
p48
(dp49
I0
F0.00222632915247869
sI1
Fnan
sI2
Fnan
sI3
Fnan
sI4
Fnan
sI5
Fnan
sI6
Fnan
sI7
Fnan
sI8
Fnan
sI9
Fnan
sI10
Fnan
sI11
Fnan
sI12
Fnan
sI13
Fnan
sI14
Fnan
ssS'ref2magmeanerr'
p50
(dp51
I0
F0.010608621830513833
sI1
Fnan
sI2
Fnan
sI3
Fnan
sI4
Fnan
sI5
Fnan
sI6
Fnan
sI7
Fnan
sI8
Fnan
sI9
Fnan
sI10
Fnan
sI11
Fnan
sI12
Fnan
sI13
Fnan
sI14
Fnan
ssS'ref2rmsmean'
p52
(dp53
I0
F0.9207592066666667
sI1
Fnan
sI2
Fnan
sI3
Fnan
sI4
Fnan
sI5
Fnan
sI6
Fnan
sI7
Fnan
sI8
Fnan
sI9
Fnan
sI10
Fnan
sI11
Fnan
sI12
Fnan
sI13
Fnan
sI14
Fnan
ssS'ref3rel'
p54
(dp55
I0
F1.5068997187755002
sI1
F1.5014020891499198
sI2
F1.502573680739662
sI3
F1.503797941657967
sI4
F1.498341072098865
sI5
F1.5004553809758363
sI6
F1.506875124387131
sI7
F1.5060357043146386
sI8
F1.497534479530091
sI9
F1.5039493670111799
sI10
F1.5021599935908891
sI11
F1.505322390976329
sI12
F1.5060101363005158
sI13
F1.4980864265355913
sI14
F1.503112927821636
ssS'ref1flag'
p56
(dp57
I0
g7
sI1
g8
sI2
g9
sI3
g10
sI4
g11
sI5
g12
sI6
g13
sI7
g14
sI8
g15
sI9
g16
sI10
g17
sI11
g18
sI12
g19
sI13
g20
sI14
g21
ssS'ref2bkg'
p58
(dp59
I0
F2.779866
sI1
F-1.399523
sI2
F-0.9239899
sI3
F-1.589045
sI4
F-2.365577
sI5
F-2.185876
sI6
F-1.511048
sI7
F-2.110293
sI8
F-0.7899736
sI9
F-1.59366
sI10
F-1.229266
sI11
F1.317949
sI12
F3.566565
sI13
F4.440975
sI14
F1.270693
ssS'ref3magmean'
p60
(dp61
I0
F10.858000000000002
sI1
Fnan
sI2
Fnan
sI3
Fnan
sI4
Fnan
sI5
Fnan
sI6
Fnan
sI7
Fnan
sI8
Fnan
sI9
Fnan
sI10
Fnan
sI11
Fnan
sI12
Fnan
sI13
Fnan
sI14
Fnan
ssS'ref1mean'
p62
(dp63
I0
F0.7164317083543651
sI1
Fnan
sI2
Fnan
sI3
Fnan
sI4
Fnan
sI5
Fnan
sI6
Fnan
sI7
Fnan
sI8
Fnan
sI9
Fnan
sI10
Fnan
sI11
Fnan
sI12
Fnan
sI13
Fnan
sI14
Fnan
ssS'ref1rms'
p64
(dp65
I0
F1.899359
sI1
F2.884857
sI2
F-2.803571
sI3
F3.60444
sI4
F2.345585
sI5
F-2.694438
sI6
F2.063838
sI7
F-2.041374
sI8
F2.941109
sI9
F-3.008878
sI10
F1.997856
sI11
F-3.664073
sI12
F3.588776
sI13
F3.017698
sI14
F-2.258765
ssS'ref2magmean'
p66
(dp67
I0
F11.2206
sI1
Fnan
sI2
Fnan
sI3
Fnan
sI4
Fnan
sI5
Fnan
sI6
Fnan
sI7
Fnan
sI8
Fnan
sI9
Fnan
sI10
Fnan
sI11
Fnan
sI12
Fnan
sI13
Fnan
sI14
Fnan
ssS'ref2flag'
p68
(dp69
I0
g7
sI1
g8
sI2
g9
sI3
g10
sI4
g11
sI5
g12
sI6
g13
sI7
g14
sI8
g15
sI9
g16
sI10
g17
sI11
g18
sI12
g19
sI13
g20
sI14
g21
ssS'ref2'
p70
(dp71
I0
F8202.176666666666
sI1
F8218.566666666668
sI2
F8098.833333333333
sI3
F8010.213333333333
sI4
F8257.543333333333
sI5
F8210.683333333332
sI6
F8019.79
sI7
F8176.833333333333
sI8
F8209.19
sI9
F8183.22
sI10
F8150.233333333334
sI11
F8105.656666666667
sI12
F8290.346666666666
sI13
F8118.64
sI14
F8178.87
ssS'airmass'
p72
(dp73
I0
F1.2907899999999999
sI1
F1.3109540000000002
sI2
F1.3170309999999998
sI3
F1.3200889999999998
sI4
F1.348243
sI5
F1.351581
sI6
F1.323201
sI7
F1.34501
sI8
F1.338547
sI9
F1.341755
sI10
F1.314024
sI11
F1.293635
sI12
F1.2879559999999999
sI13
F1.285088
sI14
F1.296571
ssS'ref1'
p74
(dp75
I0
F7026.463333333333
sI1
F7061.013333333333
sI2
F6963.9
sI3
F6859.683333333333
sI4
F7078.666666666667
sI5
F7029.303333333333
sI6
F6869.88
sI7
F7021.89
sI8
F7064.123333333334
sI9
F7075.343333333333
sI10
F6994.873333333334
sI11
F6912.03
sI12
F7161.05
sI13
F6989.22
sI14
F6995.483333333334
ssS'ref3'
p76
(dp77
I0
F11474.016666666666
sI1
F11470.396666666667
sI2
F11316.433333333332
sI3
F11180.66
sI4
F11489.436666666666
sI5
F11433.46
sI6
F11218.436666666666
sI7
F11444.91
sI8
F11436.156666666668
sI9
F11474.053333333333
sI10
F11375.186666666666
sI11
F11303.230000000001
sI12
F11634.980000000001
sI13
F11316.44
sI14
F11404.383333333333
ssS'ref1bkg'
p78
(dp79
I0
F1.873188
sI1
F-1.8984
sI2
F-0.56409
sI3
F-2.256949
sI4
F-2.218668
sI5
F-1.704376
sI6
F-0.5696597
sI7
F-2.010144
sI8
F-2.243989
sI9
F-1.750778
sI10
F-0.9301266
sI11
F2.223861
sI12
F1.900959
sI13
F3.2272
sI14
F1.6528
ssS'ref1mag'
p80
(dp81
I0
F11.383
sI1
F11.378
sI2
F11.393
sI3
F11.409
sI4
F11.375
sI5
F11.383
sI6
F11.408
sI7
F11.384
sI8
F11.377
sI9
F11.376
sI10
F11.388
sI11
F11.401
sI12
F11.363
sI13
F11.389
sI14
F11.388
ssS'ref3magerr'
p82
(dp83
I0
F0.002
sI1
F0.002
sI2
F0.002
sI3
F0.002
sI4
F0.002
sI5
F0.002
sI6
F0.002
sI7
F0.002
sI8
F0.002
sI9
F0.002
sI10
F0.002
sI11
F0.002
sI12
F0.002
sI13
F0.002
sI14
F0.002
ssS'tabbymagmean'
p84
(dp85
I0
F11.527666666666667
sI1
Fnan
sI2
Fnan
sI3
Fnan
sI4
Fnan
sI5
Fnan
sI6
Fnan
sI7
Fnan
sI8
Fnan
sI9
Fnan
sI10
Fnan
sI11
Fnan
sI12
Fnan
sI13
Fnan
sI14
Fnan
ssS'ref1magmean'
p86
(dp87
I0
F11.386333333333335
sI1
Fnan
sI2
Fnan
sI3
Fnan
sI4
Fnan
sI5
Fnan
sI6
Fnan
sI7
Fnan
sI8
Fnan
sI9
Fnan
sI10
Fnan
sI11
Fnan
sI12
Fnan
sI13
Fnan
sI14
Fnan
ssS'ref2mag'
p88
(dp89
I0
F11.215
sI1
F11.213
sI2
F11.229
sI3
F11.241
sI4
F11.208
sI5
F11.214
sI6
F11.24
sI7
F11.219
sI8
F11.214
sI9
F11.218
sI10
F11.222
sI11
F11.228
sI12
F11.204
sI13
F11.226
sI14
F11.218
ssS'ref3rms'
p90
(dp91
I0
F-4.265139
sI1
F3.728049
sI2
F3.347864
sI3
F4.230086
sI4
F-1.838844
sI5
F3.954068
sI6
F3.465501
sI7
F3.735483
sI8
F-2.548342
sI9
F2.67942
sI10
F-2.515574
sI11
F3.077198
sI12
F2.058719
sI13
F-2.9989
sI14
F3.739718
ssS'ref3magmeanerr'
p92
(dp93
I0
F0.011038892283972087
sI1
Fnan
sI2
Fnan
sI3
Fnan
sI4
Fnan
sI5
Fnan
sI6
Fnan
sI7
Fnan
sI8
Fnan
sI9
Fnan
sI10
Fnan
sI11
Fnan
sI12
Fnan
sI13
Fnan
sI14
Fnan
ssS'ref1rel'
p94
(dp95
I0
F0.7142096252357756
sI1
F0.7172559787725408
sI2
F0.7173633120327989
sI3
F0.7148901682779071
sI4
F0.7169366319980743
sI5
F0.7156640240356625
sI6
F0.714190566420883
sI7
F0.7157253951101525
sI8
F0.7191650473971445
sI9
F0.7198702702409387
sI10
F0.7164888984035513
sI11
F0.7122541461248163
sI12
F0.7187887174748118
sI13
F0.7192375848208497
sI14
F0.7144352589695686
ssS'exposure'
p96
(dp97
I0
F30.0
sI1
F30.0
sI2
F30.0
sI3
F30.0
sI4
F30.0
sI5
F30.0
sI6
F30.0
sI7
F30.0
sI8
F30.0
sI9
F30.0
sI10
F30.0
sI11
F30.0
sI12
F30.0
sI13
F30.0
sI14
F30.0
ssS'ref1magerr'
p98
(dp99
I0
F0.002
sI1
F0.002
sI2
F0.002
sI3
F0.002
sI4
F0.002
sI5
F0.002
sI6
F0.002
sI7
F0.002
sI8
F0.002
sI9
F0.002
sI10
F0.002
sI11
F0.002
sI12
F0.002
sI13
F0.002
sI14
F0.002
ssS'ref2magerr'
p100
(dp101
I0
F0.002
sI1
F0.002
sI2
F0.002
sI3
F0.002
sI4
F0.002
sI5
F0.002
sI6
F0.002
sI7
F0.002
sI8
F0.002
sI9
F0.002
sI10
F0.002
sI11
F0.002
sI12
F0.002
sI13
F0.002
sI14
F0.002
ssS'ref2rms'
p102
(dp103
I0
F4.214552
sI1
F3.94629
sI2
F-2.12317
sI3
F3.915763
sI4
F-2.28096
sI5
F1.688143
sI6
F2.81624
sI7
F3.725361
sI8
F-2.680094
sI9
F-3.787348
sI10
F-0.9829979
sI11
F2.565605
sI12
F-3.771535
sI13
F3.187129
sI14
F3.37841
ssS'name'
p104
(dp105
I0
S'KIC8462852-20190315at123925_-35-1X1-030-V.fts.mag.1'
p106
sI1
S'KIC8462852-20190315at123318_-35-1X1-030-V.fts.mag.1'
p107
sI2
S'KIC8462852-20190315at123132_-35-1X1-030-V.fts.mag.1'
p108
sI3
S'KIC8462852-20190315at123038_-35-1X1-030-V.fts.mag.1'
p109
sI4
S'KIC8462852-20190315at122246_-35-1X1-030-V.fts.mag.1'
p110
sI5
S'KIC8462852-20190315at122147_-35-1X1-030-V.fts.mag.1'
p111
sI6
S'KIC8462852-20190315at122939_-35-1X1-030-V.fts.mag.1'
p112
sI7
S'KIC8462852-20190315at122340_-35-1X1-030-V.fts.mag.1'
p113
sI8
S'KIC8462852-20190315at122526_-35-1X1-030-V.fts.mag.1'
p114
sI9
S'KIC8462852-20190315at122433_-35-1X1-030-V.fts.mag.1'
p115
sI10
S'KIC8462852-20190315at123225_-35-1X1-030-V.fts.mag.1'
p116
sI11
S'KIC8462852-20190315at123831_-35-1X1-030-V.fts.mag.1'
p117
sI12
S'KIC8462852-20190315at124018_-35-1X1-030-V.fts.mag.1'
p118
sI13
S'KIC8462852-20190315at124111_-35-1X1-030-V.fts.mag.1'
p119
sI14
S'KIC8462852-20190315at123732_-35-1X1-030-V.fts.mag.1'
p120
ssS'ref3err'
p121
(dp122
I0
F0.0031699876245691013
sI1
Fnan
sI2
Fnan
sI3
Fnan
sI4
Fnan
sI5
Fnan
sI6
Fnan
sI7
Fnan
sI8
Fnan
sI9
Fnan
sI10
Fnan
sI11
Fnan
sI12
Fnan
sI13
Fnan
sI14
Fnan
ssS'tabby'
p123
(dp124
I0
F6193.2
sI1
F6217.96
sI2
F6103.343333333333
sI3
F6039.493333333333
sI4
F6212.3
sI5
F6162.28
sI6
F6057.263333333333
sI7
F6175.543333333333
sI8
F6187.716666666666
sI9
F6185.5633333333335
sI10
F6103.406666666667
sI11
F6067.483333333334
sI12
F6278.323333333334
sI13
F6109.97
sI14
F6163.333333333333
ssS'ref1magmeanerr'
p125
(dp126
I0
F0.012590623873494598
sI1
Fnan
sI2
Fnan
sI3
Fnan
sI4
Fnan
sI5
Fnan
sI6
Fnan
sI7
Fnan
sI8
Fnan
sI9
Fnan
sI10
Fnan
sI11
Fnan
sI12
Fnan
sI13
Fnan
sI14
Fnan
ssS'filter'
p127
(dp128
I0
g1
sI1
g1
sI2
g1
sI3
g1
sI4
g1
sI5
g1
sI6
g1
sI7
g1
sI8
g1
sI9
g1
sI10
g1
sI11
g1
sI12
g1
sI13
g1
sI14
g1
ssS'tabbymagerr'
p129
(dp130
I0
F0.011860297916438108
sI1
Fnan
sI2
Fnan
sI3
Fnan
sI4
Fnan
sI5
Fnan
sI6
Fnan
sI7
Fnan
sI8
Fnan
sI9
Fnan
sI10
Fnan
sI11
Fnan
sI12
Fnan
sI13
Fnan
sI14
Fnan
ssS'tabbyrms'
p131
(dp132
I0
F1.771783
sI1
F-2.043115
sI2
F-1.767244
sI3
F-1.725857
sI4
F3.493757
sI5
F-1.473141
sI6
F3.632085
sI7
F-3.64432
sI8
F-2.685258
sI9
F4.088953
sI10
F3.549782
sI11
F3.76204
sI12
F3.645606
sI13
F-2.316037
sI14
F-2.415386
ssS'ref3mean'
p133
(dp134
I0
F1.5028370955910502
sI1
Fnan
sI2
Fnan
sI3
Fnan
sI4
Fnan
sI5
Fnan
sI6
Fnan
sI7
Fnan
sI8
Fnan
sI9
Fnan
sI10
Fnan
sI11
Fnan
sI12
Fnan
sI13
Fnan
sI14
Fnan
ssS'median_JD'
p135
(dp136
I0
F2458558.021898148
sI1
Fnan
sI2
Fnan
sI3
Fnan
sI4
Fnan
sI5
Fnan
sI6
Fnan
sI7
Fnan
sI8
Fnan
sI9
Fnan
sI10
Fnan
sI11
Fnan
sI12
Fnan
sI13
Fnan
sI14
Fnan
ssS'error'
p137
(dp138
I0
F0.0017823696969359595
sI1
Fnan
sI2
Fnan
sI3
Fnan
sI4
Fnan
sI5
Fnan
sI6
Fnan
sI7
Fnan
sI8
Fnan
sI9
Fnan
sI10
Fnan
sI11
Fnan
sI12
Fnan
sI13
Fnan
sI14
Fnan
ssS'ref3bkg'
p139
(dp140
I0
F3.278755
sI1
F-1.002204
sI2
F-0.654461
sI3
F-0.5648058
sI4
F-1.395955
sI5
F-0.9111845
sI6
F-0.9887586
sI7
F-1.198286
sI8
F-0.4984314
sI9
F-1.380662
sI10
F-0.4432597
sI11
F2.859545
sI12
F3.509412
sI13
F5.833632
sI14
F1.837749
ssS'ref3mag'
p141
(dp142
I0
F10.851
sI1
F10.851
sI2
F10.866
sI3
F10.879
sI4
F10.849
sI5
F10.855
sI6
F10.875
sI7
F10.853
sI8
F10.854
sI9
F10.851
sI10
F10.86
sI11
F10.867
sI12
F10.836
sI13
F10.866
sI14
F10.857
ssS'mean'
p143
(dp144
I0
F0.6945204677865597
sI1
Fnan
sI2
Fnan
sI3
Fnan
sI4
Fnan
sI5
Fnan
sI6
Fnan
sI7
Fnan
sI8
Fnan
sI9
Fnan
sI10
Fnan
sI11
Fnan
sI12
Fnan
sI13
Fnan
sI14
Fnan
sss.