(dp0
S'i'
p1
(dp2
S'sigmean'
p3
(dp4
I0
F0.43823774226438955
sI1
Fnan
sI2
Fnan
sI3
Fnan
sI4
Fnan
sI5
Fnan
sI6
Fnan
sI7
Fnan
sI8
Fnan
sI9
Fnan
sI10
Fnan
sI11
Fnan
sI12
Fnan
sI13
Fnan
sI14
Fnan
ssS'ref3flag'
p5
(dp6
I0
S'NoError'
p7
sI1
S'NoError'
p8
sI2
S'NoError'
p9
sI3
S'NoError'
p10
sI4
S'NoError'
p11
sI5
S'NoError'
p12
sI6
S'NoError'
p13
sI7
S'NoError'
p14
sI8
S'NoError'
p15
sI9
S'NoError'
p16
sI10
S'NoError'
p17
sI11
S'NoError'
p18
sI12
S'NoError'
p19
sI13
S'NoError'
p20
sI14
S'NoError'
p21
ssS'tabbyerr'
p22
(dp23
I0
F0.003
sI1
F0.003
sI2
F0.003
sI3
F0.003
sI4
F0.003
sI5
F0.003
sI6
F0.003
sI7
F0.003
sI8
F0.003
sI9
F0.003
sI10
F0.003
sI11
F0.003
sI12
F0.003
sI13
F0.003
sI14
F0.003
ssS'ref2rel'
p24
(dp25
I0
F0.9084268649723982
sI1
F0.9075743540163588
sI2
F0.9115802651169788
sI3
F0.9122848314417683
sI4
F0.9105139453768254
sI5
F0.9083902771167629
sI6
F0.9116624286248585
sI7
F0.9155185641315539
sI8
F0.9132099849685014
sI9
F0.9113599427100744
sI10
F0.9064531295791456
sI11
F0.9131555831100805
sI12
F0.9118523549469132
sI13
F0.9113943077542891
sI14
F0.9113231978957532
ssS'ref2err'
p26
(dp27
I0
F0.002383894128583826
sI1
Fnan
sI2
Fnan
sI3
Fnan
sI4
Fnan
sI5
Fnan
sI6
Fnan
sI7
Fnan
sI8
Fnan
sI9
Fnan
sI10
Fnan
sI11
Fnan
sI12
Fnan
sI13
Fnan
sI14
Fnan
ssS'ref2mean'
p28
(dp29
I0
F0.9109800021174841
sI1
Fnan
sI2
Fnan
sI3
Fnan
sI4
Fnan
sI5
Fnan
sI6
Fnan
sI7
Fnan
sI8
Fnan
sI9
Fnan
sI10
Fnan
sI11
Fnan
sI12
Fnan
sI13
Fnan
sI14
Fnan
ssS'tabbymag'
p30
(dp31
I0
F11.966
sI1
F11.954
sI2
F11.965
sI3
F11.961
sI4
F11.965
sI5
F11.973
sI6
F11.937
sI7
F11.939
sI8
F11.991
sI9
F11.941
sI10
F11.989
sI11
F11.993
sI12
F12.086
sI13
F11.953
sI14
F11.939
ssS'tabbybkg'
p32
(dp33
I0
F14.41629
sI1
F13.85422
sI2
F13.89038
sI3
F13.35936
sI4
F14.0039
sI5
F15.25325
sI6
F12.13969
sI7
F11.52404
sI8
F15.01409
sI9
F12.09486
sI10
F14.03699
sI11
F15.07709
sI12
F13.76601
sI13
F12.79449
sI14
F11.16886
ssS'JD'
p34
(dp35
I0
F2458349.724803241
sI1
F2458349.7464699075
sI2
F2458349.744236111
sI3
F2458349.7270023148
sI4
F2458349.7449652776
sI5
F2458349.7277314817
sI6
F2458349.7643865743
sI7
F2458349.7651273147
sI8
F2458349.7262731483
sI9
F2458349.7621875
sI10
F2458349.7435069443
sI11
F2458349.7255324074
sI12
F2458349.7457060185
sI13
F2458349.7629166665
sI14
F2458349.7636574074
ssS'ref3rmsmean'
p36
(dp37
I0
F2.5461726666666666
sI1
Fnan
sI2
Fnan
sI3
Fnan
sI4
Fnan
sI5
Fnan
sI6
Fnan
sI7
Fnan
sI8
Fnan
sI9
Fnan
sI10
Fnan
sI11
Fnan
sI12
Fnan
sI13
Fnan
sI14
Fnan
ssS'ref1rmsmean'
p38
(dp39
I0
F1.5457599333333334
sI1
Fnan
sI2
Fnan
sI3
Fnan
sI4
Fnan
sI5
Fnan
sI6
Fnan
sI7
Fnan
sI8
Fnan
sI9
Fnan
sI10
Fnan
sI11
Fnan
sI12
Fnan
sI13
Fnan
sI14
Fnan
ssS'relflux'
p40
(dp41
I0
F0.4392597625832877
sI1
F0.43703499451325106
sI2
F0.43661592265451515
sI3
F0.43997818847485365
sI4
F0.4394786028708657
sI5
F0.4387841383276766
sI6
F0.4401397225919737
sI7
F0.4374211222257962
sI8
F0.4362648615195527
sI9
F0.44145280211119114
sI10
F0.4376364686236419
sI11
F0.43704264525639375
sI12
F0.4377276430794521
sI13
F0.4381611901800801
sI14
F0.4397831288001139
ssS'sigerr'
p42
(dp43
I0
F0.0012708148940188267
sI1
Fnan
sI2
Fnan
sI3
Fnan
sI4
Fnan
sI5
Fnan
sI6
Fnan
sI7
Fnan
sI8
Fnan
sI9
Fnan
sI10
Fnan
sI11
Fnan
sI12
Fnan
sI13
Fnan
sI14
Fnan
ssS'tabbyrmsmean'
p44
(dp45
I0
F1.4717921333333335
sI1
Fnan
sI2
Fnan
sI3
Fnan
sI4
Fnan
sI5
Fnan
sI6
Fnan
sI7
Fnan
sI8
Fnan
sI9
Fnan
sI10
Fnan
sI11
Fnan
sI12
Fnan
sI13
Fnan
sI14
Fnan
ssS'tabbyflag'
p46
(dp47
I0
g7
sI1
g8
sI2
g9
sI3
g10
sI4
g11
sI5
g12
sI6
g13
sI7
g14
sI8
g15
sI9
g16
sI10
g17
sI11
g18
sI12
g19
sI13
g20
sI14
g21
ssS'ref1err'
p48
(dp49
I0
F0.002000082351613923
sI1
Fnan
sI2
Fnan
sI3
Fnan
sI4
Fnan
sI5
Fnan
sI6
Fnan
sI7
Fnan
sI8
Fnan
sI9
Fnan
sI10
Fnan
sI11
Fnan
sI12
Fnan
sI13
Fnan
sI14
Fnan
ssS'ref2magmeanerr'
p50
(dp51
I0
F0.03604124621279647
sI1
Fnan
sI2
Fnan
sI3
Fnan
sI4
Fnan
sI5
Fnan
sI6
Fnan
sI7
Fnan
sI8
Fnan
sI9
Fnan
sI10
Fnan
sI11
Fnan
sI12
Fnan
sI13
Fnan
sI14
Fnan
ssS'ref2rmsmean'
p52
(dp53
I0
F1.2807486466666667
sI1
Fnan
sI2
Fnan
sI3
Fnan
sI4
Fnan
sI5
Fnan
sI6
Fnan
sI7
Fnan
sI8
Fnan
sI9
Fnan
sI10
Fnan
sI11
Fnan
sI12
Fnan
sI13
Fnan
sI14
Fnan
ssS'ref3rel'
p54
(dp55
I0
F1.5070037090099824
sI1
F1.4996736261708024
sI2
F1.502223595985709
sI3
F1.500044488183669
sI4
F1.5002523062580062
sI5
F1.5023301442012038
sI6
F1.4934573105911253
sI7
F1.4925800169257561
sI8
F1.4974837945215027
sI9
F1.490967119741496
sI10
F1.5051952003620834
sI11
F1.495471752786255
sI12
F1.4991877607505453
sI13
F1.501164089956281
sI14
F1.5010597226967537
ssS'ref1flag'
p56
(dp57
I0
g7
sI1
g8
sI2
g9
sI3
g10
sI4
g11
sI5
g12
sI6
g13
sI7
g14
sI8
g15
sI9
g16
sI10
g17
sI11
g18
sI12
g19
sI13
g20
sI14
g21
ssS'ref2bkg'
p58
(dp59
I0
F17.04003
sI1
F15.80855
sI2
F16.48539
sI3
F16.37931
sI4
F16.52547
sI5
F16.70756
sI6
F13.39055
sI7
F13.49501
sI8
F16.78432
sI9
F15.10981
sI10
F17.63567
sI11
F16.44409
sI12
F15.19469
sI13
F14.24178
sI14
F13.40132
ssS'ref3magmean'
p60
(dp61
I0
F10.802333333333333
sI1
Fnan
sI2
Fnan
sI3
Fnan
sI4
Fnan
sI5
Fnan
sI6
Fnan
sI7
Fnan
sI8
Fnan
sI9
Fnan
sI10
Fnan
sI11
Fnan
sI12
Fnan
sI13
Fnan
sI14
Fnan
ssS'ref1mean'
p62
(dp63
I0
F0.6976490918482713
sI1
Fnan
sI2
Fnan
sI3
Fnan
sI4
Fnan
sI5
Fnan
sI6
Fnan
sI7
Fnan
sI8
Fnan
sI9
Fnan
sI10
Fnan
sI11
Fnan
sI12
Fnan
sI13
Fnan
sI14
Fnan
ssS'ref1rms'
p64
(dp65
I0
F2.744425
sI1
F3.40556
sI2
F3.706992
sI3
F-2.502807
sI4
F2.937681
sI5
F4.323711
sI6
F2.043426
sI7
F-1.441629
sI8
F4.080945
sI9
F4.069323
sI10
F-2.632234
sI11
F3.251325
sI12
F4.335538
sI13
F-2.640927
sI14
F-2.49493
ssS'ref2magmean'
p66
(dp67
I0
F11.143400000000002
sI1
Fnan
sI2
Fnan
sI3
Fnan
sI4
Fnan
sI5
Fnan
sI6
Fnan
sI7
Fnan
sI8
Fnan
sI9
Fnan
sI10
Fnan
sI11
Fnan
sI12
Fnan
sI13
Fnan
sI14
Fnan
ssS'ref2flag'
p68
(dp69
I0
g7
sI1
g8
sI2
g9
sI3
g10
sI4
g11
sI5
g12
sI6
g13
sI7
g14
sI8
g15
sI9
g16
sI10
g17
sI11
g18
sI12
g19
sI13
g20
sI14
g21
ssS'ref2'
p70
(dp71
I0
F8764.46
sI1
F8897.603333333333
sI2
F8844.96
sI3
F8810.519999999999
sI4
F8777.619999999999
sI5
F8716.216666666667
sI6
F9006.706666666667
sI7
F9069.31
sI8
F8651.24
sI9
F8942.336666666666
sI10
F8598.56
sI11
F8621.296666666667
sI12
F7894.38
sI13
F8913.09
sI14
F8992.053333333333
ssS'airmass'
p72
(dp73
I0
F1.00919
sI1
F1.004658
sI2
F1.004643
sI3
F1.008251
sI4
F1.004636
sI5
F1.007965
sI6
F1.008797
sI7
F1.009118
sI8
F1.008553
sI9
F1.007896
sI10
F1.0046620000000002
sI11
F1.008864
sI12
F1.004556
sI13
F1.008183
sI14
F1.0084819999999999
ssS'ref1'
p74
(dp75
I0
F7238.013333333333
sI1
F7392.509999999999
sI2
F7288.066666666667
sI3
F7261.163333333333
sI4
F7254.483333333334
sI5
F7219.85
sI6
F7461.546666666666
sI7
F7469.586666666667
sI8
F7130.46
sI9
F7423.613333333333
sI10
F7132.626666666666
sI11
F7115.4766666666665
sI12
F6514.346666666666
sI13
F7351.403333333334
sI14
F7417.9
ssS'ref3'
p76
(dp77
I0
F12057.893333333333
sI1
F12214.926666666666
sI2
F12117.706666666667
sI3
F12054.119999999999
sI4
F12026.1
sI5
F11970.616666666667
sI6
F12297.316666666668
sI7
F12342.813333333334
sI8
F11816.42
sI9
F12200.546666666667
sI10
F11839.253333333332
sI11
F11766.95
sI12
F10800.693333333333
sI13
F12207.836666666666
sI14
F12316.16
ssS'ref1bkg'
p78
(dp79
I0
F15.88597
sI1
F14.29439
sI2
F14.61788
sI3
F15.60823
sI4
F15.08547
sI5
F15.53843
sI6
F13.56962
sI7
F13.63652
sI8
F16.11781
sI9
F12.6558
sI10
F16.2928
sI11
F15.90715
sI12
F15.27683
sI13
F13.48409
sI14
F13.64097
ssS'ref1mag'
p80
(dp81
I0
F11.351
sI1
F11.328
sI2
F11.343
sI3
F11.347
sI4
F11.348
sI5
F11.354
sI6
F11.318
sI7
F11.317
sI8
F11.367
sI9
F11.323
sI10
F11.367
sI11
F11.369
sI12
F11.465
sI13
F11.334
sI14
F11.324
ssS'ref3magerr'
p82
(dp83
I0
F0.002
sI1
F0.002
sI2
F0.002
sI3
F0.002
sI4
F0.002
sI5
F0.002
sI6
F0.002
sI7
F0.002
sI8
F0.002
sI9
F0.002
sI10
F0.002
sI11
F0.002
sI12
F0.002
sI13
F0.002
sI14
F0.002
ssS'tabbymagmean'
p84
(dp85
I0
F0.4384520795875097
sI1
Fnan
sI2
Fnan
sI3
Fnan
sI4
Fnan
sI5
Fnan
sI6
Fnan
sI7
Fnan
sI8
Fnan
sI9
Fnan
sI10
Fnan
sI11
Fnan
sI12
Fnan
sI13
Fnan
sI14
Fnan
ssS'ref1magmean'
p86
(dp87
I0
F11.350333333333335
sI1
Fnan
sI2
Fnan
sI3
Fnan
sI4
Fnan
sI5
Fnan
sI6
Fnan
sI7
Fnan
sI8
Fnan
sI9
Fnan
sI10
Fnan
sI11
Fnan
sI12
Fnan
sI13
Fnan
sI14
Fnan
ssS'ref2mag'
p88
(dp89
I0
F11.143
sI1
F11.127
sI2
F11.133
sI3
F11.137
sI4
F11.142
sI5
F11.149
sI6
F11.114
sI7
F11.106
sI8
F11.157
sI9
F11.121
sI10
F11.164
sI11
F11.161
sI12
F11.257
sI13
F11.125
sI14
F11.115
ssS'ref3rms'
p90
(dp91
I0
F4.396614
sI1
F2.567387
sI2
F4.119589
sI3
F4.378076
sI4
F4.389432
sI5
F4.933394
sI6
F-1.86909
sI7
F-2.989173
sI8
F3.327979
sI9
F2.030874
sI10
F-1.623707
sI11
F3.933547
sI12
F4.563092
sI13
F4.0019
sI14
F2.032676
ssS'ref3magmeanerr'
p92
(dp93
I0
F0.03550989131146966
sI1
Fnan
sI2
Fnan
sI3
Fnan
sI4
Fnan
sI5
Fnan
sI6
Fnan
sI7
Fnan
sI8
Fnan
sI9
Fnan
sI10
Fnan
sI11
Fnan
sI12
Fnan
sI13
Fnan
sI14
Fnan
ssS'ref1rel'
p94
(dp95
I0
F0.6952156864754
sI1
F0.7002959853698254
sI2
F0.6953377432896579
sI3
F0.6960257481876834
sI4
F0.6974217431626011
sI5
F0.6980140346919538
sI6
F0.7004823971434503
sI7
F0.6976969589034997
sI8
F0.6967538057599159
sI9
F0.7022328238106912
sI10
F0.6979833459026276
sI11
F0.6979978987894006
sI12
F0.6969051739477887
sI13
F0.6961250753202433
sI14
F0.6962479569693314
ssS'exposure'
p96
(dp97
I0
F30.0
sI1
F30.0
sI2
F30.0
sI3
F30.0
sI4
F30.0
sI5
F30.0
sI6
F30.0
sI7
F30.0
sI8
F30.0
sI9
F30.0
sI10
F30.0
sI11
F30.0
sI12
F30.0
sI13
F30.0
sI14
F30.0
ssS'ref1magerr'
p98
(dp99
I0
F0.002
sI1
F0.002
sI2
F0.002
sI3
F0.002
sI4
F0.002
sI5
F0.002
sI6
F0.002
sI7
F0.002
sI8
F0.002
sI9
F0.002
sI10
F0.002
sI11
F0.002
sI12
F0.002
sI13
F0.002
sI14
F0.002
ssS'ref2magerr'
p100
(dp101
I0
F0.002
sI1
F0.002
sI2
F0.002
sI3
F0.002
sI4
F0.002
sI5
F0.002
sI6
F0.002
sI7
F0.002
sI8
F0.002
sI9
F0.002
sI10
F0.002
sI11
F0.002
sI12
F0.002
sI13
F0.002
sI14
F0.002
ssS'ref2rms'
p102
(dp103
I0
F2.289633
sI1
F-2.338391
sI2
F2.31226
sI3
F3.551875
sI4
F3.672884
sI5
F3.193966
sI6
F3.218686
sI7
F-1.302119
sI8
F2.121522
sI9
F-3.877108
sI10
F-3.618105
sI11
F-0.8071573
sI12
F3.976421
sI13
F3.234112
sI14
F3.582751
ssS'name'
p104
(dp105
I0
S"KIC8462852-20180819at052341_-25-1X1-030-i'_cal.fts.mag.1"
p106
sI1
S"KIC8462852-20180819at055455_-25-1X1-030-i'_cal.fts.mag.1"
p107
sI2
S"KIC8462852-20180819at055142_-25-1X1-030-i'_cal.fts.mag.1"
p108
sI3
S"KIC8462852-20180819at052653_-25-1X1-030-i'_cal.fts.mag.1"
p109
sI4
S"KIC8462852-20180819at055245_-25-1X1-030-i'_cal.fts.mag.1"
p110
sI5
S"KIC8462852-20180819at052756_-25-1X1-030-i'_cal.fts.mag.1"
p111
sI6
S"KIC8462852-20180819at062043_-25-1X1-030-i'_cal.fts.mag.1"
p112
sI7
S"KIC8462852-20180819at062147_-25-1X1-030-i'_cal.fts.mag.1"
p113
sI8
S"KIC8462852-20180819at052550_-25-1X1-030-i'_cal.fts.mag.1"
p114
sI9
S"KIC8462852-20180819at061731_-25-1X1-030-i'_cal.fts.mag.1"
p115
sI10
S"KIC8462852-20180819at055038_-25-1X1-030-i'_cal.fts.mag.1"
p116
sI11
S"KIC8462852-20180819at052446_-25-1X1-030-i'_cal.fts.mag.1"
p117
sI12
S"KIC8462852-20180819at055349_-25-1X1-030-i'_cal.fts.mag.1"
p118
sI13
S"KIC8462852-20180819at061836_-25-1X1-030-i'_cal.fts.mag.1"
p119
sI14
S"KIC8462852-20180819at061940_-25-1X1-030-i'_cal.fts.mag.1"
p120
ssS'ref3err'
p121
(dp122
I0
F0.004524291591007998
sI1
Fnan
sI2
Fnan
sI3
Fnan
sI4
Fnan
sI5
Fnan
sI6
Fnan
sI7
Fnan
sI8
Fnan
sI9
Fnan
sI10
Fnan
sI11
Fnan
sI12
Fnan
sI13
Fnan
sI14
Fnan
ssS'tabby'
p123
(dp124
I0
F4108.596666666666
sI1
F4152.566666666667
sI2
F4111.573333333333
sI3
F4124.913333333333
sI4
F4110.326666666667
sI5
F4081.67
sI6
F4220.29
sI7
F4211.156666666667
sI8
F4013.3633333333332
sI9
F4203.586666666667
sI10
F4021.9433333333336
sI11
F4006.766666666667
sI12
F3678.286666666667
sI13
F4158.49
sI14
F4211.086666666667
ssS'ref1magmeanerr'
p125
(dp126
I0
F0.03635080401285446
sI1
Fnan
sI2
Fnan
sI3
Fnan
sI4
Fnan
sI5
Fnan
sI6
Fnan
sI7
Fnan
sI8
Fnan
sI9
Fnan
sI10
Fnan
sI11
Fnan
sI12
Fnan
sI13
Fnan
sI14
Fnan
ssS'filter'
p127
(dp128
I0
S"i'"
p129
sI1
S"i'"
p130
sI2
S"i'"
p131
sI3
S"i'"
p132
sI4
S"i'"
p133
sI5
S"i'"
p134
sI6
S"i'"
p135
sI7
S"i'"
p136
sI8
S"i'"
p137
sI9
S"i'"
p138
sI10
S"i'"
p139
sI11
S"i'"
p140
sI12
S"i'"
p141
sI13
S"i'"
p142
sI14
S"i'"
p143
ssS'tabbymagerr'
p144
(dp145
I0
F0.0015179189095911741
sI1
Fnan
sI2
Fnan
sI3
Fnan
sI4
Fnan
sI5
Fnan
sI6
Fnan
sI7
Fnan
sI8
Fnan
sI9
Fnan
sI10
Fnan
sI11
Fnan
sI12
Fnan
sI13
Fnan
sI14
Fnan
ssS'tabbyrms'
p146
(dp147
I0
F1.116545
sI1
F4.366068
sI2
F1.612357
sI3
F2.97485
sI4
F2.720077
sI5
F2.796547
sI6
F4.121329
sI7
F-2.771403
sI8
F2.541713
sI9
F-3.043068
sI10
F3.742772
sI11
F-2.868619
sI12
F4.345208
sI13
F-2.462503
sI14
F2.885009
ssS'ref3mean'
p148
(dp149
I0
F1.4992063092094114
sI1
Fnan
sI2
Fnan
sI3
Fnan
sI4
Fnan
sI5
Fnan
sI6
Fnan
sI7
Fnan
sI8
Fnan
sI9
Fnan
sI10
Fnan
sI11
Fnan
sI12
Fnan
sI13
Fnan
sI14
Fnan
ssS'median_JD'
p150
(dp151
I0
F2458349.7449652776
sI1
Fnan
sI2
Fnan
sI3
Fnan
sI4
Fnan
sI5
Fnan
sI6
Fnan
sI7
Fnan
sI8
Fnan
sI9
Fnan
sI10
Fnan
sI11
Fnan
sI12
Fnan
sI13
Fnan
sI14
Fnan
ssS'error'
p152
(dp153
I0
F0.0015179189095911741
sI1
Fnan
sI2
Fnan
sI3
Fnan
sI4
Fnan
sI5
Fnan
sI6
Fnan
sI7
Fnan
sI8
Fnan
sI9
Fnan
sI10
Fnan
sI11
Fnan
sI12
Fnan
sI13
Fnan
sI14
Fnan
ssS'ref3bkg'
p154
(dp155
I0
F18.6226
sI1
F17.55997
sI2
F17.63847
sI3
F17.90404
sI4
F17.34959
sI5
F17.36518
sI6
F15.32537
sI7
F14.92183
sI8
F18.14067
sI9
F16.76299
sI10
F19.12614
sI11
F19.6104
sI12
F17.0863
sI13
F15.02667
sI14
F15.75931
ssS'ref3mag'
p156
(dp157
I0
F10.797
sI1
F10.783
sI2
F10.791
sI3
F10.797
sI4
F10.8
sI5
F10.805
sI6
F10.775
sI7
F10.771
sI8
F10.819
sI9
F10.784
sI10
F10.817
sI11
F10.823
sI12
F10.916
sI13
F10.783
sI14
F10.774
ssS'mean'
p158
(dp159
I0
F0.4384520795875097
sI1
Fnan
sI2
Fnan
sI3
Fnan
sI4
Fnan
sI5
Fnan
sI6
Fnan
sI7
Fnan
sI8
Fnan
sI9
Fnan
sI10
Fnan
sI11
Fnan
sI12
Fnan
sI13
Fnan
sI14
Fnan
sssS'r'
p160
(dp161
g3
(dp162
I0
F0.5484459846096036
sI1
Fnan
sI2
Fnan
sI3
Fnan
sI4
Fnan
sI5
Fnan
sI6
Fnan
sI7
Fnan
sI8
Fnan
sI9
Fnan
sI10
Fnan
sI11
Fnan
sI12
Fnan
sI13
Fnan
sI14
Fnan
ssg5
(dp163
I0
S'NoError'
p164
sI1
S'NoError'
p165
sI2
S'NoError'
p166
sI3
S'NoError'
p167
sI4
S'NoError'
p168
sI5
S'NoError'
p169
sI6
S'NoError'
p170
sI7
S'NoError'
p171
sI8
S'NoError'
p172
sI9
S'NoError'
p173
sI10
S'NoError'
p174
sI11
S'NoError'
p175
sI12
S'NoError'
p176
sI13
S'NoError'
p177
sI14
S'NoError'
p178
ssg22
(dp179
I0
F0.002
sI1
F0.002
sI2
F0.002
sI3
F0.002
sI4
F0.002
sI5
F0.002
sI6
F0.002
sI7
F0.002
sI8
F0.002
sI9
F0.002
sI10
F0.002
sI11
F0.002
sI12
F0.002
sI13
F0.002
sI14
F0.002
ssg24
(dp180
I0
F0.8912221848076285
sI1
F0.8940358142519271
sI2
F0.8968301891746933
sI3
F0.8916688978821525
sI4
F0.8939193964616581
sI5
F0.8945603340210562
sI6
F0.8958655134586144
sI7
F0.891396071666704
sI8
F0.895639821619594
sI9
F0.8942302296479056
sI10
F0.8941015384395588
sI11
F0.8957469229239241
sI12
F0.8961760888389319
sI13
F0.8939938332452309
sI14
F0.8966251888995542
ssg26
(dp181
I0
F0.001827646027558309
sI1
Fnan
sI2
Fnan
sI3
Fnan
sI4
Fnan
sI5
Fnan
sI6
Fnan
sI7
Fnan
sI8
Fnan
sI9
Fnan
sI10
Fnan
sI11
Fnan
sI12
Fnan
sI13
Fnan
sI14
Fnan
ssg28
(dp182
I0
F0.8944008016892757
sI1
Fnan
sI2
Fnan
sI3
Fnan
sI4
Fnan
sI5
Fnan
sI6
Fnan
sI7
Fnan
sI8
Fnan
sI9
Fnan
sI10
Fnan
sI11
Fnan
sI12
Fnan
sI13
Fnan
sI14
Fnan
ssg30
(dp183
I0
F11.31
sI1
F11.327
sI2
F11.288
sI3
F11.311
sI4
F11.313
sI5
F11.302
sI6
F11.268
sI7
F11.306
sI8
F11.292
sI9
F11.309
sI10
F11.293
sI11
F11.316
sI12
F11.28
sI13
F11.289
sI14
F11.305
ssg32
(dp184
I0
F20.12587
sI1
F20.99989
sI2
F17.28755
sI3
F21.68354
sI4
F19.72991
sI5
F20.64821
sI6
F16.19663
sI7
F21.68956
sI8
F19.76229
sI9
F19.99465
sI10
F17.57517
sI11
F20.36769
sI12
F16.88238
sI13
F18.74685
sI14
F20.64593
ssg34
(dp185
I0
F2458349.7413078705
sI1
F2458349.742766204
sI2
F2458349.759224537
sI3
F2458349.724050926
sI4
F2458349.739837963
sI5
F2458349.7225925927
sI6
F2458349.7607060187
sI7
F2458349.7211111113
sI8
F2458349.721851852
sI9
F2458349.7405671296
sI10
F2458349.7599652777
sI11
F2458349.742037037
sI12
F2458349.761435185
sI13
F2458349.7585069444
sI14
F2458349.723321759
ssg36
(dp186
I0
F3.042456333333334
sI1
Fnan
sI2
Fnan
sI3
Fnan
sI4
Fnan
sI5
Fnan
sI6
Fnan
sI7
Fnan
sI8
Fnan
sI9
Fnan
sI10
Fnan
sI11
Fnan
sI12
Fnan
sI13
Fnan
sI14
Fnan
ssg38
(dp187
I0
F2.872151333333334
sI1
Fnan
sI2
Fnan
sI3
Fnan
sI4
Fnan
sI5
Fnan
sI6
Fnan
sI7
Fnan
sI8
Fnan
sI9
Fnan
sI10
Fnan
sI11
Fnan
sI12
Fnan
sI13
Fnan
sI14
Fnan
ssg40
(dp188
I0
F0.5482368615014636
sI1
F0.5488160261724433
sI2
F0.5490218966122785
sI3
F0.5489972176036745
sI4
F0.5492666940659664
sI5
F0.5486101200846396
sI6
F0.5533865318867834
sI7
F0.5496812536188975
sI8
F0.5497909260640388
sI9
F0.5468351399293605
sI10
F0.5470115311167534
sI11
F0.5466640930574209
sI12
F0.5494510209209386
sI13
F0.5489001206801312
sI14
F0.5469608831064439
ssg42
(dp189
I0
F0.0010724117057020264
sI1
Fnan
sI2
Fnan
sI3
Fnan
sI4
Fnan
sI5
Fnan
sI6
Fnan
sI7
Fnan
sI8
Fnan
sI9
Fnan
sI10
Fnan
sI11
Fnan
sI12
Fnan
sI13
Fnan
sI14
Fnan
ssg44
(dp190
I0
F2.2538098
sI1
Fnan
sI2
Fnan
sI3
Fnan
sI4
Fnan
sI5
Fnan
sI6
Fnan
sI7
Fnan
sI8
Fnan
sI9
Fnan
sI10
Fnan
sI11
Fnan
sI12
Fnan
sI13
Fnan
sI14
Fnan
ssg46
(dp191
I0
g164
sI1
g165
sI2
g166
sI3
g167
sI4
g168
sI5
g169
sI6
g170
sI7
g171
sI8
g172
sI9
g173
sI10
g174
sI11
g175
sI12
g176
sI13
g177
sI14
g178
ssg48
(dp192
I0
F0.001713342936973194
sI1
Fnan
sI2
Fnan
sI3
Fnan
sI4
Fnan
sI5
Fnan
sI6
Fnan
sI7
Fnan
sI8
Fnan
sI9
Fnan
sI10
Fnan
sI11
Fnan
sI12
Fnan
sI13
Fnan
sI14
Fnan
ssg50
(dp193
I0
F0.014415600015591171
sI1
Fnan
sI2
Fnan
sI3
Fnan
sI4
Fnan
sI5
Fnan
sI6
Fnan
sI7
Fnan
sI8
Fnan
sI9
Fnan
sI10
Fnan
sI11
Fnan
sI12
Fnan
sI13
Fnan
sI14
Fnan
ssg52
(dp194
I0
F2.987383133333333
sI1
Fnan
sI2
Fnan
sI3
Fnan
sI4
Fnan
sI5
Fnan
sI6
Fnan
sI7
Fnan
sI8
Fnan
sI9
Fnan
sI10
Fnan
sI11
Fnan
sI12
Fnan
sI13
Fnan
sI14
Fnan
ssg54
(dp195
I0
F1.4973787974626585
sI1
F1.4949051482945583
sI2
F1.4933077934474697
sI3
F1.4950161904940413
sI4
F1.5013287879725514
sI5
F1.4938366368131362
sI6
F1.4948928689414966
sI7
F1.4992679223032874
sI8
F1.4955890275987131
sI9
F1.493374534120472
sI10
F1.4928086049507052
sI11
F1.492245930402532
sI12
F1.4885061288977302
sI13
F1.4908812018730095
sI14
F1.4932215959822681
ssg56
(dp196
I0
g164
sI1
g165
sI2
g166
sI3
g167
sI4
g168
sI5
g169
sI6
g170
sI7
g171
sI8
g172
sI9
g173
sI10
g174
sI11
g175
sI12
g176
sI13
g177
sI14
g178
ssg58
(dp197
I0
F23.46321
sI1
F23.57715
sI2
F19.41106
sI3
F24.65641
sI4
F23.56258
sI5
F23.7241
sI6
F17.93181
sI7
F23.94052
sI8
F22.19222
sI9
F22.72987
sI10
F19.80609
sI11
F21.56357
sI12
F19.26175
sI13
F18.5343
sI14
F23.75023
ssg60
(dp198
I0
F10.378599999999999
sI1
Fnan
sI2
Fnan
sI3
Fnan
sI4
Fnan
sI5
Fnan
sI6
Fnan
sI7
Fnan
sI8
Fnan
sI9
Fnan
sI10
Fnan
sI11
Fnan
sI12
Fnan
sI13
Fnan
sI14
Fnan
ssg62
(dp199
I0
F0.7149142116163886
sI1
Fnan
sI2
Fnan
sI3
Fnan
sI4
Fnan
sI5
Fnan
sI6
Fnan
sI7
Fnan
sI8
Fnan
sI9
Fnan
sI10
Fnan
sI11
Fnan
sI12
Fnan
sI13
Fnan
sI14
Fnan
ssg64
(dp200
I0
F2.71979
sI1
F2.588018
sI2
F-2.05871
sI3
F4.461917
sI4
F4.344918
sI5
F-1.956721
sI6
F2.866945
sI7
F3.049434
sI8
F4.226542
sI9
F4.14603
sI10
F3.23307
sI11
F3.552602
sI12
F4.166783
sI13
F3.573912
sI14
F4.16774
ssg66
(dp201
I0
F10.731333333333335
sI1
Fnan
sI2
Fnan
sI3
Fnan
sI4
Fnan
sI5
Fnan
sI6
Fnan
sI7
Fnan
sI8
Fnan
sI9
Fnan
sI10
Fnan
sI11
Fnan
sI12
Fnan
sI13
Fnan
sI14
Fnan
ssg68
(dp202
I0
g164
sI1
g165
sI2
g166
sI3
g167
sI4
g168
sI5
g169
sI6
g170
sI7
g171
sI8
g172
sI9
g173
sI10
g174
sI11
g175
sI12
g176
sI13
g177
sI14
g178
ssg70
(dp203
I0
F12677.626666666667
sI1
F12498.373333333333
sI2
F12978.359999999999
sI3
F12649.516666666666
sI4
F12641.75
sI5
F12798.726666666666
sI6
F13101.773333333334
sI7
F12691.483333333334
sI8
F12893.81
sI9
F12748.17
sI10
F12933.646666666667
sI11
F12692.466666666667
sI12
F13054.226666666666
sI13
F12940.496666666668
sI14
F12820.686666666666
ssg72
(dp204
I0
F1.004791
sI1
F1.004694
sI2
F1.006869
sI3
F1.009536
sI4
F1.004937
sI5
F1.010245
sI6
F1.007357
sI7
F1.011009
sI8
F1.0106190000000002
sI9
F1.004858
sI10
F1.007108
sI11
F1.004736
sI12
F1.007617
sI13
F1.006643
sI14
F1.009883
ssg74
(dp205
I0
F10841.476666666666
sI1
F10654.083333333334
sI2
F11022.443333333333
sI3
F10825.163333333334
sI4
F10735.443333333333
sI5
F10907.756666666666
sI6
F11134.273333333334
sI7
F10837.44
sI8
F10956.94
sI9
F10873.816666666668
sI10
F11038.29
sI11
F10806.376666666667
sI12
F11132.286666666665
sI13
F11059.376666666667
sI14
F10892.859999999999
ssg76
(dp206
I0
F17608.503333333334
sI1
F17305.363333333335
sI2
F17920.293333333335
sI3
F17547.513333333332
sI4
F17548.42666666667
sI5
F17706.806666666664
sI6
F18115.146666666667
sI7
F17638.08
sI8
F17835.460000000003
sI9
F17638.236666666668
sI10
F17892.756666666664
sI11
F17533.02666666667
sI12
F18000.886666666665
sI13
F17890.48
sI14
F17704.789999999997
ssg78
(dp207
I0
F21.98979
sI1
F23.14093
sI2
F19.23566
sI3
F21.94384
sI4
F21.93448
sI5
F23.6445
sI6
F18.07437
sI7
F23.02426
sI8
F21.92788
sI9
F21.74555
sI10
F17.81906
sI11
F21.44641
sI12
F17.63163
sI13
F18.36783
sI14
F21.76538
ssg80
(dp208
I0
F10.912
sI1
F10.931
sI2
F10.894
sI3
F10.914
sI4
F10.923
sI5
F10.906
sI6
F10.883
sI7
F10.913
sI8
F10.901
sI9
F10.909
sI10
F10.893
sI11
F10.916
sI12
F10.884
sI13
F10.891
sI14
F10.907
ssg82
(dp209
I0
F0.001
sI1
F0.001
sI2
F0.001
sI3
F0.001
sI4
F0.001
sI5
F0.001
sI6
F0.001
sI7
F0.001
sI8
F0.001
sI9
F0.001
sI10
F0.001
sI11
F0.001
sI12
F0.001
sI13
F0.001
sI14
F0.001
ssg84
(dp210
I0
F0.5487753544280823
sI1
Fnan
sI2
Fnan
sI3
Fnan
sI4
Fnan
sI5
Fnan
sI6
Fnan
sI7
Fnan
sI8
Fnan
sI9
Fnan
sI10
Fnan
sI11
Fnan
sI12
Fnan
sI13
Fnan
sI14
Fnan
ssg86
(dp211
I0
F10.905133333333334
sI1
Fnan
sI2
Fnan
sI3
Fnan
sI4
Fnan
sI5
Fnan
sI6
Fnan
sI7
Fnan
sI8
Fnan
sI9
Fnan
sI10
Fnan
sI11
Fnan
sI12
Fnan
sI13
Fnan
sI14
Fnan
ssg88
(dp212
I0
F10.742
sI1
F10.758
sI2
F10.717
sI3
F10.745
sI4
F10.745
sI5
F10.732
sI6
F10.707
sI7
F10.741
sI8
F10.724
sI9
F10.736
sI10
F10.721
sI11
F10.741
sI12
F10.711
sI13
F10.72
sI14
F10.73
ssg90
(dp213
I0
F3.564324
sI1
F3.265404
sI2
F3.020712
sI3
F3.737874
sI4
F3.322852
sI5
F4.013804
sI6
F-3.226662
sI7
F3.604817
sI8
F3.467318
sI9
F4.528275
sI10
F2.752459
sI11
F2.957261
sI12
F3.399828
sI13
F2.852383
sI14
F4.376196
ssg92
(dp214
I0
F0.013081065924238678
sI1
Fnan
sI2
Fnan
sI3
Fnan
sI4
Fnan
sI5
Fnan
sI6
Fnan
sI7
Fnan
sI8
Fnan
sI9
Fnan
sI10
Fnan
sI11
Fnan
sI12
Fnan
sI13
Fnan
sI14
Fnan
ssg94
(dp215
I0
F0.7159367450820996
sI1
F0.7149495012985508
sI2
F0.7134578464908287
sI3
F0.7169687438356245
sI4
F0.7111878444346079
sI5
F0.7151329922658841
sI6
F0.7133486156439094
sI7
F0.7146453037185171
sI8
F0.7131272561958029
sI9
F0.7157027012736616
sI10
F0.7161581505724368
sI11
F0.715050473948702
sI12
F0.7169374361752986
sI13
F0.7174198071139058
sI14
F0.7136897561959994
ssg96
(dp216
I0
F30.0
sI1
F30.0
sI2
F30.0
sI3
F30.0
sI4
F30.0
sI5
F30.0
sI6
F30.0
sI7
F30.0
sI8
F30.0
sI9
F30.0
sI10
F30.0
sI11
F30.0
sI12
F30.0
sI13
F30.0
sI14
F30.0
ssg98
(dp217
I0
F0.002
sI1
F0.002
sI2
F0.002
sI3
F0.002
sI4
F0.002
sI5
F0.002
sI6
F0.002
sI7
F0.002
sI8
F0.002
sI9
F0.002
sI10
F0.002
sI11
F0.002
sI12
F0.002
sI13
F0.002
sI14
F0.002
ssg100
(dp218
I0
F0.002
sI1
F0.002
sI2
F0.002
sI3
F0.002
sI4
F0.002
sI5
F0.002
sI6
F0.002
sI7
F0.002
sI8
F0.002
sI9
F0.002
sI10
F0.002
sI11
F0.002
sI12
F0.002
sI13
F0.002
sI14
F0.002
ssg102
(dp219
I0
F3.100391
sI1
F3.340906
sI2
F2.402004
sI3
F3.94045
sI4
F-2.497788
sI5
F0.86112
sI6
F3.123286
sI7
F4.847913
sI8
F4.050929
sI9
F2.380128
sI10
F3.430647
sI11
F4.913188
sI12
F3.496534
sI13
F4.606526
sI14
F2.814513
ssg104
(dp220
I0
S"KIC8462852-20180819at054729_-25-1X1-030-r'_cal.fts.mag.1"
p221
sI1
S"KIC8462852-20180819at054935_-25-1X1-030-r'_cal.fts.mag.1"
p222
sI2
S"KIC8462852-20180819at061317_-25-1X1-030-r'_cal.fts.mag.1"
p223
sI3
S"KIC8462852-20180819at052238_-25-1X1-030-r'_cal.fts.mag.1"
p224
sI4
S"KIC8462852-20180819at054520_-25-1X1-030-r'_cal.fts.mag.1"
p225
sI5
S"KIC8462852-20180819at052032_-25-1X1-030-r'_cal.fts.mag.1"
p226
sI6
S"KIC8462852-20180819at061525_-25-1X1-030-r'_cal.fts.mag.1"
p227
sI7
S"KIC8462852-20180819at051823_-25-1X1-030-r'_cal.fts.mag.1"
p228
sI8
S"KIC8462852-20180819at051928_-25-1X1-030-r'_cal.fts.mag.1"
p229
sI9
S"KIC8462852-20180819at054625_-25-1X1-030-r'_cal.fts.mag.1"
p230
sI10
S"KIC8462852-20180819at061421_-25-1X1-030-r'_cal.fts.mag.1"
p231
sI11
S"KIC8462852-20180819at054832_-25-1X1-030-r'_cal.fts.mag.1"
p232
sI12
S"KIC8462852-20180819at061628_-25-1X1-030-r'_cal.fts.mag.1"
p233
sI13
S"KIC8462852-20180819at061213_-25-1X1-030-r'_cal.fts.mag.1"
p234
sI14
S"KIC8462852-20180819at052135_-25-1X1-030-r'_cal.fts.mag.1"
p235
ssg121
(dp236
I0
F0.003174578744854135
sI1
Fnan
sI2
Fnan
sI3
Fnan
sI4
Fnan
sI5
Fnan
sI6
Fnan
sI7
Fnan
sI8
Fnan
sI9
Fnan
sI10
Fnan
sI11
Fnan
sI12
Fnan
sI13
Fnan
sI14
Fnan
ssg123
(dp237
I0
F7515.89
sI1
F7401.3
sI2
F7671.866666666667
sI3
F7507.0233333333335
sI4
F7493.026666666667
sI5
F7573.25
sI6
F7812.193333333333
sI7
F7542.91
sI8
F7639.566666666667
sI9
F7520.846666666666
sI10
F7633.490000000001
sI11
F7476.883333333333
sI12
F7726.636666666667
sI13
F7664.54
sI14
F7551.403333333334
ssg125
(dp238
I0
F0.013984004467690226
sI1
Fnan
sI2
Fnan
sI3
Fnan
sI4
Fnan
sI5
Fnan
sI6
Fnan
sI7
Fnan
sI8
Fnan
sI9
Fnan
sI10
Fnan
sI11
Fnan
sI12
Fnan
sI13
Fnan
sI14
Fnan
ssg127
(dp239
I0
S"r'"
p240
sI1
S"r'"
p241
sI2
S"r'"
p242
sI3
S"r'"
p243
sI4
S"r'"
p244
sI5
S"r'"
p245
sI6
S"r'"
p246
sI7
S"r'"
p247
sI8
S"r'"
p248
sI9
S"r'"
p249
sI10
S"r'"
p250
sI11
S"r'"
p251
sI12
S"r'"
p252
sI13
S"r'"
p253
sI14
S"r'"
p254
ssg144
(dp255
I0
F0.001666533535935195
sI1
Fnan
sI2
Fnan
sI3
Fnan
sI4
Fnan
sI5
Fnan
sI6
Fnan
sI7
Fnan
sI8
Fnan
sI9
Fnan
sI10
Fnan
sI11
Fnan
sI12
Fnan
sI13
Fnan
sI14
Fnan
ssg146
(dp256
I0
F4.371907
sI1
F4.085215
sI2
F4.109565
sI3
F3.925397
sI4
F2.664853
sI5
F3.076092
sI6
F3.09704
sI7
F-2.911805
sI8
F4.661304
sI9
F3.24379
sI10
F2.773283
sI11
F4.557465
sI12
F3.257063
sI13
F-4.05137
sI14
F-3.052652
ssg148
(dp257
I0
F1.4944374113036418
sI1
Fnan
sI2
Fnan
sI3
Fnan
sI4
Fnan
sI5
Fnan
sI6
Fnan
sI7
Fnan
sI8
Fnan
sI9
Fnan
sI10
Fnan
sI11
Fnan
sI12
Fnan
sI13
Fnan
sI14
Fnan
ssg150
(dp258
I0
F2458349.7413078705
sI1
Fnan
sI2
Fnan
sI3
Fnan
sI4
Fnan
sI5
Fnan
sI6
Fnan
sI7
Fnan
sI8
Fnan
sI9
Fnan
sI10
Fnan
sI11
Fnan
sI12
Fnan
sI13
Fnan
sI14
Fnan
ssg152
(dp259
I0
F0.001666533535935195
sI1
Fnan
sI2
Fnan
sI3
Fnan
sI4
Fnan
sI5
Fnan
sI6
Fnan
sI7
Fnan
sI8
Fnan
sI9
Fnan
sI10
Fnan
sI11
Fnan
sI12
Fnan
sI13
Fnan
sI14
Fnan
ssg154
(dp260
I0
F25.67364
sI1
F27.54293
sI2
F21.7102
sI3
F26.58722
sI4
F24.93172
sI5
F25.61559
sI6
F21.24108
sI7
F26.90345
sI8
F25.82379
sI9
F24.59661
sI10
F22.48964
sI11
F25.76876
sI12
F20.96684
sI13
F21.40733
sI14
F25.36398
ssg156
(dp261
I0
F10.386
sI1
F10.405
sI2
F10.367
sI3
F10.389
sI4
F10.389
sI5
F10.38
sI6
F10.355
sI7
F10.384
sI8
F10.372
sI9
F10.384
sI10
F10.368
sI11
F10.39
sI12
F10.362
sI13
F10.368
sI14
F10.38
ssg158
(dp262
I0
F0.5487753544280823
sI1
Fnan
sI2
Fnan
sI3
Fnan
sI4
Fnan
sI5
Fnan
sI6
Fnan
sI7
Fnan
sI8
Fnan
sI9
Fnan
sI10
Fnan
sI11
Fnan
sI12
Fnan
sI13
Fnan
sI14
Fnan
sssS'z'
p263
(dp264
g3
(dp265
I0
F0.3689788536835495
sI1
Fnan
sI2
Fnan
sI3
Fnan
sI4
Fnan
sI5
Fnan
sI6
Fnan
sI7
Fnan
sI8
Fnan
sI9
Fnan
sI10
Fnan
sI11
Fnan
sI12
Fnan
sI13
Fnan
sI14
Fnan
ssg5
(dp266
I0
S'NoError'
p267
sI1
S'NoError'
p268
sI2
S'NoError'
p269
sI3
S'NoError'
p270
sI4
S'NoError'
p271
sI5
S'NoError'
p272
sI6
S'NoError'
p273
sI7
S'NoError'
p274
sI8
S'NoError'
p275
sI9
S'NoError'
p276
sI10
S'NoError'
p277
sI11
S'NoError'
p278
sI12
S'NoError'
p279
sI13
S'NoError'
p280
sI14
S'NoError'
p281
ssg22
(dp282
I0
F0.007
sI1
F0.007
sI2
F0.007
sI3
F0.007
sI4
F0.007
sI5
F0.007
sI6
F0.007
sI7
F0.007
sI8
F0.008
sI9
F0.007
sI10
F0.007
sI11
F0.007
sI12
F0.007
sI13
F0.007
sI14
F0.007
ssg24
(dp283
I0
F0.914098524239272
sI1
F0.9148275209812929
sI2
F0.9188607165653475
sI3
F0.9111003808477437
sI4
F0.9192572033335773
sI5
F0.9134175418555279
sI6
F0.916646505849183
sI7
F0.9123436049694069
sI8
F0.9180451334425548
sI9
F0.9239160739093484
sI10
F0.9143934073853507
sI11
F0.9333920104073696
sI12
F0.9154875559974566
sI13
F0.9197455605226477
sI14
F0.9201720914553857
ssg26
(dp284
I0
F0.005527905033534407
sI1
Fnan
sI2
Fnan
sI3
Fnan
sI4
Fnan
sI5
Fnan
sI6
Fnan
sI7
Fnan
sI8
Fnan
sI9
Fnan
sI10
Fnan
sI11
Fnan
sI12
Fnan
sI13
Fnan
sI14
Fnan
ssg28
(dp285
I0
F0.9177135887840977
sI1
Fnan
sI2
Fnan
sI3
Fnan
sI4
Fnan
sI5
Fnan
sI6
Fnan
sI7
Fnan
sI8
Fnan
sI9
Fnan
sI10
Fnan
sI11
Fnan
sI12
Fnan
sI13
Fnan
sI14
Fnan
ssg30
(dp286
I0
F13.305
sI1
F13.297
sI2
F13.278
sI3
F13.292
sI4
F13.295
sI5
F13.278
sI6
F13.319
sI7
F13.282
sI8
F13.341
sI9
F13.299
sI10
F13.339
sI11
F13.365
sI12
F13.316
sI13
F13.302
sI14
F13.317
ssg32
(dp287
I0
F7.101252
sI1
F6.742409
sI2
F6.335638
sI3
F5.735142
sI4
F7.38364
sI5
F6.029597
sI6
F7.387349
sI7
F7.693993
sI8
F6.737289
sI9
F6.407756
sI10
F7.844584
sI11
F7.768137
sI12
F7.712714
sI13
F8.118892
sI14
F7.589723
ssg34
(dp288
I0
F2458349.7306712964
sI1
F2458349.7299421295
sI2
F2458349.7666203706
sI3
F2458349.768090278
sI4
F2458349.729212963
sI5
F2458349.7658796296
sI6
F2458349.7472106484
sI7
F2458349.728483796
sI8
F2458349.7486921297
sI9
F2458349.7688310184
sI10
F2458349.74943287
sI11
F2458349.747951389
sI12
F2458349.750173611
sI13
F2458349.767349537
sI14
F2458349.731412037
ssg36
(dp289
I0
F0.6894377999999999
sI1
Fnan
sI2
Fnan
sI3
Fnan
sI4
Fnan
sI5
Fnan
sI6
Fnan
sI7
Fnan
sI8
Fnan
sI9
Fnan
sI10
Fnan
sI11
Fnan
sI12
Fnan
sI13
Fnan
sI14
Fnan
ssg38
(dp290
I0
F0.7963612666666665
sI1
Fnan
sI2
Fnan
sI3
Fnan
sI4
Fnan
sI5
Fnan
sI6
Fnan
sI7
Fnan
sI8
Fnan
sI9
Fnan
sI10
Fnan
sI11
Fnan
sI12
Fnan
sI13
Fnan
sI14
Fnan
ssg40
(dp291
I0
F0.3692707641670023
sI1
F0.36915088003759017
sI2
F0.37111820648224486
sI3
F0.3689024423252285
sI4
F0.36961607636753313
sI5
F0.37009415311726507
sI6
F0.3687272161978747
sI7
F0.37202920577082493
sI8
F0.3674672084338259
sI9
F0.3675441829026606
sI10
F0.36144660169094595
sI11
F0.35789863853706744
sI12
F0.36890367828562975
sI13
F0.36502247063959814
sI14
F0.3688786131588655
ssg42
(dp292
I0
F0.0016577883007286819
sI1
Fnan
sI2
Fnan
sI3
Fnan
sI4
Fnan
sI5
Fnan
sI6
Fnan
sI7
Fnan
sI8
Fnan
sI9
Fnan
sI10
Fnan
sI11
Fnan
sI12
Fnan
sI13
Fnan
sI14
Fnan
ssg44
(dp293
I0
F0.05690693333333332
sI1
Fnan
sI2
Fnan
sI3
Fnan
sI4
Fnan
sI5
Fnan
sI6
Fnan
sI7
Fnan
sI8
Fnan
sI9
Fnan
sI10
Fnan
sI11
Fnan
sI12
Fnan
sI13
Fnan
sI14
Fnan
ssg46
(dp294
I0
g267
sI1
g268
sI2
g269
sI3
g270
sI4
g271
sI5
g272
sI6
g273
sI7
g274
sI8
g275
sI9
g276
sI10
g277
sI11
g278
sI12
g279
sI13
g280
sI14
g281
ssg48
(dp295
I0
F0.004738006118423361
sI1
Fnan
sI2
Fnan
sI3
Fnan
sI4
Fnan
sI5
Fnan
sI6
Fnan
sI7
Fnan
sI8
Fnan
sI9
Fnan
sI10
Fnan
sI11
Fnan
sI12
Fnan
sI13
Fnan
sI14
Fnan
ssg50
(dp296
I0
F0.015895492023422053
sI1
Fnan
sI2
Fnan
sI3
Fnan
sI4
Fnan
sI5
Fnan
sI6
Fnan
sI7
Fnan
sI8
Fnan
sI9
Fnan
sI10
Fnan
sI11
Fnan
sI12
Fnan
sI13
Fnan
sI14
Fnan
ssg52
(dp297
I0
F0.19224853333333333
sI1
Fnan
sI2
Fnan
sI3
Fnan
sI4
Fnan
sI5
Fnan
sI6
Fnan
sI7
Fnan
sI8
Fnan
sI9
Fnan
sI10
Fnan
sI11
Fnan
sI12
Fnan
sI13
Fnan
sI14
Fnan
ssg54
(dp298
I0
F1.502295963841152
sI1
F1.491144982358632
sI2
F1.5093235767132436
sI3
F1.517835835968558
sI4
F1.4988053418993175
sI5
F1.5134386848281398
sI6
F1.5075478123005197
sI7
F1.4960961241206796
sI8
F1.5112504753822282
sI9
F1.4936134293762446
sI10
F1.5078581691092763
sI11
F1.4915291142198444
sI12
F1.505798848875037
sI13
F1.498505279198353
sI14
F1.50828339831969
ssg56
(dp299
I0
g267
sI1
g268
sI2
g269
sI3
g270
sI4
g271
sI5
g272
sI6
g273
sI7
g274
sI8
g275
sI9
g276
sI10
g277
sI11
g278
sI12
g279
sI13
g280
sI14
g281
ssg58
(dp300
I0
F9.76058
sI1
F7.658497
sI2
F7.799592
sI3
F5.981106
sI4
F9.138759
sI5
F6.426132
sI6
F7.697417
sI7
F9.229741
sI8
F8.017089
sI9
F6.062784
sI10
F7.766131
sI11
F9.307324
sI12
F7.102185
sI13
F6.862604
sI14
F8.237146
ssg60
(dp301
I0
F11.948
sI1
Fnan
sI2
Fnan
sI3
Fnan
sI4
Fnan
sI5
Fnan
sI6
Fnan
sI7
Fnan
sI8
Fnan
sI9
Fnan
sI10
Fnan
sI11
Fnan
sI12
Fnan
sI13
Fnan
sI14
Fnan
ssg62
(dp302
I0
F0.689344600898083
sI1
Fnan
sI2
Fnan
sI3
Fnan
sI4
Fnan
sI5
Fnan
sI6
Fnan
sI7
Fnan
sI8
Fnan
sI9
Fnan
sI10
Fnan
sI11
Fnan
sI12
Fnan
sI13
Fnan
sI14
Fnan
ssg64
(dp303
I0
F1.536025
sI1
F2.530893
sI2
F2.429265
sI3
F1.968828
sI4
F-3.528818
sI5
F3.14292
sI6
F-2.350882
sI7
F2.136999
sI8
F-3.176362
sI9
F3.621582
sI10
F-3.02409
sI11
F2.676034
sI12
F4.01532
sI13
F-3.328862
sI14
F3.296567
ssg66
(dp304
I0
F12.285333333333334
sI1
Fnan
sI2
Fnan
sI3
Fnan
sI4
Fnan
sI5
Fnan
sI6
Fnan
sI7
Fnan
sI8
Fnan
sI9
Fnan
sI10
Fnan
sI11
Fnan
sI12
Fnan
sI13
Fnan
sI14
Fnan
ssg68
(dp305
I0
g267
sI1
g268
sI2
g269
sI3
g270
sI4
g271
sI5
g272
sI6
g273
sI7
g274
sI8
g275
sI9
g276
sI10
g277
sI11
g278
sI12
g279
sI13
g280
sI14
g281
ssg70
(dp306
I0
F3048.6453333333334
sI1
F3074.3446666666664
sI2
F3122.6233333333334
sI3
F3083.4696666666664
sI4
F3087.099333333333
sI5
F3117.3576666666663
sI6
F3020.3803333333335
sI7
F3086.537333333333
sI8
F2973.442
sI9
F3103.4736666666668
sI10
F3020.1943333333334
sI11
F3020.6136666666666
sI12
F3024.3796666666667
sI13
F3106.19
sI14
F3032.2806666666665
ssg72
(dp307
I0
F1.0069270000000001
sI1
F1.007169
sI2
F1.009811
sI3
F1.010543
sI4
F1.007422
sI5
F1.0094610000000002
sI6
F1.004688
sI7
F1.007685
sI8
F1.004783
sI9
F1.0109299999999999
sI10
F1.0048489999999999
sI11
F1.00473
sI12
F1.0049270000000001
sI13
F1.010169
sI14
F1.0067
ssg74
(dp308
I0
F2501.384
sI1
F2537.276
sI2
F2530.5183333333334
sI3
F2517.7816666666668
sI4
F2516.875
sI5
F2542.6580000000004
sI6
F2459.485666666667
sI7
F2549.8696666666665
sI8
F2409.9453333333336
sI9
F2519.105666666667
sI10
F2468.1070000000004
sI11
F2417.0899999999997
sI12
F2470.2453333333333
sI13
F2530.8716666666664
sI14
F2453.5716666666663
ssg76
(dp309
I0
F4168.893333333333
sI1
F4183.87
sI2
F4266.21
sI3
F4250.89
sI4
F4199.633333333333
sI5
F4283.043333333333
sI6
F4130.58
sI7
F4216.303333333333
sI8
F4067.8233333333333
sI9
F4198.98
sI10
F4137.79
sI11
F4055.2466666666664
sI12
F4136.9
sI13
F4223.583333333333
sI14
F4137.11
ssg78
(dp310
I0
F7.228551
sI1
F7.221112
sI2
F6.754159
sI3
F6.314337
sI4
F8.757529
sI5
F6.139788
sI6
F8.017759
sI7
F7.930886
sI8
F8.325963
sI9
F6.006578
sI10
F8.343775
sI11
F8.181389
sI12
F7.908616
sI13
F7.506179
sI14
F8.326994
ssg80
(dp311
I0
F12.505
sI1
F12.489
sI2
F12.492
sI3
F12.497
sI4
F12.498
sI5
F12.487
sI6
F12.523
sI7
F12.484
sI8
F12.545
sI9
F12.497
sI10
F12.519
sI11
F12.542
sI12
F12.518
sI13
F12.492
sI14
F12.526
ssg82
(dp312
I0
F0.003
sI1
F0.003
sI2
F0.003
sI3
F0.003
sI4
F0.003
sI5
F0.003
sI6
F0.003
sI7
F0.003
sI8
F0.003
sI9
F0.003
sI10
F0.003
sI11
F0.003
sI12
F0.003
sI13
F0.003
sI14
F0.003
ssg84
(dp313
I0
F0.3677380225409438
sI1
Fnan
sI2
Fnan
sI3
Fnan
sI4
Fnan
sI5
Fnan
sI6
Fnan
sI7
Fnan
sI8
Fnan
sI9
Fnan
sI10
Fnan
sI11
Fnan
sI12
Fnan
sI13
Fnan
sI14
Fnan
ssg86
(dp314
I0
F12.5076
sI1
Fnan
sI2
Fnan
sI3
Fnan
sI4
Fnan
sI5
Fnan
sI6
Fnan
sI7
Fnan
sI8
Fnan
sI9
Fnan
sI10
Fnan
sI11
Fnan
sI12
Fnan
sI13
Fnan
sI14
Fnan
ssg88
(dp315
I0
F12.29
sI1
F12.281
sI2
F12.264
sI3
F12.277
sI4
F12.276
sI5
F12.266
sI6
F12.3
sI7
F12.276
sI8
F12.317
sI9
F12.27
sI10
F12.3
sI11
F12.3
sI12
F12.298
sI13
F12.269
sI14
F12.296
ssg90
(dp316
I0
F2.269208
sI1
F-1.033322
sI2
F3.41416
sI3
F-2.444854
sI4
F-2.275083
sI5
F-2.252119
sI6
F1.759603
sI7
F3.542354
sI8
F-1.999424
sI9
F4.018314
sI10
F3.414193
sI11
F-3.193457
sI12
F3.58948
sI13
F-1.914682
sI14
F3.447196
ssg92
(dp317
I0
F0.017427400429045333
sI1
Fnan
sI2
Fnan
sI3
Fnan
sI4
Fnan
sI5
Fnan
sI6
Fnan
sI7
Fnan
sI8
Fnan
sI9
Fnan
sI10
Fnan
sI11
Fnan
sI12
Fnan
sI13
Fnan
sI14
Fnan
ssg94
(dp318
I0
F0.6931404500961915
sI1
F0.6991460342589297
sI2
F0.6849574808833149
sI3
F0.6865716384511459
sI4
F0.6908103028161044
sI5
F0.687167627808277
sI6
F0.6878756284528871
sI7
F0.6983226892256812
sI8
F0.6845205284126017
sI9
F0.6899340363268767
sI10
F0.6896095004026507
sI11
F0.6831932475019173
sI12
F0.6898893628834214
sI13
F0.6905729690595253
sI14
F0.6844575168917191
ssg96
(dp319
I0
F30.0
sI1
F30.0
sI2
F30.0
sI3
F30.0
sI4
F30.0
sI5
F30.0
sI6
F30.0
sI7
F30.0
sI8
F30.0
sI9
F30.0
sI10
F30.0
sI11
F30.0
sI12
F30.0
sI13
F30.0
sI14
F30.0
ssg98
(dp320
I0
F0.004
sI1
F0.004
sI2
F0.004
sI3
F0.004
sI4
F0.004
sI5
F0.004
sI6
F0.004
sI7
F0.004
sI8
F0.004
sI9
F0.004
sI10
F0.004
sI11
F0.004
sI12
F0.004
sI13
F0.004
sI14
F0.004
ssg100
(dp321
I0
F0.004
sI1
F0.004
sI2
F0.004
sI3
F0.004
sI4
F0.004
sI5
F0.004
sI6
F0.004
sI7
F0.004
sI8
F0.004
sI9
F0.004
sI10
F0.004
sI11
F0.004
sI12
F0.004
sI13
F0.004
sI14
F0.004
ssg102
(dp322
I0
F-4.269081
sI1
F4.383619
sI2
F3.540837
sI3
F3.374815
sI4
F-1.929382
sI5
F-3.072087
sI6
F3.982468
sI7
F-2.841899
sI8
F4.290895
sI9
F3.434231
sI10
F-3.235463
sI11
F-1.996586
sI12
F3.504085
sI13
F-2.982085
sI14
F-3.300639
ssg104
(dp323
I0
S"KIC8462852-20180819at053210_-25-1X1-030-z'_cal.fts.mag.1"
p324
sI1
S"KIC8462852-20180819at053107_-25-1X1-030-z'_cal.fts.mag.1"
p325
sI2
S"KIC8462852-20180819at062356_-25-1X1-030-z'_cal.fts.mag.1"
p326
sI3
S"KIC8462852-20180819at062603_-25-1X1-030-z'_cal.fts.mag.1"
p327
sI4
S"KIC8462852-20180819at053004_-25-1X1-030-z'_cal.fts.mag.1"
p328
sI5
S"KIC8462852-20180819at062250_-25-1X1-030-z'_cal.fts.mag.1"
p329
sI6
S"KIC8462852-20180819at055558_-25-1X1-030-z'_cal.fts.mag.1"
p330
sI7
S"KIC8462852-20180819at052859_-25-1X1-030-z'_cal.fts.mag.1"
p331
sI8
S"KIC8462852-20180819at055807_-25-1X1-030-z'_cal.fts.mag.1"
p332
sI9
S"KIC8462852-20180819at062707_-25-1X1-030-z'_cal.fts.mag.1"
p333
sI10
S"KIC8462852-20180819at055911_-25-1X1-030-z'_cal.fts.mag.1"
p334
sI11
S"KIC8462852-20180819at055703_-25-1X1-030-z'_cal.fts.mag.1"
p335
sI12
S"KIC8462852-20180819at060015_-25-1X1-030-z'_cal.fts.mag.1"
p336
sI13
S"KIC8462852-20180819at062459_-25-1X1-030-z'_cal.fts.mag.1"
p337
sI14
S"KIC8462852-20180819at053314_-25-1X1-030-z'_cal.fts.mag.1"
p338
ssg121
(dp339
I0
F0.008275277163330614
sI1
Fnan
sI2
Fnan
sI3
Fnan
sI4
Fnan
sI5
Fnan
sI6
Fnan
sI7
Fnan
sI8
Fnan
sI9
Fnan
sI10
Fnan
sI11
Fnan
sI12
Fnan
sI13
Fnan
sI14
Fnan
ssg123
(dp340
I0
F1196.3046666666667
sI1
F1205.338
sI2
F1227.0839999999998
sI3
F1211.493
sI4
F1207.857
sI5
F1226.6226666666666
sI6
F1181.211
sI7
F1221.8319999999999
sI8
F1157.6699999999998
sI9
F1203.2856666666667
sI10
F1159.7726666666667
sI11
F1132.5046666666667
sI12
F1184.3683333333333
sI13
F1199.7856666666667
sI14
F1183.2350000000001
ssg125
(dp341
I0
F0.019881074992493145
sI1
Fnan
sI2
Fnan
sI3
Fnan
sI4
Fnan
sI5
Fnan
sI6
Fnan
sI7
Fnan
sI8
Fnan
sI9
Fnan
sI10
Fnan
sI11
Fnan
sI12
Fnan
sI13
Fnan
sI14
Fnan
ssg127
(dp342
I0
S"z'"
p343
sI1
S"z'"
p344
sI2
S"z'"
p345
sI3
S"z'"
p346
sI4
S"z'"
p347
sI5
S"z'"
p348
sI6
S"z'"
p349
sI7
S"z'"
p350
sI8
S"z'"
p351
sI9
S"z'"
p352
sI10
S"z'"
p353
sI11
S"z'"
p354
sI12
S"z'"
p355
sI13
S"z'"
p356
sI14
S"z'"
p357
ssg144
(dp358
I0
F0.003704615514616633
sI1
Fnan
sI2
Fnan
sI3
Fnan
sI4
Fnan
sI5
Fnan
sI6
Fnan
sI7
Fnan
sI8
Fnan
sI9
Fnan
sI10
Fnan
sI11
Fnan
sI12
Fnan
sI13
Fnan
sI14
Fnan
ssg146
(dp359
I0
F-2.729321
sI1
F3.428562
sI2
F-1.710329
sI3
F3.941269
sI4
F3.741951
sI5
F3.014936
sI6
F-3.133935
sI7
F-2.837519
sI8
F4.086718
sI9
F2.282158
sI10
F-3.749835
sI11
F-1.195361
sI12
F3.67102
sI13
F-4.172358
sI14
F-3.784352
ssg148
(dp360
I0
F1.5035551357673944
sI1
Fnan
sI2
Fnan
sI3
Fnan
sI4
Fnan
sI5
Fnan
sI6
Fnan
sI7
Fnan
sI8
Fnan
sI9
Fnan
sI10
Fnan
sI11
Fnan
sI12
Fnan
sI13
Fnan
sI14
Fnan
ssg150
(dp361
I0
F2458349.7486921297
sI1
Fnan
sI2
Fnan
sI3
Fnan
sI4
Fnan
sI5
Fnan
sI6
Fnan
sI7
Fnan
sI8
Fnan
sI9
Fnan
sI10
Fnan
sI11
Fnan
sI12
Fnan
sI13
Fnan
sI14
Fnan
ssg152
(dp362
I0
F0.003704615514616633
sI1
Fnan
sI2
Fnan
sI3
Fnan
sI4
Fnan
sI5
Fnan
sI6
Fnan
sI7
Fnan
sI8
Fnan
sI9
Fnan
sI10
Fnan
sI11
Fnan
sI12
Fnan
sI13
Fnan
sI14
Fnan
ssg154
(dp363
I0
F9.334381
sI1
F8.620951
sI2
F7.100963
sI3
F7.610326
sI4
F9.542092
sI5
F7.289171
sI6
F9.56162
sI7
F9.31741
sI8
F9.135698
sI9
F7.552541
sI10
F8.227315
sI11
F9.31951
sI12
F8.010448
sI13
F9.040846
sI14
F8.809505
ssg156
(dp364
I0
F11.95
sI1
F11.946
sI2
F11.925
sI3
F11.929
sI4
F11.942
sI5
F11.921
sI6
F11.96
sI7
F11.938
sI8
F11.977
sI9
F11.942
sI10
F11.958
sI11
F11.98
sI12
F11.958
sI13
F11.936
sI14
F11.958
ssg158
(dp365
I0
F0.3677380225409438
sI1
Fnan
sI2
Fnan
sI3
Fnan
sI4
Fnan
sI5
Fnan
sI6
Fnan
sI7
Fnan
sI8
Fnan
sI9
Fnan
sI10
Fnan
sI11
Fnan
sI12
Fnan
sI13
Fnan
sI14
Fnan
sssS'g'
p366
(dp367
g3
(dp368
I0
F0.8640067168003155
sI1
Fnan
sI2
Fnan
sI3
Fnan
sI4
Fnan
sI5
Fnan
sI6
Fnan
sI7
Fnan
sI8
Fnan
sI9
Fnan
sI10
Fnan
sI11
Fnan
sI12
Fnan
sI13
Fnan
sI14
Fnan
ssg5
(dp369
I0
S'NoError'
p370
sI1
S'NoError'
p371
sI2
S'NoError'
p372
sI3
S'NoError'
p373
sI4
S'NoError'
p374
sI5
S'NoError'
p375
sI6
S'NoError'
p376
sI7
S'NoError'
p377
sI8
S'NoError'
p378
sI9
S'NoError'
p379
sI10
S'NoError'
p380
sI11
S'NoError'
p381
sI12
S'NoError'
p382
sI13
S'NoError'
p383
sI14
S'NoError'
p384
ssg22
(dp385
I0
F0.003
sI1
F0.003
sI2
F0.003
sI3
F0.003
sI4
F0.002
sI5
F0.003
sI6
F0.003
sI7
F0.003
sI8
F0.003
sI9
F0.003
sI10
F0.003
sI11
F0.003
sI12
F0.003
sI13
F0.003
sI14
F0.003
ssg24
(dp386
I0
F0.8777166487356225
sI1
F0.877628469301439
sI2
F0.8780229206283239
sI3
F0.878446990836718
sI4
F0.8782360056266637
sI5
F0.8742308924500839
sI6
F0.8799196648248572
sI7
F0.880680947305867
sI8
F0.8771735756197322
sI9
F0.8809324120369275
sI10
F0.8742279197959416
sI11
F0.8765495270089553
sI12
F0.8789165862623588
sI13
F0.8809228317552709
sI14
F0.8856655257370888
ssg26
(dp387
I0
F0.0028483197512019606
sI1
Fnan
sI2
Fnan
sI3
Fnan
sI4
Fnan
sI5
Fnan
sI6
Fnan
sI7
Fnan
sI8
Fnan
sI9
Fnan
sI10
Fnan
sI11
Fnan
sI12
Fnan
sI13
Fnan
sI14
Fnan
ssg28
(dp388
I0
F0.8786180611950566
sI1
Fnan
sI2
Fnan
sI3
Fnan
sI4
Fnan
sI5
Fnan
sI6
Fnan
sI7
Fnan
sI8
Fnan
sI9
Fnan
sI10
Fnan
sI11
Fnan
sI12
Fnan
sI13
Fnan
sI14
Fnan
ssg30
(dp389
I0
F11.6
sI1
F11.581
sI2
F11.608
sI3
F11.596
sI4
F11.563
sI5
F11.585
sI6
F11.589
sI7
F11.589
sI8
F11.597
sI9
F11.6
sI10
F11.607
sI11
F11.59
sI12
F11.585
sI13
F11.588
sI14
F11.597
ssg32
(dp390
I0
F16.56107
sI1
F18.47437
sI2
F17.96091
sI3
F13.23769
sI4
F15.13124
sI5
F14.73006
sI6
F14.19861
sI7
F17.1596
sI8
F18.14277
sI9
F16.81803
sI10
F18.68822
sI11
F15.69571
sI12
F18.58599
sI13
F13.98816
sI14
F17.00212
ssg34
(dp391
I0
F2458349.7383449073
sI1
F2458349.7180902776
sI2
F2458349.7188425926
sI3
F2458349.757025463
sI4
F2458349.754826389
sI5
F2458349.756296296
sI6
F2458349.7555555557
sI7
F2458349.736875
sI8
F2458349.717349537
sI9
F2458349.737604167
sI10
F2458349.7195949075
sI11
F2458349.736134259
sI12
F2458349.7203472224
sI13
F2458349.7577546295
sI14
F2458349.739085648
ssg36
(dp392
I0
F-0.011428533333333253
sI1
Fnan
sI2
Fnan
sI3
Fnan
sI4
Fnan
sI5
Fnan
sI6
Fnan
sI7
Fnan
sI8
Fnan
sI9
Fnan
sI10
Fnan
sI11
Fnan
sI12
Fnan
sI13
Fnan
sI14
Fnan
ssg38
(dp393
I0
F1.8858362733333334
sI1
Fnan
sI2
Fnan
sI3
Fnan
sI4
Fnan
sI5
Fnan
sI6
Fnan
sI7
Fnan
sI8
Fnan
sI9
Fnan
sI10
Fnan
sI11
Fnan
sI12
Fnan
sI13
Fnan
sI14
Fnan
ssg40
(dp394
I0
F0.8595606848208927
sI1
F0.8633581283197043
sI2
F0.863049270460291
sI3
F0.8639456562154534
sI4
F0.8652821288641538
sI5
F0.8655040250230587
sI6
F0.8662426216734377
sI7
F0.8657888761492182
sI8
F0.8615426872230915
sI9
F0.8598253650651768
sI10
F0.8670851749179544
sI11
F0.861348942588475
sI12
F0.8680018637116234
sI13
F0.862170465882762
sI14
F0.8627626242861878
ssg42
(dp395
I0
F0.0018465454867532068
sI1
Fnan
sI2
Fnan
sI3
Fnan
sI4
Fnan
sI5
Fnan
sI6
Fnan
sI7
Fnan
sI8
Fnan
sI9
Fnan
sI10
Fnan
sI11
Fnan
sI12
Fnan
sI13
Fnan
sI14
Fnan
ssg44
(dp396
I0
F1.7926382
sI1
Fnan
sI2
Fnan
sI3
Fnan
sI4
Fnan
sI5
Fnan
sI6
Fnan
sI7
Fnan
sI8
Fnan
sI9
Fnan
sI10
Fnan
sI11
Fnan
sI12
Fnan
sI13
Fnan
sI14
Fnan
ssg46
(dp397
I0
g370
sI1
g371
sI2
g372
sI3
g373
sI4
g374
sI5
g375
sI6
g376
sI7
g377
sI8
g378
sI9
g379
sI10
g380
sI11
g381
sI12
g382
sI13
g383
sI14
g384
ssg48
(dp398
I0
F0.0020389878209099857
sI1
Fnan
sI2
Fnan
sI3
Fnan
sI4
Fnan
sI5
Fnan
sI6
Fnan
sI7
Fnan
sI8
Fnan
sI9
Fnan
sI10
Fnan
sI11
Fnan
sI12
Fnan
sI13
Fnan
sI14
Fnan
ssg50
(dp399
I0
F0.011157743414115368
sI1
Fnan
sI2
Fnan
sI3
Fnan
sI4
Fnan
sI5
Fnan
sI6
Fnan
sI7
Fnan
sI8
Fnan
sI9
Fnan
sI10
Fnan
sI11
Fnan
sI12
Fnan
sI13
Fnan
sI14
Fnan
ssg52
(dp400
I0
F1.8312770666666667
sI1
Fnan
sI2
Fnan
sI3
Fnan
sI4
Fnan
sI5
Fnan
sI6
Fnan
sI7
Fnan
sI8
Fnan
sI9
Fnan
sI10
Fnan
sI11
Fnan
sI12
Fnan
sI13
Fnan
sI14
Fnan
ssg54
(dp401
I0
F1.5128186885410337
sI1
F1.5129038484162758
sI2
F1.5164763531606171
sI3
F1.5099566140281309
sI4
F1.5108589826391232
sI5
F1.5147669526492722
sI6
F1.5078908016138672
sI7
F1.5081238718457401
sI8
F1.5165472527011044
sI9
F1.5102447808685997
sI10
F1.5147640270326541
sI11
F1.5101442180271956
sI12
F1.504879360421317
sI13
F1.5115190621428602
sI14
F1.5068928774037222
ssg56
(dp402
I0
g370
sI1
g371
sI2
g372
sI3
g373
sI4
g374
sI5
g375
sI6
g376
sI7
g377
sI8
g378
sI9
g379
sI10
g380
sI11
g381
sI12
g382
sI13
g383
sI14
g384
ssg58
(dp403
I0
F16.44041
sI1
F18.98288
sI2
F18.34631
sI3
F15.78023
sI4
F15.25929
sI5
F14.90625
sI6
F15.19372
sI7
F16.76352
sI8
F18.31281
sI9
F16.44555
sI10
F19.12814
sI11
F16.88196
sI12
F19.49743
sI13
F13.68506
sI14
F16.75456
ssg60
(dp404
I0
F11.155066666666668
sI1
Fnan
sI2
Fnan
sI3
Fnan
sI4
Fnan
sI5
Fnan
sI6
Fnan
sI7
Fnan
sI8
Fnan
sI9
Fnan
sI10
Fnan
sI11
Fnan
sI12
Fnan
sI13
Fnan
sI14
Fnan
ssg62
(dp405
I0
F0.7187827780595952
sI1
Fnan
sI2
Fnan
sI3
Fnan
sI4
Fnan
sI5
Fnan
sI6
Fnan
sI7
Fnan
sI8
Fnan
sI9
Fnan
sI10
Fnan
sI11
Fnan
sI12
Fnan
sI13
Fnan
sI14
Fnan
ssg64
(dp406
I0
F3.970277
sI1
F3.164196
sI2
F3.382227
sI3
F2.257844
sI4
F2.536703
sI5
F-2.892302
sI6
F3.962067
sI7
F2.692426
sI8
F-0.5653406
sI9
F-2.411169
sI10
F-0.7148983
sI11
F2.910036
sI12
F3.038429
sI13
F4.837543
sI14
F2.119506
ssg66
(dp407
I0
F11.528266666666665
sI1
Fnan
sI2
Fnan
sI3
Fnan
sI4
Fnan
sI5
Fnan
sI6
Fnan
sI7
Fnan
sI8
Fnan
sI9
Fnan
sI10
Fnan
sI11
Fnan
sI12
Fnan
sI13
Fnan
sI14
Fnan
ssg68
(dp408
I0
g370
sI1
g371
sI2
g372
sI3
g373
sI4
g374
sI5
g375
sI6
g376
sI7
g377
sI8
g378
sI9
g379
sI10
g380
sI11
g381
sI12
g382
sI13
g383
sI14
g384
ssg70
(dp409
I0
F6124.133333333333
sI1
F6207.7733333333335
sI2
F6056.3533333333335
sI3
F6122.96
sI4
F6297.496666666667
sI5
F6153.4766666666665
sI6
F6148.343333333333
sI7
F6157.570000000001
sI8
F6127.003333333333
sI9
F6139.363333333333
sI10
F6015.59
sI11
F6161.29
sI12
F6154.88
sI13
F6193.1033333333335
sI14
F6156.656666666667
ssg72
(dp410
I0
F1.005133
sI1
F1.012729
sI2
F1.012284
sI3
F1.0062280000000001
sI4
F1.005695
sI5
F1.006039
sI6
F1.005862
sI7
F1.005377
sI8
F1.013189
sI9
F1.005249
sI10
F1.011847
sI11
F1.005517
sI12
F1.011423
sI13
F1.006427
sI14
F1.0050299999999999
ssg74
(dp411
I0
F5307.613333333333
sI1
F5380.63
sI2
F5234.373333333334
sI3
F5309.306666666667
sI4
F5459.59
sI5
F5358.490000000001
sI6
F5324.72
sI7
F5325.05
sI8
F5302.89
sI9
F5300.12
sI10
F5238.453333333334
sI11
F5359.23
sI12
F5349.36
sI13
F5342.413333333333
sI14
F5283.413333333333
ssg76
(dp412
I0
F8647.08
sI1
F8766.07
sI2
F8561.06
sI3
F8631.113333333333
sI4
F8881.65
sI5
F8718.973333333333
sI6
F8650.063333333334
sI7
F8658.606666666667
sI8
F8666.986666666668
sI9
F8638.21
sI10
F8523.609999999999
sI11
F8698.823333333334
sI12
F8656.246666666666
sI13
F8718.076666666666
sI14
F8619.48
ssg78
(dp413
I0
F16.60374
sI1
F18.38155
sI2
F18.57449
sI3
F14.20841
sI4
F14.96449
sI5
F13.96722
sI6
F14.73854
sI7
F16.12909
sI8
F18.78967
sI9
F17.04025
sI10
F19.13708
sI11
F17.16615
sI12
F17.19188
sI13
F13.75102
sI14
F16.77162
ssg80
(dp414
I0
F11.688
sI1
F11.673
sI2
F11.703
sI3
F11.687
sI4
F11.657
sI5
F11.677
sI6
F11.684
sI7
F11.684
sI8
F11.689
sI9
F11.689
sI10
F11.702
sI11
F11.677
sI12
F11.679
sI13
F11.681
sI14
F11.693
ssg82
(dp415
I0
F0.002
sI1
F0.002
sI2
F0.002
sI3
F0.002
sI4
F0.002
sI5
F0.002
sI6
F0.002
sI7
F0.002
sI8
F0.002
sI9
F0.002
sI10
F0.002
sI11
F0.002
sI12
F0.002
sI13
F0.002
sI14
F0.002
ssg84
(dp416
I0
F0.8636979010134319
sI1
Fnan
sI2
Fnan
sI3
Fnan
sI4
Fnan
sI5
Fnan
sI6
Fnan
sI7
Fnan
sI8
Fnan
sI9
Fnan
sI10
Fnan
sI11
Fnan
sI12
Fnan
sI13
Fnan
sI14
Fnan
ssg86
(dp417
I0
F11.6842
sI1
Fnan
sI2
Fnan
sI3
Fnan
sI4
Fnan
sI5
Fnan
sI6
Fnan
sI7
Fnan
sI8
Fnan
sI9
Fnan
sI10
Fnan
sI11
Fnan
sI12
Fnan
sI13
Fnan
sI14
Fnan
ssg88
(dp418
I0
F11.532
sI1
F11.518
sI2
F11.544
sI3
F11.533
sI4
F11.502
sI5
F11.527
sI6
F11.528
sI7
F11.526
sI8
F11.532
sI9
F11.53
sI10
F11.552
sI11
F11.526
sI12
F11.527
sI13
F11.52
sI14
F11.527
ssg90
(dp419
I0
F-3.23122
sI1
F-3.689037
sI2
F4.432201
sI3
F-2.857265
sI4
F3.88199
sI5
F-4.138703
sI6
F2.963804
sI7
F-2.227832
sI8
F3.710094
sI9
F-2.805632
sI10
F-3.365701
sI11
F4.234475
sI12
F2.226884
sI13
F2.793821
sI14
F-2.099307
ssg92
(dp420
I0
F0.01042981075480066
sI1
Fnan
sI2
Fnan
sI3
Fnan
sI4
Fnan
sI5
Fnan
sI6
Fnan
sI7
Fnan
sI8
Fnan
sI9
Fnan
sI10
Fnan
sI11
Fnan
sI12
Fnan
sI13
Fnan
sI14
Fnan
ssg94
(dp421
I0
F0.71864283773574
sI1
F0.718670535041883
sI2
F0.7161832554049691
sI3
F0.7197072356515332
sI4
F0.7193540084818119
sI5
F0.7205927738872883
sI6
F0.719634230892425
sI7
F0.7188156728692715
sI8
F0.7168978754210324
sI9
F0.7173193975014391
sI10
F0.7205971901250873
sI11
F0.7212905958097223
sI12
F0.7223434273962502
sI13
F0.7165647967945304
sI14
F0.7151278378809436
ssg96
(dp422
I0
F30.0
sI1
F30.0
sI2
F30.0
sI3
F30.0
sI4
F30.0
sI5
F30.0
sI6
F30.0
sI7
F30.0
sI8
F30.0
sI9
F30.0
sI10
F30.0
sI11
F30.0
sI12
F30.0
sI13
F30.0
sI14
F30.0
ssg98
(dp423
I0
F0.003
sI1
F0.003
sI2
F0.003
sI3
F0.003
sI4
F0.003
sI5
F0.003
sI6
F0.003
sI7
F0.003
sI8
F0.003
sI9
F0.003
sI10
F0.003
sI11
F0.003
sI12
F0.003
sI13
F0.003
sI14
F0.003
ssg100
(dp424
I0
F0.002
sI1
F0.002
sI2
F0.002
sI3
F0.002
sI4
F0.002
sI5
F0.002
sI6
F0.002
sI7
F0.002
sI8
F0.002
sI9
F0.002
sI10
F0.002
sI11
F0.002
sI12
F0.002
sI13
F0.002
sI14
F0.002
ssg102
(dp425
I0
F-1.190107
sI1
F-3.583199
sI2
F2.284812
sI3
F3.319113
sI4
F1.30808
sI5
F1.517983
sI6
F3.508618
sI7
F2.435212
sI8
F3.75571
sI9
F2.840648
sI10
F4.64604
sI11
F3.274255
sI12
F3.146644
sI13
F3.647175
sI14
F-3.441828
ssg104
(dp426
I0
S"KIC8462852-20180819at054313_-25-1X1-030-g'_cal.fts.mag.1"
p427
sI1
S"KIC8462852-20180819at051403_-25-1X1-030-g'_cal.fts.mag.1"
p428
sI2
S"KIC8462852-20180819at051508_-25-1X1-030-g'_cal.fts.mag.1"
p429
sI3
S"KIC8462852-20180819at061007_-25-1X1-030-g'_cal.fts.mag.1"
p430
sI4
S"KIC8462852-20180819at060652_-25-1X1-030-g'_cal.fts.mag.1"
p431
sI5
S"KIC8462852-20180819at060904_-25-1X1-030-g'_cal.fts.mag.1"
p432
sI6
S"KIC8462852-20180819at060800_-25-1X1-030-g'_cal.fts.mag.1"
p433
sI7
S"KIC8462852-20180819at054106_-25-1X1-030-g'_cal.fts.mag.1"
p434
sI8
S"KIC8462852-20180819at051248_-25-1X1-030-g'_cal.fts.mag.1"
p435
sI9
S"KIC8462852-20180819at054209_-25-1X1-030-g'_cal.fts.mag.1"
p436
sI10
S"KIC8462852-20180819at051613_-25-1X1-030-g'_cal.fts.mag.1"
p437
sI11
S"KIC8462852-20180819at053957_-25-1X1-030-g'_cal.fts.mag.1"
p438
sI12
S"KIC8462852-20180819at051718_-25-1X1-030-g'_cal.fts.mag.1"
p439
sI13
S"KIC8462852-20180819at061110_-25-1X1-030-g'_cal.fts.mag.1"
p440
sI14
S"KIC8462852-20180819at054417_-25-1X1-030-g'_cal.fts.mag.1"
p441
ssg121
(dp442
I0
F0.003485138976823893
sI1
Fnan
sI2
Fnan
sI3
Fnan
sI4
Fnan
sI5
Fnan
sI6
Fnan
sI7
Fnan
sI8
Fnan
sI9
Fnan
sI10
Fnan
sI11
Fnan
sI12
Fnan
sI13
Fnan
sI14
Fnan
ssg123
(dp443
I0
F5752.990000000001
sI1
F5857.733333333334
sI2
F5711.0233333333335
sI3
F5777.89
sI4
F5952.776666666667
sI5
F5836.653333333334
sI6
F5810.503333333333
sI7
F5812.683333333333
sI8
F5771.4400000000005
sI9
F5754.4366666666665
sI10
F5716.303333333333
sI11
F5805.303333333333
sI12
F5833.113333333333
sI13
F5820.683333333333
sI14
F5768.876666666666
ssg125
(dp444
I0
F0.011409269414446633
sI1
Fnan
sI2
Fnan
sI3
Fnan
sI4
Fnan
sI5
Fnan
sI6
Fnan
sI7
Fnan
sI8
Fnan
sI9
Fnan
sI10
Fnan
sI11
Fnan
sI12
Fnan
sI13
Fnan
sI14
Fnan
ssg127
(dp445
I0
S"g'"
p446
sI1
S"g'"
p447
sI2
S"g'"
p448
sI3
S"g'"
p449
sI4
S"g'"
p450
sI5
S"g'"
p451
sI6
S"g'"
p452
sI7
S"g'"
p453
sI8
S"g'"
p454
sI9
S"g'"
p455
sI10
S"g'"
p456
sI11
S"g'"
p457
sI12
S"g'"
p458
sI13
S"g'"
p459
sI14
S"g'"
p460
ssg144
(dp461
I0
F0.0025731908554539763
sI1
Fnan
sI2
Fnan
sI3
Fnan
sI4
Fnan
sI5
Fnan
sI6
Fnan
sI7
Fnan
sI8
Fnan
sI9
Fnan
sI10
Fnan
sI11
Fnan
sI12
Fnan
sI13
Fnan
sI14
Fnan
ssg146
(dp462
I0
F-3.247724
sI1
F4.195107
sI2
F4.066833
sI3
F4.573876
sI4
F2.145041
sI5
F2.972744
sI6
F3.071343
sI7
F-3.155056
sI8
F3.734963
sI9
F-3.549795
sI10
F3.737215
sI11
F3.670786
sI12
F3.93449
sI13
F3.921921
sI14
F-3.182171
ssg148
(dp463
I0
F1.511252512766101
sI1
Fnan
sI2
Fnan
sI3
Fnan
sI4
Fnan
sI5
Fnan
sI6
Fnan
sI7
Fnan
sI8
Fnan
sI9
Fnan
sI10
Fnan
sI11
Fnan
sI12
Fnan
sI13
Fnan
sI14
Fnan
ssg150
(dp464
I0
F2458349.737604167
sI1
Fnan
sI2
Fnan
sI3
Fnan
sI4
Fnan
sI5
Fnan
sI6
Fnan
sI7
Fnan
sI8
Fnan
sI9
Fnan
sI10
Fnan
sI11
Fnan
sI12
Fnan
sI13
Fnan
sI14
Fnan
ssg152
(dp465
I0
F0.0025731908554539763
sI1
Fnan
sI2
Fnan
sI3
Fnan
sI4
Fnan
sI5
Fnan
sI6
Fnan
sI7
Fnan
sI8
Fnan
sI9
Fnan
sI10
Fnan
sI11
Fnan
sI12
Fnan
sI13
Fnan
sI14
Fnan
ssg154
(dp466
I0
F19.08809
sI1
F20.22264
sI2
F20.37371
sI3
F16.63957
sI4
F15.58492
sI5
F16.31699
sI6
F16.94608
sI7
F18.62194
sI8
F19.41718
sI9
F17.73019
sI10
F20.90639
sI11
F18.66527
sI12
F19.33975
sI13
F16.29763
sI14
F18.46424
ssg156
(dp467
I0
F11.158
sI1
F11.143
sI2
F11.169
sI3
F11.16
sI4
F11.129
sI5
F11.149
sI6
F11.157
sI7
F11.156
sI8
F11.155
sI9
F11.159
sI10
F11.173
sI11
F11.151
sI12
F11.157
sI13
F11.149
sI14
F11.161
ssg158
(dp468
I0
F0.8636979010134319
sI1
Fnan
sI2
Fnan
sI3
Fnan
sI4
Fnan
sI5
Fnan
sI6
Fnan
sI7
Fnan
sI8
Fnan
sI9
Fnan
sI10
Fnan
sI11
Fnan
sI12
Fnan
sI13
Fnan
sI14
Fnan
sssS'V'
p469
(dp470
g3
(dp471
I0
F0.6907415619488327
sI1
Fnan
sI2
Fnan
sI3
Fnan
sI4
Fnan
sI5
Fnan
sI6
Fnan
sI7
Fnan
sI8
Fnan
sI9
Fnan
sI10
Fnan
sI11
Fnan
sI12
Fnan
sI13
Fnan
sI14
Fnan
ssg5
(dp472
I0
S'NoError'
p473
sI1
S'NoError'
p474
sI2
S'NoError'
p475
sI3
S'NoError'
p476
sI4
S'NoError'
p477
sI5
S'NoError'
p478
sI6
S'NoError'
p479
sI7
S'NoError'
p480
sI8
S'NoError'
p481
sI9
S'NoError'
p482
sI10
S'NoError'
p483
sI11
S'NoError'
p484
sI12
S'NoError'
p485
sI13
S'NoError'
p486
sI14
S'NoError'
p487
ssg22
(dp488
I0
F0.003
sI1
F0.003
sI2
F0.003
sI3
F0.002
sI4
F0.002
sI5
F0.003
sI6
F0.002
sI7
F0.003
sI8
F0.002
sI9
F0.003
sI10
F0.003
sI11
F0.003
sI12
F0.002
sI13
F0.003
sI14
F0.003
ssg24
(dp489
I0
F0.8822427620507919
sI1
F0.8851814457355295
sI2
F0.8842576926981274
sI3
F0.8810129350590913
sI4
F0.8884064632517843
sI5
F0.8830565292433195
sI6
F0.8843077169734763
sI7
F0.885657719914334
sI8
F0.8884303234104054
sI9
F0.8885747308009894
sI10
F0.883369331681091
sI11
F0.8807111213606399
sI12
F0.8904894676758601
sI13
F0.888737158260746
sI14
F0.8871713968320524
ssg26
(dp490
I0
F0.003069212082791424
sI1
Fnan
sI2
Fnan
sI3
Fnan
sI4
Fnan
sI5
Fnan
sI6
Fnan
sI7
Fnan
sI8
Fnan
sI9
Fnan
sI10
Fnan
sI11
Fnan
sI12
Fnan
sI13
Fnan
sI14
Fnan
ssg28
(dp491
I0
F0.8854404529965493
sI1
Fnan
sI2
Fnan
sI3
Fnan
sI4
Fnan
sI5
Fnan
sI6
Fnan
sI7
Fnan
sI8
Fnan
sI9
Fnan
sI10
Fnan
sI11
Fnan
sI12
Fnan
sI13
Fnan
sI14
Fnan
ssg30
(dp492
I0
F11.583
sI1
F11.579
sI2
F11.603
sI3
F11.558
sI4
F11.57
sI5
F11.585
sI6
F11.543
sI7
F11.577
sI8
F11.561
sI9
F11.58
sI10
F11.574
sI11
F11.582
sI12
F11.547
sI13
F11.575
sI14
F11.582
ssg32
(dp493
I0
F16.67473
sI1
F14.87445
sI2
F16.78278
sI3
F16.48178
sI4
F11.40751
sI5
F15.82309
sI6
F11.4009
sI7
F16.45059
sI8
F13.36039
sI9
F14.4525
sI10
F11.66836
sI11
F15.9046
sI12
F11.36616
sI13
F12.15198
sI14
F16.859
ssg34
(dp494
I0
F2458349.750983796
sI1
F2458349.752465278
sI2
F2458349.7322222223
sI3
F2458349.7352430555
sI4
F2458349.771898148
sI5
F2458349.732986111
sI6
F2458349.769652778
sI7
F2458349.7344907406
sI8
F2458349.7539467593
sI9
F2458349.7532060184
sI10
F2458349.771145833
sI11
F2458349.751724537
sI12
F2458349.7703935187
sI13
F2458349.772650463
sI14
F2458349.733738426
ssg36
(dp495
I0
F2.12116098
sI1
Fnan
sI2
Fnan
sI3
Fnan
sI4
Fnan
sI5
Fnan
sI6
Fnan
sI7
Fnan
sI8
Fnan
sI9
Fnan
sI10
Fnan
sI11
Fnan
sI12
Fnan
sI13
Fnan
sI14
Fnan
ssg38
(dp496
I0
F1.352540266666667
sI1
Fnan
sI2
Fnan
sI3
Fnan
sI4
Fnan
sI5
Fnan
sI6
Fnan
sI7
Fnan
sI8
Fnan
sI9
Fnan
sI10
Fnan
sI11
Fnan
sI12
Fnan
sI13
Fnan
sI14
Fnan
ssg40
(dp497
I0
F0.6887955882029376
sI1
F0.6905344350339866
sI2
F0.6884242092889972
sI3
F0.6901002661325635
sI4
F0.6922649685437288
sI5
F0.691393924419669
sI6
F0.6929595557371202
sI7
F0.6901031238725596
sI8
F0.6926412048350711
sI9
F0.6894933016774896
sI10
F0.697135103341591
sI11
F0.6889360380128912
sI12
F0.692869451117146
sI13
F0.6897165529162119
sI14
F0.6921492474932871
ssg42
(dp498
I0
F0.001550838276236812
sI1
Fnan
sI2
Fnan
sI3
Fnan
sI4
Fnan
sI5
Fnan
sI6
Fnan
sI7
Fnan
sI8
Fnan
sI9
Fnan
sI10
Fnan
sI11
Fnan
sI12
Fnan
sI13
Fnan
sI14
Fnan
ssg44
(dp499
I0
F1.1321791333333333
sI1
Fnan
sI2
Fnan
sI3
Fnan
sI4
Fnan
sI5
Fnan
sI6
Fnan
sI7
Fnan
sI8
Fnan
sI9
Fnan
sI10
Fnan
sI11
Fnan
sI12
Fnan
sI13
Fnan
sI14
Fnan
ssg46
(dp500
I0
g473
sI1
g474
sI2
g475
sI3
g476
sI4
g477
sI5
g478
sI6
g479
sI7
g480
sI8
g481
sI9
g482
sI10
g483
sI11
g484
sI12
g485
sI13
g486
sI14
g487
ssg48
(dp501
I0
F0.002758140656977993
sI1
Fnan
sI2
Fnan
sI3
Fnan
sI4
Fnan
sI5
Fnan
sI6
Fnan
sI7
Fnan
sI8
Fnan
sI9
Fnan
sI10
Fnan
sI11
Fnan
sI12
Fnan
sI13
Fnan
sI14
Fnan
ssg50
(dp502
I0
F0.015125506681792644
sI1
Fnan
sI2
Fnan
sI3
Fnan
sI4
Fnan
sI5
Fnan
sI6
Fnan
sI7
Fnan
sI8
Fnan
sI9
Fnan
sI10
Fnan
sI11
Fnan
sI12
Fnan
sI13
Fnan
sI14
Fnan
ssg52
(dp503
I0
F-0.1419574666666667
sI1
Fnan
sI2
Fnan
sI3
Fnan
sI4
Fnan
sI5
Fnan
sI6
Fnan
sI7
Fnan
sI8
Fnan
sI9
Fnan
sI10
Fnan
sI11
Fnan
sI12
Fnan
sI13
Fnan
sI14
Fnan
ssg54
(dp504
I0
F1.500671431407402
sI1
F1.4987015174056157
sI2
F1.5065765791877543
sI3
F1.4994226145297422
sI4
F1.4950722654128874
sI5
F1.4982192895402955
sI6
F1.500366377170582
sI7
F1.501254394720011
sI8
F1.495706914153844
sI9
F1.502147483011636
sI10
F1.5046509721494314
sI11
F1.5010096897702707
sI12
F1.499432046998947
sI13
F1.4961977497666243
sI14
F1.5034394032811436
ssg56
(dp505
I0
g473
sI1
g474
sI2
g475
sI3
g476
sI4
g477
sI5
g478
sI6
g479
sI7
g480
sI8
g481
sI9
g482
sI10
g483
sI11
g484
sI12
g485
sI13
g486
sI14
g487
ssg58
(dp506
I0
F16.86007
sI1
F15.03107
sI2
F18.92751
sI3
F16.9969
sI4
F13.60319
sI5
F16.81462
sI6
F13.12642
sI7
F17.6664
sI8
F16.07909
sI9
F15.92222
sI10
F13.17738
sI11
F16.37114
sI12
F13.09468
sI13
F12.30412
sI14
F16.23405
ssg60
(dp507
I0
F10.8992
sI1
Fnan
sI2
Fnan
sI3
Fnan
sI4
Fnan
sI5
Fnan
sI6
Fnan
sI7
Fnan
sI8
Fnan
sI9
Fnan
sI10
Fnan
sI11
Fnan
sI12
Fnan
sI13
Fnan
sI14
Fnan
ssg62
(dp508
I0
F0.7193655160927297
sI1
Fnan
sI2
Fnan
sI3
Fnan
sI4
Fnan
sI5
Fnan
sI6
Fnan
sI7
Fnan
sI8
Fnan
sI9
Fnan
sI10
Fnan
sI11
Fnan
sI12
Fnan
sI13
Fnan
sI14
Fnan
ssg64
(dp509
I0
F3.254769
sI1
F-3.311142
sI2
F2.261447
sI3
F3.265493
sI4
F4.148393
sI5
F4.797897
sI6
F-3.137255
sI7
F4.455656
sI8
F3.836273
sI9
F1.601091
sI10
F1.535951
sI11
F1.759339
sI12
F-4.53824
sI13
F3.980242
sI14
F-3.62181
ssg66
(dp510
I0
F11.26206666666667
sI1
Fnan
sI2
Fnan
sI3
Fnan
sI4
Fnan
sI5
Fnan
sI6
Fnan
sI7
Fnan
sI8
Fnan
sI9
Fnan
sI10
Fnan
sI11
Fnan
sI12
Fnan
sI13
Fnan
sI14
Fnan
ssg68
(dp511
I0
g473
sI1
g474
sI2
g475
sI3
g476
sI4
g477
sI5
g478
sI6
g479
sI7
g480
sI8
g481
sI9
g482
sI10
g483
sI11
g484
sI12
g485
sI13
g486
sI14
g487
ssg70
(dp512
I0
F7790.679999999999
sI1
F7818.88
sI2
F7665.4766666666665
sI3
F7949.513333333333
sI4
F7885.886666666667
sI5
F7752.0633333333335
sI6
F8052.820000000001
sI7
F7843.473333333333
sI8
F7946.259999999999
sI9
F7843.136666666667
sI10
F7771.416666666667
sI11
F7790.713333333333
sI12
F8057.87
sI13
F7881.37
sI14
F7793.216666666666
ssg72
(dp513
I0
F1.0050270000000001
sI1
F1.0052459999999999
sI2
F1.006456
sI3
F1.0057
sI4
F1.0126709999999999
sI5
F1.00625
sI6
F1.011372
sI7
F1.005871
sI8
F1.005514
sI9
F1.0053729999999999
sI10
F1.0122229999999999
sI11
F1.0051299999999999
sI12
F1.011793
sI13
F1.0131299999999999
sI14
F1.006055
ssg74
(dp514
I0
F6750.3933333333325
sI1
F6749.406666666667
sI2
F6595.23
sI3
F6907.6900000000005
sI4
F6785.493333333333
sI5
F6717.816666666667
sI6
F6954.483333333334
sI7
F6754.536666666667
sI8
F6834.483333333334
sI9
F6717.320000000001
sI10
F6704.41
sI11
F6766.5633333333335
sI12
F6890.55
sI13
F6773.11
sI14
F6685.070000000001
ssg76
(dp515
I0
F10910.686666666666
sI1
F10916.756666666666
sI2
F10742.423333333334
sI3
F11138.613333333335
sI4
F10967.386666666665
sI5
F10839.526666666667
sI6
F11258.226666666666
sI7
F10957.663333333334
sI8
F11053.83
sI9
F10935.976666666666
sI10
F10890.533333333333
sI11
F10925.306666666667
sI12
F11207.07
sI13
F10963.0
sI14
F10883.613333333335
ssg78
(dp516
I0
F15.93801
sI1
F16.14746
sI2
F17.80089
sI3
F15.644
sI4
F11.68372
sI5
F16.61416
sI6
F12.45646
sI7
F16.63764
sI8
F15.75138
sI9
F15.80189
sI10
F12.17122
sI11
F15.48171
sI12
F12.87328
sI13
F11.31493
sI14
F17.32276
ssg80
(dp517
I0
F11.427
sI1
F11.427
sI2
F11.452
sI3
F11.402
sI4
F11.421
sI5
F11.432
sI6
F11.394
sI7
F11.426
sI8
F11.413
sI9
F11.432
sI10
F11.434
sI11
F11.424
sI12
F11.404
sI13
F11.423
sI14
F11.437
ssg82
(dp518
I0
F0.002
sI1
F0.002
sI2
F0.002
sI3
F0.002
sI4
F0.002
sI5
F0.002
sI6
F0.002
sI7
F0.002
sI8
F0.002
sI9
F0.002
sI10
F0.002
sI11
F0.002
sI12
F0.002
sI13
F0.002
sI14
F0.002
ssg84
(dp519
I0
F0.6911677980416832
sI1
Fnan
sI2
Fnan
sI3
Fnan
sI4
Fnan
sI5
Fnan
sI6
Fnan
sI7
Fnan
sI8
Fnan
sI9
Fnan
sI10
Fnan
sI11
Fnan
sI12
Fnan
sI13
Fnan
sI14
Fnan
ssg86
(dp520
I0
F11.423200000000001
sI1
Fnan
sI2
Fnan
sI3
Fnan
sI4
Fnan
sI5
Fnan
sI6
Fnan
sI7
Fnan
sI8
Fnan
sI9
Fnan
sI10
Fnan
sI11
Fnan
sI12
Fnan
sI13
Fnan
sI14
Fnan
ssg88
(dp521
I0
F11.271
sI1
F11.267
sI2
F11.289
sI3
F11.249
sI4
F11.258
sI5
F11.276
sI6
F11.235
sI7
F11.264
sI8
F11.25
sI9
F11.264
sI10
F11.274
sI11
F11.271
sI12
F11.234
sI13
F11.258
sI14
F11.271
ssg90
(dp522
I0
F3.403847
sI1
F2.603377
sI2
F2.611226
sI3
F3.071307
sI4
F-3.498456
sI5
F3.104926
sI6
F-0.7464783
sI7
F3.391469
sI8
F-3.433991
sI9
F3.705056
sI10
F4.003792
sI11
F4.143836
sI12
F3.599457
sI13
F2.020453
sI14
F3.837594
ssg92
(dp523
I0
F0.013613018978694245
sI1
Fnan
sI2
Fnan
sI3
Fnan
sI4
Fnan
sI5
Fnan
sI6
Fnan
sI7
Fnan
sI8
Fnan
sI9
Fnan
sI10
Fnan
sI11
Fnan
sI12
Fnan
sI13
Fnan
sI14
Fnan
ssg94
(dp524
I0
F0.7219144411905725
sI1
F0.7204886374290991
sI2
F0.7165651703888004
sI3
F0.7237682482548489
sI4
F0.7198212441270146
sI5
F0.72267263495663
sI6
F0.720259595803024
sI7
F0.7185242878045849
sI8
F0.7194158904861329
sI9
F0.7154033186515374
sI10
F0.7185111952395113
sI11
F0.7230771641976589
sI12
F0.7153461157937684
sI13
F0.7188470614830849
sI14
F0.715867735584679
ssg96
(dp525
I0
F30.0
sI1
F30.0
sI2
F30.0
sI3
F30.0
sI4
F30.0
sI5
F30.0
sI6
F30.0
sI7
F30.0
sI8
F30.0
sI9
F30.0
sI10
F30.0
sI11
F30.0
sI12
F30.0
sI13
F30.0
sI14
F30.0
ssg98
(dp526
I0
F0.002
sI1
F0.002
sI2
F0.002
sI3
F0.002
sI4
F0.002
sI5
F0.002
sI6
F0.002
sI7
F0.002
sI8
F0.002
sI9
F0.002
sI10
F0.002
sI11
F0.002
sI12
F0.002
sI13
F0.002
sI14
F0.002
ssg100
(dp527
I0
F0.002
sI1
F0.002
sI2
F0.002
sI3
F0.002
sI4
F0.002
sI5
F0.002
sI6
F0.002
sI7
F0.002
sI8
F0.002
sI9
F0.002
sI10
F0.002
sI11
F0.002
sI12
F0.002
sI13
F0.002
sI14
F0.002
ssg102
(dp528
I0
F-3.156912
sI1
F2.795468
sI2
F-2.868652
sI3
F-2.699148
sI4
F-3.912729
sI5
F2.954072
sI6
F2.859323
sI7
F2.457619
sI8
F-4.36254
sI9
F3.662802
sI10
F1.6129
sI11
F-3.309721
sI12
F-3.401884
sI13
F2.568424
sI14
F2.671616
ssg104
(dp529
I0
S'KIC8462852-20180819at060118_-25-1X1-030-V_cal.fts.mag.1'
p530
sI1
S'KIC8462852-20180819at060333_-25-1X1-030-V_cal.fts.mag.1'
p531
sI2
S'KIC8462852-20180819at053417_-25-1X1-030-V_cal.fts.mag.1'
p532
sI3
S'KIC8462852-20180819at053845_-25-1X1-030-V_cal.fts.mag.1'
p533
sI4
S'KIC8462852-20180819at063132_-25-1X1-030-V_cal.fts.mag.1'
p534
sI5
S'KIC8462852-20180819at053530_-25-1X1-030-V_cal.fts.mag.1'
p535
sI6
S'KIC8462852-20180819at062811_-25-1X1-030-V_cal.fts.mag.1'
p536
sI7
S'KIC8462852-20180819at053739_-25-1X1-030-V_cal.fts.mag.1'
p537
sI8
S'KIC8462852-20180819at060541_-25-1X1-030-V_cal.fts.mag.1'
p538
sI9
S'KIC8462852-20180819at060437_-25-1X1-030-V_cal.fts.mag.1'
p539
sI10
S'KIC8462852-20180819at063027_-25-1X1-030-V_cal.fts.mag.1'
p540
sI11
S'KIC8462852-20180819at060229_-25-1X1-030-V_cal.fts.mag.1'
p541
sI12
S'KIC8462852-20180819at062922_-25-1X1-030-V_cal.fts.mag.1'
p542
sI13
S'KIC8462852-20180819at063237_-25-1X1-030-V_cal.fts.mag.1'
p543
sI14
S'KIC8462852-20180819at053635_-25-1X1-030-V_cal.fts.mag.1'
p544
ssg121
(dp545
I0
F0.0032363636794731907
sI1
Fnan
sI2
Fnan
sI3
Fnan
sI4
Fnan
sI5
Fnan
sI6
Fnan
sI7
Fnan
sI8
Fnan
sI9
Fnan
sI10
Fnan
sI11
Fnan
sI12
Fnan
sI13
Fnan
sI14
Fnan
ssg123
(dp546
I0
F5843.6866666666665
sI1
F5866.1
sI2
F5737.586666666667
sI3
F5979.906666666667
sI4
F5916.2733333333335
sI5
F5832.923333333334
sI6
F6066.983333333334
sI7
F5878.683333333333
sI8
F5964.696666666667
sI9
F5859.873333333334
sI10
F5894.593333333333
sI11
F5851.956666666667
sI12
F6040.78
sI13
F5889.6
sI14
F5851.406666666667
ssg125
(dp547
I0
F0.014900623189268672
sI1
Fnan
sI2
Fnan
sI3
Fnan
sI4
Fnan
sI5
Fnan
sI6
Fnan
sI7
Fnan
sI8
Fnan
sI9
Fnan
sI10
Fnan
sI11
Fnan
sI12
Fnan
sI13
Fnan
sI14
Fnan
ssg127
(dp548
I0
g469
sI1
g469
sI2
g469
sI3
g469
sI4
g469
sI5
g469
sI6
g469
sI7
g469
sI8
g469
sI9
g469
sI10
g469
sI11
g469
sI12
g469
sI13
g469
sI14
g469
ssg144
(dp549
I0
F0.0022650071659420135
sI1
Fnan
sI2
Fnan
sI3
Fnan
sI4
Fnan
sI5
Fnan
sI6
Fnan
sI7
Fnan
sI8
Fnan
sI9
Fnan
sI10
Fnan
sI11
Fnan
sI12
Fnan
sI13
Fnan
sI14
Fnan
ssg146
(dp550
I0
F-3.676283
sI1
F3.429746
sI2
F3.728341
sI3
F-2.843743
sI4
F3.004518
sI5
F4.296139
sI6
F3.304221
sI7
F3.393045
sI8
F3.672881
sI9
F4.066126
sI10
F2.106572
sI11
F-2.517506
sI12
F2.584867
sI13
F-4.13045
sI14
F-3.435787
ssg148
(dp551
I0
F1.5001912485670792
sI1
Fnan
sI2
Fnan
sI3
Fnan
sI4
Fnan
sI5
Fnan
sI6
Fnan
sI7
Fnan
sI8
Fnan
sI9
Fnan
sI10
Fnan
sI11
Fnan
sI12
Fnan
sI13
Fnan
sI14
Fnan
ssg150
(dp552
I0
F2458349.752465278
sI1
Fnan
sI2
Fnan
sI3
Fnan
sI4
Fnan
sI5
Fnan
sI6
Fnan
sI7
Fnan
sI8
Fnan
sI9
Fnan
sI10
Fnan
sI11
Fnan
sI12
Fnan
sI13
Fnan
sI14
Fnan
ssg152
(dp553
I0
F0.0022650071659420135
sI1
Fnan
sI2
Fnan
sI3
Fnan
sI4
Fnan
sI5
Fnan
sI6
Fnan
sI7
Fnan
sI8
Fnan
sI9
Fnan
sI10
Fnan
sI11
Fnan
sI12
Fnan
sI13
Fnan
sI14
Fnan
ssg154
(dp554
I0
F17.76211
sI1
F17.842
sI2
F20.47334
sI3
F17.4307
sI4
F13.50963
sI5
F19.1927
sI6
F14.24526
sI7
F20.04191
sI8
F17.99082
sI9
F17.19378
sI10
F14.25886
sI11
F17.63606
sI12
F13.50787
sI13
F14.16552
sI14
F18.89054
ssg156
(dp555
I0
F10.905
sI1
F10.905
sI2
F10.922
sI3
F10.883
sI4
F10.9
sI5
F10.912
sI6
F10.871
sI7
F10.901
sI8
F10.891
sI9
F10.903
sI10
F10.907
sI11
F10.904
sI12
F10.876
sI13
F10.9
sI14
F10.908
ssg158
(dp556
I0
F0.6911677980416832
sI1
Fnan
sI2
Fnan
sI3
Fnan
sI4
Fnan
sI5
Fnan
sI6
Fnan
sI7
Fnan
sI8
Fnan
sI9
Fnan
sI10
Fnan
sI11
Fnan
sI12
Fnan
sI13
Fnan
sI14
Fnan
sss.