(dp0
S'i'
p1
(dp2
S'sigmean'
p3
(dp4
I0
F0.4379718201341996
sI1
Fnan
sI2
Fnan
sI3
Fnan
sI4
Fnan
sI5
Fnan
sI6
Fnan
sI7
Fnan
sI8
Fnan
sI9
Fnan
sI10
Fnan
sI11
Fnan
sI12
Fnan
sI13
Fnan
sI14
Fnan
ssS'ref3flag'
p5
(dp6
I0
S'NoError'
p7
sI1
S'NoError'
p8
sI2
S'NoError'
p9
sI3
S'NoError'
p10
sI4
S'NoError'
p11
sI5
S'NoError'
p12
sI6
S'NoError'
p13
sI7
S'NoError'
p14
sI8
S'NoError'
p15
sI9
S'NoError'
p16
sI10
S'NoError'
p17
sI11
S'NoError'
p18
sI12
S'NoError'
p19
sI13
S'NoError'
p20
sI14
S'NoError'
p21
ssS'tabbyerr'
p22
(dp23
I0
F0.003
sI1
F0.003
sI2
F0.003
sI3
F0.003
sI4
F0.003
sI5
F0.003
sI6
F0.003
sI7
F0.003
sI8
F0.003
sI9
F0.003
sI10
F0.003
sI11
F0.003
sI12
F0.003
sI13
F0.003
sI14
F0.003
ssS'ref2rel'
p24
(dp25
I0
F0.9076661304463011
sI1
F0.9115355496468269
sI2
F0.9124685917871518
sI3
F0.9136473175899632
sI4
F0.9146982262869932
sI5
F0.9135601234280004
sI6
F0.910277800704087
sI7
F0.9048602711412872
sI8
F0.9139672669966583
sI9
F0.9133344141585578
sI10
F0.9169354543185446
sI11
F0.9101611237058953
sI12
F0.909095218405997
sI13
F0.9135289181578428
sI14
F0.9110202104340354
ssS'ref2err'
p26
(dp27
I0
F0.0030473933824831777
sI1
Fnan
sI2
Fnan
sI3
Fnan
sI4
Fnan
sI5
Fnan
sI6
Fnan
sI7
Fnan
sI8
Fnan
sI9
Fnan
sI10
Fnan
sI11
Fnan
sI12
Fnan
sI13
Fnan
sI14
Fnan
ssS'ref2mean'
p28
(dp29
I0
F0.9117837744805429
sI1
Fnan
sI2
Fnan
sI3
Fnan
sI4
Fnan
sI5
Fnan
sI6
Fnan
sI7
Fnan
sI8
Fnan
sI9
Fnan
sI10
Fnan
sI11
Fnan
sI12
Fnan
sI13
Fnan
sI14
Fnan
ssS'tabbymag'
p30
(dp31
I0
F12.03
sI1
F11.928
sI2
F11.987
sI3
F11.969
sI4
F11.981
sI5
F11.94
sI6
F11.982
sI7
F11.932
sI8
F11.99
sI9
F11.965
sI10
F11.961
sI11
F11.964
sI12
F11.974
sI13
F11.923
sI14
F11.963
ssS'tabbybkg'
p32
(dp33
I0
F4.548665
sI1
F4.532991
sI2
F5.357229
sI3
F3.885169
sI4
F5.990297
sI5
F3.595168
sI6
F5.468488
sI7
F5.03691
sI8
F6.265837
sI9
F4.847707
sI10
F5.757122
sI11
F5.094656
sI12
F6.032629
sI13
F4.560516
sI14
F3.678775
ssS'JD'
p34
(dp35
I0
F2458434.6349305557
sI1
F2458434.6144560184
sI2
F2458434.656215278
sI3
F2458434.613726852
sI4
F2458434.6584606483
sI5
F2458434.6166666667
sI6
F2458434.6569675924
sI7
F2458434.6152083334
sI8
F2458434.6378935184
sI9
F2458434.636412037
sI10
F2458434.6592013887
sI11
F2458434.6577199074
sI12
F2458434.637152778
sI13
F2458434.6159375
sI14
F2458434.635671296
ssS'ref3rmsmean'
p36
(dp37
I0
F2.269325533333333
sI1
Fnan
sI2
Fnan
sI3
Fnan
sI4
Fnan
sI5
Fnan
sI6
Fnan
sI7
Fnan
sI8
Fnan
sI9
Fnan
sI10
Fnan
sI11
Fnan
sI12
Fnan
sI13
Fnan
sI14
Fnan
ssS'ref1rmsmean'
p38
(dp39
I0
F3.103433133333333
sI1
Fnan
sI2
Fnan
sI3
Fnan
sI4
Fnan
sI5
Fnan
sI6
Fnan
sI7
Fnan
sI8
Fnan
sI9
Fnan
sI10
Fnan
sI11
Fnan
sI12
Fnan
sI13
Fnan
sI14
Fnan
ssS'relflux'
p40
(dp41
I0
F0.4366636934662983
sI1
F0.43930165708721225
sI2
F0.4382833378848032
sI3
F0.4397600260336956
sI4
F0.43581804619493103
sI5
F0.43992481293843816
sI6
F0.43587480456311767
sI7
F0.4378131318780598
sI8
F0.43625329129830837
sI9
F0.43747148069060915
sI10
F0.4399798283394054
sI11
F0.43928195612562804
sI12
F0.43649415946583303
sI13
F0.43836928022616906
sI14
F0.4382877958204848
ssS'sigerr'
p42
(dp43
I0
F0.0014385987415621753
sI1
Fnan
sI2
Fnan
sI3
Fnan
sI4
Fnan
sI5
Fnan
sI6
Fnan
sI7
Fnan
sI8
Fnan
sI9
Fnan
sI10
Fnan
sI11
Fnan
sI12
Fnan
sI13
Fnan
sI14
Fnan
ssS'tabbyrmsmean'
p44
(dp45
I0
F0.9277794
sI1
Fnan
sI2
Fnan
sI3
Fnan
sI4
Fnan
sI5
Fnan
sI6
Fnan
sI7
Fnan
sI8
Fnan
sI9
Fnan
sI10
Fnan
sI11
Fnan
sI12
Fnan
sI13
Fnan
sI14
Fnan
ssS'tabbyflag'
p46
(dp47
I0
g7
sI1
g8
sI2
g9
sI3
g10
sI4
g11
sI5
g12
sI6
g13
sI7
g14
sI8
g15
sI9
g16
sI10
g17
sI11
g18
sI12
g19
sI13
g20
sI14
g21
ssS'ref1err'
p48
(dp49
I0
F0.0024849581253875634
sI1
Fnan
sI2
Fnan
sI3
Fnan
sI4
Fnan
sI5
Fnan
sI6
Fnan
sI7
Fnan
sI8
Fnan
sI9
Fnan
sI10
Fnan
sI11
Fnan
sI12
Fnan
sI13
Fnan
sI14
Fnan
ssS'ref2magmeanerr'
p50
(dp51
I0
F0.02617214076801819
sI1
Fnan
sI2
Fnan
sI3
Fnan
sI4
Fnan
sI5
Fnan
sI6
Fnan
sI7
Fnan
sI8
Fnan
sI9
Fnan
sI10
Fnan
sI11
Fnan
sI12
Fnan
sI13
Fnan
sI14
Fnan
ssS'ref2rmsmean'
p52
(dp53
I0
F1.5530644
sI1
Fnan
sI2
Fnan
sI3
Fnan
sI4
Fnan
sI5
Fnan
sI6
Fnan
sI7
Fnan
sI8
Fnan
sI9
Fnan
sI10
Fnan
sI11
Fnan
sI12
Fnan
sI13
Fnan
sI14
Fnan
ssS'ref3rel'
p54
(dp55
I0
F1.5069406105101988
sI1
F1.498823537916054
sI2
F1.4997967067767086
sI3
F1.5055443002284485
sI4
F1.5006773983300954
sI5
F1.4962042261186286
sI6
F1.507493842308967
sI7
F1.509050022403138
sI8
F1.5062184223630195
sI9
F1.5002819336425082
sI10
F1.4893313284601017
sI11
F1.5069111459733584
sI12
F1.503454302142211
sI13
F1.4919218308208018
sI14
F1.5044905894988592
ssS'ref1flag'
p56
(dp57
I0
g7
sI1
g8
sI2
g9
sI3
g10
sI4
g11
sI5
g12
sI6
g13
sI7
g14
sI8
g15
sI9
g16
sI10
g17
sI11
g18
sI12
g19
sI13
g20
sI14
g21
ssS'ref2bkg'
p58
(dp59
I0
F6.457502
sI1
F4.721967
sI2
F6.832239
sI3
F5.141164
sI4
F6.134499
sI5
F5.14689
sI6
F6.307942
sI7
F4.978286
sI8
F5.944484
sI9
F6.297154
sI10
F7.510821
sI11
F6.979999
sI12
F6.619025
sI13
F5.209065
sI14
F5.991647
ssS'ref3magmean'
p60
(dp61
I0
F10.796000000000001
sI1
Fnan
sI2
Fnan
sI3
Fnan
sI4
Fnan
sI5
Fnan
sI6
Fnan
sI7
Fnan
sI8
Fnan
sI9
Fnan
sI10
Fnan
sI11
Fnan
sI12
Fnan
sI13
Fnan
sI14
Fnan
ssS'ref1mean'
p62
(dp63
I0
F0.6954188745219383
sI1
Fnan
sI2
Fnan
sI3
Fnan
sI4
Fnan
sI5
Fnan
sI6
Fnan
sI7
Fnan
sI8
Fnan
sI9
Fnan
sI10
Fnan
sI11
Fnan
sI12
Fnan
sI13
Fnan
sI14
Fnan
ssS'ref1rms'
p64
(dp65
I0
F3.71614
sI1
F3.415184
sI2
F2.501285
sI3
F4.396924
sI4
F2.766123
sI5
F3.138935
sI6
F4.085286
sI7
F3.790263
sI8
F4.079497
sI9
F2.884768
sI10
F1.765612
sI11
F3.817625
sI12
F1.416663
sI13
F1.796953
sI14
F2.980239
ssS'ref2magmean'
p66
(dp67
I0
F11.137466666666665
sI1
Fnan
sI2
Fnan
sI3
Fnan
sI4
Fnan
sI5
Fnan
sI6
Fnan
sI7
Fnan
sI8
Fnan
sI9
Fnan
sI10
Fnan
sI11
Fnan
sI12
Fnan
sI13
Fnan
sI14
Fnan
ssS'ref2flag'
p68
(dp69
I0
g7
sI1
g8
sI2
g9
sI3
g10
sI4
g11
sI5
g12
sI6
g13
sI7
g14
sI8
g15
sI9
g16
sI10
g17
sI11
g18
sI12
g19
sI13
g20
sI14
g21
ssS'ref2'
p70
(dp71
I0
F8308.390000000001
sI1
F9092.176666666666
sI2
F8638.706666666667
sI3
F8759.103333333333
sI4
F8750.859999999999
sI5
F8997.34
sI6
F8712.933333333332
sI7
F9050.673333333334
sI8
F8668.443333333333
sI9
F8835.303333333333
sI10
F8841.146666666667
sI11
F8791.563333333334
sI12
F8758.056666666667
sI13
F9168.33
sI14
F8826.173333333334
ssS'airmass'
p72
(dp73
I0
F1.190364
sI1
F1.128435
sI2
F1.27369
sI3
F1.126477
sI4
F1.283752
sI5
F1.134356
sI6
F1.277047
sI7
F1.1303809999999999
sI8
F1.200766
sI9
F1.195502
sI10
F1.287153
sI11
F1.280398
sI12
F1.1980950000000001
sI13
F1.132352
sI14
F1.192915
ssS'ref1'
p74
(dp75
I0
F6870.39
sI1
F7508.443333333333
sI2
F7118.5
sI3
F7177.383333333333
sI4
F7180.1900000000005
sI5
F7417.406666666667
sI6
F7170.996666666667
sI7
F7509.506666666667
sI8
F7096.2733333333335
sI9
F7267.776666666667
sI10
F7279.573333333334
sI11
F7239.786666666667
sI12
F7240.833333333333
sI13
F7579.276666666667
sI14
F7268.966666666666
ssS'ref3'
p76
(dp77
I0
F11436.76
sI1
F12440.7
sI2
F11816.303333333333
sI3
F11996.543333333333
sI4
F11953.683333333332
sI5
F12279.906666666668
sI6
F11972.463333333335
sI7
F12495.07
sI8
F11872.553333333333
sI9
F12079.58
sI10
F12004.546666666667
sI11
F12078.91
sI12
F12026.8
sI13
F12493.06
sI14
F12107.493333333334
ssS'ref1bkg'
p78
(dp79
I0
F5.969819
sI1
F4.297088
sI2
F6.658929
sI3
F4.646997
sI4
F6.636596
sI5
F4.986006
sI6
F5.640142
sI7
F4.220274
sI8
F6.815814
sI9
F5.61864
sI10
F7.694579
sI11
F5.900477
sI12
F6.22533
sI13
F3.929775
sI14
F5.545243
ssS'ref1mag'
p80
(dp81
I0
F11.408
sI1
F11.311
sI2
F11.369
sI3
F11.36
sI4
F11.36
sI5
F11.324
sI6
F11.361
sI7
F11.311
sI8
F11.372
sI9
F11.346
sI10
F11.345
sI11
F11.351
sI12
F11.351
sI13
F11.301
sI14
F11.346
ssS'ref3magerr'
p82
(dp83
I0
F0.002
sI1
F0.002
sI2
F0.002
sI3
F0.002
sI4
F0.002
sI5
F0.002
sI6
F0.002
sI7
F0.002
sI8
F0.002
sI9
F0.002
sI10
F0.002
sI11
F0.002
sI12
F0.002
sI13
F0.002
sI14
F0.002
ssS'tabbymagmean'
p84
(dp85
I0
F0.4379718201341996
sI1
Fnan
sI2
Fnan
sI3
Fnan
sI4
Fnan
sI5
Fnan
sI6
Fnan
sI7
Fnan
sI8
Fnan
sI9
Fnan
sI10
Fnan
sI11
Fnan
sI12
Fnan
sI13
Fnan
sI14
Fnan
ssS'ref1magmean'
p86
(dp87
I0
F11.347733333333334
sI1
Fnan
sI2
Fnan
sI3
Fnan
sI4
Fnan
sI5
Fnan
sI6
Fnan
sI7
Fnan
sI8
Fnan
sI9
Fnan
sI10
Fnan
sI11
Fnan
sI12
Fnan
sI13
Fnan
sI14
Fnan
ssS'ref2mag'
p88
(dp89
I0
F11.201
sI1
F11.103
sI2
F11.159
sI3
F11.144
sI4
F11.145
sI5
F11.115
sI6
F11.15
sI7
F11.108
sI8
F11.155
sI9
F11.134
sI10
F11.134
sI11
F11.14
sI12
F11.144
sI13
F11.094
sI14
F11.136
ssS'ref3rms'
p90
(dp91
I0
F4.710166
sI1
F2.568346
sI2
F3.635842
sI3
F2.345506
sI4
F3.472929
sI5
F-2.813648
sI6
F2.262677
sI7
F1.851437
sI8
F3.722613
sI9
F3.68284
sI10
F2.361961
sI11
F3.565243
sI12
F2.410918
sI13
F3.505098
sI14
F-3.242045
ssS'ref3magmeanerr'
p92
(dp93
I0
F0.025131084906375115
sI1
Fnan
sI2
Fnan
sI3
Fnan
sI4
Fnan
sI5
Fnan
sI6
Fnan
sI7
Fnan
sI8
Fnan
sI9
Fnan
sI10
Fnan
sI11
Fnan
sI12
Fnan
sI13
Fnan
sI14
Fnan
ssS'ref1rel'
p94
(dp95
I0
F0.6959065897195007
sI1
F0.6973934276934355
sI2
F0.6960153038302107
sI3
F0.6916077777388772
sI4
F0.6935859327493822
sI5
F0.6972148965389319
sI6
F0.6933390528809454
sI7
F0.6970756636693746
sI8
F0.690937586767536
sI9
F0.694986106385166
sI10
F0.6984246786066761
sI11
F0.6937826997055808
sI12
F0.6967412332408033
sI13
F0.6997959656944145
sI14
F0.6944762026082386
ssS'exposure'
p96
(dp97
I0
F30.0
sI1
F30.0
sI2
F30.0
sI3
F30.0
sI4
F30.0
sI5
F30.0
sI6
F30.0
sI7
F30.0
sI8
F30.0
sI9
F30.0
sI10
F30.0
sI11
F30.0
sI12
F30.0
sI13
F30.0
sI14
F30.0
ssS'ref1magerr'
p98
(dp99
I0
F0.002
sI1
F0.002
sI2
F0.002
sI3
F0.002
sI4
F0.002
sI5
F0.002
sI6
F0.002
sI7
F0.002
sI8
F0.002
sI9
F0.002
sI10
F0.002
sI11
F0.002
sI12
F0.002
sI13
F0.002
sI14
F0.002
ssS'ref2magerr'
p100
(dp101
I0
F0.002
sI1
F0.002
sI2
F0.002
sI3
F0.002
sI4
F0.002
sI5
F0.002
sI6
F0.002
sI7
F0.002
sI8
F0.002
sI9
F0.002
sI10
F0.002
sI11
F0.002
sI12
F0.002
sI13
F0.002
sI14
F0.002
ssS'ref2rms'
p102
(dp103
I0
F2.602975
sI1
F1.379641
sI2
F-2.292608
sI3
F3.767276
sI4
F2.965389
sI5
F4.476546
sI6
F3.969804
sI7
F2.315036
sI8
F4.005961
sI9
F3.278168
sI10
F1.80188
sI11
F-3.177688
sI12
F3.372862
sI13
F-2.474198
sI14
F-2.695078
ssS'name'
p104
(dp105
I0
S"KIC8462852-20181112at031417_-25-1X1-030-i'_cal.fts.mag.1"
p106
sI1
S"KIC8462852-20181112at024449_-25-1X1-030-i'_cal.fts.mag.1"
p107
sI2
S"KIC8462852-20181112at034456_-25-1X1-030-i'_cal.fts.mag.1"
p108
sI3
S"KIC8462852-20181112at024344_-25-1X1-030-i'_cal.fts.mag.1"
p109
sI4
S"KIC8462852-20181112at034811_-25-1X1-030-i'_cal.fts.mag.1"
p110
sI5
S"KIC8462852-20181112at024800_-25-1X1-030-i'_cal.fts.mag.1"
p111
sI6
S"KIC8462852-20181112at034602_-25-1X1-030-i'_cal.fts.mag.1"
p112
sI7
S"KIC8462852-20181112at024553_-25-1X1-030-i'_cal.fts.mag.1"
p113
sI8
S"KIC8462852-20181112at031834_-25-1X1-030-i'_cal.fts.mag.1"
p114
sI9
S"KIC8462852-20181112at031626_-25-1X1-030-i'_cal.fts.mag.1"
p115
sI10
S"KIC8462852-20181112at034915_-25-1X1-030-i'_cal.fts.mag.1"
p116
sI11
S"KIC8462852-20181112at034707_-25-1X1-030-i'_cal.fts.mag.1"
p117
sI12
S"KIC8462852-20181112at031730_-25-1X1-030-i'_cal.fts.mag.1"
p118
sI13
S"KIC8462852-20181112at024657_-25-1X1-030-i'_cal.fts.mag.1"
p119
sI14
S"KIC8462852-20181112at031522_-25-1X1-030-i'_cal.fts.mag.1"
p120
ssS'ref3err'
p121
(dp122
I0
F0.005866644356023389
sI1
Fnan
sI2
Fnan
sI3
Fnan
sI4
Fnan
sI5
Fnan
sI6
Fnan
sI7
Fnan
sI8
Fnan
sI9
Fnan
sI10
Fnan
sI11
Fnan
sI12
Fnan
sI13
Fnan
sI14
Fnan
ssS'tabby'
p123
(dp124
I0
F3874.0133333333333
sI1
F4252.633333333333
sI2
F4028.336666666667
sI3
F4094.61
sI4
F4050.89
sI5
F4207.83
sI6
F4047.3
sI7
F4240.256666666666
sI8
F4018.95
sI9
F4109.703333333334
sI10
F4124.85
sI11
F4116.11
sI12
F4077.6833333333334
sI13
F4272.736666666667
sI14
F4120.29
ssS'ref1magmeanerr'
p125
(dp126
I0
F0.02755634919492013
sI1
Fnan
sI2
Fnan
sI3
Fnan
sI4
Fnan
sI5
Fnan
sI6
Fnan
sI7
Fnan
sI8
Fnan
sI9
Fnan
sI10
Fnan
sI11
Fnan
sI12
Fnan
sI13
Fnan
sI14
Fnan
ssS'filter'
p127
(dp128
I0
S"i'"
p129
sI1
S"i'"
p130
sI2
S"i'"
p131
sI3
S"i'"
p132
sI4
S"i'"
p133
sI5
S"i'"
p134
sI6
S"i'"
p135
sI7
S"i'"
p136
sI8
S"i'"
p137
sI9
S"i'"
p138
sI10
S"i'"
p139
sI11
S"i'"
p140
sI12
S"i'"
p141
sI13
S"i'"
p142
sI14
S"i'"
p143
ssS'tabbymagerr'
p144
(dp145
I0
F0.001489091167897964
sI1
Fnan
sI2
Fnan
sI3
Fnan
sI4
Fnan
sI5
Fnan
sI6
Fnan
sI7
Fnan
sI8
Fnan
sI9
Fnan
sI10
Fnan
sI11
Fnan
sI12
Fnan
sI13
Fnan
sI14
Fnan
ssS'tabbyrms'
p146
(dp147
I0
F3.969708
sI1
F-3.246771
sI2
F2.38813
sI3
F3.06278
sI4
F3.364448
sI5
F3.348943
sI6
F4.12853
sI7
F-2.713516
sI8
F-1.616748
sI9
F3.124293
sI10
F2.698263
sI11
F-3.15475
sI12
F-3.125602
sI13
F-2.016421
sI14
F3.705404
ssS'ref3mean'
p148
(dp149
I0
F1.5018093464995397
sI1
Fnan
sI2
Fnan
sI3
Fnan
sI4
Fnan
sI5
Fnan
sI6
Fnan
sI7
Fnan
sI8
Fnan
sI9
Fnan
sI10
Fnan
sI11
Fnan
sI12
Fnan
sI13
Fnan
sI14
Fnan
ssS'median_JD'
p150
(dp151
I0
F2458434.636412037
sI1
Fnan
sI2
Fnan
sI3
Fnan
sI4
Fnan
sI5
Fnan
sI6
Fnan
sI7
Fnan
sI8
Fnan
sI9
Fnan
sI10
Fnan
sI11
Fnan
sI12
Fnan
sI13
Fnan
sI14
Fnan
ssS'error'
p152
(dp153
I0
F0.001489091167897964
sI1
Fnan
sI2
Fnan
sI3
Fnan
sI4
Fnan
sI5
Fnan
sI6
Fnan
sI7
Fnan
sI8
Fnan
sI9
Fnan
sI10
Fnan
sI11
Fnan
sI12
Fnan
sI13
Fnan
sI14
Fnan
ssS'ref3bkg'
p154
(dp155
I0
F7.61317
sI1
F5.937274
sI2
F7.572612
sI3
F6.816007
sI4
F7.414284
sI5
F7.70194
sI6
F8.14318
sI7
F5.90622
sI8
F7.331573
sI9
F7.294484
sI10
F7.885325
sI11
F6.951688
sI12
F7.058366
sI13
F6.866956
sI14
F6.739107
ssS'ref3mag'
p156
(dp157
I0
F10.854
sI1
F10.763
sI2
F10.819
sI3
F10.802
sI4
F10.806
sI5
F10.777
sI6
F10.805
sI7
F10.758
sI8
F10.814
sI9
F10.795
sI10
F10.802
sI11
F10.795
sI12
F10.8
sI13
F10.758
sI14
F10.792
ssS'mean'
p158
(dp159
I0
F0.4379718201341996
sI1
Fnan
sI2
Fnan
sI3
Fnan
sI4
Fnan
sI5
Fnan
sI6
Fnan
sI7
Fnan
sI8
Fnan
sI9
Fnan
sI10
Fnan
sI11
Fnan
sI12
Fnan
sI13
Fnan
sI14
Fnan
sssS'r'
p160
(dp161
g3
(dp162
I0
F0.5487477065968671
sI1
Fnan
sI2
Fnan
sI3
Fnan
sI4
Fnan
sI5
Fnan
sI6
Fnan
sI7
Fnan
sI8
Fnan
sI9
Fnan
sI10
Fnan
sI11
Fnan
sI12
Fnan
sI13
Fnan
sI14
Fnan
ssg5
(dp163
I0
S'NoError'
p164
sI1
S'NoError'
p165
sI2
S'NoError'
p166
sI3
S'NoError'
p167
sI4
S'NoError'
p168
sI5
S'NoError'
p169
sI6
S'NoError'
p170
sI7
S'NoError'
p171
sI8
S'NoError'
p172
sI9
S'NoError'
p173
sI10
S'NoError'
p174
sI11
S'NoError'
p175
sI12
S'NoError'
p176
sI13
S'NoError'
p177
sI14
S'NoError'
p178
ssg22
(dp179
I0
F0.002
sI1
F0.002
sI2
F0.002
sI3
F0.002
sI4
F0.002
sI5
F0.002
sI6
F0.002
sI7
F0.002
sI8
F0.002
sI9
F0.002
sI10
F0.002
sI11
F0.002
sI12
F0.002
sI13
F0.002
sI14
F0.002
ssg24
(dp180
I0
F0.8936550308927406
sI1
F0.894082315362514
sI2
F0.8931683047083259
sI3
F0.8921878026870222
sI4
F0.8975729977277477
sI5
F0.8932056328227177
sI6
F0.8925297809605296
sI7
F0.8948237961608901
sI8
F0.8937989868589961
sI9
F0.892152928729249
sI10
F0.8947225118667981
sI11
F0.8924099355859095
sI12
F0.893470206857603
sI13
F0.8949589520476041
sI14
F0.8916113223507701
ssg26
(dp181
I0
F0.0015028483315977412
sI1
Fnan
sI2
Fnan
sI3
Fnan
sI4
Fnan
sI5
Fnan
sI6
Fnan
sI7
Fnan
sI8
Fnan
sI9
Fnan
sI10
Fnan
sI11
Fnan
sI12
Fnan
sI13
Fnan
sI14
Fnan
ssg28
(dp182
I0
F0.8936233670412945
sI1
Fnan
sI2
Fnan
sI3
Fnan
sI4
Fnan
sI5
Fnan
sI6
Fnan
sI7
Fnan
sI8
Fnan
sI9
Fnan
sI10
Fnan
sI11
Fnan
sI12
Fnan
sI13
Fnan
sI14
Fnan
ssg30
(dp183
I0
F11.282
sI1
F11.256
sI2
F11.27
sI3
F11.276
sI4
F11.292
sI5
F11.29
sI6
F11.283
sI7
F11.271
sI8
F11.276
sI9
F11.25
sI10
F11.247
sI11
F11.329
sI12
F11.318
sI13
F11.279
sI14
F11.327
ssg32
(dp184
I0
F6.882281
sI1
F5.815976
sI2
F8.019876
sI3
F7.113795
sI4
F6.942327
sI5
F7.071647
sI6
F7.554152
sI7
F6.285323
sI8
F7.349072
sI9
F6.907041
sI10
F6.306019
sI11
F7.528835
sI12
F8.124256
sI13
F6.647112
sI14
F6.872403
ssg34
(dp185
I0
F2458434.6531828702
sI1
F2458434.634178241
sI2
F2458434.6312152776
sI3
F2458434.653935185
sI4
F2458434.6114814817
sI5
F2458434.65244213
sI6
F2458434.6326851854
sI7
F2458434.6319560185
sI8
F2458434.61
sI9
F2458434.6334375
sI10
F2458434.612974537
sI11
F2458434.610740741
sI12
F2458434.6546875
sI13
F2458434.612222222
sI14
F2458434.655439815
ssg36
(dp186
I0
F1.1149061
sI1
Fnan
sI2
Fnan
sI3
Fnan
sI4
Fnan
sI5
Fnan
sI6
Fnan
sI7
Fnan
sI8
Fnan
sI9
Fnan
sI10
Fnan
sI11
Fnan
sI12
Fnan
sI13
Fnan
sI14
Fnan
ssg38
(dp187
I0
F1.5803553333333333
sI1
Fnan
sI2
Fnan
sI3
Fnan
sI4
Fnan
sI5
Fnan
sI6
Fnan
sI7
Fnan
sI8
Fnan
sI9
Fnan
sI10
Fnan
sI11
Fnan
sI12
Fnan
sI13
Fnan
sI14
Fnan
ssg40
(dp188
I0
F0.5508713529671696
sI1
F0.5507156671735761
sI2
F0.5449382259509792
sI3
F0.5506803237114394
sI4
F0.5484588465300638
sI5
F0.5480429211584992
sI6
F0.5478902038608734
sI7
F0.5492919397015807
sI8
F0.5499113343413263
sI9
F0.5492589765537955
sI10
F0.5496751555307116
sI11
F0.5479013787193586
sI12
F0.5464417564562684
sI13
F0.5464364505201625
sI14
F0.5468915851313149
ssg42
(dp189
I0
F0.0014886660234570163
sI1
Fnan
sI2
Fnan
sI3
Fnan
sI4
Fnan
sI5
Fnan
sI6
Fnan
sI7
Fnan
sI8
Fnan
sI9
Fnan
sI10
Fnan
sI11
Fnan
sI12
Fnan
sI13
Fnan
sI14
Fnan
ssg44
(dp190
I0
F2.2673171400000003
sI1
Fnan
sI2
Fnan
sI3
Fnan
sI4
Fnan
sI5
Fnan
sI6
Fnan
sI7
Fnan
sI8
Fnan
sI9
Fnan
sI10
Fnan
sI11
Fnan
sI12
Fnan
sI13
Fnan
sI14
Fnan
ssg46
(dp191
I0
g164
sI1
g165
sI2
g166
sI3
g167
sI4
g168
sI5
g169
sI6
g170
sI7
g171
sI8
g172
sI9
g173
sI10
g174
sI11
g175
sI12
g176
sI13
g177
sI14
g178
ssg48
(dp192
I0
F0.0019957760807348523
sI1
Fnan
sI2
Fnan
sI3
Fnan
sI4
Fnan
sI5
Fnan
sI6
Fnan
sI7
Fnan
sI8
Fnan
sI9
Fnan
sI10
Fnan
sI11
Fnan
sI12
Fnan
sI13
Fnan
sI14
Fnan
ssg50
(dp193
I0
F0.024260098535504235
sI1
Fnan
sI2
Fnan
sI3
Fnan
sI4
Fnan
sI5
Fnan
sI6
Fnan
sI7
Fnan
sI8
Fnan
sI9
Fnan
sI10
Fnan
sI11
Fnan
sI12
Fnan
sI13
Fnan
sI14
Fnan
ssg52
(dp194
I0
F0.6131858
sI1
Fnan
sI2
Fnan
sI3
Fnan
sI4
Fnan
sI5
Fnan
sI6
Fnan
sI7
Fnan
sI8
Fnan
sI9
Fnan
sI10
Fnan
sI11
Fnan
sI12
Fnan
sI13
Fnan
sI14
Fnan
ssg54
(dp195
I0
F1.5021081923889477
sI1
F1.4959364960132644
sI2
F1.4952922532434845
sI3
F1.5000592300752926
sI4
F1.4956130415320665
sI5
F1.4958847067243568
sI6
F1.4972405931636465
sI7
F1.494215612796987
sI8
F1.5023979334341793
sI9
F1.50175287432101
sI10
F1.494361881087336
sI11
F1.4924809855151722
sI12
F1.4960919614804873
sI13
F1.4915267101112855
sI14
F1.501540673020254
ssg56
(dp196
I0
g164
sI1
g165
sI2
g166
sI3
g167
sI4
g168
sI5
g169
sI6
g170
sI7
g171
sI8
g172
sI9
g173
sI10
g174
sI11
g175
sI12
g176
sI13
g177
sI14
g178
ssg58
(dp197
I0
F7.638389
sI1
F8.260862
sI2
F7.713216
sI3
F8.691048
sI4
F8.887669
sI5
F7.481397
sI6
F8.885329
sI7
F8.91755
sI8
F8.979191
sI9
F8.212614
sI10
F7.721065
sI11
F9.086424
sI12
F8.801077
sI13
F7.770993
sI14
F9.039858
ssg60
(dp198
I0
F10.359266666666665
sI1
Fnan
sI2
Fnan
sI3
Fnan
sI4
Fnan
sI5
Fnan
sI6
Fnan
sI7
Fnan
sI8
Fnan
sI9
Fnan
sI10
Fnan
sI11
Fnan
sI12
Fnan
sI13
Fnan
sI14
Fnan
ssg62
(dp199
I0
F0.7139931470383636
sI1
Fnan
sI2
Fnan
sI3
Fnan
sI4
Fnan
sI5
Fnan
sI6
Fnan
sI7
Fnan
sI8
Fnan
sI9
Fnan
sI10
Fnan
sI11
Fnan
sI12
Fnan
sI13
Fnan
sI14
Fnan
ssg64
(dp200
I0
F1.658205
sI1
F3.570526
sI2
F4.240952
sI3
F3.083878
sI4
F4.087959
sI5
F-3.30396
sI6
F2.662623
sI7
F-2.383046
sI8
F3.261721
sI9
F-2.091594
sI10
F3.809275
sI11
F3.771213
sI12
F2.133445
sI13
F-2.9288
sI14
F2.132933
ssg66
(dp201
I0
F10.713866666666666
sI1
Fnan
sI2
Fnan
sI3
Fnan
sI4
Fnan
sI5
Fnan
sI6
Fnan
sI7
Fnan
sI8
Fnan
sI9
Fnan
sI10
Fnan
sI11
Fnan
sI12
Fnan
sI13
Fnan
sI14
Fnan
ssg68
(dp202
I0
g164
sI1
g165
sI2
g166
sI3
g167
sI4
g168
sI5
g169
sI6
g170
sI7
g171
sI8
g172
sI9
g173
sI10
g174
sI11
g175
sI12
g176
sI13
g177
sI14
g178
ssg70
(dp203
I0
F12976.230000000001
sI1
F13294.756666666666
sI2
F13251.476666666666
sI3
F13033.736666666666
sI4
F12945.946666666667
sI5
F12938.49
sI6
F13015.140000000001
sI7
F13157.736666666666
sI8
F13064.293333333333
sI9
F13380.713333333335
sI10
F13440.166666666666
sI11
F12479.230000000001
sI12
F12645.763333333334
sI13
F13131.443333333333
sI14
F12518.343333333332
ssg72
(dp204
I0
F1.260475
sI1
F1.1877799999999998
sI2
F1.177907
sI3
F1.2637120000000002
sI4
F1.120711
sI5
F1.257291
sI6
F1.182793
sI7
F1.180342
sI8
F1.116963
sI9
F1.185281
sI10
F1.1245129999999999
sI11
F1.118826
sI12
F1.2669620000000001
sI13
F1.122608
sI14
F1.270273
ssg74
(dp205
I0
F11019.05
sI1
F11324.8
sI2
F11309.813333333334
sI3
F11109.403333333332
sI4
F10965.456666666667
sI5
F11037.93
sI6
F11106.59
sI7
F11206.123333333333
sI8
F11089.143333333333
sI9
F11393.833333333334
sI10
F11447.566666666668
sI11
F10682.936666666666
sI12
F10782.016666666666
sI13
F11199.916666666666
sI14
F10670.656666666668
ssg76
(dp206
I0
F18021.753333333334
sI1
F18414.646666666667
sI2
F18363.153333333332
sI3
F18108.07
sI4
F17881.103333333333
sI5
F17932.98
sI6
F18058.016666666666
sI7
F18202.43
sI8
F18144.036666666667
sI9
F18602.623333333333
sI10
F18595.64
sI11
F17284.54666666667
sI12
F17525.056666666664
sI13
F18145.436666666665
sI14
F17409.613333333335
ssg78
(dp207
I0
F7.31541
sI1
F6.818238
sI2
F8.256466
sI3
F7.606797
sI4
F8.176586
sI5
F7.950015
sI6
F8.841175
sI7
F9.020252
sI8
F9.117658
sI9
F7.375188
sI10
F7.287213
sI11
F8.425163
sI12
F7.685328
sI13
F8.479856
sI14
F8.712979
ssg80
(dp208
I0
F10.895
sI1
F10.865
sI2
F10.866
sI3
F10.886
sI4
F10.9
sI5
F10.893
sI6
F10.886
sI7
F10.876
sI8
F10.888
sI9
F10.858
sI10
F10.853
sI11
F10.928
sI12
F10.918
sI13
F10.877
sI14
F10.93
ssg82
(dp209
I0
F0.001
sI1
F0.001
sI2
F0.001
sI3
F0.001
sI4
F0.001
sI5
F0.001
sI6
F0.001
sI7
F0.001
sI8
F0.001
sI9
F0.001
sI10
F0.001
sI11
F0.001
sI12
F0.001
sI13
F0.001
sI14
F0.001
ssg84
(dp210
I0
F0.5484937412204745
sI1
Fnan
sI2
Fnan
sI3
Fnan
sI4
Fnan
sI5
Fnan
sI6
Fnan
sI7
Fnan
sI8
Fnan
sI9
Fnan
sI10
Fnan
sI11
Fnan
sI12
Fnan
sI13
Fnan
sI14
Fnan
ssg86
(dp211
I0
F10.887933333333336
sI1
Fnan
sI2
Fnan
sI3
Fnan
sI4
Fnan
sI5
Fnan
sI6
Fnan
sI7
Fnan
sI8
Fnan
sI9
Fnan
sI10
Fnan
sI11
Fnan
sI12
Fnan
sI13
Fnan
sI14
Fnan
ssg88
(dp212
I0
F10.717
sI1
F10.691
sI2
F10.694
sI3
F10.712
sI4
F10.72
sI5
F10.72
sI6
F10.714
sI7
F10.702
sI8
F10.71
sI9
F10.684
sI10
F10.679
sI11
F10.76
sI12
F10.745
sI13
F10.704
sI14
F10.756
ssg90
(dp213
I0
F2.498105
sI1
F2.210278
sI2
F3.312929
sI3
F-0.9115705
sI4
F-2.854128
sI5
F3.73415
sI6
F-2.939987
sI7
F-2.677554
sI8
F4.123258
sI9
F-2.08417
sI10
F4.579536
sI11
F4.38468
sI12
F-2.623102
sI13
F3.107165
sI14
F2.864002
ssg92
(dp214
I0
F0.024051927949651705
sI1
Fnan
sI2
Fnan
sI3
Fnan
sI4
Fnan
sI5
Fnan
sI6
Fnan
sI7
Fnan
sI8
Fnan
sI9
Fnan
sI10
Fnan
sI11
Fnan
sI12
Fnan
sI13
Fnan
sI14
Fnan
ssg94
(dp215
I0
F0.7109527017617812
sI1
F0.7142865402386946
sI2
F0.7154797214665067
sI3
F0.713471986532145
sI4
F0.7114178402842093
sI5
F0.7150893689221796
sI6
F0.7148671838619121
sI7
F0.7146724347766009
sI8
F0.7106527861845432
sI9
F0.7124855953636691
sI10
F0.714673227103589
sI11
F0.7178481942199761
sI12
F0.7147314303467169
sI13
F0.7161786384490184
sI14
F0.7130895560639122
ssg96
(dp216
I0
F30.0
sI1
F30.0
sI2
F30.0
sI3
F30.0
sI4
F30.0
sI5
F30.0
sI6
F30.0
sI7
F30.0
sI8
F30.0
sI9
F30.0
sI10
F30.0
sI11
F30.0
sI12
F30.0
sI13
F30.0
sI14
F30.0
ssg98
(dp217
I0
F0.002
sI1
F0.002
sI2
F0.002
sI3
F0.002
sI4
F0.002
sI5
F0.002
sI6
F0.002
sI7
F0.002
sI8
F0.002
sI9
F0.002
sI10
F0.002
sI11
F0.002
sI12
F0.002
sI13
F0.002
sI14
F0.002
ssg100
(dp218
I0
F0.002
sI1
F0.002
sI2
F0.002
sI3
F0.002
sI4
F0.002
sI5
F0.002
sI6
F0.002
sI7
F0.002
sI8
F0.002
sI9
F0.002
sI10
F0.002
sI11
F0.002
sI12
F0.002
sI13
F0.002
sI14
F0.002
ssg102
(dp219
I0
F-2.603591
sI1
F-2.771768
sI2
F4.245843
sI3
F1.63439
sI4
F-3.19686
sI5
F3.123233
sI6
F3.520913
sI7
F-2.238967
sI8
F2.701621
sI9
F-2.803334
sI10
F-1.589529
sI11
F3.908411
sI12
F3.18705
sI13
F3.740786
sI14
F-1.660411
ssg104
(dp220
I0
S"KIC8462852-20181112at034035_-25-1X1-030-r'_cal.fts.mag.1"
p221
sI1
S"KIC8462852-20181112at031313_-25-1X1-030-r'_cal.fts.mag.1"
p222
sI2
S"KIC8462852-20181112at030855_-25-1X1-030-r'_cal.fts.mag.1"
p223
sI3
S"KIC8462852-20181112at034140_-25-1X1-030-r'_cal.fts.mag.1"
p224
sI4
S"KIC8462852-20181112at024032_-25-1X1-030-r'_cal.fts.mag.1"
p225
sI5
S"KIC8462852-20181112at033930_-25-1X1-030-r'_cal.fts.mag.1"
p226
sI6
S"KIC8462852-20181112at031104_-25-1X1-030-r'_cal.fts.mag.1"
p227
sI7
S"KIC8462852-20181112at031000_-25-1X1-030-r'_cal.fts.mag.1"
p228
sI8
S"KIC8462852-20181112at023823_-25-1X1-030-r'_cal.fts.mag.1"
p229
sI9
S"KIC8462852-20181112at031209_-25-1X1-030-r'_cal.fts.mag.1"
p230
sI10
S"KIC8462852-20181112at024241_-25-1X1-030-r'_cal.fts.mag.1"
p231
sI11
S"KIC8462852-20181112at023928_-25-1X1-030-r'_cal.fts.mag.1"
p232
sI12
S"KIC8462852-20181112at034245_-25-1X1-030-r'_cal.fts.mag.1"
p233
sI13
S"KIC8462852-20181112at024136_-25-1X1-030-r'_cal.fts.mag.1"
p234
sI14
S"KIC8462852-20181112at034350_-25-1X1-030-r'_cal.fts.mag.1"
p235
ssg121
(dp236
I0
F0.0035939966698131137
sI1
Fnan
sI2
Fnan
sI3
Fnan
sI4
Fnan
sI5
Fnan
sI6
Fnan
sI7
Fnan
sI8
Fnan
sI9
Fnan
sI10
Fnan
sI11
Fnan
sI12
Fnan
sI13
Fnan
sI14
Fnan
ssg123
(dp237
I0
F7715.326666666666
sI1
F7899.87
sI2
F7797.056666666667
sI3
F7755.636666666667
sI4
F7640.490000000001
sI5
F7656.05
sI6
F7703.29
sI7
F7793.7733333333335
sI8
F7753.286666666667
sI9
F7941.766666666666
sI10
F7967.243333333333
sI11
F7386.9366666666665
sI12
F7459.446666666667
sI13
F7736.956666666667
sI14
F7401.013333333333
ssg125
(dp238
I0
F0.023744071941875354
sI1
Fnan
sI2
Fnan
sI3
Fnan
sI4
Fnan
sI5
Fnan
sI6
Fnan
sI7
Fnan
sI8
Fnan
sI9
Fnan
sI10
Fnan
sI11
Fnan
sI12
Fnan
sI13
Fnan
sI14
Fnan
ssg127
(dp239
I0
S"r'"
p240
sI1
S"r'"
p241
sI2
S"r'"
p242
sI3
S"r'"
p243
sI4
S"r'"
p244
sI5
S"r'"
p245
sI6
S"r'"
p246
sI7
S"r'"
p247
sI8
S"r'"
p248
sI9
S"r'"
p249
sI10
S"r'"
p250
sI11
S"r'"
p251
sI12
S"r'"
p252
sI13
S"r'"
p253
sI14
S"r'"
p254
ssg144
(dp255
I0
F0.0017842653153296243
sI1
Fnan
sI2
Fnan
sI3
Fnan
sI4
Fnan
sI5
Fnan
sI6
Fnan
sI7
Fnan
sI8
Fnan
sI9
Fnan
sI10
Fnan
sI11
Fnan
sI12
Fnan
sI13
Fnan
sI14
Fnan
ssg146
(dp256
I0
F3.628094
sI1
F4.105052
sI2
F-3.401394
sI3
F-2.876231
sI4
F3.014955
sI5
F1.366014
sI6
F2.658536
sI7
F4.363519
sI8
F3.464994
sI9
F0.7506361
sI10
F3.599541
sI11
F3.010477
sI12
F3.10831
sI13
F3.07766
sI14
F4.139594
ssg148
(dp257
I0
F1.4971002096605182
sI1
Fnan
sI2
Fnan
sI3
Fnan
sI4
Fnan
sI5
Fnan
sI6
Fnan
sI7
Fnan
sI8
Fnan
sI9
Fnan
sI10
Fnan
sI11
Fnan
sI12
Fnan
sI13
Fnan
sI14
Fnan
ssg150
(dp258
I0
F2458434.6326851854
sI1
Fnan
sI2
Fnan
sI3
Fnan
sI4
Fnan
sI5
Fnan
sI6
Fnan
sI7
Fnan
sI8
Fnan
sI9
Fnan
sI10
Fnan
sI11
Fnan
sI12
Fnan
sI13
Fnan
sI14
Fnan
ssg152
(dp259
I0
F0.0017842653153296243
sI1
Fnan
sI2
Fnan
sI3
Fnan
sI4
Fnan
sI5
Fnan
sI6
Fnan
sI7
Fnan
sI8
Fnan
sI9
Fnan
sI10
Fnan
sI11
Fnan
sI12
Fnan
sI13
Fnan
sI14
Fnan
ssg154
(dp260
I0
F9.952588
sI1
F9.611512
sI2
F10.39915
sI3
F9.814821
sI4
F11.95413
sI5
F9.463825
sI6
F11.35279
sI7
F10.95612
sI8
F9.98423
sI9
F9.558877
sI10
F8.838025
sI11
F11.18139
sI12
F11.19315
sI13
F10.72623
sI14
F12.28183
ssg156
(dp261
I0
F10.361
sI1
F10.337
sI2
F10.34
sI3
F10.355
sI4
F10.369
sI5
F10.366
sI6
F10.358
sI7
F10.35
sI8
F10.353
sI9
F10.326
sI10
F10.326
sI11
F10.406
sI12
F10.391
sI13
F10.353
sI14
F10.398
ssg158
(dp262
I0
F0.5484937412204745
sI1
Fnan
sI2
Fnan
sI3
Fnan
sI4
Fnan
sI5
Fnan
sI6
Fnan
sI7
Fnan
sI8
Fnan
sI9
Fnan
sI10
Fnan
sI11
Fnan
sI12
Fnan
sI13
Fnan
sI14
Fnan
sssS'z'
p263
(dp264
g3
(dp265
I0
F0.36995111569911987
sI1
Fnan
sI2
Fnan
sI3
Fnan
sI4
Fnan
sI5
Fnan
sI6
Fnan
sI7
Fnan
sI8
Fnan
sI9
Fnan
sI10
Fnan
sI11
Fnan
sI12
Fnan
sI13
Fnan
sI14
Fnan
ssg5
(dp266
I0
S'NoError'
p267
sI1
S'NoError'
p268
sI2
S'NoError'
p269
sI3
S'NoError'
p270
sI4
S'NoError'
p271
sI5
S'NoError'
p272
sI6
S'NoError'
p273
sI7
S'NoError'
p274
sI8
S'NoError'
p275
sI9
S'NoError'
p276
sI10
S'NoError'
p277
sI11
S'NoError'
p278
sI12
S'NoError'
p279
sI13
S'NoError'
p280
sI14
S'NoError'
p281
ssg22
(dp282
I0
F0.007
sI1
F0.007
sI2
F0.007
sI3
F0.007
sI4
F0.007
sI5
F0.007
sI6
F0.007
sI7
F0.007
sI8
F0.007
sI9
F0.007
sI10
F0.007
sI11
F0.007
sI12
F0.007
sI13
F0.007
sI14
F0.007
ssg24
(dp283
I0
F0.9159136114140517
sI1
F0.9140753648822543
sI2
F0.9156249340277882
sI3
F0.9168827994069625
sI4
F0.9125739398788478
sI5
F0.9110529150611076
sI6
F0.9156180619779032
sI7
F0.9067238319143455
sI8
F0.9196453609272475
sI9
F0.9165391649259693
sI10
F0.9180546646855385
sI11
F0.9180024396738268
sI12
F0.9165295890486722
sI13
F0.9054730837759226
sI14
F0.915859409330963
ssg26
(dp284
I0
F0.00404743893914328
sI1
Fnan
sI2
Fnan
sI3
Fnan
sI4
Fnan
sI5
Fnan
sI6
Fnan
sI7
Fnan
sI8
Fnan
sI9
Fnan
sI10
Fnan
sI11
Fnan
sI12
Fnan
sI13
Fnan
sI14
Fnan
ssg28
(dp285
I0
F0.9145712780620934
sI1
Fnan
sI2
Fnan
sI3
Fnan
sI4
Fnan
sI5
Fnan
sI6
Fnan
sI7
Fnan
sI8
Fnan
sI9
Fnan
sI10
Fnan
sI11
Fnan
sI12
Fnan
sI13
Fnan
sI14
Fnan
ssg30
(dp286
I0
F13.348
sI1
F13.283
sI2
F13.335
sI3
F13.334
sI4
F13.278
sI5
F13.272
sI6
F13.295
sI7
F13.317
sI8
F13.271
sI9
F13.276
sI10
F13.309
sI11
F13.311
sI12
F13.292
sI13
F13.292
sI14
F13.327
ssg32
(dp287
I0
F3.354894
sI1
F0.7628298
sI2
F3.350838
sI3
F3.087413
sI4
F2.076262
sI5
F0.9631557
sI6
F1.614533
sI7
F1.787416
sI8
F1.47381
sI9
F1.630477
sI10
F2.02067
sI11
F2.941753
sI12
F2.057274
sI13
F0.9287657
sI14
F3.082806
ssg34
(dp288
I0
F2458434.6614699075
sI1
F2458434.640162037
sI2
F2458434.6622222224
sI3
F2458434.662962963
sI4
F2458434.618159722
sI5
F2458434.6394097223
sI6
F2458434.6203935184
sI7
F2458434.6409027777
sI8
F2458434.6174305556
sI9
F2458434.619641204
sI10
F2458434.6386689814
sI11
F2458434.6599652776
sI12
F2458434.6416435186
sI13
F2458434.618900463
sI14
F2458434.6607175926
ssg36
(dp289
I0
F1.6705793666666666
sI1
Fnan
sI2
Fnan
sI3
Fnan
sI4
Fnan
sI5
Fnan
sI6
Fnan
sI7
Fnan
sI8
Fnan
sI9
Fnan
sI10
Fnan
sI11
Fnan
sI12
Fnan
sI13
Fnan
sI14
Fnan
ssg38
(dp290
I0
F1.1885215266666667
sI1
Fnan
sI2
Fnan
sI3
Fnan
sI4
Fnan
sI5
Fnan
sI6
Fnan
sI7
Fnan
sI8
Fnan
sI9
Fnan
sI10
Fnan
sI11
Fnan
sI12
Fnan
sI13
Fnan
sI14
Fnan
ssg40
(dp291
I0
F0.3702678574909265
sI1
F0.3780287423755537
sI2
F0.36722282570963927
sI3
F0.367697912625322
sI4
F0.3699538644876123
sI5
F0.37181799374123753
sI6
F0.36886783168332327
sI7
F0.3661526410664744
sI8
F0.36963790060974017
sI9
F0.3751429390838474
sI10
F0.3705413533195875
sI11
F0.37009516272036375
sI12
F0.3729491951635879
sI13
F0.3724078333042976
sI14
F0.3665603087817179
ssg42
(dp292
I0
F0.002473455475590188
sI1
Fnan
sI2
Fnan
sI3
Fnan
sI4
Fnan
sI5
Fnan
sI6
Fnan
sI7
Fnan
sI8
Fnan
sI9
Fnan
sI10
Fnan
sI11
Fnan
sI12
Fnan
sI13
Fnan
sI14
Fnan
ssg44
(dp293
I0
F1.7695965333333334
sI1
Fnan
sI2
Fnan
sI3
Fnan
sI4
Fnan
sI5
Fnan
sI6
Fnan
sI7
Fnan
sI8
Fnan
sI9
Fnan
sI10
Fnan
sI11
Fnan
sI12
Fnan
sI13
Fnan
sI14
Fnan
ssg46
(dp294
I0
g267
sI1
g268
sI2
g269
sI3
g270
sI4
g271
sI5
g272
sI6
g273
sI7
g274
sI8
g275
sI9
g276
sI10
g277
sI11
g278
sI12
g279
sI13
g280
sI14
g281
ssg48
(dp295
I0
F0.004386842152109721
sI1
Fnan
sI2
Fnan
sI3
Fnan
sI4
Fnan
sI5
Fnan
sI6
Fnan
sI7
Fnan
sI8
Fnan
sI9
Fnan
sI10
Fnan
sI11
Fnan
sI12
Fnan
sI13
Fnan
sI14
Fnan
ssg50
(dp296
I0
F0.02108644339944703
sI1
Fnan
sI2
Fnan
sI3
Fnan
sI4
Fnan
sI5
Fnan
sI6
Fnan
sI7
Fnan
sI8
Fnan
sI9
Fnan
sI10
Fnan
sI11
Fnan
sI12
Fnan
sI13
Fnan
sI14
Fnan
ssg52
(dp297
I0
F1.3042756
sI1
Fnan
sI2
Fnan
sI3
Fnan
sI4
Fnan
sI5
Fnan
sI6
Fnan
sI7
Fnan
sI8
Fnan
sI9
Fnan
sI10
Fnan
sI11
Fnan
sI12
Fnan
sI13
Fnan
sI14
Fnan
ssg54
(dp298
I0
F1.5019861559317302
sI1
F1.5133969352258068
sI2
F1.5115302924898266
sI3
F1.5135864121340228
sI4
F1.5032767968614746
sI5
F1.5056898165398709
sI6
F1.5120608916260183
sI7
F1.5077721478824258
sI8
F1.5050923643095029
sI9
F1.5092604323735936
sI10
F1.4981729502412742
sI11
F1.5072926508298161
sI12
F1.5110036802920679
sI13
F1.5316765628807538
sI14
F1.5205989025351974
ssg56
(dp299
I0
g267
sI1
g268
sI2
g269
sI3
g270
sI4
g271
sI5
g272
sI6
g273
sI7
g274
sI8
g275
sI9
g276
sI10
g277
sI11
g278
sI12
g279
sI13
g280
sI14
g281
ssg58
(dp300
I0
F4.016487
sI1
F2.405526
sI2
F3.324259
sI3
F3.560543
sI4
F2.198597
sI5
F1.773169
sI6
F1.83634
sI7
F2.914988
sI8
F1.340666
sI9
F1.92214
sI10
F2.079251
sI11
F3.424781
sI12
F1.749086
sI13
F2.327577
sI14
F3.20018
ssg60
(dp301
I0
F11.94753333333333
sI1
Fnan
sI2
Fnan
sI3
Fnan
sI4
Fnan
sI5
Fnan
sI6
Fnan
sI7
Fnan
sI8
Fnan
sI9
Fnan
sI10
Fnan
sI11
Fnan
sI12
Fnan
sI13
Fnan
sI14
Fnan
ssg62
(dp302
I0
F0.6881279989599515
sI1
Fnan
sI2
Fnan
sI3
Fnan
sI4
Fnan
sI5
Fnan
sI6
Fnan
sI7
Fnan
sI8
Fnan
sI9
Fnan
sI10
Fnan
sI11
Fnan
sI12
Fnan
sI13
Fnan
sI14
Fnan
ssg64
(dp303
I0
F3.421643
sI1
F-3.872439
sI2
F-3.671876
sI3
F3.633864
sI4
F2.170919
sI5
F3.643912
sI6
F3.765743
sI7
F2.981452
sI8
F1.868004
sI9
F-2.841742
sI10
F4.805049
sI11
F2.538887
sI12
F-2.336126
sI13
F1.34569
sI14
F0.3748429
ssg66
(dp304
I0
F12.290266666666666
sI1
Fnan
sI2
Fnan
sI3
Fnan
sI4
Fnan
sI5
Fnan
sI6
Fnan
sI7
Fnan
sI8
Fnan
sI9
Fnan
sI10
Fnan
sI11
Fnan
sI12
Fnan
sI13
Fnan
sI14
Fnan
ssg68
(dp305
I0
g267
sI1
g268
sI2
g269
sI3
g270
sI4
g271
sI5
g272
sI6
g273
sI7
g274
sI8
g275
sI9
g276
sI10
g277
sI11
g278
sI12
g279
sI13
g280
sI14
g281
ssg70
(dp306
I0
F2927.5293333333334
sI1
F3039.415
sI2
F2985.4196666666667
sI3
F2988.0553333333332
sI4
F3118.336333333333
sI5
F3116.251333333333
sI6
F3083.5173333333337
sI7
F3024.461666666667
sI8
F3157.0493333333334
sI9
F3090.0326666666665
sI10
F3036.9173333333333
sI11
F3035.0809999999997
sI12
F3060.2406666666666
sI13
F3040.4519999999998
sI14
F3015.4446666666668
ssg72
(dp307
I0
F1.297723
sI1
F1.208874
sI2
F1.301225
sI3
F1.304765
sI4
F1.138458
sI5
F1.206185
sI6
F1.144772
sI7
F1.211592
sI8
F1.136414
sI9
F1.1426209999999999
sI10
F1.2034799999999999
sI11
F1.2906739999999999
sI12
F1.214352
sI13
F1.140509
sI14
F1.294167
ssg74
(dp308
I0
F2395.2316666666666
sI1
F2476.423666666667
sI2
F2429.0136666666667
sI3
F2422.89
sI4
F2563.4826666666663
sI5
F2564.3653333333336
sI6
F2508.012333333333
sI7
F2503.6326666666664
sI8
F2561.9706666666666
sI9
F2513.9173333333333
sI10
F2481.907
sI11
F2466.2793333333334
sI12
F2486.964
sI13
F2484.500333333333
sI14
F2438.3976666666663
ssg76
(dp309
I0
F3997.3566666666666
sI1
F4173.826666666667
sI2
F4092.04
sI3
F4094.9666666666667
sI4
F4270.673333333333
sI5
F4276.623333333333
sI6
F4227.366666666667
sI7
F4167.553333333333
sI8
F4303.826666666667
sI9
F4228.91
sI10
F4134.076666666667
sI11
F4146.08
sI12
F4190.923333333333
sI13
F4231.22
sI14
F4146.553333333333
ssg78
(dp310
I0
F2.752487
sI1
F1.928854
sI2
F3.496876
sI3
F3.128336
sI4
F1.973608
sI5
F1.686661
sI6
F2.651788
sI7
F1.603937
sI8
F1.507056
sI9
F2.640593
sI10
F0.9476134
sI11
F2.776715
sI12
F2.119998
sI13
F2.408279
sI14
F4.37689
ssg80
(dp311
I0
F12.552
sI1
F12.515
sI2
F12.536
sI3
F12.539
sI4
F12.478
sI5
F12.478
sI6
F12.502
sI7
F12.504
sI8
F12.479
sI9
F12.499
sI10
F12.513
sI11
F12.52
sI12
F12.511
sI13
F12.512
sI14
F12.532
ssg82
(dp312
I0
F0.003
sI1
F0.003
sI2
F0.003
sI3
F0.003
sI4
F0.003
sI5
F0.003
sI6
F0.003
sI7
F0.003
sI8
F0.003
sI9
F0.003
sI10
F0.003
sI11
F0.003
sI12
F0.003
sI13
F0.003
sI14
F0.003
ssg84
(dp313
I0
F0.3704896241442154
sI1
Fnan
sI2
Fnan
sI3
Fnan
sI4
Fnan
sI5
Fnan
sI6
Fnan
sI7
Fnan
sI8
Fnan
sI9
Fnan
sI10
Fnan
sI11
Fnan
sI12
Fnan
sI13
Fnan
sI14
Fnan
ssg86
(dp314
I0
F12.511333333333335
sI1
Fnan
sI2
Fnan
sI3
Fnan
sI4
Fnan
sI5
Fnan
sI6
Fnan
sI7
Fnan
sI8
Fnan
sI9
Fnan
sI10
Fnan
sI11
Fnan
sI12
Fnan
sI13
Fnan
sI14
Fnan
ssg88
(dp315
I0
F12.334
sI1
F12.293
sI2
F12.312
sI3
F12.312
sI4
F12.265
sI5
F12.266
sI6
F12.277
sI7
F12.298
sI8
F12.252
sI9
F12.275
sI10
F12.294
sI11
F12.295
sI12
F12.286
sI13
F12.293
sI14
F12.302
ssg90
(dp316
I0
F3.769321
sI1
F3.356682
sI2
F2.908293
sI3
F3.200041
sI4
F3.602079
sI5
F-1.050144
sI6
F-2.923148
sI7
F2.972248
sI8
F2.989945
sI9
F3.772202
sI10
F0.9162035
sI11
F-2.614312
sI12
F-2.74377
sI13
F3.388492
sI14
F3.514558
ssg92
(dp317
I0
F0.021377112816771085
sI1
Fnan
sI2
Fnan
sI3
Fnan
sI4
Fnan
sI5
Fnan
sI6
Fnan
sI7
Fnan
sI8
Fnan
sI9
Fnan
sI10
Fnan
sI11
Fnan
sI12
Fnan
sI13
Fnan
sI14
Fnan
ssg94
(dp318
I0
F0.6917750463088248
sI1
F0.6866326628457617
sI2
F0.6864083388865657
sI3
F0.6841401876204818
sI4
F0.6938636657172235
sI5
F0.6937397017957472
sI6
F0.6861037142248004
sI7
F0.6962256521063057
sI8
F0.6867747612121329
sI9
F0.6869618872088447
sI10
F0.6922072449091436
sI11
F0.6868748196380317
sI12
F0.6859489042035182
sI13
F0.683336743828196
sI14
F0.6809266538936946
ssg96
(dp319
I0
F30.0
sI1
F30.0
sI2
F30.0
sI3
F30.0
sI4
F30.0
sI5
F30.0
sI6
F30.0
sI7
F30.0
sI8
F30.0
sI9
F30.0
sI10
F30.0
sI11
F30.0
sI12
F30.0
sI13
F30.0
sI14
F30.0
ssg98
(dp320
I0
F0.004
sI1
F0.004
sI2
F0.004
sI3
F0.004
sI4
F0.004
sI5
F0.004
sI6
F0.004
sI7
F0.004
sI8
F0.004
sI9
F0.004
sI10
F0.004
sI11
F0.004
sI12
F0.004
sI13
F0.004
sI14
F0.004
ssg100
(dp321
I0
F0.004
sI1
F0.004
sI2
F0.004
sI3
F0.004
sI4
F0.004
sI5
F0.004
sI6
F0.004
sI7
F0.004
sI8
F0.004
sI9
F0.004
sI10
F0.004
sI11
F0.004
sI12
F0.004
sI13
F0.004
sI14
F0.004
ssg102
(dp322
I0
F3.321213
sI1
F-2.422897
sI2
F3.569668
sI3
F-2.398798
sI4
F-2.872858
sI5
F3.336483
sI6
F2.890617
sI7
F-2.344687
sI8
F1.975222
sI9
F1.681013
sI10
F4.79273
sI11
F3.317869
sI12
F-2.483992
sI13
F3.359308
sI14
F3.843243
ssg104
(dp323
I0
S"KIC8462852-20181112at035230_-25-1X1-030-z'_cal.fts.mag.1"
p324
sI1
S"KIC8462852-20181112at032150_-25-1X1-030-z'_cal.fts.mag.1"
p325
sI2
S"KIC8462852-20181112at035336_-25-1X1-030-z'_cal.fts.mag.1"
p326
sI3
S"KIC8462852-20181112at035440_-25-1X1-030-z'_cal.fts.mag.1"
p327
sI4
S"KIC8462852-20181112at025009_-25-1X1-030-z'_cal.fts.mag.1"
p328
sI5
S"KIC8462852-20181112at032045_-25-1X1-030-z'_cal.fts.mag.1"
p329
sI6
S"KIC8462852-20181112at025322_-25-1X1-030-z'_cal.fts.mag.1"
p330
sI7
S"KIC8462852-20181112at032254_-25-1X1-030-z'_cal.fts.mag.1"
p331
sI8
S"KIC8462852-20181112at024904_-25-1X1-030-z'_cal.fts.mag.1"
p332
sI9
S"KIC8462852-20181112at025217_-25-1X1-030-z'_cal.fts.mag.1"
p333
sI10
S"KIC8462852-20181112at031940_-25-1X1-030-z'_cal.fts.mag.1"
p334
sI11
S"KIC8462852-20181112at035019_-25-1X1-030-z'_cal.fts.mag.1"
p335
sI12
S"KIC8462852-20181112at032358_-25-1X1-030-z'_cal.fts.mag.1"
p336
sI13
S"KIC8462852-20181112at025113_-25-1X1-030-z'_cal.fts.mag.1"
p337
sI14
S"KIC8462852-20181112at035126_-25-1X1-030-z'_cal.fts.mag.1"
p338
ssg121
(dp339
I0
F0.008100396362488622
sI1
Fnan
sI2
Fnan
sI3
Fnan
sI4
Fnan
sI5
Fnan
sI6
Fnan
sI7
Fnan
sI8
Fnan
sI9
Fnan
sI10
Fnan
sI11
Fnan
sI12
Fnan
sI13
Fnan
sI14
Fnan
ssg123
(dp340
I0
F1150.3133333333333
sI1
F1220.9906666666668
sI2
F1163.6646666666668
sI3
F1165.1013333333333
sI4
F1227.321
sI5
F1234.0936666666666
sI6
F1207.2916666666667
sI7
F1183.3623333333335
sI8
F1234.9413333333332
sI9
F1229.576
sI10
F1192.2663333333333
sI11
F1190.157
sI12
F1210.609
sI13
F1211.0916666666667
sI14
F1173.0413333333333
ssg125
(dp341
I0
F0.022531459488161574
sI1
Fnan
sI2
Fnan
sI3
Fnan
sI4
Fnan
sI5
Fnan
sI6
Fnan
sI7
Fnan
sI8
Fnan
sI9
Fnan
sI10
Fnan
sI11
Fnan
sI12
Fnan
sI13
Fnan
sI14
Fnan
ssg127
(dp342
I0
S"z'"
p343
sI1
S"z'"
p344
sI2
S"z'"
p345
sI3
S"z'"
p346
sI4
S"z'"
p347
sI5
S"z'"
p348
sI6
S"z'"
p349
sI7
S"z'"
p350
sI8
S"z'"
p351
sI9
S"z'"
p352
sI10
S"z'"
p353
sI11
S"z'"
p354
sI12
S"z'"
p355
sI13
S"z'"
p356
sI14
S"z'"
p357
ssg144
(dp358
I0
F0.0032354060288186624
sI1
Fnan
sI2
Fnan
sI3
Fnan
sI4
Fnan
sI5
Fnan
sI6
Fnan
sI7
Fnan
sI8
Fnan
sI9
Fnan
sI10
Fnan
sI11
Fnan
sI12
Fnan
sI13
Fnan
sI14
Fnan
ssg146
(dp359
I0
F-1.847539
sI1
F4.520086
sI2
F1.180297
sI3
F2.849198
sI4
F-3.519224
sI5
F4.587531
sI6
F3.438959
sI7
F2.762682
sI8
F1.327075
sI9
F-1.954717
sI10
F2.818313
sI11
F2.685891
sI12
F1.065462
sI13
F3.597232
sI14
F3.032702
ssg148
(dp360
I0
F1.510159799476892
sI1
Fnan
sI2
Fnan
sI3
Fnan
sI4
Fnan
sI5
Fnan
sI6
Fnan
sI7
Fnan
sI8
Fnan
sI9
Fnan
sI10
Fnan
sI11
Fnan
sI12
Fnan
sI13
Fnan
sI14
Fnan
ssg150
(dp361
I0
F2458434.640162037
sI1
Fnan
sI2
Fnan
sI3
Fnan
sI4
Fnan
sI5
Fnan
sI6
Fnan
sI7
Fnan
sI8
Fnan
sI9
Fnan
sI10
Fnan
sI11
Fnan
sI12
Fnan
sI13
Fnan
sI14
Fnan
ssg152
(dp362
I0
F0.0032354060288186624
sI1
Fnan
sI2
Fnan
sI3
Fnan
sI4
Fnan
sI5
Fnan
sI6
Fnan
sI7
Fnan
sI8
Fnan
sI9
Fnan
sI10
Fnan
sI11
Fnan
sI12
Fnan
sI13
Fnan
sI14
Fnan
ssg154
(dp363
I0
F3.512312
sI1
F1.320698
sI2
F3.948311
sI3
F4.13197
sI4
F1.81824
sI5
F2.822659
sI6
F2.809641
sI7
F3.555609
sI8
F1.934693
sI9
F2.259546
sI10
F4.064684
sI11
F3.586733
sI12
F2.702113
sI13
F1.083289
sI14
F3.598464
ssg156
(dp364
I0
F11.996
sI1
F11.949
sI2
F11.97
sI3
F11.969
sI4
F11.924
sI5
F11.922
sI6
F11.935
sI7
F11.95
sI8
F11.915
sI9
F11.934
sI10
F11.959
sI11
F11.956
sI12
F11.944
sI13
F11.934
sI14
F11.956
ssg158
(dp365
I0
F0.3704896241442154
sI1
Fnan
sI2
Fnan
sI3
Fnan
sI4
Fnan
sI5
Fnan
sI6
Fnan
sI7
Fnan
sI8
Fnan
sI9
Fnan
sI10
Fnan
sI11
Fnan
sI12
Fnan
sI13
Fnan
sI14
Fnan
sssS'g'
p366
(dp367
g3
(dp368
I0
F0.8683820389492707
sI1
Fnan
sI2
Fnan
sI3
Fnan
sI4
Fnan
sI5
Fnan
sI6
Fnan
sI7
Fnan
sI8
Fnan
sI9
Fnan
sI10
Fnan
sI11
Fnan
sI12
Fnan
sI13
Fnan
sI14
Fnan
ssg5
(dp369
I0
S'NoError'
p370
sI1
S'NoError'
p371
sI2
S'NoError'
p372
sI3
S'NoError'
p373
sI4
S'NoError'
p374
sI5
S'NoError'
p375
sI6
S'NoError'
p376
sI7
S'NoError'
p377
sI8
S'NoError'
p378
sI9
S'NoError'
p379
sI10
S'NoError'
p380
sI11
S'NoError'
p381
sI12
S'NoError'
p382
sI13
S'NoError'
p383
sI14
S'NoError'
p384
ssg22
(dp385
I0
F0.002
sI1
F0.002
sI2
F0.002
sI3
F0.002
sI4
F0.002
sI5
F0.002
sI6
F0.002
sI7
F0.002
sI8
F0.002
sI9
F0.002
sI10
F0.002
sI11
F0.002
sI12
F0.002
sI13
F0.002
sI14
F0.002
ssg24
(dp386
I0
F0.8793763113134982
sI1
F0.8818865072202668
sI2
F0.8812575325359352
sI3
F0.8806184099506299
sI4
F0.877931905253834
sI5
F0.8817520893656009
sI6
F0.8703403923773109
sI7
F0.8788893882264697
sI8
F0.8775289706522778
sI9
F0.8750017425932043
sI10
F0.8789628879596024
sI11
F0.8789999233796413
sI12
F0.8800334580862402
sI13
F0.8727085392925463
sI14
F0.8762187387923267
ssg26
(dp387
I0
F0.0033199034546936568
sI1
Fnan
sI2
Fnan
sI3
Fnan
sI4
Fnan
sI5
Fnan
sI6
Fnan
sI7
Fnan
sI8
Fnan
sI9
Fnan
sI10
Fnan
sI11
Fnan
sI12
Fnan
sI13
Fnan
sI14
Fnan
ssg28
(dp388
I0
F0.8781004531332923
sI1
Fnan
sI2
Fnan
sI3
Fnan
sI4
Fnan
sI5
Fnan
sI6
Fnan
sI7
Fnan
sI8
Fnan
sI9
Fnan
sI10
Fnan
sI11
Fnan
sI12
Fnan
sI13
Fnan
sI14
Fnan
ssg30
(dp389
I0
F11.531
sI1
F11.503
sI2
F11.508
sI3
F11.481
sI4
F11.477
sI5
F11.501
sI6
F11.503
sI7
F11.462
sI8
F11.463
sI9
F11.513
sI10
F11.586
sI11
F11.517
sI12
F11.493
sI13
F11.507
sI14
F11.491
ssg32
(dp390
I0
F1.107818
sI1
F1.559427
sI2
F1.850759
sI3
F-1.191089
sI4
F-0.259953
sI5
F0.9050352
sI6
F1.734196
sI7
F0.9041848
sI8
F0.9977714
sI9
F0.6350865
sI10
F2.428472
sI11
F1.060007
sI12
F1.107926
sI13
F1.299182
sI14
F0.8229094
ssg34
(dp391
I0
F2458434.6289236112
sI1
F2458434.607685185
sI2
F2458434.6084375
sI3
F2458434.650914352
sI4
F2458434.651666667
sI5
F2458434.6304166666
sI6
F2458434.6061921297
sI7
F2458434.6281712963
sI8
F2458434.6274305554
sI9
F2458434.6494328706
sI10
F2458434.6296759257
sI11
F2458434.650185185
sI12
F2458434.6486921296
sI13
F2458434.6069444446
sI14
F2458434.6092476854
ssg36
(dp392
I0
F2.2728664
sI1
Fnan
sI2
Fnan
sI3
Fnan
sI4
Fnan
sI5
Fnan
sI6
Fnan
sI7
Fnan
sI8
Fnan
sI9
Fnan
sI10
Fnan
sI11
Fnan
sI12
Fnan
sI13
Fnan
sI14
Fnan
ssg38
(dp393
I0
F0.2303619599999999
sI1
Fnan
sI2
Fnan
sI3
Fnan
sI4
Fnan
sI5
Fnan
sI6
Fnan
sI7
Fnan
sI8
Fnan
sI9
Fnan
sI10
Fnan
sI11
Fnan
sI12
Fnan
sI13
Fnan
sI14
Fnan
ssg40
(dp394
I0
F0.8649136371717124
sI1
F0.8727499492084378
sI2
F0.860730896949083
sI3
F0.870813116547278
sI4
F0.8731017281515028
sI5
F0.8660619954607686
sI6
F0.8721780073451216
sI7
F0.868121956818093
sI8
F0.8676121786542814
sI9
F0.8636154494693784
sI10
F0.8639630141522098
sI11
F0.867482763276118
sI12
F0.8685439994455814
sI13
F0.8675987949606777
sI14
F0.8705919546286273
ssg42
(dp395
I0
F0.0030275714293400593
sI1
Fnan
sI2
Fnan
sI3
Fnan
sI4
Fnan
sI5
Fnan
sI6
Fnan
sI7
Fnan
sI8
Fnan
sI9
Fnan
sI10
Fnan
sI11
Fnan
sI12
Fnan
sI13
Fnan
sI14
Fnan
ssg44
(dp396
I0
F1.3442055333333331
sI1
Fnan
sI2
Fnan
sI3
Fnan
sI4
Fnan
sI5
Fnan
sI6
Fnan
sI7
Fnan
sI8
Fnan
sI9
Fnan
sI10
Fnan
sI11
Fnan
sI12
Fnan
sI13
Fnan
sI14
Fnan
ssg46
(dp397
I0
g370
sI1
g371
sI2
g372
sI3
g373
sI4
g374
sI5
g375
sI6
g376
sI7
g377
sI8
g378
sI9
g379
sI10
g380
sI11
g381
sI12
g382
sI13
g383
sI14
g384
ssg48
(dp398
I0
F0.0030054461563395977
sI1
Fnan
sI2
Fnan
sI3
Fnan
sI4
Fnan
sI5
Fnan
sI6
Fnan
sI7
Fnan
sI8
Fnan
sI9
Fnan
sI10
Fnan
sI11
Fnan
sI12
Fnan
sI13
Fnan
sI14
Fnan
ssg50
(dp399
I0
F0.028516828782484186
sI1
Fnan
sI2
Fnan
sI3
Fnan
sI4
Fnan
sI5
Fnan
sI6
Fnan
sI7
Fnan
sI8
Fnan
sI9
Fnan
sI10
Fnan
sI11
Fnan
sI12
Fnan
sI13
Fnan
sI14
Fnan
ssg52
(dp400
I0
F2.2762994
sI1
Fnan
sI2
Fnan
sI3
Fnan
sI4
Fnan
sI5
Fnan
sI6
Fnan
sI7
Fnan
sI8
Fnan
sI9
Fnan
sI10
Fnan
sI11
Fnan
sI12
Fnan
sI13
Fnan
sI14
Fnan
ssg54
(dp401
I0
F1.5202750972881824
sI1
F1.5133780604574385
sI2
F1.5157286783851105
sI3
F1.5184970662898618
sI4
F1.5129619862982011
sI5
F1.5139404067990054
sI6
F1.5182049629216343
sI7
F1.5208955503142858
sI8
F1.5148764600302094
sI9
F1.5190995654111126
sI10
F1.5249740073357239
sI11
F1.513251380420276
sI12
F1.517709593303386
sI13
F1.5246369461127
sI14
F1.5161651666937577
ssg56
(dp402
I0
g370
sI1
g371
sI2
g372
sI3
g373
sI4
g374
sI5
g375
sI6
g376
sI7
g377
sI8
g378
sI9
g379
sI10
g380
sI11
g381
sI12
g382
sI13
g383
sI14
g384
ssg58
(dp403
I0
F0.0252216
sI1
F1.805774
sI2
F0.5279293
sI3
F0.05277177
sI4
F-0.4556772
sI5
F0.4448055
sI6
F1.785524
sI7
F0.1031066
sI8
F0.524079
sI9
F0.3525059
sI10
F1.144062
sI11
F0.3262266
sI12
F0.7718335
sI13
F1.854526
sI14
F0.9640605
ssg60
(dp404
I0
F11.068466666666668
sI1
Fnan
sI2
Fnan
sI3
Fnan
sI4
Fnan
sI5
Fnan
sI6
Fnan
sI7
Fnan
sI8
Fnan
sI9
Fnan
sI10
Fnan
sI11
Fnan
sI12
Fnan
sI13
Fnan
sI14
Fnan
ssg62
(dp405
I0
F0.71542924002263
sI1
Fnan
sI2
Fnan
sI3
Fnan
sI4
Fnan
sI5
Fnan
sI6
Fnan
sI7
Fnan
sI8
Fnan
sI9
Fnan
sI10
Fnan
sI11
Fnan
sI12
Fnan
sI13
Fnan
sI14
Fnan
ssg64
(dp406
I0
F1.630127
sI1
F2.882932
sI2
F1.66731
sI3
F3.769963
sI4
F-2.162187
sI5
F-1.729806
sI6
F1.603073
sI7
F-3.378154
sI8
F4.258646
sI9
F0.6825634
sI10
F-3.097852
sI11
F-2.166331
sI12
F-2.002915
sI13
F3.875657
sI14
F-2.377597
ssg66
(dp407
I0
F11.444733333333334
sI1
Fnan
sI2
Fnan
sI3
Fnan
sI4
Fnan
sI5
Fnan
sI6
Fnan
sI7
Fnan
sI8
Fnan
sI9
Fnan
sI10
Fnan
sI11
Fnan
sI12
Fnan
sI13
Fnan
sI14
Fnan
ssg68
(dp408
I0
g370
sI1
g371
sI2
g372
sI3
g373
sI4
g374
sI5
g375
sI6
g376
sI7
g377
sI8
g378
sI9
g379
sI10
g380
sI11
g381
sI12
g382
sI13
g383
sI14
g384
ssg70
(dp409
I0
F6493.713333333333
sI1
F6617.263333333333
sI2
F6675.9400000000005
sI3
F6759.653333333334
sI4
F6756.256666666667
sI5
F6682.320000000001
sI6
F6564.6033333333335
sI7
F6893.766666666666
sI8
F6884.7266666666665
sI9
F6590.406666666667
sI10
F6177.783333333334
sI11
F6558.243333333333
sI12
F6701.8933333333325
sI13
F6586.923333333334
sI14
F6677.8966666666665
ssg72
(dp410
I0
F1.1705079999999999
sI1
F1.1112959999999998
sI2
F1.1130799999999998
sI3
F1.250949
sI4
F1.254089
sI5
F1.1753049999999998
sI6
F1.107724
sI7
F1.168167
sI8
F1.165798
sI9
F1.244786
sI10
F1.172906
sI11
F1.2478280000000002
sI12
F1.241726
sI13
F1.1094950000000001
sI14
F1.1150879999999999
ssg74
(dp411
I0
F5586.376666666666
sI1
F5692.443333333333
sI2
F5740.763333333333
sI3
F5809.1866666666665
sI4
F5852.793333333333
sI5
F5747.733333333334
sI6
F5742.663333333333
sI7
F5933.206666666667
sI8
F5961.183333333333
sI9
F5716.243333333333
sI10
F5303.02
sI11
F5669.916666666667
sI12
F5768.09
sI13
F5716.346666666666
sI14
F5790.4766666666665
ssg76
(dp412
I0
F9182.53
sI1
F9314.619999999999
sI2
F9410.176666666666
sI3
F9542.873333333333
sI4
F9538.506666666666
sI5
F9409.18
sI6
F9342.476666666666
sI7
F9754.243333333334
sI8
F9729.983333333334
sI9
F9347.513333333334
sI10
F8753.963333333335
sI11
F9252.140000000001
sI12
F9462.906666666668
sI13
F9379.01
sI14
F9452.056666666667
ssg78
(dp413
I0
F0.7051113
sI1
F1.142819
sI2
F0.4253901
sI3
F-0.3352954
sI4
F-1.018513
sI5
F1.137043
sI6
F1.599357
sI7
F1.128185
sI8
F-0.02974388
sI9
F1.034
sI10
F1.110094
sI11
F0.3487156
sI12
F1.121332
sI13
F0.5963387
sI14
F0.325972
ssg80
(dp414
I0
F11.632
sI1
F11.612
sI2
F11.603
sI3
F11.59
sI4
F11.582
sI5
F11.601
sI6
F11.602
sI7
F11.567
sI8
F11.562
sI9
F11.607
sI10
F11.689
sI11
F11.616
sI12
F11.597
sI13
F11.607
sI14
F11.593
ssg82
(dp415
I0
F0.002
sI1
F0.002
sI2
F0.002
sI3
F0.002
sI4
F0.002
sI5
F0.002
sI6
F0.002
sI7
F0.002
sI8
F0.002
sI9
F0.002
sI10
F0.002
sI11
F0.002
sI12
F0.002
sI13
F0.002
sI14
F0.002
ssg84
(dp416
I0
F0.8678719628159249
sI1
Fnan
sI2
Fnan
sI3
Fnan
sI4
Fnan
sI5
Fnan
sI6
Fnan
sI7
Fnan
sI8
Fnan
sI9
Fnan
sI10
Fnan
sI11
Fnan
sI12
Fnan
sI13
Fnan
sI14
Fnan
ssg86
(dp417
I0
F11.603999999999997
sI1
Fnan
sI2
Fnan
sI3
Fnan
sI4
Fnan
sI5
Fnan
sI6
Fnan
sI7
Fnan
sI8
Fnan
sI9
Fnan
sI10
Fnan
sI11
Fnan
sI12
Fnan
sI13
Fnan
sI14
Fnan
ssg88
(dp418
I0
F11.469
sI1
F11.448
sI2
F11.439
sI3
F11.425
sI4
F11.426
sI5
F11.438
sI6
F11.457
sI7
F11.404
sI8
F11.405
sI9
F11.453
sI10
F11.523
sI11
F11.458
sI12
F11.435
sI13
F11.453
sI14
F11.438
ssg90
(dp419
I0
F1.611329
sI1
F4.068973
sI2
F1.463263
sI3
F2.848277
sI4
F3.830594
sI5
F3.139548
sI6
F2.750726
sI7
F-2.01733
sI8
F3.553362
sI9
F2.567458
sI10
F3.438636
sI11
F-2.293901
sI12
F3.167117
sI13
F2.966512
sI14
F2.998432
ssg92
(dp420
I0
F0.027547016085923026
sI1
Fnan
sI2
Fnan
sI3
Fnan
sI4
Fnan
sI5
Fnan
sI6
Fnan
sI7
Fnan
sI8
Fnan
sI9
Fnan
sI10
Fnan
sI11
Fnan
sI12
Fnan
sI13
Fnan
sI14
Fnan
ssg94
(dp421
I0
F0.7127187997634636
sI1
F0.7145976673609419
sI2
F0.713753785614303
sI3
F0.7126731684536426
sI4
F0.7183649389200498
sI5
F0.7143812986152109
sI6
F0.7220260831445285
sI7
F0.7127826889420016
sI8
F0.7175789807144793
sI9
F0.7173135934090938
sI10
F0.7103013623768953
sI11
F0.717239619954397
sI12
F0.7136605463723646
sI13
F0.7160679613677454
sI14
F0.7179781053303315
ssg96
(dp422
I0
F30.0
sI1
F30.0
sI2
F30.0
sI3
F30.0
sI4
F30.0
sI5
F30.0
sI6
F30.0
sI7
F30.0
sI8
F30.0
sI9
F30.0
sI10
F30.0
sI11
F30.0
sI12
F30.0
sI13
F30.0
sI14
F30.0
ssg98
(dp423
I0
F0.003
sI1
F0.003
sI2
F0.003
sI3
F0.002
sI4
F0.002
sI5
F0.003
sI6
F0.003
sI7
F0.002
sI8
F0.002
sI9
F0.003
sI10
F0.003
sI11
F0.003
sI12
F0.002
sI13
F0.003
sI14
F0.002
ssg100
(dp424
I0
F0.002
sI1
F0.002
sI2
F0.002
sI3
F0.002
sI4
F0.002
sI5
F0.002
sI6
F0.002
sI7
F0.002
sI8
F0.002
sI9
F0.002
sI10
F0.002
sI11
F0.002
sI12
F0.002
sI13
F0.002
sI14
F0.002
ssg102
(dp425
I0
F4.788317
sI1
F-2.150719
sI2
F3.306157
sI3
F2.440643
sI4
F3.903395
sI5
F3.098962
sI6
F3.562325
sI7
F3.354988
sI8
F4.314405
sI9
F2.441398
sI10
F3.159395
sI11
F4.002034
sI12
F-2.504603
sI13
F2.269791
sI14
F-1.841997
ssg104
(dp426
I0
S"KIC8462852-20181112at030539_-25-1X1-030-g'_cal.fts.mag.1"
p427
sI1
S"KIC8462852-20181112at023504_-25-1X1-030-g'_cal.fts.mag.1"
p428
sI2
S"KIC8462852-20181112at023608_-25-1X1-030-g'_cal.fts.mag.1"
p429
sI3
S"KIC8462852-20181112at033719_-25-1X1-030-g'_cal.fts.mag.1"
p430
sI4
S"KIC8462852-20181112at033824_-25-1X1-030-g'_cal.fts.mag.1"
p431
sI5
S"KIC8462852-20181112at030748_-25-1X1-030-g'_cal.fts.mag.1"
p432
sI6
S"KIC8462852-20181112at023245_-25-1X1-030-g'_cal.fts.mag.1"
p433
sI7
S"KIC8462852-20181112at030434_-25-1X1-030-g'_cal.fts.mag.1"
p434
sI8
S"KIC8462852-20181112at030319_-25-1X1-030-g'_cal.fts.mag.1"
p435
sI9
S"KIC8462852-20181112at033511_-25-1X1-030-g'_cal.fts.mag.1"
p436
sI10
S"KIC8462852-20181112at030644_-25-1X1-030-g'_cal.fts.mag.1"
p437
sI11
S"KIC8462852-20181112at033615_-25-1X1-030-g'_cal.fts.mag.1"
p438
sI12
S"KIC8462852-20181112at033356_-25-1X1-030-g'_cal.fts.mag.1"
p439
sI13
S"KIC8462852-20181112at023400_-25-1X1-030-g'_cal.fts.mag.1"
p440
sI14
S"KIC8462852-20181112at023719_-25-1X1-030-g'_cal.fts.mag.1"
p441
ssg121
(dp442
I0
F0.00387239803693302
sI1
Fnan
sI2
Fnan
sI3
Fnan
sI4
Fnan
sI5
Fnan
sI6
Fnan
sI7
Fnan
sI8
Fnan
sI9
Fnan
sI10
Fnan
sI11
Fnan
sI12
Fnan
sI13
Fnan
sI14
Fnan
ssg123
(dp443
I0
F6130.11
sI1
F6290.876666666666
sI2
F6262.3566666666675
sI3
F6418.39
sI4
F6445.6900000000005
sI5
F6304.71
sI6
F6294.1433333333325
sI7
F6534.416666666667
sI8
F6529.04
sI9
F6233.623333333334
sI10
F5827.363333333333
sI11
F6211.263333333333
sI12
F6349.8933333333325
sI13
F6270.506666666667
sI14
F6361.25
ssg125
(dp444
I0
F0.029558658388267302
sI1
Fnan
sI2
Fnan
sI3
Fnan
sI4
Fnan
sI5
Fnan
sI6
Fnan
sI7
Fnan
sI8
Fnan
sI9
Fnan
sI10
Fnan
sI11
Fnan
sI12
Fnan
sI13
Fnan
sI14
Fnan
ssg127
(dp445
I0
S"g'"
p446
sI1
S"g'"
p447
sI2
S"g'"
p448
sI3
S"g'"
p449
sI4
S"g'"
p450
sI5
S"g'"
p451
sI6
S"g'"
p452
sI7
S"g'"
p453
sI8
S"g'"
p454
sI9
S"g'"
p455
sI10
S"g'"
p456
sI11
S"g'"
p457
sI12
S"g'"
p458
sI13
S"g'"
p459
sI14
S"g'"
p460
ssg144
(dp461
I0
F0.0036150869542642865
sI1
Fnan
sI2
Fnan
sI3
Fnan
sI4
Fnan
sI5
Fnan
sI6
Fnan
sI7
Fnan
sI8
Fnan
sI9
Fnan
sI10
Fnan
sI11
Fnan
sI12
Fnan
sI13
Fnan
sI14
Fnan
ssg146
(dp462
I0
F-3.013738
sI1
F-2.554225
sI2
F2.948571
sI3
F3.941083
sI4
F3.163537
sI5
F2.550833
sI6
F3.543897
sI7
F-2.314808
sI8
F3.696532
sI9
F3.602756
sI10
F-3.760574
sI11
F2.831693
sI12
F-1.627907
sI13
F3.632216
sI14
F3.523217
ssg148
(dp463
I0
F1.5176396618707255
sI1
Fnan
sI2
Fnan
sI3
Fnan
sI4
Fnan
sI5
Fnan
sI6
Fnan
sI7
Fnan
sI8
Fnan
sI9
Fnan
sI10
Fnan
sI11
Fnan
sI12
Fnan
sI13
Fnan
sI14
Fnan
ssg150
(dp464
I0
F2458434.6289236112
sI1
Fnan
sI2
Fnan
sI3
Fnan
sI4
Fnan
sI5
Fnan
sI6
Fnan
sI7
Fnan
sI8
Fnan
sI9
Fnan
sI10
Fnan
sI11
Fnan
sI12
Fnan
sI13
Fnan
sI14
Fnan
ssg152
(dp465
I0
F0.0036150869542642865
sI1
Fnan
sI2
Fnan
sI3
Fnan
sI4
Fnan
sI5
Fnan
sI6
Fnan
sI7
Fnan
sI8
Fnan
sI9
Fnan
sI10
Fnan
sI11
Fnan
sI12
Fnan
sI13
Fnan
sI14
Fnan
ssg154
(dp466
I0
F2.188751
sI1
F2.812608
sI2
F1.440102
sI3
F-0.2779309
sI4
F-0.2036131
sI5
F1.265828
sI6
F2.764973
sI7
F1.420975
sI8
F1.54978
sI9
F1.64528
sI10
F2.327748
sI11
F1.140285
sI12
F1.211044
sI13
F2.435642
sI14
F2.085878
ssg156
(dp467
I0
F11.093
sI1
F11.077
sI2
F11.066
sI3
F11.051
sI4
F11.051
sI5
F11.066
sI6
F11.074
sI7
F11.027
sI8
F11.03
sI9
F11.073
sI10
F11.144
sI11
F11.084
sI12
F11.06
sI13
F11.07
sI14
F11.061
ssg158
(dp468
I0
F0.8678719628159249
sI1
Fnan
sI2
Fnan
sI3
Fnan
sI4
Fnan
sI5
Fnan
sI6
Fnan
sI7
Fnan
sI8
Fnan
sI9
Fnan
sI10
Fnan
sI11
Fnan
sI12
Fnan
sI13
Fnan
sI14
Fnan
sssS'V'
p469
(dp470
g3
(dp471
I0
F0.6919303903645097
sI1
Fnan
sI2
Fnan
sI3
Fnan
sI4
Fnan
sI5
Fnan
sI6
Fnan
sI7
Fnan
sI8
Fnan
sI9
Fnan
sI10
Fnan
sI11
Fnan
sI12
Fnan
sI13
Fnan
sI14
Fnan
ssg5
(dp472
I0
S'NoError'
p473
sI1
S'NoError'
p474
sI2
S'NoError'
p475
sI3
S'NoError'
p476
sI4
S'NoError'
p477
sI5
S'NoError'
p478
sI6
S'NoError'
p479
sI7
S'NoError'
p480
sI8
S'NoError'
p481
sI9
S'NoError'
p482
sI10
S'NoError'
p483
sI11
S'NoError'
p484
sI12
S'NoError'
p485
sI13
S'NoError'
p486
sI14
S'NoError'
p487
ssg22
(dp488
I0
F0.003
sI1
F0.002
sI2
F0.002
sI3
F0.002
sI4
F0.002
sI5
F0.002
sI6
F0.002
sI7
F0.002
sI8
F0.002
sI9
F0.002
sI10
F0.002
sI11
F0.002
sI12
F0.002
sI13
F0.002
sI14
F0.002
ssg24
(dp489
I0
F0.8813627116625025
sI1
F0.885211329277574
sI2
F0.8892362359012915
sI3
F0.880846584946463
sI4
F0.8845890295784357
sI5
F0.8838943819710176
sI6
F0.8833390357358647
sI7
F0.8891131730404243
sI8
F0.8849741205047909
sI9
F0.8850497304144537
sI10
F0.8870918941673259
sI11
F0.881552858685531
sI12
F0.8830434643792368
sI13
F0.8884894409987338
sI14
F0.8848158385592485
ssg26
(dp490
I0
F0.002692033118575073
sI1
Fnan
sI2
Fnan
sI3
Fnan
sI4
Fnan
sI5
Fnan
sI6
Fnan
sI7
Fnan
sI8
Fnan
sI9
Fnan
sI10
Fnan
sI11
Fnan
sI12
Fnan
sI13
Fnan
sI14
Fnan
ssg28
(dp491
I0
F0.8848406553215262
sI1
Fnan
sI2
Fnan
sI3
Fnan
sI4
Fnan
sI5
Fnan
sI6
Fnan
sI7
Fnan
sI8
Fnan
sI9
Fnan
sI10
Fnan
sI11
Fnan
sI12
Fnan
sI13
Fnan
sI14
Fnan
ssg30
(dp492
I0
F11.92
sI1
F11.51
sI2
F11.474
sI3
F11.489
sI4
F11.497
sI5
F11.449
sI6
F11.54
sI7
F11.578
sI8
F11.516
sI9
F11.509
sI10
F11.575
sI11
F11.565
sI12
F11.552
sI13
F11.526
sI14
F11.467
ssg32
(dp493
I0
F9.267633
sI1
F2.29955
sI2
F2.400451
sI3
F2.39377
sI4
F2.03723
sI5
F2.155943
sI6
F2.53287
sI7
F3.56071
sI8
F2.734294
sI9
F2.269623
sI10
F2.580771
sI11
F2.96642
sI12
F2.478737
sI13
F2.724644
sI14
F2.424261
ssg34
(dp494
I0
F2458434.6637847223
sI1
F2458434.645474537
sI2
F2458434.621226852
sI3
F2458434.624224537
sI4
F2458434.6439699074
sI5
F2458434.6227314817
sI6
F2458434.642476852
sI7
F2458434.6652777777
sI8
F2458434.6447222224
sI9
F2458434.6219791668
sI10
F2458434.6645370373
sI11
F2458434.6668055556
sI12
F2458434.6660532407
sI13
F2458434.6432175925
sI14
F2458434.623483796
ssg36
(dp495
I0
F2.4343188000000002
sI1
Fnan
sI2
Fnan
sI3
Fnan
sI4
Fnan
sI5
Fnan
sI6
Fnan
sI7
Fnan
sI8
Fnan
sI9
Fnan
sI10
Fnan
sI11
Fnan
sI12
Fnan
sI13
Fnan
sI14
Fnan
ssg38
(dp496
I0
F2.507874333333333
sI1
Fnan
sI2
Fnan
sI3
Fnan
sI4
Fnan
sI5
Fnan
sI6
Fnan
sI7
Fnan
sI8
Fnan
sI9
Fnan
sI10
Fnan
sI11
Fnan
sI12
Fnan
sI13
Fnan
sI14
Fnan
ssg40
(dp497
I0
F0.6876120108610329
sI1
F0.6954614511170808
sI2
F0.6926920018925582
sI3
F0.688930618806216
sI4
F0.6916626164335747
sI5
F0.6948850252750339
sI6
F0.6910890034220238
sI7
F0.6907974013966226
sI8
F0.6891874720029592
sI9
F0.6926821735087908
sI10
F0.6897812128975818
sI11
F0.690321385916678
sI12
F0.693225497163501
sI13
F0.6943792149060036
sI14
F0.695726243635996
ssg42
(dp498
I0
F0.0020719912248911006
sI1
Fnan
sI2
Fnan
sI3
Fnan
sI4
Fnan
sI5
Fnan
sI6
Fnan
sI7
Fnan
sI8
Fnan
sI9
Fnan
sI10
Fnan
sI11
Fnan
sI12
Fnan
sI13
Fnan
sI14
Fnan
ssg44
(dp499
I0
F1.924907266666667
sI1
Fnan
sI2
Fnan
sI3
Fnan
sI4
Fnan
sI5
Fnan
sI6
Fnan
sI7
Fnan
sI8
Fnan
sI9
Fnan
sI10
Fnan
sI11
Fnan
sI12
Fnan
sI13
Fnan
sI14
Fnan
ssg46
(dp500
I0
g473
sI1
g474
sI2
g475
sI3
g476
sI4
g477
sI5
g478
sI6
g479
sI7
g480
sI8
g481
sI9
g482
sI10
g483
sI11
g484
sI12
g485
sI13
g486
sI14
g487
ssg48
(dp501
I0
F0.0027078023010262495
sI1
Fnan
sI2
Fnan
sI3
Fnan
sI4
Fnan
sI5
Fnan
sI6
Fnan
sI7
Fnan
sI8
Fnan
sI9
Fnan
sI10
Fnan
sI11
Fnan
sI12
Fnan
sI13
Fnan
sI14
Fnan
ssg50
(dp502
I0
F0.10926172161156808
sI1
Fnan
sI2
Fnan
sI3
Fnan
sI4
Fnan
sI5
Fnan
sI6
Fnan
sI7
Fnan
sI8
Fnan
sI9
Fnan
sI10
Fnan
sI11
Fnan
sI12
Fnan
sI13
Fnan
sI14
Fnan
ssg52
(dp503
I0
F1.2110866333333334
sI1
Fnan
sI2
Fnan
sI3
Fnan
sI4
Fnan
sI5
Fnan
sI6
Fnan
sI7
Fnan
sI8
Fnan
sI9
Fnan
sI10
Fnan
sI11
Fnan
sI12
Fnan
sI13
Fnan
sI14
Fnan
ssg54
(dp504
I0
F1.517787906693338
sI1
F1.5077407336170643
sI2
F1.5049355066238979
sI3
F1.5017681618122063
sI4
F1.510020538117433
sI5
F1.5092740156902804
sI6
F1.5141785931579432
sI7
F1.5064933755839547
sI8
F1.504723444085737
sI9
F1.5061610348762469
sI10
F1.5048829882834287
sI11
F1.5112307938732517
sI12
F1.5057260238250887
sI13
F1.5074979307605114
sI14
F1.5074562229806219
ssg56
(dp505
I0
g473
sI1
g474
sI2
g475
sI3
g476
sI4
g477
sI5
g478
sI6
g479
sI7
g480
sI8
g481
sI9
g482
sI10
g483
sI11
g484
sI12
g485
sI13
g486
sI14
g487
ssg58
(dp506
I0
F12.06125
sI1
F3.579081
sI2
F2.778812
sI3
F3.093249
sI4
F3.193529
sI5
F2.36232
sI6
F3.844696
sI7
F3.776274
sI8
F2.972772
sI9
F3.45027
sI10
F3.455076
sI11
F3.426502
sI12
F4.037585
sI13
F3.697314
sI14
F3.219397
ssg60
(dp507
I0
F10.8684
sI1
Fnan
sI2
Fnan
sI3
Fnan
sI4
Fnan
sI5
Fnan
sI6
Fnan
sI7
Fnan
sI8
Fnan
sI9
Fnan
sI10
Fnan
sI11
Fnan
sI12
Fnan
sI13
Fnan
sI14
Fnan
ssg62
(dp508
I0
F0.7152069884305053
sI1
Fnan
sI2
Fnan
sI3
Fnan
sI4
Fnan
sI5
Fnan
sI6
Fnan
sI7
Fnan
sI8
Fnan
sI9
Fnan
sI10
Fnan
sI11
Fnan
sI12
Fnan
sI13
Fnan
sI14
Fnan
ssg64
(dp509
I0
F5.11209
sI1
F3.834527
sI2
F2.818069
sI3
F1.685751
sI4
F2.704004
sI5
F2.735386
sI6
F2.56158
sI7
F1.727404
sI8
F3.455325
sI9
F3.208688
sI10
F-2.555243
sI11
F2.670079
sI12
F2.584359
sI13
F2.17686
sI14
F2.899236
ssg66
(dp510
I0
F11.234866666666669
sI1
Fnan
sI2
Fnan
sI3
Fnan
sI4
Fnan
sI5
Fnan
sI6
Fnan
sI7
Fnan
sI8
Fnan
sI9
Fnan
sI10
Fnan
sI11
Fnan
sI12
Fnan
sI13
Fnan
sI14
Fnan
ssg68
(dp511
I0
g473
sI1
g474
sI2
g475
sI3
g476
sI4
g477
sI5
g478
sI6
g479
sI7
g480
sI8
g481
sI9
g482
sI10
g483
sI11
g484
sI12
g485
sI13
g486
sI14
g487
ssg70
(dp512
I0
F5721.683333333333
sI1
F8271.823333333334
sI2
F8610.403333333334
sI3
F8483.163333333334
sI4
F8416.9
sI5
F8749.953333333333
sI6
F8089.5599999999995
sI7
F7850.636666666667
sI8
F8304.203333333333
sI9
F8316.663333333334
sI10
F7867.366666666667
sI11
F7902.263333333333
sI12
F7974.593333333333
sI13
F8183.753333333333
sI14
F8603.456666666667
ssg72
(dp513
I0
F1.30874
sI1
F1.228957
sI2
F1.147131
sI3
F1.15599
sI4
F1.223139
sI5
F1.151541
sI6
F1.21745
sI7
F1.316086
sI8
F1.2260229999999999
sI9
F1.149337
sI10
F1.3123850000000001
sI11
F1.32368
sI12
F1.3199049999999999
sI13
F1.2202790000000001
sI14
F1.153744
ssg74
(dp514
I0
F4913.070000000001
sI1
F7100.320000000001
sI2
F7353.509999999999
sI3
F7362.86
sI4
F7222.3133333333335
sI5
F7520.416666666667
sI6
F6938.376666666666
sI7
F6699.576666666666
sI8
F7144.27
sI9
F7147.73
sI10
F6743.5633333333335
sI11
F6810.706666666667
sI12
F6878.9366666666665
sI13
F6986.876666666666
sI14
F7391.236666666667
ssg76
(dp515
I0
F8070.65
sI1
F11588.603333333333
sI2
F12012.33
sI3
F11898.526666666667
sI4
F11807.766666666666
sI5
F12278.223333333333
sI6
F11377.49
sI7
F10959.9
sI8
F11622.84
sI9
F11645.933333333332
sI10
F10993.869999999999
sI11
F11117.346666666668
sI12
F11182.673333333334
sI13
F11434.846666666668
sI14
F12055.65
ssg78
(dp516
I0
F9.996124
sI1
F1.986181
sI2
F2.759367
sI3
F2.244546
sI4
F2.781898
sI5
F1.968488
sI6
F3.555885
sI7
F3.768453
sI8
F1.989359
sI9
F2.526886
sI10
F3.888334
sI11
F2.130093
sI12
F2.701174
sI13
F3.935912
sI14
F3.469203
ssg80
(dp517
I0
F11.772
sI1
F11.372
sI2
F11.334
sI3
F11.332
sI4
F11.353
sI5
F11.309
sI6
F11.397
sI7
F11.435
sI8
F11.365
sI9
F11.365
sI10
F11.428
sI11
F11.417
sI12
F11.406
sI13
F11.389
sI14
F11.328
ssg82
(dp518
I0
F0.002
sI1
F0.002
sI2
F0.002
sI3
F0.002
sI4
F0.002
sI5
F0.002
sI6
F0.002
sI7
F0.002
sI8
F0.002
sI9
F0.002
sI10
F0.002
sI11
F0.002
sI12
F0.002
sI13
F0.002
sI14
F0.002
ssg84
(dp519
I0
F0.6918955552823768
sI1
Fnan
sI2
Fnan
sI3
Fnan
sI4
Fnan
sI5
Fnan
sI6
Fnan
sI7
Fnan
sI8
Fnan
sI9
Fnan
sI10
Fnan
sI11
Fnan
sI12
Fnan
sI13
Fnan
sI14
Fnan
ssg86
(dp520
I0
F11.400133333333335
sI1
Fnan
sI2
Fnan
sI3
Fnan
sI4
Fnan
sI5
Fnan
sI6
Fnan
sI7
Fnan
sI8
Fnan
sI9
Fnan
sI10
Fnan
sI11
Fnan
sI12
Fnan
sI13
Fnan
sI14
Fnan
ssg88
(dp521
I0
F11.606
sI1
F11.206
sI2
F11.162
sI3
F11.179
sI4
F11.187
sI5
F11.145
sI6
F11.23
sI7
F11.263
sI8
F11.202
sI9
F11.2
sI10
F11.26
sI11
F11.256
sI12
F11.246
sI13
F11.218
sI14
F11.163
ssg90
(dp522
I0
F5.407008
sI1
F1.495677
sI2
F1.20834
sI3
F3.724502
sI4
F3.753184
sI5
F4.155657
sI6
F3.060195
sI7
F2.038807
sI8
F3.306991
sI9
F4.156442
sI10
F3.653846
sI11
F2.909647
sI12
F-3.569603
sI13
F-2.718885
sI14
F3.932974
ssg92
(dp523
I0
F0.10755583267706673
sI1
Fnan
sI2
Fnan
sI3
Fnan
sI4
Fnan
sI5
Fnan
sI6
Fnan
sI7
Fnan
sI8
Fnan
sI9
Fnan
sI10
Fnan
sI11
Fnan
sI12
Fnan
sI13
Fnan
sI14
Fnan
ssg94
(dp524
I0
F0.7124349276167921
sI1
F0.7150218994959492
sI2
F0.7131460103898286
sI3
F0.7224974965275204
sI4
F0.7142083923921285
sI5
F0.7152704474456734
sI6
F0.7128328808593666
sI7
F0.712321693462228
sI8
F0.7170426520877072
sI9
F0.7161122492581543
sI10
F0.7150711750784812
sI11
F0.7161773208458708
sI12
F0.7181542948019725
sI13
F0.7122706683113642
sI14
F0.7155427178845423
ssg96
(dp525
I0
F30.0
sI1
F30.0
sI2
F30.0
sI3
F30.0
sI4
F30.0
sI5
F30.0
sI6
F30.0
sI7
F30.0
sI8
F30.0
sI9
F30.0
sI10
F30.0
sI11
F30.0
sI12
F30.0
sI13
F30.0
sI14
F30.0
ssg98
(dp526
I0
F0.003
sI1
F0.002
sI2
F0.002
sI3
F0.002
sI4
F0.002
sI5
F0.002
sI6
F0.002
sI7
F0.002
sI8
F0.002
sI9
F0.002
sI10
F0.002
sI11
F0.002
sI12
F0.002
sI13
F0.002
sI14
F0.002
ssg100
(dp527
I0
F0.003
sI1
F0.002
sI2
F0.002
sI3
F0.002
sI4
F0.002
sI5
F0.002
sI6
F0.002
sI7
F0.002
sI8
F0.002
sI9
F0.002
sI10
F0.002
sI11
F0.002
sI12
F0.002
sI13
F0.002
sI14
F0.002
ssg102
(dp528
I0
F3.183631
sI1
F-1.890558
sI2
F2.78288
sI3
F2.730757
sI4
F1.590417
sI5
F0.5992245
sI6
F2.123674
sI7
F2.982155
sI8
F-2.073764
sI9
F3.444763
sI10
F3.617346
sI11
F-4.055565
sI12
F-2.32615
sI13
F2.526815
sI14
F2.930674
ssg104
(dp529
I0
S'KIC8462852-20181112at035544_-25-1X1-030-V_cal.fts.mag.1'
p530
sI1
S'KIC8462852-20181112at032928_-25-1X1-030-V_cal.fts.mag.1'
p531
sI2
S'KIC8462852-20181112at025427_-25-1X1-030-V_cal.fts.mag.1'
p532
sI3
S'KIC8462852-20181112at025853_-25-1X1-030-V_cal.fts.mag.1'
p533
sI4
S'KIC8462852-20181112at032719_-25-1X1-030-V_cal.fts.mag.1'
p534
sI5
S'KIC8462852-20181112at025644_-25-1X1-030-V_cal.fts.mag.1'
p535
sI6
S'KIC8462852-20181112at032503_-25-1X1-030-V_cal.fts.mag.1'
p536
sI7
S'KIC8462852-20181112at035800_-25-1X1-030-V_cal.fts.mag.1'
p537
sI8
S'KIC8462852-20181112at032824_-25-1X1-030-V_cal.fts.mag.1'
p538
sI9
S'KIC8462852-20181112at025538_-25-1X1-030-V_cal.fts.mag.1'
p539
sI10
S'KIC8462852-20181112at035656_-25-1X1-030-V_cal.fts.mag.1'
p540
sI11
S'KIC8462852-20181112at040011_-25-1X1-030-V_cal.fts.mag.1'
p541
sI12
S'KIC8462852-20181112at035907_-25-1X1-030-V_cal.fts.mag.1'
p542
sI13
S'KIC8462852-20181112at032614_-25-1X1-030-V_cal.fts.mag.1'
p543
sI14
S'KIC8462852-20181112at025749_-25-1X1-030-V_cal.fts.mag.1'
p544
ssg121
(dp545
I0
F0.0040553053175933105
sI1
Fnan
sI2
Fnan
sI3
Fnan
sI4
Fnan
sI5
Fnan
sI6
Fnan
sI7
Fnan
sI8
Fnan
sI9
Fnan
sI10
Fnan
sI11
Fnan
sI12
Fnan
sI13
Fnan
sI14
Fnan
ssg123
(dp546
I0
F4287.3533333333335
sI1
F6250.053333333333
sI2
F6459.64
sI3
F6371.3566666666675
sI4
F6328.016666666666
sI5
F6612.663333333333
sI6
F6082.833333333333
sI7
F5874.1066666666675
sI8
F6219.070000000001
sI9
F6259.613333333333
sI10
F5887.236666666667
sI11
F5943.740000000001
sI12
F6016.320000000001
sI13
F6158.096666666666
sI14
F6505.12
ssg125
(dp547
I0
F0.10978411716160226
sI1
Fnan
sI2
Fnan
sI3
Fnan
sI4
Fnan
sI5
Fnan
sI6
Fnan
sI7
Fnan
sI8
Fnan
sI9
Fnan
sI10
Fnan
sI11
Fnan
sI12
Fnan
sI13
Fnan
sI14
Fnan
ssg127
(dp548
I0
g469
sI1
g469
sI2
g469
sI3
g469
sI4
g469
sI5
g469
sI6
g469
sI7
g469
sI8
g469
sI9
g469
sI10
g469
sI11
g469
sI12
g469
sI13
g469
sI14
g469
ssg144
(dp549
I0
F0.0025192065164994855
sI1
Fnan
sI2
Fnan
sI3
Fnan
sI4
Fnan
sI5
Fnan
sI6
Fnan
sI7
Fnan
sI8
Fnan
sI9
Fnan
sI10
Fnan
sI11
Fnan
sI12
Fnan
sI13
Fnan
sI14
Fnan
ssg146
(dp550
I0
F3.134104
sI1
F3.764095
sI2
F2.362808
sI3
F3.489939
sI4
F3.133184
sI5
F2.286489
sI6
F4.355245
sI7
F3.679439
sI8
F-2.428164
sI9
F-1.903096
sI10
F-1.431049
sI11
F-3.357099
sI12
F3.739696
sI13
F4.533591
sI14
F3.514427
ssg148
(dp551
I0
F1.5079918179987337
sI1
Fnan
sI2
Fnan
sI3
Fnan
sI4
Fnan
sI5
Fnan
sI6
Fnan
sI7
Fnan
sI8
Fnan
sI9
Fnan
sI10
Fnan
sI11
Fnan
sI12
Fnan
sI13
Fnan
sI14
Fnan
ssg150
(dp552
I0
F2458434.6439699074
sI1
Fnan
sI2
Fnan
sI3
Fnan
sI4
Fnan
sI5
Fnan
sI6
Fnan
sI7
Fnan
sI8
Fnan
sI9
Fnan
sI10
Fnan
sI11
Fnan
sI12
Fnan
sI13
Fnan
sI14
Fnan
ssg152
(dp553
I0
F0.0025192065164994855
sI1
Fnan
sI2
Fnan
sI3
Fnan
sI4
Fnan
sI5
Fnan
sI6
Fnan
sI7
Fnan
sI8
Fnan
sI9
Fnan
sI10
Fnan
sI11
Fnan
sI12
Fnan
sI13
Fnan
sI14
Fnan
ssg154
(dp554
I0
F16.49397
sI1
F3.989009
sI2
F3.821528
sI3
F3.932993
sI4
F3.279722
sI5
F2.562696
sI6
F4.026747
sI7
F5.552676
sI8
F3.517263
sI9
F3.508194
sI10
F4.02013
sI11
F3.743106
sI12
F4.803765
sI13
F4.363031
sI14
F4.491557
ssg156
(dp555
I0
F11.233
sI1
F10.84
sI2
F10.801
sI3
F10.811
sI4
F10.82
sI5
F10.777
sI6
F10.86
sI7
F10.9
sI8
F10.837
sI9
F10.835
sI10
F10.897
sI11
F10.885
sI12
F10.879
sI13
F10.854
sI14
F10.797
ssg158
(dp556
I0
F0.6918955552823768
sI1
Fnan
sI2
Fnan
sI3
Fnan
sI4
Fnan
sI5
Fnan
sI6
Fnan
sI7
Fnan
sI8
Fnan
sI9
Fnan
sI10
Fnan
sI11
Fnan
sI12
Fnan
sI13
Fnan
sI14
Fnan
sss.