(dp0
S'V'
p1
(dp2
S'sigmean'
p3
(dp4
I0
F0.6988887894916533
sI1
Fnan
sI2
Fnan
sI3
Fnan
sI4
Fnan
sI5
Fnan
sI6
Fnan
sI7
Fnan
ssS'ref3flag'
p5
(dp6
I0
S'NoError'
p7
sI1
S'NoError'
p8
sI2
S'NoError'
p9
sI3
S'NoError'
p10
sI4
S'NoError'
p11
sI5
S'NoError'
p12
sI6
S'NoError'
p13
sI7
S'NoError'
p14
ssS'tabbyerr'
p15
(dp16
I0
F0.002
sI1
F0.002
sI2
F0.002
sI3
F0.002
sI4
F0.002
sI5
F0.002
sI6
F0.002
sI7
F0.002
ssS'ref2rel'
p17
(dp18
I0
F0.8873887941878986
sI1
F0.8869805282245846
sI2
F0.8905050278015765
sI3
F0.8882678247124849
sI4
F0.88327935963316
sI5
F0.8892510758646378
sI6
F0.8837235598289152
sI7
F0.8915580256736306
ssS'ref2err'
p19
(dp20
I0
F0.002961594595233948
sI1
Fnan
sI2
Fnan
sI3
Fnan
sI4
Fnan
sI5
Fnan
sI6
Fnan
sI7
Fnan
ssS'ref2mean'
p21
(dp22
I0
F0.887619274490861
sI1
Fnan
sI2
Fnan
sI3
Fnan
sI4
Fnan
sI5
Fnan
sI6
Fnan
sI7
Fnan
ssS'tabbymag'
p23
(dp24
I0
F11.409
sI1
F11.404
sI2
F11.405
sI3
F11.401
sI4
F11.401
sI5
F11.407
sI6
F11.404
sI7
F11.404
ssS'tabbybkg'
p25
(dp26
I0
F102.2894
sI1
F101.4241
sI2
F100.8022
sI3
F101.6646
sI4
F100.0462
sI5
F101.3279
sI6
F101.5425
sI7
F100.9745
ssS'JD'
p27
(dp28
I0
F2458298.76525463
sI1
F2458298.7634722223
sI2
F2458298.750775463
sI3
F2458298.7489930554
sI4
F2458298.748101852
sI5
F2458298.764363426
sI6
F2458298.7625810187
sI7
F2458298.7498842594
ssS'ref3rmsmean'
p29
(dp30
I0
F1.742709
sI1
Fnan
sI2
Fnan
sI3
Fnan
sI4
Fnan
sI5
Fnan
sI6
Fnan
sI7
Fnan
ssS'ref1rmsmean'
p31
(dp32
I0
F1.2441659999999999
sI1
Fnan
sI2
Fnan
sI3
Fnan
sI4
Fnan
sI5
Fnan
sI6
Fnan
sI7
Fnan
ssS'relflux'
p33
(dp34
I0
F0.6998198233855257
sI1
F0.7003591485800386
sI2
F0.6977232286639146
sI3
F0.6962203176543768
sI4
F0.7008282758797896
sI5
F0.7015908748053326
sI6
F0.6960475825593472
sI7
F0.6985210644049014
ssS'sigerr'
p35
(dp36
I0
F0.0019614600752249447
sI1
Fnan
sI2
Fnan
sI3
Fnan
sI4
Fnan
sI5
Fnan
sI6
Fnan
sI7
Fnan
ssS'tabbyrmsmean'
p37
(dp38
I0
F2.3969331250000003
sI1
Fnan
sI2
Fnan
sI3
Fnan
sI4
Fnan
sI5
Fnan
sI6
Fnan
sI7
Fnan
ssS'tabbyflag'
p39
(dp40
I0
g7
sI1
g8
sI2
g9
sI3
g10
sI4
g11
sI5
g12
sI6
g13
sI7
g14
ssS'ref1err'
p41
(dp42
I0
F0.0016211175965859304
sI1
Fnan
sI2
Fnan
sI3
Fnan
sI4
Fnan
sI5
Fnan
sI6
Fnan
sI7
Fnan
ssS'ref2magmeanerr'
p43
(dp44
I0
F0.005153015760558958
sI1
Fnan
sI2
Fnan
sI3
Fnan
sI4
Fnan
sI5
Fnan
sI6
Fnan
sI7
Fnan
ssS'ref2rmsmean'
p45
(dp46
I0
F2.0584561249999997
sI1
Fnan
sI2
Fnan
sI3
Fnan
sI4
Fnan
sI5
Fnan
sI6
Fnan
sI7
Fnan
ssS'ref3rel'
p47
(dp48
I0
F1.4970515028816693
sI1
F1.4975295222128466
sI2
F1.4958389058173454
sI3
F1.499729840471386
sI4
F1.5051488727150633
sI5
F1.4989867095504363
sI6
F1.5005415684923702
sI7
F1.4886175523783733
ssS'ref1flag'
p49
(dp50
I0
g7
sI1
g8
sI2
g9
sI3
g10
sI4
g11
sI5
g12
sI6
g13
sI7
g14
ssS'ref2bkg'
p51
(dp52
I0
F103.1646
sI1
F102.7072
sI2
F100.6954
sI3
F102.5941
sI4
F102.7035
sI5
F102.1433
sI6
F101.8444
sI7
F101.8988
ssS'ref3magmean'
p53
(dp54
I0
F10.743375
sI1
Fnan
sI2
Fnan
sI3
Fnan
sI4
Fnan
sI5
Fnan
sI6
Fnan
sI7
Fnan
ssS'ref1mean'
p55
(dp56
I0
F0.7187968647493383
sI1
Fnan
sI2
Fnan
sI3
Fnan
sI4
Fnan
sI5
Fnan
sI6
Fnan
sI7
Fnan
ssS'ref1rms'
p57
(dp58
I0
F-2.023681
sI1
F-4.354794
sI2
F3.085505
sI3
F1.213439
sI4
F5.916147
sI5
F5.238419
sI6
F4.064543
sI7
F-3.18625
ssS'ref2magmean'
p59
(dp60
I0
F11.103375
sI1
Fnan
sI2
Fnan
sI3
Fnan
sI4
Fnan
sI5
Fnan
sI6
Fnan
sI7
Fnan
ssS'ref2flag'
p61
(dp62
I0
g7
sI1
g8
sI2
g9
sI3
g10
sI4
g11
sI5
g12
sI6
g13
sI7
g14
ssS'ref2'
p63
(dp64
I0
F9041.884444444444
sI1
F9071.602222222222
sI2
F9121.286666666667
sI3
F9158.802222222223
sI4
F9061.055555555555
sI5
F9044.933333333332
sI6
F9100.76
sI7
F9128.775555555556
ssS'airmass'
p65
(dp66
I0
F1.180283
sI1
F1.1862469999999998
sI2
F1.232673
sI3
F1.2397559999999999
sI4
F1.243373
sI5
F1.183266
sI6
F1.189262
sI7
F1.236168
ssS'ref1'
p67
(dp68
I0
F7784.013333333332
sI1
F7812.671111111112
sI2
F7817.1
sI3
F7859.948888888889
sI4
F7815.777777777777
sI5
F7752.926666666667
sI6
F7866.417777777778
sI7
F7844.726666666667
ssS'ref3'
p69
(dp70
I0
F12594.61777777778
sI1
F12642.348888888888
sI2
F12668.548888888889
sI3
F12761.764444444445
sI4
F12701.073333333334
sI5
F12589.884444444446
sI6
F12729.977777777778
sI7
F12633.526666666665
ssS'ref1bkg'
p71
(dp72
I0
F103.063
sI1
F102.0049
sI2
F101.7159
sI3
F101.3447
sI4
F100.7586
sI5
F100.9102
sI6
F101.0229
sI7
F100.3884
ssS'ref1mag'
p73
(dp74
I0
F11.272
sI1
F11.268
sI2
F11.267
sI3
F11.261
sI4
F11.268
sI5
F11.276
sI6
F11.261
sI7
F11.264
ssS'ref3magerr'
p75
(dp76
I0
F0.001
sI1
F0.001
sI2
F0.001
sI3
F0.001
sI4
F0.001
sI5
F0.001
sI6
F0.001
sI7
F0.001
ssS'tabbymagmean'
p77
(dp78
I0
F0.6988887894916533
sI1
Fnan
sI2
Fnan
sI3
Fnan
sI4
Fnan
sI5
Fnan
sI6
Fnan
sI7
Fnan
ssS'ref1magmean'
p79
(dp80
I0
F11.267125
sI1
Fnan
sI2
Fnan
sI3
Fnan
sI4
Fnan
sI5
Fnan
sI6
Fnan
sI7
Fnan
ssS'ref2mag'
p81
(dp82
I0
F11.109
sI1
F11.106
sI2
F11.1
sI3
F11.095
sI4
F11.107
sI5
F11.109
sI6
F11.102
sI7
F11.099
ssS'ref3rms'
p83
(dp84
I0
F-3.805853
sI1
F5.968292
sI2
F-4.737493
sI3
F5.257754
sI4
F4.513613
sI5
F-2.817466
sI6
F5.806082
sI7
F3.756743
ssS'ref3magmeanerr'
p85
(dp86
I0
F0.005449442959737294
sI1
Fnan
sI2
Fnan
sI3
Fnan
sI4
Fnan
sI5
Fnan
sI6
Fnan
sI7
Fnan
ssS'ref1rel'
p87
(dp88
I0
F0.7195260355288479
sI1
F0.7195992172160081
sI2
F0.7174996782393749
sI3
F0.7171300823022114
sI4
F0.7182916540640734
sI5
F0.71670829366819
sI6
F0.7206735620071678
sI7
F0.7209463949688331
ssS'exposure'
p89
(dp90
I0
F45.0
sI1
F45.0
sI2
F45.0
sI3
F45.0
sI4
F45.0
sI5
F45.0
sI6
F45.0
sI7
F45.0
ssS'ref1magerr'
p91
(dp92
I0
F0.002
sI1
F0.002
sI2
F0.002
sI3
F0.002
sI4
F0.002
sI5
F0.002
sI6
F0.002
sI7
F0.002
ssS'ref2magerr'
p93
(dp94
I0
F0.002
sI1
F0.002
sI2
F0.002
sI3
F0.002
sI4
F0.002
sI5
F0.002
sI6
F0.002
sI7
F0.002
ssS'ref2rms'
p95
(dp96
I0
F-4.317445
sI1
F4.516671
sI2
F4.311062
sI3
F4.58832
sI4
F-4.859633
sI5
F4.384864
sI6
F4.159647
sI7
F3.684163
ssS'name'
p97
(dp98
I0
S'KIC8462852-20180629at062158_-25-1-045-V_cal.fts.mag.1'
p99
sI1
S'KIC8462852-20180629at061924_-25-1-045-V_cal.fts.mag.1'
p100
sI2
S'KIC8462852-20180629at060107_-25-1-045-V_cal.fts.mag.1'
p101
sI3
S'KIC8462852-20180629at055833_-25-1-045-V_cal.fts.mag.1'
p102
sI4
S'KIC8462852-20180629at055714_-25-1-045-V_cal.fts.mag.1'
p103
sI5
S'KIC8462852-20180629at062041_-25-1-045-V_cal.fts.mag.1'
p104
sI6
S'KIC8462852-20180629at061806_-25-1-045-V_cal.fts.mag.1'
p105
sI7
S'KIC8462852-20180629at055950_-25-1-045-V_cal.fts.mag.1'
p106
ssS'ref3err'
p107
(dp108
I0
F0.004710398326977888
sI1
Fnan
sI2
Fnan
sI3
Fnan
sI4
Fnan
sI5
Fnan
sI6
Fnan
sI7
Fnan
ssS'tabby'
p109
(dp110
I0
F6863.02
sI1
F6893.08
sI2
F6885.815555555556
sI3
F6911.266666666666
sI4
F6909.677777777778
sI5
F6872.724444444444
sI6
F6890.211111111111
sI7
F6893.711111111111
ssS'ref1magmeanerr'
p111
(dp112
I0
F0.005194433834129214
sI1
Fnan
sI2
Fnan
sI3
Fnan
sI4
Fnan
sI5
Fnan
sI6
Fnan
sI7
Fnan
ssS'filter'
p113
(dp114
I0
g1
sI1
g1
sI2
g1
sI3
g1
sI4
g1
sI5
g1
sI6
g1
sI7
g1
ssS'tabbymagerr'
p115
(dp116
I0
F0.002096889022665024
sI1
Fnan
sI2
Fnan
sI3
Fnan
sI4
Fnan
sI5
Fnan
sI6
Fnan
sI7
Fnan
ssS'tabbyrms'
p117
(dp118
I0
F3.452244
sI1
F-2.724363
sI2
F2.268092
sI3
F-3.505995
sI4
F5.165883
sI5
F5.567471
sI6
F5.551877
sI7
F3.400256
ssS'ref3mean'
p119
(dp120
I0
F1.4979305593149363
sI1
Fnan
sI2
Fnan
sI3
Fnan
sI4
Fnan
sI5
Fnan
sI6
Fnan
sI7
Fnan
ssS'median_JD'
p121
(dp122
I0
F2458298.756678241
sI1
Fnan
sI2
Fnan
sI3
Fnan
sI4
Fnan
sI5
Fnan
sI6
Fnan
sI7
Fnan
ssS'error'
p123
(dp124
I0
F0.002096889022665024
sI1
Fnan
sI2
Fnan
sI3
Fnan
sI4
Fnan
sI5
Fnan
sI6
Fnan
sI7
Fnan
ssS'ref3bkg'
p125
(dp126
I0
F104.9322
sI1
F104.2624
sI2
F103.5683
sI3
F102.4685
sI4
F102.5673
sI5
F104.3593
sI6
F102.4514
sI7
F103.9921
ssS'ref3mag'
p127
(dp128
I0
F10.75
sI1
F10.745
sI2
F10.743
sI3
F10.735
sI4
F10.74
sI5
F10.75
sI6
F10.738
sI7
F10.746
ssS'mean'
p129
(dp130
I0
F0.6988887894916533
sI1
Fnan
sI2
Fnan
sI3
Fnan
sI4
Fnan
sI5
Fnan
sI6
Fnan
sI7
Fnan
sss.