(dp0
S'r'
p1
(dp2
S'sigmean'
p3
(dp4
I0
F0.5488430376193157
sI1
Fnan
sI2
Fnan
sI3
Fnan
sI4
Fnan
sI5
Fnan
sI6
Fnan
sI7
Fnan
sI8
Fnan
sI9
Fnan
sI10
Fnan
ssS'ref3flag'
p5
(dp6
I0
S'NoError'
p7
sI1
S'NoError'
p8
sI2
S'NoError'
p9
sI3
S'NoError'
p10
sI4
S'NoError'
p11
sI5
S'NoError'
p12
sI6
S'NoError'
p13
sI7
S'NoError'
p14
sI8
S'NoError'
p15
sI9
S'NoError'
p16
sI10
S'NoError'
p17
ssS'tabbyerr'
p18
(dp19
I0
F0.002
sI1
F0.002
sI2
F0.002
sI3
F0.002
sI4
F0.002
sI5
F0.002
sI6
F0.002
sI7
F0.002
sI8
F0.002
sI9
F0.002
sI10
F0.002
ssS'ref2rel'
p20
(dp21
I0
F0.8987331757149452
sI1
F0.8962910834329932
sI2
F0.8919967116183423
sI3
F0.8918379862848388
sI4
F0.8972872309749989
sI5
F0.8988663043519153
sI6
F0.8953030161456346
sI7
F0.89757498007087
sI8
F0.8965789576213965
sI9
F0.8954420683743993
sI10
F0.8937525141978941
ssS'ref2err'
p22
(dp23
I0
F0.002427844122935704
sI1
Fnan
sI2
Fnan
sI3
Fnan
sI4
Fnan
sI5
Fnan
sI6
Fnan
sI7
Fnan
sI8
Fnan
sI9
Fnan
sI10
Fnan
ssS'ref2mean'
p24
(dp25
I0
F0.8957876389807481
sI1
Fnan
sI2
Fnan
sI3
Fnan
sI4
Fnan
sI5
Fnan
sI6
Fnan
sI7
Fnan
sI8
Fnan
sI9
Fnan
sI10
Fnan
ssS'tabbymag'
p26
(dp27
I0
F11.168
sI1
F11.166
sI2
F11.179
sI3
F11.177
sI4
F11.159
sI5
F11.16
sI6
F11.173
sI7
F11.188
sI8
F11.163
sI9
F11.17
sI10
F11.171
ssS'tabbybkg'
p28
(dp29
I0
F13.00328
sI1
F11.65139
sI2
F11.8612
sI3
F12.93615
sI4
F11.74392
sI5
F12.15751
sI6
F12.68501
sI7
F12.75992
sI8
F11.94048
sI9
F12.50459
sI10
F12.40287
ssS'JD'
p30
(dp31
I0
F2458282.813113426
sI1
F2458282.833425926
sI2
F2458282.8114467594
sI3
F2458282.8122685184
sI4
F2458282.8215972222
sI5
F2458282.8232638887
sI6
F2458282.8139467593
sI7
F2458282.831759259
sI8
F2458282.824085648
sI9
F2458282.8224305557
sI10
F2458282.8325925926
ssS'ref3rmsmean'
p32
(dp33
I0
F1.7981312727272725
sI1
Fnan
sI2
Fnan
sI3
Fnan
sI4
Fnan
sI5
Fnan
sI6
Fnan
sI7
Fnan
sI8
Fnan
sI9
Fnan
sI10
Fnan
ssS'ref1rmsmean'
p34
(dp35
I0
F1.2479216363636363
sI1
Fnan
sI2
Fnan
sI3
Fnan
sI4
Fnan
sI5
Fnan
sI6
Fnan
sI7
Fnan
sI8
Fnan
sI9
Fnan
sI10
Fnan
ssS'relflux'
p36
(dp37
I0
F0.5484220412075111
sI1
F0.5505069198641184
sI2
F0.5497853340417012
sI3
F0.5486704440751233
sI4
F0.5508676169890658
sI5
F0.5499978150633777
sI6
F0.547609621909832
sI7
F0.5486259631668161
sI8
F0.5494724945779561
sI9
F0.5476220584336089
sI10
F0.5477176838531133
ssS'sigerr'
p38
(dp39
I0
F0.0009959330846959053
sI1
Fnan
sI2
Fnan
sI3
Fnan
sI4
Fnan
sI5
Fnan
sI6
Fnan
sI7
Fnan
sI8
Fnan
sI9
Fnan
sI10
Fnan
ssS'tabbyrmsmean'
p40
(dp41
I0
F2.061854818181818
sI1
Fnan
sI2
Fnan
sI3
Fnan
sI4
Fnan
sI5
Fnan
sI6
Fnan
sI7
Fnan
sI8
Fnan
sI9
Fnan
sI10
Fnan
ssS'tabbyflag'
p42
(dp43
I0
g7
sI1
g8
sI2
g9
sI3
g10
sI4
g11
sI5
g12
sI6
g13
sI7
g14
sI8
g15
sI9
g16
sI10
g17
ssS'ref1err'
p44
(dp45
I0
F0.0017316637390973986
sI1
Fnan
sI2
Fnan
sI3
Fnan
sI4
Fnan
sI5
Fnan
sI6
Fnan
sI7
Fnan
sI8
Fnan
sI9
Fnan
sI10
Fnan
ssS'ref2magmeanerr'
p46
(dp47
I0
F0.008852323783257962
sI1
Fnan
sI2
Fnan
sI3
Fnan
sI4
Fnan
sI5
Fnan
sI6
Fnan
sI7
Fnan
sI8
Fnan
sI9
Fnan
sI10
Fnan
ssS'ref2rmsmean'
p48
(dp49
I0
F0.9472017272727271
sI1
Fnan
sI2
Fnan
sI3
Fnan
sI4
Fnan
sI5
Fnan
sI6
Fnan
sI7
Fnan
sI8
Fnan
sI9
Fnan
sI10
Fnan
ssS'ref3rel'
p50
(dp51
I0
F1.4898948641491474
sI1
F1.4964735328714875
sI2
F1.4993232895252342
sI3
F1.497055355797756
sI4
F1.4923424793685016
sI5
F1.4926021044734155
sI6
F1.491469638216074
sI7
F1.4939535282527492
sI8
F1.4897333618326385
sI9
F1.4890021711592374
sI10
F1.497237675527546
ssS'ref1flag'
p52
(dp53
I0
g7
sI1
g8
sI2
g9
sI3
g10
sI4
g11
sI5
g12
sI6
g13
sI7
g14
sI8
g15
sI9
g16
sI10
g17
ssS'ref2bkg'
p54
(dp55
I0
F13.85724
sI1
F14.04384
sI2
F14.38089
sI3
F14.53088
sI4
F12.86664
sI5
F13.41629
sI6
F14.13445
sI7
F14.98293
sI8
F14.63447
sI9
F13.95837
sI10
F14.48939
ssS'ref3magmean'
p56
(dp57
I0
F10.249181818181818
sI1
Fnan
sI2
Fnan
sI3
Fnan
sI4
Fnan
sI5
Fnan
sI6
Fnan
sI7
Fnan
sI8
Fnan
sI9
Fnan
sI10
Fnan
ssS'ref1mean'
p58
(dp59
I0
F0.7142294864547579
sI1
Fnan
sI2
Fnan
sI3
Fnan
sI4
Fnan
sI5
Fnan
sI6
Fnan
sI7
Fnan
sI8
Fnan
sI9
Fnan
sI10
Fnan
ssS'ref1rms'
p60
(dp61
I0
F3.32542
sI1
F3.554704
sI2
F-3.172019
sI3
F-1.988221
sI4
F4.09081
sI5
F3.6426
sI6
F-3.139138
sI7
F2.797837
sI8
F2.952193
sI9
F-2.892843
sI10
F4.555795
ssS'ref2magmean'
p62
(dp63
I0
F10.600181818181817
sI1
Fnan
sI2
Fnan
sI3
Fnan
sI4
Fnan
sI5
Fnan
sI6
Fnan
sI7
Fnan
sI8
Fnan
sI9
Fnan
sI10
Fnan
ssS'ref2flag'
p64
(dp65
I0
g7
sI1
g8
sI2
g9
sI3
g10
sI4
g11
sI5
g12
sI6
g13
sI7
g14
sI8
g15
sI9
g16
sI10
g17
ssS'ref2'
p66
(dp67
I0
F14527.317777777778
sI1
F14475.368888888888
sI2
F14276.56
sI3
F14325.595555555557
sI4
F14573.586666666668
sI5
F14601.468888888889
sI6
F14447.08
sI7
F14249.631111111112
sI8
F14548.720000000001
sI9
F14488.951111111111
sI10
F14448.868888888888
ssS'airmass'
p68
(dp69
I0
F1.1665969999999999
sI1
F1.114582
sI2
F1.171907
sI3
F1.169241
sI4
F1.1413739999999999
sI5
F1.1367479999999999
sI6
F1.164005
sI7
F1.114573
sI8
F1.134478
sI9
F1.13905
sI10
F1.112539
ssS'ref1'
p70
(dp71
I0
F12324.924444444445
sI1
F12280.713333333333
sI2
F12178.213333333333
sI3
F12240.526666666665
sI4
F12375.22888888889
sI5
F12364.157777777777
sI6
F12315.364444444445
sI7
F12082.162222222223
sI8
F12388.90888888889
sI9
F12367.157777777777
sI10
F12304.766666666666
ssS'ref3'
p72
(dp73
I0
F20003.50888888889
sI1
F20019.884444444444
sI2
F19832.12888888889
sI3
F19885.477777777778
sI4
F20108.431111111113
sI5
F20124.475555555557
sI6
F19957.68666666667
sI7
F19669.237777777777
sI8
F20064.942222222224
sI9
F19994.402222222223
sI10
F20028.275555555556
ssS'ref1bkg'
p74
(dp75
I0
F13.62247
sI1
F12.76069
sI2
F13.43277
sI3
F13.84833
sI4
F12.14371
sI5
F13.64967
sI6
F13.67305
sI7
F14.36045
sI8
F13.5111
sI9
F13.83908
sI10
F13.47488
ssS'ref1mag'
p76
(dp77
I0
F10.773
sI1
F10.777
sI2
F10.786
sI3
F10.781
sI4
F10.769
sI5
F10.77
sI6
F10.774
sI7
F10.795
sI8
F10.767
sI9
F10.769
sI10
F10.775
ssS'ref3magerr'
p78
(dp79
I0
F0.001
sI1
F0.001
sI2
F0.001
sI3
F0.001
sI4
F0.001
sI5
F0.001
sI6
F0.001
sI7
F0.001
sI8
F0.001
sI9
F0.001
sI10
F0.001
ssS'tabbymagmean'
p80
(dp81
I0
F0.5490270902892931
sI1
Fnan
sI2
Fnan
sI3
Fnan
sI4
Fnan
sI5
Fnan
sI6
Fnan
sI7
Fnan
sI8
Fnan
sI9
Fnan
sI10
Fnan
ssS'ref1magmean'
p82
(dp83
I0
F10.776
sI1
Fnan
sI2
Fnan
sI3
Fnan
sI4
Fnan
sI5
Fnan
sI6
Fnan
sI7
Fnan
sI8
Fnan
sI9
Fnan
sI10
Fnan
ssS'ref2mag'
p84
(dp85
I0
F10.595
sI1
F10.598
sI2
F10.613
sI3
F10.61
sI4
F10.591
sI5
F10.589
sI6
F10.601
sI7
F10.615
sI8
F10.593
sI9
F10.597
sI10
F10.6
ssS'ref3rms'
p86
(dp87
I0
F-2.293471
sI1
F-2.967017
sI2
F3.050764
sI3
F1.997007
sI4
F1.773239
sI5
F2.556757
sI6
F2.748784
sI7
F3.957123
sI8
F1.683679
sI9
F3.536685
sI10
F3.735894
ssS'ref3magmeanerr'
p88
(dp89
I0
F0.007345994579608308
sI1
Fnan
sI2
Fnan
sI3
Fnan
sI4
Fnan
sI5
Fnan
sI6
Fnan
sI7
Fnan
sI8
Fnan
sI9
Fnan
sI10
Fnan
ssS'ref1rel'
p90
(dp91
I0
F0.7138505291761204
sI1
F0.7120233740371622
sI2
F0.7140827589711582
sI3
F0.7155885784349355
sI4
F0.7136394986117687
sI5
F0.7120991509710158
sI6
F0.7159103599662708
sI7
F0.7124153969756986
sI8
F0.7158392434381081
sI9
F0.7172827803740922
sI10
F0.7137926800460079
ssS'exposure'
p92
(dp93
I0
F45.0
sI1
F45.0
sI2
F45.0
sI3
F45.0
sI4
F45.0
sI5
F45.0
sI6
F45.0
sI7
F45.0
sI8
F45.0
sI9
F45.0
sI10
F45.0
ssS'ref1magerr'
p94
(dp95
I0
F0.001
sI1
F0.001
sI2
F0.001
sI3
F0.001
sI4
F0.001
sI5
F0.001
sI6
F0.001
sI7
F0.001
sI8
F0.001
sI9
F0.001
sI10
F0.001
ssS'ref2magerr'
p96
(dp97
I0
F0.001
sI1
F0.001
sI2
F0.001
sI3
F0.001
sI4
F0.001
sI5
F0.001
sI6
F0.001
sI7
F0.001
sI8
F0.001
sI9
F0.001
sI10
F0.001
ssS'ref2rms'
p98
(dp99
I0
F2.227808
sI1
F3.434996
sI2
F-3.425447
sI3
F2.706722
sI4
F3.681086
sI5
F-2.45876
sI6
F2.710031
sI7
F3.79491
sI8
F3.458035
sI9
F-2.471913
sI10
F-3.238249
ssS'name'
p100
(dp101
I0
S"KIC8462852-20180613at073053_-25-1-045-r'_cal.fts.mag.1"
p102
sI1
S"KIC8462852-20180613at080008_-25-1-045-r'_cal.fts.mag.1"
p103
sI2
S"KIC8462852-20180613at072827_-25-1-045-r'_cal.fts.mag.1"
p104
sI3
S"KIC8462852-20180613at072940_-25-1-045-r'_cal.fts.mag.1"
p105
sI4
S"KIC8462852-20180613at074304_-25-1-045-r'_cal.fts.mag.1"
p106
sI5
S"KIC8462852-20180613at074530_-25-1-045-r'_cal.fts.mag.1"
p107
sI6
S"KIC8462852-20180613at073205_-25-1-045-r'_cal.fts.mag.1"
p108
sI7
S"KIC8462852-20180613at075743_-25-1-045-r'_cal.fts.mag.1"
p109
sI8
S"KIC8462852-20180613at074641_-25-1-045-r'_cal.fts.mag.1"
p110
sI9
S"KIC8462852-20180613at074418_-25-1-045-r'_cal.fts.mag.1"
p111
sI10
S"KIC8462852-20180613at075856_-25-1-045-r'_cal.fts.mag.1"
p112
ssS'ref3err'
p113
(dp114
I0
F0.0035102863065361784
sI1
Fnan
sI2
Fnan
sI3
Fnan
sI4
Fnan
sI5
Fnan
sI6
Fnan
sI7
Fnan
sI8
Fnan
sI9
Fnan
sI10
Fnan
ssS'tabby'
p115
(dp116
I0
F8565.575555555555
sI1
F8583.497777777779
sI2
F8482.62
sI3
F8495.539999999999
sI4
F8640.771111111111
sI5
F8633.15111111111
sI6
F8528.131111111112
sI7
F8412.453333333335
sI8
F8608.873333333333
sI9
F8552.124444444444
sI10
F8541.093333333334
ssS'ref1magmeanerr'
p117
(dp118
I0
F0.008461678320522527
sI1
Fnan
sI2
Fnan
sI3
Fnan
sI4
Fnan
sI5
Fnan
sI6
Fnan
sI7
Fnan
sI8
Fnan
sI9
Fnan
sI10
Fnan
ssS'filter'
p119
(dp120
I0
S"r'"
p121
sI1
S"r'"
p122
sI2
S"r'"
p123
sI3
S"r'"
p124
sI4
S"r'"
p125
sI5
S"r'"
p126
sI6
S"r'"
p127
sI7
S"r'"
p128
sI8
S"r'"
p129
sI9
S"r'"
p130
sI10
S"r'"
p131
ssS'tabbymagerr'
p132
(dp133
I0
F0.0011681232588110306
sI1
Fnan
sI2
Fnan
sI3
Fnan
sI4
Fnan
sI5
Fnan
sI6
Fnan
sI7
Fnan
sI8
Fnan
sI9
Fnan
sI10
Fnan
ssS'tabbyrms'
p134
(dp135
I0
F-1.77772
sI1
F4.160978
sI2
F4.744253
sI3
F1.829886
sI4
F3.055296
sI5
F4.077116
sI6
F2.461862
sI7
F4.236959
sI8
F-2.67872
sI9
F-2.474053
sI10
F5.044546
ssS'ref3mean'
p136
(dp137
I0
F1.4935534546521623
sI1
Fnan
sI2
Fnan
sI3
Fnan
sI4
Fnan
sI5
Fnan
sI6
Fnan
sI7
Fnan
sI8
Fnan
sI9
Fnan
sI10
Fnan
ssS'median_JD'
p138
(dp139
I0
F2458282.8224305557
sI1
Fnan
sI2
Fnan
sI3
Fnan
sI4
Fnan
sI5
Fnan
sI6
Fnan
sI7
Fnan
sI8
Fnan
sI9
Fnan
sI10
Fnan
ssS'error'
p140
(dp141
I0
F0.0011681232588110306
sI1
Fnan
sI2
Fnan
sI3
Fnan
sI4
Fnan
sI5
Fnan
sI6
Fnan
sI7
Fnan
sI8
Fnan
sI9
Fnan
sI10
Fnan
ssS'ref3bkg'
p142
(dp143
I0
F16.50786
sI1
F15.90852
sI2
F16.74496
sI3
F15.91503
sI4
F15.83265
sI5
F15.71631
sI6
F16.33486
sI7
F18.60035
sI8
F15.92508
sI9
F15.18695
sI10
F16.3128
ssS'ref3mag'
p144
(dp145
I0
F10.247
sI1
F10.246
sI2
F10.257
sI3
F10.254
sI4
F10.242
sI5
F10.241
sI6
F10.25
sI7
F10.266
sI8
F10.244
sI9
F10.248
sI10
F10.246
ssS'mean'
p146
(dp147
I0
F0.5490270902892931
sI1
Fnan
sI2
Fnan
sI3
Fnan
sI4
Fnan
sI5
Fnan
sI6
Fnan
sI7
Fnan
sI8
Fnan
sI9
Fnan
sI10
Fnan
sssS'z'
p148
(dp149
g3
(dp150
I0
F0.3763000416759923
sI1
Fnan
sI2
Fnan
sI3
Fnan
sI4
Fnan
sI5
Fnan
sI6
Fnan
sI7
Fnan
sI8
Fnan
sI9
Fnan
ssg5
(dp151
I0
S'NoError'
p152
sI1
S'NoError'
p153
sI2
S'NoError'
p154
sI3
S'NoError'
p155
sI4
S'NoError'
p156
sI5
S'NoError'
p157
sI6
S'NoError'
p158
sI7
S'NoError'
p159
sI8
S'NoError'
p160
sI9
S'NoError'
p161
ssg18
(dp162
I0
F0.006
sI1
F0.006
sI2
F0.007
sI3
F0.007
sI4
F0.006
sI5
F0.007
sI6
F0.007
sI7
F0.007
sI8
F0.007
sI9
F0.006
ssg20
(dp163
I0
F0.9118391927083332
sI1
F0.9118299205230016
sI2
F0.9182229073850536
sI3
F0.9205890844166298
sI4
F0.9174646172279182
sI5
F0.9189785352297251
sI6
F0.9246884512103712
sI7
F0.9228657703283566
sI8
F0.9159806905873876
sI9
F0.9195305425123306
ssg22
(dp164
I0
F0.004196003586705506
sI1
Fnan
sI2
Fnan
sI3
Fnan
sI4
Fnan
sI5
Fnan
sI6
Fnan
sI7
Fnan
sI8
Fnan
sI9
Fnan
ssg24
(dp165
I0
F0.9181989712129107
sI1
Fnan
sI2
Fnan
sI3
Fnan
sI4
Fnan
sI5
Fnan
sI6
Fnan
sI7
Fnan
sI8
Fnan
sI9
Fnan
ssg26
(dp166
I0
F13.253
sI1
F13.241
sI2
F13.259
sI3
F13.275
sI4
F13.258
sI5
F13.256
sI6
F13.295
sI7
F13.269
sI8
F13.277
sI9
F13.272
ssg28
(dp167
I0
F8.019734
sI1
F7.975122
sI2
F9.017347
sI3
F9.12536
sI4
F8.708037
sI5
F8.211093
sI6
F9.306566
sI7
F9.525982
sI8
F8.378011
sI9
F8.863945
ssg30
(dp168
I0
F2458282.833449074
sI1
F2458282.825787037
sI2
F2458282.814803241
sI3
F2458282.8172916668
sI4
F2458282.826608796
sI5
F2458282.8164583333
sI6
F2458282.8249421297
sI7
F2458282.8156365743
sI8
F2458282.8342708335
sI9
F2458282.8274421296
ssg32
(dp169
I0
F2.71361528
sI1
Fnan
sI2
Fnan
sI3
Fnan
sI4
Fnan
sI5
Fnan
sI6
Fnan
sI7
Fnan
sI8
Fnan
sI9
Fnan
ssg34
(dp170
I0
F1.1281702
sI1
Fnan
sI2
Fnan
sI3
Fnan
sI4
Fnan
sI5
Fnan
sI6
Fnan
sI7
Fnan
sI8
Fnan
sI9
Fnan
ssg36
(dp171
I0
F0.37906622233003956
sI1
F0.3822892268330792
sI2
F0.37322299492969335
sI3
F0.3784211891713619
sI4
F0.3766503845110834
sI5
F0.37981817924431
sI6
F0.36883154691014963
sI7
F0.3730085968464674
sI8
F0.3752766209700255
sI9
F0.3749361454049574
ssg38
(dp172
I0
F0.002445927300736512
sI1
Fnan
sI2
Fnan
sI3
Fnan
sI4
Fnan
sI5
Fnan
sI6
Fnan
sI7
Fnan
sI8
Fnan
sI9
Fnan
ssg40
(dp173
I0
F1.3995703000000002
sI1
Fnan
sI2
Fnan
sI3
Fnan
sI4
Fnan
sI5
Fnan
sI6
Fnan
sI7
Fnan
sI8
Fnan
sI9
Fnan
ssg42
(dp174
I0
g152
sI1
g153
sI2
g154
sI3
g155
sI4
g156
sI5
g157
sI6
g158
sI7
g159
sI8
g160
sI9
g161
ssg44
(dp175
I0
F0.003960730466060834
sI1
Fnan
sI2
Fnan
sI3
Fnan
sI4
Fnan
sI5
Fnan
sI6
Fnan
sI7
Fnan
sI8
Fnan
sI9
Fnan
ssg46
(dp176
I0
F0.008303279138053895
sI1
Fnan
sI2
Fnan
sI3
Fnan
sI4
Fnan
sI5
Fnan
sI6
Fnan
sI7
Fnan
sI8
Fnan
sI9
Fnan
ssg48
(dp177
I0
F2.0296418
sI1
Fnan
sI2
Fnan
sI3
Fnan
sI4
Fnan
sI5
Fnan
sI6
Fnan
sI7
Fnan
sI8
Fnan
sI9
Fnan
ssg50
(dp178
I0
F1.5038659304183446
sI1
F1.5065919502022407
sI2
F1.5024468238612652
sI3
F1.4996797616964699
sI4
F1.4964581735147702
sI5
F1.4990056062656831
sI6
F1.5000777866318624
sI7
F1.4867946872559201
sI8
F1.4982588081030745
sI9
F1.4828718926030278
ssg52
(dp179
I0
g152
sI1
g153
sI2
g154
sI3
g155
sI4
g156
sI5
g157
sI6
g158
sI7
g159
sI8
g160
sI9
g161
ssg54
(dp180
I0
F9.62177
sI1
F9.336952
sI2
F8.567106
sI3
F9.955902
sI4
F10.05838
sI5
F9.804788
sI6
F9.197042
sI7
F9.213184
sI8
F9.752267
sI9
F9.418987
ssg56
(dp181
I0
F11.9319
sI1
Fnan
sI2
Fnan
sI3
Fnan
sI4
Fnan
sI5
Fnan
sI6
Fnan
sI7
Fnan
sI8
Fnan
sI9
Fnan
ssg58
(dp182
I0
F0.6924390057460664
sI1
Fnan
sI2
Fnan
sI3
Fnan
sI4
Fnan
sI5
Fnan
sI6
Fnan
sI7
Fnan
sI8
Fnan
sI9
Fnan
ssg60
(dp183
I0
F1.463976
sI1
F-2.681437
sI2
F4.142672
sI3
F2.949132
sI4
F-3.750929
sI5
F3.018659
sI6
F3.94993
sI7
F-3.126611
sI8
F2.312251
sI9
F3.004059
ssg62
(dp184
I0
F12.2665
sI1
Fnan
sI2
Fnan
sI3
Fnan
sI4
Fnan
sI5
Fnan
sI6
Fnan
sI7
Fnan
sI8
Fnan
sI9
Fnan
ssg64
(dp185
I0
g152
sI1
g153
sI2
g154
sI3
g155
sI4
g156
sI5
g157
sI6
g158
sI7
g159
sI8
g160
sI9
g161
ssg66
(dp186
I0
F3112.411111111111
sI1
F3118.0733333333333
sI2
F3156.804444444445
sI3
F3075.3444444444444
sI4
F3131.011111111111
sI5
F3113.5288888888886
sI6
F3106.051111111111
sI7
F3140.1133333333337
sI8
F3084.037777777778
sI9
F3108.253333333333
ssg68
(dp187
I0
F1.110492
sI1
F1.129931
sI2
F1.161375
sI3
F1.153822
sI4
F1.127716
sI5
F1.1563219999999998
sI6
F1.132149
sI7
F1.158842
sI8
F1.108494
sI9
F1.125513
ssg70
(dp188
I0
F2560.7955555555554
sI1
F2561.0755555555556
sI2
F2572.164444444444
sI3
F2500.3644444444444
sI4
F2564.104444444444
sI5
F2539.2733333333335
sI6
F2507.5955555555556
sI7
F2564.4088888888887
sI8
F2528.9755555555553
sI9
F2558.78
ssg72
(dp189
I0
F4265.8711111111115
sI1
F4278.08
sI2
F4303.735555555556
sI3
F4180.888888888889
sI4
F4261.251111111111
sI5
F4236.791111111112
sI6
F4210.453333333333
sI7
F4240.726666666667
sI8
F4204.873333333333
sI9
F4201.742222222222
ssg74
(dp190
I0
F8.612321
sI1
F10.03706
sI2
F9.158983
sI3
F9.994171
sI4
F9.980425
sI5
F9.538777
sI6
F9.618196
sI7
F9.055537
sI8
F8.96847
sI9
F9.240043
ssg76
(dp191
I0
F12.479
sI1
F12.479
sI2
F12.474
sI3
F12.505
sI4
F12.478
sI5
F12.488
sI6
F12.502
sI7
F12.478
sI8
F12.493
sI9
F12.48
ssg78
(dp192
I0
F0.003
sI1
F0.003
sI2
F0.003
sI3
F0.003
sI4
F0.003
sI5
F0.003
sI6
F0.003
sI7
F0.003
sI8
F0.003
sI9
F0.003
ssg80
(dp193
I0
F0.3761521107151168
sI1
Fnan
sI2
Fnan
sI3
Fnan
sI4
Fnan
sI5
Fnan
sI6
Fnan
sI7
Fnan
sI8
Fnan
sI9
Fnan
ssg82
(dp194
I0
F12.4856
sI1
Fnan
sI2
Fnan
sI3
Fnan
sI4
Fnan
sI5
Fnan
sI6
Fnan
sI7
Fnan
sI8
Fnan
sI9
Fnan
ssg84
(dp195
I0
F12.267
sI1
F12.265
sI2
F12.252
sI3
F12.28
sI4
F12.261
sI5
F12.267
sI6
F12.269
sI7
F12.258
sI8
F12.277
sI9
F12.269
ssg86
(dp196
I0
F-0.8713372
sI1
F3.611907
sI2
F2.504232
sI3
F2.127573
sI4
F3.692826
sI5
F3.024958
sI6
F3.422129
sI7
F4.007247
sI8
F3.119226
sI9
F2.497392
ssg88
(dp197
I0
F0.010060373308735224
sI1
Fnan
sI2
Fnan
sI3
Fnan
sI4
Fnan
sI5
Fnan
sI6
Fnan
sI7
Fnan
sI8
Fnan
sI9
Fnan
ssg90
(dp198
I0
F0.6941441052072644
sI1
F0.6925425799417054
sI2
F0.6895384099393459
sI3
F0.6891631868998455
sI4
F0.693726593392851
sI5
F0.6909286489114307
sI6
F0.6854627300772349
sI7
F0.6948826661704869
sI8
F0.6939241038899271
sI9
F0.7000770330305719
ssg92
(dp199
I0
F45.0
sI1
F45.0
sI2
F45.0
sI3
F45.0
sI4
F45.0
sI5
F45.0
sI6
F45.0
sI7
F45.0
sI8
F45.0
sI9
F45.0
ssg94
(dp200
I0
F0.004
sI1
F0.004
sI2
F0.004
sI3
F0.004
sI4
F0.004
sI5
F0.004
sI6
F0.004
sI7
F0.004
sI8
F0.004
sI9
F0.004
ssg96
(dp201
I0
F0.003
sI1
F0.003
sI2
F0.003
sI3
F0.003
sI4
F0.003
sI5
F0.003
sI6
F0.003
sI7
F0.003
sI8
F0.003
sI9
F0.003
ssg98
(dp202
I0
F1.923087
sI1
F3.39911
sI2
F3.082245
sI3
F3.773537
sI4
F-3.088364
sI5
F2.890637
sI6
F3.771569
sI7
F-1.962713
sI8
F3.716253
sI9
F2.791057
ssg100
(dp203
I0
S"KIC8462852-20180613at080008_-25-1-045-z'_cal.fts.mag.1"
p204
sI1
S"KIC8462852-20180613at074907_-25-1-045-z'_cal.fts.mag.1"
p205
sI2
S"KIC8462852-20180613at073318_-25-1-045-z'_cal.fts.mag.1"
p206
sI3
S"KIC8462852-20180613at073654_-25-1-045-z'_cal.fts.mag.1"
p207
sI4
S"KIC8462852-20180613at075019_-25-1-045-z'_cal.fts.mag.1"
p208
sI5
S"KIC8462852-20180613at073542_-25-1-045-z'_cal.fts.mag.1"
p209
sI6
S"KIC8462852-20180613at074754_-25-1-045-z'_cal.fts.mag.1"
p210
sI7
S"KIC8462852-20180613at073431_-25-1-045-z'_cal.fts.mag.1"
p211
sI8
S"KIC8462852-20180613at080121_-25-1-045-z'_cal.fts.mag.1"
p212
sI9
S"KIC8462852-20180613at075131_-25-1-045-z'_cal.fts.mag.1"
p213
ssg113
(dp214
I0
F0.007389623210183599
sI1
Fnan
sI2
Fnan
sI3
Fnan
sI4
Fnan
sI5
Fnan
sI6
Fnan
sI7
Fnan
sI8
Fnan
sI9
Fnan
ssg115
(dp215
I0
F1255.8562222222222
sI1
F1268.8471111111112
sI2
F1248.1453333333334
sI3
F1230.7011111111112
sI4
F1250.0231111111111
sI5
F1252.0824444444445
sI6
F1207.8126666666667
sI7
F1236.5544444444445
sI8
F1228.141111111111
sI9
F1233.386888888889
ssg117
(dp216
I0
F0.010926013810067511
sI1
Fnan
sI2
Fnan
sI3
Fnan
sI4
Fnan
sI5
Fnan
sI6
Fnan
sI7
Fnan
sI8
Fnan
sI9
Fnan
ssg119
(dp217
I0
S"z'"
p218
sI1
S"z'"
p219
sI2
S"z'"
p220
sI3
S"z'"
p221
sI4
S"z'"
p222
sI5
S"z'"
p223
sI6
S"z'"
p224
sI7
S"z'"
p225
sI8
S"z'"
p226
sI9
S"z'"
p227
ssg132
(dp228
I0
F0.0039340451348218505
sI1
Fnan
sI2
Fnan
sI3
Fnan
sI4
Fnan
sI5
Fnan
sI6
Fnan
sI7
Fnan
sI8
Fnan
sI9
Fnan
ssg134
(dp229
I0
F2.024063
sI1
F4.08721
sI2
F-2.30072
sI3
F3.263746
sI4
F3.561233
sI5
F1.70384
sI6
F3.457174
sI7
F-2.286999
sI8
F-2.761393
sI9
F3.247549
ssg136
(dp230
I0
F1.4976051420552658
sI1
Fnan
sI2
Fnan
sI3
Fnan
sI4
Fnan
sI5
Fnan
sI6
Fnan
sI7
Fnan
sI8
Fnan
sI9
Fnan
ssg138
(dp231
I0
F2458282.825364583
sI1
Fnan
sI2
Fnan
sI3
Fnan
sI4
Fnan
sI5
Fnan
sI6
Fnan
sI7
Fnan
sI8
Fnan
sI9
Fnan
ssg140
(dp232
I0
F0.0039340451348218505
sI1
Fnan
sI2
Fnan
sI3
Fnan
sI4
Fnan
sI5
Fnan
sI6
Fnan
sI7
Fnan
sI8
Fnan
sI9
Fnan
ssg142
(dp233
I0
F10.25208
sI1
F9.535717
sI2
F10.07213
sI3
F10.35139
sI4
F10.55086
sI5
F10.10192
sI6
F10.58048
sI7
F10.35278
sI8
F10.16859
sI9
F10.91022
ssg144
(dp234
I0
F11.925
sI1
F11.922
sI2
F11.915
sI3
F11.947
sI4
F11.926
sI5
F11.932
sI6
F11.939
sI7
F11.931
sI8
F11.941
sI9
F11.941
ssg146
(dp235
I0
F0.3761521107151168
sI1
Fnan
sI2
Fnan
sI3
Fnan
sI4
Fnan
sI5
Fnan
sI6
Fnan
sI7
Fnan
sI8
Fnan
sI9
Fnan
sssS'g'
p236
(dp237
g3
(dp238
I0
F0.8655005929700756
sI1
Fnan
sI2
Fnan
sI3
Fnan
sI4
Fnan
sI5
Fnan
sI6
Fnan
sI7
Fnan
sI8
Fnan
sI9
Fnan
sI10
Fnan
sI11
Fnan
ssg5
(dp239
I0
S'NoError'
p240
sI1
S'NoError'
p241
sI2
S'NoError'
p242
sI3
S'NoError'
p243
sI4
S'NoError'
p244
sI5
S'NoError'
p245
sI6
S'NoError'
p246
sI7
S'NoError'
p247
sI8
S'NoError'
p248
sI9
S'NoError'
p249
sI10
S'NoError'
p250
sI11
S'NoError'
p251
ssg18
(dp252
I0
F0.002
sI1
F0.002
sI2
F0.002
sI3
F0.002
sI4
F0.002
sI5
F0.002
sI6
F0.002
sI7
F0.002
sI8
F0.002
sI9
F0.002
sI10
F0.002
sI11
F0.002
ssg20
(dp253
I0
F0.8814499361484794
sI1
F0.880024646122406
sI2
F0.8767454611696888
sI3
F0.8834258709011598
sI4
F0.8793679206568034
sI5
F0.8846980880997121
sI6
F0.8755357670922793
sI7
F0.879632174963406
sI8
F0.8826264579797964
sI9
F0.8777989819173729
sI10
F0.8861270051557639
sI11
F0.8825391664568828
ssg22
(dp254
I0
F0.003225075359969896
sI1
Fnan
sI2
Fnan
sI3
Fnan
sI4
Fnan
sI5
Fnan
sI6
Fnan
sI7
Fnan
sI8
Fnan
sI9
Fnan
sI10
Fnan
sI11
Fnan
ssg24
(dp255
I0
F0.880830956388646
sI1
Fnan
sI2
Fnan
sI3
Fnan
sI4
Fnan
sI5
Fnan
sI6
Fnan
sI7
Fnan
sI8
Fnan
sI9
Fnan
sI10
Fnan
sI11
Fnan
ssg26
(dp256
I0
F11.391
sI1
F11.39
sI2
F11.365
sI3
F11.383
sI4
F11.367
sI5
F11.36
sI6
F11.376
sI7
F11.398
sI8
F11.366
sI9
F11.357
sI10
F11.379
sI11
F11.384
ssg28
(dp257
I0
F8.724967
sI1
F8.637549
sI2
F8.165569
sI3
F8.305534
sI4
F8.590144
sI5
F8.622361
sI6
F9.837276
sI7
F9.274436
sI8
F8.803025
sI9
F7.915111
sI10
F8.44555
sI11
F9.70472
ssg30
(dp258
I0
F2458282.810590278
sI1
F2458282.808101852
sI2
F2458282.8199074073
sI3
F2458282.808935185
sI4
F2458282.8284143517
sI5
F2458282.8207407407
sI6
F2458282.8300694446
sI7
F2458282.8309027776
sI8
F2458282.8190856483
sI9
F2458282.818263889
sI10
F2458282.8097569444
sI11
F2458282.829236111
ssg32
(dp259
I0
F1.7513008333333333
sI1
Fnan
sI2
Fnan
sI3
Fnan
sI4
Fnan
sI5
Fnan
sI6
Fnan
sI7
Fnan
sI8
Fnan
sI9
Fnan
sI10
Fnan
sI11
Fnan
ssg34
(dp260
I0
F1.5682553333333331
sI1
Fnan
sI2
Fnan
sI3
Fnan
sI4
Fnan
sI5
Fnan
sI6
Fnan
sI7
Fnan
sI8
Fnan
sI9
Fnan
sI10
Fnan
sI11
Fnan
ssg36
(dp261
I0
F0.8645586102759532
sI1
F0.866281028799551
sI2
F0.8640863518049835
sI3
F0.8680092085939316
sI4
F0.8667686910676775
sI5
F0.8652207050174662
sI6
F0.8643547095755132
sI7
F0.8655661658610299
sI8
F0.8660323069469992
sI9
F0.8719340435367476
sI10
F0.8644774980930588
sI11
F0.8651512466346695
ssg38
(dp262
I0
F0.0011379761242528794
sI1
Fnan
sI2
Fnan
sI3
Fnan
sI4
Fnan
sI5
Fnan
sI6
Fnan
sI7
Fnan
sI8
Fnan
sI9
Fnan
sI10
Fnan
sI11
Fnan
ssg40
(dp263
I0
F0.45914725000000006
sI1
Fnan
sI2
Fnan
sI3
Fnan
sI4
Fnan
sI5
Fnan
sI6
Fnan
sI7
Fnan
sI8
Fnan
sI9
Fnan
sI10
Fnan
sI11
Fnan
ssg42
(dp264
I0
g240
sI1
g241
sI2
g242
sI3
g243
sI4
g244
sI5
g245
sI6
g246
sI7
g247
sI8
g248
sI9
g249
sI10
g250
sI11
g251
ssg44
(dp265
I0
F0.0020894716287556537
sI1
Fnan
sI2
Fnan
sI3
Fnan
sI4
Fnan
sI5
Fnan
sI6
Fnan
sI7
Fnan
sI8
Fnan
sI9
Fnan
sI10
Fnan
sI11
Fnan
ssg46
(dp266
I0
F0.012911118065333212
sI1
Fnan
sI2
Fnan
sI3
Fnan
sI4
Fnan
sI5
Fnan
sI6
Fnan
sI7
Fnan
sI8
Fnan
sI9
Fnan
sI10
Fnan
sI11
Fnan
ssg48
(dp267
I0
F2.278279166666666
sI1
Fnan
sI2
Fnan
sI3
Fnan
sI4
Fnan
sI5
Fnan
sI6
Fnan
sI7
Fnan
sI8
Fnan
sI9
Fnan
sI10
Fnan
sI11
Fnan
ssg50
(dp268
I0
F1.5145077899940547
sI1
F1.5119188552112997
sI2
F1.5138866617516658
sI3
F1.5115566179377518
sI4
F1.5144757157511919
sI5
F1.510541259729161
sI6
F1.5171891186556656
sI7
F1.5159940407228123
sI8
F1.5039176370495992
sI9
F1.5107234201334634
sI10
F1.502573162301252
sI11
F1.5082261803819297
ssg52
(dp269
I0
g240
sI1
g241
sI2
g242
sI3
g243
sI4
g244
sI5
g245
sI6
g246
sI7
g247
sI8
g248
sI9
g249
sI10
g250
sI11
g251
ssg54
(dp270
I0
F8.712366
sI1
F8.828736
sI2
F8.100074
sI3
F8.571851
sI4
F9.579697
sI5
F7.865879
sI6
F9.557832
sI7
F9.451725
sI8
F7.614066
sI9
F8.724232
sI10
F7.909529
sI11
F9.721758
ssg56
(dp271
I0
F10.9425
sI1
Fnan
sI2
Fnan
sI3
Fnan
sI4
Fnan
sI5
Fnan
sI6
Fnan
sI7
Fnan
sI8
Fnan
sI9
Fnan
sI10
Fnan
sI11
Fnan
ssg58
(dp272
I0
F0.7167897066891117
sI1
Fnan
sI2
Fnan
sI3
Fnan
sI4
Fnan
sI5
Fnan
sI6
Fnan
sI7
Fnan
sI8
Fnan
sI9
Fnan
sI10
Fnan
sI11
Fnan
ssg60
(dp273
I0
F-2.88701
sI1
F2.248871
sI2
F3.450629
sI3
F2.847934
sI4
F2.289632
sI5
F3.047696
sI6
F3.908241
sI7
F2.249676
sI8
F-2.498789
sI9
F3.049769
sI10
F3.456759
sI11
F-2.344344
ssg62
(dp274
I0
F11.313833333333333
sI1
Fnan
sI2
Fnan
sI3
Fnan
sI4
Fnan
sI5
Fnan
sI6
Fnan
sI7
Fnan
sI8
Fnan
sI9
Fnan
sI10
Fnan
sI11
Fnan
ssg64
(dp275
I0
g240
sI1
g241
sI2
g242
sI3
g243
sI4
g244
sI5
g245
sI6
g246
sI7
g247
sI8
g248
sI9
g249
sI10
g250
sI11
g251
ssg66
(dp276
I0
F7403.9111111111115
sI1
F7385.673333333333
sI2
F7561.571111111111
sI3
F7444.46
sI4
F7540.344444444445
sI5
F7632.975555555556
sI6
F7477.473333333333
sI7
F7334.817777777777
sI8
F7571.7444444444445
sI9
F7557.348888888889
sI10
F7513.633333333333
sI11
F7455.555555555556
ssg68
(dp277
I0
F1.174667
sI1
F1.182828
sI2
F1.146187
sI3
F1.1800959999999998
sI4
F1.123042
sI5
F1.143821
sI6
F1.118796
sI7
F1.1167040000000001
sI8
F1.148587
sI9
F1.150993
sI10
F1.177361
sI11
F1.120908
ssg70
(dp278
I0
F6369.455555555555
sI1
F6379.351111111111
sI2
F6559.973333333333
sI3
F6394.46
sI4
F6510.006666666666
sI5
F6546.333333333333
sI6
F6487.304444444445
sI7
F6323.811111111111
sI8
F6543.34
sI9
F6557.24
sI10
F6460.093333333333
sI11
F6426.815555555556
ssg72
(dp279
I0
F10429.935555555556
sI1
F10405.8
sI2
F10689.20888888889
sI3
F10459.155555555555
sI4
F10639.457777777778
sI5
F10709.215555555556
sI6
F10593.604444444445
sI7
F10353.2
sI8
F10613.962222222222
sI9
F10661.62
sI10
F10498.273333333333
sI11
F10468.877777777778
ssg74
(dp280
I0
F8.350673
sI1
F8.104359
sI2
F7.938069
sI3
F8.333281
sI4
F8.701709
sI5
F7.739402
sI6
F8.055315
sI7
F8.890085
sI8
F7.869612
sI9
F7.947909
sI10
F7.944029
sI11
F9.20434
ssg76
(dp281
I0
F11.49
sI1
F11.488
sI2
F11.458
sI3
F11.485
sI4
F11.466
sI5
F11.46
sI6
F11.47
sI7
F11.498
sI8
F11.461
sI9
F11.458
sI10
F11.474
sI11
F11.48
ssg78
(dp282
I0
F0.002
sI1
F0.002
sI2
F0.001
sI3
F0.002
sI4
F0.001
sI5
F0.001
sI6
F0.002
sI7
F0.002
sI8
F0.001
sI9
F0.002
sI10
F0.002
sI11
F0.002
ssg80
(dp283
I0
F0.8660367138506317
sI1
Fnan
sI2
Fnan
sI3
Fnan
sI4
Fnan
sI5
Fnan
sI6
Fnan
sI7
Fnan
sI8
Fnan
sI9
Fnan
sI10
Fnan
sI11
Fnan
ssg82
(dp284
I0
F11.473999999999998
sI1
Fnan
sI2
Fnan
sI3
Fnan
sI4
Fnan
sI5
Fnan
sI6
Fnan
sI7
Fnan
sI8
Fnan
sI9
Fnan
sI10
Fnan
sI11
Fnan
ssg84
(dp285
I0
F11.326
sI1
F11.329
sI2
F11.303
sI3
F11.32
sI4
F11.307
sI5
F11.293
sI6
F11.316
sI7
F11.337
sI8
F11.302
sI9
F11.304
sI10
F11.31
sI11
F11.319
ssg86
(dp286
I0
F2.193191
sI1
F3.517091
sI2
F3.996651
sI3
F-1.997668
sI4
F-2.197553
sI5
F3.032932
sI6
F3.751853
sI7
F2.570665
sI8
F-3.30083
sI9
F4.055012
sI10
F2.947003
sI11
F2.447263
ssg88
(dp287
I0
F0.012384007282121409
sI1
Fnan
sI2
Fnan
sI3
Fnan
sI4
Fnan
sI5
Fnan
sI6
Fnan
sI7
Fnan
sI8
Fnan
sI9
Fnan
sI10
Fnan
sI11
Fnan
ssg90
(dp288
I0
F0.7143109027017415
sI1
F0.7171245451785082
sI2
F0.7188704628879787
sI3
F0.7143205214787777
sI4
F0.7161801417959442
sI5
F0.7138005807133668
sI6
F0.7179764842163384
sI7
F0.7150389818192051
sI8
F0.7196134986597533
sI9
F0.7198255883733389
sI10
F0.7173136584466719
sI11
F0.7171011139977151
ssg92
(dp289
I0
F45.0
sI1
F45.0
sI2
F45.0
sI3
F45.0
sI4
F45.0
sI5
F45.0
sI6
F45.0
sI7
F45.0
sI8
F45.0
sI9
F45.0
sI10
F45.0
sI11
F45.0
ssg94
(dp290
I0
F0.002
sI1
F0.002
sI2
F0.002
sI3
F0.002
sI4
F0.002
sI5
F0.002
sI6
F0.002
sI7
F0.002
sI8
F0.002
sI9
F0.002
sI10
F0.002
sI11
F0.002
ssg96
(dp291
I0
F0.002
sI1
F0.002
sI2
F0.002
sI3
F0.002
sI4
F0.002
sI5
F0.002
sI6
F0.002
sI7
F0.002
sI8
F0.002
sI9
F0.002
sI10
F0.002
sI11
F0.002
ssg98
(dp292
I0
F4.358185
sI1
F-2.472649
sI2
F2.809757
sI3
F4.073164
sI4
F2.691675
sI5
F3.359914
sI6
F2.215314
sI7
F4.350887
sI8
F2.342679
sI9
F1.674486
sI10
F3.299192
sI11
F-1.363254
ssg100
(dp293
I0
S"KIC8462852-20180613at072715_-25-1-045-g'_cal.fts.mag.1"
p294
sI1
S"KIC8462852-20180613at072335_-25-1-045-g'_cal.fts.mag.1"
p295
sI2
S"KIC8462852-20180613at074040_-25-1-045-g'_cal.fts.mag.1"
p296
sI3
S"KIC8462852-20180613at072452_-25-1-045-g'_cal.fts.mag.1"
p297
sI4
S"KIC8462852-20180613at075245_-25-1-045-g'_cal.fts.mag.1"
p298
sI5
S"KIC8462852-20180613at074152_-25-1-045-g'_cal.fts.mag.1"
p299
sI6
S"KIC8462852-20180613at075518_-25-1-045-g'_cal.fts.mag.1"
p300
sI7
S"KIC8462852-20180613at075630_-25-1-045-g'_cal.fts.mag.1"
p301
sI8
S"KIC8462852-20180613at073929_-25-1-045-g'_cal.fts.mag.1"
p302
sI9
S"KIC8462852-20180613at073809_-25-1-045-g'_cal.fts.mag.1"
p303
sI10
S"KIC8462852-20180613at072603_-25-1-045-g'_cal.fts.mag.1"
p304
sI11
S"KIC8462852-20180613at075406_-25-1-045-g'_cal.fts.mag.1"
p305
ssg113
(dp306
I0
F0.004525114630353879
sI1
Fnan
sI2
Fnan
sI3
Fnan
sI4
Fnan
sI5
Fnan
sI6
Fnan
sI7
Fnan
sI8
Fnan
sI9
Fnan
sI10
Fnan
sI11
Fnan
ssg115
(dp307
I0
F6975.057777777777
sI1
F6979.575555555556
sI2
F7146.211111111111
sI3
F7030.317777777777
sI4
F7133.451111111111
sI5
F7178.022222222222
sI6
F7075.717777777778
sI7
F6927.942222222223
sI8
F7138.717777777778
sI9
F7201.073333333333
sI10
F7051.831111111112
sI11
F7022.504444444445
ssg117
(dp308
I0
F0.013954471424144493
sI1
Fnan
sI2
Fnan
sI3
Fnan
sI4
Fnan
sI5
Fnan
sI6
Fnan
sI7
Fnan
sI8
Fnan
sI9
Fnan
sI10
Fnan
sI11
Fnan
ssg119
(dp309
I0
S"g'"
p310
sI1
S"g'"
p311
sI2
S"g'"
p312
sI3
S"g'"
p313
sI4
S"g'"
p314
sI5
S"g'"
p315
sI6
S"g'"
p316
sI7
S"g'"
p317
sI8
S"g'"
p318
sI9
S"g'"
p319
sI10
S"g'"
p320
sI11
S"g'"
p321
ssg132
(dp322
I0
F0.0021780947734630716
sI1
Fnan
sI2
Fnan
sI3
Fnan
sI4
Fnan
sI5
Fnan
sI6
Fnan
sI7
Fnan
sI8
Fnan
sI9
Fnan
sI10
Fnan
sI11
Fnan
ssg134
(dp323
I0
F-2.514988
sI1
F2.702867
sI2
F3.230047
sI3
F2.159942
sI4
F2.153476
sI5
F-2.573415
sI6
F3.156372
sI7
F-3.609611
sI8
F-2.147263
sI9
F2.353092
sI10
F-1.864368
sI11
F2.463616
ssg136
(dp324
I0
F1.511292538301654
sI1
Fnan
sI2
Fnan
sI3
Fnan
sI4
Fnan
sI5
Fnan
sI6
Fnan
sI7
Fnan
sI8
Fnan
sI9
Fnan
sI10
Fnan
sI11
Fnan
ssg138
(dp325
I0
F2458282.819496528
sI1
Fnan
sI2
Fnan
sI3
Fnan
sI4
Fnan
sI5
Fnan
sI6
Fnan
sI7
Fnan
sI8
Fnan
sI9
Fnan
sI10
Fnan
sI11
Fnan
ssg140
(dp326
I0
F0.0021780947734630716
sI1
Fnan
sI2
Fnan
sI3
Fnan
sI4
Fnan
sI5
Fnan
sI6
Fnan
sI7
Fnan
sI8
Fnan
sI9
Fnan
sI10
Fnan
sI11
Fnan
ssg142
(dp327
I0
F10.97281
sI1
F10.59841
sI2
F9.158509
sI3
F10.29326
sI4
F10.29573
sI5
F9.067603
sI6
F10.50904
sI7
F11.12706
sI8
F10.81877
sI9
F9.849209
sI10
F9.791993
sI11
F11.49596
ssg144
(dp328
I0
F10.954
sI1
F10.957
sI2
F10.928
sI3
F10.951
sI4
F10.933
sI5
F10.926
sI6
F10.937
sI7
F10.962
sI8
F10.935
sI9
F10.93
sI10
F10.947
sI11
F10.95
ssg146
(dp329
I0
F0.8660367138506317
sI1
Fnan
sI2
Fnan
sI3
Fnan
sI4
Fnan
sI5
Fnan
sI6
Fnan
sI7
Fnan
sI8
Fnan
sI9
Fnan
sI10
Fnan
sI11
Fnan
sssS'V'
p330
(dp331
g3
(dp332
I0
F0.6919457409165685
sI1
Fnan
sI2
Fnan
sI3
Fnan
sI4
Fnan
sI5
Fnan
sI6
Fnan
sI7
Fnan
ssg5
(dp333
I0
S'NoError'
p334
sI1
S'NoError'
p335
sI2
S'NoError'
p336
sI3
S'NoError'
p337
sI4
S'NoError'
p338
sI5
S'NoError'
p339
sI6
S'NoError'
p340
sI7
S'NoError'
p341
ssg18
(dp342
I0
F0.002
sI1
F0.002
sI2
F0.002
sI3
F0.002
sI4
F0.002
sI5
F0.002
sI6
F0.002
sI7
F0.002
ssg20
(dp343
I0
F0.8852438341431837
sI1
F0.8886119284731824
sI2
F0.889090376907494
sI3
F0.8885315241526363
sI4
F0.8841890902301048
sI5
F0.8890123927848209
sI6
F0.8902341442771292
sI7
F0.8872794744862196
ssg22
(dp344
I0
F0.002073389716526914
sI1
Fnan
sI2
Fnan
sI3
Fnan
sI4
Fnan
sI5
Fnan
sI6
Fnan
sI7
Fnan
ssg24
(dp345
I0
F0.8877740956818464
sI1
Fnan
sI2
Fnan
sI3
Fnan
sI4
Fnan
sI5
Fnan
sI6
Fnan
sI7
Fnan
ssg26
(dp346
I0
F11.418
sI1
F11.429
sI2
F11.428
sI3
F11.415
sI4
F11.411
sI5
F11.421
sI6
F11.426
sI7
F11.427
ssg28
(dp347
I0
F9.296867
sI1
F10.47356
sI2
F10.367
sI3
F9.611073
sI4
F10.67984
sI5
F10.7525
sI6
F9.510504
sI7
F10.70847
ssg30
(dp348
I0
F2458282.791157407
sI1
F2458282.7785069444
sI2
F2458282.7928125
sI3
F2458282.7919907407
sI4
F2458282.790324074
sI5
F2458282.779328704
sI6
F2458282.776851852
sI7
F2458282.777673611
ssg32
(dp349
I0
F1.7063712500000001
sI1
Fnan
sI2
Fnan
sI3
Fnan
sI4
Fnan
sI5
Fnan
sI6
Fnan
sI7
Fnan
ssg34
(dp350
I0
F0.39877025
sI1
Fnan
sI2
Fnan
sI3
Fnan
sI4
Fnan
sI5
Fnan
sI6
Fnan
sI7
Fnan
ssg36
(dp351
I0
F0.6922131336568761
sI1
F0.6900129916277695
sI2
F0.6874590424891347
sI3
F0.6924946292994741
sI4
F0.6928326985257358
sI5
F0.693392814219389
sI6
F0.6890415595854398
sI7
F0.693632359501295
ssg38
(dp352
I0
F0.0016154594015515035
sI1
Fnan
sI2
Fnan
sI3
Fnan
sI4
Fnan
sI5
Fnan
sI6
Fnan
sI7
Fnan
ssg40
(dp353
I0
F2.217341375
sI1
Fnan
sI2
Fnan
sI3
Fnan
sI4
Fnan
sI5
Fnan
sI6
Fnan
sI7
Fnan
ssg42
(dp354
I0
g334
sI1
g335
sI2
g336
sI3
g337
sI4
g338
sI5
g339
sI6
g340
sI7
g341
ssg44
(dp355
I0
F0.0014995335651898922
sI1
Fnan
sI2
Fnan
sI3
Fnan
sI4
Fnan
sI5
Fnan
sI6
Fnan
sI7
Fnan
ssg46
(dp356
I0
F0.0050832357523813475
sI1
Fnan
sI2
Fnan
sI3
Fnan
sI4
Fnan
sI5
Fnan
sI6
Fnan
sI7
Fnan
ssg48
(dp357
I0
F0.394459475
sI1
Fnan
sI2
Fnan
sI3
Fnan
sI4
Fnan
sI5
Fnan
sI6
Fnan
sI7
Fnan
ssg50
(dp358
I0
F1.5043717056386632
sI1
F1.5000616274535428
sI2
F1.5013727706529965
sI3
F1.5002626708413258
sI4
F1.5040653459029498
sI5
F1.498433763435905
sI6
F1.499866397662991
sI7
F1.496510588144797
ssg52
(dp359
I0
g334
sI1
g335
sI2
g336
sI3
g337
sI4
g338
sI5
g339
sI6
g340
sI7
g341
ssg54
(dp360
I0
F11.15973
sI1
F10.58624
sI2
F11.38636
sI3
F11.06524
sI4
F11.35476
sI5
F10.98686
sI6
F9.945864
sI7
F11.10943
ssg56
(dp361
I0
F10.748
sI1
Fnan
sI2
Fnan
sI3
Fnan
sI4
Fnan
sI5
Fnan
sI6
Fnan
sI7
Fnan
ssg58
(dp362
I0
F0.7170347631284524
sI1
Fnan
sI2
Fnan
sI3
Fnan
sI4
Fnan
sI5
Fnan
sI6
Fnan
sI7
Fnan
ssg60
(dp363
I0
F-2.058543
sI1
F3.042274
sI2
F4.173988
sI3
F2.717884
sI4
F-1.754713
sI5
F3.285849
sI6
F-2.497334
sI7
F-3.719243
ssg62
(dp364
I0
F11.109124999999999
sI1
Fnan
sI2
Fnan
sI3
Fnan
sI4
Fnan
sI5
Fnan
sI6
Fnan
sI7
Fnan
ssg64
(dp365
I0
g334
sI1
g335
sI2
g336
sI3
g337
sI4
g338
sI5
g339
sI6
g340
sI7
g341
ssg66
(dp366
I0
F9046.984444444444
sI1
F9007.40888888889
sI2
F9051.866666666667
sI3
F9090.808888888889
sI4
F9091.86
sI5
F9032.475555555557
sI6
F9054.98
sI7
F8970.902222222221
ssg68
(dp367
I0
F1.245634
sI1
F1.301636
sI2
F1.2389059999999998
sI3
F1.242253
sI4
F1.249077
sI5
F1.297744
sI6
F1.3096079999999999
sI7
F1.305607
ssg70
(dp368
I0
F7781.433333333333
sI1
F7723.951111111111
sI2
F7749.515555555556
sI3
F7795.555555555556
sI4
F7835.495555555555
sI5
F7748.017777777777
sI6
F7744.46
sI7
F7726.913333333333
ssg72
(dp369
I0
F12658.097777777779
sI1
F12549.035555555554
sI2
F12612.568888888889
sI3
F12666.99111111111
sI4
F12729.924444444445
sI5
F12572.22888888889
sI6
F12598.457777777778
sI7
F12494.22888888889
ssg74
(dp370
I0
F10.42622
sI1
F10.75709
sI2
F10.28046
sI3
F10.28282
sI4
F10.30529
sI5
F10.63904
sI6
F10.34868
sI7
F10.85373
ssg76
(dp371
I0
F11.272
sI1
F11.28
sI2
F11.277
sI3
F11.27
sI4
F11.265
sI5
F11.277
sI6
F11.278
sI7
F11.28
ssg78
(dp372
I0
F0.001
sI1
F0.001
sI2
F0.001
sI3
F0.001
sI4
F0.001
sI5
F0.001
sI6
F0.001
sI7
F0.001
ssg80
(dp373
I0
F0.6913849036131392
sI1
Fnan
sI2
Fnan
sI3
Fnan
sI4
Fnan
sI5
Fnan
sI6
Fnan
sI7
Fnan
ssg82
(dp374
I0
F11.274875
sI1
Fnan
sI2
Fnan
sI3
Fnan
sI4
Fnan
sI5
Fnan
sI6
Fnan
sI7
Fnan
ssg84
(dp375
I0
F11.109
sI1
F11.114
sI2
F11.108
sI3
F11.103
sI4
F11.103
sI5
F11.11
sI6
F11.108
sI7
F11.118
ssg86
(dp376
I0
F2.272986
sI1
F3.357022
sI2
F-1.949846
sI3
F2.467504
sI4
F3.559047
sI5
F-2.575924
sI6
F3.589454
sI7
F2.930727
ssg88
(dp377
I0
F0.006279217421667278
sI1
Fnan
sI2
Fnan
sI3
Fnan
sI4
Fnan
sI5
Fnan
sI6
Fnan
sI7
Fnan
ssg90
(dp378
I0
F0.7170148681000159
sI1
F0.716625706156447
sI2
F0.7154135666893289
sI3
F0.716575715886308
sI4
F0.718135180512277
sI5
F0.7172528370107044
sI6
F0.7153099733611712
sI7
F0.7199502573113665
ssg92
(dp379
I0
F45.0
sI1
F45.0
sI2
F45.0
sI3
F45.0
sI4
F45.0
sI5
F45.0
sI6
F45.0
sI7
F45.0
ssg94
(dp380
I0
F0.002
sI1
F0.002
sI2
F0.002
sI3
F0.002
sI4
F0.002
sI5
F0.002
sI6
F0.002
sI7
F0.002
ssg96
(dp381
I0
F0.002
sI1
F0.002
sI2
F0.002
sI3
F0.002
sI4
F0.002
sI5
F0.002
sI6
F0.002
sI7
F0.002
ssg98
(dp382
I0
F1.939557
sI1
F-0.8272692
sI2
F-3.042357
sI3
F-2.468719
sI4
F-2.956936
sI5
F3.414721
sI6
F3.890408
sI7
F3.206271
ssg100
(dp383
I0
S'KIC8462852-20180613at065916_-25-1-045-V_cal.fts.mag.1'
p384
sI1
S'KIC8462852-20180613at064103_-25-1-045-V_cal.fts.mag.1'
p385
sI2
S'KIC8462852-20180613at070139_-25-1-045-V_cal.fts.mag.1'
p386
sI3
S'KIC8462852-20180613at070028_-25-1-045-V_cal.fts.mag.1'
p387
sI4
S'KIC8462852-20180613at065802_-25-1-045-V_cal.fts.mag.1'
p388
sI5
S'KIC8462852-20180613at064214_-25-1-045-V_cal.fts.mag.1'
p389
sI6
S'KIC8462852-20180613at063839_-25-1-045-V_cal.fts.mag.1'
p390
sI7
S'KIC8462852-20180613at063951_-25-1-045-V_cal.fts.mag.1'
p391
ssg113
(dp392
I0
F0.0026507846614871955
sI1
Fnan
sI2
Fnan
sI3
Fnan
sI4
Fnan
sI5
Fnan
sI6
Fnan
sI7
Fnan
ssg115
(dp393
I0
F6803.651111111111
sI1
F6734.6177777777775
sI2
F6740.295555555555
sI3
F6821.846666666666
sI4
F6849.177777777778
sI5
F6784.322222222222
sI6
F6752.124444444444
sI7
F6749.515555555556
ssg117
(dp394
I0
F0.005356904756613188
sI1
Fnan
sI2
Fnan
sI3
Fnan
sI4
Fnan
sI5
Fnan
sI6
Fnan
sI7
Fnan
ssg119
(dp395
I0
g330
sI1
g330
sI2
g330
sI3
g330
sI4
g330
sI5
g330
sI6
g330
sI7
g330
ssg132
(dp396
I0
F0.0022640708746422314
sI1
Fnan
sI2
Fnan
sI3
Fnan
sI4
Fnan
sI5
Fnan
sI6
Fnan
sI7
Fnan
ssg134
(dp397
I0
F2.95205
sI1
F1.088223
sI2
F3.653199
sI3
F3.438699
sI4
F-2.571325
sI5
F2.598798
sI6
F3.523329
sI7
F3.055758
ssg136
(dp398
I0
F1.5006181087166464
sI1
Fnan
sI2
Fnan
sI3
Fnan
sI4
Fnan
sI5
Fnan
sI6
Fnan
sI7
Fnan
ssg138
(dp399
I0
F2458282.784826389
sI1
Fnan
sI2
Fnan
sI3
Fnan
sI4
Fnan
sI5
Fnan
sI6
Fnan
sI7
Fnan
ssg140
(dp400
I0
F0.0022640708746422314
sI1
Fnan
sI2
Fnan
sI3
Fnan
sI4
Fnan
sI5
Fnan
sI6
Fnan
sI7
Fnan
ssg142
(dp401
I0
F12.76519
sI1
F11.58637
sI2
F12.91224
sI3
F12.99331
sI4
F12.09799
sI5
F12.58286
sI6
F11.73738
sI7
F12.75984
ssg144
(dp402
I0
F10.744
sI1
F10.753
sI2
F10.748
sI3
F10.743
sI4
F10.738
sI5
F10.751
sI6
F10.749
sI7
F10.758
ssg146
(dp403
I0
F0.6913849036131392
sI1
Fnan
sI2
Fnan
sI3
Fnan
sI4
Fnan
sI5
Fnan
sI6
Fnan
sI7
Fnan
sss.