(dp0
S'r'
p1
(dp2
S'sigmean'
p3
(dp4
I0
F0.544743196354218
sI1
Fnan
sI2
Fnan
sI3
Fnan
sI4
Fnan
sI5
Fnan
sI6
Fnan
sI7
Fnan
sI8
Fnan
sI9
Fnan
sI10
Fnan
sI11
Fnan
ssS'ref3flag'
p5
(dp6
I0
S'NoError'
p7
sI1
S'NoError'
p8
sI2
S'NoError'
p9
sI3
S'NoError'
p10
sI4
S'NoError'
p11
sI5
S'NoError'
p12
sI6
S'NoError'
p13
sI7
S'NoError'
p14
sI8
S'NoError'
p15
sI9
S'NoError'
p16
sI10
S'NoError'
p17
sI11
S'NoError'
p18
ssS'tabbyerr'
p19
(dp20
I0
F0.002
sI1
F0.002
sI2
F0.002
sI3
F0.002
sI4
F0.002
sI5
F0.002
sI6
F0.002
sI7
F0.002
sI8
F0.002
sI9
F0.002
sI10
F0.002
sI11
F0.002
ssS'ref2rel'
p21
(dp22
I0
F0.8924900020054111
sI1
F0.8913920599271349
sI2
F0.8968456525473055
sI3
F0.8936025683761921
sI4
F0.8970136335042328
sI5
F0.8919226978095922
sI6
F0.8974669427977031
sI7
F0.89429856665397
sI8
F0.894386768733139
sI9
F0.8944562143856294
sI10
F0.8941680146811436
sI11
F0.8959042983534226
ssS'ref2err'
p23
(dp24
I0
F0.001997903309746529
sI1
Fnan
sI2
Fnan
sI3
Fnan
sI4
Fnan
sI5
Fnan
sI6
Fnan
sI7
Fnan
sI8
Fnan
sI9
Fnan
sI10
Fnan
sI11
Fnan
ssS'ref2mean'
p25
(dp26
I0
F0.8944956183145729
sI1
Fnan
sI2
Fnan
sI3
Fnan
sI4
Fnan
sI5
Fnan
sI6
Fnan
sI7
Fnan
sI8
Fnan
sI9
Fnan
sI10
Fnan
sI11
Fnan
ssS'tabbymag'
p27
(dp28
I0
F11.246
sI1
F11.28
sI2
F11.259
sI3
F11.213
sI4
F11.221
sI5
F11.259
sI6
F11.247
sI7
F11.232
sI8
F11.21
sI9
F11.204
sI10
F11.204
sI11
F11.205
ssS'tabbybkg'
p29
(dp30
I0
F7.454237
sI1
F6.649118
sI2
F6.482206
sI3
F8.156125
sI4
F5.657064
sI5
F7.02425
sI6
F5.126338
sI7
F9.08458
sI8
F9.299925
sI9
F7.765923
sI10
F8.08099
sI11
F6.347591
ssS'JD'
p31
(dp32
I0
F2458222.9621527777
sI1
F2458222.963009259
sI2
F2458222.9725
sI3
F2458222.9526388887
sI4
F2458222.9716550927
sI5
F2458222.970821759
sI6
F2458222.9733449076
sI7
F2458222.9517939813
sI8
F2458222.9501041668
sI9
F2458222.96130787
sI10
F2458222.9509490742
sI11
F2458222.9604513887
ssS'ref3rmsmean'
p33
(dp34
I0
F2.518582083333333
sI1
Fnan
sI2
Fnan
sI3
Fnan
sI4
Fnan
sI5
Fnan
sI6
Fnan
sI7
Fnan
sI8
Fnan
sI9
Fnan
sI10
Fnan
sI11
Fnan
ssS'ref1rmsmean'
p35
(dp36
I0
F3.261396916666667
sI1
Fnan
sI2
Fnan
sI3
Fnan
sI4
Fnan
sI5
Fnan
sI6
Fnan
sI7
Fnan
sI8
Fnan
sI9
Fnan
sI10
Fnan
sI11
Fnan
ssS'relflux'
p37
(dp38
I0
F0.5439199475435136
sI1
F0.5461275289783252
sI2
F0.5448636577405204
sI3
F0.5427482720001645
sI4
F0.5450548421327138
sI5
F0.5458182958755567
sI6
F0.5459492287543966
sI7
F0.5427700981867409
sI8
F0.5440286452116161
sI9
F0.5449006007383566
sI10
F0.545478632803995
sI11
F0.543263681930663
ssS'sigerr'
p39
(dp40
I0
F0.0010649117821597877
sI1
Fnan
sI2
Fnan
sI3
Fnan
sI4
Fnan
sI5
Fnan
sI6
Fnan
sI7
Fnan
sI8
Fnan
sI9
Fnan
sI10
Fnan
sI11
Fnan
ssS'tabbyrmsmean'
p41
(dp42
I0
F1.64728675
sI1
Fnan
sI2
Fnan
sI3
Fnan
sI4
Fnan
sI5
Fnan
sI6
Fnan
sI7
Fnan
sI8
Fnan
sI9
Fnan
sI10
Fnan
sI11
Fnan
ssS'tabbyflag'
p43
(dp44
I0
g7
sI1
g8
sI2
g9
sI3
g10
sI4
g11
sI5
g12
sI6
g13
sI7
g14
sI8
g15
sI9
g16
sI10
g17
sI11
g18
ssS'ref1err'
p45
(dp46
I0
F0.0012108293986945538
sI1
Fnan
sI2
Fnan
sI3
Fnan
sI4
Fnan
sI5
Fnan
sI6
Fnan
sI7
Fnan
sI8
Fnan
sI9
Fnan
sI10
Fnan
sI11
Fnan
ssS'ref2magmeanerr'
p47
(dp48
I0
F0.02771431639664481
sI1
Fnan
sI2
Fnan
sI3
Fnan
sI4
Fnan
sI5
Fnan
sI6
Fnan
sI7
Fnan
sI8
Fnan
sI9
Fnan
sI10
Fnan
sI11
Fnan
ssS'ref2rmsmean'
p49
(dp50
I0
F2.2922163333333336
sI1
Fnan
sI2
Fnan
sI3
Fnan
sI4
Fnan
sI5
Fnan
sI6
Fnan
sI7
Fnan
sI8
Fnan
sI9
Fnan
sI10
Fnan
sI11
Fnan
ssS'ref3rel'
p51
(dp52
I0
F1.4968292205430482
sI1
F1.5010160527256708
sI2
F1.4930928348511658
sI3
F1.5027795246894102
sI4
F1.492940163216849
sI5
F1.5022213630989576
sI6
F1.494402861830441
sI7
F1.4978124473141174
sI8
F1.498481244901762
sI9
F1.4985598379269234
sI10
F1.5006611439244508
sI11
F1.493922949428051
ssS'ref1flag'
p53
(dp54
I0
g7
sI1
g8
sI2
g9
sI3
g10
sI4
g11
sI5
g12
sI6
g13
sI7
g14
sI8
g15
sI9
g16
sI10
g17
sI11
g18
ssS'ref2bkg'
p55
(dp56
I0
F8.262237
sI1
F7.764159
sI2
F7.617418
sI3
F10.91005
sI4
F7.419544
sI5
F7.817861
sI6
F7.389523
sI7
F12.45387
sI8
F12.04254
sI9
F7.41369
sI10
F11.07708
sI11
F7.704613
ssS'ref3magmean'
p57
(dp58
I0
F10.299916666666668
sI1
Fnan
sI2
Fnan
sI3
Fnan
sI4
Fnan
sI5
Fnan
sI6
Fnan
sI7
Fnan
sI8
Fnan
sI9
Fnan
sI10
Fnan
sI11
Fnan
ssS'ref1mean'
p59
(dp60
I0
F0.7128488121199572
sI1
Fnan
sI2
Fnan
sI3
Fnan
sI4
Fnan
sI5
Fnan
sI6
Fnan
sI7
Fnan
sI8
Fnan
sI9
Fnan
sI10
Fnan
sI11
Fnan
ssS'ref1rms'
p61
(dp62
I0
F3.698179
sI1
F2.691598
sI2
F3.235564
sI3
F4.244408
sI4
F4.115504
sI5
F-2.143952
sI6
F3.542124
sI7
F4.612058
sI8
F4.794111
sI9
F2.695198
sI10
F3.263929
sI11
F4.388042
ssS'ref2magmean'
p63
(dp64
I0
F10.654083333333332
sI1
Fnan
sI2
Fnan
sI3
Fnan
sI4
Fnan
sI5
Fnan
sI6
Fnan
sI7
Fnan
sI8
Fnan
sI9
Fnan
sI10
Fnan
sI11
Fnan
ssS'ref2flag'
p65
(dp66
I0
g7
sI1
g8
sI2
g9
sI3
g10
sI4
g11
sI5
g12
sI6
g13
sI7
g14
sI8
g15
sI9
g16
sI10
g17
sI11
g18
ssS'ref2'
p67
(dp68
I0
F13563.857777777777
sI1
F13084.357777777777
sI2
F13430.826666666666
sI3
F14026.175555555556
sI4
F13899.735555555555
sI5
F13348.795555555556
sI6
F13562.99111111111
sI7
F13789.684444444445
sI8
F14039.153333333334
sI9
F14100.348888888888
sI10
F14085.77111111111
sI11
F14141.002222222221
ssS'airmass'
p69
(dp70
I0
F1.217365
sI1
F1.21423
sI2
F1.18087
sI3
F1.255317
sI4
F1.183683
sI5
F1.186515
sI6
F1.178081
sI7
F1.258904
sI8
F1.266159
sI9
F1.22059
sI10
F1.262506
sI11
F1.223846
ssS'ref1'
p71
(dp72
I0
F11578.575555555555
sI1
F11160.884444444444
sI2
F11407.953333333335
sI3
F11906.715555555555
sI4
F11804.037777777778
sI5
F11367.76
sI6
F11498.824444444444
sI7
F11728.431111111111
sI8
F11933.873333333335
sI9
F11983.906666666668
sI10
F11961.675555555556
sI11
F12023.92
ssS'ref3'
p73
(dp74
I0
F18816.964444444446
sI1
F18196.248888888887
sI2
F18543.30222222222
sI3
F19485.70888888889
sI4
F19187.097777777777
sI5
F18564.86888888889
sI6
F18726.224444444444
sI7
F19110.675555555557
sI8
F19460.046666666665
sI9
F19544.40888888889
sI10
F19544.195555555558
sI11
F19544.18888888889
ssS'ref1bkg'
p75
(dp76
I0
F7.182947
sI1
F7.073127
sI2
F6.266446
sI3
F9.294576
sI4
F6.506954
sI5
F7.453761
sI6
F6.996787
sI7
F11.53726
sI8
F10.29432
sI9
F7.954154
sI10
F10.42987
sI11
F7.655658
ssS'ref1mag'
p77
(dp78
I0
F10.841
sI1
F10.881
sI2
F10.857
sI3
F10.811
sI4
F10.82
sI5
F10.861
sI6
F10.848
sI7
F10.827
sI8
F10.808
sI9
F10.804
sI10
F10.806
sI11
F10.8
ssS'ref3magerr'
p79
(dp80
I0
F0.001
sI1
F0.001
sI2
F0.001
sI3
F0.001
sI4
F0.001
sI5
F0.001
sI6
F0.001
sI7
F0.001
sI8
F0.001
sI9
F0.001
sI10
F0.001
sI11
F0.001
ssS'tabbymagmean'
p81
(dp82
I0
F0.5445769526580468
sI1
Fnan
sI2
Fnan
sI3
Fnan
sI4
Fnan
sI5
Fnan
sI6
Fnan
sI7
Fnan
sI8
Fnan
sI9
Fnan
sI10
Fnan
sI11
Fnan
ssS'ref1magmean'
p83
(dp84
I0
F10.830333333333334
sI1
Fnan
sI2
Fnan
sI3
Fnan
sI4
Fnan
sI5
Fnan
sI6
Fnan
sI7
Fnan
sI8
Fnan
sI9
Fnan
sI10
Fnan
sI11
Fnan
ssS'ref2mag'
p85
(dp86
I0
F10.669
sI1
F10.708
sI2
F10.68
sI3
F10.633
sI4
F10.642
sI5
F10.686
sI6
F10.669
sI7
F10.651
sI8
F10.632
sI9
F10.627
sI10
F10.628
sI11
F10.624
ssS'ref3rms'
p87
(dp88
I0
F2.63791
sI1
F3.788238
sI2
F3.460504
sI3
F2.135445
sI4
F4.242035
sI5
F4.185437
sI6
F4.330319
sI7
F3.177292
sI8
F-3.356279
sI9
F-1.368276
sI10
F3.948159
sI11
F3.042201
ssS'ref3magmeanerr'
p89
(dp90
I0
F0.027420822656359395
sI1
Fnan
sI2
Fnan
sI3
Fnan
sI4
Fnan
sI5
Fnan
sI6
Fnan
sI7
Fnan
sI8
Fnan
sI9
Fnan
sI10
Fnan
sI11
Fnan
ssS'ref1rel'
p91
(dp92
I0
F0.7151501883487962
sI1
F0.7135976973450288
sI2
F0.7135739880811974
sI3
F0.710596598964427
sI4
F0.7135187377321963
sI5
F0.7124070643651145
sI6
F0.7122393187075121
sI7
F0.7129667341701496
sI8
F0.7124870643677065
sI9
F0.7123788345167988
sI10
F0.7113700512472837
sI11
F0.7138994675932767
ssS'exposure'
p93
(dp94
I0
F45.0
sI1
F45.0
sI2
F45.0
sI3
F45.0
sI4
F45.0
sI5
F45.0
sI6
F45.0
sI7
F45.0
sI8
F45.0
sI9
F45.0
sI10
F45.0
sI11
F45.0
ssS'ref1magerr'
p95
(dp96
I0
F0.001
sI1
F0.001
sI2
F0.001
sI3
F0.001
sI4
F0.001
sI5
F0.001
sI6
F0.001
sI7
F0.001
sI8
F0.001
sI9
F0.001
sI10
F0.001
sI11
F0.001
ssS'ref2magerr'
p97
(dp98
I0
F0.001
sI1
F0.001
sI2
F0.001
sI3
F0.001
sI4
F0.001
sI5
F0.001
sI6
F0.001
sI7
F0.001
sI8
F0.001
sI9
F0.001
sI10
F0.001
sI11
F0.001
ssS'ref2rms'
p99
(dp100
I0
F3.747172
sI1
F3.664108
sI2
F2.95807
sI3
F3.207868
sI4
F4.361454
sI5
F-3.827349
sI6
F-3.026836
sI7
F1.174798
sI8
F3.25504
sI9
F3.980024
sI10
F3.968374
sI11
F4.043873
ssS'name'
p101
(dp102
I0
S"KIC8462852-20180414at110530_-35-1-045-r'_cal.fts.mag.1"
p103
sI1
S"KIC8462852-20180414at110644_-35-1-045-r'_cal.fts.mag.1"
p104
sI2
S"KIC8462852-20180414at112024_-35-1-045-r'_cal.fts.mag.1"
p105
sI3
S"KIC8462852-20180414at105148_-35-1-045-r'_cal.fts.mag.1"
p106
sI4
S"KIC8462852-20180414at111911_-35-1-045-r'_cal.fts.mag.1"
p107
sI5
S"KIC8462852-20180414at111757_-35-1-045-r'_cal.fts.mag.1"
p108
sI6
S"KIC8462852-20180414at112136_-35-1-045-r'_cal.fts.mag.1"
p109
sI7
S"KIC8462852-20180414at105035_-35-1-045-r'_cal.fts.mag.1"
p110
sI8
S"KIC8462852-20180414at104807_-35-1-045-r'_cal.fts.mag.1"
p111
sI9
S"KIC8462852-20180414at110417_-35-1-045-r'_cal.fts.mag.1"
p112
sI10
S"KIC8462852-20180414at104922_-35-1-045-r'_cal.fts.mag.1"
p113
sI11
S"KIC8462852-20180414at110301_-35-1-045-r'_cal.fts.mag.1"
p114
ssS'ref3err'
p115
(dp116
I0
F0.0035309047790221463
sI1
Fnan
sI2
Fnan
sI3
Fnan
sI4
Fnan
sI5
Fnan
sI6
Fnan
sI7
Fnan
sI8
Fnan
sI9
Fnan
sI10
Fnan
sI11
Fnan
ssS'tabby'
p117
(dp118
I0
F7970.131111111112
sI1
F7726.155555555555
sI2
F7879.106666666667
sI3
F8216.955555555556
sI4
F8155.995555555555
sI5
F7874.597777777778
sI6
F7968.682222222223
sI7
F8074.39111111111
sI8
F8238.964444444446
sI9
F8287.695555555556
sI10
F8289.755555555555
sI11
F8277.366666666667
ssS'ref1magmeanerr'
p119
(dp120
I0
F0.026698087549258676
sI1
Fnan
sI2
Fnan
sI3
Fnan
sI4
Fnan
sI5
Fnan
sI6
Fnan
sI7
Fnan
sI8
Fnan
sI9
Fnan
sI10
Fnan
sI11
Fnan
ssS'filter'
p121
(dp122
I0
S"r'"
p123
sI1
S"r'"
p124
sI2
S"r'"
p125
sI3
S"r'"
p126
sI4
S"r'"
p127
sI5
S"r'"
p128
sI6
S"r'"
p129
sI7
S"r'"
p130
sI8
S"r'"
p131
sI9
S"r'"
p132
sI10
S"r'"
p133
sI11
S"r'"
p134
ssS'tabbymagerr'
p135
(dp136
I0
F0.0012106530064318075
sI1
Fnan
sI2
Fnan
sI3
Fnan
sI4
Fnan
sI5
Fnan
sI6
Fnan
sI7
Fnan
sI8
Fnan
sI9
Fnan
sI10
Fnan
sI11
Fnan
ssS'tabbyrms'
p137
(dp138
I0
F-2.712798
sI1
F4.662916
sI2
F3.724958
sI3
F-2.492266
sI4
F1.922702
sI5
F1.984747
sI6
F3.213675
sI7
F2.356627
sI8
F2.60116
sI9
F-3.644859
sI10
F5.160326
sI11
F2.990253
ssS'ref3mean'
p139
(dp140
I0
F1.4977266370375704
sI1
Fnan
sI2
Fnan
sI3
Fnan
sI4
Fnan
sI5
Fnan
sI6
Fnan
sI7
Fnan
sI8
Fnan
sI9
Fnan
sI10
Fnan
sI11
Fnan
ssS'median_JD'
p141
(dp142
I0
F2458222.9617303237
sI1
Fnan
sI2
Fnan
sI3
Fnan
sI4
Fnan
sI5
Fnan
sI6
Fnan
sI7
Fnan
sI8
Fnan
sI9
Fnan
sI10
Fnan
sI11
Fnan
ssS'error'
p143
(dp144
I0
F0.0012106530064318075
sI1
Fnan
sI2
Fnan
sI3
Fnan
sI4
Fnan
sI5
Fnan
sI6
Fnan
sI7
Fnan
sI8
Fnan
sI9
Fnan
sI10
Fnan
sI11
Fnan
ssS'ref3bkg'
p145
(dp146
I0
F10.79685
sI1
F8.641775
sI2
F8.494222
sI3
F12.54957
sI4
F8.823435
sI5
F8.719636
sI6
F8.696486
sI7
F15.01989
sI8
F14.7279
sI9
F10.03155
sI10
F12.62445
sI11
F9.306636
ssS'ref3mag'
p147
(dp148
I0
F10.314
sI1
F10.35
sI2
F10.33
sI3
F10.276
sI4
F10.292
sI5
F10.328
sI6
F10.319
sI7
F10.297
sI8
F10.277
sI9
F10.272
sI10
F10.272
sI11
F10.272
ssS'mean'
p149
(dp150
I0
F0.5445769526580468
sI1
Fnan
sI2
Fnan
sI3
Fnan
sI4
Fnan
sI5
Fnan
sI6
Fnan
sI7
Fnan
sI8
Fnan
sI9
Fnan
sI10
Fnan
sI11
Fnan
sssS'z'
p151
(dp152
g3
(dp153
I0
F0.3715744495804176
sI1
Fnan
sI2
Fnan
sI3
Fnan
sI4
Fnan
sI5
Fnan
sI6
Fnan
sI7
Fnan
sI8
Fnan
sI9
Fnan
sI10
Fnan
sI11
Fnan
ssg5
(dp154
I0
S'NoError'
p155
sI1
S'NoError'
p156
sI2
S'NoError'
p157
sI3
S'NoError'
p158
sI4
S'NoError'
p159
sI5
S'NoError'
p160
sI6
S'NoError'
p161
sI7
S'NoError'
p162
sI8
S'NoError'
p163
sI9
S'NoError'
p164
sI10
S'NoError'
p165
sI11
S'NoError'
p166
ssg19
(dp167
I0
F0.007
sI1
F0.007
sI2
F0.007
sI3
F0.007
sI4
F0.007
sI5
F0.007
sI6
F0.007
sI7
F0.007
sI8
F0.007
sI9
F0.007
sI10
F0.007
sI11
F0.007
ssg21
(dp168
I0
F0.9241326158717481
sI1
F0.9206386511326724
sI2
F0.9112133684319641
sI3
F0.9129421900733129
sI4
F0.916425525345375
sI5
F0.9240148427468873
sI6
F0.9144875506182523
sI7
F0.9186476535367376
sI8
F0.9195311616094242
sI9
F0.9151990889200172
sI10
F0.9165213670819742
sI11
F0.9234722016707246
ssg23
(dp169
I0
F0.00436745120692805
sI1
Fnan
sI2
Fnan
sI3
Fnan
sI4
Fnan
sI5
Fnan
sI6
Fnan
sI7
Fnan
sI8
Fnan
sI9
Fnan
sI10
Fnan
sI11
Fnan
ssg25
(dp170
I0
F0.9181021847532574
sI1
Fnan
sI2
Fnan
sI3
Fnan
sI4
Fnan
sI5
Fnan
sI6
Fnan
sI7
Fnan
sI8
Fnan
sI9
Fnan
sI10
Fnan
sI11
Fnan
ssg27
(dp171
I0
F13.376
sI1
F13.363
sI2
F13.297
sI3
F13.341
sI4
F13.302
sI5
F13.339
sI6
F13.333
sI7
F13.363
sI8
F13.315
sI9
F13.41
sI10
F13.296
sI11
F13.359
ssg29
(dp172
I0
F0.454959
sI1
F1.911499
sI2
F1.323703
sI3
F1.318628
sI4
F2.384356
sI5
F1.147784
sI6
F1.843284
sI7
F0.5261889
sI8
F1.818368
sI9
F1.143534
sI10
F1.772363
sI11
F0.1744627
ssg31
(dp173
I0
F2458222.976770833
sI1
F2458222.966412037
sI2
F2458222.9535069442
sI3
F2458222.9655671297
sI4
F2458222.9543634257
sI5
F2458222.9638773147
sI6
F2458222.964722222
sI7
F2458222.974224537
sI8
F2458222.955208333
sI9
F2458222.975925926
sI10
F2458222.9560532407
sI11
F2458222.9750694446
ssg33
(dp174
I0
F1.268102583333333
sI1
Fnan
sI2
Fnan
sI3
Fnan
sI4
Fnan
sI5
Fnan
sI6
Fnan
sI7
Fnan
sI8
Fnan
sI9
Fnan
sI10
Fnan
sI11
Fnan
ssg35
(dp175
I0
F1.8075238333333334
sI1
Fnan
sI2
Fnan
sI3
Fnan
sI4
Fnan
sI5
Fnan
sI6
Fnan
sI7
Fnan
sI8
Fnan
sI9
Fnan
sI10
Fnan
sI11
Fnan
ssg37
(dp176
I0
F0.36974138644885807
sI1
F0.3699482943315634
sI2
F0.37507574210671146
sI3
F0.37340545546026244
sI4
F0.3695855961349474
sI5
F0.3743277816297504
sI6
F0.3702881255968162
sI7
F0.37164674800762865
sI8
F0.37042971160299765
sI9
F0.36400669134555363
sI10
F0.37062676680524764
sI11
F0.3722433372598101
ssg39
(dp177
I0
F0.0018455918855014854
sI1
Fnan
sI2
Fnan
sI3
Fnan
sI4
Fnan
sI5
Fnan
sI6
Fnan
sI7
Fnan
sI8
Fnan
sI9
Fnan
sI10
Fnan
sI11
Fnan
ssg41
(dp178
I0
F2.195219275
sI1
Fnan
sI2
Fnan
sI3
Fnan
sI4
Fnan
sI5
Fnan
sI6
Fnan
sI7
Fnan
sI8
Fnan
sI9
Fnan
sI10
Fnan
sI11
Fnan
ssg43
(dp179
I0
g155
sI1
g156
sI2
g157
sI3
g158
sI4
g159
sI5
g160
sI6
g161
sI7
g162
sI8
g163
sI9
g164
sI10
g165
sI11
g166
ssg45
(dp180
I0
F0.0036755780123389143
sI1
Fnan
sI2
Fnan
sI3
Fnan
sI4
Fnan
sI5
Fnan
sI6
Fnan
sI7
Fnan
sI8
Fnan
sI9
Fnan
sI10
Fnan
sI11
Fnan
ssg47
(dp181
I0
F0.029960959445736953
sI1
Fnan
sI2
Fnan
sI3
Fnan
sI4
Fnan
sI5
Fnan
sI6
Fnan
sI7
Fnan
sI8
Fnan
sI9
Fnan
sI10
Fnan
sI11
Fnan
ssg49
(dp182
I0
F1.2012499166666666
sI1
Fnan
sI2
Fnan
sI3
Fnan
sI4
Fnan
sI5
Fnan
sI6
Fnan
sI7
Fnan
sI8
Fnan
sI9
Fnan
sI10
Fnan
sI11
Fnan
ssg51
(dp183
I0
F1.4952139905240303
sI1
F1.5150137836399595
sI2
F1.5190542249703065
sI3
F1.5101349736468042
sI4
F1.505312367530733
sI5
F1.505859003244148
sI6
F1.5110414889056476
sI7
F1.5048140936146763
sI8
F1.5039185572413356
sI9
F1.4974240786795312
sI10
F1.5096359777226636
sI11
F1.4997465813914461
ssg53
(dp184
I0
g155
sI1
g156
sI2
g157
sI3
g158
sI4
g159
sI5
g160
sI6
g161
sI7
g162
sI8
g163
sI9
g164
sI10
g165
sI11
g166
ssg55
(dp185
I0
F0.2485713
sI1
F1.80688
sI2
F2.387774
sI3
F1.559538
sI4
F2.880192
sI5
F2.243264
sI6
F2.751393
sI7
F1.347659
sI8
F2.376291
sI9
F0.4968008
sI10
F2.198845
sI11
F1.369243
ssg57
(dp186
I0
F11.988916666666666
sI1
Fnan
sI2
Fnan
sI3
Fnan
sI4
Fnan
sI5
Fnan
sI6
Fnan
sI7
Fnan
sI8
Fnan
sI9
Fnan
sI10
Fnan
sI11
Fnan
ssg59
(dp187
I0
F0.6873135027183285
sI1
Fnan
sI2
Fnan
sI3
Fnan
sI4
Fnan
sI5
Fnan
sI6
Fnan
sI7
Fnan
sI8
Fnan
sI9
Fnan
sI10
Fnan
sI11
Fnan
ssg61
(dp188
I0
F-2.499377
sI1
F1.955236
sI2
F2.467617
sI3
F1.842551
sI4
F3.863893
sI5
F1.916158
sI6
F-2.071435
sI7
F2.943791
sI8
F2.869921
sI9
F3.22416
sI10
F2.803432
sI11
F2.374339
ssg63
(dp189
I0
F12.32725
sI1
Fnan
sI2
Fnan
sI3
Fnan
sI4
Fnan
sI5
Fnan
sI6
Fnan
sI7
Fnan
sI8
Fnan
sI9
Fnan
sI10
Fnan
sI11
Fnan
ssg65
(dp190
I0
g155
sI1
g156
sI2
g157
sI3
g158
sI4
g159
sI5
g160
sI6
g161
sI7
g162
sI8
g163
sI9
g164
sI10
g165
sI11
g166
ssg67
(dp191
I0
F2875.1377777777775
sI1
F2898.768888888889
sI2
F3018.0733333333333
sI3
F2915.1755555555555
sI4
F3060.3511111111106
sI5
F2936.157777777778
sI6
F2963.8866666666663
sI7
F2882.311111111111
sI8
F3025.1911111111112
sI9
F2810.8733333333334
sI10
F3070.3822222222225
sI11
F2898.5555555555557
ssg69
(dp192
I0
F1.16707
sI1
F1.2017579999999999
sI2
F1.251635
sI3
F1.204832
sI4
F1.248108
sI5
F1.21099
sI6
F1.2078879999999999
sI7
F1.17521
sI8
F1.24463
sI9
F1.169741
sI10
F1.241148
sI11
F1.172455
ssg71
(dp193
I0
F2330.5444444444443
sI1
F2333.682222222222
sI2
F2462.017777777778
sI3
F2384.6244444444446
sI4
F2496.4933333333333
sI5
F2364.326666666667
sI6
F2416.8288888888887
sI7
F2343.317777777778
sI8
F2457.268888888889
sI9
F2309.193333333333
sI10
F2497.4088888888887
sI11
F2345.293333333333
ssg73
(dp194
I0
F3891.804444444445
sI1
F3963.6177777777775
sI2
F4162.277777777777
sI3
F4001.7066666666665
sI4
F4182.393333333333
sI5
F3990.891111111111
sI6
F4065.242222222222
sI7
F3931.8
sI8
F4122.586666666666
sI9
F3833.4555555555557
sI10
F4202.668888888889
sI11
F3932.222222222222
ssg75
(dp195
I0
F0.9761196
sI1
F2.633138
sI2
F2.440911
sI3
F1.280609
sI4
F2.434425
sI5
F1.830404
sI6
F1.837623
sI7
F0.9222474
sI8
F2.040774
sI9
F-0.0580424
sI10
F2.795619
sI11
F1.33599
ssg77
(dp196
I0
F12.581
sI1
F12.58
sI2
F12.522
sI3
F12.556
sI4
F12.507
sI5
F12.566
sI6
F12.542
sI7
F12.575
sI8
F12.524
sI9
F12.591
sI10
F12.506
sI11
F12.575
ssg79
(dp197
I0
F0.003
sI1
F0.003
sI2
F0.003
sI3
F0.003
sI4
F0.003
sI5
F0.003
sI6
F0.003
sI7
F0.003
sI8
F0.003
sI9
F0.003
sI10
F0.003
sI11
F0.003
ssg81
(dp198
I0
F0.3709438030608456
sI1
Fnan
sI2
Fnan
sI3
Fnan
sI4
Fnan
sI5
Fnan
sI6
Fnan
sI7
Fnan
sI8
Fnan
sI9
Fnan
sI10
Fnan
sI11
Fnan
ssg83
(dp199
I0
F12.552083333333334
sI1
Fnan
sI2
Fnan
sI3
Fnan
sI4
Fnan
sI5
Fnan
sI6
Fnan
sI7
Fnan
sI8
Fnan
sI9
Fnan
sI10
Fnan
sI11
Fnan
ssg85
(dp200
I0
F12.353
sI1
F12.344
sI2
F12.301
sI3
F12.338
sI4
F12.286
sI5
F12.331
sI6
F12.32
sI7
F12.351
sI8
F12.298
sI9
F12.378
sI10
F12.282
sI11
F12.345
ssg87
(dp201
I0
F-3.064734
sI1
F2.178652
sI2
F4.435767
sI3
F2.98689
sI4
F-1.978649
sI5
F2.102705
sI6
F4.090847
sI7
F3.297438
sI8
F-3.277445
sI9
F2.089118
sI10
F4.131966
sI11
F-1.775324
ssg89
(dp202
I0
F0.032947501859592936
sI1
Fnan
sI2
Fnan
sI3
Fnan
sI4
Fnan
sI5
Fnan
sI6
Fnan
sI7
Fnan
sI8
Fnan
sI9
Fnan
sI10
Fnan
sI11
Fnan
ssg91
(dp203
I0
F0.6888028205091156
sI1
F0.6801371987847442
sI2
F0.6857652891006878
sI3
F0.6895084715432162
sI4
F0.6893777220728177
sI5
F0.6826360560148751
sI6
F0.6876609967158883
sI7
F0.6877838472450959
sI8
F0.6875616353178922
sI9
F0.6950870048576094
sI10
F0.6867568646873862
sI11
F0.6866841257706133
ssg93
(dp204
I0
F45.0
sI1
F45.0
sI2
F45.0
sI3
F45.0
sI4
F45.0
sI5
F45.0
sI6
F45.0
sI7
F45.0
sI8
F45.0
sI9
F45.0
sI10
F45.0
sI11
F45.0
ssg95
(dp205
I0
F0.004
sI1
F0.004
sI2
F0.004
sI3
F0.004
sI4
F0.004
sI5
F0.004
sI6
F0.004
sI7
F0.004
sI8
F0.004
sI9
F0.004
sI10
F0.004
sI11
F0.004
ssg97
(dp206
I0
F0.003
sI1
F0.003
sI2
F0.003
sI3
F0.003
sI4
F0.003
sI5
F0.003
sI6
F0.003
sI7
F0.003
sI8
F0.003
sI9
F0.004
sI10
F0.003
sI11
F0.003
ssg99
(dp207
I0
F4.861603
sI1
F1.868102
sI2
F4.54069
sI3
F2.972412
sI4
F3.109529
sI5
F-3.011658
sI6
F1.106885
sI7
F-2.420985
sI8
F-1.510943
sI9
F3.624333
sI10
F-2.366379
sI11
F1.64141
ssg101
(dp208
I0
S"KIC8462852-20180414at112633_-35-1-045-z'_cal.fts.mag.1"
p209
sI1
S"KIC8462852-20180414at111138_-35-1-045-z'_cal.fts.mag.1"
p210
sI2
S"KIC8462852-20180414at105302_-35-1-045-z'_cal.fts.mag.1"
p211
sI3
S"KIC8462852-20180414at111025_-35-1-045-z'_cal.fts.mag.1"
p212
sI4
S"KIC8462852-20180414at105417_-35-1-045-z'_cal.fts.mag.1"
p213
sI5
S"KIC8462852-20180414at110758_-35-1-045-z'_cal.fts.mag.1"
p214
sI6
S"KIC8462852-20180414at110912_-35-1-045-z'_cal.fts.mag.1"
p215
sI7
S"KIC8462852-20180414at112251_-35-1-045-z'_cal.fts.mag.1"
p216
sI8
S"KIC8462852-20180414at105530_-35-1-045-z'_cal.fts.mag.1"
p217
sI9
S"KIC8462852-20180414at112520_-35-1-045-z'_cal.fts.mag.1"
p218
sI10
S"KIC8462852-20180414at105643_-35-1-045-z'_cal.fts.mag.1"
p219
sI11
S"KIC8462852-20180414at112406_-35-1-045-z'_cal.fts.mag.1"
p220
ssg115
(dp221
I0
F0.007009023749001324
sI1
Fnan
sI2
Fnan
sI3
Fnan
sI4
Fnan
sI5
Fnan
sI6
Fnan
sI7
Fnan
sI8
Fnan
sI9
Fnan
sI10
Fnan
sI11
Fnan
ssg117
(dp222
I0
F1121.2391111111112
sI1
F1134.0233333333333
sI2
F1205.5395555555556
sI3
F1157.7444444444445
sI4
F1199.8273333333334
sI5
F1159.3400000000001
sI6
F1165.9086666666667
sI7
F1134.442888888889
sI8
F1185.9982222222222
sI9
F1086.3806666666667
sI10
F1207.0646666666667
sI11
F1138.5771111111112
ssg119
(dp223
I0
F0.030660778420211802
sI1
Fnan
sI2
Fnan
sI3
Fnan
sI4
Fnan
sI5
Fnan
sI6
Fnan
sI7
Fnan
sI8
Fnan
sI9
Fnan
sI10
Fnan
sI11
Fnan
ssg121
(dp224
I0
S"z'"
p225
sI1
S"z'"
p226
sI2
S"z'"
p227
sI3
S"z'"
p228
sI4
S"z'"
p229
sI5
S"z'"
p230
sI6
S"z'"
p231
sI7
S"z'"
p232
sI8
S"z'"
p233
sI9
S"z'"
p234
sI10
S"z'"
p235
sI11
S"z'"
p236
ssg135
(dp237
I0
F0.0028598583530671908
sI1
Fnan
sI2
Fnan
sI3
Fnan
sI4
Fnan
sI5
Fnan
sI6
Fnan
sI7
Fnan
sI8
Fnan
sI9
Fnan
sI10
Fnan
sI11
Fnan
ssg137
(dp238
I0
F3.249084
sI1
F1.998359
sI2
F4.450633
sI3
F2.887644
sI4
F-3.36576
sI5
F-0.5997167
sI6
F2.065377
sI7
F2.936311
sI8
F3.231986
sI9
F1.846331
sI10
F3.63311
sI11
F4.009273
ssg139
(dp239
I0
F1.5064307600926068
sI1
Fnan
sI2
Fnan
sI3
Fnan
sI4
Fnan
sI5
Fnan
sI6
Fnan
sI7
Fnan
sI8
Fnan
sI9
Fnan
sI10
Fnan
sI11
Fnan
ssg141
(dp240
I0
F2458222.965144676
sI1
Fnan
sI2
Fnan
sI3
Fnan
sI4
Fnan
sI5
Fnan
sI6
Fnan
sI7
Fnan
sI8
Fnan
sI9
Fnan
sI10
Fnan
sI11
Fnan
ssg143
(dp241
I0
F0.0028598583530671908
sI1
Fnan
sI2
Fnan
sI3
Fnan
sI4
Fnan
sI5
Fnan
sI6
Fnan
sI7
Fnan
sI8
Fnan
sI9
Fnan
sI10
Fnan
sI11
Fnan
ssg145
(dp242
I0
F2.186138
sI1
F1.799058
sI2
F3.098974
sI3
F1.382319
sI4
F2.723886
sI5
F2.225886
sI6
F1.597542
sI7
F1.28633
sI8
F3.346831
sI9
F1.361786
sI10
F1.280765
sI11
F0.7435651
ssg147
(dp243
I0
F12.025
sI1
F12.005
sI2
F11.952
sI3
F11.994
sI4
F11.946
sI5
F11.997
sI6
F11.977
sI7
F12.014
sI8
F11.962
sI9
F12.041
sI10
F11.941
sI11
F12.013
ssg149
(dp244
I0
F0.3709438030608456
sI1
Fnan
sI2
Fnan
sI3
Fnan
sI4
Fnan
sI5
Fnan
sI6
Fnan
sI7
Fnan
sI8
Fnan
sI9
Fnan
sI10
Fnan
sI11
Fnan
sssS'g'
p245
(dp246
g3
(dp247
I0
F0.8570833255857997
sI1
Fnan
sI2
Fnan
sI3
Fnan
sI4
Fnan
sI5
Fnan
sI6
Fnan
sI7
Fnan
sI8
Fnan
sI9
Fnan
sI10
Fnan
sI11
Fnan
ssg5
(dp248
I0
S'NoError'
p249
sI1
S'NoError'
p250
sI2
S'NoError'
p251
sI3
S'NoError'
p252
sI4
S'NoError'
p253
sI5
S'NoError'
p254
sI6
S'NoError'
p255
sI7
S'NoError'
p256
sI8
S'NoError'
p257
sI9
S'NoError'
p258
sI10
S'NoError'
p259
sI11
S'NoError'
p260
ssg19
(dp261
I0
F0.002
sI1
F0.002
sI2
F0.002
sI3
F0.002
sI4
F0.002
sI5
F0.002
sI6
F0.002
sI7
F0.002
sI8
F0.002
sI9
F0.002
sI10
F0.002
sI11
F0.002
ssg21
(dp262
I0
F0.879698743951964
sI1
F0.8798482850592829
sI2
F0.8764923082332995
sI3
F0.8769219126105855
sI4
F0.880785113628984
sI5
F0.8813260643703615
sI6
F0.8753462207756346
sI7
F0.8778107839589665
sI8
F0.8807502801270932
sI9
F0.8825257740502109
sI10
F0.8806985955919873
sI11
F0.8767173572381529
ssg23
(dp263
I0
F0.0023099750742207976
sI1
Fnan
sI2
Fnan
sI3
Fnan
sI4
Fnan
sI5
Fnan
sI6
Fnan
sI7
Fnan
sI8
Fnan
sI9
Fnan
sI10
Fnan
sI11
Fnan
ssg25
(dp264
I0
F0.8790767866330436
sI1
Fnan
sI2
Fnan
sI3
Fnan
sI4
Fnan
sI5
Fnan
sI6
Fnan
sI7
Fnan
sI8
Fnan
sI9
Fnan
sI10
Fnan
sI11
Fnan
ssg27
(dp265
I0
F11.478
sI1
F11.431
sI2
F11.397
sI3
F11.45
sI4
F11.401
sI5
F11.397
sI6
F11.481
sI7
F11.516
sI8
F11.441
sI9
F11.412
sI10
F11.439
sI11
F11.469
ssg29
(dp266
I0
F1.097572
sI1
F4.934869
sI2
F1.852016
sI3
F6.329929
sI4
F2.18258
sI5
F1.577777
sI6
F7.425111
sI7
F1.239157
sI8
F5.703713
sI9
F2.459781
sI10
F1.538815
sI11
F0.650265
ssg31
(dp267
I0
F2458222.9674074072
sI1
F2458222.9492361112
sI2
F2458222.9578935187
sI3
F2458222.9475462963
sI4
F2458222.959583333
sI5
F2458222.9587384257
sI6
F2458222.946701389
sI7
F2458222.9699421297
sI8
F2458222.9483796298
sI9
F2458222.9570486112
sI10
F2458222.9682523147
sI11
F2458222.969108796
ssg33
(dp268
I0
F2.471863416666667
sI1
Fnan
sI2
Fnan
sI3
Fnan
sI4
Fnan
sI5
Fnan
sI6
Fnan
sI7
Fnan
sI8
Fnan
sI9
Fnan
sI10
Fnan
sI11
Fnan
ssg35
(dp269
I0
F1.3238808499999999
sI1
Fnan
sI2
Fnan
sI3
Fnan
sI4
Fnan
sI5
Fnan
sI6
Fnan
sI7
Fnan
sI8
Fnan
sI9
Fnan
sI10
Fnan
sI11
Fnan
ssg37
(dp270
I0
F0.8579958400381088
sI1
F0.8585717934056439
sI2
F0.8547545694645277
sI3
F0.8593806430227428
sI4
F0.8617533966123493
sI5
F0.8572152409517069
sI6
F0.8618887189452679
sI7
F0.8578314274868014
sI8
F0.8560262029342048
sI9
F0.856459989525998
sI10
F0.8559654819001714
sI11
F0.8566320671280917
ssg39
(dp271
I0
F0.0013147362670129065
sI1
Fnan
sI2
Fnan
sI3
Fnan
sI4
Fnan
sI5
Fnan
sI6
Fnan
sI7
Fnan
sI8
Fnan
sI9
Fnan
sI10
Fnan
sI11
Fnan
ssg41
(dp272
I0
F1.3932691416666667
sI1
Fnan
sI2
Fnan
sI3
Fnan
sI4
Fnan
sI5
Fnan
sI6
Fnan
sI7
Fnan
sI8
Fnan
sI9
Fnan
sI10
Fnan
sI11
Fnan
ssg43
(dp273
I0
g249
sI1
g250
sI2
g251
sI3
g252
sI4
g253
sI5
g254
sI6
g255
sI7
g256
sI8
g257
sI9
g258
sI10
g259
sI11
g260
ssg45
(dp274
I0
F0.0022235593967656494
sI1
Fnan
sI2
Fnan
sI3
Fnan
sI4
Fnan
sI5
Fnan
sI6
Fnan
sI7
Fnan
sI8
Fnan
sI9
Fnan
sI10
Fnan
sI11
Fnan
ssg47
(dp275
I0
F0.03964033376002336
sI1
Fnan
sI2
Fnan
sI3
Fnan
sI4
Fnan
sI5
Fnan
sI6
Fnan
sI7
Fnan
sI8
Fnan
sI9
Fnan
sI10
Fnan
sI11
Fnan
ssg49
(dp276
I0
F-0.5754995833333332
sI1
Fnan
sI2
Fnan
sI3
Fnan
sI4
Fnan
sI5
Fnan
sI6
Fnan
sI7
Fnan
sI8
Fnan
sI9
Fnan
sI10
Fnan
sI11
Fnan
ssg51
(dp277
I0
F1.519445747114742
sI1
F1.5206157912348721
sI2
F1.517941538755816
sI3
F1.5226108811720562
sI4
F1.5130158880588513
sI5
F1.5160790956869583
sI6
F1.5255320387477944
sI7
F1.5138584106925466
sI8
F1.5206448259846488
sI9
F1.5105395406136786
sI10
F1.5124249297787373
sI11
F1.5267618135743404
ssg53
(dp278
I0
g249
sI1
g250
sI2
g251
sI3
g252
sI4
g253
sI5
g254
sI6
g255
sI7
g256
sI8
g257
sI9
g258
sI10
g259
sI11
g260
ssg55
(dp279
I0
F1.287184
sI1
F5.618718
sI2
F2.789621
sI3
F6.291067
sI4
F2.708205
sI5
F1.283243
sI6
F8.046737
sI7
F1.248417
sI8
F5.252299
sI9
F2.036387
sI10
F1.338434
sI11
F1.467909
ssg57
(dp280
I0
F10.996
sI1
Fnan
sI2
Fnan
sI3
Fnan
sI4
Fnan
sI5
Fnan
sI6
Fnan
sI7
Fnan
sI8
Fnan
sI9
Fnan
sI10
Fnan
sI11
Fnan
ssg59
(dp281
I0
F0.7141728215463677
sI1
Fnan
sI2
Fnan
sI3
Fnan
sI4
Fnan
sI5
Fnan
sI6
Fnan
sI7
Fnan
sI8
Fnan
sI9
Fnan
sI10
Fnan
sI11
Fnan
ssg61
(dp282
I0
F3.778075
sI1
F2.132841
sI2
F0.4374875
sI3
F2.97512
sI4
F-2.878692
sI5
F1.681903
sI6
F-1.750026
sI7
F0.8264117
sI8
F4.199045
sI9
F3.937943
sI10
F-2.991533
sI11
F3.537995
ssg63
(dp283
I0
F11.371583333333334
sI1
Fnan
sI2
Fnan
sI3
Fnan
sI4
Fnan
sI5
Fnan
sI6
Fnan
sI7
Fnan
sI8
Fnan
sI9
Fnan
sI10
Fnan
sI11
Fnan
ssg65
(dp284
I0
g249
sI1
g250
sI2
g251
sI3
g252
sI4
g253
sI5
g254
sI6
g255
sI7
g256
sI8
g257
sI9
g258
sI10
g259
sI11
g260
ssg67
(dp285
I0
F6880.282222222222
sI1
F7175.2155555555555
sI2
F7422.264444444445
sI3
F7029.56
sI4
F7354.195555555555
sI5
F7425.228888888889
sI6
F6801.448888888889
sI7
F6633.404444444444
sI8
F7140.622222222222
sI9
F7336.295555555555
sI10
F7151.193333333334
sI11
F6926.26
ssg69
(dp286
I0
F1.19826
sI1
F1.269966
sI2
F1.233826
sI3
F1.27745
sI4
F1.227244
sI5
F1.230513
sI6
F1.281247
sI7
F1.18946
sI8
F1.273685
sI9
F1.237187
sI10
F1.195268
sI11
F1.192356
ssg71
(dp287
I0
F5918.688888888889
sI1
F6166.39111111111
sI2
F6425.922222222222
sI3
F6064.086666666667
sI4
F6339.666666666667
sI5
F6382.968888888889
sI6
F5872.648888888889
sI7
F5744.397777777777
sI8
F6127.10888888889
sI9
F6315.153333333334
sI10
F6167.817777777777
sI11
F5961.879999999999
ssg73
(dp288
I0
F9723.67111111111
sI1
F10143.728888888889
sI2
F10510.368888888888
sI3
F9968.264444444445
sI4
F10359.515555555556
sI5
F10467.16
sI6
F9667.371111111112
sI7
F9369.12
sI8
F10087.753333333334
sI9
F10310.526666666667
sI10
F10072.002222222221
sI11
F9838.56
ssg75
(dp289
I0
F1.110922
sI1
F4.784623
sI2
F1.522631
sI3
F6.184258
sI4
F2.225823
sI5
F2.027587
sI6
F8.301376
sI7
F0.9766586
sI8
F5.414727
sI9
F1.694587
sI10
F0.8126878
sI11
F1.493967
ssg77
(dp290
I0
F11.569
sI1
F11.525
sI2
F11.48
sI3
F11.543
sI4
F11.495
sI5
F11.487
sI6
F11.578
sI7
F11.602
sI8
F11.532
sI9
F11.499
sI10
F11.525
sI11
F11.562
ssg79
(dp291
I0
F0.002
sI1
F0.002
sI2
F0.002
sI3
F0.002
sI4
F0.002
sI5
F0.002
sI6
F0.002
sI7
F0.002
sI8
F0.002
sI9
F0.002
sI10
F0.002
sI11
F0.002
ssg81
(dp292
I0
F0.8578729476179677
sI1
Fnan
sI2
Fnan
sI3
Fnan
sI4
Fnan
sI5
Fnan
sI6
Fnan
sI7
Fnan
sI8
Fnan
sI9
Fnan
sI10
Fnan
sI11
Fnan
ssg83
(dp293
I0
F11.533083333333332
sI1
Fnan
sI2
Fnan
sI3
Fnan
sI4
Fnan
sI5
Fnan
sI6
Fnan
sI7
Fnan
sI8
Fnan
sI9
Fnan
sI10
Fnan
sI11
Fnan
ssg85
(dp294
I0
F11.406
sI1
F11.36
sI2
F11.324
sI3
F11.383
sI4
F11.334
sI5
F11.323
sI6
F11.418
sI7
F11.446
sI8
F11.366
sI9
F11.336
sI10
F11.364
sI11
F11.399
ssg87
(dp295
I0
F4.166987
sI1
F3.526537
sI2
F3.713967
sI3
F3.802759
sI4
F2.854466
sI5
F-1.909735
sI6
F3.612058
sI7
F-4.081427
sI8
F4.281045
sI9
F1.305049
sI10
F4.269686
sI11
F4.120969
ssg89
(dp296
I0
F0.03786339081007369
sI1
Fnan
sI2
Fnan
sI3
Fnan
sI4
Fnan
sI5
Fnan
sI6
Fnan
sI7
Fnan
sI8
Fnan
sI9
Fnan
sI10
Fnan
sI11
Fnan
ssg91
(dp297
I0
F0.7129252618419255
sI1
F0.7120977991345379
sI2
F0.7166735752386866
sI3
F0.7135132718291661
sI4
F0.7157920355481066
sI5
F0.7134842561859014
sI6
F0.7131839304684718
sI7
F0.7179364478049018
sI8
F0.7112810919556615
sI9
F0.7157269738209083
sI10
F0.7162222315693643
sI11
F0.7112369831587813
ssg93
(dp298
I0
F45.0
sI1
F45.0
sI2
F45.0
sI3
F45.0
sI4
F45.0
sI5
F45.0
sI6
F45.0
sI7
F45.0
sI8
F45.0
sI9
F45.0
sI10
F45.0
sI11
F45.0
ssg95
(dp299
I0
F0.002
sI1
F0.002
sI2
F0.002
sI3
F0.002
sI4
F0.002
sI5
F0.002
sI6
F0.002
sI7
F0.002
sI8
F0.002
sI9
F0.002
sI10
F0.002
sI11
F0.002
ssg97
(dp300
I0
F0.002
sI1
F0.002
sI2
F0.002
sI3
F0.002
sI4
F0.002
sI5
F0.002
sI6
F0.002
sI7
F0.002
sI8
F0.002
sI9
F0.002
sI10
F0.002
sI11
F0.002
ssg99
(dp301
I0
F-3.191638
sI1
F2.664869
sI2
F-2.178493
sI3
F-2.864013
sI4
F-4.107663
sI5
F1.36819
sI6
F3.14164
sI7
F-1.794593
sI8
F3.055773
sI9
F-1.806942
sI10
F1.271843
sI11
F-2.464968
ssg101
(dp302
I0
S"KIC8462852-20180414at111255_-35-1-045-g'_cal.fts.mag.1"
p303
sI1
S"KIC8462852-20180414at104653_-35-1-045-g'_cal.fts.mag.1"
p304
sI2
S"KIC8462852-20180414at105922_-35-1-045-g'_cal.fts.mag.1"
p305
sI3
S"KIC8462852-20180414at104428_-36-1-045-g'_cal.fts.mag.1"
p306
sI4
S"KIC8462852-20180414at110148_-35-1-045-g'_cal.fts.mag.1"
p307
sI5
S"KIC8462852-20180414at110035_-35-1-045-g'_cal.fts.mag.1"
p308
sI6
S"KIC8462852-20180414at104310_-36-1-045-g'_cal.fts.mag.1"
p309
sI7
S"KIC8462852-20180414at111643_-35-1-045-g'_cal.fts.mag.1"
p310
sI8
S"KIC8462852-20180414at104540_-36-1-045-g'_cal.fts.mag.1"
p311
sI9
S"KIC8462852-20180414at105800_-35-1-045-g'_cal.fts.mag.1"
p312
sI10
S"KIC8462852-20180414at111417_-35-1-045-g'_cal.fts.mag.1"
p313
sI11
S"KIC8462852-20180414at111531_-35-1-045-g'_cal.fts.mag.1"
p314
ssg115
(dp315
I0
F0.005240683957826129
sI1
Fnan
sI2
Fnan
sI3
Fnan
sI4
Fnan
sI5
Fnan
sI6
Fnan
sI7
Fnan
sI8
Fnan
sI9
Fnan
sI10
Fnan
sI11
Fnan
ssg117
(dp316
I0
F6441.444444444444
sI1
F6721.282222222222
sI2
F6940.195555555555
sI3
F6606.320000000001
sI4
F6909.360000000001
sI5
F6936.402222222222
sI6
F6418.620000000001
sI7
F6218.397777777778
sI8
F6664.302222222222
sI9
F6840.8244444444435
sI10
F6673.966666666666
sI11
F6489.473333333333
ssg119
(dp317
I0
F0.03893691478960973
sI1
Fnan
sI2
Fnan
sI3
Fnan
sI4
Fnan
sI5
Fnan
sI6
Fnan
sI7
Fnan
sI8
Fnan
sI9
Fnan
sI10
Fnan
sI11
Fnan
ssg121
(dp318
I0
S"g'"
p319
sI1
S"g'"
p320
sI2
S"g'"
p321
sI3
S"g'"
p322
sI4
S"g'"
p323
sI5
S"g'"
p324
sI6
S"g'"
p325
sI7
S"g'"
p326
sI8
S"g'"
p327
sI9
S"g'"
p328
sI10
S"g'"
p329
sI11
S"g'"
p330
ssg135
(dp331
I0
F0.0022300560083876437
sI1
Fnan
sI2
Fnan
sI3
Fnan
sI4
Fnan
sI5
Fnan
sI6
Fnan
sI7
Fnan
sI8
Fnan
sI9
Fnan
sI10
Fnan
sI11
Fnan
ssg137
(dp332
I0
F3.793715
sI1
F3.074905
sI2
F2.929323
sI3
F3.689956
sI4
F-0.7574673
sI5
F-1.280755
sI6
F3.394757
sI7
F-2.848901
sI8
F1.841278
sI9
F1.704564
sI10
F-1.372873
sI11
F2.550728
ssg139
(dp333
I0
F1.5182892084512531
sI1
Fnan
sI2
Fnan
sI3
Fnan
sI4
Fnan
sI5
Fnan
sI6
Fnan
sI7
Fnan
sI8
Fnan
sI9
Fnan
sI10
Fnan
sI11
Fnan
ssg141
(dp334
I0
F2458222.9583159722
sI1
Fnan
sI2
Fnan
sI3
Fnan
sI4
Fnan
sI5
Fnan
sI6
Fnan
sI7
Fnan
sI8
Fnan
sI9
Fnan
sI10
Fnan
sI11
Fnan
ssg143
(dp335
I0
F0.0022300560083876437
sI1
Fnan
sI2
Fnan
sI3
Fnan
sI4
Fnan
sI5
Fnan
sI6
Fnan
sI7
Fnan
sI8
Fnan
sI9
Fnan
sI10
Fnan
sI11
Fnan
ssg145
(dp336
I0
F2.131472
sI1
F5.8083
sI2
F1.947449
sI3
F7.690209
sI4
F2.693178
sI5
F2.175008
sI6
F9.874424
sI7
F2.375305
sI8
F6.886935
sI9
F3.502124
sI10
F1.982371
sI11
F0.8846863
ssg147
(dp337
I0
F11.03
sI1
F10.985
sI2
F10.946
sI3
F11.003
sI4
F10.962
sI5
F10.95
sI6
F11.037
sI7
F11.071
sI8
F10.991
sI9
F10.967
sI10
F10.992
sI11
F11.018
ssg149
(dp338
I0
F0.8578729476179677
sI1
Fnan
sI2
Fnan
sI3
Fnan
sI4
Fnan
sI5
Fnan
sI6
Fnan
sI7
Fnan
sI8
Fnan
sI9
Fnan
sI10
Fnan
sI11
Fnan
sssS'V'
p339
(dp340
g3
(dp341
I0
F0.6868015662968843
sI1
Fnan
sI2
Fnan
sI3
Fnan
sI4
Fnan
sI5
Fnan
sI6
Fnan
sI7
Fnan
sI8
Fnan
sI9
Fnan
sI10
Fnan
sI11
Fnan
ssg5
(dp342
I0
S'NoError'
p343
sI1
S'NoError'
p344
sI2
S'NoError'
p345
sI3
S'NoError'
p346
sI4
S'NoError'
p347
sI5
S'NoError'
p348
sI6
S'NoError'
p349
sI7
S'NoError'
p350
sI8
S'NoError'
p351
sI9
S'NoError'
p352
sI10
S'NoError'
p353
sI11
S'NoError'
p354
ssg19
(dp355
I0
F0.002
sI1
F0.002
sI2
F0.002
sI3
F0.002
sI4
F0.002
sI5
F0.002
sI6
F0.002
sI7
F0.002
sI8
F0.002
sI9
F0.002
sI10
F0.002
sI11
F0.002
ssg21
(dp356
I0
F0.8840866574948342
sI1
F0.886564380830369
sI2
F0.8847925729690518
sI3
F0.8831010191258517
sI4
F0.8841622982077362
sI5
F0.8848864657569377
sI6
F0.8878034823618165
sI7
F0.8877941313692848
sI8
F0.8864980476087476
sI9
F0.887339117188954
sI10
F0.8845153307468404
sI11
F0.8891216456836416
ssg23
(dp357
I0
F0.0018774173048948218
sI1
Fnan
sI2
Fnan
sI3
Fnan
sI4
Fnan
sI5
Fnan
sI6
Fnan
sI7
Fnan
sI8
Fnan
sI9
Fnan
sI10
Fnan
sI11
Fnan
ssg25
(dp358
I0
F0.8858887624453388
sI1
Fnan
sI2
Fnan
sI3
Fnan
sI4
Fnan
sI5
Fnan
sI6
Fnan
sI7
Fnan
sI8
Fnan
sI9
Fnan
sI10
Fnan
sI11
Fnan
ssg27
(dp359
I0
F11.484
sI1
F11.429
sI2
F11.4
sI3
F11.476
sI4
F11.424
sI5
F11.4
sI6
F11.411
sI7
F11.441
sI8
F11.517
sI9
F11.482
sI10
F11.502
sI11
F11.506
ssg29
(dp360
I0
F7.816651
sI1
F3.409782
sI2
F6.647427
sI3
F6.996075
sI4
F3.9533
sI5
F7.153804
sI6
F5.86453
sI7
F4.789838
sI8
F7.152167
sI9
F5.56285
sI10
F6.882899
sI11
F7.074953
ssg31
(dp361
I0
F2458222.9286458334
sI1
F2458222.9900115742
sI2
F2458222.992534722
sI3
F2458222.9278125
sI4
F2458222.9891782408
sI5
F2458222.9933796297
sI6
F2458222.9917013887
sI7
F2458222.9908564813
sI8
F2458222.9311689814
sI9
F2458222.929490741
sI10
F2458222.930324074
sI11
F2458222.932013889
ssg33
(dp362
I0
F1.5546731666666667
sI1
Fnan
sI2
Fnan
sI3
Fnan
sI4
Fnan
sI5
Fnan
sI6
Fnan
sI7
Fnan
sI8
Fnan
sI9
Fnan
sI10
Fnan
sI11
Fnan
ssg35
(dp363
I0
F2.0992500166666663
sI1
Fnan
sI2
Fnan
sI3
Fnan
sI4
Fnan
sI5
Fnan
sI6
Fnan
sI7
Fnan
sI8
Fnan
sI9
Fnan
sI10
Fnan
sI11
Fnan
ssg37
(dp364
I0
F0.6841788188136845
sI1
F0.6890324152080405
sI2
F0.6870115790599776
sI3
F0.6869340082846989
sI4
F0.6858050048935727
sI5
F0.6871618308578998
sI6
F0.686362693492995
sI7
F0.6871824012954235
sI8
F0.6889950961904889
sI9
F0.687924335723491
sI10
F0.6868115398057663
sI11
F0.6860207032581339
ssg39
(dp365
I0
F0.0006139737418278853
sI1
Fnan
sI2
Fnan
sI3
Fnan
sI4
Fnan
sI5
Fnan
sI6
Fnan
sI7
Fnan
sI8
Fnan
sI9
Fnan
sI10
Fnan
sI11
Fnan
ssg41
(dp366
I0
F1.8117211666666666
sI1
Fnan
sI2
Fnan
sI3
Fnan
sI4
Fnan
sI5
Fnan
sI6
Fnan
sI7
Fnan
sI8
Fnan
sI9
Fnan
sI10
Fnan
sI11
Fnan
ssg43
(dp367
I0
g343
sI1
g344
sI2
g345
sI3
g346
sI4
g347
sI5
g348
sI6
g349
sI7
g350
sI8
g351
sI9
g352
sI10
g353
sI11
g354
ssg45
(dp368
I0
F0.002137659252521548
sI1
Fnan
sI2
Fnan
sI3
Fnan
sI4
Fnan
sI5
Fnan
sI6
Fnan
sI7
Fnan
sI8
Fnan
sI9
Fnan
sI10
Fnan
sI11
Fnan
ssg47
(dp369
I0
F0.04305062206990798
sI1
Fnan
sI2
Fnan
sI3
Fnan
sI4
Fnan
sI5
Fnan
sI6
Fnan
sI7
Fnan
sI8
Fnan
sI9
Fnan
sI10
Fnan
sI11
Fnan
ssg49
(dp370
I0
F1.4938793333333333
sI1
Fnan
sI2
Fnan
sI3
Fnan
sI4
Fnan
sI5
Fnan
sI6
Fnan
sI7
Fnan
sI8
Fnan
sI9
Fnan
sI10
Fnan
sI11
Fnan
ssg51
(dp371
I0
F1.508143924878624
sI1
F1.5032042595220043
sI2
F1.5073511834382853
sI3
F1.5091223072484488
sI4
F1.5053636238599426
sI5
F1.5050799778275712
sI6
F1.5043070025543064
sI7
F1.5015149772512686
sI8
F1.5086695911975205
sI9
F1.5073883926674785
sI10
F1.512580943544528
sI11
F1.5101477592690253
ssg53
(dp372
I0
g343
sI1
g344
sI2
g345
sI3
g346
sI4
g347
sI5
g348
sI6
g349
sI7
g350
sI8
g351
sI9
g352
sI10
g353
sI11
g354
ssg55
(dp373
I0
F7.593802
sI1
F5.666142
sI2
F6.368739
sI3
F8.41622
sI4
F4.103817
sI5
F8.210985
sI6
F6.572398
sI7
F5.582371
sI8
F9.189094
sI9
F6.870432
sI10
F9.067053
sI11
F7.464073
ssg57
(dp374
I0
F10.772583333333332
sI1
Fnan
sI2
Fnan
sI3
Fnan
sI4
Fnan
sI5
Fnan
sI6
Fnan
sI7
Fnan
sI8
Fnan
sI9
Fnan
sI10
Fnan
sI11
Fnan
ssg59
(dp375
I0
F0.7149263469149042
sI1
Fnan
sI2
Fnan
sI3
Fnan
sI4
Fnan
sI5
Fnan
sI6
Fnan
sI7
Fnan
sI8
Fnan
sI9
Fnan
sI10
Fnan
sI11
Fnan
ssg61
(dp376
I0
F3.499148
sI1
F1.49464
sI2
F3.685224
sI3
F2.660848
sI4
F-0.4396558
sI5
F3.544761
sI6
F1.596855
sI7
F2.205424
sI8
F4.141744
sI9
F2.700512
sI10
F3.091865
sI11
F-2.990365
ssg63
(dp377
I0
F11.137583333333334
sI1
Fnan
sI2
Fnan
sI3
Fnan
sI4
Fnan
sI5
Fnan
sI6
Fnan
sI7
Fnan
sI8
Fnan
sI9
Fnan
sI10
Fnan
sI11
Fnan
ssg65
(dp378
I0
g343
sI1
g344
sI2
g345
sI3
g346
sI4
g347
sI5
g348
sI6
g349
sI7
g350
sI8
g351
sI9
g352
sI10
g353
sI11
g354
ssg67
(dp379
I0
F8605.975555555557
sI1
F9011.65111111111
sI2
F9270.011111111111
sI3
F8628.788888888888
sI4
F9071.68888888889
sI5
F9262.482222222223
sI6
F9205.422222222222
sI7
F8943.482222222223
sI8
F8306.226666666667
sI9
F8598.031111111111
sI10
F8438.417777777777
sI11
F8441.64
ssg69
(dp380
I0
F1.372357
sI1
F1.1287639999999999
sI2
F1.122185
sI3
F1.377092
sI4
F1.131024
sI5
F1.120044
sI6
F1.124352
sI7
F1.126543
sI8
F1.358414
sI9
F1.3676760000000001
sI10
F1.363011
sI11
F1.3538569999999999
ssg71
(dp381
I0
F7399.4111111111115
sI1
F7739.315555555556
sI2
F7964.704444444445
sI3
F7426.968888888889
sI4
F7812.211111111111
sI5
F7968.126666666667
sI6
F7883.802222222222
sI7
F7672.828888888888
sI8
F7110.237777777778
sI9
F7355.3711111111115
sI10
F7230.253333333334
sI11
F7187.535555555555
ssg73
(dp382
I0
F12069.213333333333
sI1
F12590.062222222223
sI2
F12989.384444444446
sI3
F12115.051111111112
sI4
F12708.204444444444
sI5
F12966.722222222223
sI6
F12853.720000000001
sI7
F12474.82
sI8
F11629.175555555556
sI9
F12023.986666666668
sI10
F11850.066666666668
sI11
F11801.182222222222
ssg75
(dp383
I0
F7.106542
sI1
F4.356363
sI2
F7.145102
sI3
F7.149859
sI4
F4.123799
sI5
F7.472618
sI6
F6.147615
sI7
F5.955245
sI8
F7.817842
sI9
F6.71744
sI10
F7.652616
sI11
F8.09706
ssg77
(dp384
I0
F11.327
sI1
F11.278
sI2
F11.247
sI3
F11.323
sI4
F11.268
sI5
F11.247
sI6
F11.258
sI7
F11.288
sI8
F11.37
sI9
F11.333
sI10
F11.352
sI11
F11.359
ssg79
(dp385
I0
F0.001
sI1
F0.001
sI2
F0.001
sI3
F0.001
sI4
F0.001
sI5
F0.001
sI6
F0.001
sI7
F0.001
sI8
F0.001
sI9
F0.001
sI10
F0.001
sI11
F0.001
ssg81
(dp386
I0
F0.6869517022403477
sI1
Fnan
sI2
Fnan
sI3
Fnan
sI4
Fnan
sI5
Fnan
sI6
Fnan
sI7
Fnan
sI8
Fnan
sI9
Fnan
sI10
Fnan
sI11
Fnan
ssg83
(dp387
I0
F11.304166666666667
sI1
Fnan
sI2
Fnan
sI3
Fnan
sI4
Fnan
sI5
Fnan
sI6
Fnan
sI7
Fnan
sI8
Fnan
sI9
Fnan
sI10
Fnan
sI11
Fnan
ssg85
(dp388
I0
F11.163
sI1
F11.113
sI2
F11.082
sI3
F11.16
sI4
F11.106
sI5
F11.083
sI6
F11.09
sI7
F11.121
sI8
F11.201
sI9
F11.164
sI10
F11.184
sI11
F11.184
ssg87
(dp389
I0
F-2.464991
sI1
F-2.774931
sI2
F2.841042
sI3
F4.715494
sI4
F-2.85542
sI5
F4.860307
sI6
F4.775189
sI7
F1.61649
sI8
F-3.11909
sI9
F2.679425
sI10
F4.56605
sI11
F3.816513
ssg89
(dp390
I0
F0.04244881052693386
sI1
Fnan
sI2
Fnan
sI3
Fnan
sI4
Fnan
sI5
Fnan
sI6
Fnan
sI7
Fnan
sI8
Fnan
sI9
Fnan
sI10
Fnan
sI11
Fnan
ssg91
(dp391
I0
F0.7157768812538056
sI1
F0.7165464550085585
sI2
F0.7156263003248166
sI3
F0.7160649994300852
sI4
F0.7173782710087755
sI5
F0.7169061480882706
sI6
F0.7147877413184394
sI7
F0.7164740518908231
sI8
F0.7133277471424092
sI9
F0.7133512530512156
sI10
F0.7127445475912007
sI11
F0.7101317668704518
ssg93
(dp392
I0
F45.0
sI1
F45.0
sI2
F45.0
sI3
F45.0
sI4
F45.0
sI5
F45.0
sI6
F45.0
sI7
F45.0
sI8
F45.0
sI9
F45.0
sI10
F45.0
sI11
F45.0
ssg95
(dp393
I0
F0.002
sI1
F0.002
sI2
F0.002
sI3
F0.002
sI4
F0.002
sI5
F0.002
sI6
F0.002
sI7
F0.002
sI8
F0.002
sI9
F0.002
sI10
F0.002
sI11
F0.002
ssg97
(dp394
I0
F0.002
sI1
F0.002
sI2
F0.002
sI3
F0.002
sI4
F0.002
sI5
F0.002
sI6
F0.002
sI7
F0.002
sI8
F0.002
sI9
F0.002
sI10
F0.002
sI11
F0.002
ssg99
(dp395
I0
F3.652174
sI1
F-1.904925
sI2
F2.972615
sI3
F2.20826
sI4
F4.084521
sI5
F2.831387
sI6
F-2.26712
sI7
F-2.454451
sI8
F-2.780295
sI9
F3.683191
sI10
F3.364981
sI11
F4.536214
ssg101
(dp396
I0
S'KIC8462852-20180414at101715_-35-1-045-V_cal.fts.mag.1'
p397
sI1
S'KIC8462852-20180414at114537_-35-1-045-V_cal.fts.mag.1'
p398
sI2
S'KIC8462852-20180414at114915_-35-1-045-V_cal.fts.mag.1'
p399
sI3
S'KIC8462852-20180414at101556_-35-1-045-V_cal.fts.mag.1'
p400
sI4
S'KIC8462852-20180414at114418_-35-1-045-V_cal.fts.mag.1'
p401
sI5
S'KIC8462852-20180414at115028_-35-1-045-V_cal.fts.mag.1'
p402
sI6
S'KIC8462852-20180414at114803_-35-1-045-V_cal.fts.mag.1'
p403
sI7
S'KIC8462852-20180414at114650_-35-1-045-V_cal.fts.mag.1'
p404
sI8
S'KIC8462852-20180414at102053_-35-1-045-V_cal.fts.mag.1'
p405
sI9
S'KIC8462852-20180414at101828_-35-1-045-V_cal.fts.mag.1'
p406
sI10
S'KIC8462852-20180414at101940_-35-1-045-V_cal.fts.mag.1'
p407
sI11
S'KIC8462852-20180414at102206_-35-1-045-V_cal.fts.mag.1'
p408
ssg115
(dp409
I0
F0.0031324356699669333
sI1
Fnan
sI2
Fnan
sI3
Fnan
sI4
Fnan
sI5
Fnan
sI6
Fnan
sI7
Fnan
sI8
Fnan
sI9
Fnan
sI10
Fnan
sI11
Fnan
ssg117
(dp410
I0
F6402.682222222223
sI1
F6738.973333333333
sI2
F6921.435555555555
sI3
F6450.495555555555
sI4
F6764.804444444445
sI5
F6916.817777777777
sI6
F6850.573333333333
sI7
F6663.637777777778
sI8
F6211.437777777778
sI9
F6415.442222222223
sI10
F6300.062222222222
sI11
F6272.597777777778
ssg119
(dp411
I0
F0.04498248817511366
sI1
Fnan
sI2
Fnan
sI3
Fnan
sI4
Fnan
sI5
Fnan
sI6
Fnan
sI7
Fnan
sI8
Fnan
sI9
Fnan
sI10
Fnan
sI11
Fnan
ssg121
(dp412
I0
g339
sI1
g339
sI2
g339
sI3
g339
sI4
g339
sI5
g339
sI6
g339
sI7
g339
sI8
g339
sI9
g339
sI10
g339
sI11
g339
ssg135
(dp413
I0
F0.0013412764884049263
sI1
Fnan
sI2
Fnan
sI3
Fnan
sI4
Fnan
sI5
Fnan
sI6
Fnan
sI7
Fnan
sI8
Fnan
sI9
Fnan
sI10
Fnan
sI11
Fnan
ssg137
(dp414
I0
F2.389183
sI1
F5.21038
sI2
F-2.561744
sI3
F-2.726111
sI4
F1.752692
sI5
F3.498045
sI6
F-2.583838
sI7
F2.994503
sI8
F3.130214
sI9
F3.038016
sI10
F3.91348
sI11
F3.685834
ssg139
(dp415
I0
F1.5069061619382502
sI1
Fnan
sI2
Fnan
sI3
Fnan
sI4
Fnan
sI5
Fnan
sI6
Fnan
sI7
Fnan
sI8
Fnan
sI9
Fnan
sI10
Fnan
sI11
Fnan
ssg141
(dp416
I0
F2458222.960596065
sI1
Fnan
sI2
Fnan
sI3
Fnan
sI4
Fnan
sI5
Fnan
sI6
Fnan
sI7
Fnan
sI8
Fnan
sI9
Fnan
sI10
Fnan
sI11
Fnan
ssg143
(dp417
I0
F0.0013412764884049263
sI1
Fnan
sI2
Fnan
sI3
Fnan
sI4
Fnan
sI5
Fnan
sI6
Fnan
sI7
Fnan
sI8
Fnan
sI9
Fnan
sI10
Fnan
sI11
Fnan
ssg145
(dp418
I0
F9.266987
sI1
F5.436435
sI2
F7.589169
sI3
F9.128963
sI4
F5.300432
sI5
F8.988654
sI6
F6.995494
sI7
F6.973567
sI8
F11.47375
sI9
F9.307615
sI10
F10.76087
sI11
F10.28055
ssg147
(dp419
I0
F10.796
sI1
F10.75
sI2
F10.716
sI3
F10.792
sI4
F10.74
sI5
F10.718
sI6
F10.727
sI7
F10.76
sI8
F10.836
sI9
F10.8
sI10
F10.816
sI11
F10.82
ssg149
(dp420
I0
F0.6869517022403477
sI1
Fnan
sI2
Fnan
sI3
Fnan
sI4
Fnan
sI5
Fnan
sI6
Fnan
sI7
Fnan
sI8
Fnan
sI9
Fnan
sI10
Fnan
sI11
Fnan
sss.