(dp0
S'r'
p1
(dp2
S'sigmean'
p3
(dp4
I0
F0.5438494097853915
sI1
Fnan
sI2
Fnan
sI3
Fnan
sI4
Fnan
sI5
Fnan
sI6
Fnan
sI7
Fnan
sI8
Fnan
sI9
Fnan
sI10
Fnan
sI11
Fnan
sI12
Fnan
sI13
Fnan
sI14
Fnan
sI15
Fnan
sI16
Fnan
sI17
Fnan
sI18
Fnan
sI19
Fnan
sI20
Fnan
sI21
Fnan
sI22
Fnan
sI23
Fnan
sI24
Fnan
sI25
Fnan
ssS'ref3flag'
p5
(dp6
I0
S'NoError'
p7
sI1
S'NoError'
p8
sI2
S'NoError'
p9
sI3
S'NoError'
p10
sI4
S'NoError'
p11
sI5
S'NoError'
p12
sI6
S'NoError'
p13
sI7
S'NoError'
p14
sI8
S'NoError'
p15
sI9
S'NoError'
p16
sI10
S'NoError'
p17
sI11
S'NoError'
p18
sI12
S'NoError'
p19
sI13
S'NoError'
p20
sI14
S'NoError'
p21
sI15
S'NoError'
p22
sI16
S'NoError'
p23
sI17
S'NoError'
p24
sI18
S'NoError'
p25
sI19
S'NoError'
p26
sI20
S'NoError'
p27
sI21
S'NoError'
p28
sI22
S'NoError'
p29
sI23
S'NoError'
p30
sI24
S'NoError'
p31
sI25
S'NoError'
p32
ssS'tabbyerr'
p33
(dp34
I0
F0.002
sI1
F0.002
sI2
F0.002
sI3
F0.002
sI4
F0.003
sI5
F0.002
sI6
F0.002
sI7
F0.002
sI8
F0.002
sI9
F0.003
sI10
F0.002
sI11
F0.002
sI12
F0.002
sI13
F0.002
sI14
F0.002
sI15
F0.002
sI16
F0.002
sI17
F0.002
sI18
F0.002
sI19
F0.003
sI20
F0.002
sI21
F0.002
sI22
F0.002
sI23
F0.002
sI24
F0.002
sI25
F0.002
ssS'ref2rel'
p35
(dp36
I0
F0.8957079653518215
sI1
F0.8975805344739524
sI2
F0.8956892250097289
sI3
F0.8948785690160134
sI4
F0.8942745607366797
sI5
F0.8926738661312795
sI6
F0.8911223904190428
sI7
F0.8972551715911611
sI8
F0.8914192528127529
sI9
F0.8969360055144728
sI10
F0.898661506058445
sI11
F0.8930791676515525
sI12
F0.8898110695397882
sI13
F0.8916292154579841
sI14
F0.89895006954148
sI15
F0.8988369106420436
sI16
F0.8992086217891433
sI17
F0.8970586670333687
sI18
F0.8971944606479342
sI19
F0.8959223095935375
sI20
F0.8933454437064801
sI21
F0.8928952726238082
sI22
F0.8955124809860667
sI23
F0.9009521896079258
sI24
F0.8974584941759746
sI25
F0.8965969107350353
ssS'ref2err'
p37
(dp38
I0
F0.002876122125323969
sI1
Fnan
sI2
Fnan
sI3
Fnan
sI4
Fnan
sI5
Fnan
sI6
Fnan
sI7
Fnan
sI8
Fnan
sI9
Fnan
sI10
Fnan
sI11
Fnan
sI12
Fnan
sI13
Fnan
sI14
Fnan
sI15
Fnan
sI16
Fnan
sI17
Fnan
sI18
Fnan
sI19
Fnan
sI20
Fnan
sI21
Fnan
sI22
Fnan
sI23
Fnan
sI24
Fnan
sI25
Fnan
ssS'ref2mean'
p39
(dp40
I0
F0.8955634742633644
sI1
Fnan
sI2
Fnan
sI3
Fnan
sI4
Fnan
sI5
Fnan
sI6
Fnan
sI7
Fnan
sI8
Fnan
sI9
Fnan
sI10
Fnan
sI11
Fnan
sI12
Fnan
sI13
Fnan
sI14
Fnan
sI15
Fnan
sI16
Fnan
sI17
Fnan
sI18
Fnan
sI19
Fnan
sI20
Fnan
sI21
Fnan
sI22
Fnan
sI23
Fnan
sI24
Fnan
sI25
Fnan
ssS'tabbymag'
p41
(dp42
I0
F11.252
sI1
F11.247
sI2
F11.309
sI3
F11.279
sI4
F11.375
sI5
F11.268
sI6
F11.254
sI7
F11.318
sI8
F11.28
sI9
F11.324
sI10
F11.295
sI11
F11.268
sI12
F11.265
sI13
F11.252
sI14
F11.275
sI15
F11.316
sI16
F11.273
sI17
F11.297
sI18
F11.285
sI19
F11.389
sI20
F11.3
sI21
F11.238
sI22
F11.276
sI23
F11.287
sI24
F11.289
sI25
F11.304
ssS'tabbybkg'
p43
(dp44
I0
F21.39696
sI1
F22.6295
sI2
F22.77229
sI3
F21.72078
sI4
F32.53925
sI5
F23.81171
sI6
F22.69939
sI7
F31.14145
sI8
F23.62859
sI9
F28.90972
sI10
F26.58185
sI11
F21.31951
sI12
F22.21551
sI13
F23.90959
sI14
F22.94413
sI15
F30.06539
sI16
F22.95381
sI17
F22.27894
sI18
F24.76663
sI19
F32.41695
sI20
F27.22825
sI21
F21.13365
sI22
F24.46508
sI23
F26.57395
sI24
F26.55876
sI25
F27.17085
ssS'JD'
p45
(dp46
I0
F2458211.999675926
sI1
F2458211.9793518516
sI2
F2458211.980555556
sI3
F2458211.9933796297
sI4
F2458211.937361111
sI5
F2458211.968761574
sI6
F2458211.9817708335
sI7
F2458211.9385648146
sI8
F2458211.968148148
sI9
F2458211.9391666665
sI10
F2458211.956354167
sI11
F2458211.9939930555
sI12
F2458211.9946064814
sI13
F2458211.969375
sI14
F2458212.0002893517
sI15
F2458211.939780093
sI16
F2458211.979953704
sI17
F2458211.9811574076
sI18
F2458211.9669328704
sI19
F2458211.937962963
sI20
F2458211.954537037
sI21
F2458211.999085648
sI22
F2458211.9675347223
sI23
F2458211.955752315
sI24
F2458211.9569560187
sI25
F2458211.955150463
ssS'ref3rmsmean'
p47
(dp48
I0
F2.646750423076923
sI1
Fnan
sI2
Fnan
sI3
Fnan
sI4
Fnan
sI5
Fnan
sI6
Fnan
sI7
Fnan
sI8
Fnan
sI9
Fnan
sI10
Fnan
sI11
Fnan
sI12
Fnan
sI13
Fnan
sI14
Fnan
sI15
Fnan
sI16
Fnan
sI17
Fnan
sI18
Fnan
sI19
Fnan
sI20
Fnan
sI21
Fnan
sI22
Fnan
sI23
Fnan
sI24
Fnan
sI25
Fnan
ssS'ref1rmsmean'
p49
(dp50
I0
F0.8791479999999999
sI1
Fnan
sI2
Fnan
sI3
Fnan
sI4
Fnan
sI5
Fnan
sI6
Fnan
sI7
Fnan
sI8
Fnan
sI9
Fnan
sI10
Fnan
sI11
Fnan
sI12
Fnan
sI13
Fnan
sI14
Fnan
sI15
Fnan
sI16
Fnan
sI17
Fnan
sI18
Fnan
sI19
Fnan
sI20
Fnan
sI21
Fnan
sI22
Fnan
sI23
Fnan
sI24
Fnan
sI25
Fnan
ssS'relflux'
p51
(dp52
I0
F0.5437603174858701
sI1
F0.5456979168722168
sI2
F0.5460079770891143
sI3
F0.5453509308235716
sI4
F0.5421471309339264
sI5
F0.543600651497644
sI6
F0.5443055027725158
sI7
F0.5435063228872068
sI8
F0.5422570457092718
sI9
F0.5426022458188692
sI10
F0.5400341536756603
sI11
F0.5435804806332378
sI12
F0.5458244457707954
sI13
F0.5473985069596017
sI14
F0.5424349116073893
sI15
F0.5453318123183732
sI16
F0.5432623257531758
sI17
F0.5444285141416342
sI18
F0.5442412211450145
sI19
F0.540034911535093
sI20
F0.5423084873332848
sI21
F0.5456243554014415
sI22
F0.5452813543691191
sI23
F0.544750336493238
sI24
F0.5411825870590088
sI25
F0.541049551148087
ssS'sigerr'
p53
(dp54
I0
F0.0014752806203674976
sI1
Fnan
sI2
Fnan
sI3
Fnan
sI4
Fnan
sI5
Fnan
sI6
Fnan
sI7
Fnan
sI8
Fnan
sI9
Fnan
sI10
Fnan
sI11
Fnan
sI12
Fnan
sI13
Fnan
sI14
Fnan
sI15
Fnan
sI16
Fnan
sI17
Fnan
sI18
Fnan
sI19
Fnan
sI20
Fnan
sI21
Fnan
sI22
Fnan
sI23
Fnan
sI24
Fnan
sI25
Fnan
ssS'tabbyrmsmean'
p55
(dp56
I0
F1.4381880384615384
sI1
Fnan
sI2
Fnan
sI3
Fnan
sI4
Fnan
sI5
Fnan
sI6
Fnan
sI7
Fnan
sI8
Fnan
sI9
Fnan
sI10
Fnan
sI11
Fnan
sI12
Fnan
sI13
Fnan
sI14
Fnan
sI15
Fnan
sI16
Fnan
sI17
Fnan
sI18
Fnan
sI19
Fnan
sI20
Fnan
sI21
Fnan
sI22
Fnan
sI23
Fnan
sI24
Fnan
sI25
Fnan
ssS'tabbyflag'
p57
(dp58
I0
g7
sI1
g8
sI2
g9
sI3
g10
sI4
g11
sI5
g12
sI6
g13
sI7
g14
sI8
g15
sI9
g16
sI10
g17
sI11
g18
sI12
g19
sI13
g20
sI14
g21
sI15
g22
sI16
g23
sI17
g24
sI18
g25
sI19
g26
sI20
g27
sI21
g28
sI22
g29
sI23
g30
sI24
g31
sI25
g32
ssS'ref1err'
p59
(dp60
I0
F0.0038824813040189035
sI1
Fnan
sI2
Fnan
sI3
Fnan
sI4
Fnan
sI5
Fnan
sI6
Fnan
sI7
Fnan
sI8
Fnan
sI9
Fnan
sI10
Fnan
sI11
Fnan
sI12
Fnan
sI13
Fnan
sI14
Fnan
sI15
Fnan
sI16
Fnan
sI17
Fnan
sI18
Fnan
sI19
Fnan
sI20
Fnan
sI21
Fnan
sI22
Fnan
sI23
Fnan
sI24
Fnan
sI25
Fnan
ssS'ref2magmeanerr'
p61
(dp62
I0
F0.03299400878015008
sI1
Fnan
sI2
Fnan
sI3
Fnan
sI4
Fnan
sI5
Fnan
sI6
Fnan
sI7
Fnan
sI8
Fnan
sI9
Fnan
sI10
Fnan
sI11
Fnan
sI12
Fnan
sI13
Fnan
sI14
Fnan
sI15
Fnan
sI16
Fnan
sI17
Fnan
sI18
Fnan
sI19
Fnan
sI20
Fnan
sI21
Fnan
sI22
Fnan
sI23
Fnan
sI24
Fnan
sI25
Fnan
ssS'ref2rmsmean'
p63
(dp64
I0
F2.162971961538462
sI1
Fnan
sI2
Fnan
sI3
Fnan
sI4
Fnan
sI5
Fnan
sI6
Fnan
sI7
Fnan
sI8
Fnan
sI9
Fnan
sI10
Fnan
sI11
Fnan
sI12
Fnan
sI13
Fnan
sI14
Fnan
sI15
Fnan
sI16
Fnan
sI17
Fnan
sI18
Fnan
sI19
Fnan
sI20
Fnan
sI21
Fnan
sI22
Fnan
sI23
Fnan
sI24
Fnan
sI25
Fnan
ssS'ref3rel'
p65
(dp66
I0
F1.4939147525266647
sI1
F1.493571212000319
sI2
F1.4902776171343712
sI3
F1.497641918927522
sI4
F1.5025355719280267
sI5
F1.4986332524502637
sI6
F1.508653563056765
sI7
F1.4992267539891866
sI8
F1.5093811837355067
sI9
F1.4987226860205187
sI10
F1.5075748156650626
sI11
F1.5006009271819178
sI12
F1.5011580604141972
sI13
F1.514311222504139
sI14
F1.493517216500518
sI15
F1.4968674634871844
sI16
F1.511311902045589
sI17
F1.5058053102495672
sI18
F1.497263603451166
sI19
F1.5021043744475282
sI20
F1.5010807070272982
sI21
F1.4952901017192415
sI22
F1.5031464223671724
sI23
F1.494200882137031
sI24
F1.486209133035783
sI25
F1.500167247398397
ssS'ref1flag'
p67
(dp68
I0
g7
sI1
g8
sI2
g9
sI3
g10
sI4
g11
sI5
g12
sI6
g13
sI7
g14
sI8
g15
sI9
g16
sI10
g17
sI11
g18
sI12
g19
sI13
g20
sI14
g21
sI15
g22
sI16
g23
sI17
g24
sI18
g25
sI19
g26
sI20
g27
sI21
g28
sI22
g29
sI23
g30
sI24
g31
sI25
g32
ssS'ref2bkg'
p69
(dp70
I0
F22.73648
sI1
F24.53215
sI2
F26.8291
sI3
F24.04344
sI4
F36.07993
sI5
F25.82345
sI6
F23.92141
sI7
F31.8717
sI8
F27.35069
sI9
F30.51708
sI10
F29.52106
sI11
F23.6667
sI12
F24.32128
sI13
F26.39549
sI14
F23.8197
sI15
F32.51256
sI16
F25.23786
sI17
F24.54566
sI18
F26.30156
sI19
F35.08857
sI20
F28.64744
sI21
F23.69617
sI22
F26.81111
sI23
F27.21929
sI24
F27.02575
sI25
F28.53626
ssS'ref3magmean'
p71
(dp72
I0
F10.354423076923077
sI1
Fnan
sI2
Fnan
sI3
Fnan
sI4
Fnan
sI5
Fnan
sI6
Fnan
sI7
Fnan
sI8
Fnan
sI9
Fnan
sI10
Fnan
sI11
Fnan
sI12
Fnan
sI13
Fnan
sI14
Fnan
sI15
Fnan
sI16
Fnan
sI17
Fnan
sI18
Fnan
sI19
Fnan
sI20
Fnan
sI21
Fnan
sI22
Fnan
sI23
Fnan
sI24
Fnan
sI25
Fnan
ssS'ref1mean'
p73
(dp74
I0
F0.7104847573628023
sI1
Fnan
sI2
Fnan
sI3
Fnan
sI4
Fnan
sI5
Fnan
sI6
Fnan
sI7
Fnan
sI8
Fnan
sI9
Fnan
sI10
Fnan
sI11
Fnan
sI12
Fnan
sI13
Fnan
sI14
Fnan
sI15
Fnan
sI16
Fnan
sI17
Fnan
sI18
Fnan
sI19
Fnan
sI20
Fnan
sI21
Fnan
sI22
Fnan
sI23
Fnan
sI24
Fnan
sI25
Fnan
ssS'ref1rms'
p75
(dp76
I0
F2.878582
sI1
F-3.743508
sI2
F2.876985
sI3
F-3.127923
sI4
F4.757971
sI5
F3.906112
sI6
F-2.563493
sI7
F-4.115007
sI8
F3.559866
sI9
F4.401513
sI10
F-1.664542
sI11
F3.415446
sI12
F2.446813
sI13
F3.605395
sI14
F4.972295
sI15
F2.837397
sI16
F-3.93538
sI17
F-2.32561
sI18
F4.745753
sI19
F-3.115535
sI20
F4.365799
sI21
F-2.881404
sI22
F3.991194
sI23
F4.882492
sI24
F-3.373271
sI25
F-3.940092
ssS'ref2magmean'
p77
(dp78
I0
F10.70873076923077
sI1
Fnan
sI2
Fnan
sI3
Fnan
sI4
Fnan
sI5
Fnan
sI6
Fnan
sI7
Fnan
sI8
Fnan
sI9
Fnan
sI10
Fnan
sI11
Fnan
sI12
Fnan
sI13
Fnan
sI14
Fnan
sI15
Fnan
sI16
Fnan
sI17
Fnan
sI18
Fnan
sI19
Fnan
sI20
Fnan
sI21
Fnan
sI22
Fnan
sI23
Fnan
sI24
Fnan
sI25
Fnan
ssS'ref2flag'
p79
(dp80
I0
g7
sI1
g8
sI2
g9
sI3
g10
sI4
g11
sI5
g12
sI6
g13
sI7
g14
sI8
g15
sI9
g16
sI10
g17
sI11
g18
sI12
g19
sI13
g20
sI14
g21
sI15
g22
sI16
g23
sI17
g24
sI18
g25
sI19
g26
sI20
g27
sI21
g28
sI22
g29
sI23
g30
sI24
g31
sI25
g32
ssS'ref2'
p81
(dp82
I0
F13527.168
sI1
F13563.212
sI2
F12787.643999999998
sI3
F13151.948
sI4
F12107.408000000001
sI5
F13307.616000000002
sI6
F13443.851999999999
sI7
F12757.576000000001
sI8
F13184.688
sI9
F12705.016000000001
sI10
F13119.376
sI11
F13307.06
sI12
F13264.572
sI13
F13392.656
sI14
F13309.452
sI15
F12752.148000000001
sI16
F13322.38
sI17
F12981.632
sI18
F13128.948
sI19
F12014.268
sI20
F12959.38
sI21
F13632.2
sI22
F13194.42
sI23
F13130.088
sI24
F13159.328000000001
sI25
F12975.364
ssS'airmass'
p83
(dp84
I0
F1.191268
sI1
F1.270608
sI2
F1.2653370000000002
sI3
F1.213759
sI4
F1.5104879999999998
sI5
F1.320193
sI6
F1.2601149999999999
sI7
F1.501789
sI8
F1.3232540000000002
sI9
F1.497457
sI10
F1.386947
sI11
F1.211524
sI12
F1.209278
sI13
F1.317153
sI14
F1.1892129999999999
sI15
F1.493195
sI16
F1.267955
sI17
F1.262686
sI18
F1.3294629999999998
sI19
F1.506124
sI20
F1.397543
sI21
F1.1933610000000001
sI22
F1.326358
sI23
F1.390468
sI24
F1.3834469999999999
sI25
F1.393996
ssS'ref1'
p85
(dp86
I0
F11505.832
sI1
F11502.788
sI2
F10901.816
sI3
F11176.308
sI4
F10267.82
sI5
F11343.608
sI6
F11418.508
sI7
F10787.323999999999
sI8
F11187.716
sI9
F10752.02
sI10
F11009.528
sI11
F11321.548
sI12
F11343.816
sI13
F11325.428
sI14
F11262.091999999999
sI15
F10770.003999999999
sI16
F11143.532
sI17
F10935.436000000002
sI18
F11116.076000000001
sI19
F10163.344000000001
sI20
F11017.516000000001
sI21
F11640.108
sI22
F11162.132
sI23
F11068.42
sI24
F11213.903999999999
sI25
F10977.176000000001
ssS'ref3'
p87
(dp88
I0
F18698.584
sI1
F18718.928
sI2
F17651.936
sI3
F18217.508
sI4
F16809.788
sI5
F18471.572
sI6
F18754.343999999997
sI7
F17649.572
sI8
F18393.624
sI9
F17577.796000000002
sI10
F18188.064
sI11
F18478.856
sI12
F18470.54
sI13
F18715.436
sI14
F18349.012
sI15
F17604.772
sI16
F18487.811999999998
sI17
F18007.224
sI18
F18150.596
sI19
F16656.543999999998
sI20
F17995.628
sI21
F18894.716
sI22
F18305.732
sI23
F18078.716
sI24
F18111.86
sI25
F17966.408
ssS'ref1bkg'
p89
(dp90
I0
F22.03067
sI1
F23.43388
sI2
F26.0081
sI3
F24.13761
sI4
F32.96404
sI5
F25.37955
sI6
F23.67
sI7
F32.35738
sI8
F25.61758
sI9
F32.01771
sI10
F28.20945
sI11
F24.39808
sI12
F23.46403
sI13
F24.07245
sI14
F23.73833
sI15
F31.88787
sI16
F24.56058
sI17
F25.56992
sI18
F25.96055
sI19
F35.894
sI20
F27.8686
sI21
F22.12872
sI22
F25.94247
sI23
F28.15385
sI24
F27.74014
sI25
F28.75216
ssS'ref1mag'
p91
(dp92
I0
F10.848
sI1
F10.848
sI2
F10.906
sI3
F10.879
sI4
F10.971
sI5
F10.863
sI6
F10.856
sI7
F10.918
sI8
F10.878
sI9
F10.921
sI10
F10.896
sI11
F10.865
sI12
F10.863
sI13
F10.865
sI14
F10.871
sI15
F10.919
sI16
F10.882
sI17
F10.903
sI18
F10.885
sI19
F10.982
sI20
F10.895
sI21
F10.835
sI22
F10.881
sI23
F10.89
sI24
F10.876
sI25
F10.899
ssS'ref3magerr'
p93
(dp94
I0
F0.001
sI1
F0.001
sI2
F0.002
sI3
F0.001
sI4
F0.002
sI5
F0.001
sI6
F0.001
sI7
F0.002
sI8
F0.001
sI9
F0.002
sI10
F0.002
sI11
F0.001
sI12
F0.001
sI13
F0.001
sI14
F0.001
sI15
F0.002
sI16
F0.001
sI17
F0.002
sI18
F0.001
sI19
F0.002
sI20
F0.002
sI21
F0.001
sI22
F0.001
sI23
F0.001
sI24
F0.001
sI25
F0.002
ssS'tabbymagmean'
p95
(dp96
I0
F11.28903846153846
sI1
Fnan
sI2
Fnan
sI3
Fnan
sI4
Fnan
sI5
Fnan
sI6
Fnan
sI7
Fnan
sI8
Fnan
sI9
Fnan
sI10
Fnan
sI11
Fnan
sI12
Fnan
sI13
Fnan
sI14
Fnan
sI15
Fnan
sI16
Fnan
sI17
Fnan
sI18
Fnan
sI19
Fnan
sI20
Fnan
sI21
Fnan
sI22
Fnan
sI23
Fnan
sI24
Fnan
sI25
Fnan
ssS'ref1magmean'
p97
(dp98
I0
F10.888269230769229
sI1
Fnan
sI2
Fnan
sI3
Fnan
sI4
Fnan
sI5
Fnan
sI6
Fnan
sI7
Fnan
sI8
Fnan
sI9
Fnan
sI10
Fnan
sI11
Fnan
sI12
Fnan
sI13
Fnan
sI14
Fnan
sI15
Fnan
sI16
Fnan
sI17
Fnan
sI18
Fnan
sI19
Fnan
sI20
Fnan
sI21
Fnan
sI22
Fnan
sI23
Fnan
sI24
Fnan
sI25
Fnan
ssS'ref2mag'
p99
(dp100
I0
F10.672
sI1
F10.669
sI2
F10.733
sI3
F10.703
sI4
F10.792
sI5
F10.69
sI6
F10.679
sI7
F10.736
sI8
F10.7
sI9
F10.74
sI10
F10.705
sI11
F10.69
sI12
F10.693
sI13
F10.683
sI14
F10.69
sI15
F10.736
sI16
F10.689
sI17
F10.717
sI18
F10.704
sI19
F10.801
sI20
F10.719
sI21
F10.664
sI22
F10.699
sI23
F10.704
sI24
F10.702
sI25
F10.717
ssS'ref3rms'
p101
(dp102
I0
F2.664181
sI1
F3.505796
sI2
F5.605623
sI3
F5.849673
sI4
F3.629954
sI5
F-3.82524
sI6
F1.836025
sI7
F1.734669
sI8
F5.214051
sI9
F4.951991
sI10
F4.354589
sI11
F-2.711593
sI12
F-1.890298
sI13
F2.826171
sI14
F4.097112
sI15
F5.050741
sI16
F5.061493
sI17
F3.922103
sI18
F3.413887
sI19
F5.126574
sI20
F3.850684
sI21
F2.857167
sI22
F-2.28619
sI23
F3.152573
sI24
F-4.162164
sI25
F4.985939
ssS'ref3magmeanerr'
p103
(dp104
I0
F0.03377001400878948
sI1
Fnan
sI2
Fnan
sI3
Fnan
sI4
Fnan
sI5
Fnan
sI6
Fnan
sI7
Fnan
sI8
Fnan
sI9
Fnan
sI10
Fnan
sI11
Fnan
sI12
Fnan
sI13
Fnan
sI14
Fnan
sI15
Fnan
sI16
Fnan
sI17
Fnan
sI18
Fnan
sI19
Fnan
sI20
Fnan
sI21
Fnan
sI22
Fnan
sI23
Fnan
sI24
Fnan
sI25
Fnan
ssS'ref1rel'
p105
(dp106
I0
F0.7140768662279782
sI1
F0.7126409835283535
sI2
F0.7162921433212942
sI3
F0.7125598862791883
sI4
F0.7101532250913953
sI5
F0.713901689369785
sI6
F0.7092638357751472
sI7
F0.7095255365613373
sI8
F0.7085696030870808
sI9
F0.7101071063017529
sI10
F0.7033170390169238
sI11
F0.7123625444678078
sI12
F0.714906315755243
sI13
F0.7054563067777431
sI14
F0.7114743153679217
sI15
F0.7095584136994134
sI16
F0.700626516180726
sI17
F0.7057657113899268
sI18
F0.7107569087324291
sI19
F0.7089679915588022
sI20
F0.711840617195124
sI21
F0.7157215888527519
sI22
F0.7087033738757831
sI23
F0.7093139487178041
sI24
F0.7172035804971655
sI25
F0.7095376438039814
ssS'exposure'
p107
(dp108
I0
F25.0
sI1
F25.0
sI2
F25.0
sI3
F25.0
sI4
F25.0
sI5
F25.0
sI6
F25.0
sI7
F25.0
sI8
F25.0
sI9
F25.0
sI10
F25.0
sI11
F25.0
sI12
F25.0
sI13
F25.0
sI14
F25.0
sI15
F25.0
sI16
F25.0
sI17
F25.0
sI18
F25.0
sI19
F25.0
sI20
F25.0
sI21
F25.0
sI22
F25.0
sI23
F25.0
sI24
F25.0
sI25
F25.0
ssS'ref1magerr'
p109
(dp110
I0
F0.002
sI1
F0.002
sI2
F0.002
sI3
F0.002
sI4
F0.002
sI5
F0.002
sI6
F0.002
sI7
F0.002
sI8
F0.002
sI9
F0.002
sI10
F0.002
sI11
F0.002
sI12
F0.002
sI13
F0.002
sI14
F0.002
sI15
F0.002
sI16
F0.002
sI17
F0.002
sI18
F0.002
sI19
F0.002
sI20
F0.002
sI21
F0.002
sI22
F0.002
sI23
F0.002
sI24
F0.002
sI25
F0.002
ssS'ref2magerr'
p111
(dp112
I0
F0.002
sI1
F0.002
sI2
F0.002
sI3
F0.002
sI4
F0.002
sI5
F0.002
sI6
F0.002
sI7
F0.002
sI8
F0.002
sI9
F0.002
sI10
F0.002
sI11
F0.002
sI12
F0.002
sI13
F0.002
sI14
F0.002
sI15
F0.002
sI16
F0.002
sI17
F0.002
sI18
F0.002
sI19
F0.002
sI20
F0.002
sI21
F0.002
sI22
F0.002
sI23
F0.002
sI24
F0.002
sI25
F0.002
ssS'ref2rms'
p113
(dp114
I0
F3.871708
sI1
F-2.267962
sI2
F3.570834
sI3
F3.72637
sI4
F-5.040859
sI5
F3.727943
sI6
F1.635863
sI7
F4.048729
sI8
F2.316691
sI9
F1.947777
sI10
F3.924758
sI11
F4.298603
sI12
F2.883554
sI13
F-3.825419
sI14
F5.47485
sI15
F-1.316452
sI16
F4.258389
sI17
F4.474085
sI18
F4.464922
sI19
F2.403421
sI20
F5.248204
sI21
F-3.487229
sI22
F-3.765108
sI23
F4.101442
sI24
F4.886568
sI25
F4.675589
ssS'name'
p115
(dp116
I0
S"KIC8462852-20180403at115932_-35-1-025-r'_cal.fts.mag.1"
p117
sI1
S"KIC8462852-20180403at113014_-35-1-025-r'_cal.fts.mag.1"
p118
sI2
S"KIC8462852-20180403at113200_-35-1-025-r'_cal.fts.mag.1"
p119
sI3
S"KIC8462852-20180403at115027_-35-1-025-r'_cal.fts.mag.1"
p120
sI4
S"KIC8462852-20180403at102947_-35-1-025-r'_cal.fts.mag.1"
p121
sI5
S"KIC8462852-20180403at111501_-35-1-025-r'_cal.fts.mag.1"
p122
sI6
S"KIC8462852-20180403at113345_-35-1-025-r'_cal.fts.mag.1"
p123
sI7
S"KIC8462852-20180403at103132_-35-1-025-r'_cal.fts.mag.1"
p124
sI8
S"KIC8462852-20180403at111408_-35-1-025-r'_cal.fts.mag.1"
p125
sI9
S"KIC8462852-20180403at103224_-35-1-025-r'_cal.fts.mag.1"
p126
sI10
S"KIC8462852-20180403at105709_-35-1-025-r'_cal.fts.mag.1"
p127
sI11
S"KIC8462852-20180403at115121_-35-1-025-r'_cal.fts.mag.1"
p128
sI12
S"KIC8462852-20180403at115213_-35-1-025-r'_cal.fts.mag.1"
p129
sI13
S"KIC8462852-20180403at111554_-35-1-025-r'_cal.fts.mag.1"
p130
sI14
S"KIC8462852-20180403at120025_-35-1-025-r'_cal.fts.mag.1"
p131
sI15
S"KIC8462852-20180403at103316_-35-1-025-r'_cal.fts.mag.1"
p132
sI16
S"KIC8462852-20180403at113108_-35-1-025-r'_cal.fts.mag.1"
p133
sI17
S"KIC8462852-20180403at113252_-35-1-025-r'_cal.fts.mag.1"
p134
sI18
S"KIC8462852-20180403at111222_-35-1-025-r'_cal.fts.mag.1"
p135
sI19
S"KIC8462852-20180403at103040_-35-1-025-r'_cal.fts.mag.1"
p136
sI20
S"KIC8462852-20180403at105431_-35-1-025-r'_cal.fts.mag.1"
p137
sI21
S"KIC8462852-20180403at115839_-35-1-025-r'_cal.fts.mag.1"
p138
sI22
S"KIC8462852-20180403at111315_-35-1-025-r'_cal.fts.mag.1"
p139
sI23
S"KIC8462852-20180403at105617_-35-1-025-r'_cal.fts.mag.1"
p140
sI24
S"KIC8462852-20180403at105801_-35-1-025-r'_cal.fts.mag.1"
p141
sI25
S"KIC8462852-20180403at105525_-35-1-025-r'_cal.fts.mag.1"
p142
ssS'ref3err'
p143
(dp144
I0
F0.006626855610407119
sI1
Fnan
sI2
Fnan
sI3
Fnan
sI4
Fnan
sI5
Fnan
sI6
Fnan
sI7
Fnan
sI8
Fnan
sI9
Fnan
sI10
Fnan
sI11
Fnan
sI12
Fnan
sI13
Fnan
sI14
Fnan
sI15
Fnan
sI16
Fnan
sI17
Fnan
sI18
Fnan
sI19
Fnan
sI20
Fnan
sI21
Fnan
sI22
Fnan
sI23
Fnan
sI24
Fnan
sI25
Fnan
ssS'tabby'
p145
(dp146
I0
F7926.5
sI1
F7964.448
sI2
F7524.244000000001
sI3
F7734.124
sI4
F7081.348000000001
sI5
F7813.86
sI6
F7913.604
sI7
F7463.151999999999
sI8
F7730.06
sI9
F7421.8640000000005
sI10
F7617.536
sI11
F7810.7919999999995
sI12
F7837.844
sI13
F7925.148
sI14
F7760.536
sI15
F7475.94
sI16
F7778.38
sI17
F7608.26
sI18
F7691.148
sI19
F6990.6
sI20
F7587.352
sI21
F8032.868
sI22
F7754.316
sI23
F7676.844
sI24
F7664.064
sI25
F7560.076
ssS'ref1magmeanerr'
p147
(dp148
I0
F0.03435643484683187
sI1
Fnan
sI2
Fnan
sI3
Fnan
sI4
Fnan
sI5
Fnan
sI6
Fnan
sI7
Fnan
sI8
Fnan
sI9
Fnan
sI10
Fnan
sI11
Fnan
sI12
Fnan
sI13
Fnan
sI14
Fnan
sI15
Fnan
sI16
Fnan
sI17
Fnan
sI18
Fnan
sI19
Fnan
sI20
Fnan
sI21
Fnan
sI22
Fnan
sI23
Fnan
sI24
Fnan
sI25
Fnan
ssS'filter'
p149
(dp150
I0
S"r'"
p151
sI1
S"r'"
p152
sI2
S"r'"
p153
sI3
S"r'"
p154
sI4
S"r'"
p155
sI5
S"r'"
p156
sI6
S"r'"
p157
sI7
S"r'"
p158
sI8
S"r'"
p159
sI9
S"r'"
p160
sI10
S"r'"
p161
sI11
S"r'"
p162
sI12
S"r'"
p163
sI13
S"r'"
p164
sI14
S"r'"
p165
sI15
S"r'"
p166
sI16
S"r'"
p167
sI17
S"r'"
p168
sI18
S"r'"
p169
sI19
S"r'"
p170
sI20
S"r'"
p171
sI21
S"r'"
p172
sI22
S"r'"
p173
sI23
S"r'"
p174
sI24
S"r'"
p175
sI25
S"r'"
p176
ssS'tabbymagerr'
p177
(dp178
I0
F0.035578061520246625
sI1
Fnan
sI2
Fnan
sI3
Fnan
sI4
Fnan
sI5
Fnan
sI6
Fnan
sI7
Fnan
sI8
Fnan
sI9
Fnan
sI10
Fnan
sI11
Fnan
sI12
Fnan
sI13
Fnan
sI14
Fnan
sI15
Fnan
sI16
Fnan
sI17
Fnan
sI18
Fnan
sI19
Fnan
sI20
Fnan
sI21
Fnan
sI22
Fnan
sI23
Fnan
sI24
Fnan
sI25
Fnan
ssS'tabbyrms'
p179
(dp180
I0
F-2.229601
sI1
F5.230385
sI2
F4.389333
sI3
F4.05322
sI4
F-4.397944
sI5
F4.377411
sI6
F-4.770205
sI7
F-3.05138
sI8
F4.574419
sI9
F4.760835
sI10
F2.676671
sI11
F3.98141
sI12
F3.029463
sI13
F3.804038
sI14
F-4.356861
sI15
F2.177901
sI16
F2.988406
sI17
F2.523584
sI18
F2.964737
sI19
F-3.497888
sI20
F-4.301397
sI21
F3.836911
sI22
F2.557307
sI23
F4.103912
sI24
F4.325674
sI25
F-2.357452
ssS'ref3mean'
p181
(dp182
I0
F1.5001218423615745
sI1
Fnan
sI2
Fnan
sI3
Fnan
sI4
Fnan
sI5
Fnan
sI6
Fnan
sI7
Fnan
sI8
Fnan
sI9
Fnan
sI10
Fnan
sI11
Fnan
sI12
Fnan
sI13
Fnan
sI14
Fnan
sI15
Fnan
sI16
Fnan
sI17
Fnan
sI18
Fnan
sI19
Fnan
sI20
Fnan
sI21
Fnan
sI22
Fnan
sI23
Fnan
sI24
Fnan
sI25
Fnan
ssS'median_JD'
p183
(dp184
I0
F2458211.968454861
sI1
Fnan
sI2
Fnan
sI3
Fnan
sI4
Fnan
sI5
Fnan
sI6
Fnan
sI7
Fnan
sI8
Fnan
sI9
Fnan
sI10
Fnan
sI11
Fnan
sI12
Fnan
sI13
Fnan
sI14
Fnan
sI15
Fnan
sI16
Fnan
sI17
Fnan
sI18
Fnan
sI19
Fnan
sI20
Fnan
sI21
Fnan
sI22
Fnan
sI23
Fnan
sI24
Fnan
sI25
Fnan
ssS'error'
p185
(dp186
I0
F0.0019091425438012054
sI1
Fnan
sI2
Fnan
sI3
Fnan
sI4
Fnan
sI5
Fnan
sI6
Fnan
sI7
Fnan
sI8
Fnan
sI9
Fnan
sI10
Fnan
sI11
Fnan
sI12
Fnan
sI13
Fnan
sI14
Fnan
sI15
Fnan
sI16
Fnan
sI17
Fnan
sI18
Fnan
sI19
Fnan
sI20
Fnan
sI21
Fnan
sI22
Fnan
sI23
Fnan
sI24
Fnan
sI25
Fnan
ssS'ref3bkg'
p187
(dp188
I0
F24.56273
sI1
F25.55215
sI2
F29.69103
sI3
F25.98591
sI4
F38.48859
sI5
F28.85218
sI6
F26.59392
sI7
F34.40709
sI8
F27.31797
sI9
F33.35249
sI10
F30.37274
sI11
F26.63343
sI12
F26.05907
sI13
F27.59987
sI14
F26.68242
sI15
F33.36372
sI16
F26.63339
sI17
F28.50875
sI18
F28.66575
sI19
F38.5691
sI20
F31.78762
sI21
F24.13555
sI22
F28.87437
sI23
F30.20776
sI24
F31.74212
sI25
F31.05125
ssS'ref3mag'
p189
(dp190
I0
F10.32
sI1
F10.319
sI2
F10.383
sI3
F10.349
sI4
F10.436
sI5
F10.334
sI6
F10.317
sI7
F10.383
sI8
F10.338
sI9
F10.388
sI10
F10.351
sI11
F10.333
sI12
F10.334
sI13
F10.319
sI14
F10.341
sI15
F10.386
sI16
F10.333
sI17
F10.361
sI18
F10.353
sI19
F10.446
sI20
F10.362
sI21
F10.309
sI22
F10.344
sI23
F10.357
sI24
F10.355
sI25
F10.364
ssS'mean'
p191
(dp192
I0
F0.5436924614320907
sI1
Fnan
sI2
Fnan
sI3
Fnan
sI4
Fnan
sI5
Fnan
sI6
Fnan
sI7
Fnan
sI8
Fnan
sI9
Fnan
sI10
Fnan
sI11
Fnan
sI12
Fnan
sI13
Fnan
sI14
Fnan
sI15
Fnan
sI16
Fnan
sI17
Fnan
sI18
Fnan
sI19
Fnan
sI20
Fnan
sI21
Fnan
sI22
Fnan
sI23
Fnan
sI24
Fnan
sI25
Fnan
sssS'z'
p193
(dp194
g3
(dp195
I0
F0.3683479356834523
sI1
Fnan
sI2
Fnan
sI3
Fnan
sI4
Fnan
sI5
Fnan
sI6
Fnan
sI7
Fnan
sI8
Fnan
sI9
Fnan
sI10
Fnan
sI11
Fnan
sI12
Fnan
sI13
Fnan
sI14
Fnan
sI15
Fnan
sI16
Fnan
sI17
Fnan
sI18
Fnan
sI19
Fnan
sI20
Fnan
sI21
Fnan
sI22
Fnan
sI23
Fnan
sI24
Fnan
sI25
Fnan
ssg5
(dp196
I0
S'NoError'
p197
sI1
S'NoError'
p198
sI2
S'NoError'
p199
sI3
S'NoError'
p200
sI4
S'NoError'
p201
sI5
S'NoError'
p202
sI6
S'NoError'
p203
sI7
S'NoError'
p204
sI8
S'NoError'
p205
sI9
S'NoError'
p206
sI10
S'NoError'
p207
sI11
S'NoError'
p208
sI12
S'NoError'
p209
sI13
S'NoError'
p210
sI14
S'NoError'
p211
sI15
S'NoError'
p212
sI16
S'NoError'
p213
sI17
S'NoError'
p214
sI18
S'NoError'
p215
sI19
S'NoError'
p216
sI20
S'NoError'
p217
sI21
S'NoError'
p218
sI22
S'NoError'
p219
sI23
S'NoError'
p220
sI24
S'NoError'
p221
sI25
S'NoError'
p222
ssg33
(dp223
I0
F0.009
sI1
F0.008
sI2
F0.008
sI3
F0.009
sI4
F0.009
sI5
F0.009
sI6
F0.009
sI7
F0.008
sI8
F0.009
sI9
F0.009
sI10
F0.009
sI11
F0.008
sI12
F0.009
sI13
F0.008
sI14
F0.009
sI15
F0.009
sI16
F0.009
sI17
F0.008
sI18
F0.009
sI19
F0.009
sI20
F0.009
sI21
F0.008
sI22
F0.008
sI23
F0.008
sI24
F0.008
sI25
F0.008
ssg35
(dp224
I0
F0.9207310034041825
sI1
F0.9145299114095685
sI2
F0.9081130306133729
sI3
F0.918541019568324
sI4
F0.9171577350180873
sI5
F0.9106037164280947
sI6
F0.9201684872938949
sI7
F0.9238907214299232
sI8
F0.9093805789196465
sI9
F0.9072851298110853
sI10
F0.9157359330175466
sI11
F0.9127456072214843
sI12
F0.925044671711533
sI13
F0.9259303592412687
sI14
F0.9022576780573568
sI15
F0.9050470775037331
sI16
F0.9199177959952589
sI17
F0.9192925829353832
sI18
F0.923032912395564
sI19
F0.9098710321416345
sI20
F0.9331485679407833
sI21
F0.9150283829194493
sI22
F0.9235613865080774
sI23
F0.9187781864084653
sI24
F0.9252295730170943
sI25
F0.9143107246722463
ssg37
(dp225
I0
F0.007384284540160881
sI1
Fnan
sI2
Fnan
sI3
Fnan
sI4
Fnan
sI5
Fnan
sI6
Fnan
sI7
Fnan
sI8
Fnan
sI9
Fnan
sI10
Fnan
sI11
Fnan
sI12
Fnan
sI13
Fnan
sI14
Fnan
sI15
Fnan
sI16
Fnan
sI17
Fnan
sI18
Fnan
sI19
Fnan
sI20
Fnan
sI21
Fnan
sI22
Fnan
sI23
Fnan
sI24
Fnan
sI25
Fnan
ssg39
(dp226
I0
F0.9168974540608871
sI1
Fnan
sI2
Fnan
sI3
Fnan
sI4
Fnan
sI5
Fnan
sI6
Fnan
sI7
Fnan
sI8
Fnan
sI9
Fnan
sI10
Fnan
sI11
Fnan
sI12
Fnan
sI13
Fnan
sI14
Fnan
sI15
Fnan
sI16
Fnan
sI17
Fnan
sI18
Fnan
sI19
Fnan
sI20
Fnan
sI21
Fnan
sI22
Fnan
sI23
Fnan
sI24
Fnan
sI25
Fnan
ssg41
(dp227
I0
F13.321
sI1
F13.312
sI2
F13.334
sI3
F13.369
sI4
F13.363
sI5
F13.357
sI6
F13.335
sI7
F13.389
sI8
F13.363
sI9
F13.413
sI10
F13.357
sI11
F13.35
sI12
F13.36
sI13
F13.367
sI14
F13.395
sI15
F13.408
sI16
F13.385
sI17
F13.363
sI18
F13.346
sI19
F13.386
sI20
F13.398
sI21
F13.363
sI22
F13.323
sI23
F13.344
sI24
F13.358
sI25
F13.347
ssg43
(dp228
I0
F-3.597304
sI1
F-2.867908
sI2
F-2.379039
sI3
F-2.304473
sI4
F-2.402697
sI5
F-3.770797
sI6
F-3.31604
sI7
F-3.283469
sI8
F-1.975199
sI9
F-0.5224992
sI10
F-3.148549
sI11
F-2.813247
sI12
F-2.861465
sI13
F-3.028003
sI14
F-1.950887
sI15
F-3.591503
sI16
F-2.208765
sI17
F-4.215755
sI18
F-2.912596
sI19
F-1.942639
sI20
F-1.686928
sI21
F-3.016815
sI22
F-3.996743
sI23
F-3.573345
sI24
F-4.426329
sI25
F-3.345616
ssg45
(dp229
I0
F2458211.9824074074
sI1
F2458211.970636574
sI2
F2458211.971238426
sI3
F2458211.942835648
sI4
F2458211.9410185185
sI5
F2458212.0021296297
sI6
F2458211.9724652776
sI7
F2458211.983634259
sI8
F2458211.942233796
sI9
F2458211.9404050927
sI10
F2458211.9582175924
sI11
F2458211.971840278
sI12
F2458211.9576041666
sI13
F2458211.9842476854
sI14
F2458211.9416203704
sI15
F2458211.9848611113
sI16
F2458211.9588310183
sI17
F2458212.001527778
sI18
F2458211.9952430557
sI19
F2458211.95943287
sI20
F2458211.9600462965
sI21
F2458211.983020833
sI22
F2458211.9958564816
sI23
F2458211.970023148
sI24
F2458212.000914352
sI25
F2458211.9964699075
ssg47
(dp230
I0
F1.005198730769231
sI1
Fnan
sI2
Fnan
sI3
Fnan
sI4
Fnan
sI5
Fnan
sI6
Fnan
sI7
Fnan
sI8
Fnan
sI9
Fnan
sI10
Fnan
sI11
Fnan
sI12
Fnan
sI13
Fnan
sI14
Fnan
sI15
Fnan
sI16
Fnan
sI17
Fnan
sI18
Fnan
sI19
Fnan
sI20
Fnan
sI21
Fnan
sI22
Fnan
sI23
Fnan
sI24
Fnan
sI25
Fnan
ssg49
(dp231
I0
F1.6145507307692308
sI1
Fnan
sI2
Fnan
sI3
Fnan
sI4
Fnan
sI5
Fnan
sI6
Fnan
sI7
Fnan
sI8
Fnan
sI9
Fnan
sI10
Fnan
sI11
Fnan
sI12
Fnan
sI13
Fnan
sI14
Fnan
sI15
Fnan
sI16
Fnan
sI17
Fnan
sI18
Fnan
sI19
Fnan
sI20
Fnan
sI21
Fnan
sI22
Fnan
sI23
Fnan
sI24
Fnan
sI25
Fnan
ssg51
(dp232
I0
F0.37109260105733827
sI1
F0.37245656626440377
sI2
F0.3664863476975978
sI3
F0.37037652294454476
sI4
F0.369526823416784
sI5
F0.374530126366826
sI6
F0.3739006466326065
sI7
F0.3595039492771045
sI8
F0.372165760206176
sI9
F0.3651499101144526
sI10
F0.3698086666453743
sI11
F0.3622586608783358
sI12
F0.3688317324954185
sI13
F0.3677202819179809
sI14
F0.36995237386015845
sI15
F0.36305947553647777
sI16
F0.3676922156270097
sI17
F0.36733629645547755
sI18
F0.36434850529090385
sI19
F0.3651521716794163
sI20
F0.35775468798588145
sI21
F0.36762978199054597
sI22
F0.3686564373930413
sI23
F0.37344537388752347
sI24
F0.3693045062108152
sI25
F0.36565086251702084
ssg53
(dp233
I0
F0.003105738299308252
sI1
Fnan
sI2
Fnan
sI3
Fnan
sI4
Fnan
sI5
Fnan
sI6
Fnan
sI7
Fnan
sI8
Fnan
sI9
Fnan
sI10
Fnan
sI11
Fnan
sI12
Fnan
sI13
Fnan
sI14
Fnan
sI15
Fnan
sI16
Fnan
sI17
Fnan
sI18
Fnan
sI19
Fnan
sI20
Fnan
sI21
Fnan
sI22
Fnan
sI23
Fnan
sI24
Fnan
sI25
Fnan
ssg55
(dp234
I0
F1.5958613000000001
sI1
Fnan
sI2
Fnan
sI3
Fnan
sI4
Fnan
sI5
Fnan
sI6
Fnan
sI7
Fnan
sI8
Fnan
sI9
Fnan
sI10
Fnan
sI11
Fnan
sI12
Fnan
sI13
Fnan
sI14
Fnan
sI15
Fnan
sI16
Fnan
sI17
Fnan
sI18
Fnan
sI19
Fnan
sI20
Fnan
sI21
Fnan
sI22
Fnan
sI23
Fnan
sI24
Fnan
sI25
Fnan
ssg57
(dp235
I0
g197
sI1
g198
sI2
g199
sI3
g200
sI4
g201
sI5
g202
sI6
g203
sI7
g204
sI8
g205
sI9
g206
sI10
g207
sI11
g208
sI12
g209
sI13
g210
sI14
g211
sI15
g212
sI16
g213
sI17
g214
sI18
g215
sI19
g216
sI20
g217
sI21
g218
sI22
g219
sI23
g220
sI24
g221
sI25
g222
ssg59
(dp236
I0
F0.005093611627834615
sI1
Fnan
sI2
Fnan
sI3
Fnan
sI4
Fnan
sI5
Fnan
sI6
Fnan
sI7
Fnan
sI8
Fnan
sI9
Fnan
sI10
Fnan
sI11
Fnan
sI12
Fnan
sI13
Fnan
sI14
Fnan
sI15
Fnan
sI16
Fnan
sI17
Fnan
sI18
Fnan
sI19
Fnan
sI20
Fnan
sI21
Fnan
sI22
Fnan
sI23
Fnan
sI24
Fnan
sI25
Fnan
ssg61
(dp237
I0
F0.025315516676840427
sI1
Fnan
sI2
Fnan
sI3
Fnan
sI4
Fnan
sI5
Fnan
sI6
Fnan
sI7
Fnan
sI8
Fnan
sI9
Fnan
sI10
Fnan
sI11
Fnan
sI12
Fnan
sI13
Fnan
sI14
Fnan
sI15
Fnan
sI16
Fnan
sI17
Fnan
sI18
Fnan
sI19
Fnan
sI20
Fnan
sI21
Fnan
sI22
Fnan
sI23
Fnan
sI24
Fnan
sI25
Fnan
ssg63
(dp238
I0
F1.8220461153846155
sI1
Fnan
sI2
Fnan
sI3
Fnan
sI4
Fnan
sI5
Fnan
sI6
Fnan
sI7
Fnan
sI8
Fnan
sI9
Fnan
sI10
Fnan
sI11
Fnan
sI12
Fnan
sI13
Fnan
sI14
Fnan
sI15
Fnan
sI16
Fnan
sI17
Fnan
sI18
Fnan
sI19
Fnan
sI20
Fnan
sI21
Fnan
sI22
Fnan
sI23
Fnan
sI24
Fnan
sI25
Fnan
ssg65
(dp239
I0
F1.4998185702158229
sI1
F1.5119809245459803
sI2
F1.512269086617062
sI3
F1.5029959314964996
sI4
F1.51115716861575
sI5
F1.5104299487347563
sI6
F1.5191631056642694
sI7
F1.5065370383101448
sI8
F1.5137244259437292
sI9
F1.51123524468733
sI10
F1.4996798013164898
sI11
F1.5180764537752987
sI12
F1.492293451918068
sI13
F1.4970745602742481
sI14
F1.504325364478532
sI15
F1.5158026120278407
sI16
F1.5093861966935536
sI17
F1.5088194286703145
sI18
F1.5068520073981817
sI19
F1.5219445647412928
sI20
F1.4895962018007127
sI21
F1.5071396154754477
sI22
F1.5101394971616329
sI23
F1.5014775887148073
sI24
F1.5044626534100982
sI25
F1.5175735892092506
ssg67
(dp240
I0
g197
sI1
g198
sI2
g199
sI3
g200
sI4
g201
sI5
g202
sI6
g203
sI7
g204
sI8
g205
sI9
g206
sI10
g207
sI11
g208
sI12
g209
sI13
g210
sI14
g211
sI15
g212
sI16
g213
sI17
g214
sI18
g215
sI19
g216
sI20
g217
sI21
g218
sI22
g219
sI23
g220
sI24
g221
sI25
g222
ssg69
(dp241
I0
F-2.665617
sI1
F-2.207132
sI2
F-1.081256
sI3
F-1.025333
sI4
F-0.3458821
sI5
F-2.391213
sI6
F-2.100283
sI7
F-2.797493
sI8
F-1.176295
sI9
F-0.5465347
sI10
F-1.191437
sI11
F-2.356491
sI12
F-1.632898
sI13
F-2.185622
sI14
F-0.2829668
sI15
F-1.594725
sI16
F-1.628182
sI17
F-3.953916
sI18
F-2.815763
sI19
F-1.925316
sI20
F-2.183561
sI21
F-2.689347
sI22
F-3.242917
sI23
F-2.209295
sI24
F-3.049288
sI25
F-2.965972
ssg71
(dp242
I0
F12.000076923076923
sI1
Fnan
sI2
Fnan
sI3
Fnan
sI4
Fnan
sI5
Fnan
sI6
Fnan
sI7
Fnan
sI8
Fnan
sI9
Fnan
sI10
Fnan
sI11
Fnan
sI12
Fnan
sI13
Fnan
sI14
Fnan
sI15
Fnan
sI16
Fnan
sI17
Fnan
sI18
Fnan
sI19
Fnan
sI20
Fnan
sI21
Fnan
sI22
Fnan
sI23
Fnan
sI24
Fnan
sI25
Fnan
ssg73
(dp243
I0
F0.6875233243376265
sI1
Fnan
sI2
Fnan
sI3
Fnan
sI4
Fnan
sI5
Fnan
sI6
Fnan
sI7
Fnan
sI8
Fnan
sI9
Fnan
sI10
Fnan
sI11
Fnan
sI12
Fnan
sI13
Fnan
sI14
Fnan
sI15
Fnan
sI16
Fnan
sI17
Fnan
sI18
Fnan
sI19
Fnan
sI20
Fnan
sI21
Fnan
sI22
Fnan
sI23
Fnan
sI24
Fnan
sI25
Fnan
ssg75
(dp244
I0
F3.456132
sI1
F-2.160012
sI2
F2.89488
sI3
F3.71263
sI4
F4.025177
sI5
F-1.288436
sI6
F-3.554448
sI7
F-2.287616
sI8
F3.504865
sI9
F2.607677
sI10
F4.504106
sI11
F2.242499
sI12
F2.141237
sI13
F3.786228
sI14
F3.5
sI15
F1.824953
sI16
F2.473934
sI17
F-2.540703
sI18
F-2.734122
sI19
F2.910766
sI20
F4.440376
sI21
F3.443153
sI22
F3.366529
sI23
F2.398507
sI24
F1.818222
sI25
F-2.508215
ssg77
(dp245
I0
F12.33965384615385
sI1
Fnan
sI2
Fnan
sI3
Fnan
sI4
Fnan
sI5
Fnan
sI6
Fnan
sI7
Fnan
sI8
Fnan
sI9
Fnan
sI10
Fnan
sI11
Fnan
sI12
Fnan
sI13
Fnan
sI14
Fnan
sI15
Fnan
sI16
Fnan
sI17
Fnan
sI18
Fnan
sI19
Fnan
sI20
Fnan
sI21
Fnan
sI22
Fnan
sI23
Fnan
sI24
Fnan
sI25
Fnan
ssg79
(dp246
I0
g197
sI1
g198
sI2
g199
sI3
g200
sI4
g201
sI5
g202
sI6
g203
sI7
g204
sI8
g205
sI9
g206
sI10
g207
sI11
g208
sI12
g209
sI13
g210
sI14
g211
sI15
g212
sI16
g213
sI17
g214
sI18
g215
sI19
g216
sI20
g217
sI21
g218
sI22
g219
sI23
g220
sI24
g221
sI25
g222
ssg81
(dp247
I0
F3005.252
sI1
F3006.0108
sI2
F2977.2384
sI3
F2875.2092
sI4
F2894.4968
sI5
F2857.7216
sI6
F2943.4067999999997
sI7
F2920.3648
sI8
F2858.7668
sI9
F2778.278
sI10
F2906.7768
sI11
F2978.8320000000003
sI12
F2925.6756
sI13
F2919.3612
sI14
F2776.1608
sI15
F2801.1808
sI16
F2857.6492
sI17
F2916.6940000000004
sI18
F2997.5156
sI19
F2852.1335999999997
sI20
F2929.2616
sI21
F2905.0935999999997
sI22
F3025.4215999999997
sI23
F2918.3644
sI24
F2928.458
sI25
F2962.5988
ssg83
(dp248
I0
F1.25738
sI1
F1.310997
sI2
F1.308062
sI3
F1.4719440000000001
sI4
F1.484449
sI5
F1.1829450000000001
sI6
F1.302157
sI7
F1.252216
sI8
F1.476061
sI9
F1.48869
sI10
F1.376293
sI11
F1.3050680000000001
sI12
F1.379736
sI13
F1.249676
sI14
F1.480242
sI15
F1.247147
sI16
F1.372862
sI17
F1.184991
sI18
F1.206952
sI19
F1.3694110000000002
sI20
F1.365992
sI21
F1.254781
sI22
F1.204734
sI23
F1.313962
sI24
F1.187036
sI25
F1.202544
ssg85
(dp249
I0
F2442.5856
sI1
F2449.5448
sI2
F2451.8536
sI3
F2340.6644
sI4
F2349.5756
sI5
F2346.35
sI6
F2365.2108
sI7
F2351.0744
sI8
F2347.134
sI9
F2292.6751999999997
sI10
F2382.4392000000003
sI11
F2425.27
sI12
F2372.3644
sI13
F2356.5636
sI14
F2320.3808
sI15
F2313.6192
sI16
F2311.6223999999997
sI17
F2362.6956
sI18
F2416.1388
sI19
F2327.6456
sI20
F2347.8496
sI21
F2372.6135999999997
sI22
F2431.3776000000003
sI23
F2377.1551999999997
sI24
F2355.4836
sI25
F2406.5036
ssg87
(dp250
I0
F4085.384
sI1
F4124.348
sI2
F4105.124
sI3
F3919.7184
sI4
F3962.3088000000002
sI5
F3930.1928000000003
sI6
F4032.328
sI7
F3970.8091999999997
sI8
F3940.1496
sI9
F3831.7016
sI10
F3966.0652
sI11
F4101.92
sI12
F3953.1152
sI13
F3949.2264
sI14
F3833.4284000000002
sI15
F3876.5135999999998
sI16
F3901.2136
sI17
F3982.8228000000004
sI18
F4078.788
sI19
F3941.6684000000005
sI20
F3930.3824
sI21
F3977.1208
sI22
F4120.264
sI23
F3975.552
sI24
F3974.7464
sI25
F4074.0040000000004
ssg89
(dp251
I0
F-3.387547
sI1
F-1.977436
sI2
F-2.656415
sI3
F-1.541221
sI4
F-1.115642
sI5
F-2.851591
sI6
F-2.133217
sI7
F-2.381263
sI8
F-1.460268
sI9
F-1.364334
sI10
F-2.191354
sI11
F-2.417774
sI12
F-2.33237
sI13
F-3.143348
sI14
F-1.213653
sI15
F-1.724423
sI16
F-1.288075
sI17
F-2.450642
sI18
F-1.959211
sI19
F-1.164474
sI20
F-2.535238
sI21
F-2.736253
sI22
F-3.763572
sI23
F-2.146732
sI24
F-2.888747
sI25
F-2.292462
ssg91
(dp252
I0
F12.53
sI1
F12.527
sI2
F12.526
sI3
F12.577
sI4
F12.573
sI5
F12.574
sI6
F12.565
sI7
F12.572
sI8
F12.574
sI9
F12.599
sI10
F12.557
sI11
F12.538
sI12
F12.562
sI13
F12.569
sI14
F12.586
sI15
F12.589
sI16
F12.59
sI17
F12.566
sI18
F12.542
sI19
F12.583
sI20
F12.573
sI21
F12.562
sI22
F12.535
sI23
F12.56
sI24
F12.57
sI25
F12.547
ssg93
(dp253
I0
F0.003
sI1
F0.003
sI2
F0.003
sI3
F0.004
sI4
F0.004
sI5
F0.004
sI6
F0.004
sI7
F0.004
sI8
F0.004
sI9
F0.004
sI10
F0.004
sI11
F0.003
sI12
F0.004
sI13
F0.004
sI14
F0.004
sI15
F0.004
sI16
F0.004
sI17
F0.004
sI18
F0.004
sI19
F0.004
sI20
F0.004
sI21
F0.004
sI22
F0.003
sI23
F0.004
sI24
F0.004
sI25
F0.003
ssg95
(dp254
I0
F13.361769230769228
sI1
Fnan
sI2
Fnan
sI3
Fnan
sI4
Fnan
sI5
Fnan
sI6
Fnan
sI7
Fnan
sI8
Fnan
sI9
Fnan
sI10
Fnan
sI11
Fnan
sI12
Fnan
sI13
Fnan
sI14
Fnan
sI15
Fnan
sI16
Fnan
sI17
Fnan
sI18
Fnan
sI19
Fnan
sI20
Fnan
sI21
Fnan
sI22
Fnan
sI23
Fnan
sI24
Fnan
sI25
Fnan
ssg97
(dp255
I0
F12.563307692307692
sI1
Fnan
sI2
Fnan
sI3
Fnan
sI4
Fnan
sI5
Fnan
sI6
Fnan
sI7
Fnan
sI8
Fnan
sI9
Fnan
sI10
Fnan
sI11
Fnan
sI12
Fnan
sI13
Fnan
sI14
Fnan
sI15
Fnan
sI16
Fnan
sI17
Fnan
sI18
Fnan
sI19
Fnan
sI20
Fnan
sI21
Fnan
sI22
Fnan
sI23
Fnan
sI24
Fnan
sI25
Fnan
ssg99
(dp256
I0
F12.305
sI1
F12.305
sI2
F12.315
sI3
F12.353
sI4
F12.346
sI5
F12.36
sI6
F12.328
sI7
F12.336
sI8
F12.36
sI9
F12.391
sI10
F12.341
sI11
F12.315
sI12
F12.334
sI13
F12.337
sI14
F12.391
sI15
F12.382
sI16
F12.36
sI17
F12.338
sI18
F12.308
sI19
F12.362
sI20
F12.333
sI21
F12.342
sI22
F12.298
sI23
F12.337
sI24
F12.333
sI25
F12.321
ssg101
(dp257
I0
F-2.226961
sI1
F3.522891
sI2
F3.92221
sI3
F-2.346675
sI4
F3.569157
sI5
F2.037374
sI6
F4.388124
sI7
F-2.645276
sI8
F3.294344
sI9
F5.325693
sI10
F-2.225152
sI11
F2.555904
sI12
F-3.206642
sI13
F-2.009269
sI14
F-2.734866
sI15
F1.249625
sI16
F3.201645
sI17
F3.628701
sI18
F-2.658839
sI19
F3.462228
sI20
F2.627252
sI21
F-2.203984
sI22
F2.991717
sI23
F3.080215
sI24
F2.827677
sI25
F-3.291926
ssg103
(dp258
I0
F0.022894406438120338
sI1
Fnan
sI2
Fnan
sI3
Fnan
sI4
Fnan
sI5
Fnan
sI6
Fnan
sI7
Fnan
sI8
Fnan
sI9
Fnan
sI10
Fnan
sI11
Fnan
sI12
Fnan
sI13
Fnan
sI14
Fnan
sI15
Fnan
sI16
Fnan
sI17
Fnan
sI18
Fnan
sI19
Fnan
sI20
Fnan
sI21
Fnan
sI22
Fnan
sI23
Fnan
sI24
Fnan
sI25
Fnan
ssg105
(dp259
I0
F0.6889609338287849
sI1
F0.6870747654381713
sI2
F0.6923829822659173
sI3
F0.6889446180412577
sI4
F0.6853265899794505
sI5
F0.69133164083507
sI6
F0.6781252062506733
sI7
F0.6823436471057037
sI8
F0.6904435536227508
sI9
F0.6937011424362035
sI10
F0.6932908395100601
sI11
F0.6850317593385561
sI12
F0.6897620436429029
sI13
F0.6861857887639083
sI14
F0.7021255723426805
sI15
F0.6929395271517667
sI16
F0.6840270230074799
sI17
F0.6848872663082723
sI18
F0.6828816106759468
sI19
F0.6852262105960698
sI20
F0.6845397807816266
sI21
F0.6894913358119154
sI22
F0.6805162544514973
sI23
F0.6896385340559105
sI24
F0.6824319442141971
sI25
F0.6839958623215168
ssg107
(dp260
I0
F25.0
sI1
F25.0
sI2
F25.0
sI3
F25.0
sI4
F25.0
sI5
F25.0
sI6
F25.0
sI7
F25.0
sI8
F25.0
sI9
F25.0
sI10
F25.0
sI11
F25.0
sI12
F25.0
sI13
F25.0
sI14
F25.0
sI15
F25.0
sI16
F25.0
sI17
F25.0
sI18
F25.0
sI19
F25.0
sI20
F25.0
sI21
F25.0
sI22
F25.0
sI23
F25.0
sI24
F25.0
sI25
F25.0
ssg109
(dp261
I0
F0.005
sI1
F0.005
sI2
F0.005
sI3
F0.005
sI4
F0.005
sI5
F0.005
sI6
F0.005
sI7
F0.005
sI8
F0.005
sI9
F0.005
sI10
F0.005
sI11
F0.005
sI12
F0.005
sI13
F0.005
sI14
F0.005
sI15
F0.005
sI16
F0.005
sI17
F0.005
sI18
F0.005
sI19
F0.005
sI20
F0.005
sI21
F0.005
sI22
F0.005
sI23
F0.005
sI24
F0.005
sI25
F0.005
ssg111
(dp262
I0
F0.004
sI1
F0.004
sI2
F0.004
sI3
F0.004
sI4
F0.004
sI5
F0.004
sI6
F0.004
sI7
F0.004
sI8
F0.004
sI9
F0.005
sI10
F0.004
sI11
F0.004
sI12
F0.004
sI13
F0.004
sI14
F0.004
sI15
F0.004
sI16
F0.004
sI17
F0.004
sI18
F0.004
sI19
F0.004
sI20
F0.004
sI21
F0.004
sI22
F0.004
sI23
F0.004
sI24
F0.004
sI25
F0.004
ssg113
(dp263
I0
F3.156815
sI1
F3.691566
sI2
F-3.606802
sI3
F0.8291624
sI4
F3.521968
sI5
F4.068193
sI6
F2.827785
sI7
F3.253386
sI8
F1.480618
sI9
F2.951666
sI10
F2.253291
sI11
F3.429044
sI12
F3.484806
sI13
F-1.887066
sI14
F3.98099
sI15
F-2.705039
sI16
F1.739142
sI17
F4.109785
sI18
F2.300372
sI19
F2.990655
sI20
F3.818285
sI21
F0.4541866
sI22
F-2.609592
sI23
F3.548868
sI24
F-4.21615
sI25
F4.507264
ssg115
(dp264
I0
S"KIC8462852-20180403at113438_-35-1-025-z'_cal.fts.mag.1"
p265
sI1
S"KIC8462852-20180403at111743_-35-1-025-z'_cal.fts.mag.1"
p266
sI2
S"KIC8462852-20180403at111835_-35-1-025-z'_cal.fts.mag.1"
p267
sI3
S"KIC8462852-20180403at103741_-35-1-025-z'_cal.fts.mag.1"
p268
sI4
S"KIC8462852-20180403at103504_-35-1-025-z'_cal.fts.mag.1"
p269
sI5
S"KIC8462852-20180403at120304_-35-1-025-z'_cal.fts.mag.1"
p270
sI6
S"KIC8462852-20180403at112021_-35-1-025-z'_cal.fts.mag.1"
p271
sI7
S"KIC8462852-20180403at113626_-35-1-025-z'_cal.fts.mag.1"
p272
sI8
S"KIC8462852-20180403at103649_-35-1-025-z'_cal.fts.mag.1"
p273
sI9
S"KIC8462852-20180403at103410_-35-1-025-z'_cal.fts.mag.1"
p274
sI10
S"KIC8462852-20180403at105950_-35-1-025-z'_cal.fts.mag.1"
p275
sI11
S"KIC8462852-20180403at111927_-35-1-025-z'_cal.fts.mag.1"
p276
sI12
S"KIC8462852-20180403at105855_-35-1-025-z'_cal.fts.mag.1"
p277
sI13
S"KIC8462852-20180403at113718_-35-1-025-z'_cal.fts.mag.1"
p278
sI14
S"KIC8462852-20180403at103556_-35-1-025-z'_cal.fts.mag.1"
p279
sI15
S"KIC8462852-20180403at113811_-35-1-025-z'_cal.fts.mag.1"
p280
sI16
S"KIC8462852-20180403at110042_-35-1-025-z'_cal.fts.mag.1"
p281
sI17
S"KIC8462852-20180403at120212_-35-1-025-z'_cal.fts.mag.1"
p282
sI18
S"KIC8462852-20180403at115307_-35-1-025-z'_cal.fts.mag.1"
p283
sI19
S"KIC8462852-20180403at110135_-35-1-025-z'_cal.fts.mag.1"
p284
sI20
S"KIC8462852-20180403at110228_-35-1-025-z'_cal.fts.mag.1"
p285
sI21
S"KIC8462852-20180403at113533_-35-1-025-z'_cal.fts.mag.1"
p286
sI22
S"KIC8462852-20180403at115402_-35-1-025-z'_cal.fts.mag.1"
p287
sI23
S"KIC8462852-20180403at111648_-35-1-025-z'_cal.fts.mag.1"
p288
sI24
S"KIC8462852-20180403at120118_-35-1-025-z'_cal.fts.mag.1"
p289
sI25
S"KIC8462852-20180403at115455_-35-1-025-z'_cal.fts.mag.1"
p290
ssg143
(dp291
I0
F0.008028888430761848
sI1
Fnan
sI2
Fnan
sI3
Fnan
sI4
Fnan
sI5
Fnan
sI6
Fnan
sI7
Fnan
sI8
Fnan
sI9
Fnan
sI10
Fnan
sI11
Fnan
sI12
Fnan
sI13
Fnan
sI14
Fnan
sI15
Fnan
sI16
Fnan
sI17
Fnan
sI18
Fnan
sI19
Fnan
sI20
Fnan
sI21
Fnan
sI22
Fnan
sI23
Fnan
sI24
Fnan
sI25
Fnan
ssg145
(dp292
I0
F1179.236
sI1
F1189.366
sI2
F1164.72
sI3
F1127.8696
sI4
F1134.0016
sI5
F1140.3524
sI6
F1164.1952
sI7
F1107.5416
sI8
F1134.6156
sI9
F1083.6012
sI10
F1140.8944000000001
sI11
F1147.8796
sI12
F1137.3732
sI13
F1130.7584
sI14
F1101.2212
sI15
F1088.1272
sI16
F1111.7156
sI17
F1134.1156
sI18
F1152.8524
sI19
F1110.2388
sI20
F1098.008
sI21
F1134.1168
sI22
F1176.882
sI23
F1154.0796
sI24
F1139.7584
sI25
F1150.96
ssg147
(dp293
I0
F0.020348502118375782
sI1
Fnan
sI2
Fnan
sI3
Fnan
sI4
Fnan
sI5
Fnan
sI6
Fnan
sI7
Fnan
sI8
Fnan
sI9
Fnan
sI10
Fnan
sI11
Fnan
sI12
Fnan
sI13
Fnan
sI14
Fnan
sI15
Fnan
sI16
Fnan
sI17
Fnan
sI18
Fnan
sI19
Fnan
sI20
Fnan
sI21
Fnan
sI22
Fnan
sI23
Fnan
sI24
Fnan
sI25
Fnan
ssg149
(dp294
I0
S"z'"
p295
sI1
S"z'"
p296
sI2
S"z'"
p297
sI3
S"z'"
p298
sI4
S"z'"
p299
sI5
S"z'"
p300
sI6
S"z'"
p301
sI7
S"z'"
p302
sI8
S"z'"
p303
sI9
S"z'"
p304
sI10
S"z'"
p305
sI11
S"z'"
p306
sI12
S"z'"
p307
sI13
S"z'"
p308
sI14
S"z'"
p309
sI15
S"z'"
p310
sI16
S"z'"
p311
sI17
S"z'"
p312
sI18
S"z'"
p313
sI19
S"z'"
p314
sI20
S"z'"
p315
sI21
S"z'"
p316
sI22
S"z'"
p317
sI23
S"z'"
p318
sI24
S"z'"
p319
sI25
S"z'"
p320
ssg177
(dp321
I0
F0.026265273944594835
sI1
Fnan
sI2
Fnan
sI3
Fnan
sI4
Fnan
sI5
Fnan
sI6
Fnan
sI7
Fnan
sI8
Fnan
sI9
Fnan
sI10
Fnan
sI11
Fnan
sI12
Fnan
sI13
Fnan
sI14
Fnan
sI15
Fnan
sI16
Fnan
sI17
Fnan
sI18
Fnan
sI19
Fnan
sI20
Fnan
sI21
Fnan
sI22
Fnan
sI23
Fnan
sI24
Fnan
sI25
Fnan
ssg179
(dp322
I0
F1.537975
sI1
F-2.29515
sI2
F-0.9228253
sI3
F-2.571626
sI4
F3.766987
sI5
F2.653315
sI6
F3.72638
sI7
F3.011412
sI8
F3.142011
sI9
F-2.004079
sI10
F3.155411
sI11
F-3.658279
sI12
F3.539802
sI13
F1.916021
sI14
F3.761724
sI15
F2.404857
sI16
F3.516694
sI17
F1.761589
sI18
F2.60413
sI19
F2.322666
sI20
F-3.806915
sI21
F-0.8827369
sI22
F4.276815
sI23
F3.408644
sI24
F3.809117
sI25
F3.318455
ssg181
(dp323
I0
F1.5078444243037352
sI1
Fnan
sI2
Fnan
sI3
Fnan
sI4
Fnan
sI5
Fnan
sI6
Fnan
sI7
Fnan
sI8
Fnan
sI9
Fnan
sI10
Fnan
sI11
Fnan
sI12
Fnan
sI13
Fnan
sI14
Fnan
sI15
Fnan
sI16
Fnan
sI17
Fnan
sI18
Fnan
sI19
Fnan
sI20
Fnan
sI21
Fnan
sI22
Fnan
sI23
Fnan
sI24
Fnan
sI25
Fnan
ssg183
(dp324
I0
F2458211.971539352
sI1
Fnan
sI2
Fnan
sI3
Fnan
sI4
Fnan
sI5
Fnan
sI6
Fnan
sI7
Fnan
sI8
Fnan
sI9
Fnan
sI10
Fnan
sI11
Fnan
sI12
Fnan
sI13
Fnan
sI14
Fnan
sI15
Fnan
sI16
Fnan
sI17
Fnan
sI18
Fnan
sI19
Fnan
sI20
Fnan
sI21
Fnan
sI22
Fnan
sI23
Fnan
sI24
Fnan
sI25
Fnan
ssg185
(dp325
I0
F0.0042130462498133295
sI1
Fnan
sI2
Fnan
sI3
Fnan
sI4
Fnan
sI5
Fnan
sI6
Fnan
sI7
Fnan
sI8
Fnan
sI9
Fnan
sI10
Fnan
sI11
Fnan
sI12
Fnan
sI13
Fnan
sI14
Fnan
sI15
Fnan
sI16
Fnan
sI17
Fnan
sI18
Fnan
sI19
Fnan
sI20
Fnan
sI21
Fnan
sI22
Fnan
sI23
Fnan
sI24
Fnan
sI25
Fnan
ssg187
(dp326
I0
F-2.714136
sI1
F-3.550496
sI2
F-2.398025
sI3
F-1.032882
sI4
F-1.143252
sI5
F-2.705215
sI6
F-1.722417
sI7
F-2.121362
sI8
F-0.1465932
sI9
F-1.24828
sI10
F-0.6717123
sI11
F-1.735494
sI12
F-0.4657354
sI13
F-1.32348
sI14
F-0.1545599
sI15
F-1.353654
sI16
F-1.152614
sI17
F-2.058416
sI18
F-2.65228
sI19
F-1.587316
sI20
F-0.5801684
sI21
F-1.270116
sI22
F-2.860527
sI23
F-0.915486
sI24
F-2.283193
sI25
F-2.738273
ssg189
(dp327
I0
F11.972
sI1
F11.962
sI2
F11.967
sI3
F12.017
sI4
F12.005
sI5
F12.014
sI6
F11.986
sI7
F12.003
sI8
F12.011
sI9
F12.042
sI10
F12.004
sI11
F11.968
sI12
F12.008
sI13
F12.009
sI14
F12.041
sI15
F12.029
sI16
F12.022
sI17
F12.0
sI18
F11.974
sI19
F12.011
sI20
F12.014
sI21
F12.001
sI22
F11.963
sI23
F12.002
sI24
F12.002
sI25
F11.975
ssg191
(dp328
I0
F0.3678381263211236
sI1
Fnan
sI2
Fnan
sI3
Fnan
sI4
Fnan
sI5
Fnan
sI6
Fnan
sI7
Fnan
sI8
Fnan
sI9
Fnan
sI10
Fnan
sI11
Fnan
sI12
Fnan
sI13
Fnan
sI14
Fnan
sI15
Fnan
sI16
Fnan
sI17
Fnan
sI18
Fnan
sI19
Fnan
sI20
Fnan
sI21
Fnan
sI22
Fnan
sI23
Fnan
sI24
Fnan
sI25
Fnan
sssS'g'
p329
(dp330
g3
(dp331
I0
F0.8567335280655312
sI1
Fnan
sI2
Fnan
sI3
Fnan
sI4
Fnan
sI5
Fnan
sI6
Fnan
sI7
Fnan
sI8
Fnan
sI9
Fnan
sI10
Fnan
sI11
Fnan
sI12
Fnan
sI13
Fnan
sI14
Fnan
sI15
Fnan
sI16
Fnan
sI17
Fnan
sI18
Fnan
sI19
Fnan
sI20
Fnan
sI21
Fnan
ssg5
(dp332
I0
S'NoError'
p333
sI1
S'NoError'
p334
sI2
S'NoError'
p335
sI3
S'NoError'
p336
sI4
S'NoError'
p337
sI5
S'NoError'
p338
sI6
S'NoError'
p339
sI7
S'NoError'
p340
sI8
S'NoError'
p341
sI9
S'NoError'
p342
sI10
S'NoError'
p343
sI11
S'NoError'
p344
sI12
S'NoError'
p345
sI13
S'NoError'
p346
sI14
S'NoError'
p347
sI15
S'NoError'
p348
sI16
S'NoError'
p349
sI17
S'NoError'
p350
sI18
S'NoError'
p351
sI19
S'NoError'
p352
sI20
S'NoError'
p353
sI21
S'NoError'
p354
ssg33
(dp355
I0
F0.003
sI1
F0.003
sI2
F0.003
sI3
F0.003
sI4
F0.003
sI5
F0.003
sI6
F0.003
sI7
F0.003
sI8
F0.003
sI9
F0.003
sI10
F0.003
sI11
F0.003
sI12
F0.003
sI13
F0.003
sI14
F0.003
sI15
F0.003
sI16
F0.003
sI17
F0.003
sI18
F0.003
sI19
F0.003
sI20
F0.003
sI21
F0.003
ssg35
(dp356
I0
F0.8897882794275691
sI1
F0.8737387760522624
sI2
F0.8839048974413418
sI3
F0.8846606325469647
sI4
F0.881394970937247
sI5
F0.8866017613142159
sI6
F0.8811620689609768
sI7
F0.8696079086216023
sI8
F0.8749142008323835
sI9
F0.8818984208587243
sI10
F0.8767612829447123
sI11
F0.8787206653112518
sI12
F0.8787349671738917
sI13
F0.8775232426573562
sI14
F0.8735325005720612
sI15
F0.8913927803353753
sI16
F0.8845647247580335
sI17
F0.8828442965691721
sI18
F0.8848968091630287
sI19
F0.882533883268915
sI20
F0.8813031203539942
sI21
F0.8782543705708822
ssg37
(dp357
I0
F0.00532706373090383
sI1
Fnan
sI2
Fnan
sI3
Fnan
sI4
Fnan
sI5
Fnan
sI6
Fnan
sI7
Fnan
sI8
Fnan
sI9
Fnan
sI10
Fnan
sI11
Fnan
sI12
Fnan
sI13
Fnan
sI14
Fnan
sI15
Fnan
sI16
Fnan
sI17
Fnan
sI18
Fnan
sI19
Fnan
sI20
Fnan
sI21
Fnan
ssg39
(dp358
I0
F0.8808515709396346
sI1
Fnan
sI2
Fnan
sI3
Fnan
sI4
Fnan
sI5
Fnan
sI6
Fnan
sI7
Fnan
sI8
Fnan
sI9
Fnan
sI10
Fnan
sI11
Fnan
sI12
Fnan
sI13
Fnan
sI14
Fnan
sI15
Fnan
sI16
Fnan
sI17
Fnan
sI18
Fnan
sI19
Fnan
sI20
Fnan
sI21
Fnan
ssg41
(dp359
I0
F11.479
sI1
F11.482
sI2
F11.457
sI3
F11.491
sI4
F11.491
sI5
F11.518
sI6
F11.507
sI7
F11.501
sI8
F11.459
sI9
F11.527
sI10
F11.49
sI11
F11.47
sI12
F11.486
sI13
F11.517
sI14
F11.454
sI15
F11.618
sI16
F11.534
sI17
F11.462
sI18
F11.499
sI19
F11.494
sI20
F11.455
sI21
F11.493
ssg43
(dp360
I0
F27.46517
sI1
F33.70023
sI2
F28.88679
sI3
F28.61975
sI4
F27.37147
sI5
F34.67953
sI6
F36.06724
sI7
F34.45207
sI8
F28.26063
sI9
F33.00442
sI10
F32.35467
sI11
F27.12424
sI12
F29.70893
sI13
F32.55967
sI14
F29.88052
sI15
F40.45467
sI16
F32.11552
sI17
F30.2014
sI18
F34.76528
sI19
F32.29864
sI20
F28.25339
sI21
F28.60776
ssg45
(dp361
I0
F2458211.9921296295
sI1
F2458211.9526851852
sI2
F2458211.978101852
sI3
F2458211.9972106484
sI4
F2458211.9915277776
sI5
F2458211.953298611
sI6
F2458211.9514583335
sI7
F2458211.953912037
sI8
F2458211.9787152777
sI9
F2458211.9650810184
sI10
F2458211.9644675925
sI11
F2458211.9978356482
sI12
F2458211.976875
sI13
F2458211.9656828702
sI14
F2458211.976261574
sI15
F2458211.936736111
sI16
F2458211.966284722
sI17
F2458211.977488426
sI18
F2458211.9520717594
sI19
F2458211.9638657407
sI20
F2458211.998449074
sI21
F2458211.9927430553
ssg47
(dp362
I0
F1.9459315454545456
sI1
Fnan
sI2
Fnan
sI3
Fnan
sI4
Fnan
sI5
Fnan
sI6
Fnan
sI7
Fnan
sI8
Fnan
sI9
Fnan
sI10
Fnan
sI11
Fnan
sI12
Fnan
sI13
Fnan
sI14
Fnan
sI15
Fnan
sI16
Fnan
sI17
Fnan
sI18
Fnan
sI19
Fnan
sI20
Fnan
sI21
Fnan
ssg49
(dp363
I0
F2.3718833545454543
sI1
Fnan
sI2
Fnan
sI3
Fnan
sI4
Fnan
sI5
Fnan
sI6
Fnan
sI7
Fnan
sI8
Fnan
sI9
Fnan
sI10
Fnan
sI11
Fnan
sI12
Fnan
sI13
Fnan
sI14
Fnan
sI15
Fnan
sI16
Fnan
sI17
Fnan
sI18
Fnan
sI19
Fnan
sI20
Fnan
sI21
Fnan
ssg51
(dp364
I0
F0.8624576193039379
sI1
F0.8583280577880966
sI2
F0.855562034384851
sI3
F0.8566467395635807
sI4
F0.8529315608363515
sI5
F0.8520125265682642
sI6
F0.8591363868023102
sI7
F0.8563301381619681
sI8
F0.8558534884267666
sI9
F0.8476561158280947
sI10
F0.8568151954457432
sI11
F0.8634554593647288
sI12
F0.8560869212044502
sI13
F0.8610080442920994
sI14
F0.8584051424739366
sI15
F0.8461521601995042
sI16
F0.8574781400187138
sI17
F0.8574659861535207
sI18
F0.8547173367378477
sI19
F0.8499081000030535
sI20
F0.8617882216055158
sI21
F0.855005393474085
ssg53
(dp365
I0
F0.0030942287163253073
sI1
Fnan
sI2
Fnan
sI3
Fnan
sI4
Fnan
sI5
Fnan
sI6
Fnan
sI7
Fnan
sI8
Fnan
sI9
Fnan
sI10
Fnan
sI11
Fnan
sI12
Fnan
sI13
Fnan
sI14
Fnan
sI15
Fnan
sI16
Fnan
sI17
Fnan
sI18
Fnan
sI19
Fnan
sI20
Fnan
sI21
Fnan
ssg55
(dp366
I0
F2.241220863636364
sI1
Fnan
sI2
Fnan
sI3
Fnan
sI4
Fnan
sI5
Fnan
sI6
Fnan
sI7
Fnan
sI8
Fnan
sI9
Fnan
sI10
Fnan
sI11
Fnan
sI12
Fnan
sI13
Fnan
sI14
Fnan
sI15
Fnan
sI16
Fnan
sI17
Fnan
sI18
Fnan
sI19
Fnan
sI20
Fnan
sI21
Fnan
ssg57
(dp367
I0
g333
sI1
g334
sI2
g335
sI3
g336
sI4
g337
sI5
g338
sI6
g339
sI7
g340
sI8
g341
sI9
g342
sI10
g343
sI11
g344
sI12
g345
sI13
g346
sI14
g347
sI15
g348
sI16
g349
sI17
g350
sI18
g351
sI19
g352
sI20
g353
sI21
g354
ssg59
(dp368
I0
F0.006715209027379336
sI1
Fnan
sI2
Fnan
sI3
Fnan
sI4
Fnan
sI5
Fnan
sI6
Fnan
sI7
Fnan
sI8
Fnan
sI9
Fnan
sI10
Fnan
sI11
Fnan
sI12
Fnan
sI13
Fnan
sI14
Fnan
sI15
Fnan
sI16
Fnan
sI17
Fnan
sI18
Fnan
sI19
Fnan
sI20
Fnan
sI21
Fnan
ssg61
(dp369
I0
F0.03112177589831506
sI1
Fnan
sI2
Fnan
sI3
Fnan
sI4
Fnan
sI5
Fnan
sI6
Fnan
sI7
Fnan
sI8
Fnan
sI9
Fnan
sI10
Fnan
sI11
Fnan
sI12
Fnan
sI13
Fnan
sI14
Fnan
sI15
Fnan
sI16
Fnan
sI17
Fnan
sI18
Fnan
sI19
Fnan
sI20
Fnan
sI21
Fnan
ssg63
(dp370
I0
F1.4202882000000001
sI1
Fnan
sI2
Fnan
sI3
Fnan
sI4
Fnan
sI5
Fnan
sI6
Fnan
sI7
Fnan
sI8
Fnan
sI9
Fnan
sI10
Fnan
sI11
Fnan
sI12
Fnan
sI13
Fnan
sI14
Fnan
sI15
Fnan
sI16
Fnan
sI17
Fnan
sI18
Fnan
sI19
Fnan
sI20
Fnan
sI21
Fnan
ssg65
(dp371
I0
F1.5100898394031281
sI1
F1.5304842192128585
sI2
F1.5115927894763348
sI3
F1.5083996396488308
sI4
F1.510466718936728
sI5
F1.5081995315103736
sI6
F1.517056439039601
sI7
F1.5396771049729427
sI8
F1.531118184811754
sI9
F1.5082516109014508
sI10
F1.4994218441226468
sI11
F1.5151078517415149
sI12
F1.5153705815422485
sI13
F1.511965025385272
sI14
F1.5228841540521014
sI15
F1.5431951250764664
sI16
F1.5087690170911425
sI17
F1.5131821963739547
sI18
F1.5101080220999517
sI19
F1.5115222717100343
sI20
F1.5188976247254296
sI21
F1.5203977037179346
ssg67
(dp372
I0
g333
sI1
g334
sI2
g335
sI3
g336
sI4
g337
sI5
g338
sI6
g339
sI7
g340
sI8
g341
sI9
g342
sI10
g343
sI11
g344
sI12
g345
sI13
g346
sI14
g347
sI15
g348
sI16
g349
sI17
g350
sI18
g351
sI19
g352
sI20
g353
sI21
g354
ssg69
(dp373
I0
F27.41943
sI1
F33.99329
sI2
F28.64204
sI3
F27.10754
sI4
F28.98759
sI5
F34.5677
sI6
F36.75239
sI7
F34.9318
sI8
F28.44792
sI9
F33.81748
sI10
F33.33485
sI11
F28.07645
sI12
F30.82313
sI13
F32.18945
sI14
F31.49104
sI15
F40.23861
sI16
F32.3941
sI17
F29.00549
sI18
F35.27022
sI19
F32.08208
sI20
F28.60058
sI21
F28.83692
ssg71
(dp374
I0
F11.0465
sI1
Fnan
sI2
Fnan
sI3
Fnan
sI4
Fnan
sI5
Fnan
sI6
Fnan
sI7
Fnan
sI8
Fnan
sI9
Fnan
sI10
Fnan
sI11
Fnan
sI12
Fnan
sI13
Fnan
sI14
Fnan
sI15
Fnan
sI16
Fnan
sI17
Fnan
sI18
Fnan
sI19
Fnan
sI20
Fnan
sI21
Fnan
ssg73
(dp375
I0
F0.7136123287138685
sI1
Fnan
sI2
Fnan
sI3
Fnan
sI4
Fnan
sI5
Fnan
sI6
Fnan
sI7
Fnan
sI8
Fnan
sI9
Fnan
sI10
Fnan
sI11
Fnan
sI12
Fnan
sI13
Fnan
sI14
Fnan
sI15
Fnan
sI16
Fnan
sI17
Fnan
sI18
Fnan
sI19
Fnan
sI20
Fnan
sI21
Fnan
ssg75
(dp376
I0
F3.508141
sI1
F4.945538
sI2
F-2.47242
sI3
F0.8925128
sI4
F-3.039068
sI5
F3.988493
sI6
F4.181858
sI7
F2.501058
sI8
F4.679404
sI9
F-2.319973
sI10
F3.909519
sI11
F4.61674
sI12
F3.562316
sI13
F4.258866
sI14
F4.430614
sI15
F-2.406066
sI16
F5.000172
sI17
F3.386106
sI18
F2.22424
sI19
F4.957778
sI20
F-3.328412
sI21
F4.704017
ssg77
(dp377
I0
F11.419772727272727
sI1
Fnan
sI2
Fnan
sI3
Fnan
sI4
Fnan
sI5
Fnan
sI6
Fnan
sI7
Fnan
sI8
Fnan
sI9
Fnan
sI10
Fnan
sI11
Fnan
sI12
Fnan
sI13
Fnan
sI14
Fnan
sI15
Fnan
sI16
Fnan
sI17
Fnan
sI18
Fnan
sI19
Fnan
sI20
Fnan
sI21
Fnan
ssg79
(dp378
I0
g333
sI1
g334
sI2
g335
sI3
g336
sI4
g337
sI5
g338
sI6
g339
sI7
g340
sI8
g341
sI9
g342
sI10
g343
sI11
g344
sI12
g345
sI13
g346
sI14
g347
sI15
g348
sI16
g349
sI17
g350
sI18
g351
sI19
g352
sI20
g353
sI21
g354
ssg81
(dp379
I0
F6891.848000000001
sI1
F6815.996
sI2
F7051.94
sI3
F6833.968000000001
sI4
F6845.1759999999995
sI5
F6713.2119999999995
sI6
F6692.188
sI7
F6691.892
sI8
F6990.204000000001
sI9
F6664.076
sI10
F6795.924
sI11
F6880.664000000001
sI12
F6839.312
sI13
F6603.1359999999995
sI14
F6993.62
sI15
F6189.071999999999
sI16
F6558.568
sI17
F7000.784000000001
sI18
F6796.388000000001
sI19
F6858.2519999999995
sI20
F7003.1359999999995
sI21
F6799.151999999999
ssg83
(dp380
I0
F1.218466
sI1
F1.408613
sI2
F1.276119
sI3
F1.19985
sI4
F1.220768
sI5
F1.404943
sI6
F1.416113
sI7
F1.4013309999999999
sI8
F1.273426
sI9
F1.339037
sI10
F1.342171
sI11
F1.197676
sI12
F1.281622
sI13
F1.335875
sI14
F1.284402
sI15
F1.515132
sI16
F1.332733
sI17
F1.278849
sI18
F1.412328
sI19
F1.345382
sI20
F1.195547
sI21
F1.216176
ssg85
(dp381
I0
F5861.576
sI1
F5883.624
sI2
F6052.24
sI3
F5869.196
sI4
F5903.996
sI5
F5747.255999999999
sI6
F5750.972
sI7
F5785.228
sI8
F6019.488
sI9
F5750.7119999999995
sI10
F5948.044
sI11
F5944.72
sI12
F5907.896
sI13
F5727.6359999999995
sI14
F6067.2080000000005
sI15
F5142.715999999999
sI16
F5632.308000000001
sI17
F6013.284000000001
sI18
F5828.436
sI19
F5899.996
sI20
F6009.928000000001
sI21
F5859.92
ssg87
(dp382
I0
F9629.408000000001
sI1
F9718.284
sI2
F9904.091999999999
sI3
F9580.724
sI4
F9628.6
sI5
F9396.436
sI6
F9438.488000000001
sI7
F9605.368
sI8
F9959.688
sI9
F9362.312
sI10
F9554.292
sI11
F9715.92
sI12
F9658.372
sI13
F9321.848
sI14
F9945.064
sI15
F8743.58
sI16
F9196.608
sI17
F9846.328000000001
sI18
F9532.424
sI19
F9642.188
sI20
F9882.756
sI21
F9623.412
ssg89
(dp383
I0
F28.45642
sI1
F34.24235
sI2
F29.36551
sI3
F28.16234
sI4
F28.59932
sI5
F33.69632
sI6
F35.50681
sI7
F35.31126
sI8
F28.67504
sI9
F32.36938
sI10
F31.90675
sI11
F26.98179
sI12
F29.0815
sI13
F32.07313
sI14
F29.4581
sI15
F41.28949
sI16
F31.43266
sI17
F29.65972
sI18
F34.98636
sI19
F31.78068
sI20
F28.87731
sI21
F28.27787
ssg91
(dp384
I0
F11.58
sI1
F11.576
sI2
F11.545
sI3
F11.579
sI4
F11.572
sI5
F11.601
sI6
F11.601
sI7
F11.594
sI8
F11.551
sI9
F11.601
sI10
F11.564
sI11
F11.565
sI12
F11.571
sI13
F11.605
sI14
F11.543
sI15
F11.722
sI16
F11.623
sI17
F11.552
sI18
F11.586
sI19
F11.573
sI20
F11.553
sI21
F11.58
ssg93
(dp385
I0
F0.002
sI1
F0.002
sI2
F0.002
sI3
F0.002
sI4
F0.002
sI5
F0.002
sI6
F0.002
sI7
F0.002
sI8
F0.002
sI9
F0.002
sI10
F0.002
sI11
F0.002
sI12
F0.002
sI13
F0.002
sI14
F0.002
sI15
F0.002
sI16
F0.002
sI17
F0.002
sI18
F0.002
sI19
F0.002
sI20
F0.002
sI21
F0.002
ssg95
(dp386
I0
F11.494727272727273
sI1
Fnan
sI2
Fnan
sI3
Fnan
sI4
Fnan
sI5
Fnan
sI6
Fnan
sI7
Fnan
sI8
Fnan
sI9
Fnan
sI10
Fnan
sI11
Fnan
sI12
Fnan
sI13
Fnan
sI14
Fnan
sI15
Fnan
sI16
Fnan
sI17
Fnan
sI18
Fnan
sI19
Fnan
sI20
Fnan
sI21
Fnan
ssg97
(dp387
I0
F11.5835
sI1
Fnan
sI2
Fnan
sI3
Fnan
sI4
Fnan
sI5
Fnan
sI6
Fnan
sI7
Fnan
sI8
Fnan
sI9
Fnan
sI10
Fnan
sI11
Fnan
sI12
Fnan
sI13
Fnan
sI14
Fnan
sI15
Fnan
sI16
Fnan
sI17
Fnan
sI18
Fnan
sI19
Fnan
sI20
Fnan
sI21
Fnan
ssg99
(dp388
I0
F11.404
sI1
F11.416
sI2
F11.379
sI3
F11.413
sI4
F11.412
sI5
F11.433
sI6
F11.436
sI7
F11.436
sI8
F11.389
sI9
F11.441
sI10
F11.419
sI11
F11.406
sI12
F11.412
sI13
F11.451
sI14
F11.388
sI15
F11.521
sI16
F11.458
sI17
F11.387
sI18
F11.419
sI19
F11.409
sI20
F11.387
sI21
F11.419
ssg101
(dp389
I0
F-4.237121
sI1
F-2.610842
sI2
F3.479434
sI3
F4.1115
sI4
F2.767907
sI5
F-1.719177
sI6
F4.565591
sI7
F3.471107
sI8
F2.601909
sI9
F3.316587
sI10
F-3.88419
sI11
F3.73751
sI12
F4.112928
sI13
F-3.370517
sI14
F3.324373
sI15
F3.378845
sI16
F5.215132
sI17
F5.171276
sI18
F2.828004
sI19
F-2.735314
sI20
F4.647709
sI21
F4.637843
ssg103
(dp390
I0
F0.03209472586845749
sI1
Fnan
sI2
Fnan
sI3
Fnan
sI4
Fnan
sI5
Fnan
sI6
Fnan
sI7
Fnan
sI8
Fnan
sI9
Fnan
sI10
Fnan
sI11
Fnan
sI12
Fnan
sI13
Fnan
sI14
Fnan
sI15
Fnan
sI16
Fnan
sI17
Fnan
sI18
Fnan
sI19
Fnan
sI20
Fnan
sI21
Fnan
ssg105
(dp391
I0
F0.7095799496115791
sI1
F0.7116879598023017
sI2
F0.7138745668797983
sI3
F0.715114971392701
sI4
F0.716775073304384
sI5
F0.7135172661749033
sI6
F0.7130478598665052
sI7
F0.7099632698993573
sI8
F0.7102685964016763
sI9
F0.7176554068203016
sI10
F0.7275798680580121
sI11
F0.7163787439632154
sI12
F0.7162091357793008
sI13
F0.7193270649439898
sI14
F0.7163730074898381
sI15
F0.6887880330968672
sI16
F0.7149787473018392
sI17
F0.7138652607046241
sI18
F0.7138836554674032
sI19
F0.7151319601174272
sI20
F0.7118283120607429
sI21
F0.7136425225683396
ssg107
(dp392
I0
F25.0
sI1
F25.0
sI2
F25.0
sI3
F25.0
sI4
F25.0
sI5
F25.0
sI6
F25.0
sI7
F25.0
sI8
F25.0
sI9
F25.0
sI10
F25.0
sI11
F25.0
sI12
F25.0
sI13
F25.0
sI14
F25.0
sI15
F25.0
sI16
F25.0
sI17
F25.0
sI18
F25.0
sI19
F25.0
sI20
F25.0
sI21
F25.0
ssg109
(dp393
I0
F0.003
sI1
F0.003
sI2
F0.003
sI3
F0.003
sI4
F0.003
sI5
F0.003
sI6
F0.003
sI7
F0.003
sI8
F0.003
sI9
F0.003
sI10
F0.003
sI11
F0.003
sI12
F0.003
sI13
F0.003
sI14
F0.003
sI15
F0.003
sI16
F0.003
sI17
F0.003
sI18
F0.003
sI19
F0.003
sI20
F0.003
sI21
F0.003
ssg111
(dp394
I0
F0.003
sI1
F0.003
sI2
F0.003
sI3
F0.003
sI4
F0.003
sI5
F0.003
sI6
F0.003
sI7
F0.003
sI8
F0.003
sI9
F0.003
sI10
F0.003
sI11
F0.003
sI12
F0.003
sI13
F0.003
sI14
F0.003
sI15
F0.003
sI16
F0.003
sI17
F0.003
sI18
F0.003
sI19
F0.003
sI20
F0.003
sI21
F0.003
ssg113
(dp395
I0
F3.917041
sI1
F4.277315
sI2
F4.569917
sI3
F3.033137
sI4
F3.948144
sI5
F4.535179
sI6
F-2.31737
sI7
F2.84657
sI8
F4.235675
sI9
F-3.581979
sI10
F2.038145
sI11
F3.029651
sI12
F-3.557034
sI13
F-3.076627
sI14
F-2.868196
sI15
F4.933214
sI16
F0.9781584
sI17
F4.213527
sI18
F2.862747
sI19
F-3.702295
sI20
F3.701264
sI21
F-2.769843
ssg115
(dp396
I0
S"KIC8462852-20180403at114840_-35-1-025-g'_cal.fts.mag.1"
p397
sI1
S"KIC8462852-20180403at105152_-35-1-025-g'_cal.fts.mag.1"
p398
sI2
S"KIC8462852-20180403at112828_-35-1-025-g'_cal.fts.mag.1"
p399
sI3
S"KIC8462852-20180403at115550_-35-1-025-g'_cal.fts.mag.1"
p400
sI4
S"KIC8462852-20180403at114743_-35-1-025-g'_cal.fts.mag.1"
p401
sI5
S"KIC8462852-20180403at105245_-35-1-025-g'_cal.fts.mag.1"
p402
sI6
S"KIC8462852-20180403at105001_-35-1-025-g'_cal.fts.mag.1"
p403
sI7
S"KIC8462852-20180403at105338_-35-1-025-g'_cal.fts.mag.1"
p404
sI8
S"KIC8462852-20180403at112920_-35-1-025-g'_cal.fts.mag.1"
p405
sI9
S"KIC8462852-20180403at110943_-35-1-025-g'_cal.fts.mag.1"
p406
sI10
S"KIC8462852-20180403at110850_-35-1-025-g'_cal.fts.mag.1"
p407
sI11
S"KIC8462852-20180403at115653_-35-1-025-g'_cal.fts.mag.1"
p408
sI12
S"KIC8462852-20180403at112642_-35-1-025-g'_cal.fts.mag.1"
p409
sI13
S"KIC8462852-20180403at111035_-35-1-025-g'_cal.fts.mag.1"
p410
sI14
S"KIC8462852-20180403at112545_-35-1-025-g'_cal.fts.mag.1"
p411
sI15
S"KIC8462852-20180403at102849_-35-1-025-g'_cal.fts.mag.1"
p412
sI16
S"KIC8462852-20180403at111127_-35-1-025-g'_cal.fts.mag.1"
p413
sI17
S"KIC8462852-20180403at112735_-35-1-025-g'_cal.fts.mag.1"
p414
sI18
S"KIC8462852-20180403at105059_-35-1-025-g'_cal.fts.mag.1"
p415
sI19
S"KIC8462852-20180403at110754_-35-1-025-g'_cal.fts.mag.1"
p416
sI20
S"KIC8462852-20180403at115746_-35-1-025-g'_cal.fts.mag.1"
p417
sI21
S"KIC8462852-20180403at114933_-35-1-025-g'_cal.fts.mag.1"
p418
ssg143
(dp419
I0
F0.01085968346039313
sI1
Fnan
sI2
Fnan
sI3
Fnan
sI4
Fnan
sI5
Fnan
sI6
Fnan
sI7
Fnan
sI8
Fnan
sI9
Fnan
sI10
Fnan
sI11
Fnan
sI12
Fnan
sI13
Fnan
sI14
Fnan
sI15
Fnan
sI16
Fnan
sI17
Fnan
sI18
Fnan
sI19
Fnan
sI20
Fnan
sI21
Fnan
ssg145
(dp420
I0
F6434.7480000000005
sI1
F6413.972
sI2
F6561.668000000001
sI3
F6363.14
sI4
F6362.236
sI5
F6207.451999999999
sI6
F6266.44
sI7
F6303.3
sI8
F6552.808000000001
sI9
F6153.164000000001
sI10
F6368.496
sI11
F6487.804
sI12
F6393.7080000000005
sI13
F6214.36
sI14
F6582.7919999999995
sI15
F5662.272
sI16
F6113.1
sI17
F6534.004
sI18
F6312.728
sI19
F6346.104
sI20
F6577.116
sI21
F6350.548000000001
ssg147
(dp421
I0
F0.03752047060320156
sI1
Fnan
sI2
Fnan
sI3
Fnan
sI4
Fnan
sI5
Fnan
sI6
Fnan
sI7
Fnan
sI8
Fnan
sI9
Fnan
sI10
Fnan
sI11
Fnan
sI12
Fnan
sI13
Fnan
sI14
Fnan
sI15
Fnan
sI16
Fnan
sI17
Fnan
sI18
Fnan
sI19
Fnan
sI20
Fnan
sI21
Fnan
ssg149
(dp422
I0
S"g'"
p423
sI1
S"g'"
p424
sI2
S"g'"
p425
sI3
S"g'"
p426
sI4
S"g'"
p427
sI5
S"g'"
p428
sI6
S"g'"
p429
sI7
S"g'"
p430
sI8
S"g'"
p431
sI9
S"g'"
p432
sI10
S"g'"
p433
sI11
S"g'"
p434
sI12
S"g'"
p435
sI13
S"g'"
p436
sI14
S"g'"
p437
sI15
S"g'"
p438
sI16
S"g'"
p439
sI17
S"g'"
p440
sI18
S"g'"
p441
sI19
S"g'"
p442
sI20
S"g'"
p443
sI21
S"g'"
p444
ssg177
(dp445
I0
F0.03597907039507146
sI1
Fnan
sI2
Fnan
sI3
Fnan
sI4
Fnan
sI5
Fnan
sI6
Fnan
sI7
Fnan
sI8
Fnan
sI9
Fnan
sI10
Fnan
sI11
Fnan
sI12
Fnan
sI13
Fnan
sI14
Fnan
sI15
Fnan
sI16
Fnan
sI17
Fnan
sI18
Fnan
sI19
Fnan
sI20
Fnan
sI21
Fnan
ssg179
(dp446
I0
F-2.438015
sI1
F4.466872
sI2
F3.157495
sI3
F2.450627
sI4
F4.95174
sI5
F5.475216
sI6
F4.201313
sI7
F-2.041299
sI8
F3.131482
sI9
F3.105065
sI10
F2.739559
sI11
F5.355256
sI12
F4.183671
sI13
F5.130082
sI14
F3.765807
sI15
F3.681179
sI16
F2.900101
sI17
F-3.401586
sI18
F-3.827039
sI19
F2.010841
sI20
F-2.894799
sI21
F3.203291
ssg181
(dp447
I0
F1.516643522525123
sI1
Fnan
sI2
Fnan
sI3
Fnan
sI4
Fnan
sI5
Fnan
sI6
Fnan
sI7
Fnan
sI8
Fnan
sI9
Fnan
sI10
Fnan
sI11
Fnan
sI12
Fnan
sI13
Fnan
sI14
Fnan
sI15
Fnan
sI16
Fnan
sI17
Fnan
sI18
Fnan
sI19
Fnan
sI20
Fnan
sI21
Fnan
ssg183
(dp448
I0
F2458211.971273148
sI1
Fnan
sI2
Fnan
sI3
Fnan
sI4
Fnan
sI5
Fnan
sI6
Fnan
sI7
Fnan
sI8
Fnan
sI9
Fnan
sI10
Fnan
sI11
Fnan
sI12
Fnan
sI13
Fnan
sI14
Fnan
sI15
Fnan
sI16
Fnan
sI17
Fnan
sI18
Fnan
sI19
Fnan
sI20
Fnan
sI21
Fnan
ssg185
(dp449
I0
F0.004439286346758404
sI1
Fnan
sI2
Fnan
sI3
Fnan
sI4
Fnan
sI5
Fnan
sI6
Fnan
sI7
Fnan
sI8
Fnan
sI9
Fnan
sI10
Fnan
sI11
Fnan
sI12
Fnan
sI13
Fnan
sI14
Fnan
sI15
Fnan
sI16
Fnan
sI17
Fnan
sI18
Fnan
sI19
Fnan
sI20
Fnan
sI21
Fnan
ssg187
(dp450
I0
F29.44852
sI1
F35.04
sI2
F29.60909
sI3
F29.38683
sI4
F30.1168
sI5
F35.66228
sI6
F36.78617
sI7
F35.03514
sI8
F30.43575
sI9
F34.15974
sI10
F35.18634
sI11
F29.46267
sI12
F31.23715
sI13
F34.36456
sI14
F30.25608
sI15
F41.16659
sI16
F33.61861
sI17
F29.48421
sI18
F37.13706
sI19
F32.03734
sI20
F28.38464
sI21
F29.79617
ssg189
(dp451
I0
F11.041
sI1
F11.031
sI2
F11.01
sI3
F11.047
sI4
F11.041
sI5
F11.068
sI6
F11.063
sI7
F11.044
sI8
F11.004
sI9
F11.072
sI10
F11.05
sI11
F11.031
sI12
F11.038
sI13
F11.076
sI14
F11.006
sI15
F11.146
sI16
F11.091
sI17
F11.017
sI18
F11.052
sI19
F11.04
sI20
F11.013
sI21
F11.042
ssg191
(dp452
I0
F0.856145489483519
sI1
Fnan
sI2
Fnan
sI3
Fnan
sI4
Fnan
sI5
Fnan
sI6
Fnan
sI7
Fnan
sI8
Fnan
sI9
Fnan
sI10
Fnan
sI11
Fnan
sI12
Fnan
sI13
Fnan
sI14
Fnan
sI15
Fnan
sI16
Fnan
sI17
Fnan
sI18
Fnan
sI19
Fnan
sI20
Fnan
sI21
Fnan
sss.