(dp0
S'i'
p1
(dp2
S'sigmean'
p3
(dp4
I0
F0.43916487663052983
sI1
Fnan
sI2
Fnan
sI3
Fnan
sI4
Fnan
sI5
Fnan
sI6
Fnan
sI7
Fnan
sI8
Fnan
sI9
Fnan
sI10
Fnan
sI11
Fnan
sI12
Fnan
sI13
Fnan
sI14
Fnan
ssS'ref3flag'
p5
(dp6
I0
S'NoError'
p7
sI1
S'NoError'
p8
sI2
S'NoError'
p9
sI3
S'NoError'
p10
sI4
S'NoError'
p11
sI5
S'NoError'
p12
sI6
S'NoError'
p13
sI7
S'NoError'
p14
sI8
S'NoError'
p15
sI9
S'NoError'
p16
sI10
S'NoError'
p17
sI11
S'NoError'
p18
sI12
S'NoError'
p19
sI13
S'NoError'
p20
sI14
S'NoError'
p21
ssS'tabbyerr'
p22
(dp23
I0
F0.003
sI1
F0.003
sI2
F0.003
sI3
F0.003
sI4
F0.003
sI5
F0.003
sI6
F0.003
sI7
F0.003
sI8
F0.003
sI9
F0.003
sI10
F0.003
sI11
F0.003
sI12
F0.003
sI13
F0.003
sI14
F0.003
ssS'ref2rel'
p24
(dp25
I0
F0.9058177197478559
sI1
F0.9071763304685523
sI2
F0.9117414140872344
sI3
F0.9114092429367985
sI4
F0.9123572062446635
sI5
F0.912230382876839
sI6
F0.909805715414162
sI7
F0.9157102241126519
sI8
F0.9084506219919847
sI9
F0.9086141673427344
sI10
F0.9092063513491125
sI11
F0.9135864222702973
sI12
F0.9132269473170829
sI13
F0.9078162625545192
sI14
F0.9076211733507313
ssS'ref2err'
p26
(dp27
I0
F0.0028131787724391157
sI1
Fnan
sI2
Fnan
sI3
Fnan
sI4
Fnan
sI5
Fnan
sI6
Fnan
sI7
Fnan
sI8
Fnan
sI9
Fnan
sI10
Fnan
sI11
Fnan
sI12
Fnan
sI13
Fnan
sI14
Fnan
ssS'ref2mean'
p28
(dp29
I0
F0.9103180121376815
sI1
Fnan
sI2
Fnan
sI3
Fnan
sI4
Fnan
sI5
Fnan
sI6
Fnan
sI7
Fnan
sI8
Fnan
sI9
Fnan
sI10
Fnan
sI11
Fnan
sI12
Fnan
sI13
Fnan
sI14
Fnan
ssS'tabbymag'
p30
(dp31
I0
F11.838
sI1
F11.824
sI2
F11.824
sI3
F11.838
sI4
F11.828
sI5
F11.834
sI6
F11.827
sI7
F11.834
sI8
F11.842
sI9
F11.824
sI10
F11.831
sI11
F11.831
sI12
F11.845
sI13
F11.824
sI14
F11.853
ssS'tabbybkg'
p32
(dp33
I0
F10.92244
sI1
F9.97108
sI2
F9.697299
sI3
F10.58655
sI4
F9.905228
sI5
F9.993784
sI6
F10.39213
sI7
F10.37469
sI8
F9.156899
sI9
F10.8449
sI10
F10.18343
sI11
F10.64019
sI12
F10.97578
sI13
F9.94451
sI14
F11.57354
ssS'JD'
p34
(dp35
I0
F2458375.7159375
sI1
F2458375.6969791665
sI2
F2458375.6984606483
sI3
F2458375.6796180555
sI4
F2458375.696238426
sI5
F2458375.678888889
sI6
F2458375.716678241
sI7
F2458375.678148148
sI8
F2458375.6766782408
sI9
F2458375.7174305557
sI10
F2458375.677407407
sI11
F2458375.7151967594
sI12
F2458375.6977199074
sI13
F2458375.695486111
sI14
F2458375.7144675925
ssS'ref3rmsmean'
p36
(dp37
I0
F1.1310479999999998
sI1
Fnan
sI2
Fnan
sI3
Fnan
sI4
Fnan
sI5
Fnan
sI6
Fnan
sI7
Fnan
sI8
Fnan
sI9
Fnan
sI10
Fnan
sI11
Fnan
sI12
Fnan
sI13
Fnan
sI14
Fnan
ssS'ref1rmsmean'
p38
(dp39
I0
F0.6014549999999999
sI1
Fnan
sI2
Fnan
sI3
Fnan
sI4
Fnan
sI5
Fnan
sI6
Fnan
sI7
Fnan
sI8
Fnan
sI9
Fnan
sI10
Fnan
sI11
Fnan
sI12
Fnan
sI13
Fnan
sI14
Fnan
ssS'relflux'
p40
(dp41
I0
F0.44040927266389374
sI1
F0.4395462897684299
sI2
F0.44118488390166194
sI3
F0.43741850553434347
sI4
F0.4401583025170332
sI5
F0.4389489937374387
sI6
F0.4400423956251233
sI7
F0.4368086666993218
sI8
F0.4377934574881264
sI9
F0.44034245560020785
sI10
F0.44154065169817397
sI11
F0.43835251052376156
sI12
F0.43801678812758266
sI13
F0.4393707982848109
sI14
F0.43755874242447357
ssS'sigerr'
p42
(dp43
I0
F0.001192778858335013
sI1
Fnan
sI2
Fnan
sI3
Fnan
sI4
Fnan
sI5
Fnan
sI6
Fnan
sI7
Fnan
sI8
Fnan
sI9
Fnan
sI10
Fnan
sI11
Fnan
sI12
Fnan
sI13
Fnan
sI14
Fnan
ssS'tabbyrmsmean'
p44
(dp45
I0
F1.3607728
sI1
Fnan
sI2
Fnan
sI3
Fnan
sI4
Fnan
sI5
Fnan
sI6
Fnan
sI7
Fnan
sI8
Fnan
sI9
Fnan
sI10
Fnan
sI11
Fnan
sI12
Fnan
sI13
Fnan
sI14
Fnan
ssS'tabbyflag'
p46
(dp47
I0
g7
sI1
g8
sI2
g9
sI3
g10
sI4
g11
sI5
g12
sI6
g13
sI7
g14
sI8
g15
sI9
g16
sI10
g17
sI11
g18
sI12
g19
sI13
g20
sI14
g21
ssS'ref1err'
p48
(dp49
I0
F0.002918177848894269
sI1
Fnan
sI2
Fnan
sI3
Fnan
sI4
Fnan
sI5
Fnan
sI6
Fnan
sI7
Fnan
sI8
Fnan
sI9
Fnan
sI10
Fnan
sI11
Fnan
sI12
Fnan
sI13
Fnan
sI14
Fnan
ssS'ref2magmeanerr'
p50
(dp51
I0
F0.007863720190729947
sI1
Fnan
sI2
Fnan
sI3
Fnan
sI4
Fnan
sI5
Fnan
sI6
Fnan
sI7
Fnan
sI8
Fnan
sI9
Fnan
sI10
Fnan
sI11
Fnan
sI12
Fnan
sI13
Fnan
sI14
Fnan
ssS'ref2rmsmean'
p52
(dp53
I0
F1.0389680666666667
sI1
Fnan
sI2
Fnan
sI3
Fnan
sI4
Fnan
sI5
Fnan
sI6
Fnan
sI7
Fnan
sI8
Fnan
sI9
Fnan
sI10
Fnan
sI11
Fnan
sI12
Fnan
sI13
Fnan
sI14
Fnan
ssS'ref3rel'
p54
(dp55
I0
F1.510386661406625
sI1
F1.4969223999661412
sI2
F1.4951839719249314
sI3
F1.4972717516270035
sI4
F1.4931821054772159
sI5
F1.4954531925638441
sI6
F1.508546523313928
sI7
F1.496935539922711
sI8
F1.4980377750251828
sI9
F1.500714404568386
sI10
F1.505470439295037
sI11
F1.5009539725645848
sI12
F1.501567270763578
sI13
F1.5118611816688612
sI14
F1.503875688010058
ssS'ref1flag'
p56
(dp57
I0
g7
sI1
g8
sI2
g9
sI3
g10
sI4
g11
sI5
g12
sI6
g13
sI7
g14
sI8
g15
sI9
g16
sI10
g17
sI11
g18
sI12
g19
sI13
g20
sI14
g21
ssS'ref2bkg'
p58
(dp59
I0
F11.61344
sI1
F11.84201
sI2
F12.23397
sI3
F11.68494
sI4
F12.73721
sI5
F11.58129
sI6
F12.74747
sI7
F12.62478
sI8
F12.38357
sI9
F12.06063
sI10
F11.49517
sI11
F12.28408
sI12
F12.61928
sI13
F11.70825
sI14
F12.85681
ssS'ref3magmean'
p60
(dp61
I0
F10.666400000000001
sI1
Fnan
sI2
Fnan
sI3
Fnan
sI4
Fnan
sI5
Fnan
sI6
Fnan
sI7
Fnan
sI8
Fnan
sI9
Fnan
sI10
Fnan
sI11
Fnan
sI12
Fnan
sI13
Fnan
sI14
Fnan
ssS'ref1mean'
p62
(dp63
I0
F0.6971026747542325
sI1
Fnan
sI2
Fnan
sI3
Fnan
sI4
Fnan
sI5
Fnan
sI6
Fnan
sI7
Fnan
sI8
Fnan
sI9
Fnan
sI10
Fnan
sI11
Fnan
sI12
Fnan
sI13
Fnan
sI14
Fnan
ssS'ref1rms'
p64
(dp65
I0
F-4.531827
sI1
F3.804215
sI2
F2.066957
sI3
F1.849902
sI4
F4.326388
sI5
F3.758458
sI6
F2.246807
sI7
F3.215235
sI8
F-3.078301
sI9
F-2.055645
sI10
F-3.109812
sI11
F2.785261
sI12
F-3.730719
sI13
F-2.02846
sI14
F3.503366
ssS'ref2magmean'
p66
(dp67
I0
F11.008866666666666
sI1
Fnan
sI2
Fnan
sI3
Fnan
sI4
Fnan
sI5
Fnan
sI6
Fnan
sI7
Fnan
sI8
Fnan
sI9
Fnan
sI10
Fnan
sI11
Fnan
sI12
Fnan
sI13
Fnan
sI14
Fnan
ssS'ref2flag'
p68
(dp69
I0
g7
sI1
g8
sI2
g9
sI3
g10
sI4
g11
sI5
g12
sI6
g13
sI7
g14
sI8
g15
sI9
g16
sI10
g17
sI11
g18
sI12
g19
sI13
g20
sI14
g21
ssS'ref2'
p70
(dp71
I0
F9810.046666666667
sI1
F9969.146666666667
sI2
F9972.206666666667
sI3
F9925.846666666668
sI4
F9955.383333333333
sI5
F9926.416666666666
sI6
F9951.369999999999
sI7
F10002.17
sI8
F9854.333333333334
sI9
F9967.769999999999
sI10
F9878.230000000001
sI11
F9984.473333333333
sI12
F9861.686666666666
sI13
F9975.906666666668
sI14
F9756.576666666666
ssS'airmass'
p72
(dp73
I0
F1.024354
sI1
F1.0104899999999999
sI2
F1.011275
sI3
F1.004983
sI4
F1.010116
sI5
F1.0048979999999998
sI6
F1.025073
sI7
F1.004825
sI8
F1.0047139999999999
sI9
F1.0257889999999998
sI10
F1.004764
sI11
F1.0236459999999998
sI12
F1.010877
sI13
F1.0097530000000001
sI14
F1.0229629999999998
ssS'ref1'
p74
(dp75
I0
F8119.679999999999
sI1
F8302.666666666666
sI2
F8251.316666666668
sI3
F8206.666666666666
sI4
F8239.383333333333
sI5
F8205.353333333334
sI6
F8191.29
sI7
F8212.566666666668
sI8
F8183.863333333333
sI9
F8261.863333333333
sI10
F8155.056666666667
sI11
F8206.126666666667
sI12
F8106.916666666667
sI13
F8221.69
sI14
F8084.126666666666
ssS'ref3'
p76
(dp77
I0
F13540.41
sI1
F13675.743333333334
sI2
F13623.76
sI3
F13574.65
sI4
F13584.05
sI5
F13557.606666666667
sI6
F13684.523333333334
sI7
F13633.143333333333
sI8
F13510.95
sI9
F13678.736666666666
sI10
F13574.29
sI11
F13651.626666666667
sI12
F13490.533333333333
sI13
F13756.119999999999
sI14
F13415.1
ssS'ref1bkg'
p78
(dp79
I0
F12.64505
sI1
F10.76232
sI2
F11.08305
sI3
F11.99901
sI4
F10.79315
sI5
F11.24294
sI6
F11.83804
sI7
F11.07878
sI8
F11.44769
sI9
F12.17139
sI10
F12.55075
sI11
F11.31038
sI12
F12.15519
sI13
F11.49572
sI14
F12.33109
ssS'ref1mag'
p80
(dp81
I0
F11.226
sI1
F11.202
sI2
F11.209
sI3
F11.215
sI4
F11.21
sI5
F11.215
sI6
F11.217
sI7
F11.214
sI8
F11.218
sI9
F11.207
sI10
F11.221
sI11
F11.215
sI12
F11.228
sI13
F11.213
sI14
F11.231
ssS'ref3magerr'
p82
(dp83
I0
F0.002
sI1
F0.002
sI2
F0.002
sI3
F0.002
sI4
F0.002
sI5
F0.002
sI6
F0.002
sI7
F0.002
sI8
F0.002
sI9
F0.002
sI10
F0.002
sI11
F0.002
sI12
F0.002
sI13
F0.002
sI14
F0.002
ssS'tabbymagmean'
p84
(dp85
I0
F0.43916618097295895
sI1
Fnan
sI2
Fnan
sI3
Fnan
sI4
Fnan
sI5
Fnan
sI6
Fnan
sI7
Fnan
sI8
Fnan
sI9
Fnan
sI10
Fnan
sI11
Fnan
sI12
Fnan
sI13
Fnan
sI14
Fnan
ssS'ref1magmean'
p86
(dp87
I0
F11.216066666666668
sI1
Fnan
sI2
Fnan
sI3
Fnan
sI4
Fnan
sI5
Fnan
sI6
Fnan
sI7
Fnan
sI8
Fnan
sI9
Fnan
sI10
Fnan
sI11
Fnan
sI12
Fnan
sI13
Fnan
sI14
Fnan
ssS'ref2mag'
p88
(dp89
I0
F11.021
sI1
F11.003
sI2
F11.003
sI3
F11.008
sI4
F11.005
sI5
F11.008
sI6
F11.005
sI7
F11.0
sI8
F11.016
sI9
F11.004
sI10
F11.013
sI11
F11.002
sI12
F11.015
sI13
F11.003
sI14
F11.027
ssS'ref3rms'
p90
(dp91
I0
F-1.654155
sI1
F1.672937
sI2
F-1.366554
sI3
F4.935309
sI4
F1.779308
sI5
F-3.014676
sI6
F2.71807
sI7
F-1.158598
sI8
F1.33706
sI9
F4.317942
sI10
F-1.319628
sI11
F-3.092176
sI12
F2.427992
sI13
F4.611059
sI14
F4.77183
ssS'ref3magmeanerr'
p92
(dp93
I0
F0.007028513356322033
sI1
Fnan
sI2
Fnan
sI3
Fnan
sI4
Fnan
sI5
Fnan
sI6
Fnan
sI7
Fnan
sI8
Fnan
sI9
Fnan
sI10
Fnan
sI11
Fnan
sI12
Fnan
sI13
Fnan
sI14
Fnan
ssS'ref1rel'
p94
(dp95
I0
F0.6954622015243956
sI1
F0.70227999932896
sI2
F0.6993836517257893
sI3
F0.6984249552739948
sI4
F0.7000494206176019
sI5
F0.6988030302019517
sI6
F0.6931229452155253
sI7
F0.6949403674783806
sI8
F0.700514795098426
sI9
F0.698780877006216
sI10
F0.69545248584516
sI11
F0.6943723090244726
sI12
F0.6943165717577744
sI13
F0.6928771921150716
sI14
F0.6977593190997687
ssS'exposure'
p96
(dp97
I0
F30.0
sI1
F30.0
sI2
F30.0
sI3
F30.0
sI4
F30.0
sI5
F30.0
sI6
F30.0
sI7
F30.0
sI8
F30.0
sI9
F30.0
sI10
F30.0
sI11
F30.0
sI12
F30.0
sI13
F30.0
sI14
F30.0
ssS'ref1magerr'
p98
(dp99
I0
F0.002
sI1
F0.002
sI2
F0.002
sI3
F0.002
sI4
F0.002
sI5
F0.002
sI6
F0.002
sI7
F0.002
sI8
F0.002
sI9
F0.002
sI10
F0.002
sI11
F0.002
sI12
F0.002
sI13
F0.002
sI14
F0.002
ssS'ref2magerr'
p100
(dp101
I0
F0.002
sI1
F0.002
sI2
F0.002
sI3
F0.002
sI4
F0.002
sI5
F0.002
sI6
F0.002
sI7
F0.002
sI8
F0.002
sI9
F0.002
sI10
F0.002
sI11
F0.002
sI12
F0.002
sI13
F0.002
sI14
F0.002
ssS'ref2rms'
p102
(dp103
I0
F3.769883
sI1
F2.990025
sI2
F-3.083127
sI3
F3.70156
sI4
F-3.243136
sI5
F2.508399
sI6
F3.842794
sI7
F-4.231249
sI8
F-2.420146
sI9
F3.201898
sI10
F4.123872
sI11
F2.638611
sI12
F-2.970399
sI13
F1.995402
sI14
F2.760134
ssS'name'
p104
(dp105
I0
S"KIC8462852-20180914at051057_-25-1X1-030-i'_cal.fts.mag.1"
p106
sI1
S"KIC8462852-20180914at044339_-25-1X1-030-i'_cal.fts.mag.1"
p107
sI2
S"KIC8462852-20180914at044547_-25-1X1-030-i'_cal.fts.mag.1"
p108
sI3
S"KIC8462852-20180914at041839_-25-1X1-030-i'_cal.fts.mag.1"
p109
sI4
S"KIC8462852-20180914at044234_-25-1X1-030-i'_cal.fts.mag.1"
p110
sI5
S"KIC8462852-20180914at041736_-25-1X1-030-i'_cal.fts.mag.1"
p111
sI6
S"KIC8462852-20180914at051201_-25-1X1-030-i'_cal.fts.mag.1"
p112
sI7
S"KIC8462852-20180914at041632_-25-1X1-030-i'_cal.fts.mag.1"
p113
sI8
S"KIC8462852-20180914at041423_-25-1X1-030-i'_cal.fts.mag.1"
p114
sI9
S"KIC8462852-20180914at051306_-25-1X1-030-i'_cal.fts.mag.1"
p115
sI10
S"KIC8462852-20180914at041528_-25-1X1-030-i'_cal.fts.mag.1"
p116
sI11
S"KIC8462852-20180914at050953_-25-1X1-030-i'_cal.fts.mag.1"
p117
sI12
S"KIC8462852-20180914at044443_-25-1X1-030-i'_cal.fts.mag.1"
p118
sI13
S"KIC8462852-20180914at044129_-25-1X1-030-i'_cal.fts.mag.1"
p119
sI14
S"KIC8462852-20180914at050848_-25-1X1-030-i'_cal.fts.mag.1"
p120
ssS'ref3err'
p121
(dp122
I0
F0.005813130172278702
sI1
Fnan
sI2
Fnan
sI3
Fnan
sI4
Fnan
sI5
Fnan
sI6
Fnan
sI7
Fnan
sI8
Fnan
sI9
Fnan
sI10
Fnan
sI11
Fnan
sI12
Fnan
sI13
Fnan
sI14
Fnan
ssS'tabby'
p123
(dp124
I0
F4619.913333333333
sI1
F4680.8099999999995
sI2
F4683.513333333333
sI3
F4623.1
sI4
F4662.570000000001
sI5
F4636.673333333334
sI6
F4668.4366666666665
sI7
F4637.1433333333325
sI8
F4604.003333333333
sI9
F4683.536666666667
sI10
F4652.009999999999
sI11
F4652.706666666667
sI12
F4593.21
sI13
F4679.843333333333
sI14
F4558.75
ssS'ref1magmeanerr'
p125
(dp126
I0
F0.007914423241026156
sI1
Fnan
sI2
Fnan
sI3
Fnan
sI4
Fnan
sI5
Fnan
sI6
Fnan
sI7
Fnan
sI8
Fnan
sI9
Fnan
sI10
Fnan
sI11
Fnan
sI12
Fnan
sI13
Fnan
sI14
Fnan
ssS'filter'
p127
(dp128
I0
S"i'"
p129
sI1
S"i'"
p130
sI2
S"i'"
p131
sI3
S"i'"
p132
sI4
S"i'"
p133
sI5
S"i'"
p134
sI6
S"i'"
p135
sI7
S"i'"
p136
sI8
S"i'"
p137
sI9
S"i'"
p138
sI10
S"i'"
p139
sI11
S"i'"
p140
sI12
S"i'"
p141
sI13
S"i'"
p142
sI14
S"i'"
p143
ssS'tabbymagerr'
p144
(dp145
I0
F0.0014563012138366174
sI1
Fnan
sI2
Fnan
sI3
Fnan
sI4
Fnan
sI5
Fnan
sI6
Fnan
sI7
Fnan
sI8
Fnan
sI9
Fnan
sI10
Fnan
sI11
Fnan
sI12
Fnan
sI13
Fnan
sI14
Fnan
ssS'tabbyrms'
p146
(dp147
I0
F-2.098827
sI1
F1.689464
sI2
F3.706423
sI3
F2.990388
sI4
F3.540401
sI5
F1.23682
sI6
F2.104256
sI7
F-1.962797
sI8
F3.723018
sI9
F-2.108834
sI10
F3.378713
sI11
F-3.338541
sI12
F2.755198
sI13
F3.534204
sI14
F1.261706
ssS'ref3mean'
p148
(dp149
I0
F1.5010908585398723
sI1
Fnan
sI2
Fnan
sI3
Fnan
sI4
Fnan
sI5
Fnan
sI6
Fnan
sI7
Fnan
sI8
Fnan
sI9
Fnan
sI10
Fnan
sI11
Fnan
sI12
Fnan
sI13
Fnan
sI14
Fnan
ssS'median_JD'
p150
(dp151
I0
F2458375.6969791665
sI1
Fnan
sI2
Fnan
sI3
Fnan
sI4
Fnan
sI5
Fnan
sI6
Fnan
sI7
Fnan
sI8
Fnan
sI9
Fnan
sI10
Fnan
sI11
Fnan
sI12
Fnan
sI13
Fnan
sI14
Fnan
ssS'error'
p152
(dp153
I0
F0.0014563012138366174
sI1
Fnan
sI2
Fnan
sI3
Fnan
sI4
Fnan
sI5
Fnan
sI6
Fnan
sI7
Fnan
sI8
Fnan
sI9
Fnan
sI10
Fnan
sI11
Fnan
sI12
Fnan
sI13
Fnan
sI14
Fnan
ssS'ref3bkg'
p154
(dp155
I0
F15.04603
sI1
F14.14365
sI2
F13.11739
sI3
F12.69291
sI4
F13.45984
sI5
F14.35903
sI6
F13.40542
sI7
F12.884
sI8
F12.92631
sI9
F13.14351
sI10
F13.18559
sI11
F13.80109
sI12
F13.69057
sI13
F12.21853
sI14
F14.78131
ssS'ref3mag'
p156
(dp157
I0
F10.671
sI1
F10.66
sI2
F10.664
sI3
F10.668
sI4
F10.667
sI5
F10.67
sI6
F10.659
sI7
F10.664
sI8
F10.673
sI9
F10.66
sI10
F10.668
sI11
F10.662
sI12
F10.675
sI13
F10.654
sI14
F10.681
ssS'mean'
p158
(dp159
I0
F0.43916618097295895
sI1
Fnan
sI2
Fnan
sI3
Fnan
sI4
Fnan
sI5
Fnan
sI6
Fnan
sI7
Fnan
sI8
Fnan
sI9
Fnan
sI10
Fnan
sI11
Fnan
sI12
Fnan
sI13
Fnan
sI14
Fnan
sssS'r'
p160
(dp161
g3
(dp162
I0
F0.5510868290681077
sI1
Fnan
sI2
Fnan
sI3
Fnan
sI4
Fnan
sI5
Fnan
sI6
Fnan
sI7
Fnan
sI8
Fnan
sI9
Fnan
sI10
Fnan
sI11
Fnan
sI12
Fnan
sI13
Fnan
sI14
Fnan
ssg5
(dp163
I0
S'NoError'
p164
sI1
S'NoError'
p165
sI2
S'NoError'
p166
sI3
S'NoError'
p167
sI4
S'NoError'
p168
sI5
S'NoError'
p169
sI6
S'NoError'
p170
sI7
S'NoError'
p171
sI8
S'NoError'
p172
sI9
S'NoError'
p173
sI10
S'NoError'
p174
sI11
S'NoError'
p175
sI12
S'NoError'
p176
sI13
S'NoError'
p177
sI14
S'NoError'
p178
ssg22
(dp179
I0
F0.002
sI1
F0.002
sI2
F0.002
sI3
F0.002
sI4
F0.002
sI5
F0.002
sI6
F0.002
sI7
F0.002
sI8
F0.003
sI9
F0.002
sI10
F0.002
sI11
F0.002
sI12
F0.002
sI13
F0.002
sI14
F0.002
ssg24
(dp180
I0
F0.8934926750672414
sI1
F0.8962698410803386
sI2
F0.8942962217680206
sI3
F0.8992281938730735
sI4
F0.9017523413768286
sI5
F0.8898736932834783
sI6
F0.893220306086962
sI7
F0.8954177928145945
sI8
F0.8952254169958598
sI9
F0.8961348906632791
sI10
F0.8964907557305379
sI11
F0.896056701538704
sI12
F0.8948455121447109
sI13
F0.8917597641875757
sI14
F0.8920446738108964
ssg26
(dp181
I0
F0.002943821571905502
sI1
Fnan
sI2
Fnan
sI3
Fnan
sI4
Fnan
sI5
Fnan
sI6
Fnan
sI7
Fnan
sI8
Fnan
sI9
Fnan
sI10
Fnan
sI11
Fnan
sI12
Fnan
sI13
Fnan
sI14
Fnan
ssg28
(dp182
I0
F0.8950739186948068
sI1
Fnan
sI2
Fnan
sI3
Fnan
sI4
Fnan
sI5
Fnan
sI6
Fnan
sI7
Fnan
sI8
Fnan
sI9
Fnan
sI10
Fnan
sI11
Fnan
sI12
Fnan
sI13
Fnan
sI14
Fnan
ssg30
(dp183
I0
F11.117
sI1
F11.129
sI2
F11.113
sI3
F11.125
sI4
F11.1
sI5
F11.113
sI6
F11.12
sI7
F11.102
sI8
F11.803
sI9
F11.108
sI10
F11.095
sI11
F11.113
sI12
F11.147
sI13
F11.103
sI14
F11.119
ssg32
(dp184
I0
F11.87507
sI1
F12.92218
sI2
F11.68159
sI3
F13.53825
sI4
F12.15039
sI5
F11.96494
sI6
F10.89312
sI7
F11.33139
sI8
F11.55136
sI9
F11.44962
sI10
F11.89438
sI11
F12.44085
sI12
F13.53178
sI13
F11.23722
sI14
F12.5308
ssg34
(dp185
I0
F2458375.7137037036
sI1
F2458375.6737037036
sI2
F2458375.6925231484
sI3
F2458375.675914352
sI4
F2458375.7122222222
sI5
F2458375.672962963
sI6
F2458375.6939930557
sI7
F2458375.6917708335
sI8
F2458375.6744328705
sI9
F2458375.7114814813
sI10
F2458375.694733796
sI11
F2458375.693252315
sI12
F2458375.710740741
sI13
F2458375.712962963
sI14
F2458375.6751851854
ssg36
(dp186
I0
F2.5297340666666672
sI1
Fnan
sI2
Fnan
sI3
Fnan
sI4
Fnan
sI5
Fnan
sI6
Fnan
sI7
Fnan
sI8
Fnan
sI9
Fnan
sI10
Fnan
sI11
Fnan
sI12
Fnan
sI13
Fnan
sI14
Fnan
ssg38
(dp187
I0
F1.2447870133333336
sI1
Fnan
sI2
Fnan
sI3
Fnan
sI4
Fnan
sI5
Fnan
sI6
Fnan
sI7
Fnan
sI8
Fnan
sI9
Fnan
sI10
Fnan
sI11
Fnan
sI12
Fnan
sI13
Fnan
sI14
Fnan
ssg40
(dp188
I0
F0.5457810273231043
sI1
F0.549121422020747
sI2
F0.5509023090318371
sI3
F0.54765142887389
sI4
F0.5512242634727402
sI5
F0.5517090402839233
sI6
F0.5517603185665301
sI7
F0.5532727677716937
sI8
F0.5470001505484319
sI9
F0.5512451135969892
sI10
F0.5529727828717875
sI11
F0.5518220839258983
sI12
F0.5488637161244093
sI13
F0.553111949251046
sI14
F0.5504715820939091
ssg42
(dp189
I0
F0.001638036942751941
sI1
Fnan
sI2
Fnan
sI3
Fnan
sI4
Fnan
sI5
Fnan
sI6
Fnan
sI7
Fnan
sI8
Fnan
sI9
Fnan
sI10
Fnan
sI11
Fnan
sI12
Fnan
sI13
Fnan
sI14
Fnan
ssg44
(dp190
I0
F0.8518016666666668
sI1
Fnan
sI2
Fnan
sI3
Fnan
sI4
Fnan
sI5
Fnan
sI6
Fnan
sI7
Fnan
sI8
Fnan
sI9
Fnan
sI10
Fnan
sI11
Fnan
sI12
Fnan
sI13
Fnan
sI14
Fnan
ssg46
(dp191
I0
g164
sI1
g165
sI2
g166
sI3
g167
sI4
g168
sI5
g169
sI6
g170
sI7
g171
sI8
g172
sI9
g173
sI10
g174
sI11
g175
sI12
g176
sI13
g177
sI14
g178
ssg48
(dp192
I0
F0.0029550786176918407
sI1
Fnan
sI2
Fnan
sI3
Fnan
sI4
Fnan
sI5
Fnan
sI6
Fnan
sI7
Fnan
sI8
Fnan
sI9
Fnan
sI10
Fnan
sI11
Fnan
sI12
Fnan
sI13
Fnan
sI14
Fnan
ssg50
(dp193
I0
F0.17635170486707477
sI1
Fnan
sI2
Fnan
sI3
Fnan
sI4
Fnan
sI5
Fnan
sI6
Fnan
sI7
Fnan
sI8
Fnan
sI9
Fnan
sI10
Fnan
sI11
Fnan
sI12
Fnan
sI13
Fnan
sI14
Fnan
ssg52
(dp194
I0
F2.0360886666666667
sI1
Fnan
sI2
Fnan
sI3
Fnan
sI4
Fnan
sI5
Fnan
sI6
Fnan
sI7
Fnan
sI8
Fnan
sI9
Fnan
sI10
Fnan
sI11
Fnan
sI12
Fnan
sI13
Fnan
sI14
Fnan
ssg54
(dp195
I0
F1.5004329748439547
sI1
F1.495836130801296
sI2
F1.4905325147138526
sI3
F1.4972473264468524
sI4
F1.4800590852305153
sI5
F1.495049114232192
sI6
F1.4990709026543585
sI7
F1.4888246004998942
sI8
F1.4844881509204855
sI9
F1.492954118893292
sI10
F1.4904162639452414
sI11
F1.4869942683309272
sI12
F1.4936911875241636
sI13
F1.5003914437723542
sI14
F1.4952156529262388
ssg56
(dp196
I0
g164
sI1
g165
sI2
g166
sI3
g167
sI4
g168
sI5
g169
sI6
g170
sI7
g171
sI8
g172
sI9
g173
sI10
g174
sI11
g175
sI12
g176
sI13
g177
sI14
g178
ssg58
(dp197
I0
F14.55648
sI1
F14.97568
sI2
F14.61318
sI3
F13.81947
sI4
F12.55549
sI5
F15.22794
sI6
F14.45177
sI7
F13.89145
sI8
F12.20766
sI9
F14.72058
sI10
F12.7935
sI11
F13.85017
sI12
F15.96469
sI13
F13.31026
sI14
F13.92214
ssg60
(dp198
I0
F10.242466666666669
sI1
Fnan
sI2
Fnan
sI3
Fnan
sI4
Fnan
sI5
Fnan
sI6
Fnan
sI7
Fnan
sI8
Fnan
sI9
Fnan
sI10
Fnan
sI11
Fnan
sI12
Fnan
sI13
Fnan
sI14
Fnan
ssg62
(dp199
I0
F0.7153505981262281
sI1
Fnan
sI2
Fnan
sI3
Fnan
sI4
Fnan
sI5
Fnan
sI6
Fnan
sI7
Fnan
sI8
Fnan
sI9
Fnan
sI10
Fnan
sI11
Fnan
sI12
Fnan
sI13
Fnan
sI14
Fnan
ssg64
(dp200
I0
F2.357222
sI1
F-3.467885
sI2
F3.358036
sI3
F-3.890705
sI4
F2.860565
sI5
F0.9849522
sI6
F-1.821236
sI7
F2.786359
sI8
F5.861873
sI9
F2.328748
sI10
F3.031448
sI11
F1.651641
sI12
F4.273977
sI13
F1.729139
sI14
F-3.372329
ssg66
(dp201
I0
F10.593933333333334
sI1
Fnan
sI2
Fnan
sI3
Fnan
sI4
Fnan
sI5
Fnan
sI6
Fnan
sI7
Fnan
sI8
Fnan
sI9
Fnan
sI10
Fnan
sI11
Fnan
sI12
Fnan
sI13
Fnan
sI14
Fnan
ssg68
(dp202
I0
g164
sI1
g165
sI2
g166
sI3
g167
sI4
g168
sI5
g169
sI6
g170
sI7
g171
sI8
g172
sI9
g173
sI10
g174
sI11
g175
sI12
g176
sI13
g177
sI14
g178
ssg70
(dp203
I0
F15238.916666666666
sI1
F15014.563333333334
sI2
F15166.676666666666
sI3
F15137.703333333333
sI4
F15426.206666666667
sI5
F15090.53
sI6
F15033.743333333334
sI7
F15262.906666666668
sI8
F8092.263333333333
sI9
F15246.730000000001
sI10
F15383.619999999999
sI11
F15160.383333333333
sI12
F14753.513333333334
sI13
F15212.816666666668
sI14
F15061.163333333334
ssg72
(dp204
I0
F1.022282
sI1
F1.00464
sI2
F1.008425
sI3
F1.004677
sI4
F1.020965
sI5
F1.004652
sI6
F1.009059
sI7
F1.008132
sI8
F1.00464
sI9
F1.0203360000000001
sI10
F1.0093940000000001
sI11
F1.008739
sI12
F1.0197129999999999
sI13
F1.021621
sI14
F1.004653
ssg74
(dp205
I0
F12957.486666666666
sI1
F12743.673333333334
sI2
F12958.18
sI3
F12773.343333333332
sI4
F13102.073333333334
sI5
F12952.936666666666
sI6
F12799.723333333333
sI7
F13029.743333333334
sI8
F6929.156666666667
sI9
F12966.916666666666
sI10
F13096.226666666666
sI11
F12943.123333333333
sI12
F12568.85
sI13
F12973.436666666666
sI14
F12879.256666666666
ssg76
(dp206
I0
F21153.406666666666
sI1
F20760.886666666665
sI2
F20960.506666666664
sI3
F20894.87
sI4
F21111.77
sI5
F20963.18
sI6
F20862.17
sI7
F21061.396666666667
sI8
F11149.56
sI9
F21060.84
sI10
F21223.413333333334
sI11
F20894.876666666667
sI12
F20405.586666666666
sI13
F21145.206666666665
sI14
F20888.47666666667
ssg78
(dp207
I0
F14.14091
sI1
F15.09029
sI2
F12.26154
sI3
F14.08027
sI4
F11.94364
sI5
F13.81392
sI6
F12.6715
sI7
F12.93351
sI8
F12.52863
sI9
F13.73603
sI10
F12.65496
sI11
F13.33462
sI12
F13.62344
sI13
F13.59479
sI14
F13.73468
ssg80
(dp208
I0
F10.719
sI1
F10.737
sI2
F10.719
sI3
F10.734
sI4
F10.707
sI5
F10.719
sI6
F10.732
sI7
F10.713
sI8
F11.398
sI9
F10.718
sI10
F10.707
sI11
F10.72
sI12
F10.752
sI13
F10.717
sI14
F10.725
ssg82
(dp209
I0
F0.001
sI1
F0.001
sI2
F0.001
sI3
F0.001
sI4
F0.001
sI5
F0.001
sI6
F0.001
sI7
F0.001
sI8
F0.002
sI9
F0.001
sI10
F0.001
sI11
F0.001
sI12
F0.001
sI13
F0.001
sI14
F0.001
ssg84
(dp210
I0
F0.5504606637171291
sI1
Fnan
sI2
Fnan
sI3
Fnan
sI4
Fnan
sI5
Fnan
sI6
Fnan
sI7
Fnan
sI8
Fnan
sI9
Fnan
sI10
Fnan
sI11
Fnan
sI12
Fnan
sI13
Fnan
sI14
Fnan
ssg86
(dp211
I0
F10.767800000000001
sI1
Fnan
sI2
Fnan
sI3
Fnan
sI4
Fnan
sI5
Fnan
sI6
Fnan
sI7
Fnan
sI8
Fnan
sI9
Fnan
sI10
Fnan
sI11
Fnan
sI12
Fnan
sI13
Fnan
sI14
Fnan
ssg88
(dp212
I0
F10.543
sI1
F10.559
sI2
F10.548
sI3
F10.55
sI4
F10.529
sI5
F10.553
sI6
F10.557
sI7
F10.541
sI8
F11.23
sI9
F10.542
sI10
F10.532
sI11
F10.548
sI12
F10.578
sI13
F10.544
sI14
F10.555
ssg90
(dp213
I0
F5.19757
sI1
F-3.203905
sI2
F1.669016
sI3
F3.541265
sI4
F3.887772
sI5
F3.573667
sI6
F5.110232
sI7
F2.020393
sI8
F3.639823
sI9
F3.79016
sI10
F3.799839
sI11
F1.009936
sI12
F4.553448
sI13
F3.111211
sI14
F-3.754416
ssg92
(dp214
I0
F0.17722941817504975
sI1
Fnan
sI2
Fnan
sI3
Fnan
sI4
Fnan
sI5
Fnan
sI6
Fnan
sI7
Fnan
sI8
Fnan
sI9
Fnan
sI10
Fnan
sI11
Fnan
sI12
Fnan
sI13
Fnan
sI14
Fnan
ssg94
(dp215
I0
F0.7120999969132684
sI1
F0.7124256065728501
sI2
F0.7173645329855497
sI3
F0.7089886817224267
sI4
F0.7171756363447601
sI5
F0.7185355774297106
sI6
F0.7131576909312054
sI7
F0.7174118778694631
sI8
F0.7202183022502892
sI9
F0.7142817140704634
sI10
F0.715503304920457
sI11
F0.7179603382881351
sI12
F0.7149699508804265
sI13
F0.7136491743638063
sI14
F0.7165165863506097
ssg96
(dp216
I0
F30.0
sI1
F30.0
sI2
F30.0
sI3
F30.0
sI4
F30.0
sI5
F30.0
sI6
F30.0
sI7
F30.0
sI8
F30.0
sI9
F30.0
sI10
F30.0
sI11
F30.0
sI12
F30.0
sI13
F30.0
sI14
F30.0
ssg98
(dp217
I0
F0.002
sI1
F0.002
sI2
F0.002
sI3
F0.002
sI4
F0.002
sI5
F0.002
sI6
F0.002
sI7
F0.002
sI8
F0.002
sI9
F0.002
sI10
F0.002
sI11
F0.002
sI12
F0.002
sI13
F0.002
sI14
F0.002
ssg100
(dp218
I0
F0.001
sI1
F0.001
sI2
F0.001
sI3
F0.001
sI4
F0.001
sI5
F0.001
sI6
F0.001
sI7
F0.001
sI8
F0.002
sI9
F0.001
sI10
F0.001
sI11
F0.001
sI12
F0.001
sI13
F0.001
sI14
F0.001
ssg102
(dp219
I0
F2.782954
sI1
F4.419003
sI2
F2.349417
sI3
F-3.393831
sI4
F5.150149
sI5
F3.294134
sI6
F-3.675475
sI7
F-2.466453
sI8
F3.4534
sI9
F2.149577
sI10
F3.046535
sI11
F1.025132
sI12
F3.234144
sI13
F4.560128
sI14
F4.612516
ssg104
(dp220
I0
S"KIC8462852-20180914at050744_-25-1X1-030-r'_cal.fts.mag.1"
p221
sI1
S"KIC8462852-20180914at041008_-25-1X1-030-r'_cal.fts.mag.1"
p222
sI2
S"KIC8462852-20180914at043714_-25-1X1-030-r'_cal.fts.mag.1"
p223
sI3
S"KIC8462852-20180914at041319_-25-1X1-030-r'_cal.fts.mag.1"
p224
sI4
S"KIC8462852-20180914at050536_-25-1X1-030-r'_cal.fts.mag.1"
p225
sI5
S"KIC8462852-20180914at040903_-25-1X1-030-r'_cal.fts.mag.1"
p226
sI6
S"KIC8462852-20180914at043921_-25-1X1-030-r'_cal.fts.mag.1"
p227
sI7
S"KIC8462852-20180914at043608_-25-1X1-030-r'_cal.fts.mag.1"
p228
sI8
S"KIC8462852-20180914at041111_-25-1X1-030-r'_cal.fts.mag.1"
p229
sI9
S"KIC8462852-20180914at050431_-25-1X1-030-r'_cal.fts.mag.1"
p230
sI10
S"KIC8462852-20180914at044025_-25-1X1-030-r'_cal.fts.mag.1"
p231
sI11
S"KIC8462852-20180914at043817_-25-1X1-030-r'_cal.fts.mag.1"
p232
sI12
S"KIC8462852-20180914at050327_-25-1X1-030-r'_cal.fts.mag.1"
p233
sI13
S"KIC8462852-20180914at050640_-25-1X1-030-r'_cal.fts.mag.1"
p234
sI14
S"KIC8462852-20180914at041216_-25-1X1-030-r'_cal.fts.mag.1"
p235
ssg121
(dp236
I0
F0.005901783578938695
sI1
Fnan
sI2
Fnan
sI3
Fnan
sI4
Fnan
sI5
Fnan
sI6
Fnan
sI7
Fnan
sI8
Fnan
sI9
Fnan
sI10
Fnan
sI11
Fnan
sI12
Fnan
sI13
Fnan
sI14
Fnan
ssg123
(dp237
I0
F8978.063333333334
sI1
F8880.963333333335
sI2
F9013.746666666668
sI3
F8909.543333333333
sI4
F9120.933333333332
sI5
F9012.47
sI6
F8956.106666666667
sI7
F9102.083333333334
sI8
F4771.843333333333
sI9
F9054.106666666667
sI10
F9161.516666666666
sI11
F9012.796666666667
sI12
F8732.046666666667
sI13
F9095.273333333334
sI14
F8959.640000000001
ssg125
(dp238
I0
F0.17474315845998492
sI1
Fnan
sI2
Fnan
sI3
Fnan
sI4
Fnan
sI5
Fnan
sI6
Fnan
sI7
Fnan
sI8
Fnan
sI9
Fnan
sI10
Fnan
sI11
Fnan
sI12
Fnan
sI13
Fnan
sI14
Fnan
ssg127
(dp239
I0
S"r'"
p240
sI1
S"r'"
p241
sI2
S"r'"
p242
sI3
S"r'"
p243
sI4
S"r'"
p244
sI5
S"r'"
p245
sI6
S"r'"
p246
sI7
S"r'"
p247
sI8
S"r'"
p248
sI9
S"r'"
p249
sI10
S"r'"
p250
sI11
S"r'"
p251
sI12
S"r'"
p252
sI13
S"r'"
p253
sI14
S"r'"
p254
ssg144
(dp255
I0
F0.0022967737172364024
sI1
Fnan
sI2
Fnan
sI3
Fnan
sI4
Fnan
sI5
Fnan
sI6
Fnan
sI7
Fnan
sI8
Fnan
sI9
Fnan
sI10
Fnan
sI11
Fnan
sI12
Fnan
sI13
Fnan
sI14
Fnan
ssg146
(dp256
I0
F-3.105488
sI1
F-1.660549
sI2
F-1.665768
sI3
F3.176417
sI4
F-2.972832
sI5
F3.010633
sI6
F4.146291
sI7
F1.48959
sI8
F3.863519
sI9
F3.498856
sI10
F3.588294
sI11
F3.44679
sI12
F-2.812847
sI13
F1.556343
sI14
F-2.782224
ssg148
(dp257
I0
F1.4927469157157078
sI1
Fnan
sI2
Fnan
sI3
Fnan
sI4
Fnan
sI5
Fnan
sI6
Fnan
sI7
Fnan
sI8
Fnan
sI9
Fnan
sI10
Fnan
sI11
Fnan
sI12
Fnan
sI13
Fnan
sI14
Fnan
ssg150
(dp258
I0
F2458375.693252315
sI1
Fnan
sI2
Fnan
sI3
Fnan
sI4
Fnan
sI5
Fnan
sI6
Fnan
sI7
Fnan
sI8
Fnan
sI9
Fnan
sI10
Fnan
sI11
Fnan
sI12
Fnan
sI13
Fnan
sI14
Fnan
ssg152
(dp259
I0
F0.0022967737172364024
sI1
Fnan
sI2
Fnan
sI3
Fnan
sI4
Fnan
sI5
Fnan
sI6
Fnan
sI7
Fnan
sI8
Fnan
sI9
Fnan
sI10
Fnan
sI11
Fnan
sI12
Fnan
sI13
Fnan
sI14
Fnan
ssg154
(dp260
I0
F15.86125
sI1
F17.96903
sI2
F16.55901
sI3
F16.54786
sI4
F15.63769
sI5
F17.17171
sI6
F15.59947
sI7
F15.76742
sI8
F14.10857
sI9
F17.06222
sI10
F16.21189
sI11
F15.94878
sI12
F19.57259
sI13
F16.58485
sI14
F16.87286
ssg156
(dp261
I0
F10.187
sI1
F10.207
sI2
F10.196
sI3
F10.2
sI4
F10.189
sI5
F10.196
sI6
F10.202
sI7
F10.191
sI8
F10.882
sI9
F10.191
sI10
F10.183
sI11
F10.2
sI12
F10.226
sI13
F10.187
sI14
F10.2
ssg158
(dp262
I0
F0.5504606637171291
sI1
Fnan
sI2
Fnan
sI3
Fnan
sI4
Fnan
sI5
Fnan
sI6
Fnan
sI7
Fnan
sI8
Fnan
sI9
Fnan
sI10
Fnan
sI11
Fnan
sI12
Fnan
sI13
Fnan
sI14
Fnan
sssS'z'
p263
(dp264
g3
(dp265
I0
F0.3696739521991304
sI1
Fnan
sI2
Fnan
sI3
Fnan
sI4
Fnan
sI5
Fnan
sI6
Fnan
sI7
Fnan
sI8
Fnan
sI9
Fnan
sI10
Fnan
sI11
Fnan
sI12
Fnan
sI13
Fnan
sI14
Fnan
ssg5
(dp266
I0
S'NoError'
p267
sI1
S'NoError'
p268
sI2
S'NoError'
p269
sI3
S'NoError'
p270
sI4
S'NoError'
p271
sI5
S'NoError'
p272
sI6
S'NoError'
p273
sI7
S'NoError'
p274
sI8
S'NoError'
p275
sI9
S'NoError'
p276
sI10
S'NoError'
p277
sI11
S'NoError'
p278
sI12
S'NoError'
p279
sI13
S'NoError'
p280
sI14
S'NoError'
p281
ssg22
(dp282
I0
F0.007
sI1
F0.007
sI2
F0.007
sI3
F0.007
sI4
F0.006
sI5
F0.007
sI6
F0.007
sI7
F0.007
sI8
F0.007
sI9
F0.007
sI10
F0.007
sI11
F0.007
sI12
F0.006
sI13
F0.007
sI14
F0.006
ssg24
(dp283
I0
F0.9191629869648478
sI1
F0.9131194438454907
sI2
F0.9136775173893186
sI3
F0.9105073472482058
sI4
F0.906999172034509
sI5
F0.9131941756987463
sI6
F0.9241650922846752
sI7
F0.9148306187703504
sI8
F0.9091292866364994
sI9
F0.9153109680906577
sI10
F0.9261867384814063
sI11
F0.9159512425565929
sI12
F0.9211809587799435
sI13
F0.9161177539646473
sI14
F0.9079759368632048
ssg26
(dp284
I0
F0.005625725286199088
sI1
Fnan
sI2
Fnan
sI3
Fnan
sI4
Fnan
sI5
Fnan
sI6
Fnan
sI7
Fnan
sI8
Fnan
sI9
Fnan
sI10
Fnan
sI11
Fnan
sI12
Fnan
sI13
Fnan
sI14
Fnan
ssg28
(dp285
I0
F0.9151672826406064
sI1
Fnan
sI2
Fnan
sI3
Fnan
sI4
Fnan
sI5
Fnan
sI6
Fnan
sI7
Fnan
sI8
Fnan
sI9
Fnan
sI10
Fnan
sI11
Fnan
sI12
Fnan
sI13
Fnan
sI14
Fnan
ssg30
(dp286
I0
F13.169
sI1
F13.198
sI2
F13.172
sI3
F13.168
sI4
F13.185
sI5
F13.182
sI6
F13.196
sI7
F13.181
sI8
F13.213
sI9
F13.171
sI10
F13.226
sI11
F13.276
sI12
F13.178
sI13
F13.199
sI14
F13.178
ssg32
(dp287
I0
F7.322824
sI1
F7.712591
sI2
F7.877059
sI3
F7.18252
sI4
F8.035211
sI5
F8.002505
sI6
F8.108513
sI7
F8.608689
sI8
F7.337197
sI9
F7.357461
sI10
F8.321635
sI11
F8.161896
sI12
F7.936944
sI13
F8.07614
sI14
F7.239019
ssg34
(dp288
I0
F2458375.6999652777
sI1
F2458375.6992245372
sI2
F2458375.6833449076
sI3
F2458375.6826157407
sI4
F2458375.7007175926
sI5
F2458375.6803703704
sI6
F2458375.702199074
sI7
F2458375.6811226853
sI8
F2458375.7211342594
sI9
F2458375.6818634258
sI10
F2458375.719652778
sI11
F2458375.718912037
sI12
F2458375.7014583335
sI13
F2458375.7203819444
sI14
F2458375.718171296
ssg36
(dp289
I0
F2.5524267333333333
sI1
Fnan
sI2
Fnan
sI3
Fnan
sI4
Fnan
sI5
Fnan
sI6
Fnan
sI7
Fnan
sI8
Fnan
sI9
Fnan
sI10
Fnan
sI11
Fnan
sI12
Fnan
sI13
Fnan
sI14
Fnan
ssg38
(dp290
I0
F1.3446085333333335
sI1
Fnan
sI2
Fnan
sI3
Fnan
sI4
Fnan
sI5
Fnan
sI6
Fnan
sI7
Fnan
sI8
Fnan
sI9
Fnan
sI10
Fnan
sI11
Fnan
sI12
Fnan
sI13
Fnan
sI14
Fnan
ssg40
(dp291
I0
F0.37204431494924955
sI1
F0.36622746854651117
sI2
F0.373664588818351
sI3
F0.37656146652762523
sI4
F0.3710665896949074
sI5
F0.36826086943244196
sI6
F0.36823387512426015
sI7
F0.36768756346441356
sI8
F0.37114676299927374
sI9
F0.3711586931191806
sI10
F0.36595121804470604
sI11
F0.36653678555584884
sI12
F0.3717094962352666
sI13
F0.36831065511610034
sI14
F0.37343644968731465
ssg42
(dp292
I0
F0.002558046844788989
sI1
Fnan
sI2
Fnan
sI3
Fnan
sI4
Fnan
sI5
Fnan
sI6
Fnan
sI7
Fnan
sI8
Fnan
sI9
Fnan
sI10
Fnan
sI11
Fnan
sI12
Fnan
sI13
Fnan
sI14
Fnan
ssg44
(dp293
I0
F0.34367799999999993
sI1
Fnan
sI2
Fnan
sI3
Fnan
sI4
Fnan
sI5
Fnan
sI6
Fnan
sI7
Fnan
sI8
Fnan
sI9
Fnan
sI10
Fnan
sI11
Fnan
sI12
Fnan
sI13
Fnan
sI14
Fnan
ssg46
(dp294
I0
g267
sI1
g268
sI2
g269
sI3
g270
sI4
g271
sI5
g272
sI6
g273
sI7
g274
sI8
g275
sI9
g276
sI10
g277
sI11
g278
sI12
g279
sI13
g280
sI14
g281
ssg48
(dp295
I0
F0.004533369167001104
sI1
Fnan
sI2
Fnan
sI3
Fnan
sI4
Fnan
sI5
Fnan
sI6
Fnan
sI7
Fnan
sI8
Fnan
sI9
Fnan
sI10
Fnan
sI11
Fnan
sI12
Fnan
sI13
Fnan
sI14
Fnan
ssg50
(dp296
I0
F0.023901185465718296
sI1
Fnan
sI2
Fnan
sI3
Fnan
sI4
Fnan
sI5
Fnan
sI6
Fnan
sI7
Fnan
sI8
Fnan
sI9
Fnan
sI10
Fnan
sI11
Fnan
sI12
Fnan
sI13
Fnan
sI14
Fnan
ssg52
(dp297
I0
F1.8340322666666669
sI1
Fnan
sI2
Fnan
sI3
Fnan
sI4
Fnan
sI5
Fnan
sI6
Fnan
sI7
Fnan
sI8
Fnan
sI9
Fnan
sI10
Fnan
sI11
Fnan
sI12
Fnan
sI13
Fnan
sI14
Fnan
ssg54
(dp298
I0
F1.5068771327675639
sI1
F1.510438787929149
sI2
F1.5049077133530215
sI3
F1.5098151582157011
sI4
F1.4996004851302127
sI5
F1.5035229708613318
sI6
F1.4991066512258835
sI7
F1.507371712969008
sI8
F1.507934916771608
sI9
F1.5014630649112481
sI10
F1.4944944299404423
sI11
F1.496549253128083
sI12
F1.5032821735717756
sI13
F1.494574220317608
sI14
F1.5011871208408636
ssg56
(dp299
I0
g267
sI1
g268
sI2
g269
sI3
g270
sI4
g271
sI5
g272
sI6
g273
sI7
g274
sI8
g275
sI9
g276
sI10
g277
sI11
g278
sI12
g279
sI13
g280
sI14
g281
ssg58
(dp300
I0
F8.584537
sI1
F8.352201
sI2
F8.33944
sI3
F9.113378
sI4
F9.527539
sI5
F8.213403
sI6
F8.186767
sI7
F7.929384
sI8
F9.038243
sI9
F8.510361
sI10
F7.955194
sI11
F9.339407
sI12
F7.755745
sI13
F8.475843
sI14
F8.659437
ssg60
(dp301
I0
F11.8398
sI1
Fnan
sI2
Fnan
sI3
Fnan
sI4
Fnan
sI5
Fnan
sI6
Fnan
sI7
Fnan
sI8
Fnan
sI9
Fnan
sI10
Fnan
sI11
Fnan
sI12
Fnan
sI13
Fnan
sI14
Fnan
ssg62
(dp302
I0
F0.6919849589216284
sI1
Fnan
sI2
Fnan
sI3
Fnan
sI4
Fnan
sI5
Fnan
sI6
Fnan
sI7
Fnan
sI8
Fnan
sI9
Fnan
sI10
Fnan
sI11
Fnan
sI12
Fnan
sI13
Fnan
sI14
Fnan
ssg64
(dp303
I0
F1.870929
sI1
F-2.142907
sI2
F2.057318
sI3
F3.302119
sI4
F1.734075
sI5
F3.525363
sI6
F-1.9452
sI7
F2.892831
sI8
F2.145008
sI9
F4.118962
sI10
F3.402753
sI11
F-2.6347
sI12
F-3.471807
sI13
F3.846767
sI14
F1.467617
ssg66
(dp304
I0
F12.178866666666666
sI1
Fnan
sI2
Fnan
sI3
Fnan
sI4
Fnan
sI5
Fnan
sI6
Fnan
sI7
Fnan
sI8
Fnan
sI9
Fnan
sI10
Fnan
sI11
Fnan
sI12
Fnan
sI13
Fnan
sI14
Fnan
ssg68
(dp305
I0
g267
sI1
g268
sI2
g269
sI3
g270
sI4
g271
sI5
g272
sI6
g273
sI7
g274
sI8
g275
sI9
g276
sI10
g277
sI11
g278
sI12
g279
sI13
g280
sI14
g281
ssg70
(dp306
I0
F3444.7466666666664
sI1
F3389.95
sI2
F3406.8966666666665
sI3
F3384.9066666666668
sI4
F3370.5333333333333
sI5
F3421.5833333333335
sI6
F3406.8933333333334
sI7
F3435.4733333333334
sI8
F3289.9126666666666
sI9
F3435.326666666667
sI10
F3338.7466666666664
sI11
F3159.4210000000003
sI12
F3423.8966666666665
sI13
F3377.18
sI14
F3372.883333333333
ssg72
(dp307
I0
F1.012127
sI1
F1.011698
sI2
F1.0055969999999999
sI3
F1.005451
sI4
F1.0125620000000002
sI5
F1.005082
sI6
F1.013471
sI7
F1.0051940000000001
sI8
F1.0296319999999999
sI9
F1.005317
sI10
F1.028046
sI11
F1.027285
sI12
F1.01301
sI13
F1.028835
sI14
F1.026534
ssg74
(dp308
I0
F2794.5056666666665
sI1
F2771.637
sI2
F2792.6639999999998
sI3
F2780.726666666667
sI4
F2803.2043333333336
sI5
F2809.4266666666667
sI6
F2754.5673333333334
sI7
F2806.2916666666665
sI8
F2712.1456666666663
sI9
F2814.453
sI10
F2698.412
sI11
F2593.7296666666666
sI12
F2774.638
sI13
F2775.2076666666667
sI14
F2797.788666666667
ssg76
(dp309
I0
F4700.8933333333325
sI1
F4653.35
sI2
F4664.883333333333
sI3
F4654.483333333334
sI4
F4629.070000000001
sI5
F4684.233333333334
sI6
F4618.343333333333
sI7
F4704.33
sI8
F4525.3566666666675
sI9
F4691.906666666667
sI10
F4511.25
sI11
F4304.9366666666665
sI12
F4659.073333333334
sI13
F4597.6
sI14
F4631.666666666667
ssg78
(dp310
I0
F8.420238
sI1
F7.89743
sI2
F8.200174
sI3
F8.287811
sI4
F7.950302
sI5
F7.106565
sI6
F9.047827
sI7
F7.761123
sI8
F8.048308
sI9
F7.757091
sI10
F8.397656
sI11
F8.332756
sI12
F8.385124
sI13
F7.649242
sI14
F8.050603
ssg80
(dp311
I0
F12.384
sI1
F12.393
sI2
F12.385
sI3
F12.39
sI4
F12.381
sI5
F12.378
sI6
F12.4
sI7
F12.38
sI8
F12.417
sI9
F12.377
sI10
F12.422
sI11
F12.465
sI12
F12.392
sI13
F12.392
sI14
F12.383
ssg82
(dp312
I0
F0.003
sI1
F0.003
sI2
F0.003
sI3
F0.003
sI4
F0.003
sI5
F0.003
sI6
F0.003
sI7
F0.003
sI8
F0.003
sI9
F0.003
sI10
F0.003
sI11
F0.003
sI12
F0.003
sI13
F0.003
sI14
F0.003
ssg84
(dp313
I0
F0.3701331198210301
sI1
Fnan
sI2
Fnan
sI3
Fnan
sI4
Fnan
sI5
Fnan
sI6
Fnan
sI7
Fnan
sI8
Fnan
sI9
Fnan
sI10
Fnan
sI11
Fnan
sI12
Fnan
sI13
Fnan
sI14
Fnan
ssg86
(dp314
I0
F12.395933333333335
sI1
Fnan
sI2
Fnan
sI3
Fnan
sI4
Fnan
sI5
Fnan
sI6
Fnan
sI7
Fnan
sI8
Fnan
sI9
Fnan
sI10
Fnan
sI11
Fnan
sI12
Fnan
sI13
Fnan
sI14
Fnan
ssg88
(dp315
I0
F12.157
sI1
F12.175
sI2
F12.169
sI3
F12.176
sI4
F12.181
sI5
F12.164
sI6
F12.169
sI7
F12.16
sI8
F12.207
sI9
F12.16
sI10
F12.191
sI11
F12.251
sI12
F12.164
sI13
F12.179
sI14
F12.18
ssg90
(dp316
I0
F3.749256
sI1
F4.181141
sI2
F3.16228
sI3
F3.737393
sI4
F2.903435
sI5
F3.770142
sI6
F2.477787
sI7
F-1.471879
sI8
F4.034048
sI9
F-3.107097
sI10
F2.240227
sI11
F2.830982
sI12
F3.468975
sI13
F4.214022
sI14
F2.095689
ssg92
(dp317
I0
F0.024770950728625524
sI1
Fnan
sI2
Fnan
sI3
Fnan
sI4
Fnan
sI5
Fnan
sI6
Fnan
sI7
Fnan
sI8
Fnan
sI9
Fnan
sI10
Fnan
sI11
Fnan
sI12
Fnan
sI13
Fnan
sI14
Fnan
ssg94
(dp318
I0
F0.686135323109459
sI1
F0.6891790682928649
sI2
F0.6919574121197555
sI3
F0.6917755368670178
sI4
F0.7008358331100584
sI5
F0.6931878136893465
sI6
F0.6864762866806421
sI7
F0.6895232112487566
sI8
F0.6940632628229318
sI9
F0.6925980550987011
sI10
F0.6874937951141381
sI11
F0.6949639292472275
sI12
F0.686539230010751
sI13
F0.6959960441959945
sI14
F0.6990495822167809
ssg96
(dp319
I0
F30.0
sI1
F30.0
sI2
F30.0
sI3
F30.0
sI4
F30.0
sI5
F30.0
sI6
F30.0
sI7
F30.0
sI8
F30.0
sI9
F30.0
sI10
F30.0
sI11
F30.0
sI12
F30.0
sI13
F30.0
sI14
F30.0
ssg98
(dp320
I0
F0.004
sI1
F0.004
sI2
F0.004
sI3
F0.004
sI4
F0.004
sI5
F0.004
sI6
F0.004
sI7
F0.004
sI8
F0.004
sI9
F0.004
sI10
F0.004
sI11
F0.004
sI12
F0.004
sI13
F0.004
sI14
F0.004
ssg100
(dp321
I0
F0.003
sI1
F0.003
sI2
F0.003
sI3
F0.003
sI4
F0.003
sI5
F0.003
sI6
F0.003
sI7
F0.003
sI8
F0.004
sI9
F0.003
sI10
F0.004
sI11
F0.004
sI12
F0.003
sI13
F0.003
sI14
F0.004
ssg102
(dp322
I0
F3.574034
sI1
F2.616356
sI2
F1.66351
sI3
F-2.576726
sI4
F-2.96575
sI5
F2.632987
sI6
F3.044499
sI7
F3.908397
sI8
F3.155082
sI9
F3.352031
sI10
F3.936173
sI11
F2.771712
sI12
F-2.793353
sI13
F2.926505
sI14
F2.265027
ssg104
(dp323
I0
S"KIC8462852-20180914at044757_-25-1X1-030-z'_cal.fts.mag.1"
p324
sI1
S"KIC8462852-20180914at044651_-25-1X1-030-z'_cal.fts.mag.1"
p325
sI2
S"KIC8462852-20180914at042401_-25-1X1-030-z'_cal.fts.mag.1"
p326
sI3
S"KIC8462852-20180914at042258_-25-1X1-030-z'_cal.fts.mag.1"
p327
sI4
S"KIC8462852-20180914at044902_-25-1X1-030-z'_cal.fts.mag.1"
p328
sI5
S"KIC8462852-20180914at041943_-25-1X1-030-z'_cal.fts.mag.1"
p329
sI6
S"KIC8462852-20180914at045110_-25-1X1-030-z'_cal.fts.mag.1"
p330
sI7
S"KIC8462852-20180914at042048_-25-1X1-030-z'_cal.fts.mag.1"
p331
sI8
S"KIC8462852-20180914at051826_-25-1X1-030-z'_cal.fts.mag.1"
p332
sI9
S"KIC8462852-20180914at042153_-25-1X1-030-z'_cal.fts.mag.1"
p333
sI10
S"KIC8462852-20180914at051618_-25-1X1-030-z'_cal.fts.mag.1"
p334
sI11
S"KIC8462852-20180914at051514_-25-1X1-030-z'_cal.fts.mag.1"
p335
sI12
S"KIC8462852-20180914at045006_-25-1X1-030-z'_cal.fts.mag.1"
p336
sI13
S"KIC8462852-20180914at051721_-25-1X1-030-z'_cal.fts.mag.1"
p337
sI14
S"KIC8462852-20180914at051409_-25-1X1-030-z'_cal.fts.mag.1"
p338
ssg121
(dp339
I0
F0.0052138923536990435
sI1
Fnan
sI2
Fnan
sI3
Fnan
sI4
Fnan
sI5
Fnan
sI6
Fnan
sI7
Fnan
sI8
Fnan
sI9
Fnan
sI10
Fnan
sI11
Fnan
sI12
Fnan
sI13
Fnan
sI14
Fnan
ssg123
(dp340
I0
F1356.7396666666668
sI1
F1320.2423333333331
sI2
F1353.2193333333335
sI3
F1358.1463333333334
sI4
F1336.1870000000001
sI5
F1339.8856666666666
sI6
F1323.163
sI7
F1341.581
sI8
F1302.4053333333334
sI9
F1353.7006666666666
sI10
F1286.7343333333333
sI11
F1228.8863333333331
sI12
F1345.2920000000001
sI13
F1319.7783333333332
sI14
F1344.6623333333334
ssg125
(dp341
I0
F0.02325469742613199
sI1
Fnan
sI2
Fnan
sI3
Fnan
sI4
Fnan
sI5
Fnan
sI6
Fnan
sI7
Fnan
sI8
Fnan
sI9
Fnan
sI10
Fnan
sI11
Fnan
sI12
Fnan
sI13
Fnan
sI14
Fnan
ssg127
(dp342
I0
S"z'"
p343
sI1
S"z'"
p344
sI2
S"z'"
p345
sI3
S"z'"
p346
sI4
S"z'"
p347
sI5
S"z'"
p348
sI6
S"z'"
p349
sI7
S"z'"
p350
sI8
S"z'"
p351
sI9
S"z'"
p352
sI10
S"z'"
p353
sI11
S"z'"
p354
sI12
S"z'"
p355
sI13
S"z'"
p356
sI14
S"z'"
p357
ssg144
(dp358
I0
F0.003115465813510024
sI1
Fnan
sI2
Fnan
sI3
Fnan
sI4
Fnan
sI5
Fnan
sI6
Fnan
sI7
Fnan
sI8
Fnan
sI9
Fnan
sI10
Fnan
sI11
Fnan
sI12
Fnan
sI13
Fnan
sI14
Fnan
ssg146
(dp359
I0
F-2.59462
sI1
F-1.567461
sI2
F2.445483
sI3
F3.130208
sI4
F-3.187864
sI5
F-2.503106
sI6
F2.338377
sI7
F-3.332319
sI8
F4.254994
sI9
F3.587563
sI10
F-2.027844
sI11
F3.07696
sI12
F-3.602885
sI13
F1.514181
sI14
F3.623503
ssg148
(dp360
I0
F1.5027417194622334
sI1
Fnan
sI2
Fnan
sI3
Fnan
sI4
Fnan
sI5
Fnan
sI6
Fnan
sI7
Fnan
sI8
Fnan
sI9
Fnan
sI10
Fnan
sI11
Fnan
sI12
Fnan
sI13
Fnan
sI14
Fnan
ssg150
(dp361
I0
F2458375.7007175926
sI1
Fnan
sI2
Fnan
sI3
Fnan
sI4
Fnan
sI5
Fnan
sI6
Fnan
sI7
Fnan
sI8
Fnan
sI9
Fnan
sI10
Fnan
sI11
Fnan
sI12
Fnan
sI13
Fnan
sI14
Fnan
ssg152
(dp362
I0
F0.003115465813510024
sI1
Fnan
sI2
Fnan
sI3
Fnan
sI4
Fnan
sI5
Fnan
sI6
Fnan
sI7
Fnan
sI8
Fnan
sI9
Fnan
sI10
Fnan
sI11
Fnan
sI12
Fnan
sI13
Fnan
sI14
Fnan
ssg154
(dp363
I0
F8.343405
sI1
F9.484447
sI2
F8.39422
sI3
F8.63693
sI4
F8.962447
sI5
F7.35653
sI6
F9.498168
sI7
F9.477043
sI8
F9.425888
sI9
F8.891644
sI10
F9.356514
sI11
F9.720563
sI12
F7.70599
sI13
F8.351264
sI14
F8.57541
ssg156
(dp364
I0
F11.82
sI1
F11.831
sI2
F11.828
sI3
F11.83
sI4
F11.836
sI5
F11.823
sI6
F11.839
sI7
F11.819
sI8
F11.861
sI9
F11.822
sI10
F11.864
sI11
F11.915
sI12
F11.829
sI13
F11.844
sI14
F11.836
ssg158
(dp365
I0
F0.3701331198210301
sI1
Fnan
sI2
Fnan
sI3
Fnan
sI4
Fnan
sI5
Fnan
sI6
Fnan
sI7
Fnan
sI8
Fnan
sI9
Fnan
sI10
Fnan
sI11
Fnan
sI12
Fnan
sI13
Fnan
sI14
Fnan
sssS'g'
p366
(dp367
g3
(dp368
I0
F0.8709433169663046
sI1
Fnan
sI2
Fnan
sI3
Fnan
sI4
Fnan
sI5
Fnan
sI6
Fnan
sI7
Fnan
sI8
Fnan
sI9
Fnan
sI10
Fnan
sI11
Fnan
sI12
Fnan
sI13
Fnan
sI14
Fnan
ssg5
(dp369
I0
S'NoError'
p370
sI1
S'NoError'
p371
sI2
S'NoError'
p372
sI3
S'NoError'
p373
sI4
S'NoError'
p374
sI5
S'NoError'
p375
sI6
S'NoError'
p376
sI7
S'NoError'
p377
sI8
S'NoError'
p378
sI9
S'NoError'
p379
sI10
S'NoError'
p380
sI11
S'NoError'
p381
sI12
S'NoError'
p382
sI13
S'NoError'
p383
sI14
S'NoError'
p384
ssg22
(dp385
I0
F0.002
sI1
F0.002
sI2
F0.002
sI3
F0.002
sI4
F0.002
sI5
F0.002
sI6
F0.002
sI7
F0.002
sI8
F0.002
sI9
F0.002
sI10
F0.002
sI11
F0.002
sI12
F0.002
sI13
F0.002
sI14
F0.002
ssg24
(dp386
I0
F0.8829190552748473
sI1
F0.8815710294295823
sI2
F0.8780321450885097
sI3
F0.8770392138761338
sI4
F0.8759280235665363
sI5
F0.8744247385359711
sI6
F0.8786735835726353
sI7
F0.8810766074433026
sI8
F0.8757743165412224
sI9
F0.8744374104561558
sI10
F0.8772850853240813
sI11
F0.8814505264290553
sI12
F0.8769407520660915
sI13
F0.8771583162287
sI14
F0.8783242936275738
ssg26
(dp387
I0
F0.0026294408795148887
sI1
Fnan
sI2
Fnan
sI3
Fnan
sI4
Fnan
sI5
Fnan
sI6
Fnan
sI7
Fnan
sI8
Fnan
sI9
Fnan
sI10
Fnan
sI11
Fnan
sI12
Fnan
sI13
Fnan
sI14
Fnan
ssg28
(dp388
I0
F0.8780690064973597
sI1
Fnan
sI2
Fnan
sI3
Fnan
sI4
Fnan
sI5
Fnan
sI6
Fnan
sI7
Fnan
sI8
Fnan
sI9
Fnan
sI10
Fnan
sI11
Fnan
sI12
Fnan
sI13
Fnan
sI14
Fnan
ssg30
(dp389
I0
F11.295
sI1
F11.294
sI2
F11.306
sI3
F11.302
sI4
F11.296
sI5
F11.31
sI6
F11.301
sI7
F11.285
sI8
F11.295
sI9
F11.322
sI10
F11.301
sI11
F11.298
sI12
F11.295
sI13
F11.302
sI14
F11.294
ssg32
(dp390
I0
F9.104716
sI1
F9.36234
sI2
F9.871042
sI3
F8.420841
sI4
F9.409427
sI5
F8.932557
sI6
F8.439259
sI7
F9.113527
sI8
F8.667642
sI9
F8.631463
sI10
F8.689205
sI11
F9.231879
sI12
F9.400348
sI13
F8.77231
sI14
F8.086966
ssg34
(dp391
I0
F2458375.670717593
sI1
F2458375.709259259
sI2
F2458375.672210648
sI3
F2458375.7085300926
sI4
F2458375.6910185185
sI5
F2458375.71
sI6
F2458375.7070486112
sI7
F2458375.669976852
sI8
F2458375.6714699073
sI9
F2458375.689548611
sI10
F2458375.6902893516
sI11
F2458375.669247685
sI12
F2458375.6888078703
sI13
F2458375.6880555553
sI14
F2458375.7077893517
ssg36
(dp392
I0
F0.3964095999999999
sI1
Fnan
sI2
Fnan
sI3
Fnan
sI4
Fnan
sI5
Fnan
sI6
Fnan
sI7
Fnan
sI8
Fnan
sI9
Fnan
sI10
Fnan
sI11
Fnan
sI12
Fnan
sI13
Fnan
sI14
Fnan
ssg38
(dp393
I0
F1.5671316666666664
sI1
Fnan
sI2
Fnan
sI3
Fnan
sI4
Fnan
sI5
Fnan
sI6
Fnan
sI7
Fnan
sI8
Fnan
sI9
Fnan
sI10
Fnan
sI11
Fnan
sI12
Fnan
sI13
Fnan
sI14
Fnan
ssg40
(dp394
I0
F0.8797115017146258
sI1
F0.8729765175982841
sI2
F0.8714055514645846
sI3
F0.8696351893000293
sI4
F0.8691934796843299
sI5
F0.868952010552008
sI6
F0.8678101500888805
sI7
F0.8727360013195375
sI8
F0.8700983157421563
sI9
F0.8720526042383946
sI10
F0.8726039955767843
sI11
F0.8690138005957381
sI12
F0.8708586013059408
sI13
F0.8742418994843377
sI14
F0.8716283205772601
ssg42
(dp395
I0
F0.0018106615338935909
sI1
Fnan
sI2
Fnan
sI3
Fnan
sI4
Fnan
sI5
Fnan
sI6
Fnan
sI7
Fnan
sI8
Fnan
sI9
Fnan
sI10
Fnan
sI11
Fnan
sI12
Fnan
sI13
Fnan
sI14
Fnan
ssg44
(dp396
I0
F1.3057882666666667
sI1
Fnan
sI2
Fnan
sI3
Fnan
sI4
Fnan
sI5
Fnan
sI6
Fnan
sI7
Fnan
sI8
Fnan
sI9
Fnan
sI10
Fnan
sI11
Fnan
sI12
Fnan
sI13
Fnan
sI14
Fnan
ssg46
(dp397
I0
g370
sI1
g371
sI2
g372
sI3
g373
sI4
g374
sI5
g375
sI6
g376
sI7
g377
sI8
g378
sI9
g379
sI10
g380
sI11
g381
sI12
g382
sI13
g383
sI14
g384
ssg48
(dp398
I0
F0.002284101136120976
sI1
Fnan
sI2
Fnan
sI3
Fnan
sI4
Fnan
sI5
Fnan
sI6
Fnan
sI7
Fnan
sI8
Fnan
sI9
Fnan
sI10
Fnan
sI11
Fnan
sI12
Fnan
sI13
Fnan
sI14
Fnan
ssg50
(dp399
I0
F0.009627836625911263
sI1
Fnan
sI2
Fnan
sI3
Fnan
sI4
Fnan
sI5
Fnan
sI6
Fnan
sI7
Fnan
sI8
Fnan
sI9
Fnan
sI10
Fnan
sI11
Fnan
sI12
Fnan
sI13
Fnan
sI14
Fnan
ssg52
(dp400
I0
F1.8996225133333333
sI1
Fnan
sI2
Fnan
sI3
Fnan
sI4
Fnan
sI5
Fnan
sI6
Fnan
sI7
Fnan
sI8
Fnan
sI9
Fnan
sI10
Fnan
sI11
Fnan
sI12
Fnan
sI13
Fnan
sI14
Fnan
ssg54
(dp401
I0
F1.5034004589058236
sI1
F1.5112815440996474
sI2
F1.5104432088272224
sI3
F1.5179675852979202
sI4
F1.5152763422036206
sI5
F1.5109294569218994
sI6
F1.5135635214225702
sI7
F1.5163092735963675
sI8
F1.5171654360818638
sI9
F1.5162806913698796
sI10
F1.5122025940563284
sI11
F1.5083739706609114
sI12
F1.5104100248713406
sI13
F1.511676194967895
sI14
F1.5079210577592208
ssg56
(dp402
I0
g370
sI1
g371
sI2
g372
sI3
g373
sI4
g374
sI5
g375
sI6
g376
sI7
g377
sI8
g378
sI9
g379
sI10
g380
sI11
g381
sI12
g382
sI13
g383
sI14
g384
ssg58
(dp403
I0
F9.078802
sI1
F8.647578
sI2
F8.63465
sI3
F8.669456
sI4
F8.009786
sI5
F8.368589
sI6
F7.831683
sI7
F8.742833
sI8
F8.79887
sI9
F10.53244
sI10
F8.839075
sI11
F9.165861
sI12
F8.97835
sI13
F8.459522
sI14
F8.486462
ssg60
(dp404
I0
F10.872533333333333
sI1
Fnan
sI2
Fnan
sI3
Fnan
sI4
Fnan
sI5
Fnan
sI6
Fnan
sI7
Fnan
sI8
Fnan
sI9
Fnan
sI10
Fnan
sI11
Fnan
sI12
Fnan
sI13
Fnan
sI14
Fnan
ssg62
(dp405
I0
F0.7186973051281664
sI1
Fnan
sI2
Fnan
sI3
Fnan
sI4
Fnan
sI5
Fnan
sI6
Fnan
sI7
Fnan
sI8
Fnan
sI9
Fnan
sI10
Fnan
sI11
Fnan
sI12
Fnan
sI13
Fnan
sI14
Fnan
ssg64
(dp406
I0
F4.255783
sI1
F1.948111
sI2
F3.554674
sI3
F3.556041
sI4
F3.133724
sI5
F2.419698
sI6
F3.843716
sI7
F2.597431
sI8
F1.768113
sI9
F-3.121769
sI10
F-2.050213
sI11
F3.190932
sI12
F3.463598
sI13
F-2.643409
sI14
F-2.409455
ssg66
(dp407
I0
F11.246533333333332
sI1
Fnan
sI2
Fnan
sI3
Fnan
sI4
Fnan
sI5
Fnan
sI6
Fnan
sI7
Fnan
sI8
Fnan
sI9
Fnan
sI10
Fnan
sI11
Fnan
sI12
Fnan
sI13
Fnan
sI14
Fnan
ssg68
(dp408
I0
g370
sI1
g371
sI2
g372
sI3
g373
sI4
g374
sI5
g375
sI6
g376
sI7
g377
sI8
g378
sI9
g379
sI10
g380
sI11
g381
sI12
g382
sI13
g383
sI14
g384
ssg70
(dp409
I0
F7960.296666666666
sI1
F8015.88
sI2
F7921.433333333333
sI3
F7964.403333333334
sI4
F8003.573333333334
sI5
F7896.963333333333
sI6
F7994.876666666666
sI7
F8083.763333333333
sI8
F7998.73
sI9
F7782.873333333334
sI10
F7946.46
sI11
F8027.89
sI12
F7999.36
sI13
F7922.343333333333
sI14
F8011.623333333334
ssg72
(dp410
I0
F1.004761
sI1
F1.018509
sI2
F1.0046760000000001
sI3
F1.0179280000000002
sI4
F1.007836
sI5
F1.019098
sI6
F1.0168110000000001
sI7
F1.0048219999999999
sI8
F1.004712
sI9
F1.007303
sI10
F1.007564
sI11
F1.004895
sI12
F1.007056
sI13
F1.00682
sI14
F1.017367
ssg74
(dp411
I0
F6877.8966666666665
sI1
F6908.2
sI2
F6871.593333333333
sI3
F6888.733333333334
sI4
F6947.213333333333
sI5
F6890.596666666666
sI6
F6914.4766666666665
sI7
F6951.036666666667
sI8
F6936.806666666667
sI9
F6768.72
sI10
F6894.6466666666665
sI11
F6932.3566666666675
sI12
F6952.253333333333
sI13
F6877.426666666666
sI14
F6957.126666666666
ssg76
(dp412
I0
F11153.873333333333
sI1
F11277.243333333334
sI2
F11172.013333333334
sI3
F11273.29
sI4
F11327.286666666665
sI5
F11171.480000000001
sI6
F11283.126666666667
sI7
F11398.703333333333
sI8
F11329.84
sI9
F11032.15
sI10
F11221.380000000001
sI11
F11282.823333333334
sI12
F11291.533333333333
sI13
F11186.230000000001
sI14
F11285.846666666668
ssg78
(dp413
I0
F9.009073
sI1
F8.616216
sI2
F7.757353
sI3
F7.89588
sI4
F7.444111
sI5
F8.57129
sI6
F8.472793
sI7
F8.325906
sI8
F8.141033
sI9
F8.956879
sI10
F8.383232
sI11
F7.988352
sI12
F8.344586
sI13
F8.711656
sI14
F8.413294
ssg80
(dp414
I0
F11.406
sI1
F11.402
sI2
F11.407
sI3
F11.405
sI4
F11.395
sI5
F11.404
sI6
F11.401
sI7
F11.395
sI8
F11.397
sI9
F11.424
sI10
F11.404
sI11
F11.398
sI12
F11.395
sI13
F11.406
sI14
F11.394
ssg82
(dp415
I0
F0.002
sI1
F0.002
sI2
F0.002
sI3
F0.002
sI4
F0.002
sI5
F0.002
sI6
F0.002
sI7
F0.002
sI8
F0.002
sI9
F0.002
sI10
F0.002
sI11
F0.002
sI12
F0.002
sI13
F0.002
sI14
F0.002
ssg84
(dp416
I0
F0.8715278626161926
sI1
Fnan
sI2
Fnan
sI3
Fnan
sI4
Fnan
sI5
Fnan
sI6
Fnan
sI7
Fnan
sI8
Fnan
sI9
Fnan
sI10
Fnan
sI11
Fnan
sI12
Fnan
sI13
Fnan
sI14
Fnan
ssg86
(dp417
I0
F11.4022
sI1
Fnan
sI2
Fnan
sI3
Fnan
sI4
Fnan
sI5
Fnan
sI6
Fnan
sI7
Fnan
sI8
Fnan
sI9
Fnan
sI10
Fnan
sI11
Fnan
sI12
Fnan
sI13
Fnan
sI14
Fnan
ssg88
(dp418
I0
F11.248
sI1
F11.24
sI2
F11.253
sI3
F11.247
sI4
F11.242
sI5
F11.256
sI6
F11.243
sI7
F11.231
sI8
F11.242
sI9
F11.272
sI10
F11.25
sI11
F11.238
sI12
F11.242
sI13
F11.253
sI14
F11.241
ssg90
(dp419
I0
F3.750322
sI1
F-2.304219
sI2
F-3.197144
sI3
F-3.236196
sI4
F3.111763
sI5
F-3.136669
sI6
F3.596183
sI7
F3.032592
sI8
F3.042461
sI9
F-1.767306
sI10
F-2.981176
sI11
F2.302045
sI12
F3.251655
sI13
F-2.125729
sI14
F2.607562
ssg92
(dp420
I0
F0.008683865718073148
sI1
Fnan
sI2
Fnan
sI3
Fnan
sI4
Fnan
sI5
Fnan
sI6
Fnan
sI7
Fnan
sI8
Fnan
sI9
Fnan
sI10
Fnan
sI11
Fnan
sI12
Fnan
sI13
Fnan
sI14
Fnan
ssg94
(dp421
I0
F0.7196646955286751
sI1
F0.7161308079199894
sI2
F0.7197855319992863
sI3
F0.7161704071243468
sI4
F0.718769194265887
sI5
F0.7227225155418209
sI6
F0.7173436529820428
sI7
F0.7135684393146658
sI8
F0.7177775351892735
sI9
F0.7195016322949019
sI10
F0.719397351675167
sI11
F0.7179803818743793
sI12
F0.720780858947607
sI13
F0.7198262839088632
sI14
F0.7210402883555892
ssg96
(dp422
I0
F30.0
sI1
F30.0
sI2
F30.0
sI3
F30.0
sI4
F30.0
sI5
F30.0
sI6
F30.0
sI7
F30.0
sI8
F30.0
sI9
F30.0
sI10
F30.0
sI11
F30.0
sI12
F30.0
sI13
F30.0
sI14
F30.0
ssg98
(dp423
I0
F0.002
sI1
F0.002
sI2
F0.002
sI3
F0.002
sI4
F0.002
sI5
F0.002
sI6
F0.002
sI7
F0.002
sI8
F0.002
sI9
F0.002
sI10
F0.002
sI11
F0.002
sI12
F0.002
sI13
F0.002
sI14
F0.002
ssg100
(dp424
I0
F0.002
sI1
F0.002
sI2
F0.002
sI3
F0.002
sI4
F0.002
sI5
F0.002
sI6
F0.002
sI7
F0.002
sI8
F0.002
sI9
F0.002
sI10
F0.002
sI11
F0.002
sI12
F0.002
sI13
F0.002
sI14
F0.002
ssg102
(dp425
I0
F3.945058
sI1
F-0.4879043
sI2
F3.762499
sI3
F3.864142
sI4
F2.847173
sI5
F3.048705
sI6
F3.349369
sI7
F3.632062
sI8
F2.60533
sI9
F-2.732749
sI10
F2.097315
sI11
F-1.875508
sI12
F3.21643
sI13
F-2.085025
sI14
F3.307441
ssg104
(dp426
I0
S"KIC8462852-20180914at040550_-25-1X1-030-g'_cal.fts.mag.1"
p427
sI1
S"KIC8462852-20180914at050120_-25-1X1-030-g'_cal.fts.mag.1"
p428
sI2
S"KIC8462852-20180914at040759_-25-1X1-030-g'_cal.fts.mag.1"
p429
sI3
S"KIC8462852-20180914at050017_-25-1X1-030-g'_cal.fts.mag.1"
p430
sI4
S"KIC8462852-20180914at043504_-25-1X1-030-g'_cal.fts.mag.1"
p431
sI5
S"KIC8462852-20180914at050224_-25-1X1-030-g'_cal.fts.mag.1"
p432
sI6
S"KIC8462852-20180914at045804_-25-1X1-030-g'_cal.fts.mag.1"
p433
sI7
S"KIC8462852-20180914at040446_-25-1X1-030-g'_cal.fts.mag.1"
p434
sI8
S"KIC8462852-20180914at040655_-25-1X1-030-g'_cal.fts.mag.1"
p435
sI9
S"KIC8462852-20180914at043257_-25-1X1-030-g'_cal.fts.mag.1"
p436
sI10
S"KIC8462852-20180914at043400_-25-1X1-030-g'_cal.fts.mag.1"
p437
sI11
S"KIC8462852-20180914at040334_-25-1X1-030-g'_cal.fts.mag.1"
p438
sI12
S"KIC8462852-20180914at043153_-25-1X1-030-g'_cal.fts.mag.1"
p439
sI13
S"KIC8462852-20180914at043043_-25-1X1-030-g'_cal.fts.mag.1"
p440
sI14
S"KIC8462852-20180914at045913_-25-1X1-030-g'_cal.fts.mag.1"
p441
ssg121
(dp442
I0
F0.0039837298781541805
sI1
Fnan
sI2
Fnan
sI3
Fnan
sI4
Fnan
sI5
Fnan
sI6
Fnan
sI7
Fnan
sI8
Fnan
sI9
Fnan
sI10
Fnan
sI11
Fnan
sI12
Fnan
sI13
Fnan
sI14
Fnan
ssg123
(dp443
I0
F7621.84
sI1
F7624.38
sI2
F7542.026666666667
sI3
F7573.486666666667
sI4
F7613.576666666666
sI5
F7519.053333333333
sI6
F7576.7
sI7
F7689.823333333334
sI8
F7617.820000000001
sI9
F7436.79
sI10
F7580.743333333333
sI11
F7601.863333333333
sI12
F7618.0233333333335
sI13
F7572.683333333333
sI14
F7628.083333333333
ssg125
(dp444
I0
F0.007608266181313209
sI1
Fnan
sI2
Fnan
sI3
Fnan
sI4
Fnan
sI5
Fnan
sI6
Fnan
sI7
Fnan
sI8
Fnan
sI9
Fnan
sI10
Fnan
sI11
Fnan
sI12
Fnan
sI13
Fnan
sI14
Fnan
ssg127
(dp445
I0
S"g'"
p446
sI1
S"g'"
p447
sI2
S"g'"
p448
sI3
S"g'"
p449
sI4
S"g'"
p450
sI5
S"g'"
p451
sI6
S"g'"
p452
sI7
S"g'"
p453
sI8
S"g'"
p454
sI9
S"g'"
p455
sI10
S"g'"
p456
sI11
S"g'"
p457
sI12
S"g'"
p458
sI13
S"g'"
p459
sI14
S"g'"
p460
ssg144
(dp461
I0
F0.0028989479889035396
sI1
Fnan
sI2
Fnan
sI3
Fnan
sI4
Fnan
sI5
Fnan
sI6
Fnan
sI7
Fnan
sI8
Fnan
sI9
Fnan
sI10
Fnan
sI11
Fnan
sI12
Fnan
sI13
Fnan
sI14
Fnan
ssg146
(dp462
I0
F2.649565
sI1
F3.476485
sI2
F1.948719
sI3
F2.993801
sI4
F-2.607525
sI5
F2.865613
sI6
F-1.240319
sI7
F-3.855315
sI8
F4.091029
sI9
F1.898031
sI10
F2.004002
sI11
F2.321608
sI12
F3.028199
sI13
F2.3921
sI14
F-2.379169
ssg148
(dp463
I0
F1.5122134240695007
sI1
Fnan
sI2
Fnan
sI3
Fnan
sI4
Fnan
sI5
Fnan
sI6
Fnan
sI7
Fnan
sI8
Fnan
sI9
Fnan
sI10
Fnan
sI11
Fnan
sI12
Fnan
sI13
Fnan
sI14
Fnan
ssg150
(dp464
I0
F2458375.689548611
sI1
Fnan
sI2
Fnan
sI3
Fnan
sI4
Fnan
sI5
Fnan
sI6
Fnan
sI7
Fnan
sI8
Fnan
sI9
Fnan
sI10
Fnan
sI11
Fnan
sI12
Fnan
sI13
Fnan
sI14
Fnan
ssg152
(dp465
I0
F0.0028989479889035396
sI1
Fnan
sI2
Fnan
sI3
Fnan
sI4
Fnan
sI5
Fnan
sI6
Fnan
sI7
Fnan
sI8
Fnan
sI9
Fnan
sI10
Fnan
sI11
Fnan
sI12
Fnan
sI13
Fnan
sI14
Fnan
ssg154
(dp466
I0
F11.11077
sI1
F9.957372
sI2
F11.90709
sI3
F10.04795
sI4
F9.655087
sI5
F10.28283
sI6
F9.988718
sI7
F11.09233
sI8
F10.70909
sI9
F11.63252
sI10
F10.48
sI11
F10.59676
sI12
F10.01057
sI13
F10.96963
sI14
F9.451346
ssg156
(dp467
I0
F10.881
sI1
F10.869
sI2
F10.88
sI3
F10.87
sI4
F10.865
sI5
F10.88
sI6
F10.869
sI7
F10.858
sI8
F10.864
sI9
F10.893
sI10
F10.875
sI11
F10.869
sI12
F10.868
sI13
F10.878
sI14
F10.869
ssg158
(dp468
I0
F0.8715278626161926
sI1
Fnan
sI2
Fnan
sI3
Fnan
sI4
Fnan
sI5
Fnan
sI6
Fnan
sI7
Fnan
sI8
Fnan
sI9
Fnan
sI10
Fnan
sI11
Fnan
sI12
Fnan
sI13
Fnan
sI14
Fnan
sssS'V'
p469
(dp470
g3
(dp471
I0
F0.6937404109686227
sI1
Fnan
sI2
Fnan
sI3
Fnan
sI4
Fnan
sI5
Fnan
sI6
Fnan
sI7
Fnan
sI8
Fnan
sI9
Fnan
sI10
Fnan
sI11
Fnan
sI12
Fnan
sI13
Fnan
sI14
Fnan
ssg5
(dp472
I0
S'NoError'
p473
sI1
S'NoError'
p474
sI2
S'NoError'
p475
sI3
S'NoError'
p476
sI4
S'NoError'
p477
sI5
S'NoError'
p478
sI6
S'NoError'
p479
sI7
S'NoError'
p480
sI8
S'NoError'
p481
sI9
S'NoError'
p482
sI10
S'NoError'
p483
sI11
S'NoError'
p484
sI12
S'NoError'
p485
sI13
S'NoError'
p486
sI14
S'NoError'
p487
ssg22
(dp488
I0
F0.002
sI1
F0.002
sI2
F0.002
sI3
F0.002
sI4
F0.002
sI5
F0.002
sI6
F0.002
sI7
F0.002
sI8
F0.002
sI9
F0.002
sI10
F0.002
sI11
F0.002
sI12
F0.002
sI13
F0.002
sI14
F0.002
ssg24
(dp489
I0
F0.8885807713878909
sI1
F0.8880911054158227
sI2
F0.88481023437616
sI3
F0.8868710395007487
sI4
F0.8808522401111437
sI5
F0.886016179850568
sI6
F0.8841523153253991
sI7
F0.8796402191854831
sI8
F0.8840716646783675
sI9
F0.8837460249609683
sI10
F0.8822496974533164
sI11
F0.8771095901156426
sI12
F0.8854744497051958
sI13
F0.8873684152428981
sI14
F0.8852180229284955
ssg26
(dp490
I0
F0.003207510004167649
sI1
Fnan
sI2
Fnan
sI3
Fnan
sI4
Fnan
sI5
Fnan
sI6
Fnan
sI7
Fnan
sI8
Fnan
sI9
Fnan
sI10
Fnan
sI11
Fnan
sI12
Fnan
sI13
Fnan
sI14
Fnan
ssg28
(dp491
I0
F0.88428346468254
sI1
Fnan
sI2
Fnan
sI3
Fnan
sI4
Fnan
sI5
Fnan
sI6
Fnan
sI7
Fnan
sI8
Fnan
sI9
Fnan
sI10
Fnan
sI11
Fnan
sI12
Fnan
sI13
Fnan
sI14
Fnan
ssg30
(dp492
I0
F11.341
sI1
F11.331
sI2
F11.339
sI3
F11.329
sI4
F11.37
sI5
F11.358
sI6
F11.476
sI7
F11.378
sI8
F11.399
sI9
F11.35
sI10
F11.338
sI11
F11.353
sI12
F11.338
sI13
F11.376
sI14
F11.327
ssg32
(dp493
I0
F9.758997
sI1
F9.593169
sI2
F10.04664
sI3
F8.585338
sI4
F9.970094
sI5
F9.846642
sI6
F13.96919
sI7
F10.59683
sI8
F11.25524
sI9
F10.3182
sI10
F10.15268
sI11
F10.34273
sI12
F10.65333
sI13
F10.54231
sI14
F9.820694
ssg34
(dp494
I0
F2458375.723472222
sI1
F2458375.6841666666
sI2
F2458375.7037731484
sI3
F2458375.704525463
sI4
F2458375.687175926
sI5
F2458375.7227083333
sI6
F2458375.724224537
sI7
F2458375.7249652776
sI8
F2458375.7060416667
sI9
F2458375.6849189815
sI10
F2458375.7219560184
sI11
F2458375.7052893518
sI12
F2458375.686423611
sI13
F2458375.6856712964
sI14
F2458375.7030208334
ssg36
(dp495
I0
F1.5694426000000001
sI1
Fnan
sI2
Fnan
sI3
Fnan
sI4
Fnan
sI5
Fnan
sI6
Fnan
sI7
Fnan
sI8
Fnan
sI9
Fnan
sI10
Fnan
sI11
Fnan
sI12
Fnan
sI13
Fnan
sI14
Fnan
ssg38
(dp496
I0
F1.8046492666666665
sI1
Fnan
sI2
Fnan
sI3
Fnan
sI4
Fnan
sI5
Fnan
sI6
Fnan
sI7
Fnan
sI8
Fnan
sI9
Fnan
sI10
Fnan
sI11
Fnan
sI12
Fnan
sI13
Fnan
sI14
Fnan
ssg40
(dp497
I0
F0.692508732005798
sI1
F0.694233240264954
sI2
F0.6921655106572562
sI3
F0.6929134662718225
sI4
F0.6925467965092185
sI5
F0.6906664364854573
sI6
F0.6883805184851507
sI7
F0.6933605682685734
sI8
F0.6928058146489503
sI9
F0.693304162202828
sI10
F0.6952635863750717
sI11
F0.6965338019550473
sI12
F0.6967663295690171
sI13
F0.695556897378101
sI14
F0.6976074798548938
ssg42
(dp498
I0
F0.0017449942345730443
sI1
Fnan
sI2
Fnan
sI3
Fnan
sI4
Fnan
sI5
Fnan
sI6
Fnan
sI7
Fnan
sI8
Fnan
sI9
Fnan
sI10
Fnan
sI11
Fnan
sI12
Fnan
sI13
Fnan
sI14
Fnan
ssg44
(dp499
I0
F0.3069249333333334
sI1
Fnan
sI2
Fnan
sI3
Fnan
sI4
Fnan
sI5
Fnan
sI6
Fnan
sI7
Fnan
sI8
Fnan
sI9
Fnan
sI10
Fnan
sI11
Fnan
sI12
Fnan
sI13
Fnan
sI14
Fnan
ssg46
(dp500
I0
g473
sI1
g474
sI2
g475
sI3
g476
sI4
g477
sI5
g478
sI6
g479
sI7
g480
sI8
g481
sI9
g482
sI10
g483
sI11
g484
sI12
g485
sI13
g486
sI14
g487
ssg48
(dp501
I0
F0.0019689558129098532
sI1
Fnan
sI2
Fnan
sI3
Fnan
sI4
Fnan
sI5
Fnan
sI6
Fnan
sI7
Fnan
sI8
Fnan
sI9
Fnan
sI10
Fnan
sI11
Fnan
sI12
Fnan
sI13
Fnan
sI14
Fnan
ssg50
(dp502
I0
F0.03676411293639505
sI1
Fnan
sI2
Fnan
sI3
Fnan
sI4
Fnan
sI5
Fnan
sI6
Fnan
sI7
Fnan
sI8
Fnan
sI9
Fnan
sI10
Fnan
sI11
Fnan
sI12
Fnan
sI13
Fnan
sI14
Fnan
ssg52
(dp503
I0
F1.7166889333333333
sI1
Fnan
sI2
Fnan
sI3
Fnan
sI4
Fnan
sI5
Fnan
sI6
Fnan
sI7
Fnan
sI8
Fnan
sI9
Fnan
sI10
Fnan
sI11
Fnan
sI12
Fnan
sI13
Fnan
sI14
Fnan
ssg54
(dp504
I0
F1.5034216408074599
sI1
F1.4990519431916234
sI2
F1.499110265670517
sI3
F1.5032388952293996
sI4
F1.5099195527226303
sI5
F1.5009928846998635
sI6
F1.5096473890941544
sI7
F1.5130638613158531
sI8
F1.5025756800675223
sI9
F1.507200851489454
sI10
F1.503995776484959
sI11
F1.5181490027880664
sI12
F1.4980596035941702
sI13
F1.497827479419558
sI14
F1.4999708488485295
ssg56
(dp505
I0
g473
sI1
g474
sI2
g475
sI3
g476
sI4
g477
sI5
g478
sI6
g479
sI7
g480
sI8
g481
sI9
g482
sI10
g483
sI11
g484
sI12
g485
sI13
g486
sI14
g487
ssg58
(dp506
I0
F11.02732
sI1
F10.7987
sI2
F11.2581
sI3
F10.30222
sI4
F11.31899
sI5
F10.27125
sI6
F14.88503
sI7
F10.72739
sI8
F11.12808
sI9
F12.14258
sI10
F10.41696
sI11
F11.68291
sI12
F10.16246
sI13
F12.21127
sI14
F9.953037
ssg60
(dp507
I0
F10.688266666666667
sI1
Fnan
sI2
Fnan
sI3
Fnan
sI4
Fnan
sI5
Fnan
sI6
Fnan
sI7
Fnan
sI8
Fnan
sI9
Fnan
sI10
Fnan
sI11
Fnan
sI12
Fnan
sI13
Fnan
sI14
Fnan
ssg62
(dp508
I0
F0.7178510752952483
sI1
Fnan
sI2
Fnan
sI3
Fnan
sI4
Fnan
sI5
Fnan
sI6
Fnan
sI7
Fnan
sI8
Fnan
sI9
Fnan
sI10
Fnan
sI11
Fnan
sI12
Fnan
sI13
Fnan
sI14
Fnan
ssg64
(dp509
I0
F3.695575
sI1
F-3.170764
sI2
F4.069631
sI3
F2.667844
sI4
F-2.978586
sI5
F3.392916
sI6
F4.288424
sI7
F-3.415311
sI8
F-1.663079
sI9
F4.103235
sI10
F3.016722
sI11
F3.23831
sI12
F3.248925
sI13
F3.813672
sI14
F2.762225
ssg66
(dp510
I0
F11.053799999999999
sI1
Fnan
sI2
Fnan
sI3
Fnan
sI4
Fnan
sI5
Fnan
sI6
Fnan
sI7
Fnan
sI8
Fnan
sI9
Fnan
sI10
Fnan
sI11
Fnan
sI12
Fnan
sI13
Fnan
sI14
Fnan
ssg68
(dp511
I0
g473
sI1
g474
sI2
g475
sI3
g476
sI4
g477
sI5
g478
sI6
g479
sI7
g480
sI8
g481
sI9
g482
sI10
g483
sI11
g484
sI12
g485
sI13
g486
sI14
g487
ssg70
(dp512
I0
F9730.5
sI1
F9799.03
sI2
F9732.266666666666
sI3
F9822.79
sI4
F9421.636666666665
sI5
F9591.113333333335
sI6
F8615.486666666668
sI7
F9334.756666666666
sI8
F9192.873333333333
sI9
F9606.706666666667
sI10
F9670.443333333333
sI11
F9485.763333333334
sI12
F9677.609999999999
sI13
F9378.663333333334
sI14
F9761.716666666667
ssg72
(dp513
I0
F1.032223
sI1
F1.005774
sI2
F1.0144950000000001
sI3
F1.015011
sI4
F1.006551
sI5
F1.0313780000000001
sI6
F1.033083
sI7
F1.033952
sI8
F1.016068
sI9
F1.00595
sI10
F1.030533
sI11
F1.015534
sI12
F1.006338
sI13
F1.006137
sI14
F1.014003
ssg74
(dp514
I0
F8327.113333333333
sI1
F8415.42
sI2
F8404.233333333334
sI3
F8431.376666666667
sI4
F8136.446666666667
sI5
F8255.873333333333
sI6
F7399.9
sI7
F8062.473333333333
sI8
F7931.406666666667
sI9
F8269.42
sI10
F8361.93
sI11
F8202.72
sI12
F8353.07
sI13
F8070.346666666666
sI14
F8419.383333333333
ssg76
(dp515
I0
F13574.103333333333
sI1
F13652.203333333333
sI2
F13594.306666666667
sI3
F13720.186666666666
sI4
F13255.646666666667
sI5
F13394.1
sI6
F12088.793333333333
sI7
F13161.56
sI8
F12865.263333333334
sI9
F13471.456666666667
sI10
F13560.306666666667
sI11
F13426.876666666667
sI12
F13505.516666666666
sI13
F13067.803333333333
sI14
F13635.56
ssg78
(dp516
I0
F8.840371
sI1
F10.76656
sI2
F9.525783
sI3
F8.9562
sI4
F10.82608
sI5
F10.31796
sI6
F14.57751
sI7
F11.63007
sI8
F11.48082
sI9
F10.041
sI10
F10.01709
sI11
F10.57557
sI12
F9.641361
sI13
F10.03723
sI14
F10.14659
ssg80
(dp517
I0
F11.199
sI1
F11.187
sI2
F11.189
sI3
F11.185
sI4
F11.224
sI5
F11.208
sI6
F11.327
sI7
F11.234
sI8
F11.252
sI9
F11.206
sI10
F11.194
sI11
F11.215
sI12
F11.195
sI13
F11.233
sI14
F11.187
ssg82
(dp518
I0
F0.002
sI1
F0.002
sI2
F0.002
sI3
F0.002
sI4
F0.002
sI5
F0.002
sI6
F0.002
sI7
F0.002
sI8
F0.002
sI9
F0.002
sI10
F0.002
sI11
F0.002
sI12
F0.002
sI13
F0.002
sI14
F0.002
ssg84
(dp519
I0
F0.693640889395476
sI1
Fnan
sI2
Fnan
sI3
Fnan
sI4
Fnan
sI5
Fnan
sI6
Fnan
sI7
Fnan
sI8
Fnan
sI9
Fnan
sI10
Fnan
sI11
Fnan
sI12
Fnan
sI13
Fnan
sI14
Fnan
ssg86
(dp520
I0
F11.215666666666667
sI1
Fnan
sI2
Fnan
sI3
Fnan
sI4
Fnan
sI5
Fnan
sI6
Fnan
sI7
Fnan
sI8
Fnan
sI9
Fnan
sI10
Fnan
sI11
Fnan
sI12
Fnan
sI13
Fnan
sI14
Fnan
ssg88
(dp521
I0
F11.03
sI1
F11.022
sI2
F11.029
sI3
F11.019
sI4
F11.065
sI5
F11.045
sI6
F11.162
sI7
F11.075
sI8
F11.091
sI9
F11.044
sI10
F11.036
sI11
F11.057
sI12
F11.036
sI13
F11.07
sI14
F11.026
ssg90
(dp522
I0
F-3.848422
sI1
F1.966624
sI2
F3.04005
sI3
F4.5204
sI4
F-1.408471
sI5
F2.749342
sI6
F6.548555
sI7
F3.639659
sI8
F-2.971982
sI9
F4.745209
sI10
F2.880669
sI11
F3.133501
sI12
F2.940349
sI13
F-2.020518
sI14
F-2.373326
ssg92
(dp523
I0
F0.035096737061740685
sI1
Fnan
sI2
Fnan
sI3
Fnan
sI4
Fnan
sI5
Fnan
sI6
Fnan
sI7
Fnan
sI8
Fnan
sI9
Fnan
sI10
Fnan
sI11
Fnan
sI12
Fnan
sI13
Fnan
sI14
Fnan
ssg94
(dp524
I0
F0.7146324882022593
sI1
F0.7176953024503331
sI2
F0.7205716170341921
sI3
F0.7162540902148736
sI4
F0.7175856602458995
sI5
F0.7183638640726124
sI6
F0.714818385377323
sI7
F0.7167816361048734
sI8
F0.7191365967599863
sI9
F0.7166445510034088
sI10
F0.7199018542233893
sI11
F0.7159995530851093
sI12
F0.7206163448186024
sI13
F0.719075014033389
sI14
F0.7196891718024734
ssg96
(dp525
I0
F30.0
sI1
F30.0
sI2
F30.0
sI3
F30.0
sI4
F30.0
sI5
F30.0
sI6
F30.0
sI7
F30.0
sI8
F30.0
sI9
F30.0
sI10
F30.0
sI11
F30.0
sI12
F30.0
sI13
F30.0
sI14
F30.0
ssg98
(dp526
I0
F0.002
sI1
F0.002
sI2
F0.002
sI3
F0.002
sI4
F0.002
sI5
F0.002
sI6
F0.002
sI7
F0.002
sI8
F0.002
sI9
F0.002
sI10
F0.002
sI11
F0.002
sI12
F0.002
sI13
F0.002
sI14
F0.002
ssg100
(dp527
I0
F0.002
sI1
F0.002
sI2
F0.002
sI3
F0.002
sI4
F0.002
sI5
F0.002
sI6
F0.002
sI7
F0.002
sI8
F0.002
sI9
F0.002
sI10
F0.002
sI11
F0.002
sI12
F0.002
sI13
F0.002
sI14
F0.002
ssg102
(dp528
I0
F2.108792
sI1
F4.457434
sI2
F2.34575
sI3
F-3.236402
sI4
F2.323364
sI5
F3.551787
sI6
F5.001117
sI7
F3.022357
sI8
F3.721063
sI9
F2.019831
sI10
F-2.217731
sI11
F2.254741
sI12
F3.871204
sI13
F-1.738771
sI14
F-1.734202
ssg104
(dp529
I0
S'KIC8462852-20180914at052148_-25-1X1-030-V_cal.fts.mag.1'
p530
sI1
S'KIC8462852-20180914at042505_-25-1X1-030-V_cal.fts.mag.1'
p531
sI2
S'KIC8462852-20180914at045326_-25-1X1-030-V_cal.fts.mag.1'
p532
sI3
S'KIC8462852-20180914at045431_-25-1X1-030-V_cal.fts.mag.1'
p533
sI4
S'KIC8462852-20180914at042932_-25-1X1-030-V_cal.fts.mag.1'
p534
sI5
S'KIC8462852-20180914at052042_-25-1X1-030-V_cal.fts.mag.1'
p535
sI6
S'KIC8462852-20180914at052253_-25-1X1-030-V_cal.fts.mag.1'
p536
sI7
S'KIC8462852-20180914at052357_-25-1X1-030-V_cal.fts.mag.1'
p537
sI8
S'KIC8462852-20180914at045642_-25-1X1-030-V_cal.fts.mag.1'
p538
sI9
S'KIC8462852-20180914at042616_-25-1X1-030-V_cal.fts.mag.1'
p539
sI10
S'KIC8462852-20180914at051930_-25-1X1-030-V_cal.fts.mag.1'
p540
sI11
S'KIC8462852-20180914at045537_-25-1X1-030-V_cal.fts.mag.1'
p541
sI12
S'KIC8462852-20180914at042827_-25-1X1-030-V_cal.fts.mag.1'
p542
sI13
S'KIC8462852-20180914at042722_-25-1X1-030-V_cal.fts.mag.1'
p543
sI14
S'KIC8462852-20180914at045214_-25-1X1-030-V_cal.fts.mag.1'
p544
ssg121
(dp545
I0
F0.006017497454586678
sI1
Fnan
sI2
Fnan
sI3
Fnan
sI4
Fnan
sI5
Fnan
sI6
Fnan
sI7
Fnan
sI8
Fnan
sI9
Fnan
sI10
Fnan
sI11
Fnan
sI12
Fnan
sI13
Fnan
sI14
Fnan
ssg123
(dp546
I0
F7301.746666666667
sI1
F7374.296666666666
sI2
F7320.990000000001
sI3
F7385.153333333334
sI4
F7113.316666666667
sI5
F7192.39
sI6
F6448.79
sI7
F7062.753333333333
sI8
F6925.6433333333325
sI9
F7244.47
sI10
F7321.746666666667
sI11
F7224.3
sI12
F7324.453333333334
sI13
F7075.3933333333325
sI14
F7398.513333333333
ssg125
(dp547
I0
F0.03688140581970947
sI1
Fnan
sI2
Fnan
sI3
Fnan
sI4
Fnan
sI5
Fnan
sI6
Fnan
sI7
Fnan
sI8
Fnan
sI9
Fnan
sI10
Fnan
sI11
Fnan
sI12
Fnan
sI13
Fnan
sI14
Fnan
ssg127
(dp548
I0
g469
sI1
g469
sI2
g469
sI3
g469
sI4
g469
sI5
g469
sI6
g469
sI7
g469
sI8
g469
sI9
g469
sI10
g469
sI11
g469
sI12
g469
sI13
g469
sI14
g469
ssg144
(dp549
I0
F0.002436613054392934
sI1
Fnan
sI2
Fnan
sI3
Fnan
sI4
Fnan
sI5
Fnan
sI6
Fnan
sI7
Fnan
sI8
Fnan
sI9
Fnan
sI10
Fnan
sI11
Fnan
sI12
Fnan
sI13
Fnan
sI14
Fnan
ssg146
(dp550
I0
F1.890897
sI1
F-2.134527
sI2
F3.173186
sI3
F-2.76001
sI4
F3.372567
sI5
F3.727419
sI6
F3.587422
sI7
F-2.154597
sI8
F2.676942
sI9
F4.04983
sI10
F-2.99514
sI11
F1.535975
sI12
F-3.554662
sI13
F-2.44934
sI14
F-3.362088
ssg148
(dp551
I0
F1.504415045028251
sI1
Fnan
sI2
Fnan
sI3
Fnan
sI4
Fnan
sI5
Fnan
sI6
Fnan
sI7
Fnan
sI8
Fnan
sI9
Fnan
sI10
Fnan
sI11
Fnan
sI12
Fnan
sI13
Fnan
sI14
Fnan
ssg150
(dp552
I0
F2458375.704525463
sI1
Fnan
sI2
Fnan
sI3
Fnan
sI4
Fnan
sI5
Fnan
sI6
Fnan
sI7
Fnan
sI8
Fnan
sI9
Fnan
sI10
Fnan
sI11
Fnan
sI12
Fnan
sI13
Fnan
sI14
Fnan
ssg152
(dp553
I0
F0.002436613054392934
sI1
Fnan
sI2
Fnan
sI3
Fnan
sI4
Fnan
sI5
Fnan
sI6
Fnan
sI7
Fnan
sI8
Fnan
sI9
Fnan
sI10
Fnan
sI11
Fnan
sI12
Fnan
sI13
Fnan
sI14
Fnan
ssg154
(dp554
I0
F11.92594
sI1
F12.91504
sI2
F11.88145
sI3
F11.3388
sI4
F12.70845
sI5
F12.84879
sI6
F18.65357
sI7
F12.82351
sI8
F14.8737
sI9
F12.95172
sI10
F12.39507
sI11
F12.0371
sI12
F12.27152
sI13
F13.35297
sI14
F12.60117
ssg156
(dp555
I0
F10.668
sI1
F10.662
sI2
F10.667
sI3
F10.657
sI4
F10.694
sI5
F10.683
sI6
F10.794
sI7
F10.702
sI8
F10.726
sI9
F10.676
sI10
F10.669
sI11
F10.68
sI12
F10.674
sI13
F10.709
sI14
F10.663
ssg158
(dp556
I0
F0.693640889395476
sI1
Fnan
sI2
Fnan
sI3
Fnan
sI4
Fnan
sI5
Fnan
sI6
Fnan
sI7
Fnan
sI8
Fnan
sI9
Fnan
sI10
Fnan
sI11
Fnan
sI12
Fnan
sI13
Fnan
sI14
Fnan
sss.