(dp0
S'i'
p1
(dp2
S'sigmean'
p3
(dp4
I0
F0.43766216457184687
sI1
Fnan
sI2
Fnan
sI3
Fnan
sI4
Fnan
sI5
Fnan
sI6
Fnan
sI7
Fnan
sI8
Fnan
sI9
Fnan
sI10
Fnan
sI11
Fnan
sI12
Fnan
sI13
Fnan
sI14
Fnan
ssS'ref3flag'
p5
(dp6
I0
S'NoError'
p7
sI1
S'NoError'
p8
sI2
S'NoError'
p9
sI3
S'NoError'
p10
sI4
S'NoError'
p11
sI5
S'NoError'
p12
sI6
S'NoError'
p13
sI7
S'NoError'
p14
sI8
S'NoError'
p15
sI9
S'NoError'
p16
sI10
S'NoError'
p17
sI11
S'NoError'
p18
sI12
S'NoError'
p19
sI13
S'NoError'
p20
sI14
S'NoError'
p21
ssS'tabbyerr'
p22
(dp23
I0
F0.003
sI1
F0.003
sI2
F0.003
sI3
F0.003
sI4
F0.003
sI5
F0.003
sI6
F0.003
sI7
F0.003
sI8
F0.003
sI9
F0.003
sI10
F0.003
sI11
F0.003
sI12
F0.003
sI13
F0.003
sI14
F0.003
ssS'ref2rel'
p24
(dp25
I0
F0.9098133850767242
sI1
F0.9149902137449485
sI2
F0.908734121890877
sI3
F0.9109516499152177
sI4
F0.911602587026558
sI5
F0.9201910621923866
sI6
F0.9145623759722115
sI7
F0.9123320327584276
sI8
F0.9014295915907448
sI9
F0.9143338692750214
sI10
F0.9133616830331824
sI11
F0.9185217026577337
sI12
F0.9137106579219226
sI13
F0.9113765806801963
sI14
F0.9038379303853161
ssS'ref2err'
p26
(dp27
I0
F0.00486174995975398
sI1
Fnan
sI2
Fnan
sI3
Fnan
sI4
Fnan
sI5
Fnan
sI6
Fnan
sI7
Fnan
sI8
Fnan
sI9
Fnan
sI10
Fnan
sI11
Fnan
sI12
Fnan
sI13
Fnan
sI14
Fnan
ssS'ref2mean'
p28
(dp29
I0
F0.9119832962747645
sI1
Fnan
sI2
Fnan
sI3
Fnan
sI4
Fnan
sI5
Fnan
sI6
Fnan
sI7
Fnan
sI8
Fnan
sI9
Fnan
sI10
Fnan
sI11
Fnan
sI12
Fnan
sI13
Fnan
sI14
Fnan
ssS'tabbymag'
p30
(dp31
I0
F11.866
sI1
F11.931
sI2
F11.916
sI3
F11.932
sI4
F11.858
sI5
F11.941
sI6
F11.909
sI7
F11.851
sI8
F11.898
sI9
F11.871
sI10
F11.888
sI11
F11.87
sI12
F11.915
sI13
F11.975
sI14
F11.919
ssS'tabbybkg'
p32
(dp33
I0
F13.32975
sI1
F14.52551
sI2
F13.97605
sI3
F14.61167
sI4
F14.52376
sI5
F14.46947
sI6
F13.37225
sI7
F13.56107
sI8
F15.13661
sI9
F14.62328
sI10
F14.06516
sI11
F14.11677
sI12
F14.00816
sI13
F14.77459
sI14
F14.30617
ssS'JD'
p34
(dp35
I0
F2458373.688622685
sI1
F2458373.6908333334
sI2
F2458373.709583333
sI3
F2458373.7103125
sI4
F2458373.6878819442
sI5
F2458373.6711921296
sI6
F2458373.6689583333
sI7
F2458373.708101852
sI8
F2458373.707361111
sI9
F2458373.689351852
sI10
F2458373.708842593
sI11
F2458373.6900925925
sI12
F2458373.6704513887
sI13
F2458373.6696990742
sI14
F2458373.6719328705
ssS'ref3rmsmean'
p36
(dp37
I0
F3.4055176000000005
sI1
Fnan
sI2
Fnan
sI3
Fnan
sI4
Fnan
sI5
Fnan
sI6
Fnan
sI7
Fnan
sI8
Fnan
sI9
Fnan
sI10
Fnan
sI11
Fnan
sI12
Fnan
sI13
Fnan
sI14
Fnan
ssS'ref1rmsmean'
p38
(dp39
I0
F1.1484375333333332
sI1
Fnan
sI2
Fnan
sI3
Fnan
sI4
Fnan
sI5
Fnan
sI6
Fnan
sI7
Fnan
sI8
Fnan
sI9
Fnan
sI10
Fnan
sI11
Fnan
sI12
Fnan
sI13
Fnan
sI14
Fnan
ssS'relflux'
p40
(dp41
I0
F0.43863804292911535
sI1
F0.43465078283850017
sI2
F0.4385029628463722
sI3
F0.4382825140412661
sI4
F0.44111626916165847
sI5
F0.4326198532330278
sI6
F0.43798047143051977
sI7
F0.43766171024929995
sI8
F0.44082010814258477
sI9
F0.43677955264925894
sI10
F0.43577936009350116
sI11
F0.4368743232911224
sI12
F0.44036553063727063
sI13
F0.43500577368232834
sI14
F0.43826700660286905
ssS'sigerr'
p42
(dp43
I0
F0.0017729060387854316
sI1
Fnan
sI2
Fnan
sI3
Fnan
sI4
Fnan
sI5
Fnan
sI6
Fnan
sI7
Fnan
sI8
Fnan
sI9
Fnan
sI10
Fnan
sI11
Fnan
sI12
Fnan
sI13
Fnan
sI14
Fnan
ssS'tabbyrmsmean'
p44
(dp45
I0
F2.5449973133333335
sI1
Fnan
sI2
Fnan
sI3
Fnan
sI4
Fnan
sI5
Fnan
sI6
Fnan
sI7
Fnan
sI8
Fnan
sI9
Fnan
sI10
Fnan
sI11
Fnan
sI12
Fnan
sI13
Fnan
sI14
Fnan
ssS'tabbyflag'
p46
(dp47
I0
g7
sI1
g8
sI2
g9
sI3
g10
sI4
g11
sI5
g12
sI6
g13
sI7
g14
sI8
g15
sI9
g16
sI10
g17
sI11
g18
sI12
g19
sI13
g20
sI14
g21
ssS'ref1err'
p48
(dp49
I0
F0.0036932629114165044
sI1
Fnan
sI2
Fnan
sI3
Fnan
sI4
Fnan
sI5
Fnan
sI6
Fnan
sI7
Fnan
sI8
Fnan
sI9
Fnan
sI10
Fnan
sI11
Fnan
sI12
Fnan
sI13
Fnan
sI14
Fnan
ssS'ref2magmeanerr'
p50
(dp51
I0
F0.03357975580613976
sI1
Fnan
sI2
Fnan
sI3
Fnan
sI4
Fnan
sI5
Fnan
sI6
Fnan
sI7
Fnan
sI8
Fnan
sI9
Fnan
sI10
Fnan
sI11
Fnan
sI12
Fnan
sI13
Fnan
sI14
Fnan
ssS'ref2rmsmean'
p52
(dp53
I0
F1.237346386666666
sI1
Fnan
sI2
Fnan
sI3
Fnan
sI4
Fnan
sI5
Fnan
sI6
Fnan
sI7
Fnan
sI8
Fnan
sI9
Fnan
sI10
Fnan
sI11
Fnan
sI12
Fnan
sI13
Fnan
sI14
Fnan
ssS'ref3rel'
p54
(dp55
I0
F1.5021540823374342
sI1
F1.4982302400025482
sI2
F1.5058564086387936
sI3
F1.5034568059696265
sI4
F1.4928592302144335
sI5
F1.4943791490063965
sI6
F1.5020476790968595
sI7
F1.492683035656188
sI8
F1.5132092046349301
sI9
F1.5020764079459776
sI10
F1.4966071957369962
sI11
F1.488999573526633
sI12
F1.5155513643760707
sI13
F1.5024731908274656
sI14
F1.5083463057648583
ssS'ref1flag'
p56
(dp57
I0
g7
sI1
g8
sI2
g9
sI3
g10
sI4
g11
sI5
g12
sI6
g13
sI7
g14
sI8
g15
sI9
g16
sI10
g17
sI11
g18
sI12
g19
sI13
g20
sI14
g21
ssS'ref2bkg'
p58
(dp59
I0
F16.19149
sI1
F17.85812
sI2
F17.42855
sI3
F18.16278
sI4
F16.9615
sI5
F17.54148
sI6
F16.67753
sI7
F15.9385
sI8
F18.21279
sI9
F16.17052
sI10
F16.56132
sI11
F16.3024
sI12
F17.28968
sI13
F19.46134
sI14
F17.39023
ssS'ref3magmean'
p60
(dp61
I0
F10.731866666666667
sI1
Fnan
sI2
Fnan
sI3
Fnan
sI4
Fnan
sI5
Fnan
sI6
Fnan
sI7
Fnan
sI8
Fnan
sI9
Fnan
sI10
Fnan
sI11
Fnan
sI12
Fnan
sI13
Fnan
sI14
Fnan
ssS'ref1mean'
p62
(dp63
I0
F0.695582376195045
sI1
Fnan
sI2
Fnan
sI3
Fnan
sI4
Fnan
sI5
Fnan
sI6
Fnan
sI7
Fnan
sI8
Fnan
sI9
Fnan
sI10
Fnan
sI11
Fnan
sI12
Fnan
sI13
Fnan
sI14
Fnan
ssS'ref1rms'
p64
(dp65
I0
F-2.905769
sI1
F3.272015
sI2
F3.045423
sI3
F-3.596694
sI4
F4.914532
sI5
F1.941861
sI6
F-2.993111
sI7
F-2.158067
sI8
F1.749498
sI9
F1.838177
sI10
F2.043382
sI11
F2.202101
sI12
F2.040372
sI13
F3.369273
sI14
F2.46357
ssS'ref2magmean'
p66
(dp67
I0
F11.072800000000003
sI1
Fnan
sI2
Fnan
sI3
Fnan
sI4
Fnan
sI5
Fnan
sI6
Fnan
sI7
Fnan
sI8
Fnan
sI9
Fnan
sI10
Fnan
sI11
Fnan
sI12
Fnan
sI13
Fnan
sI14
Fnan
ssS'ref2flag'
p68
(dp69
I0
g7
sI1
g8
sI2
g9
sI3
g10
sI4
g11
sI5
g12
sI6
g13
sI7
g14
sI8
g15
sI9
g16
sI10
g17
sI11
g18
sI12
g19
sI13
g20
sI14
g21
ssS'ref2'
p70
(dp71
I0
F9634.019999999999
sI1
F9193.140000000001
sI2
F9190.01
sI3
F9082.746666666668
sI4
F9661.173333333334
sI5
F9185.43
sI6
F9302.573333333334
sI7
F9808.69
sI8
F9248.493333333334
sI9
F9661.83
sI10
F9526.053333333333
sI11
F9693.943333333333
sI12
F9198.556666666667
sI13
F8796.933333333332
sI14
F9138.003333333332
ssS'airmass'
p72
(dp73
I0
F1.005557
sI1
F1.006059
sI2
F1.014724
sI3
F1.015225
sI4
F1.005416
sI5
F1.005406
sI6
F1.0058719999999999
sI7
F1.0137530000000001
sI8
F1.013287
sI9
F1.0057120000000002
sI10
F1.014233
sI11
F1.0058790000000002
sI12
F1.0055479999999999
sI13
F1.0057040000000002
sI14
F1.005276
ssS'ref1'
p74
(dp75
I0
F7962.026666666667
sI1
F7551.126666666666
sI2
F7591.036666666667
sI3
F7486.016666666666
sI4
F8007.556666666667
sI5
F7498.283333333334
sI6
F7627.9766666666665
sI7
F8120.876666666666
sI8
F7697.8966666666665
sI9
F7925.433333333333
sI10
F7853.866666666667
sI11
F7962.493333333333
sI12
F7489.046666666666
sI13
F7249.8133333333335
sI14
F7598.343333333333
ssS'ref3'
p76
(dp77
I0
F13215.986666666666
sI1
F12543.383333333333
sI2
F12634.923333333334
sI3
F12455.21
sI4
F13188.463333333335
sI5
F12465.896666666667
sI6
F12715.246666666668
sI7
F13381.58
sI8
F12821.716666666667
sI9
F13208.706666666667
sI10
F13005.456666666667
sI11
F13145.213333333335
sI12
F12645.46
sI13
F12054.903333333332
sI14
F12622.103333333333
ssS'ref1bkg'
p78
(dp79
I0
F15.45082
sI1
F16.7534
sI2
F15.93231
sI3
F17.79135
sI4
F14.98062
sI5
F16.85151
sI6
F16.77651
sI7
F15.16656
sI8
F17.23746
sI9
F15.76743
sI10
F16.10381
sI11
F14.60997
sI12
F16.36691
sI13
F18.58142
sI14
F16.46293
ssS'ref1mag'
p80
(dp81
I0
F11.247
sI1
F11.305
sI2
F11.299
sI3
F11.314
sI4
F11.241
sI5
F11.313
sI6
F11.294
sI7
F11.226
sI8
F11.284
sI9
F11.252
sI10
F11.262
sI11
F11.247
sI12
F11.314
sI13
F11.349
sI14
F11.298
ssS'ref3magerr'
p82
(dp83
I0
F0.002
sI1
F0.002
sI2
F0.002
sI3
F0.002
sI4
F0.002
sI5
F0.002
sI6
F0.002
sI7
F0.002
sI8
F0.002
sI9
F0.002
sI10
F0.002
sI11
F0.002
sI12
F0.002
sI13
F0.002
sI14
F0.002
ssS'tabbymagmean'
p84
(dp85
I0
F0.437556284121913
sI1
Fnan
sI2
Fnan
sI3
Fnan
sI4
Fnan
sI5
Fnan
sI6
Fnan
sI7
Fnan
sI8
Fnan
sI9
Fnan
sI10
Fnan
sI11
Fnan
sI12
Fnan
sI13
Fnan
sI14
Fnan
ssS'ref1magmean'
p86
(dp87
I0
F11.282999999999998
sI1
Fnan
sI2
Fnan
sI3
Fnan
sI4
Fnan
sI5
Fnan
sI6
Fnan
sI7
Fnan
sI8
Fnan
sI9
Fnan
sI10
Fnan
sI11
Fnan
sI12
Fnan
sI13
Fnan
sI14
Fnan
ssS'ref2mag'
p88
(dp89
I0
F11.04
sI1
F11.091
sI2
F11.092
sI3
F11.104
sI4
F11.037
sI5
F11.092
sI6
F11.078
sI7
F11.021
sI8
F11.085
sI9
F11.037
sI10
F11.053
sI11
F11.034
sI12
F11.091
sI13
F11.139
sI14
F11.098
ssS'ref3rms'
p90
(dp91
I0
F3.883745
sI1
F2.567242
sI2
F5.022076
sI3
F3.858272
sI4
F4.170563
sI5
F4.323589
sI6
F-1.593961
sI7
F3.8608
sI8
F3.675405
sI9
F2.787729
sI10
F3.946046
sI11
F3.401917
sI12
F3.928035
sI13
F4.164189
sI14
F3.087117
ssS'ref3magmeanerr'
p92
(dp93
I0
F0.03154558304301611
sI1
Fnan
sI2
Fnan
sI3
Fnan
sI4
Fnan
sI5
Fnan
sI6
Fnan
sI7
Fnan
sI8
Fnan
sI9
Fnan
sI10
Fnan
sI11
Fnan
sI12
Fnan
sI13
Fnan
sI14
Fnan
ssS'ref1rel'
p94
(dp95
I0
F0.6968949097316092
sI1
F0.6947869768195066
sI2
F0.6956297690103673
sI3
F0.6951464136105762
sI4
F0.7008913781415342
sI5
F0.6926396196199217
sI6
F0.6928911823846926
sI7
F0.7003693071850104
sI8
F0.6975825483007789
sI9
F0.6930692925002051
sI10
F0.6971451684034196
sI11
F0.6972668430401764
sI12
F0.6856840278916957
sI13
F0.6953644850789324
sI14
F0.6983737212072489
ssS'exposure'
p96
(dp97
I0
F30.0
sI1
F30.0
sI2
F30.0
sI3
F30.0
sI4
F30.0
sI5
F30.0
sI6
F30.0
sI7
F30.0
sI8
F30.0
sI9
F30.0
sI10
F30.0
sI11
F30.0
sI12
F30.0
sI13
F30.0
sI14
F30.0
ssS'ref1magerr'
p98
(dp99
I0
F0.002
sI1
F0.002
sI2
F0.002
sI3
F0.002
sI4
F0.002
sI5
F0.002
sI6
F0.002
sI7
F0.002
sI8
F0.002
sI9
F0.002
sI10
F0.002
sI11
F0.002
sI12
F0.002
sI13
F0.002
sI14
F0.002
ssS'ref2magerr'
p100
(dp101
I0
F0.002
sI1
F0.002
sI2
F0.002
sI3
F0.002
sI4
F0.002
sI5
F0.002
sI6
F0.002
sI7
F0.002
sI8
F0.002
sI9
F0.002
sI10
F0.002
sI11
F0.002
sI12
F0.002
sI13
F0.002
sI14
F0.002
ssS'ref2rms'
p102
(dp103
I0
F0.5729038
sI1
F4.280565
sI2
F5.322321
sI3
F4.463625
sI4
F-3.516597
sI5
F2.273244
sI6
F3.749311
sI7
F2.981077
sI8
F2.313273
sI9
F2.82408
sI10
F-3.020164
sI11
F-3.402498
sI12
F-1.880154
sI13
F4.266464
sI14
F-2.667255
ssS'name'
p104
(dp105
I0
S"KIC8462852-20180912at043137_-25-1X1-030-i'_cal.fts.mag.1"
p106
sI1
S"KIC8462852-20180912at043448_-25-1X1-030-i'_cal.fts.mag.1"
p107
sI2
S"KIC8462852-20180912at050148_-25-1X1-030-i'_cal.fts.mag.1"
p108
sI3
S"KIC8462852-20180912at050251_-25-1X1-030-i'_cal.fts.mag.1"
p109
sI4
S"KIC8462852-20180912at043031_-25-1X1-030-i'_cal.fts.mag.1"
p110
sI5
S"KIC8462852-20180912at040631_-25-1X1-030-i'_cal.fts.mag.1"
p111
sI6
S"KIC8462852-20180912at040317_-25-1X1-030-i'_cal.fts.mag.1"
p112
sI7
S"KIC8462852-20180912at045940_-25-1X1-030-i'_cal.fts.mag.1"
p113
sI8
S"KIC8462852-20180912at045835_-25-1X1-030-i'_cal.fts.mag.1"
p114
sI9
S"KIC8462852-20180912at043240_-25-1X1-030-i'_cal.fts.mag.1"
p115
sI10
S"KIC8462852-20180912at050044_-25-1X1-030-i'_cal.fts.mag.1"
p116
sI11
S"KIC8462852-20180912at043344_-25-1X1-030-i'_cal.fts.mag.1"
p117
sI12
S"KIC8462852-20180912at040527_-25-1X1-030-i'_cal.fts.mag.1"
p118
sI13
S"KIC8462852-20180912at040422_-25-1X1-030-i'_cal.fts.mag.1"
p119
sI14
S"KIC8462852-20180912at040735_-25-1X1-030-i'_cal.fts.mag.1"
p120
ssS'ref3err'
p121
(dp122
I0
F0.007556372961107701
sI1
Fnan
sI2
Fnan
sI3
Fnan
sI4
Fnan
sI5
Fnan
sI6
Fnan
sI7
Fnan
sI8
Fnan
sI9
Fnan
sI10
Fnan
sI11
Fnan
sI12
Fnan
sI13
Fnan
sI14
Fnan
ssS'tabby'
p123
(dp124
I0
F4505.11
sI1
F4243.3
sI2
F4299.663333333333
sI3
F4240.233333333334
sI4
F4537.203333333334
sI5
F4203.566666666667
sI6
F4328.093333333333
sI7
F4567.8966666666665
sI8
F4374.126666666666
sI9
F4483.683333333333
sI10
F4413.7733333333335
sI11
F4485.483333333334
sI12
F4305.756666666666
sI13
F4074.7933333333335
sI14
F4288.946666666667
ssS'ref1magmeanerr'
p125
(dp126
I0
F0.035124269184059635
sI1
Fnan
sI2
Fnan
sI3
Fnan
sI4
Fnan
sI5
Fnan
sI6
Fnan
sI7
Fnan
sI8
Fnan
sI9
Fnan
sI10
Fnan
sI11
Fnan
sI12
Fnan
sI13
Fnan
sI14
Fnan
ssS'filter'
p127
(dp128
I0
S"i'"
p129
sI1
S"i'"
p130
sI2
S"i'"
p131
sI3
S"i'"
p132
sI4
S"i'"
p133
sI5
S"i'"
p134
sI6
S"i'"
p135
sI7
S"i'"
p136
sI8
S"i'"
p137
sI9
S"i'"
p138
sI10
S"i'"
p139
sI11
S"i'"
p140
sI12
S"i'"
p141
sI13
S"i'"
p142
sI14
S"i'"
p143
ssS'tabbymagerr'
p144
(dp145
I0
F0.0023611305978352196
sI1
Fnan
sI2
Fnan
sI3
Fnan
sI4
Fnan
sI5
Fnan
sI6
Fnan
sI7
Fnan
sI8
Fnan
sI9
Fnan
sI10
Fnan
sI11
Fnan
sI12
Fnan
sI13
Fnan
sI14
Fnan
ssS'tabbyrms'
p146
(dp147
I0
F3.843046
sI1
F-2.102057
sI2
F4.373245
sI3
F3.337374
sI4
F2.179732
sI5
F2.406983
sI6
F2.585983
sI7
F4.151552
sI8
F2.868258
sI9
F-0.6193733
sI10
F2.842263
sI11
F3.580646
sI12
F3.477405
sI13
F3.763035
sI14
F1.486868
ssS'ref3mean'
p148
(dp149
I0
F1.5012619915823473
sI1
Fnan
sI2
Fnan
sI3
Fnan
sI4
Fnan
sI5
Fnan
sI6
Fnan
sI7
Fnan
sI8
Fnan
sI9
Fnan
sI10
Fnan
sI11
Fnan
sI12
Fnan
sI13
Fnan
sI14
Fnan
ssS'median_JD'
p150
(dp151
I0
F2458373.689351852
sI1
Fnan
sI2
Fnan
sI3
Fnan
sI4
Fnan
sI5
Fnan
sI6
Fnan
sI7
Fnan
sI8
Fnan
sI9
Fnan
sI10
Fnan
sI11
Fnan
sI12
Fnan
sI13
Fnan
sI14
Fnan
ssS'error'
p152
(dp153
I0
F0.0023611305978352196
sI1
Fnan
sI2
Fnan
sI3
Fnan
sI4
Fnan
sI5
Fnan
sI6
Fnan
sI7
Fnan
sI8
Fnan
sI9
Fnan
sI10
Fnan
sI11
Fnan
sI12
Fnan
sI13
Fnan
sI14
Fnan
ssS'ref3bkg'
p154
(dp155
I0
F17.75614
sI1
F21.62115
sI2
F19.24322
sI3
F20.89964
sI4
F17.36334
sI5
F20.75396
sI6
F19.18816
sI7
F16.32248
sI8
F20.36922
sI9
F17.66346
sI10
F17.26102
sI11
F18.47277
sI12
F18.68863
sI13
F22.47207
sI14
F20.39412
ssS'ref3mag'
p156
(dp157
I0
F10.697
sI1
F10.754
sI2
F10.746
sI3
F10.762
sI4
F10.7
sI5
F10.761
sI6
F10.739
sI7
F10.684
sI8
F10.73
sI9
F10.698
sI10
F10.715
sI11
F10.703
sI12
F10.745
sI13
F10.797
sI14
F10.747
ssS'mean'
p158
(dp159
I0
F0.437556284121913
sI1
Fnan
sI2
Fnan
sI3
Fnan
sI4
Fnan
sI5
Fnan
sI6
Fnan
sI7
Fnan
sI8
Fnan
sI9
Fnan
sI10
Fnan
sI11
Fnan
sI12
Fnan
sI13
Fnan
sI14
Fnan
sssS'r'
p160
(dp161
g3
(dp162
I0
F0.5479667600074952
sI1
Fnan
sI2
Fnan
sI3
Fnan
sI4
Fnan
sI5
Fnan
sI6
Fnan
sI7
Fnan
sI8
Fnan
sI9
Fnan
sI10
Fnan
sI11
Fnan
sI12
Fnan
sI13
Fnan
sI14
Fnan
ssg5
(dp163
I0
S'NoError'
p164
sI1
S'NoError'
p165
sI2
S'NoError'
p166
sI3
S'NoError'
p167
sI4
S'NoError'
p168
sI5
S'NoError'
p169
sI6
S'NoError'
p170
sI7
S'NoError'
p171
sI8
S'NoError'
p172
sI9
S'NoError'
p173
sI10
S'NoError'
p174
sI11
S'NoError'
p175
sI12
S'NoError'
p176
sI13
S'NoError'
p177
sI14
S'NoError'
p178
ssg22
(dp179
I0
F0.002
sI1
F0.002
sI2
F0.002
sI3
F0.002
sI4
F0.002
sI5
F0.002
sI6
F0.003
sI7
F0.002
sI8
F0.002
sI9
F0.002
sI10
F0.002
sI11
F0.002
sI12
F0.002
sI13
F0.002
sI14
F0.002
ssg24
(dp180
I0
F0.8913168866365426
sI1
F0.8870301970800372
sI2
F0.8960916354234002
sI3
F0.8928411806707246
sI4
F0.8840873012938131
sI5
F0.9011201514151814
sI6
F0.8896878955383345
sI7
F0.8961678097143182
sI8
F0.8982073823465843
sI9
F0.8963448307424753
sI10
F0.896358205189246
sI11
F0.8980489593257074
sI12
F0.8923201308496878
sI13
F0.8947864832274469
sI14
F0.897602537658708
ssg26
(dp181
I0
F0.004590762275341879
sI1
Fnan
sI2
Fnan
sI3
Fnan
sI4
Fnan
sI5
Fnan
sI6
Fnan
sI7
Fnan
sI8
Fnan
sI9
Fnan
sI10
Fnan
sI11
Fnan
sI12
Fnan
sI13
Fnan
sI14
Fnan
ssg28
(dp182
I0
F0.8941341058074805
sI1
Fnan
sI2
Fnan
sI3
Fnan
sI4
Fnan
sI5
Fnan
sI6
Fnan
sI7
Fnan
sI8
Fnan
sI9
Fnan
sI10
Fnan
sI11
Fnan
sI12
Fnan
sI13
Fnan
sI14
Fnan
ssg30
(dp183
I0
F11.141
sI1
F11.16
sI2
F11.174
sI3
F11.135
sI4
F11.263
sI5
F11.218
sI6
F11.518
sI7
F11.137
sI8
F11.18
sI9
F11.236
sI10
F11.178
sI11
F11.148
sI12
F11.188
sI13
F11.174
sI14
F11.192
ssg32
(dp184
I0
F15.91478
sI1
F15.22643
sI2
F15.89488
sI3
F14.46575
sI4
F17.98758
sI5
F16.20216
sI6
F19.5424
sI7
F15.57498
sI8
F15.68466
sI9
F17.67126
sI10
F15.06293
sI11
F14.67457
sI12
F16.15568
sI13
F16.71173
sI14
F14.87665
ssg34
(dp185
I0
F2458373.686342593
sI1
F2458373.6682175924
sI2
F2458373.685590278
sI3
F2458373.7036689813
sI4
F2458373.6870717593
sI5
F2458373.667465278
sI6
F2458373.7044097222
sI7
F2458373.7058912036
sI8
F2458373.705150463
sI9
F2458373.6652546297
sI10
F2458373.684108796
sI11
F2458373.684849537
sI12
F2458373.6659953706
sI13
F2458373.7066203705
sI14
F2458373.666724537
ssg36
(dp186
I0
F4.219570133333333
sI1
Fnan
sI2
Fnan
sI3
Fnan
sI4
Fnan
sI5
Fnan
sI6
Fnan
sI7
Fnan
sI8
Fnan
sI9
Fnan
sI10
Fnan
sI11
Fnan
sI12
Fnan
sI13
Fnan
sI14
Fnan
ssg38
(dp187
I0
F4.000884666666667
sI1
Fnan
sI2
Fnan
sI3
Fnan
sI4
Fnan
sI5
Fnan
sI6
Fnan
sI7
Fnan
sI8
Fnan
sI9
Fnan
sI10
Fnan
sI11
Fnan
sI12
Fnan
sI13
Fnan
sI14
Fnan
ssg40
(dp188
I0
F0.5489433310188698
sI1
F0.5455989890989389
sI2
F0.5476301235222891
sI3
F0.5511089309809275
sI4
F0.5489989693507143
sI5
F0.5486174897074861
sI6
F0.5400513604583272
sI7
F0.5512743805008395
sI8
F0.5492338611465242
sI9
F0.5449183492561106
sI10
F0.5492594416969772
sI11
F0.5493316709426082
sI12
F0.5532425313179209
sI13
F0.54502286962085
sI14
F0.543629473254303
ssg42
(dp189
I0
F0.002335129042202413
sI1
Fnan
sI2
Fnan
sI3
Fnan
sI4
Fnan
sI5
Fnan
sI6
Fnan
sI7
Fnan
sI8
Fnan
sI9
Fnan
sI10
Fnan
sI11
Fnan
sI12
Fnan
sI13
Fnan
sI14
Fnan
ssg44
(dp190
I0
F2.4179732666666665
sI1
Fnan
sI2
Fnan
sI3
Fnan
sI4
Fnan
sI5
Fnan
sI6
Fnan
sI7
Fnan
sI8
Fnan
sI9
Fnan
sI10
Fnan
sI11
Fnan
sI12
Fnan
sI13
Fnan
sI14
Fnan
ssg46
(dp191
I0
g164
sI1
g165
sI2
g166
sI3
g167
sI4
g168
sI5
g169
sI6
g170
sI7
g171
sI8
g172
sI9
g173
sI10
g174
sI11
g175
sI12
g176
sI13
g177
sI14
g178
ssg48
(dp192
I0
F0.00413183758503516
sI1
Fnan
sI2
Fnan
sI3
Fnan
sI4
Fnan
sI5
Fnan
sI6
Fnan
sI7
Fnan
sI8
Fnan
sI9
Fnan
sI10
Fnan
sI11
Fnan
sI12
Fnan
sI13
Fnan
sI14
Fnan
ssg50
(dp193
I0
F0.09158358139400524
sI1
Fnan
sI2
Fnan
sI3
Fnan
sI4
Fnan
sI5
Fnan
sI6
Fnan
sI7
Fnan
sI8
Fnan
sI9
Fnan
sI10
Fnan
sI11
Fnan
sI12
Fnan
sI13
Fnan
sI14
Fnan
ssg52
(dp194
I0
F4.231547733333334
sI1
Fnan
sI2
Fnan
sI3
Fnan
sI4
Fnan
sI5
Fnan
sI6
Fnan
sI7
Fnan
sI8
Fnan
sI9
Fnan
sI10
Fnan
sI11
Fnan
sI12
Fnan
sI13
Fnan
sI14
Fnan
ssg54
(dp195
I0
F1.4973977742119333
sI1
F1.502921524128531
sI2
F1.5081345273344622
sI3
F1.4899794105512854
sI4
F1.5147608853472183
sI5
F1.4976158882209611
sI6
F1.5169990003289153
sI7
F1.489375587100955
sI8
F1.489543940280383
sI9
F1.4988178069522589
sI10
F1.4980314094474747
sI11
F1.4922791653683893
sI12
F1.5048239051041108
sI13
F1.4958450845216171
sI14
F1.5000386135465409
ssg56
(dp196
I0
g164
sI1
g165
sI2
g166
sI3
g167
sI4
g168
sI5
g169
sI6
g170
sI7
g171
sI8
g172
sI9
g173
sI10
g174
sI11
g175
sI12
g176
sI13
g177
sI14
g178
ssg58
(dp197
I0
F17.73102
sI1
F17.85915
sI2
F18.53087
sI3
F18.09894
sI4
F19.10157
sI5
F20.40708
sI6
F20.53376
sI7
F18.40012
sI8
F20.73577
sI9
F22.14097
sI10
F17.83745
sI11
F17.14014
sI12
F20.02252
sI13
F17.98276
sI14
F19.01144
ssg60
(dp198
I0
F10.276599999999998
sI1
Fnan
sI2
Fnan
sI3
Fnan
sI4
Fnan
sI5
Fnan
sI6
Fnan
sI7
Fnan
sI8
Fnan
sI9
Fnan
sI10
Fnan
sI11
Fnan
sI12
Fnan
sI13
Fnan
sI14
Fnan
ssg62
(dp199
I0
F0.7119575942228585
sI1
Fnan
sI2
Fnan
sI3
Fnan
sI4
Fnan
sI5
Fnan
sI6
Fnan
sI7
Fnan
sI8
Fnan
sI9
Fnan
sI10
Fnan
sI11
Fnan
sI12
Fnan
sI13
Fnan
sI14
Fnan
ssg64
(dp200
I0
F2.038716
sI1
F4.168759
sI2
F2.489293
sI3
F-1.780531
sI4
F8.061643
sI5
F4.31538
sI6
F16.22764
sI7
F1.554458
sI8
F3.294056
sI9
F3.73386
sI10
F2.7406
sI11
F2.326632
sI12
F4.067274
sI13
F3.38991
sI14
F3.38558
ssg66
(dp201
I0
F10.631866666666667
sI1
Fnan
sI2
Fnan
sI3
Fnan
sI4
Fnan
sI5
Fnan
sI6
Fnan
sI7
Fnan
sI8
Fnan
sI9
Fnan
sI10
Fnan
sI11
Fnan
sI12
Fnan
sI13
Fnan
sI14
Fnan
ssg68
(dp202
I0
g164
sI1
g165
sI2
g166
sI3
g167
sI4
g168
sI5
g169
sI6
g170
sI7
g171
sI8
g172
sI9
g173
sI10
g174
sI11
g175
sI12
g176
sI13
g177
sI14
g178
ssg70
(dp203
I0
F14796.423333333334
sI1
F14572.593333333332
sI2
F14440.143333333333
sI3
F14842.69
sI4
F13149.109999999999
sI5
F13889.586666666666
sI6
F10611.583333333334
sI7
F14840.99
sI8
F14344.403333333332
sI9
F13709.803333333333
sI10
F14351.933333333332
sI11
F14766.713333333335
sI12
F14064.390000000001
sI13
F14500.723333333333
sI14
F14320.183333333332
ssg72
(dp204
I0
F1.005155
sI1
F1.0060559999999998
sI2
F1.00505
sI3
F1.0111350000000001
sI4
F1.0052709999999998
sI5
F1.006246
sI6
F1.011536
sI7
F1.012386
sI8
F1.01196
sI9
F1.006893
sI10
F1.004872
sI11
F1.004956
sI12
F1.006667
sI13
F1.012821
sI14
F1.006451
ssg74
(dp205
I0
F12651.233333333334
sI1
F12507.45
sI2
F12166.196666666667
sI3
F12716.733333333334
sI4
F11259.543333333333
sI5
F11680.383333333333
sI6
F8988.196666666667
sI7
F12649.313333333334
sI8
F12183.116666666667
sI9
F11613.19
sI10
F12162.806666666667
sI11
F12523.730000000001
sI12
F11949.803333333333
sI13
F12338.17
sI14
F12095.416666666666
ssg76
(dp206
I0
F20550.030000000002
sI1
F20349.59
sI2
F20062.969999999998
sI3
F20531.486666666668
sI4
F18486.636666666665
sI5
F19146.996666666666
sI6
F14866.423333333334
sI7
F20471.693333333336
sI8
F19756.95333333333
sI9
F18977.27666666667
sI10
F19859.956666666665
sI11
F20362.48
sI12
F19573.39
sI13
F20073.413333333334
sI14
F19812.210000000003
ssg78
(dp207
I0
F17.78605
sI1
F16.70224
sI2
F18.42375
sI3
F15.05729
sI4
F17.51523
sI5
F18.6059
sI6
F22.00746
sI7
F16.75411
sI8
F18.76646
sI9
F19.48473
sI10
F17.62797
sI11
F16.68522
sI12
F19.11241
sI13
F17.0579
sI14
F17.649
ssg80
(dp208
I0
F10.745
sI1
F10.757
sI2
F10.787
sI3
F10.739
sI4
F10.871
sI5
F10.831
sI6
F11.116
sI7
F10.745
sI8
F10.786
sI9
F10.838
sI10
F10.787
sI11
F10.756
sI12
F10.807
sI13
F10.772
sI14
F10.793
ssg82
(dp209
I0
F0.001
sI1
F0.001
sI2
F0.001
sI3
F0.001
sI4
F0.001
sI5
F0.001
sI6
F0.002
sI7
F0.001
sI8
F0.001
sI9
F0.001
sI10
F0.001
sI11
F0.001
sI12
F0.001
sI13
F0.001
sI14
F0.001
ssg84
(dp210
I0
F0.547790784791579
sI1
Fnan
sI2
Fnan
sI3
Fnan
sI4
Fnan
sI5
Fnan
sI6
Fnan
sI7
Fnan
sI8
Fnan
sI9
Fnan
sI10
Fnan
sI11
Fnan
sI12
Fnan
sI13
Fnan
sI14
Fnan
ssg86
(dp211
I0
F10.808666666666666
sI1
Fnan
sI2
Fnan
sI3
Fnan
sI4
Fnan
sI5
Fnan
sI6
Fnan
sI7
Fnan
sI8
Fnan
sI9
Fnan
sI10
Fnan
sI11
Fnan
sI12
Fnan
sI13
Fnan
sI14
Fnan
ssg88
(dp212
I0
F10.575
sI1
F10.591
sI2
F10.601
sI3
F10.571
sI4
F10.703
sI5
F10.643
sI6
F10.936
sI7
F10.571
sI8
F10.608
sI9
F10.657
sI10
F10.608
sI11
F10.577
sI12
F10.63
sI13
F10.597
sI14
F10.61
ssg90
(dp213
I0
F2.620039
sI1
F-2.925269
sI2
F4.560862
sI3
F3.539111
sI4
F7.50053
sI5
F4.710921
sI6
F17.94267
sI7
F3.651987
sI8
F3.917191
sI9
F4.070354
sI10
F2.448436
sI11
F2.109746
sI12
F4.739444
sI13
F6.571414
sI14
F-2.163884
ssg92
(dp214
I0
F0.08758979066404647
sI1
Fnan
sI2
Fnan
sI3
Fnan
sI4
Fnan
sI5
Fnan
sI6
Fnan
sI7
Fnan
sI8
Fnan
sI9
Fnan
sI10
Fnan
sI11
Fnan
sI12
Fnan
sI13
Fnan
sI14
Fnan
ssg94
(dp215
I0
F0.7158417402745546
sI1
F0.7163040111562327
sI2
F0.7052231228602174
sI3
F0.7189839895449157
sI4
F0.7118240926614239
sI5
F0.7071181190548862
sI6
F0.7055651397113484
sI7
F0.7164175666816597
sI8
F0.714523869871453
sI9
F0.7105676004097031
sI10
F0.7110280470717442
sI11
F0.7130098252564486
sI12
F0.7104989290811304
sI13
F0.713722521487883
sI14
F0.7087353382192751
ssg96
(dp216
I0
F30.0
sI1
F30.0
sI2
F30.0
sI3
F30.0
sI4
F30.0
sI5
F30.0
sI6
F30.0
sI7
F30.0
sI8
F30.0
sI9
F30.0
sI10
F30.0
sI11
F30.0
sI12
F30.0
sI13
F30.0
sI14
F30.0
ssg98
(dp217
I0
F0.002
sI1
F0.002
sI2
F0.002
sI3
F0.002
sI4
F0.002
sI5
F0.002
sI6
F0.002
sI7
F0.002
sI8
F0.002
sI9
F0.002
sI10
F0.002
sI11
F0.002
sI12
F0.002
sI13
F0.002
sI14
F0.002
ssg100
(dp218
I0
F0.001
sI1
F0.002
sI2
F0.002
sI3
F0.001
sI4
F0.002
sI5
F0.002
sI6
F0.002
sI7
F0.001
sI8
F0.002
sI9
F0.002
sI10
F0.002
sI11
F0.001
sI12
F0.002
sI13
F0.002
sI14
F0.002
ssg102
(dp219
I0
F4.518896
sI1
F3.461797
sI2
F4.920259
sI3
F-2.934427
sI4
F8.225199
sI5
F3.72146
sI6
F13.91472
sI7
F-2.182756
sI8
F2.167093
sI9
F4.584967
sI10
F5.272223
sI11
F4.304626
sI12
F4.067428
sI13
F6.38294
sI14
F3.048791
ssg104
(dp220
I0
S"KIC8462852-20180912at042820_-25-1X1-030-r'_cal.fts.mag.1"
p221
sI1
S"KIC8462852-20180912at040213_-25-1X1-030-r'_cal.fts.mag.1"
p222
sI2
S"KIC8462852-20180912at042715_-25-1X1-030-r'_cal.fts.mag.1"
p223
sI3
S"KIC8462852-20180912at045316_-25-1X1-030-r'_cal.fts.mag.1"
p224
sI4
S"KIC8462852-20180912at042923_-25-1X1-030-r'_cal.fts.mag.1"
p225
sI5
S"KIC8462852-20180912at040109_-25-1X1-030-r'_cal.fts.mag.1"
p226
sI6
S"KIC8462852-20180912at045421_-25-1X1-030-r'_cal.fts.mag.1"
p227
sI7
S"KIC8462852-20180912at045629_-25-1X1-030-r'_cal.fts.mag.1"
p228
sI8
S"KIC8462852-20180912at045525_-25-1X1-030-r'_cal.fts.mag.1"
p229
sI9
S"KIC8462852-20180912at035757_-25-1X1-030-r'_cal.fts.mag.1"
p230
sI10
S"KIC8462852-20180912at042505_-25-1X1-030-r'_cal.fts.mag.1"
p231
sI11
S"KIC8462852-20180912at042611_-25-1X1-030-r'_cal.fts.mag.1"
p232
sI12
S"KIC8462852-20180912at035902_-25-1X1-030-r'_cal.fts.mag.1"
p233
sI13
S"KIC8462852-20180912at045731_-25-1X1-030-r'_cal.fts.mag.1"
p234
sI14
S"KIC8462852-20180912at040005_-25-1X1-030-r'_cal.fts.mag.1"
p235
ssg121
(dp236
I0
F0.008540922327126327
sI1
Fnan
sI2
Fnan
sI3
Fnan
sI4
Fnan
sI5
Fnan
sI6
Fnan
sI7
Fnan
sI8
Fnan
sI9
Fnan
sI10
Fnan
sI11
Fnan
sI12
Fnan
sI13
Fnan
sI14
Fnan
ssg123
(dp237
I0
F8782.67
sI1
F8625.853333333334
sI2
F8519.173333333334
sI3
F8834.443333333333
sI4
F7849.823333333334
sI5
F8177.503333333333
sI6
F6204.506666666667
sI7
F8813.406666666668
sI8
F8473.666666666666
sI9
F8046.676666666666
sI10
F8490.58
sI11
F8725.753333333334
sI12
F8406.996666666666
sI13
F8522.76
sI14
F8376.933333333332
ssg125
(dp238
I0
F0.09302355052555746
sI1
Fnan
sI2
Fnan
sI3
Fnan
sI4
Fnan
sI5
Fnan
sI6
Fnan
sI7
Fnan
sI8
Fnan
sI9
Fnan
sI10
Fnan
sI11
Fnan
sI12
Fnan
sI13
Fnan
sI14
Fnan
ssg127
(dp239
I0
S"r'"
p240
sI1
S"r'"
p241
sI2
S"r'"
p242
sI3
S"r'"
p243
sI4
S"r'"
p244
sI5
S"r'"
p245
sI6
S"r'"
p246
sI7
S"r'"
p247
sI8
S"r'"
p248
sI9
S"r'"
p249
sI10
S"r'"
p250
sI11
S"r'"
p251
sI12
S"r'"
p252
sI13
S"r'"
p253
sI14
S"r'"
p254
ssg144
(dp255
I0
F0.0033902124160400697
sI1
Fnan
sI2
Fnan
sI3
Fnan
sI4
Fnan
sI5
Fnan
sI6
Fnan
sI7
Fnan
sI8
Fnan
sI9
Fnan
sI10
Fnan
sI11
Fnan
sI12
Fnan
sI13
Fnan
sI14
Fnan
ssg146
(dp256
I0
F-3.598031
sI1
F2.730865
sI2
F3.909794
sI3
F3.227544
sI4
F5.89132
sI5
F2.826667
sI6
F8.029803
sI7
F-2.559353
sI8
F2.619414
sI9
F4.438743
sI10
F3.382001
sI11
F-2.468077
sI12
F3.69432
sI13
F1.083278
sI14
F3.061311
ssg148
(dp257
I0
F1.4997709681630023
sI1
Fnan
sI2
Fnan
sI3
Fnan
sI4
Fnan
sI5
Fnan
sI6
Fnan
sI7
Fnan
sI8
Fnan
sI9
Fnan
sI10
Fnan
sI11
Fnan
sI12
Fnan
sI13
Fnan
sI14
Fnan
ssg150
(dp258
I0
F2458373.685590278
sI1
Fnan
sI2
Fnan
sI3
Fnan
sI4
Fnan
sI5
Fnan
sI6
Fnan
sI7
Fnan
sI8
Fnan
sI9
Fnan
sI10
Fnan
sI11
Fnan
sI12
Fnan
sI13
Fnan
sI14
Fnan
ssg152
(dp259
I0
F0.0033902124160400697
sI1
Fnan
sI2
Fnan
sI3
Fnan
sI4
Fnan
sI5
Fnan
sI6
Fnan
sI7
Fnan
sI8
Fnan
sI9
Fnan
sI10
Fnan
sI11
Fnan
sI12
Fnan
sI13
Fnan
sI14
Fnan
ssg154
(dp260
I0
F21.50745
sI1
F21.05503
sI2
F22.41764
sI3
F20.30081
sI4
F20.9212
sI5
F25.51028
sI6
F24.71975
sI7
F20.15084
sI8
F23.44339
sI9
F24.71455
sI10
F21.95689
sI11
F20.00188
sI12
F22.8062
sI13
F20.21246
sI14
F23.08715
ssg156
(dp261
I0
F10.218
sI1
F10.229
sI2
F10.244
sI3
F10.219
sI4
F10.333
sI5
F10.295
sI6
F10.569
sI7
F10.222
sI8
F10.261
sI9
F10.304
sI10
F10.255
sI11
F10.228
sI12
F10.271
sI13
F10.243
sI14
F10.258
ssg158
(dp262
I0
F0.547790784791579
sI1
Fnan
sI2
Fnan
sI3
Fnan
sI4
Fnan
sI5
Fnan
sI6
Fnan
sI7
Fnan
sI8
Fnan
sI9
Fnan
sI10
Fnan
sI11
Fnan
sI12
Fnan
sI13
Fnan
sI14
Fnan
sssS'z'
p263
(dp264
g3
(dp265
I0
F0.36756798125917717
sI1
Fnan
sI2
Fnan
sI3
Fnan
sI4
Fnan
sI5
Fnan
sI6
Fnan
sI7
Fnan
sI8
Fnan
sI9
Fnan
sI10
Fnan
sI11
Fnan
sI12
Fnan
sI13
Fnan
ssg5
(dp266
I0
S'NoError'
p267
sI1
S'NoError'
p268
sI2
S'NoError'
p269
sI3
S'NoError'
p270
sI4
S'NoError'
p271
sI5
S'NoError'
p272
sI6
S'NoError'
p273
sI7
S'NoError'
p274
sI8
S'NoError'
p275
sI9
S'NoError'
p276
sI10
S'NoError'
p277
sI11
S'NoError'
p278
sI12
S'NoError'
p279
sI13
S'NoError'
p280
ssg22
(dp281
I0
F0.007
sI1
F0.007
sI2
F0.007
sI3
F0.007
sI4
F0.007
sI5
F0.007
sI6
F0.007
sI7
F0.007
sI8
F0.007
sI9
F0.007
sI10
F0.007
sI11
F0.007
sI12
F0.007
sI13
F0.008
ssg24
(dp282
I0
F0.911239463599414
sI1
F0.9160537698948051
sI2
F0.9145357727508574
sI3
F0.9082858894227257
sI4
F0.9114646866729451
sI5
F0.9230180453575705
sI6
F0.912096785048202
sI7
F0.9127174347395025
sI8
F0.9212183216971915
sI9
F0.9157628739402057
sI10
F0.9180388570984513
sI11
F0.9144007638728923
sI12
F0.916079085111274
sI13
F0.9167009891498965
ssg26
(dp283
I0
F0.0039583247416293274
sI1
Fnan
sI2
Fnan
sI3
Fnan
sI4
Fnan
sI5
Fnan
sI6
Fnan
sI7
Fnan
sI8
Fnan
sI9
Fnan
sI10
Fnan
sI11
Fnan
sI12
Fnan
sI13
Fnan
ssg28
(dp284
I0
F0.9151151955968526
sI1
Fnan
sI2
Fnan
sI3
Fnan
sI4
Fnan
sI5
Fnan
sI6
Fnan
sI7
Fnan
sI8
Fnan
sI9
Fnan
sI10
Fnan
sI11
Fnan
sI12
Fnan
sI13
Fnan
ssg30
(dp285
I0
F13.268
sI1
F13.278
sI2
F13.275
sI3
F13.271
sI4
F13.293
sI5
F13.293
sI6
F13.285
sI7
F13.292
sI8
F13.293
sI9
F13.243
sI10
F13.279
sI11
F13.236
sI12
F13.309
sI13
F13.406
ssg32
(dp286
I0
F10.79211
sI1
F10.64889
sI2
F10.43426
sI3
F9.731252
sI4
F11.10016
sI5
F11.5341
sI6
F10.76165
sI7
F10.32506
sI8
F10.04649
sI9
F11.10073
sI10
F10.72435
sI11
F10.21039
sI12
F10.63721
sI13
F10.89782
ssg34
(dp287
I0
F2458373.694537037
sI1
F2458373.7110648146
sI2
F2458373.673425926
sI3
F2458373.675648148
sI4
F2458373.692326389
sI5
F2458373.6930555557
sI6
F2458373.6915856483
sI7
F2458373.6749074073
sI8
F2458373.672685185
sI9
F2458373.7125462964
sI10
F2458373.693796296
sI11
F2458373.7118171295
sI12
F2458373.674166667
sI13
F2458373.7132986113
ssg36
(dp288
I0
F1.1051312142857141
sI1
Fnan
sI2
Fnan
sI3
Fnan
sI4
Fnan
sI5
Fnan
sI6
Fnan
sI7
Fnan
sI8
Fnan
sI9
Fnan
sI10
Fnan
sI11
Fnan
sI12
Fnan
sI13
Fnan
ssg38
(dp289
I0
F1.9107985
sI1
Fnan
sI2
Fnan
sI3
Fnan
sI4
Fnan
sI5
Fnan
sI6
Fnan
sI7
Fnan
sI8
Fnan
sI9
Fnan
sI10
Fnan
sI11
Fnan
sI12
Fnan
sI13
Fnan
ssg40
(dp290
I0
F0.3681763100549196
sI1
F0.36857098632308377
sI2
F0.37254911330954743
sI3
F0.37453772497249843
sI4
F0.3640548587999871
sI5
F0.36503288524744504
sI6
F0.368893386833582
sI7
F0.37144994219173527
sI8
F0.3701215486025226
sI9
F0.3636156059502599
sI10
F0.36532551363941695
sI11
F0.3678089330883758
sI12
F0.3618550209769502
sI13
F0.36521669106925014
ssg42
(dp291
I0
F0.002806838116282088
sI1
Fnan
sI2
Fnan
sI3
Fnan
sI4
Fnan
sI5
Fnan
sI6
Fnan
sI7
Fnan
sI8
Fnan
sI9
Fnan
sI10
Fnan
sI11
Fnan
sI12
Fnan
sI13
Fnan
ssg44
(dp292
I0
F1.2514492857142858
sI1
Fnan
sI2
Fnan
sI3
Fnan
sI4
Fnan
sI5
Fnan
sI6
Fnan
sI7
Fnan
sI8
Fnan
sI9
Fnan
sI10
Fnan
sI11
Fnan
sI12
Fnan
sI13
Fnan
ssg46
(dp293
I0
g267
sI1
g268
sI2
g269
sI3
g270
sI4
g271
sI5
g272
sI6
g273
sI7
g274
sI8
g275
sI9
g276
sI10
g277
sI11
g278
sI12
g279
sI13
g280
ssg48
(dp294
I0
F0.005984775320574352
sI1
Fnan
sI2
Fnan
sI3
Fnan
sI4
Fnan
sI5
Fnan
sI6
Fnan
sI7
Fnan
sI8
Fnan
sI9
Fnan
sI10
Fnan
sI11
Fnan
sI12
Fnan
sI13
Fnan
ssg50
(dp295
I0
F0.038320510675897146
sI1
Fnan
sI2
Fnan
sI3
Fnan
sI4
Fnan
sI5
Fnan
sI6
Fnan
sI7
Fnan
sI8
Fnan
sI9
Fnan
sI10
Fnan
sI11
Fnan
sI12
Fnan
sI13
Fnan
ssg52
(dp296
I0
F0.6896041642857144
sI1
Fnan
sI2
Fnan
sI3
Fnan
sI4
Fnan
sI5
Fnan
sI6
Fnan
sI7
Fnan
sI8
Fnan
sI9
Fnan
sI10
Fnan
sI11
Fnan
sI12
Fnan
sI13
Fnan
ssg54
(dp297
I0
F1.5093010442250687
sI1
F1.5180118080421772
sI2
F1.4929868494537464
sI3
F1.5171405362265165
sI4
F1.5187527027225796
sI5
F1.4876785700503972
sI6
F1.498214433333494
sI7
F1.5070182406222012
sI8
F1.493548757700283
sI9
F1.5254152098835843
sI10
F1.515014271169095
sI11
F1.5149023036158478
sI12
F1.506245206303443
sI13
F1.5153675775027315
ssg56
(dp298
I0
g267
sI1
g268
sI2
g269
sI3
g270
sI4
g271
sI5
g272
sI6
g273
sI7
g274
sI8
g275
sI9
g276
sI10
g277
sI11
g278
sI12
g279
sI13
g280
ssg58
(dp299
I0
F11.79869
sI1
F11.85888
sI2
F11.53505
sI3
F11.10187
sI4
F11.94893
sI5
F11.39627
sI6
F12.70229
sI7
F11.53421
sI8
F12.2534
sI9
F11.22318
sI10
F12.30761
sI11
F10.73625
sI12
F11.14793
sI13
F13.2512
ssg60
(dp300
I0
F11.9245
sI1
Fnan
sI2
Fnan
sI3
Fnan
sI4
Fnan
sI5
Fnan
sI6
Fnan
sI7
Fnan
sI8
Fnan
sI9
Fnan
sI10
Fnan
sI11
Fnan
sI12
Fnan
sI13
Fnan
ssg62
(dp301
I0
F0.6886299092864882
sI1
Fnan
sI2
Fnan
sI3
Fnan
sI4
Fnan
sI5
Fnan
sI6
Fnan
sI7
Fnan
sI8
Fnan
sI9
Fnan
sI10
Fnan
sI11
Fnan
sI12
Fnan
sI13
Fnan
ssg64
(dp302
I0
F3.352082
sI1
F-2.380275
sI2
F-3.674935
sI3
F3.636844
sI4
F2.367674
sI5
F2.669853
sI6
F4.421808
sI7
F3.597727
sI8
F4.304233
sI9
F2.530609
sI10
F-1.677673
sI11
F2.12235
sI12
F1.73679
sI13
F3.744092
ssg66
(dp303
I0
F12.266000000000002
sI1
Fnan
sI2
Fnan
sI3
Fnan
sI4
Fnan
sI5
Fnan
sI6
Fnan
sI7
Fnan
sI8
Fnan
sI9
Fnan
sI10
Fnan
sI11
Fnan
sI12
Fnan
sI13
Fnan
ssg68
(dp304
I0
g267
sI1
g268
sI2
g269
sI3
g270
sI4
g271
sI5
g272
sI6
g273
sI7
g274
sI8
g275
sI9
g276
sI10
g277
sI11
g278
sI12
g279
sI13
g280
ssg70
(dp305
I0
F3158.5183333333334
sI1
F3137.6223333333332
sI2
F3107.998
sI3
F3088.4726666666666
sI4
F3120.5539999999996
sI5
F3139.3926666666666
sI6
F3105.8803333333335
sI7
F3066.348
sI8
F3094.199
sI9
F3282.391
sI10
F3166.053
sI11
F3263.0226666666663
sI12
F3106.2896666666666
sI13
F2814.034
ssg72
(dp306
I0
F1.007142
sI1
F1.015758
sI2
F1.005049
sI3
F1.004804
sI4
F1.006458
sI5
F1.006674
sI6
F1.006255
sI7
F1.004873
sI8
F1.005154
sI9
F1.016838
sI10
F1.006902
sI11
F1.0162870000000002
sI12
F1.0049549999999998
sI13
F1.0174
ssg74
(dp307
I0
F2592.413
sI1
F2540.5416666666665
sI2
F2563.3
sI3
F2534.922
sI4
F2545.0293333333334
sI5
F2561.7313333333336
sI6
F2563.4683333333332
sI7
F2514.1816666666664
sI8
F2522.9103333333333
sI9
F2646.5783333333334
sI10
F2559.9436666666666
sI11
F2654.6306666666665
sI12
F2533.9296666666664
sI13
F2279.8940000000002
ssg76
(dp308
I0
F4339.943333333334
sI1
F4309.76
sI2
F4233.586666666667
sI3
F4265.74
sI4
F4302.31
sI5
F4240.72
sI6
F4246.95
sI7
F4204.98
sI8
F4194.713333333333
sI9
F4522.070000000001
sI10
F4337.483333333334
sI11
F4482.333333333333
sI12
F4247.776666666667
sI13
F3859.586666666667
ssg78
(dp309
I0
F11.28149
sI1
F11.80696
sI2
F10.81741
sI3
F11.27547
sI4
F11.85179
sI5
F10.84513
sI6
F10.77847
sI7
F11.03757
sI8
F9.881323
sI9
F11.43633
sI10
F11.53756
sI11
F11.38742
sI12
F10.24365
sI13
F13.5516
ssg80
(dp310
I0
F12.466
sI1
F12.488
sI2
F12.478
sI3
F12.49
sI4
F12.486
sI5
F12.479
sI6
F12.478
sI7
F12.499
sI8
F12.495
sI9
F12.443
sI10
F12.479
sI11
F12.44
sI12
F12.491
sI13
F12.605
ssg82
(dp311
I0
F0.003
sI1
F0.003
sI2
F0.003
sI3
F0.003
sI4
F0.003
sI5
F0.003
sI6
F0.003
sI7
F0.003
sI8
F0.003
sI9
F0.003
sI10
F0.003
sI11
F0.003
sI12
F0.003
sI13
F0.003
ssg84
(dp312
I0
F0.3676577515042553
sI1
Fnan
sI2
Fnan
sI3
Fnan
sI4
Fnan
sI5
Fnan
sI6
Fnan
sI7
Fnan
sI8
Fnan
sI9
Fnan
sI10
Fnan
sI11
Fnan
sI12
Fnan
sI13
Fnan
ssg86
(dp313
I0
F12.48692857142857
sI1
Fnan
sI2
Fnan
sI3
Fnan
sI4
Fnan
sI5
Fnan
sI6
Fnan
sI7
Fnan
sI8
Fnan
sI9
Fnan
sI10
Fnan
sI11
Fnan
sI12
Fnan
sI13
Fnan
ssg88
(dp314
I0
F12.251
sI1
F12.258
sI2
F12.269
sI3
F12.276
sI4
F12.264
sI5
F12.258
sI6
F12.27
sI7
F12.283
sI8
F12.274
sI9
F12.21
sI10
F12.249
sI11
F12.216
sI12
F12.269
sI13
F12.377
ssg90
(dp315
I0
F2.057322
sI1
F3.131413
sI2
F-2.701878
sI3
F-2.587853
sI4
F-2.534532
sI5
F3.758695
sI6
F2.227903
sI7
F-2.753679
sI8
F3.455552
sI9
F3.889091
sI10
F-3.401606
sI11
F3.08132
sI12
F2.152891
sI13
F5.697198
ssg92
(dp316
I0
F0.039593608652835004
sI1
Fnan
sI2
Fnan
sI3
Fnan
sI4
Fnan
sI5
Fnan
sI6
Fnan
sI7
Fnan
sI8
Fnan
sI9
Fnan
sI10
Fnan
sI11
Fnan
sI12
Fnan
sI13
Fnan
ssg94
(dp317
I0
F0.6914519578126802
sI1
F0.6822643320715776
sI2
F0.6982961080972799
sI3
F0.6893795746456068
sI4
F0.6857270544990003
sI5
F0.6942255353102559
sI6
F0.6972738978382519
sI7
F0.6915330092843196
sI8
F0.6922597550791414
sI9
F0.67822193828205
sI10
F0.6823299183065193
sI11
F0.6854767338432647
sI12
F0.6891234187489651
sI13
F0.6832554961919222
ssg96
(dp318
I0
F30.0
sI1
F30.0
sI2
F30.0
sI3
F30.0
sI4
F30.0
sI5
F30.0
sI6
F30.0
sI7
F30.0
sI8
F30.0
sI9
F30.0
sI10
F30.0
sI11
F30.0
sI12
F30.0
sI13
F30.0
ssg98
(dp319
I0
F0.004
sI1
F0.004
sI2
F0.004
sI3
F0.004
sI4
F0.004
sI5
F0.004
sI6
F0.004
sI7
F0.004
sI8
F0.004
sI9
F0.004
sI10
F0.004
sI11
F0.004
sI12
F0.004
sI13
F0.005
ssg100
(dp320
I0
F0.004
sI1
F0.004
sI2
F0.004
sI3
F0.004
sI4
F0.004
sI5
F0.004
sI6
F0.004
sI7
F0.004
sI8
F0.004
sI9
F0.004
sI10
F0.004
sI11
F0.004
sI12
F0.004
sI13
F0.004
ssg102
(dp321
I0
F3.227848
sI1
F2.918597
sI2
F-1.883609
sI3
F4.1091
sI4
F-2.457053
sI5
F1.953717
sI6
F1.902211
sI7
F3.088407
sI8
F-1.736408
sI9
F-0.6000947
sI10
F-2.11958
sI11
F-1.660494
sI12
F-2.384759
sI13
F5.296576
ssg104
(dp322
I0
S"KIC8462852-20180912at044008_-25-1X1-030-z'_cal.fts.mag.1"
p323
sI1
S"KIC8462852-20180912at050355_-25-1X1-030-z'_cal.fts.mag.1"
p324
sI2
S"KIC8462852-20180912at040944_-25-1X1-030-z'_cal.fts.mag.1"
p325
sI3
S"KIC8462852-20180912at041256_-25-1X1-030-z'_cal.fts.mag.1"
p326
sI4
S"KIC8462852-20180912at043656_-25-1X1-030-z'_cal.fts.mag.1"
p327
sI5
S"KIC8462852-20180912at043800_-25-1X1-030-z'_cal.fts.mag.1"
p328
sI6
S"KIC8462852-20180912at043552_-25-1X1-030-z'_cal.fts.mag.1"
p329
sI7
S"KIC8462852-20180912at041152_-25-1X1-030-z'_cal.fts.mag.1"
p330
sI8
S"KIC8462852-20180912at040838_-25-1X1-030-z'_cal.fts.mag.1"
p331
sI9
S"KIC8462852-20180912at050604_-25-1X1-030-z'_cal.fts.mag.1"
p332
sI10
S"KIC8462852-20180912at043904_-25-1X1-030-z'_cal.fts.mag.1"
p333
sI11
S"KIC8462852-20180912at050500_-25-1X1-030-z'_cal.fts.mag.1"
p334
sI12
S"KIC8462852-20180912at041048_-25-1X1-030-z'_cal.fts.mag.1"
p335
sI13
S"KIC8462852-20180912at050709_-25-1X1-030-z'_cal.fts.mag.1"
p336
ssg121
(dp337
I0
F0.011429996389947631
sI1
Fnan
sI2
Fnan
sI3
Fnan
sI4
Fnan
sI5
Fnan
sI6
Fnan
sI7
Fnan
sI8
Fnan
sI9
Fnan
sI10
Fnan
sI11
Fnan
sI12
Fnan
sI13
Fnan
ssg123
(dp338
I0
F1238.407
sI1
F1227.0863333333332
sI2
F1230.0186666666666
sI3
F1234.618
sI4
F1209.62
sI5
F1209.7
sI6
F1219.3523333333333
sI7
F1211.609
sI8
F1210.5223333333333
sI9
F1266.7203333333334
sI10
F1225.482
sI11
F1275.0693333333334
sI12
F1192.6736666666666
sI13
F1089.991
ssg125
(dp339
I0
F0.03826519665081173
sI1
Fnan
sI2
Fnan
sI3
Fnan
sI4
Fnan
sI5
Fnan
sI6
Fnan
sI7
Fnan
sI8
Fnan
sI9
Fnan
sI10
Fnan
sI11
Fnan
sI12
Fnan
sI13
Fnan
ssg127
(dp340
I0
S"z'"
p341
sI1
S"z'"
p342
sI2
S"z'"
p343
sI3
S"z'"
p344
sI4
S"z'"
p345
sI5
S"z'"
p346
sI6
S"z'"
p347
sI7
S"z'"
p348
sI8
S"z'"
p349
sI9
S"z'"
p350
sI10
S"z'"
p351
sI11
S"z'"
p352
sI12
S"z'"
p353
sI13
S"z'"
p354
ssg144
(dp355
I0
F0.0036757260234306847
sI1
Fnan
sI2
Fnan
sI3
Fnan
sI4
Fnan
sI5
Fnan
sI6
Fnan
sI7
Fnan
sI8
Fnan
sI9
Fnan
sI10
Fnan
sI11
Fnan
sI12
Fnan
sI13
Fnan
ssg146
(dp356
I0
F1.986337
sI1
F3.087709
sI2
F-2.377831
sI3
F4.468299
sI4
F2.998059
sI5
F2.528235
sI6
F-3.908231
sI7
F2.473345
sI8
F-2.246675
sI9
F3.226535
sI10
F2.269678
sI11
F2.371913
sI12
F-3.146736
sI13
F3.789653
ssg148
(dp357
I0
F1.5085426793465122
sI1
Fnan
sI2
Fnan
sI3
Fnan
sI4
Fnan
sI5
Fnan
sI6
Fnan
sI7
Fnan
sI8
Fnan
sI9
Fnan
sI10
Fnan
sI11
Fnan
sI12
Fnan
sI13
Fnan
ssg150
(dp358
I0
F2458373.6926909722
sI1
Fnan
sI2
Fnan
sI3
Fnan
sI4
Fnan
sI5
Fnan
sI6
Fnan
sI7
Fnan
sI8
Fnan
sI9
Fnan
sI10
Fnan
sI11
Fnan
sI12
Fnan
sI13
Fnan
ssg152
(dp359
I0
F0.0036757260234306847
sI1
Fnan
sI2
Fnan
sI3
Fnan
sI4
Fnan
sI5
Fnan
sI6
Fnan
sI7
Fnan
sI8
Fnan
sI9
Fnan
sI10
Fnan
sI11
Fnan
sI12
Fnan
sI13
Fnan
ssg154
(dp360
I0
F12.83803
sI1
F12.71241
sI2
F13.67027
sI3
F12.55037
sI4
F12.54521
sI5
F12.86848
sI6
F13.52185
sI7
F12.95829
sI8
F12.47529
sI9
F11.58816
sI10
F13.3173
sI11
F12.37487
sI12
F13.0783
sI13
F13.77769
ssg156
(dp361
I0
F11.906
sI1
F11.914
sI2
F11.933
sI3
F11.925
sI4
F11.916
sI5
F11.931
sI6
F11.93
sI7
F11.941
sI8
F11.943
sI9
F11.862
sI10
F11.907
sI11
F11.871
sI12
F11.93
sI13
F12.034
ssg158
(dp362
I0
F0.3676577515042553
sI1
Fnan
sI2
Fnan
sI3
Fnan
sI4
Fnan
sI5
Fnan
sI6
Fnan
sI7
Fnan
sI8
Fnan
sI9
Fnan
sI10
Fnan
sI11
Fnan
sI12
Fnan
sI13
Fnan
sssS'g'
p363
(dp364
g3
(dp365
I0
F0.8654896846846148
sI1
Fnan
sI2
Fnan
sI3
Fnan
sI4
Fnan
sI5
Fnan
sI6
Fnan
sI7
Fnan
sI8
Fnan
sI9
Fnan
sI10
Fnan
sI11
Fnan
sI12
Fnan
sI13
Fnan
sI14
Fnan
ssg5
(dp366
I0
S'NoError'
p367
sI1
S'NoError'
p368
sI2
S'NoError'
p369
sI3
S'NoError'
p370
sI4
S'NoError'
p371
sI5
S'NoError'
p372
sI6
S'NoError'
p373
sI7
S'NoError'
p374
sI8
S'NoError'
p375
sI9
S'NoError'
p376
sI10
S'NoError'
p377
sI11
S'NoError'
p378
sI12
S'NoError'
p379
sI13
S'NoError'
p380
sI14
S'NoError'
p381
ssg22
(dp382
I0
F0.002
sI1
F0.002
sI2
F0.002
sI3
F0.002
sI4
F0.002
sI5
F0.002
sI6
F0.002
sI7
F0.002
sI8
F0.002
sI9
F0.002
sI10
F0.002
sI11
F0.002
sI12
F0.002
sI13
F0.002
sI14
F0.002
ssg24
(dp383
I0
F0.8683988582420231
sI1
F0.8860786316242749
sI2
F0.883900509877596
sI3
F0.8800301258847528
sI4
F0.8816302592577894
sI5
F0.8818908349068053
sI6
F0.870202893725615
sI7
F0.875286137274445
sI8
F0.880397605393768
sI9
F0.8941340271681422
sI10
F0.874922487977727
sI11
F0.8756938453513611
sI12
F0.8794771015124581
sI13
F0.8782147906096045
sI14
F0.8805487517456887
ssg26
(dp384
I0
F0.006288130044203229
sI1
Fnan
sI2
Fnan
sI3
Fnan
sI4
Fnan
sI5
Fnan
sI6
Fnan
sI7
Fnan
sI8
Fnan
sI9
Fnan
sI10
Fnan
sI11
Fnan
sI12
Fnan
sI13
Fnan
sI14
Fnan
ssg28
(dp385
I0
F0.8793871240368034
sI1
Fnan
sI2
Fnan
sI3
Fnan
sI4
Fnan
sI5
Fnan
sI6
Fnan
sI7
Fnan
sI8
Fnan
sI9
Fnan
sI10
Fnan
sI11
Fnan
sI12
Fnan
sI13
Fnan
sI14
Fnan
ssg30
(dp386
I0
F11.337
sI1
F11.439
sI2
F11.373
sI3
F11.316
sI4
F11.344
sI5
F11.477
sI6
F11.402
sI7
F11.32
sI8
F11.375
sI9
F11.42
sI10
F11.391
sI11
F11.378
sI12
F11.381
sI13
F11.385
sI14
F11.476
ssg32
(dp387
I0
F12.10961
sI1
F13.64886
sI2
F12.32224
sI3
F11.16752
sI4
F11.96902
sI5
F14.41452
sI6
F14.03977
sI7
F11.00051
sI8
F13.10031
sI9
F13.37048
sI10
F12.8135
sI11
F13.15206
sI12
F12.29296
sI13
F13.50891
sI14
F15.22221
ssg34
(dp388
I0
F2458373.6826273147
sI1
F2458373.662962963
sI2
F2458373.6818865743
sI3
F2458373.702175926
sI4
F2458373.702916667
sI5
F2458373.7007060186
sI6
F2458373.6804050924
sI7
F2458373.6833564816
sI8
F2458373.6999537037
sI9
F2458373.6645023148
sI10
F2458373.6811458333
sI11
F2458373.6637847223
sI12
F2458373.661400463
sI13
F2458373.701435185
sI14
F2458373.662141204
ssg36
(dp389
I0
F1.229154
sI1
Fnan
sI2
Fnan
sI3
Fnan
sI4
Fnan
sI5
Fnan
sI6
Fnan
sI7
Fnan
sI8
Fnan
sI9
Fnan
sI10
Fnan
sI11
Fnan
sI12
Fnan
sI13
Fnan
sI14
Fnan
ssg38
(dp390
I0
F1.4050614
sI1
Fnan
sI2
Fnan
sI3
Fnan
sI4
Fnan
sI5
Fnan
sI6
Fnan
sI7
Fnan
sI8
Fnan
sI9
Fnan
sI10
Fnan
sI11
Fnan
sI12
Fnan
sI13
Fnan
sI14
Fnan
ssg40
(dp391
I0
F0.86700724907415
sI1
F0.8596421099002637
sI2
F0.8646073376469394
sI3
F0.8675495740845331
sI4
F0.8678235993666777
sI5
F0.8743965060918689
sI6
F0.8623921797485659
sI7
F0.8723701208731592
sI8
F0.8708436642341651
sI9
F0.8595268205831261
sI10
F0.8637307411477095
sI11
F0.8660574060138075
sI12
F0.875457247497157
sI13
F0.8667739011462624
sI14
F0.8630411970806351
ssg42
(dp392
I0
F0.0037125799503130025
sI1
Fnan
sI2
Fnan
sI3
Fnan
sI4
Fnan
sI5
Fnan
sI6
Fnan
sI7
Fnan
sI8
Fnan
sI9
Fnan
sI10
Fnan
sI11
Fnan
sI12
Fnan
sI13
Fnan
sI14
Fnan
ssg44
(dp393
I0
F1.1385265333333336
sI1
Fnan
sI2
Fnan
sI3
Fnan
sI4
Fnan
sI5
Fnan
sI6
Fnan
sI7
Fnan
sI8
Fnan
sI9
Fnan
sI10
Fnan
sI11
Fnan
sI12
Fnan
sI13
Fnan
sI14
Fnan
ssg46
(dp394
I0
g367
sI1
g368
sI2
g369
sI3
g370
sI4
g371
sI5
g372
sI6
g373
sI7
g374
sI8
g375
sI9
g376
sI10
g377
sI11
g378
sI12
g379
sI13
g380
sI14
g381
ssg48
(dp395
I0
F0.00629076923721728
sI1
Fnan
sI2
Fnan
sI3
Fnan
sI4
Fnan
sI5
Fnan
sI6
Fnan
sI7
Fnan
sI8
Fnan
sI9
Fnan
sI10
Fnan
sI11
Fnan
sI12
Fnan
sI13
Fnan
sI14
Fnan
ssg50
(dp396
I0
F0.04671922210702696
sI1
Fnan
sI2
Fnan
sI3
Fnan
sI4
Fnan
sI5
Fnan
sI6
Fnan
sI7
Fnan
sI8
Fnan
sI9
Fnan
sI10
Fnan
sI11
Fnan
sI12
Fnan
sI13
Fnan
sI14
Fnan
ssg52
(dp397
I0
F1.4529950666666664
sI1
Fnan
sI2
Fnan
sI3
Fnan
sI4
Fnan
sI5
Fnan
sI6
Fnan
sI7
Fnan
sI8
Fnan
sI9
Fnan
sI10
Fnan
sI11
Fnan
sI12
Fnan
sI13
Fnan
sI14
Fnan
ssg54
(dp398
I0
F1.519097263176591
sI1
F1.5370258954861027
sI2
F1.5113141419399287
sI3
F1.5173283206690082
sI4
F1.5107579655898513
sI5
F1.5125867821042138
sI6
F1.5326646540606752
sI7
F1.5223423718600102
sI8
F1.5112932748937844
sI9
F1.5000166114632878
sI10
F1.5186604621626254
sI11
F1.5266492043894164
sI12
F1.506329487930259
sI13
F1.5296846094274406
sI14
F1.5295104620582771
ssg56
(dp399
I0
g367
sI1
g368
sI2
g369
sI3
g370
sI4
g371
sI5
g372
sI6
g373
sI7
g374
sI8
g375
sI9
g376
sI10
g377
sI11
g378
sI12
g379
sI13
g380
sI14
g381
ssg58
(dp400
I0
F12.76869
sI1
F14.61051
sI2
F11.75525
sI3
F10.95367
sI4
F11.40323
sI5
F14.38767
sI6
F14.5594
sI7
F11.33156
sI8
F13.11674
sI9
F12.47666
sI10
F12.94434
sI11
F12.21205
sI12
F12.33234
sI13
F13.03531
sI14
F15.05247
ssg60
(dp401
I0
F10.951666666666666
sI1
Fnan
sI2
Fnan
sI3
Fnan
sI4
Fnan
sI5
Fnan
sI6
Fnan
sI7
Fnan
sI8
Fnan
sI9
Fnan
sI10
Fnan
sI11
Fnan
sI12
Fnan
sI13
Fnan
sI14
Fnan
ssg62
(dp402
I0
F0.7134990558497071
sI1
Fnan
sI2
Fnan
sI3
Fnan
sI4
Fnan
sI5
Fnan
sI6
Fnan
sI7
Fnan
sI8
Fnan
sI9
Fnan
sI10
Fnan
sI11
Fnan
sI12
Fnan
sI13
Fnan
sI14
Fnan
ssg64
(dp403
I0
F-2.624361
sI1
F-2.874131
sI2
F2.673792
sI3
F-3.080599
sI4
F2.859375
sI5
F4.949275
sI6
F3.622683
sI7
F4.185769
sI8
F3.11939
sI9
F3.597576
sI10
F-3.42377
sI11
F4.032199
sI12
F2.537818
sI13
F3.443683
sI14
F-1.942778
ssg66
(dp404
I0
F11.327399999999999
sI1
Fnan
sI2
Fnan
sI3
Fnan
sI4
Fnan
sI5
Fnan
sI6
Fnan
sI7
Fnan
sI8
Fnan
sI9
Fnan
sI10
Fnan
sI11
Fnan
sI12
Fnan
sI13
Fnan
sI14
Fnan
ssg68
(dp405
I0
g367
sI1
g368
sI2
g369
sI3
g370
sI4
g371
sI5
g372
sI6
g373
sI7
g374
sI8
g375
sI9
g376
sI10
g377
sI11
g378
sI12
g379
sI13
g380
sI14
g381
ssg70
(dp406
I0
F7677.806666666667
sI1
F7150.573333333334
sI2
F7539.516666666666
sI3
F7898.86
sI4
F7701.663333333333
sI5
F6763.836666666667
sI6
F7283.653333333334
sI7
F7799.743333333333
sI8
F7456.116666666667
sI9
F7323.163333333333
sI10
F7374.546666666666
sI11
F7445.53
sI12
F7369.98
sI13
F7410.05
sI14
F6852.666666666667
ssg72
(dp407
I0
F1.004745
sI1
F1.00768
sI2
F1.004701
sI3
F1.010353
sI4
F1.010735
sI5
F1.00963
sI6
F1.0046469999999998
sI7
F1.004802
sI8
F1.009283
sI9
F1.007139
sI10
F1.0046680000000001
sI11
F1.007387
sI12
F1.0082799999999998
sI13
F1.0099850000000001
sI14
F1.007989
ssg74
(dp408
I0
F6735.253333333333
sI1
F6018.903333333334
sI2
F6471.8566666666675
sI3
F6799.91
sI4
F6638.873333333334
sI5
F5821.323333333334
sI6
F6317.286666666667
sI7
F6748.473333333333
sI8
F6438.583333333333
sI9
F6221.7
sI10
F6398.96
sI11
F6420.55
sI12
F6393.64
sI13
F6350.5599999999995
sI14
F5850.0599999999995
ssg76
(dp409
I0
F10947.42
sI1
F10120.913333333334
sI2
F10587.793333333333
sI3
F11151.43
sI4
F10832.54
sI5
F9518.073333333334
sI6
F10422.84
sI7
F11073.683333333332
sI8
F10499.483333333334
sI9
F10158.76
sI10
F10458.640000000001
sI11
F10584.32
sI12
F10366.273333333334
sI13
F10524.696666666667
sI14
F9714.476666666666
ssg78
(dp410
I0
F11.92294
sI1
F13.8879
sI2
F11.75015
sI3
F10.84059
sI4
F10.26965
sI5
F14.36852
sI6
F13.35174
sI7
F11.44485
sI8
F12.4822
sI9
F13.23904
sI10
F12.90872
sI11
F12.17202
sI12
F11.17007
sI13
F11.54056
sI14
F14.66718
ssg80
(dp411
I0
F11.429
sI1
F11.551
sI2
F11.472
sI3
F11.419
sI4
F11.445
sI5
F11.587
sI6
F11.499
sI7
F11.427
sI8
F11.478
sI9
F11.515
sI10
F11.485
sI11
F11.481
sI12
F11.486
sI13
F11.493
sI14
F11.582
ssg82
(dp412
I0
F0.002
sI1
F0.002
sI2
F0.002
sI3
F0.002
sI4
F0.002
sI5
F0.002
sI6
F0.002
sI7
F0.002
sI8
F0.002
sI9
F0.002
sI10
F0.002
sI11
F0.002
sI12
F0.002
sI13
F0.002
sI14
F0.002
ssg84
(dp413
I0
F0.8667479769659346
sI1
Fnan
sI2
Fnan
sI3
Fnan
sI4
Fnan
sI5
Fnan
sI6
Fnan
sI7
Fnan
sI8
Fnan
sI9
Fnan
sI10
Fnan
sI11
Fnan
sI12
Fnan
sI13
Fnan
sI14
Fnan
ssg86
(dp414
I0
F11.489933333333331
sI1
Fnan
sI2
Fnan
sI3
Fnan
sI4
Fnan
sI5
Fnan
sI6
Fnan
sI7
Fnan
sI8
Fnan
sI9
Fnan
sI10
Fnan
sI11
Fnan
sI12
Fnan
sI13
Fnan
sI14
Fnan
ssg88
(dp415
I0
F11.287
sI1
F11.364
sI2
F11.307
sI3
F11.256
sI4
F11.284
sI5
F11.425
sI6
F11.344
sI7
F11.27
sI8
F11.319
sI9
F11.338
sI10
F11.331
sI11
F11.32
sI12
F11.331
sI13
F11.325
sI14
F11.41
ssg90
(dp416
I0
F3.296353
sI1
F3.657808
sI2
F-2.922188
sI3
F-3.182474
sI4
F-1.705458
sI5
F6.067575
sI6
F4.146945
sI7
F4.134616
sI8
F3.545628
sI9
F-3.177989
sI10
F2.056604
sI11
F-3.000308
sI12
F-2.096855
sI13
F3.586851
sI14
F4.030202
ssg92
(dp417
I0
F0.04802628248702822
sI1
Fnan
sI2
Fnan
sI3
Fnan
sI4
Fnan
sI5
Fnan
sI6
Fnan
sI7
Fnan
sI8
Fnan
sI9
Fnan
sI10
Fnan
sI11
Fnan
sI12
Fnan
sI13
Fnan
sI14
Fnan
ssg94
(dp418
I0
F0.7232398782439873
sI1
F0.6969757090974218
sI2
F0.7140449042540419
sI3
F0.7138904447123902
sI4
F0.7163915506844013
sI5
F0.7150663937257157
sI6
F0.7135559308939019
sI7
F0.7151296319975811
sI8
F0.7171671604773255
sI9
F0.7117866703072526
sI10
F0.7176462759693724
sI11
F0.7122133572935994
sI12
F0.7209685021789646
sI13
F0.7081850798375741
sI14
F0.7062243480720776
ssg96
(dp419
I0
F30.0
sI1
F30.0
sI2
F30.0
sI3
F30.0
sI4
F30.0
sI5
F30.0
sI6
F30.0
sI7
F30.0
sI8
F30.0
sI9
F30.0
sI10
F30.0
sI11
F30.0
sI12
F30.0
sI13
F30.0
sI14
F30.0
ssg98
(dp420
I0
F0.002
sI1
F0.002
sI2
F0.002
sI3
F0.002
sI4
F0.002
sI5
F0.003
sI6
F0.002
sI7
F0.002
sI8
F0.002
sI9
F0.002
sI10
F0.002
sI11
F0.002
sI12
F0.002
sI13
F0.002
sI14
F0.003
ssg100
(dp421
I0
F0.002
sI1
F0.002
sI2
F0.002
sI3
F0.002
sI4
F0.002
sI5
F0.002
sI6
F0.002
sI7
F0.002
sI8
F0.002
sI9
F0.002
sI10
F0.002
sI11
F0.002
sI12
F0.002
sI13
F0.002
sI14
F0.002
ssg102
(dp422
I0
F-3.905371
sI1
F-3.056704
sI2
F2.657813
sI3
F2.922816
sI4
F3.678307
sI5
F6.060452
sI6
F-3.191881
sI7
F2.918059
sI8
F2.683851
sI9
F5.549836
sI10
F-2.831541
sI11
F4.373269
sI12
F2.861951
sI13
F-1.948533
sI14
F3.022602
ssg104
(dp423
I0
S"KIC8462852-20180912at042259_-25-1X1-030-g'_cal.fts.mag.1"
p424
sI1
S"KIC8462852-20180912at035440_-25-1X1-030-g'_cal.fts.mag.1"
p425
sI2
S"KIC8462852-20180912at042155_-25-1X1-030-g'_cal.fts.mag.1"
p426
sI3
S"KIC8462852-20180912at045108_-25-1X1-030-g'_cal.fts.mag.1"
p427
sI4
S"KIC8462852-20180912at045212_-25-1X1-030-g'_cal.fts.mag.1"
p428
sI5
S"KIC8462852-20180912at044901_-25-1X1-030-g'_cal.fts.mag.1"
p429
sI6
S"KIC8462852-20180912at041943_-25-1X1-030-g'_cal.fts.mag.1"
p430
sI7
S"KIC8462852-20180912at042402_-25-1X1-030-g'_cal.fts.mag.1"
p431
sI8
S"KIC8462852-20180912at044751_-25-1X1-030-g'_cal.fts.mag.1"
p432
sI9
S"KIC8462852-20180912at035653_-25-1X1-030-g'_cal.fts.mag.1"
p433
sI10
S"KIC8462852-20180912at042051_-25-1X1-030-g'_cal.fts.mag.1"
p434
sI11
S"KIC8462852-20180912at035551_-25-1X1-030-g'_cal.fts.mag.1"
p435
sI12
S"KIC8462852-20180912at035216_-25-1X1-030-g'_cal.fts.mag.1"
p436
sI13
S"KIC8462852-20180912at045004_-25-1X1-030-g'_cal.fts.mag.1"
p437
sI14
S"KIC8462852-20180912at035329_-25-1X1-030-g'_cal.fts.mag.1"
p438
ssg121
(dp439
I0
F0.010546903010638693
sI1
Fnan
sI2
Fnan
sI3
Fnan
sI4
Fnan
sI5
Fnan
sI6
Fnan
sI7
Fnan
sI8
Fnan
sI9
Fnan
sI10
Fnan
sI11
Fnan
sI12
Fnan
sI13
Fnan
sI14
Fnan
ssg123
(dp440
I0
F7329.240000000001
sI1
F6673.8
sI2
F7089.54
sI3
F7475.443333333333
sI4
F7281.929999999999
sI5
F6442.33
sI6
F6905.973333333333
sI7
F7450.593333333333
sI8
F7081.173333333334
sI9
F6791.3
sI10
F6976.683333333333
sI11
F7058.483333333334
sI12
F7041.5633333333335
sI13
F7016.623333333334
sI14
F6448.990000000001
ssg125
(dp441
I0
F0.0518617209050963
sI1
Fnan
sI2
Fnan
sI3
Fnan
sI4
Fnan
sI5
Fnan
sI6
Fnan
sI7
Fnan
sI8
Fnan
sI9
Fnan
sI10
Fnan
sI11
Fnan
sI12
Fnan
sI13
Fnan
sI14
Fnan
ssg127
(dp442
I0
S"g'"
p443
sI1
S"g'"
p444
sI2
S"g'"
p445
sI3
S"g'"
p446
sI4
S"g'"
p447
sI5
S"g'"
p448
sI6
S"g'"
p449
sI7
S"g'"
p450
sI8
S"g'"
p451
sI9
S"g'"
p452
sI10
S"g'"
p453
sI11
S"g'"
p454
sI12
S"g'"
p455
sI13
S"g'"
p456
sI14
S"g'"
p457
ssg144
(dp458
I0
F0.00488522943284371
sI1
Fnan
sI2
Fnan
sI3
Fnan
sI4
Fnan
sI5
Fnan
sI6
Fnan
sI7
Fnan
sI8
Fnan
sI9
Fnan
sI10
Fnan
sI11
Fnan
sI12
Fnan
sI13
Fnan
sI14
Fnan
ssg146
(dp459
I0
F-3.224407
sI1
F-3.126951
sI2
F3.31693
sI3
F2.312071
sI4
F4.220675
sI5
F5.260141
sI6
F-3.110902
sI7
F2.146915
sI8
F3.496025
sI9
F-1.605097
sI10
F2.86656
sI11
F2.332577
sI12
F2.740732
sI13
F-2.967357
sI14
F2.419986
ssg148
(dp460
I0
F1.5190174338140983
sI1
Fnan
sI2
Fnan
sI3
Fnan
sI4
Fnan
sI5
Fnan
sI6
Fnan
sI7
Fnan
sI8
Fnan
sI9
Fnan
sI10
Fnan
sI11
Fnan
sI12
Fnan
sI13
Fnan
sI14
Fnan
ssg150
(dp461
I0
F2458373.6818865743
sI1
Fnan
sI2
Fnan
sI3
Fnan
sI4
Fnan
sI5
Fnan
sI6
Fnan
sI7
Fnan
sI8
Fnan
sI9
Fnan
sI10
Fnan
sI11
Fnan
sI12
Fnan
sI13
Fnan
sI14
Fnan
ssg152
(dp462
I0
F0.00488522943284371
sI1
Fnan
sI2
Fnan
sI3
Fnan
sI4
Fnan
sI5
Fnan
sI6
Fnan
sI7
Fnan
sI8
Fnan
sI9
Fnan
sI10
Fnan
sI11
Fnan
sI12
Fnan
sI13
Fnan
sI14
Fnan
ssg154
(dp463
I0
F13.31552
sI1
F15.70372
sI2
F14.27715
sI3
F13.05268
sI4
F14.06957
sI5
F14.83327
sI6
F15.04887
sI7
F11.68904
sI8
F14.43235
sI9
F16.71355
sI10
F14.18975
sI11
F14.75557
sI12
F14.39252
sI13
F14.4148
sI14
F17.71248
ssg156
(dp464
I0
F10.902
sI1
F10.987
sI2
F10.938
sI3
F10.882
sI4
F10.913
sI5
F11.054
sI6
F10.955
sI7
F10.889
sI8
F10.947
sI9
F10.983
sI10
F10.951
sI11
F10.938
sI12
F10.961
sI13
F10.944
sI14
F11.031
ssg158
(dp465
I0
F0.8667479769659346
sI1
Fnan
sI2
Fnan
sI3
Fnan
sI4
Fnan
sI5
Fnan
sI6
Fnan
sI7
Fnan
sI8
Fnan
sI9
Fnan
sI10
Fnan
sI11
Fnan
sI12
Fnan
sI13
Fnan
sI14
Fnan
sssS'V'
p466
(dp467
g3
(dp468
I0
F0.6920584142574556
sI1
Fnan
sI2
Fnan
sI3
Fnan
sI4
Fnan
sI5
Fnan
sI6
Fnan
sI7
Fnan
sI8
Fnan
sI9
Fnan
ssg5
(dp469
I0
S'NoError'
p470
sI1
S'NoError'
p471
sI2
S'NoError'
p472
sI3
S'NoError'
p473
sI4
S'NoError'
p474
sI5
S'NoError'
p475
sI6
S'NoError'
p476
sI7
S'NoError'
p477
sI8
S'NoError'
p478
sI9
S'NoError'
p479
ssg22
(dp480
I0
F0.002
sI1
F0.002
sI2
F0.002
sI3
F0.002
sI4
F0.002
sI5
F0.002
sI6
F0.002
sI7
F0.002
sI8
F0.002
sI9
F0.002
ssg24
(dp481
I0
F0.895624211485634
sI1
F0.8833319308799641
sI2
F0.8841574017285405
sI3
F0.88597709632349
sI4
F0.8937875829311814
sI5
F0.8798668152823353
sI6
F0.8875671278872997
sI7
F0.8872115850893058
sI8
F0.8822114278006539
sI9
F0.8802107138608217
ssg26
(dp482
I0
F0.005304031841803556
sI1
Fnan
sI2
Fnan
sI3
Fnan
sI4
Fnan
sI5
Fnan
sI6
Fnan
sI7
Fnan
sI8
Fnan
sI9
Fnan
ssg28
(dp483
I0
F0.8859945893269225
sI1
Fnan
sI2
Fnan
sI3
Fnan
sI4
Fnan
sI5
Fnan
sI6
Fnan
sI7
Fnan
sI8
Fnan
sI9
Fnan
ssg30
(dp484
I0
F11.413
sI1
F11.41
sI2
F11.481
sI3
F11.375
sI4
F11.401
sI5
F11.406
sI6
F11.448
sI7
F11.402
sI8
F11.406
sI9
F11.394
ssg32
(dp485
I0
F12.48398
sI1
F13.16129
sI2
F15.32349
sI3
F12.26617
sI4
F14.15806
sI5
F12.44531
sI6
F13.53453
sI7
F13.49512
sI8
F12.84067
sI9
F12.53362
ssg34
(dp486
I0
F2458373.695347222
sI1
F2458373.677210648
sI2
F2458373.6794675924
sI3
F2458373.677962963
sI4
F2458373.6764699076
sI5
F2458373.696851852
sI6
F2458373.696099537
sI7
F2458373.678726852
sI8
F2458373.697604167
sI9
F2458373.6983449073
ssg36
(dp487
I0
F0.4331416999999999
sI1
Fnan
sI2
Fnan
sI3
Fnan
sI4
Fnan
sI5
Fnan
sI6
Fnan
sI7
Fnan
sI8
Fnan
sI9
Fnan
ssg38
(dp488
I0
F2.3448882
sI1
Fnan
sI2
Fnan
sI3
Fnan
sI4
Fnan
sI5
Fnan
sI6
Fnan
sI7
Fnan
sI8
Fnan
sI9
Fnan
ssg40
(dp489
I0
F0.6893935091925385
sI1
F0.693769488342926
sI2
F0.6871056584192428
sI3
F0.6966017414822238
sI4
F0.6954130313444238
sI5
F0.6880373697863876
sI6
F0.6884796080233386
sI7
F0.6963829793672895
sI8
F0.6919368890397983
sI9
F0.6934638675763872
ssg42
(dp490
I0
F0.003407684631748003
sI1
Fnan
sI2
Fnan
sI3
Fnan
sI4
Fnan
sI5
Fnan
sI6
Fnan
sI7
Fnan
sI8
Fnan
sI9
Fnan
ssg44
(dp491
I0
F2.5640904
sI1
Fnan
sI2
Fnan
sI3
Fnan
sI4
Fnan
sI5
Fnan
sI6
Fnan
sI7
Fnan
sI8
Fnan
sI9
Fnan
ssg46
(dp492
I0
g470
sI1
g471
sI2
g472
sI3
g473
sI4
g474
sI5
g475
sI6
g476
sI7
g477
sI8
g478
sI9
g479
ssg48
(dp493
I0
F0.004082508152482781
sI1
Fnan
sI2
Fnan
sI3
Fnan
sI4
Fnan
sI5
Fnan
sI6
Fnan
sI7
Fnan
sI8
Fnan
sI9
Fnan
ssg50
(dp494
I0
F0.026275463839863934
sI1
Fnan
sI2
Fnan
sI3
Fnan
sI4
Fnan
sI5
Fnan
sI6
Fnan
sI7
Fnan
sI8
Fnan
sI9
Fnan
ssg52
(dp495
I0
F2.6087477000000003
sI1
Fnan
sI2
Fnan
sI3
Fnan
sI4
Fnan
sI5
Fnan
sI6
Fnan
sI7
Fnan
sI8
Fnan
sI9
Fnan
ssg54
(dp496
I0
F1.494268398139634
sI1
F1.5081446750740688
sI2
F1.520652346634414
sI3
F1.4986887298056935
sI4
F1.4901890082238909
sI5
F1.5119858334612506
sI6
F1.5022544637573076
sI7
F1.4911309147533611
sI8
F1.5029850095144306
sI9
F1.5088408087121734
ssg56
(dp497
I0
g470
sI1
g471
sI2
g472
sI3
g473
sI4
g474
sI5
g475
sI6
g476
sI7
g477
sI8
g478
sI9
g479
ssg58
(dp498
I0
F13.93219
sI1
F14.03367
sI2
F17.56453
sI3
F13.89786
sI4
F14.79035
sI5
F13.47281
sI6
F13.60417
sI7
F15.34938
sI8
F14.48718
sI9
F13.31018
ssg60
(dp499
I0
F10.7399
sI1
Fnan
sI2
Fnan
sI3
Fnan
sI4
Fnan
sI5
Fnan
sI6
Fnan
sI7
Fnan
sI8
Fnan
sI9
Fnan
ssg62
(dp500
I0
F0.7172538535945974
sI1
Fnan
sI2
Fnan
sI3
Fnan
sI4
Fnan
sI5
Fnan
sI6
Fnan
sI7
Fnan
sI8
Fnan
sI9
Fnan
ssg64
(dp501
I0
F-2.146166
sI1
F2.309091
sI2
F2.993226
sI3
F2.327945
sI4
F1.731067
sI5
F3.489355
sI6
F4.81188
sI7
F2.880292
sI8
F2.891618
sI9
F2.160574
ssg66
(dp502
I0
F11.103199999999998
sI1
Fnan
sI2
Fnan
sI3
Fnan
sI4
Fnan
sI5
Fnan
sI6
Fnan
sI7
Fnan
sI8
Fnan
sI9
Fnan
ssg68
(dp503
I0
g470
sI1
g471
sI2
g472
sI3
g473
sI4
g474
sI5
g475
sI6
g476
sI7
g477
sI8
g478
sI9
g479
ssg70
(dp504
I0
F9205.016666666666
sI1
F9080.303333333333
sI2
F8591.923333333334
sI3
F9363.803333333333
sI4
F9207.993333333334
sI5
F9168.753333333332
sI6
F8867.576666666666
sI7
F9138.706666666667
sI8
F9134.82
sI9
F9198.926666666666
ssg72
(dp505
I0
F1.0074239999999999
sI1
F1.004697
sI2
F1.004638
sI3
F1.004665
sI4
F1.0047409999999999
sI5
F1.0079790000000002
sI6
F1.007691
sI7
F1.004645
sI8
F1.008273
sI9
F1.008583
ssg74
(dp506
I0
F7828.906666666667
sI1
F7817.240000000001
sI2
F7329.673333333334
sI3
F8072.216666666666
sI4
F7875.566666666667
sI5
F7921.283333333334
sI6
F7607.1466666666665
sI7
F7898.5633333333335
sI8
F7904.21
sI9
F7958.0633333333335
ssg76
(dp507
I0
F12726.626666666667
sI1
F12741.97
sI2
F12105.606666666667
sI3
F13065.583333333334
sI4
F12728.866666666667
sI5
F12919.946666666667
sI6
F12374.613333333335
sI7
F12702.4
sI8
F12804.703333333333
sI9
F12943.583333333334
ssg78
(dp508
I0
F14.0893
sI1
F14.28679
sI2
F16.49796
sI3
F13.17457
sI4
F14.40472
sI5
F13.28566
sI6
F13.86524
sI7
F13.82208
sI8
F13.96248
sI9
F13.29669
ssg80
(dp509
I0
F11.266
sI1
F11.267
sI2
F11.337
sI3
F11.233
sI4
F11.259
sI5
F11.253
sI6
F11.297
sI7
F11.256
sI8
F11.255
sI9
F11.248
ssg82
(dp510
I0
F0.002
sI1
F0.002
sI2
F0.002
sI3
F0.002
sI4
F0.002
sI5
F0.002
sI6
F0.002
sI7
F0.002
sI8
F0.002
sI9
F0.002
ssg84
(dp511
I0
F0.6920584142574556
sI1
Fnan
sI2
Fnan
sI3
Fnan
sI4
Fnan
sI5
Fnan
sI6
Fnan
sI7
Fnan
sI8
Fnan
sI9
Fnan
ssg86
(dp512
I0
F11.267100000000001
sI1
Fnan
sI2
Fnan
sI3
Fnan
sI4
Fnan
sI5
Fnan
sI6
Fnan
sI7
Fnan
sI8
Fnan
sI9
Fnan
ssg88
(dp513
I0
F11.09
sI1
F11.105
sI2
F11.165
sI3
F11.071
sI4
F11.09
sI5
F11.094
sI6
F11.13
sI7
F11.098
sI8
F11.098
sI9
F11.091
ssg90
(dp514
I0
F-2.857178
sI1
F-2.041789
sI2
F3.135767
sI3
F-2.623887
sI4
F3.027248
sI5
F-3.131387
sI6
F4.737936
sI7
F-2.751793
sI8
F2.961494
sI9
F3.875006
ssg92
(dp515
I0
F0.024392394078664684
sI1
Fnan
sI2
Fnan
sI3
Fnan
sI4
Fnan
sI5
Fnan
sI6
Fnan
sI7
Fnan
sI8
Fnan
sI9
Fnan
ssg94
(dp516
I0
F0.713937076914589
sI1
F0.7164459798108417
sI2
F0.7082655112308893
sI3
F0.719789335895052
sI4
F0.7180213272698706
sI5
F0.7172249460885733
sI6
F0.7162299806815272
sI7
F0.7232750110952864
sI8
F0.7205452807619492
sI9
F0.7188040861973943
ssg96
(dp517
I0
F30.0
sI1
F30.0
sI2
F30.0
sI3
F30.0
sI4
F30.0
sI5
F30.0
sI6
F30.0
sI7
F30.0
sI8
F30.0
sI9
F30.0
ssg98
(dp518
I0
F0.002
sI1
F0.002
sI2
F0.002
sI3
F0.002
sI4
F0.002
sI5
F0.002
sI6
F0.002
sI7
F0.002
sI8
F0.002
sI9
F0.002
ssg100
(dp519
I0
F0.002
sI1
F0.002
sI2
F0.002
sI3
F0.002
sI4
F0.002
sI5
F0.002
sI6
F0.002
sI7
F0.002
sI8
F0.002
sI9
F0.002
ssg102
(dp520
I0
F3.439374
sI1
F3.621217
sI2
F-2.43471
sI3
F5.029945
sI4
F3.182409
sI5
F3.549394
sI6
F4.55725
sI7
F-3.690447
sI8
F4.388618
sI9
F4.444427
ssg104
(dp521
I0
S'KIC8462852-20180912at044111_-25-1X1-030-V_cal.fts.mag.1'
p522
sI1
S'KIC8462852-20180912at041511_-25-1X1-030-V_cal.fts.mag.1'
p523
sI2
S'KIC8462852-20180912at041826_-25-1X1-030-V_cal.fts.mag.1'
p524
sI3
S'KIC8462852-20180912at041616_-25-1X1-030-V_cal.fts.mag.1'
p525
sI4
S'KIC8462852-20180912at041359_-25-1X1-030-V_cal.fts.mag.1'
p526
sI5
S'KIC8462852-20180912at044327_-25-1X1-030-V_cal.fts.mag.1'
p527
sI6
S'KIC8462852-20180912at044223_-25-1X1-030-V_cal.fts.mag.1'
p528
sI7
S'KIC8462852-20180912at041721_-25-1X1-030-V_cal.fts.mag.1'
p529
sI8
S'KIC8462852-20180912at044433_-25-1X1-030-V_cal.fts.mag.1'
p530
sI9
S'KIC8462852-20180912at044537_-25-1X1-030-V_cal.fts.mag.1'
p531
ssg121
(dp532
I0
F0.009736757449593658
sI1
Fnan
sI2
Fnan
sI3
Fnan
sI4
Fnan
sI5
Fnan
sI6
Fnan
sI7
Fnan
sI8
Fnan
sI9
Fnan
ssg123
(dp533
I0
F6838.91
sI1
F6854.33
sI2
F6419.216666666666
sI3
F7082.490000000001
sI4
F6910.65
sI5
F6882.663333333333
sI6
F6620.7266666666665
sI7
F6903.4
sI8
F6883.326666666666
sI9
F6957.886666666667
ssg125
(dp534
I0
F0.029520049683788276
sI1
Fnan
sI2
Fnan
sI3
Fnan
sI4
Fnan
sI5
Fnan
sI6
Fnan
sI7
Fnan
sI8
Fnan
sI9
Fnan
ssg127
(dp535
I0
g466
sI1
g466
sI2
g466
sI3
g466
sI4
g466
sI5
g466
sI6
g466
sI7
g466
sI8
g466
sI9
g466
ssg144
(dp536
I0
F0.0035920149946252733
sI1
Fnan
sI2
Fnan
sI3
Fnan
sI4
Fnan
sI5
Fnan
sI6
Fnan
sI7
Fnan
sI8
Fnan
sI9
Fnan
ssg146
(dp537
I0
F1.999628
sI1
F3.016846
sI2
F1.801101
sI3
F2.244107
sI4
F3.099391
sI5
F4.131627
sI6
F4.870959
sI7
F-2.750552
sI8
F2.292242
sI9
F4.935555
ssg148
(dp538
I0
F1.5029140188076227
sI1
Fnan
sI2
Fnan
sI3
Fnan
sI4
Fnan
sI5
Fnan
sI6
Fnan
sI7
Fnan
sI8
Fnan
sI9
Fnan
ssg150
(dp539
I0
F2458373.687407407
sI1
Fnan
sI2
Fnan
sI3
Fnan
sI4
Fnan
sI5
Fnan
sI6
Fnan
sI7
Fnan
sI8
Fnan
sI9
Fnan
ssg152
(dp540
I0
F0.0035920149946252733
sI1
Fnan
sI2
Fnan
sI3
Fnan
sI4
Fnan
sI5
Fnan
sI6
Fnan
sI7
Fnan
sI8
Fnan
sI9
Fnan
ssg154
(dp541
I0
F17.37979
sI1
F17.95001
sI2
F22.71271
sI3
F16.59913
sI4
F16.24213
sI5
F15.76017
sI6
F17.87442
sI7
F17.71688
sI8
F16.01538
sI9
F15.45552
ssg156
(dp542
I0
F10.738
sI1
F10.737
sI2
F10.793
sI3
F10.71
sI4
F10.738
sI5
F10.722
sI6
F10.769
sI7
F10.74
sI8
F10.732
sI9
F10.72
ssg158
(dp543
I0
F0.6920584142574556
sI1
Fnan
sI2
Fnan
sI3
Fnan
sI4
Fnan
sI5
Fnan
sI6
Fnan
sI7
Fnan
sI8
Fnan
sI9
Fnan
sss.