(dp0
S'i'
p1
(dp2
S'sigmean'
p3
(dp4
I0
F0.4364152415871368
sI1
Fnan
sI2
Fnan
sI3
Fnan
sI4
Fnan
sI5
Fnan
sI6
Fnan
sI7
Fnan
sI8
Fnan
sI9
Fnan
sI10
Fnan
sI11
Fnan
sI12
Fnan
sI13
Fnan
sI14
Fnan
ssS'ref3flag'
p5
(dp6
I0
S'NoError'
p7
sI1
S'NoError'
p8
sI2
S'NoError'
p9
sI3
S'NoError'
p10
sI4
S'NoError'
p11
sI5
S'NoError'
p12
sI6
S'NoError'
p13
sI7
S'NoError'
p14
sI8
S'NoError'
p15
sI9
S'NoError'
p16
sI10
S'NoError'
p17
sI11
S'NoError'
p18
sI12
S'NoError'
p19
sI13
S'NoError'
p20
sI14
S'NoError'
p21
ssS'tabbyerr'
p22
(dp23
I0
F0.003
sI1
F0.003
sI2
F0.003
sI3
F0.003
sI4
F0.003
sI5
F0.003
sI6
F0.003
sI7
F0.003
sI8
F0.003
sI9
F0.003
sI10
F0.003
sI11
F0.003
sI12
F0.003
sI13
F0.003
sI14
F0.003
ssS'ref2rel'
p24
(dp25
I0
F0.9085828892964504
sI1
F0.9071871858893972
sI2
F0.9085497123081422
sI3
F0.908318973759033
sI4
F0.9100030015695628
sI5
F0.9134959029272846
sI6
F0.9107667653112426
sI7
F0.9078535059039528
sI8
F0.9085519295804745
sI9
F0.9082616432012913
sI10
F0.9100293964453802
sI11
F0.9117347353369696
sI12
F0.9198114574874869
sI13
F0.9123738049921999
sI14
F0.9133419276624537
ssS'ref2err'
p26
(dp27
I0
F0.003253859919650816
sI1
Fnan
sI2
Fnan
sI3
Fnan
sI4
Fnan
sI5
Fnan
sI6
Fnan
sI7
Fnan
sI8
Fnan
sI9
Fnan
sI10
Fnan
sI11
Fnan
sI12
Fnan
sI13
Fnan
sI14
Fnan
ssS'ref2mean'
p28
(dp29
I0
F0.9105908554447546
sI1
Fnan
sI2
Fnan
sI3
Fnan
sI4
Fnan
sI5
Fnan
sI6
Fnan
sI7
Fnan
sI8
Fnan
sI9
Fnan
sI10
Fnan
sI11
Fnan
sI12
Fnan
sI13
Fnan
sI14
Fnan
ssS'tabbymag'
p30
(dp31
I0
F11.948
sI1
F12.052
sI2
F12.163
sI3
F12.068
sI4
F12.06
sI5
F12.065
sI6
F12.036
sI7
F12.072
sI8
F11.994
sI9
F12.024
sI10
F12.066
sI11
F12.079
sI12
F12.032
sI13
F11.967
sI14
F11.992
ssS'tabbybkg'
p32
(dp33
I0
F0.06669741
sI1
F2.013479
sI2
F3.267966
sI3
F2.324883
sI4
F0.4523121
sI5
F1.808331
sI6
F1.945938
sI7
F0.1005237
sI8
F-0.1581147
sI9
F0.3032224
sI10
F1.271986
sI11
F1.875768
sI12
F1.243233
sI13
F-0.4588325
sI14
F1.398892
ssS'JD'
p34
(dp35
I0
F2458430.618148148
sI1
F2458430.5749768517
sI2
F2458430.5733680557
sI3
F2458430.5741666667
sI4
F2458430.597372685
sI5
F2458430.5757407406
sI6
F2458430.5956828706
sI7
F2458430.5965393516
sI8
F2458430.6164814816
sI9
F2458430.614872685
sI10
F2458430.576550926
sI11
F2458430.5940277777
sI12
F2458430.594872685
sI13
F2458430.6173148146
sI14
F2458430.6157060186
ssS'ref3rmsmean'
p36
(dp37
I0
F2.5132733333333332
sI1
Fnan
sI2
Fnan
sI3
Fnan
sI4
Fnan
sI5
Fnan
sI6
Fnan
sI7
Fnan
sI8
Fnan
sI9
Fnan
sI10
Fnan
sI11
Fnan
sI12
Fnan
sI13
Fnan
sI14
Fnan
ssS'ref1rmsmean'
p38
(dp39
I0
F2.034203153333333
sI1
Fnan
sI2
Fnan
sI3
Fnan
sI4
Fnan
sI5
Fnan
sI6
Fnan
sI7
Fnan
sI8
Fnan
sI9
Fnan
sI10
Fnan
sI11
Fnan
sI12
Fnan
sI13
Fnan
sI14
Fnan
ssS'relflux'
p40
(dp41
I0
F0.43839236056456266
sI1
F0.43761729703296254
sI2
F0.4346199734531856
sI3
F0.4364015064720645
sI4
F0.4354281001947968
sI5
F0.43469710810852935
sI6
F0.4355923700266447
sI7
F0.4403597763505566
sI8
F0.439007183967916
sI9
F0.43595911647234525
sI10
F0.4345506159675114
sI11
F0.4365046338939462
sI12
F0.4371742121619249
sI13
F0.4363090220195183
sI14
F0.43755988188400674
ssS'sigerr'
p42
(dp43
I0
F0.0013493177351751253
sI1
Fnan
sI2
Fnan
sI3
Fnan
sI4
Fnan
sI5
Fnan
sI6
Fnan
sI7
Fnan
sI8
Fnan
sI9
Fnan
sI10
Fnan
sI11
Fnan
sI12
Fnan
sI13
Fnan
sI14
Fnan
ssS'tabbyrmsmean'
p44
(dp45
I0
F2.405180133333333
sI1
Fnan
sI2
Fnan
sI3
Fnan
sI4
Fnan
sI5
Fnan
sI6
Fnan
sI7
Fnan
sI8
Fnan
sI9
Fnan
sI10
Fnan
sI11
Fnan
sI12
Fnan
sI13
Fnan
sI14
Fnan
ssS'tabbyflag'
p46
(dp47
I0
g7
sI1
g8
sI2
g9
sI3
g10
sI4
g11
sI5
g12
sI6
g13
sI7
g14
sI8
g15
sI9
g16
sI10
g17
sI11
g18
sI12
g19
sI13
g20
sI14
g21
ssS'ref1err'
p48
(dp49
I0
F0.0021884853454688592
sI1
Fnan
sI2
Fnan
sI3
Fnan
sI4
Fnan
sI5
Fnan
sI6
Fnan
sI7
Fnan
sI8
Fnan
sI9
Fnan
sI10
Fnan
sI11
Fnan
sI12
Fnan
sI13
Fnan
sI14
Fnan
ssS'ref2magmeanerr'
p50
(dp51
I0
F0.051624837137988454
sI1
Fnan
sI2
Fnan
sI3
Fnan
sI4
Fnan
sI5
Fnan
sI6
Fnan
sI7
Fnan
sI8
Fnan
sI9
Fnan
sI10
Fnan
sI11
Fnan
sI12
Fnan
sI13
Fnan
sI14
Fnan
ssS'ref2rmsmean'
p52
(dp53
I0
F2.364603333333333
sI1
Fnan
sI2
Fnan
sI3
Fnan
sI4
Fnan
sI5
Fnan
sI6
Fnan
sI7
Fnan
sI8
Fnan
sI9
Fnan
sI10
Fnan
sI11
Fnan
sI12
Fnan
sI13
Fnan
sI14
Fnan
ssS'ref3rel'
p54
(dp55
I0
F1.4998476872228044
sI1
F1.5090793030653173
sI2
F1.5107505123210774
sI3
F1.5000999668441408
sI4
F1.508027195312197
sI5
F1.5038845291226866
sI6
F1.505487792524446
sI7
F1.5062283708346302
sI8
F1.5053139568430127
sI9
F1.5051962783014599
sI10
F1.5009957970279983
sI11
F1.505652524694844
sI12
F1.4931346171658495
sI13
F1.4987248524035253
sI14
F1.4987543819348157
ssS'ref1flag'
p56
(dp57
I0
g7
sI1
g8
sI2
g9
sI3
g10
sI4
g11
sI5
g12
sI6
g13
sI7
g14
sI8
g15
sI9
g16
sI10
g17
sI11
g18
sI12
g19
sI13
g20
sI14
g21
ssS'ref2bkg'
p58
(dp59
I0
F1.039211
sI1
F4.765757
sI2
F4.81477
sI3
F4.188373
sI4
F2.938998
sI5
F2.378356
sI6
F1.720988
sI7
F3.050947
sI8
F1.432245
sI9
F1.889692
sI10
F4.043002
sI11
F3.268925
sI12
F2.55744
sI13
F0.5440121
sI14
F2.162656
ssS'ref3magmean'
p60
(dp61
I0
F10.867266666666668
sI1
Fnan
sI2
Fnan
sI3
Fnan
sI4
Fnan
sI5
Fnan
sI6
Fnan
sI7
Fnan
sI8
Fnan
sI9
Fnan
sI10
Fnan
sI11
Fnan
sI12
Fnan
sI13
Fnan
sI14
Fnan
ssS'ref1mean'
p62
(dp63
I0
F0.6954904431640714
sI1
Fnan
sI2
Fnan
sI3
Fnan
sI4
Fnan
sI5
Fnan
sI6
Fnan
sI7
Fnan
sI8
Fnan
sI9
Fnan
sI10
Fnan
sI11
Fnan
sI12
Fnan
sI13
Fnan
sI14
Fnan
ssS'ref1rms'
p64
(dp65
I0
F2.13501
sI1
F-1.512009
sI2
F1.07235
sI3
F3.817645
sI4
F4.525755
sI5
F-3.45369
sI6
F2.999296
sI7
F4.218905
sI8
F0.9687223
sI9
F3.575929
sI10
F3.359425
sI11
F3.560796
sI12
F3.829825
sI13
F3.876178
sI14
F-2.46109
ssS'ref2magmean'
p66
(dp67
I0
F11.21053333333333
sI1
Fnan
sI2
Fnan
sI3
Fnan
sI4
Fnan
sI5
Fnan
sI6
Fnan
sI7
Fnan
sI8
Fnan
sI9
Fnan
sI10
Fnan
sI11
Fnan
sI12
Fnan
sI13
Fnan
sI14
Fnan
ssS'ref2flag'
p68
(dp69
I0
g7
sI1
g8
sI2
g9
sI3
g10
sI4
g11
sI5
g12
sI6
g13
sI7
g14
sI8
g15
sI9
g16
sI10
g17
sI11
g18
sI12
g19
sI13
g20
sI14
g21
ssS'ref2'
p70
(dp71
I0
F8930.473333333333
sI1
F8116.803333333333
sI2
F7384.083333333333
sI3
F8028.15
sI4
F8115.003333333333
sI5
F8114.926666666666
sI6
F8301.323333333334
sI7
F7924.816666666667
sI8
F8545.933333333332
sI9
F8372.1
sI10
F8086.516666666666
sI11
F7966.133333333333
sI12
F8355.956666666667
sI13
F8841.983333333334
sI14
F8618.71
ssS'airmass'
p72
(dp73
I0
F1.110283
sI1
F1.0341280000000002
sI2
F1.032249
sI3
F1.033193
sI4
F1.067105
sI5
F1.035045
sI6
F1.064111
sI7
F1.065555
sI8
F1.106231
sI9
F1.102552
sI10
F1.036014
sI11
F1.0613290000000002
sI12
F1.062714
sI13
F1.108292
sI14
F1.104485
ssS'ref1'
p74
(dp75
I0
F7406.5233333333335
sI1
F6708.306666666667
sI2
F6082.406666666667
sI3
F6660.053333333333
sI4
F6679.703333333334
sI5
F6658.206666666667
sI6
F6835.303333333333
sI7
F6554.09
sI8
F7063.59
sI9
F6923.783333333334
sI10
F6685.570000000001
sI11
F6548.03
sI12
F6830.863333333333
sI13
F7292.096666666666
sI14
F7096.38
ssS'ref3'
p76
(dp77
I0
F12251.503333333332
sI1
F11186.133333333333
sI2
F10172.253333333332
sI3
F11016.886666666665
sI4
F11155.41
sI5
F11108.543333333333
sI6
F11394.003333333332
sI7
F10904.269999999999
sI8
F11748.616666666667
sI9
F11511.653333333332
sI10
F11086.42
sI11
F10926.643333333333
sI12
F11337.983333333334
sI13
F12090.273333333334
sI14
F11776.53
ssS'ref1bkg'
p78
(dp79
I0
F-0.1665149
sI1
F4.230729
sI2
F6.316978
sI3
F4.214854
sI4
F2.622711
sI5
F3.853176
sI6
F2.381308
sI7
F2.329081
sI8
F1.135238
sI9
F1.702819
sI10
F2.201174
sI11
F3.408859
sI12
F2.539871
sI13
F0.7883793
sI14
F1.40944
ssS'ref1mag'
p80
(dp81
I0
F11.326
sI1
F11.433
sI2
F11.54
sI3
F11.441
sI4
F11.438
sI5
F11.442
sI6
F11.413
sI7
F11.459
sI8
F11.377
sI9
F11.399
sI10
F11.437
sI11
F11.46
sI12
F11.414
sI13
F11.343
sI14
F11.372
ssS'ref3magerr'
p82
(dp83
I0
F0.002
sI1
F0.002
sI2
F0.002
sI3
F0.002
sI4
F0.002
sI5
F0.002
sI6
F0.002
sI7
F0.002
sI8
F0.002
sI9
F0.002
sI10
F0.002
sI11
F0.002
sI12
F0.002
sI13
F0.002
sI14
F0.002
ssS'tabbymagmean'
p84
(dp85
I0
F0.4366782105713648
sI1
Fnan
sI2
Fnan
sI3
Fnan
sI4
Fnan
sI5
Fnan
sI6
Fnan
sI7
Fnan
sI8
Fnan
sI9
Fnan
sI10
Fnan
sI11
Fnan
sI12
Fnan
sI13
Fnan
sI14
Fnan
ssS'ref1magmean'
p86
(dp87
I0
F11.419599999999999
sI1
Fnan
sI2
Fnan
sI3
Fnan
sI4
Fnan
sI5
Fnan
sI6
Fnan
sI7
Fnan
sI8
Fnan
sI9
Fnan
sI10
Fnan
sI11
Fnan
sI12
Fnan
sI13
Fnan
sI14
Fnan
ssS'ref2mag'
p88
(dp89
I0
F11.123
sI1
F11.227
sI2
F11.329
sI3
F11.238
sI4
F11.227
sI5
F11.227
sI6
F11.202
sI7
F11.253
sI8
F11.171
sI9
F11.193
sI10
F11.231
sI11
F11.247
sI12
F11.195
sI13
F11.134
sI14
F11.161
ssS'ref3rms'
p90
(dp91
I0
F3.978259
sI1
F3.40847
sI2
F-2.167008
sI3
F-3.305818
sI4
F2.715116
sI5
F3.182717
sI6
F3.602746
sI7
F4.378233
sI8
F4.786272
sI9
F3.661268
sI10
F-1.360165
sI11
F3.513775
sI12
F4.538001
sI13
F3.062222
sI14
F3.705012
ssS'ref3magmeanerr'
p92
(dp93
I0
F0.04997494610397542
sI1
Fnan
sI2
Fnan
sI3
Fnan
sI4
Fnan
sI5
Fnan
sI6
Fnan
sI7
Fnan
sI8
Fnan
sI9
Fnan
sI10
Fnan
sI11
Fnan
sI12
Fnan
sI13
Fnan
sI14
Fnan
ssS'ref1rel'
p94
(dp95
I0
F0.6993231509870106
sI1
F0.6950555537231727
sI2
F0.692901575328642
sI3
F0.6994004212121058
sI4
F0.6932599958070438
sI5
F0.6927164207780038
sI6
F0.6941040835744791
sI7
F0.6961665338343549
sI8
F0.6961070829360593
sI9
F0.6964261945179364
sI10
F0.6973965560135893
sI11
F0.6931781511558298
sI12
F0.6937020558946896
sI13
F0.6967329689090697
sI14
F0.6958859027890822
ssS'exposure'
p96
(dp97
I0
F30.0
sI1
F30.0
sI2
F30.0
sI3
F30.0
sI4
F30.0
sI5
F30.0
sI6
F30.0
sI7
F30.0
sI8
F30.0
sI9
F30.0
sI10
F30.0
sI11
F30.0
sI12
F30.0
sI13
F30.0
sI14
F30.0
ssS'ref1magerr'
p98
(dp99
I0
F0.002
sI1
F0.002
sI2
F0.002
sI3
F0.002
sI4
F0.002
sI5
F0.002
sI6
F0.002
sI7
F0.002
sI8
F0.002
sI9
F0.002
sI10
F0.002
sI11
F0.002
sI12
F0.002
sI13
F0.002
sI14
F0.002
ssS'ref2magerr'
p100
(dp101
I0
F0.002
sI1
F0.002
sI2
F0.002
sI3
F0.002
sI4
F0.002
sI5
F0.002
sI6
F0.002
sI7
F0.002
sI8
F0.002
sI9
F0.002
sI10
F0.002
sI11
F0.002
sI12
F0.002
sI13
F0.002
sI14
F0.002
ssS'ref2rms'
p102
(dp103
I0
F-2.962801
sI1
F2.44968
sI2
F4.744505
sI3
F4.685014
sI4
F-2.817016
sI5
F3.732008
sI6
F2.805263
sI7
F3.196691
sI8
F-1.631246
sI9
F3.527544
sI10
F3.111361
sI11
F4.136577
sI12
F3.87782
sI13
F4.124358
sI14
F2.489292
ssS'name'
p104
(dp105
I0
S"KIC8462852-20181108at025008_-25-1X1-030-i'_cal.fts.mag.1"
p106
sI1
S"KIC8462852-20181108at014758_-25-1X1-030-i'_cal.fts.mag.1"
p107
sI2
S"KIC8462852-20181108at014537_-25-1X1-030-i'_cal.fts.mag.1"
p108
sI3
S"KIC8462852-20181108at014648_-25-1X1-030-i'_cal.fts.mag.1"
p109
sI4
S"KIC8462852-20181108at022013_-25-1X1-030-i'_cal.fts.mag.1"
p110
sI5
S"KIC8462852-20181108at014904_-25-1X1-030-i'_cal.fts.mag.1"
p111
sI6
S"KIC8462852-20181108at021747_-25-1X1-030-i'_cal.fts.mag.1"
p112
sI7
S"KIC8462852-20181108at021901_-25-1X1-030-i'_cal.fts.mag.1"
p113
sI8
S"KIC8462852-20181108at024744_-25-1X1-030-i'_cal.fts.mag.1"
p114
sI9
S"KIC8462852-20181108at024523_-25-1X1-030-i'_cal.fts.mag.1"
p115
sI10
S"KIC8462852-20181108at015014_-25-1X1-030-i'_cal.fts.mag.1"
p116
sI11
S"KIC8462852-20181108at021523_-25-1X1-030-i'_cal.fts.mag.1"
p117
sI12
S"KIC8462852-20181108at021637_-25-1X1-030-i'_cal.fts.mag.1"
p118
sI13
S"KIC8462852-20181108at024856_-25-1X1-030-i'_cal.fts.mag.1"
p119
sI14
S"KIC8462852-20181108at024637_-25-1X1-030-i'_cal.fts.mag.1"
p120
ssS'ref3err'
p121
(dp122
I0
F0.004708325301020031
sI1
Fnan
sI2
Fnan
sI3
Fnan
sI4
Fnan
sI5
Fnan
sI6
Fnan
sI7
Fnan
sI8
Fnan
sI9
Fnan
sI10
Fnan
sI11
Fnan
sI12
Fnan
sI13
Fnan
sI14
Fnan
ssS'tabby'
p123
(dp124
I0
F4177.66
sI1
F3794.3233333333333
sI2
F3424.6233333333334
sI3
F3739.2466666666664
sI4
F3766.4700000000003
sI5
F3750.23
sI6
F3852.18
sI7
F3725.9100000000003
sI8
F4003.4733333333334
sI9
F3895.663333333333
sI10
F3745.61
sI11
F3701.6766666666667
sI12
F3865.32
sI13
F4104.846666666666
sI14
F4009.7433333333333
ssS'ref1magmeanerr'
p125
(dp126
I0
F0.052555820664454175
sI1
Fnan
sI2
Fnan
sI3
Fnan
sI4
Fnan
sI5
Fnan
sI6
Fnan
sI7
Fnan
sI8
Fnan
sI9
Fnan
sI10
Fnan
sI11
Fnan
sI12
Fnan
sI13
Fnan
sI14
Fnan
ssS'filter'
p127
(dp128
I0
S"i'"
p129
sI1
S"i'"
p130
sI2
S"i'"
p131
sI3
S"i'"
p132
sI4
S"i'"
p133
sI5
S"i'"
p134
sI6
S"i'"
p135
sI7
S"i'"
p136
sI8
S"i'"
p137
sI9
S"i'"
p138
sI10
S"i'"
p139
sI11
S"i'"
p140
sI12
S"i'"
p141
sI13
S"i'"
p142
sI14
S"i'"
p143
ssS'tabbymagerr'
p144
(dp145
I0
F0.0016905468495272873
sI1
Fnan
sI2
Fnan
sI3
Fnan
sI4
Fnan
sI5
Fnan
sI6
Fnan
sI7
Fnan
sI8
Fnan
sI9
Fnan
sI10
Fnan
sI11
Fnan
sI12
Fnan
sI13
Fnan
sI14
Fnan
ssS'tabbyrms'
p146
(dp147
I0
F3.3856
sI1
F2.584074
sI2
F3.30793
sI3
F2.946485
sI4
F3.955628
sI5
F2.200034
sI6
F4.378288
sI7
F4.555685
sI8
F3.557344
sI9
F3.76697
sI10
F2.36485
sI11
F2.23494
sI12
F-1.440088
sI13
F2.502838
sI14
F-4.222876
ssS'ref3mean'
p148
(dp149
I0
F1.503411851041254
sI1
Fnan
sI2
Fnan
sI3
Fnan
sI4
Fnan
sI5
Fnan
sI6
Fnan
sI7
Fnan
sI8
Fnan
sI9
Fnan
sI10
Fnan
sI11
Fnan
sI12
Fnan
sI13
Fnan
sI14
Fnan
ssS'median_JD'
p150
(dp151
I0
F2458430.5956828706
sI1
Fnan
sI2
Fnan
sI3
Fnan
sI4
Fnan
sI5
Fnan
sI6
Fnan
sI7
Fnan
sI8
Fnan
sI9
Fnan
sI10
Fnan
sI11
Fnan
sI12
Fnan
sI13
Fnan
sI14
Fnan
ssS'error'
p152
(dp153
I0
F0.0016905468495272873
sI1
Fnan
sI2
Fnan
sI3
Fnan
sI4
Fnan
sI5
Fnan
sI6
Fnan
sI7
Fnan
sI8
Fnan
sI9
Fnan
sI10
Fnan
sI11
Fnan
sI12
Fnan
sI13
Fnan
sI14
Fnan
ssS'ref3bkg'
p154
(dp155
I0
F1.358991
sI1
F5.359906
sI2
F8.921787
sI3
F6.385501
sI4
F5.144703
sI5
F5.771509
sI6
F4.438864
sI7
F5.064731
sI8
F2.059163
sI9
F3.604189
sI10
F5.152452
sI11
F6.297218
sI12
F3.789508
sI13
F2.022911
sI14
F2.068208
ssS'ref3mag'
p156
(dp157
I0
F10.78
sI1
F10.878
sI2
F10.981
sI3
F10.895
sI4
F10.881
sI5
F10.886
sI6
F10.858
sI7
F10.906
sI8
F10.825
sI9
F10.847
sI10
F10.888
sI11
F10.904
sI12
F10.864
sI13
F10.794
sI14
F10.822
ssS'mean'
p158
(dp159
I0
F0.4366782105713648
sI1
Fnan
sI2
Fnan
sI3
Fnan
sI4
Fnan
sI5
Fnan
sI6
Fnan
sI7
Fnan
sI8
Fnan
sI9
Fnan
sI10
Fnan
sI11
Fnan
sI12
Fnan
sI13
Fnan
sI14
Fnan
sssS'r'
p160
(dp161
g3
(dp162
I0
F0.54904245283189
sI1
Fnan
sI2
Fnan
sI3
Fnan
sI4
Fnan
sI5
Fnan
sI6
Fnan
sI7
Fnan
sI8
Fnan
sI9
Fnan
sI10
Fnan
sI11
Fnan
sI12
Fnan
sI13
Fnan
sI14
Fnan
ssg5
(dp163
I0
S'NoError'
p164
sI1
S'NoError'
p165
sI2
S'NoError'
p166
sI3
S'NoError'
p167
sI4
S'NoError'
p168
sI5
S'NoError'
p169
sI6
S'NoError'
p170
sI7
S'NoError'
p171
sI8
S'NoError'
p172
sI9
S'NoError'
p173
sI10
S'NoError'
p174
sI11
S'NoError'
p175
sI12
S'NoError'
p176
sI13
S'NoError'
p177
sI14
S'NoError'
p178
ssg22
(dp179
I0
F0.002
sI1
F0.002
sI2
F0.002
sI3
F0.002
sI4
F0.002
sI5
F0.002
sI6
F0.002
sI7
F0.002
sI8
F0.002
sI9
F0.002
sI10
F0.002
sI11
F0.002
sI12
F0.002
sI13
F0.002
sI14
F0.002
ssg24
(dp180
I0
F0.8961518881315003
sI1
F0.896117753046963
sI2
F0.8989086557299372
sI3
F0.8948763586721733
sI4
F0.8958411904060766
sI5
F0.8975358118407029
sI6
F0.8943674019948333
sI7
F0.8914769899677165
sI8
F0.8927110252923393
sI9
F0.8928411023484198
sI10
F0.8911418141761441
sI11
F0.8967956906385651
sI12
F0.8894975135686102
sI13
F0.8909053711013339
sI14
F0.8915334197659134
ssg26
(dp181
I0
F0.00281907795369392
sI1
Fnan
sI2
Fnan
sI3
Fnan
sI4
Fnan
sI5
Fnan
sI6
Fnan
sI7
Fnan
sI8
Fnan
sI9
Fnan
sI10
Fnan
sI11
Fnan
sI12
Fnan
sI13
Fnan
sI14
Fnan
ssg28
(dp182
I0
F0.8940467991120822
sI1
Fnan
sI2
Fnan
sI3
Fnan
sI4
Fnan
sI5
Fnan
sI6
Fnan
sI7
Fnan
sI8
Fnan
sI9
Fnan
sI10
Fnan
sI11
Fnan
sI12
Fnan
sI13
Fnan
sI14
Fnan
ssg30
(dp183
I0
F11.299
sI1
F11.394
sI2
F11.308
sI3
F11.294
sI4
F11.29
sI5
F11.353
sI6
F11.375
sI7
F11.261
sI8
F11.276
sI9
F11.425
sI10
F11.265
sI11
F11.316
sI12
F11.327
sI13
F11.292
sI14
F11.327
ssg32
(dp184
I0
F1.902569
sI1
F6.111873
sI2
F3.009869
sI3
F2.317151
sI4
F2.724958
sI5
F3.024566
sI6
F8.092041
sI7
F1.381992
sI8
F2.241662
sI9
F4.065357
sI10
F1.554346
sI11
F4.981639
sI12
F4.190021
sI13
F2.753612
sI14
F6.265545
ssg34
(dp185
I0
F2458430.590787037
sI1
F2458430.571689815
sI2
F2458430.589988426
sI3
F2458430.611655093
sI4
F2458430.6140393517
sI5
F2458430.592395833
sI6
F2458430.5700231483
sI7
F2458430.6124189813
sI8
F2458430.6108680554
sI9
F2458430.5932060187
sI10
F2458430.6132291667
sI11
F2458430.5708680553
sI12
F2458430.5725347223
sI13
F2458430.5916087963
sI14
F2458430.569212963
ssg36
(dp186
I0
F2.0878820333333334
sI1
Fnan
sI2
Fnan
sI3
Fnan
sI4
Fnan
sI5
Fnan
sI6
Fnan
sI7
Fnan
sI8
Fnan
sI9
Fnan
sI10
Fnan
sI11
Fnan
sI12
Fnan
sI13
Fnan
sI14
Fnan
ssg38
(dp187
I0
F2.445816
sI1
Fnan
sI2
Fnan
sI3
Fnan
sI4
Fnan
sI5
Fnan
sI6
Fnan
sI7
Fnan
sI8
Fnan
sI9
Fnan
sI10
Fnan
sI11
Fnan
sI12
Fnan
sI13
Fnan
sI14
Fnan
ssg40
(dp188
I0
F0.5530800783116043
sI1
F0.5487971601884474
sI2
F0.5462596799741958
sI3
F0.5463836737032872
sI4
F0.5463108843046569
sI5
F0.5472406132537095
sI6
F0.5445709055837652
sI7
F0.5520651718975631
sI8
F0.5516297040700037
sI9
F0.5480786973601512
sI10
F0.549601624758311
sI11
F0.5508109925038601
sI12
F0.5495964242462241
sI13
F0.5490203920635076
sI14
F0.5517568684906539
ssg42
(dp189
I0
F0.002027817043685384
sI1
Fnan
sI2
Fnan
sI3
Fnan
sI4
Fnan
sI5
Fnan
sI6
Fnan
sI7
Fnan
sI8
Fnan
sI9
Fnan
sI10
Fnan
sI11
Fnan
sI12
Fnan
sI13
Fnan
sI14
Fnan
ssg44
(dp190
I0
F1.9295190000000002
sI1
Fnan
sI2
Fnan
sI3
Fnan
sI4
Fnan
sI5
Fnan
sI6
Fnan
sI7
Fnan
sI8
Fnan
sI9
Fnan
sI10
Fnan
sI11
Fnan
sI12
Fnan
sI13
Fnan
sI14
Fnan
ssg46
(dp191
I0
g164
sI1
g165
sI2
g166
sI3
g167
sI4
g168
sI5
g169
sI6
g170
sI7
g171
sI8
g172
sI9
g173
sI10
g174
sI11
g175
sI12
g176
sI13
g177
sI14
g178
ssg48
(dp192
I0
F0.002072458470011733
sI1
Fnan
sI2
Fnan
sI3
Fnan
sI4
Fnan
sI5
Fnan
sI6
Fnan
sI7
Fnan
sI8
Fnan
sI9
Fnan
sI10
Fnan
sI11
Fnan
sI12
Fnan
sI13
Fnan
sI14
Fnan
ssg50
(dp193
I0
F0.04593421797475591
sI1
Fnan
sI2
Fnan
sI3
Fnan
sI4
Fnan
sI5
Fnan
sI6
Fnan
sI7
Fnan
sI8
Fnan
sI9
Fnan
sI10
Fnan
sI11
Fnan
sI12
Fnan
sI13
Fnan
sI14
Fnan
ssg52
(dp194
I0
F2.7005901999999997
sI1
Fnan
sI2
Fnan
sI3
Fnan
sI4
Fnan
sI5
Fnan
sI6
Fnan
sI7
Fnan
sI8
Fnan
sI9
Fnan
sI10
Fnan
sI11
Fnan
sI12
Fnan
sI13
Fnan
sI14
Fnan
ssg54
(dp195
I0
F1.4924030860448205
sI1
F1.4970998400197237
sI2
F1.4979653775156134
sI3
F1.5006167182897163
sI4
F1.4990818670511308
sI5
F1.4940888684333888
sI6
F1.4973660007141987
sI7
F1.5007358792672059
sI8
F1.494557672430604
sI9
F1.4993849219448852
sI10
F1.5042598700316598
sI11
F1.4997667440173603
sI12
F1.5062664587103314
sI13
F1.4992842336271497
sI14
F1.4995123860325557
ssg56
(dp196
I0
g164
sI1
g165
sI2
g166
sI3
g167
sI4
g168
sI5
g169
sI6
g170
sI7
g171
sI8
g172
sI9
g173
sI10
g174
sI11
g175
sI12
g176
sI13
g177
sI14
g178
ssg58
(dp197
I0
F4.729949
sI1
F9.07993
sI2
F4.227138
sI3
F3.633333
sI4
F4.05788
sI5
F5.893211
sI6
F9.459064
sI7
F3.513179
sI8
F3.519177
sI9
F7.123636
sI10
F3.016959
sI11
F6.910139
sI12
F6.803973
sI13
F5.559897
sI14
F9.881645
ssg60
(dp198
I0
F10.396666666666667
sI1
Fnan
sI2
Fnan
sI3
Fnan
sI4
Fnan
sI5
Fnan
sI6
Fnan
sI7
Fnan
sI8
Fnan
sI9
Fnan
sI10
Fnan
sI11
Fnan
sI12
Fnan
sI13
Fnan
sI14
Fnan
ssg62
(dp199
I0
F0.7125842678340892
sI1
Fnan
sI2
Fnan
sI3
Fnan
sI4
Fnan
sI5
Fnan
sI6
Fnan
sI7
Fnan
sI8
Fnan
sI9
Fnan
sI10
Fnan
sI11
Fnan
sI12
Fnan
sI13
Fnan
sI14
Fnan
ssg64
(dp200
I0
F3.683713
sI1
F-1.074572
sI2
F3.529357
sI3
F2.726996
sI4
F3.514214
sI5
F1.337791
sI6
F2.649148
sI7
F-2.060291
sI8
F2.07509
sI9
F3.470345
sI10
F2.954826
sI11
F2.134771
sI12
F3.339672
sI13
F4.011278
sI14
F4.394902
ssg66
(dp201
I0
F10.751666666666667
sI1
Fnan
sI2
Fnan
sI3
Fnan
sI4
Fnan
sI5
Fnan
sI6
Fnan
sI7
Fnan
sI8
Fnan
sI9
Fnan
sI10
Fnan
sI11
Fnan
sI12
Fnan
sI13
Fnan
sI14
Fnan
ssg68
(dp202
I0
g164
sI1
g165
sI2
g166
sI3
g167
sI4
g168
sI5
g169
sI6
g170
sI7
g171
sI8
g172
sI9
g173
sI10
g174
sI11
g175
sI12
g176
sI13
g177
sI14
g178
ssg70
(dp203
I0
F12738.82
sI1
F11762.24
sI2
F12824.283333333333
sI3
F12946.4
sI4
F13005.083333333334
sI5
F12271.456666666667
sI6
F12049.786666666665
sI7
F13178.356666666667
sI8
F13014.41
sI9
F11423.890000000001
sI10
F13181.003333333332
sI11
F12599.453333333333
sI12
F12438.343333333332
sI13
F12867.846666666668
sI14
F12406.393333333333
ssg72
(dp204
I0
F1.0560100000000001
sI1
F1.030404
sI2
F1.054708
sI3
F1.095318
sI4
F1.100676
sI5
F1.058571
sI6
F1.0286
sI7
F1.0970309999999999
sI8
F1.0936299999999999
sI9
F1.0599100000000001
sI10
F1.098845
sI11
F1.0295100000000001
sI12
F1.031341
sI13
F1.05729
sI14
F1.027752
ssg74
(dp205
I0
F10837.42
sI1
F9977.94
sI2
F10822.2
sI3
F10981.326666666666
sI4
F11023.753333333332
sI5
F10404.686666666666
sI6
F10250.269999999999
sI7
F11241.41
sI8
F11121.096666666668
sI9
F9730.606666666667
sI10
F11225.453333333333
sI11
F10658.256666666666
sI12
F10609.230000000001
sI13
F10997.016666666666
sI14
F10589.94
ssg76
(dp206
I0
F17592.626666666667
sI1
F16273.609999999999
sI2
F17710.806666666664
sI3
F17953.173333333332
sI4
F18010.596666666668
sI5
F16940.086666666666
sI6
F16695.673333333332
sI7
F18323.81
sI8
F18035.95333333333
sI9
F15859.366666666667
sI10
F18356.826666666668
sI11
F17440.57
sI12
F17357.893333333333
sI13
F17890.106666666667
sI14
F17241.643333333333
ssg78
(dp207
I0
F4.498115
sI1
F8.283731
sI2
F4.673493
sI3
F2.998083
sI4
F3.29363
sI5
F5.479366
sI6
F8.719799
sI7
F2.235336
sI8
F2.476113
sI9
F6.995021
sI10
F3.418583
sI11
F7.051142
sI12
F5.65767
sI13
F4.014256
sI14
F7.964252
ssg80
(dp208
I0
F10.913
sI1
F11.002
sI2
F10.914
sI3
F10.898
sI4
F10.894
sI5
F10.957
sI6
F10.973
sI7
F10.873
sI8
F10.885
sI9
F11.03
sI10
F10.874
sI11
F10.931
sI12
F10.936
sI13
F10.897
sI14
F10.938
ssg82
(dp209
I0
F0.001
sI1
F0.001
sI2
F0.001
sI3
F0.001
sI4
F0.001
sI5
F0.001
sI6
F0.001
sI7
F0.001
sI8
F0.001
sI9
F0.001
sI10
F0.001
sI11
F0.001
sI12
F0.001
sI13
F0.001
sI14
F0.001
ssg84
(dp210
I0
F0.549013524713996
sI1
Fnan
sI2
Fnan
sI3
Fnan
sI4
Fnan
sI5
Fnan
sI6
Fnan
sI7
Fnan
sI8
Fnan
sI9
Fnan
sI10
Fnan
sI11
Fnan
sI12
Fnan
sI13
Fnan
sI14
Fnan
ssg86
(dp211
I0
F10.927666666666665
sI1
Fnan
sI2
Fnan
sI3
Fnan
sI4
Fnan
sI5
Fnan
sI6
Fnan
sI7
Fnan
sI8
Fnan
sI9
Fnan
sI10
Fnan
sI11
Fnan
sI12
Fnan
sI13
Fnan
sI14
Fnan
ssg88
(dp212
I0
F10.737
sI1
F10.824
sI2
F10.73
sI3
F10.72
sI4
F10.715
sI5
F10.778
sI6
F10.798
sI7
F10.7
sI8
F10.714
sI9
F10.855
sI10
F10.7
sI11
F10.749
sI12
F10.763
sI13
F10.726
sI14
F10.766
ssg90
(dp213
I0
F3.967555
sI1
F3.246441
sI2
F1.43725
sI3
F-2.285964
sI4
F-1.134736
sI5
F-2.822304
sI6
F4.615286
sI7
F2.614477
sI8
F3.153418
sI9
F4.313284
sI10
F3.946094
sI11
F3.847362
sI12
F-0.8312395
sI13
F4.209596
sI14
F3.041711
ssg92
(dp214
I0
F0.04646913978524847
sI1
Fnan
sI2
Fnan
sI3
Fnan
sI4
Fnan
sI5
Fnan
sI6
Fnan
sI7
Fnan
sI8
Fnan
sI9
Fnan
sI10
Fnan
sI11
Fnan
sI12
Fnan
sI13
Fnan
sI14
Fnan
ssg94
(dp215
I0
F0.7145996113604428
sI1
F0.71179864352249
sI2
F0.7088369479179529
sI3
F0.7107752944161472
sI4
F0.7108503397851237
sI5
F0.7123681585692778
sI6
F0.7131748804854748
sI7
F0.7136912275875203
sI8
F0.7163263467985186
sI9
F0.7133024320043905
sI10
F0.7118722710683222
sI11
F0.7096037541914915
sI12
F0.7121187899456208
sI13
F0.7150681677346108
sI14
F0.7143771521239575
ssg96
(dp216
I0
F30.0
sI1
F30.0
sI2
F30.0
sI3
F30.0
sI4
F30.0
sI5
F30.0
sI6
F30.0
sI7
F30.0
sI8
F30.0
sI9
F30.0
sI10
F30.0
sI11
F30.0
sI12
F30.0
sI13
F30.0
sI14
F30.0
ssg98
(dp217
I0
F0.002
sI1
F0.002
sI2
F0.002
sI3
F0.002
sI4
F0.002
sI5
F0.002
sI6
F0.002
sI7
F0.002
sI8
F0.002
sI9
F0.002
sI10
F0.002
sI11
F0.002
sI12
F0.002
sI13
F0.002
sI14
F0.002
ssg100
(dp218
I0
F0.002
sI1
F0.002
sI2
F0.002
sI3
F0.002
sI4
F0.002
sI5
F0.002
sI6
F0.002
sI7
F0.002
sI8
F0.002
sI9
F0.002
sI10
F0.002
sI11
F0.002
sI12
F0.002
sI13
F0.002
sI14
F0.002
ssg102
(dp219
I0
F3.73837
sI1
F3.161045
sI2
F1.889774
sI3
F3.338662
sI4
F3.210858
sI5
F4.223924
sI6
F3.518717
sI7
F2.074628
sI8
F4.115852
sI9
F3.351265
sI10
F3.896481
sI11
F4.873698
sI12
F3.93951
sI13
F-2.255778
sI14
F-2.568153
ssg104
(dp220
I0
S"KIC8462852-20181108at021044_-25-1X1-030-r'_cal.fts.mag.1"
p221
sI1
S"KIC8462852-20181108at014314_-25-1X1-030-r'_cal.fts.mag.1"
p222
sI2
S"KIC8462852-20181108at020934_-25-1X1-030-r'_cal.fts.mag.1"
p223
sI3
S"KIC8462852-20181108at024047_-25-1X1-030-r'_cal.fts.mag.1"
p224
sI4
S"KIC8462852-20181108at024413_-25-1X1-030-r'_cal.fts.mag.1"
p225
sI5
S"KIC8462852-20181108at021303_-25-1X1-030-r'_cal.fts.mag.1"
p226
sI6
S"KIC8462852-20181108at014050_-25-1X1-030-r'_cal.fts.mag.1"
p227
sI7
S"KIC8462852-20181108at024153_-25-1X1-030-r'_cal.fts.mag.1"
p228
sI8
S"KIC8462852-20181108at023938_-25-1X1-030-r'_cal.fts.mag.1"
p229
sI9
S"KIC8462852-20181108at021413_-25-1X1-030-r'_cal.fts.mag.1"
p230
sI10
S"KIC8462852-20181108at024303_-25-1X1-030-r'_cal.fts.mag.1"
p231
sI11
S"KIC8462852-20181108at014203_-25-1X1-030-r'_cal.fts.mag.1"
p232
sI12
S"KIC8462852-20181108at014427_-25-1X1-030-r'_cal.fts.mag.1"
p233
sI13
S"KIC8462852-20181108at021155_-25-1X1-030-r'_cal.fts.mag.1"
p234
sI14
S"KIC8462852-20181108at013938_-25-1X1-030-r'_cal.fts.mag.1"
p235
ssg121
(dp236
I0
F0.0036001031893325664
sI1
Fnan
sI2
Fnan
sI3
Fnan
sI4
Fnan
sI5
Fnan
sI6
Fnan
sI7
Fnan
sI8
Fnan
sI9
Fnan
sI10
Fnan
sI11
Fnan
sI12
Fnan
sI13
Fnan
sI14
Fnan
ssg123
(dp237
I0
F7589.8933333333325
sI1
F6953.953333333334
sI2
F7530.6066666666675
sI3
F7627.679999999999
sI4
F7655.533333333334
sI5
F7226.536666666667
sI6
F7078.6466666666665
sI7
F7865.746666666667
sI8
F7754.343333333333
sI9
F6762.17
sI10
F7834.256666666667
sI11
F7472.3533333333335
sI12
F7402.233333333334
sI13
F7641.443333333333
sI14
F7400.526666666667
ssg125
(dp238
I0
F0.04640299661916354
sI1
Fnan
sI2
Fnan
sI3
Fnan
sI4
Fnan
sI5
Fnan
sI6
Fnan
sI7
Fnan
sI8
Fnan
sI9
Fnan
sI10
Fnan
sI11
Fnan
sI12
Fnan
sI13
Fnan
sI14
Fnan
ssg127
(dp239
I0
S"r'"
p240
sI1
S"r'"
p241
sI2
S"r'"
p242
sI3
S"r'"
p243
sI4
S"r'"
p244
sI5
S"r'"
p245
sI6
S"r'"
p246
sI7
S"r'"
p247
sI8
S"r'"
p248
sI9
S"r'"
p249
sI10
S"r'"
p250
sI11
S"r'"
p251
sI12
S"r'"
p252
sI13
S"r'"
p253
sI14
S"r'"
p254
ssg144
(dp255
I0
F0.002531813964069038
sI1
Fnan
sI2
Fnan
sI3
Fnan
sI4
Fnan
sI5
Fnan
sI6
Fnan
sI7
Fnan
sI8
Fnan
sI9
Fnan
sI10
Fnan
sI11
Fnan
sI12
Fnan
sI13
Fnan
sI14
Fnan
ssg146
(dp256
I0
F3.021093
sI1
F3.623989
sI2
F2.503598
sI3
F2.754051
sI4
F-2.508104
sI5
F4.623194
sI6
F-2.943322
sI7
F2.603548
sI8
F-2.647645
sI9
F3.964919
sI10
F3.274227
sI11
F3.349257
sI12
F4.149323
sI13
F-2.054246
sI14
F5.228903
ssg148
(dp257
I0
F1.4988259949420233
sI1
Fnan
sI2
Fnan
sI3
Fnan
sI4
Fnan
sI5
Fnan
sI6
Fnan
sI7
Fnan
sI8
Fnan
sI9
Fnan
sI10
Fnan
sI11
Fnan
sI12
Fnan
sI13
Fnan
sI14
Fnan
ssg150
(dp258
I0
F2458430.5916087963
sI1
Fnan
sI2
Fnan
sI3
Fnan
sI4
Fnan
sI5
Fnan
sI6
Fnan
sI7
Fnan
sI8
Fnan
sI9
Fnan
sI10
Fnan
sI11
Fnan
sI12
Fnan
sI13
Fnan
sI14
Fnan
ssg152
(dp259
I0
F0.002531813964069038
sI1
Fnan
sI2
Fnan
sI3
Fnan
sI4
Fnan
sI5
Fnan
sI6
Fnan
sI7
Fnan
sI8
Fnan
sI9
Fnan
sI10
Fnan
sI11
Fnan
sI12
Fnan
sI13
Fnan
sI14
Fnan
ssg154
(dp260
I0
F7.228583
sI1
F13.16244
sI2
F7.320586
sI3
F5.632521
sI4
F5.415918
sI5
F8.959867
sI6
F12.35306
sI7
F4.219159
sI8
F5.095789
sI9
F11.4733
sI10
F4.588128
sI11
F9.935071
sI12
F9.934756
sI13
F6.441213
sI14
F11.794
ssg156
(dp261
I0
F10.387
sI1
F10.471
sI2
F10.379
sI3
F10.365
sI4
F10.361
sI5
F10.428
sI6
F10.443
sI7
F10.342
sI8
F10.36
sI9
F10.499
sI10
F10.341
sI11
F10.396
sI12
F10.401
sI13
F10.368
sI14
F10.409
ssg158
(dp262
I0
F0.549013524713996
sI1
Fnan
sI2
Fnan
sI3
Fnan
sI4
Fnan
sI5
Fnan
sI6
Fnan
sI7
Fnan
sI8
Fnan
sI9
Fnan
sI10
Fnan
sI11
Fnan
sI12
Fnan
sI13
Fnan
sI14
Fnan
sssS'z'
p263
(dp264
g3
(dp265
I0
F0.36718408047455564
sI1
Fnan
sI2
Fnan
sI3
Fnan
sI4
Fnan
sI5
Fnan
sI6
Fnan
sI7
Fnan
sI8
Fnan
sI9
Fnan
sI10
Fnan
sI11
Fnan
sI12
Fnan
sI13
Fnan
sI14
Fnan
ssg5
(dp266
I0
S'NoError'
p267
sI1
S'NoError'
p268
sI2
S'NoError'
p269
sI3
S'NoError'
p270
sI4
S'NoError'
p271
sI5
S'NoError'
p272
sI6
S'NoError'
p273
sI7
S'NoError'
p274
sI8
S'NoError'
p275
sI9
S'NoError'
p276
sI10
S'NoError'
p277
sI11
S'NoError'
p278
sI12
S'NoError'
p279
sI13
S'NoError'
p280
sI14
S'NoError'
p281
ssg22
(dp282
I0
F0.008
sI1
F0.008
sI2
F0.008
sI3
F0.007
sI4
F0.007
sI5
F0.007
sI6
F0.008
sI7
F0.008
sI8
F0.007
sI9
F0.007
sI10
F0.007
sI11
F0.007
sI12
F0.008
sI13
F0.007
sI14
F0.007
ssg24
(dp283
I0
F0.910824262700746
sI1
F0.9171681125007797
sI2
F0.907840287542279
sI3
F0.9145962784910658
sI4
F0.9146646921296805
sI5
F0.9197441910245685
sI6
F0.9128260481588453
sI7
F0.9232135708983352
sI8
F0.9113560435304371
sI9
F0.91591695643239
sI10
F0.9164447450284785
sI11
F0.9168659945104554
sI12
F0.9111858223890955
sI13
F0.9142695282825896
sI14
F0.9160827387230972
ssg26
(dp284
I0
F0.003817684549145586
sI1
Fnan
sI2
Fnan
sI3
Fnan
sI4
Fnan
sI5
Fnan
sI6
Fnan
sI7
Fnan
sI8
Fnan
sI9
Fnan
sI10
Fnan
sI11
Fnan
sI12
Fnan
sI13
Fnan
sI14
Fnan
ssg28
(dp285
I0
F0.9148666181561895
sI1
Fnan
sI2
Fnan
sI3
Fnan
sI4
Fnan
sI5
Fnan
sI6
Fnan
sI7
Fnan
sI8
Fnan
sI9
Fnan
sI10
Fnan
sI11
Fnan
sI12
Fnan
sI13
Fnan
sI14
Fnan
ssg30
(dp286
I0
F13.384
sI1
F13.425
sI2
F13.381
sI3
F13.345
sI4
F13.303
sI5
F13.312
sI6
F13.389
sI7
F13.417
sI8
F13.344
sI9
F13.324
sI10
F13.356
sI11
F13.331
sI12
F13.427
sI13
F13.338
sI14
F13.361
ssg32
(dp287
I0
F-1.424712
sI1
F-1.467032
sI2
F-1.111922
sI3
F-1.691518
sI4
F-3.214327
sI5
F-2.256583
sI6
F-1.98652
sI7
F-1.732078
sI8
F-3.234413
sI9
F-3.023894
sI10
F-2.003314
sI11
F-2.317408
sI12
F-1.185383
sI13
F-2.418269
sI14
F-1.744928
ssg34
(dp288
I0
F2458430.577361111
sI1
F2458430.5990277776
sI2
F2458430.5797685185
sI3
F2458430.599803241
sI4
F2458430.6189814815
sI5
F2458430.600613426
sI6
F2458430.578159722
sI7
F2458430.5982291666
sI8
F2458430.6014351854
sI9
F2458430.6214814815
sI10
F2458430.5805555554
sI11
F2458430.6206712965
sI12
F2458430.578935185
sI13
F2458430.619826389
sI14
F2458430.6222800924
ssg36
(dp289
I0
F1.5705421333333334
sI1
Fnan
sI2
Fnan
sI3
Fnan
sI4
Fnan
sI5
Fnan
sI6
Fnan
sI7
Fnan
sI8
Fnan
sI9
Fnan
sI10
Fnan
sI11
Fnan
sI12
Fnan
sI13
Fnan
sI14
Fnan
ssg38
(dp290
I0
F2.3224554
sI1
Fnan
sI2
Fnan
sI3
Fnan
sI4
Fnan
sI5
Fnan
sI6
Fnan
sI7
Fnan
sI8
Fnan
sI9
Fnan
sI10
Fnan
sI11
Fnan
sI12
Fnan
sI13
Fnan
sI14
Fnan
ssg40
(dp291
I0
F0.367685366690868
sI1
F0.36382882237653624
sI2
F0.36590840052706597
sI3
F0.36685685490833525
sI4
F0.37025511009125495
sI5
F0.37546335540381315
sI6
F0.366894096095895
sI7
F0.3688301201285851
sI8
F0.371983524563816
sI9
F0.3711961912833693
sI10
F0.37393630421068963
sI11
F0.36662897851147314
sI12
F0.36504441801159554
sI13
F0.36497420954611887
sI14
F0.36330695343431
ssg42
(dp292
I0
F0.0026224163112445885
sI1
Fnan
sI2
Fnan
sI3
Fnan
sI4
Fnan
sI5
Fnan
sI6
Fnan
sI7
Fnan
sI8
Fnan
sI9
Fnan
sI10
Fnan
sI11
Fnan
sI12
Fnan
sI13
Fnan
sI14
Fnan
ssg44
(dp293
I0
F1.668555466666667
sI1
Fnan
sI2
Fnan
sI3
Fnan
sI4
Fnan
sI5
Fnan
sI6
Fnan
sI7
Fnan
sI8
Fnan
sI9
Fnan
sI10
Fnan
sI11
Fnan
sI12
Fnan
sI13
Fnan
sI14
Fnan
ssg46
(dp294
I0
g267
sI1
g268
sI2
g269
sI3
g270
sI4
g271
sI5
g272
sI6
g273
sI7
g274
sI8
g275
sI9
g276
sI10
g277
sI11
g278
sI12
g279
sI13
g280
sI14
g281
ssg48
(dp295
I0
F0.003974238880223918
sI1
Fnan
sI2
Fnan
sI3
Fnan
sI4
Fnan
sI5
Fnan
sI6
Fnan
sI7
Fnan
sI8
Fnan
sI9
Fnan
sI10
Fnan
sI11
Fnan
sI12
Fnan
sI13
Fnan
sI14
Fnan
ssg50
(dp296
I0
F0.035687132535011136
sI1
Fnan
sI2
Fnan
sI3
Fnan
sI4
Fnan
sI5
Fnan
sI6
Fnan
sI7
Fnan
sI8
Fnan
sI9
Fnan
sI10
Fnan
sI11
Fnan
sI12
Fnan
sI13
Fnan
sI14
Fnan
ssg52
(dp297
I0
F2.4057046666666664
sI1
Fnan
sI2
Fnan
sI3
Fnan
sI4
Fnan
sI5
Fnan
sI6
Fnan
sI7
Fnan
sI8
Fnan
sI9
Fnan
sI10
Fnan
sI11
Fnan
sI12
Fnan
sI13
Fnan
sI14
Fnan
ssg54
(dp298
I0
F1.5104771351419635
sI1
F1.5034280771069934
sI2
F1.5137507327331885
sI3
F1.5171692466748299
sI4
F1.5008182843108435
sI5
F1.5005230609960385
sI6
F1.5127192724494718
sI7
F1.507735608033673
sI8
F1.5180044572624027
sI9
F1.5134698502532797
sI10
F1.5188215175624826
sI11
F1.5038193477975925
sI12
F1.5065188039633393
sI13
F1.5020381425569256
sI14
F1.510914350536662
ssg56
(dp299
I0
g267
sI1
g268
sI2
g269
sI3
g270
sI4
g271
sI5
g272
sI6
g273
sI7
g274
sI8
g275
sI9
g276
sI10
g277
sI11
g278
sI12
g279
sI13
g280
sI14
g281
ssg58
(dp300
I0
F-1.294781
sI1
F-1.901736
sI2
F-0.5468016
sI3
F-1.799626
sI4
F-2.916368
sI5
F-2.615476
sI6
F-0.5333315
sI7
F-2.225868
sI8
F-1.85702
sI9
F-2.307841
sI10
F-1.038348
sI11
F-2.065878
sI12
F-0.8978952
sI13
F-1.729746
sI14
F-2.032861
ssg60
(dp301
I0
F12.000933333333332
sI1
Fnan
sI2
Fnan
sI3
Fnan
sI4
Fnan
sI5
Fnan
sI6
Fnan
sI7
Fnan
sI8
Fnan
sI9
Fnan
sI10
Fnan
sI11
Fnan
sI12
Fnan
sI13
Fnan
sI14
Fnan
ssg62
(dp302
I0
F0.6883478063923916
sI1
Fnan
sI2
Fnan
sI3
Fnan
sI4
Fnan
sI5
Fnan
sI6
Fnan
sI7
Fnan
sI8
Fnan
sI9
Fnan
sI10
Fnan
sI11
Fnan
sI12
Fnan
sI13
Fnan
sI14
Fnan
ssg64
(dp303
I0
F3.011884
sI1
F2.842774
sI2
F3.413066
sI3
F-2.684156
sI4
F1.565422
sI5
F3.77994
sI6
F3.681884
sI7
F2.683103
sI8
F1.040725
sI9
F2.721964
sI10
F-2.489974
sI11
F3.819098
sI12
F3.345657
sI13
F3.858869
sI14
F4.246575
ssg66
(dp304
I0
F12.342999999999998
sI1
Fnan
sI2
Fnan
sI3
Fnan
sI4
Fnan
sI5
Fnan
sI6
Fnan
sI7
Fnan
sI8
Fnan
sI9
Fnan
sI10
Fnan
sI11
Fnan
sI12
Fnan
sI13
Fnan
sI14
Fnan
ssg68
(dp305
I0
g267
sI1
g268
sI2
g269
sI3
g270
sI4
g271
sI5
g272
sI6
g273
sI7
g274
sI8
g275
sI9
g276
sI10
g277
sI11
g278
sI12
g279
sI13
g280
sI14
g281
ssg70
(dp306
I0
F2842.0409999999997
sI1
F2778.7799999999997
sI2
F2855.493
sI3
F2959.1986666666667
sI4
F3048.8766666666666
sI5
F2994.1093333333333
sI6
F2838.686666666667
sI7
F2772.9676666666664
sI8
F2914.691
sI9
F2986.161
sI10
F2877.6913333333337
sI11
F3003.9176666666667
sI12
F2749.9483333333333
sI13
F2993.1773333333335
sI14
F2949.0923333333335
ssg72
(dp307
I0
F1.03701
sI1
F1.0699940000000001
sI2
F1.0400719999999999
sI3
F1.071412
sI4
F1.1122809999999999
sI5
F1.072942
sI6
F1.0380200000000002
sI7
F1.0685870000000002
sI8
F1.074484
sI9
F1.118433
sI10
F1.041107
sI11
F1.116441
sI12
F1.038992
sI13
F1.114327
sI14
F1.1205
ssg74
(dp308
I0
F2332.5446666666667
sI1
F2266.711333333333
sI2
F2350.472
sI3
F2403.2090000000003
sI4
F2501.5576666666666
sI5
F2436.423666666667
sI6
F2318.71
sI7
F2233.210666666667
sI8
F2378.692666666667
sI9
F2425.4433333333336
sI10
F2327.353
sI11
F2450.984
sI12
F2261.2470000000003
sI13
F2455.574666666667
sI14
F2398.561333333333
ssg76
(dp309
I0
F3908.0466666666666
sI1
F3792.766666666667
sI2
F3940.266666666667
sI3
F4067.8399999999997
sI4
F4165.096666666666
sI5
F4074.32
sI6
F3900.8466666666664
sI7
F3773.9966666666664
sI8
F4017.69
sI9
F4095.15
sI10
F3952.766666666667
sI11
F4101.593333333333
sI12
F3774.73
sI13
F4092.116666666667
sI14
F4039.923333333333
ssg78
(dp310
I0
F-0.9611147
sI1
F-1.097527
sI2
F-0.8827994
sI3
F-1.274768
sI4
F-2.800401
sI5
F-1.975973
sI6
F-1.190861
sI7
F-1.050361
sI8
F-2.346996
sI9
F-2.571351
sI10
F-0.3302445
sI11
F-2.422361
sI12
F-1.40776
sI13
F-3.679785
sI14
F-2.907596
ssg80
(dp311
I0
F12.58
sI1
F12.612
sI2
F12.572
sI3
F12.548
sI4
F12.504
sI5
F12.533
sI6
F12.587
sI7
F12.628
sI8
F12.559
sI9
F12.538
sI10
F12.583
sI11
F12.527
sI12
F12.614
sI13
F12.525
sI14
F12.55
ssg82
(dp312
I0
F0.003
sI1
F0.003
sI2
F0.003
sI3
F0.003
sI4
F0.003
sI5
F0.003
sI6
F0.003
sI7
F0.003
sI8
F0.003
sI9
F0.003
sI10
F0.003
sI11
F0.003
sI12
F0.003
sI13
F0.003
sI14
F0.003
ssg84
(dp313
I0
F0.36818618038558176
sI1
Fnan
sI2
Fnan
sI3
Fnan
sI4
Fnan
sI5
Fnan
sI6
Fnan
sI7
Fnan
sI8
Fnan
sI9
Fnan
sI10
Fnan
sI11
Fnan
sI12
Fnan
sI13
Fnan
sI14
Fnan
ssg86
(dp314
I0
F12.564
sI1
Fnan
sI2
Fnan
sI3
Fnan
sI4
Fnan
sI5
Fnan
sI6
Fnan
sI7
Fnan
sI8
Fnan
sI9
Fnan
sI10
Fnan
sI11
Fnan
sI12
Fnan
sI13
Fnan
sI14
Fnan
ssg88
(dp315
I0
F12.366
sI1
F12.39
sI2
F12.361
sI3
F12.322
sI4
F12.29
sI5
F12.309
sI6
F12.367
sI7
F12.393
sI8
F12.339
sI9
F12.312
sI10
F12.352
sI11
F12.306
sI12
F12.402
sI13
F12.31
sI14
F12.326
ssg90
(dp316
I0
F-2.256769
sI1
F3.56095
sI2
F-2.130901
sI3
F4.433555
sI4
F2.755257
sI5
F3.091866
sI6
F3.309037
sI7
F-2.500777
sI8
F-1.352084
sI9
F3.11652
sI10
F2.748853
sI11
F3.782894
sI12
F3.89533
sI13
F-2.651536
sI14
F3.755937
ssg92
(dp317
I0
F0.03524296620130979
sI1
Fnan
sI2
Fnan
sI3
Fnan
sI4
Fnan
sI5
Fnan
sI6
Fnan
sI7
Fnan
sI8
Fnan
sI9
Fnan
sI10
Fnan
sI11
Fnan
sI12
Fnan
sI13
Fnan
sI14
Fnan
ssg94
(dp318
I0
F0.6911153697114947
sI1
F0.6898562692496539
sI2
F0.6917466524100642
sI3
F0.6839891208795589
sI4
F0.6935311654418831
sI5
F0.6893819126625398
sI6
F0.6880921527702215
sI7
F0.6822125653859018
sI8
F0.6862556073206787
sI9
F0.685026637958235
sI10
F0.6814632342370014
sI11
F0.6898825432822494
sI12
F0.6931366986929369
sI13
F0.6931468663591566
sI14
F0.6863802995242964
ssg96
(dp319
I0
F30.0
sI1
F30.0
sI2
F30.0
sI3
F30.0
sI4
F30.0
sI5
F30.0
sI6
F30.0
sI7
F30.0
sI8
F30.0
sI9
F30.0
sI10
F30.0
sI11
F30.0
sI12
F30.0
sI13
F30.0
sI14
F30.0
ssg98
(dp320
I0
F0.004
sI1
F0.005
sI2
F0.004
sI3
F0.004
sI4
F0.004
sI5
F0.004
sI6
F0.004
sI7
F0.005
sI8
F0.004
sI9
F0.004
sI10
F0.004
sI11
F0.004
sI12
F0.005
sI13
F0.004
sI14
F0.004
ssg100
(dp321
I0
F0.004
sI1
F0.004
sI2
F0.004
sI3
F0.004
sI4
F0.004
sI5
F0.004
sI6
F0.004
sI7
F0.004
sI8
F0.004
sI9
F0.004
sI10
F0.004
sI11
F0.004
sI12
F0.004
sI13
F0.004
sI14
F0.004
ssg102
(dp322
I0
F2.722441
sI1
F3.474638
sI2
F2.046949
sI3
F3.596978
sI4
F2.692956
sI5
F-1.215961
sI6
F-1.767437
sI7
F4.120554
sI8
F2.481779
sI9
F3.190199
sI10
F2.797973
sI11
F3.629108
sI12
F3.360021
sI13
F2.651161
sI14
F2.304211
ssg104
(dp323
I0
S"KIC8462852-20181108at015123_-25-1X1-030-z'_cal.fts.mag.1"
p324
sI1
S"KIC8462852-20181108at022236_-25-1X1-030-z'_cal.fts.mag.1"
p325
sI2
S"KIC8462852-20181108at015452_-25-1X1-030-z'_cal.fts.mag.1"
p326
sI3
S"KIC8462852-20181108at022343_-25-1X1-030-z'_cal.fts.mag.1"
p327
sI4
S"KIC8462852-20181108at025119_-25-1X1-030-z'_cal.fts.mag.1"
p328
sI5
S"KIC8462852-20181108at022453_-25-1X1-030-z'_cal.fts.mag.1"
p329
sI6
S"KIC8462852-20181108at015233_-25-1X1-030-z'_cal.fts.mag.1"
p330
sI7
S"KIC8462852-20181108at022126_-25-1X1-030-z'_cal.fts.mag.1"
p331
sI8
S"KIC8462852-20181108at022604_-25-1X1-030-z'_cal.fts.mag.1"
p332
sI9
S"KIC8462852-20181108at025456_-25-1X1-030-z'_cal.fts.mag.1"
p333
sI10
S"KIC8462852-20181108at015600_-25-1X1-030-z'_cal.fts.mag.1"
p334
sI11
S"KIC8462852-20181108at025346_-25-1X1-030-z'_cal.fts.mag.1"
p335
sI12
S"KIC8462852-20181108at015340_-25-1X1-030-z'_cal.fts.mag.1"
p336
sI13
S"KIC8462852-20181108at025233_-25-1X1-030-z'_cal.fts.mag.1"
p337
sI14
S"KIC8462852-20181108at025605_-25-1X1-030-z'_cal.fts.mag.1"
p338
ssg121
(dp339
I0
F0.006311025016034714
sI1
Fnan
sI2
Fnan
sI3
Fnan
sI4
Fnan
sI5
Fnan
sI6
Fnan
sI7
Fnan
sI8
Fnan
sI9
Fnan
sI10
Fnan
sI11
Fnan
sI12
Fnan
sI13
Fnan
sI14
Fnan
ssg123
(dp340
I0
F1113.1836666666668
sI1
F1071.871
sI2
F1115.5610000000001
sI3
F1153.1836666666668
sI4
F1199.075
sI5
F1189.5746666666666
sI6
F1107.8053333333335
sI7
F1079.4643333333333
sI8
F1154.5220000000002
sI9
F1176.2903333333334
sI10
F1141.4793333333332
sI11
F1167.896
sI12
F1069.0843333333332
sI13
F1160.7236666666665
sI14
F1136.8573333333334
ssg125
(dp341
I0
F0.03656110345318229
sI1
Fnan
sI2
Fnan
sI3
Fnan
sI4
Fnan
sI5
Fnan
sI6
Fnan
sI7
Fnan
sI8
Fnan
sI9
Fnan
sI10
Fnan
sI11
Fnan
sI12
Fnan
sI13
Fnan
sI14
Fnan
ssg127
(dp342
I0
S"z'"
p343
sI1
S"z'"
p344
sI2
S"z'"
p345
sI3
S"z'"
p346
sI4
S"z'"
p347
sI5
S"z'"
p348
sI6
S"z'"
p349
sI7
S"z'"
p350
sI8
S"z'"
p351
sI9
S"z'"
p352
sI10
S"z'"
p353
sI11
S"z'"
p354
sI12
S"z'"
p355
sI13
S"z'"
p356
sI14
S"z'"
p357
ssg144
(dp358
I0
F0.0036691545375421596
sI1
Fnan
sI2
Fnan
sI3
Fnan
sI4
Fnan
sI5
Fnan
sI6
Fnan
sI7
Fnan
sI8
Fnan
sI9
Fnan
sI10
Fnan
sI11
Fnan
sI12
Fnan
sI13
Fnan
sI14
Fnan
ssg146
(dp359
I0
F3.647258
sI1
F1.958349
sI2
F4.306059
sI3
F-3.069356
sI4
F3.635878
sI5
F3.043568
sI6
F3.822862
sI7
F-2.671995
sI8
F2.769396
sI9
F3.936428
sI10
F-1.423045
sI11
F3.294954
sI12
F1.576609
sI13
F-2.368754
sI14
F2.570121
ssg148
(dp360
I0
F1.5093471924919792
sI1
Fnan
sI2
Fnan
sI3
Fnan
sI4
Fnan
sI5
Fnan
sI6
Fnan
sI7
Fnan
sI8
Fnan
sI9
Fnan
sI10
Fnan
sI11
Fnan
sI12
Fnan
sI13
Fnan
sI14
Fnan
ssg150
(dp361
I0
F2458430.599803241
sI1
Fnan
sI2
Fnan
sI3
Fnan
sI4
Fnan
sI5
Fnan
sI6
Fnan
sI7
Fnan
sI8
Fnan
sI9
Fnan
sI10
Fnan
sI11
Fnan
sI12
Fnan
sI13
Fnan
sI14
Fnan
ssg152
(dp362
I0
F0.0036691545375421596
sI1
Fnan
sI2
Fnan
sI3
Fnan
sI4
Fnan
sI5
Fnan
sI6
Fnan
sI7
Fnan
sI8
Fnan
sI9
Fnan
sI10
Fnan
sI11
Fnan
sI12
Fnan
sI13
Fnan
sI14
Fnan
ssg154
(dp363
I0
F0.413642
sI1
F-0.3372523
sI2
F0.05004318
sI3
F-2.090832
sI4
F-2.658851
sI5
F-1.834319
sI6
F-0.4017253
sI7
F-0.3356959
sI8
F-1.353875
sI9
F-2.36066
sI10
F-0.6563469
sI11
F-3.031755
sI12
F-0.4527162
sI13
F-2.201763
sI14
F-2.466404
ssg156
(dp364
I0
F12.02
sI1
F12.053
sI2
F12.011
sI3
F11.977
sI4
F11.951
sI5
F11.975
sI6
F12.022
sI7
F12.058
sI8
F11.99
sI9
F11.969
sI10
F12.008
sI11
F11.968
sI12
F12.058
sI13
F11.97
sI14
F11.984
ssg158
(dp365
I0
F0.36818618038558176
sI1
Fnan
sI2
Fnan
sI3
Fnan
sI4
Fnan
sI5
Fnan
sI6
Fnan
sI7
Fnan
sI8
Fnan
sI9
Fnan
sI10
Fnan
sI11
Fnan
sI12
Fnan
sI13
Fnan
sI14
Fnan
sssS'g'
p366
(dp367
g3
(dp368
I0
F0.8702171079335048
sI1
Fnan
sI2
Fnan
sI3
Fnan
sI4
Fnan
sI5
Fnan
sI6
Fnan
sI7
Fnan
sI8
Fnan
sI9
Fnan
sI10
Fnan
sI11
Fnan
sI12
Fnan
sI13
Fnan
sI14
Fnan
ssg5
(dp369
I0
S'NoError'
p370
sI1
S'NoError'
p371
sI2
S'NoError'
p372
sI3
S'NoError'
p373
sI4
S'NoError'
p374
sI5
S'NoError'
p375
sI6
S'NoError'
p376
sI7
S'NoError'
p377
sI8
S'NoError'
p378
sI9
S'NoError'
p379
sI10
S'NoError'
p380
sI11
S'NoError'
p381
sI12
S'NoError'
p382
sI13
S'NoError'
p383
sI14
S'NoError'
p384
ssg22
(dp385
I0
F0.002
sI1
F0.002
sI2
F0.002
sI3
F0.002
sI4
F0.002
sI5
F0.002
sI6
F0.002
sI7
F0.002
sI8
F0.002
sI9
F0.002
sI10
F0.002
sI11
F0.002
sI12
F0.002
sI13
F0.002
sI14
F0.003
ssg24
(dp386
I0
F0.8703357333995421
sI1
F0.8790100644030707
sI2
F0.8806849127855024
sI3
F0.8738866802021733
sI4
F0.8761986816714563
sI5
F0.8819328520583086
sI6
F0.875495049716998
sI7
F0.8742375383483962
sI8
F0.8753628905017355
sI9
F0.8768733023571939
sI10
F0.873378411077564
sI11
F0.8778278541561024
sI12
F0.878328589255404
sI13
F0.8803062193444618
sI14
F0.8817357378884177
ssg26
(dp387
I0
F0.0033614694407253652
sI1
Fnan
sI2
Fnan
sI3
Fnan
sI4
Fnan
sI5
Fnan
sI6
Fnan
sI7
Fnan
sI8
Fnan
sI9
Fnan
sI10
Fnan
sI11
Fnan
sI12
Fnan
sI13
Fnan
sI14
Fnan
ssg28
(dp388
I0
F0.8770396344777551
sI1
Fnan
sI2
Fnan
sI3
Fnan
sI4
Fnan
sI5
Fnan
sI6
Fnan
sI7
Fnan
sI8
Fnan
sI9
Fnan
sI10
Fnan
sI11
Fnan
sI12
Fnan
sI13
Fnan
sI14
Fnan
ssg30
(dp389
I0
F11.5
sI1
F11.479
sI2
F11.521
sI3
F11.544
sI4
F11.488
sI5
F11.53
sI6
F11.472
sI7
F11.533
sI8
F11.494
sI9
F11.504
sI10
F11.554
sI11
F11.522
sI12
F11.52
sI13
F11.535
sI14
F11.594
ssg32
(dp390
I0
F-4.897765
sI1
F-4.204818
sI2
F-3.081219
sI3
F12.34511
sI4
F-4.904731
sI5
F6.716313
sI6
F-4.650521
sI7
F-3.279033
sI8
F9.333117
sI9
F-5.122548
sI10
F5.14548
sI11
F-3.610941
sI12
F15.41506
sI13
F-3.608658
sI14
F-2.522848
ssg34
(dp391
I0
F2458430.6092708334
sI1
F2458430.608449074
sI2
F2458430.586724537
sI3
F2458430.565891204
sI4
F2458430.6068171295
sI5
F2458430.567476852
sI6
F2458430.607615741
sI7
F2458430.5858449074
sI8
F2458430.566678241
sI9
F2458430.6100810184
sI10
F2458430.5683101853
sI11
F2458430.587523148
sI12
F2458430.5650925925
sI13
F2458430.5891319443
sI14
F2458430.5883333334
ssg36
(dp392
I0
F1.4760456
sI1
Fnan
sI2
Fnan
sI3
Fnan
sI4
Fnan
sI5
Fnan
sI6
Fnan
sI7
Fnan
sI8
Fnan
sI9
Fnan
sI10
Fnan
sI11
Fnan
sI12
Fnan
sI13
Fnan
sI14
Fnan
ssg38
(dp393
I0
F1.0045392
sI1
Fnan
sI2
Fnan
sI3
Fnan
sI4
Fnan
sI5
Fnan
sI6
Fnan
sI7
Fnan
sI8
Fnan
sI9
Fnan
sI10
Fnan
sI11
Fnan
sI12
Fnan
sI13
Fnan
sI14
Fnan
ssg40
(dp394
I0
F0.8732167447725447
sI1
F0.8723032050643661
sI2
F0.8650034537250537
sI3
F0.8674279895997877
sI4
F0.8726897445998293
sI5
F0.8699528158590116
sI6
F0.8676357268420543
sI7
F0.863608349621631
sI8
F0.8701208019073697
sI9
F0.8771641810480338
sI10
F0.8677633165508032
sI11
F0.8731060701111639
sI12
F0.8761062447427355
sI13
F0.8712489238496778
sI14
F0.8662473655111634
ssg42
(dp395
I0
F0.003126071572840212
sI1
Fnan
sI2
Fnan
sI3
Fnan
sI4
Fnan
sI5
Fnan
sI6
Fnan
sI7
Fnan
sI8
Fnan
sI9
Fnan
sI10
Fnan
sI11
Fnan
sI12
Fnan
sI13
Fnan
sI14
Fnan
ssg44
(dp396
I0
F2.0623100666666665
sI1
Fnan
sI2
Fnan
sI3
Fnan
sI4
Fnan
sI5
Fnan
sI6
Fnan
sI7
Fnan
sI8
Fnan
sI9
Fnan
sI10
Fnan
sI11
Fnan
sI12
Fnan
sI13
Fnan
sI14
Fnan
ssg46
(dp397
I0
g370
sI1
g371
sI2
g372
sI3
g373
sI4
g374
sI5
g375
sI6
g376
sI7
g377
sI8
g378
sI9
g379
sI10
g380
sI11
g381
sI12
g382
sI13
g383
sI14
g384
ssg48
(dp398
I0
F0.001953971167561122
sI1
Fnan
sI2
Fnan
sI3
Fnan
sI4
Fnan
sI5
Fnan
sI6
Fnan
sI7
Fnan
sI8
Fnan
sI9
Fnan
sI10
Fnan
sI11
Fnan
sI12
Fnan
sI13
Fnan
sI14
Fnan
ssg50
(dp399
I0
F0.029080839707533286
sI1
Fnan
sI2
Fnan
sI3
Fnan
sI4
Fnan
sI5
Fnan
sI6
Fnan
sI7
Fnan
sI8
Fnan
sI9
Fnan
sI10
Fnan
sI11
Fnan
sI12
Fnan
sI13
Fnan
sI14
Fnan
ssg52
(dp400
I0
F1.2188240666666665
sI1
Fnan
sI2
Fnan
sI3
Fnan
sI4
Fnan
sI5
Fnan
sI6
Fnan
sI7
Fnan
sI8
Fnan
sI9
Fnan
sI10
Fnan
sI11
Fnan
sI12
Fnan
sI13
Fnan
sI14
Fnan
ssg54
(dp401
I0
F1.5340091848343986
sI1
F1.5146496312737276
sI2
F1.5186801801900258
sI3
F1.5244508919362507
sI4
F1.5202016743421618
sI5
F1.5108096205802855
sI6
F1.5241786990793955
sI7
F1.5298840279178625
sI8
F1.5211189594848946
sI9
F1.517228575408874
sI10
F1.5242563800489681
sI11
F1.5190365940819193
sI12
F1.5260756396999984
sI13
F1.5162752056949638
sI14
F1.5169434160984163
ssg56
(dp402
I0
g370
sI1
g371
sI2
g372
sI3
g373
sI4
g374
sI5
g375
sI6
g376
sI7
g377
sI8
g378
sI9
g379
sI10
g380
sI11
g381
sI12
g382
sI13
g383
sI14
g384
ssg58
(dp403
I0
F-4.915689
sI1
F-5.000625
sI2
F-3.328704
sI3
F11.74885
sI4
F-4.674857
sI5
F6.590343
sI6
F-4.915804
sI7
F-4.85921
sI8
F8.256484
sI9
F-5.049011
sI10
F5.245655
sI11
F-3.487885
sI12
F14.87305
sI13
F-3.342062
sI14
F-2.433024
ssg60
(dp404
I0
F11.086999999999998
sI1
Fnan
sI2
Fnan
sI3
Fnan
sI4
Fnan
sI5
Fnan
sI6
Fnan
sI7
Fnan
sI8
Fnan
sI9
Fnan
sI10
Fnan
sI11
Fnan
sI12
Fnan
sI13
Fnan
sI14
Fnan
ssg62
(dp405
I0
F0.7142645922436591
sI1
Fnan
sI2
Fnan
sI3
Fnan
sI4
Fnan
sI5
Fnan
sI6
Fnan
sI7
Fnan
sI8
Fnan
sI9
Fnan
sI10
Fnan
sI11
Fnan
sI12
Fnan
sI13
Fnan
sI14
Fnan
ssg64
(dp406
I0
F3.611995
sI1
F-1.620543
sI2
F-2.665155
sI3
F3.202387
sI4
F3.19736
sI5
F1.392777
sI6
F-3.069917
sI7
F3.354956
sI8
F1.706807
sI9
F2.209839
sI10
F3.672772
sI11
F3.703488
sI12
F-3.108513
sI13
F-2.797872
sI14
F2.277707
ssg66
(dp407
I0
F11.465533333333333
sI1
Fnan
sI2
Fnan
sI3
Fnan
sI4
Fnan
sI5
Fnan
sI6
Fnan
sI7
Fnan
sI8
Fnan
sI9
Fnan
sI10
Fnan
sI11
Fnan
sI12
Fnan
sI13
Fnan
sI14
Fnan
ssg68
(dp408
I0
g370
sI1
g371
sI2
g372
sI3
g373
sI4
g374
sI5
g375
sI6
g376
sI7
g377
sI8
g378
sI9
g379
sI10
g380
sI11
g381
sI12
g382
sI13
g383
sI14
g384
ssg70
(dp409
I0
F6572.666666666667
sI1
F6754.906666666667
sI2
F6562.216666666666
sI3
F6373.04
sI4
F6681.509999999999
sI5
F6477.25
sI6
F6813.1433333333325
sI7
F6466.816666666667
sI8
F6657.66
sI9
F6553.9366666666665
sI10
F6310.416666666667
sI11
F6483.096666666666
sI12
F6474.316666666667
sI13
F6429.1066666666675
sI14
F6133.73
ssg72
(dp410
I0
F1.090199
sI1
F1.088374
sI2
F1.049711
sI3
F1.02443
sI4
F1.085094
sI5
F1.02599
sI6
F1.086725
sI7
F1.048462
sI8
F1.025201
sI9
F1.091906
sI10
F1.0268389999999998
sI11
F1.050937
sI12
F1.0236809999999998
sI13
F1.053389
sI14
F1.052147
ssg74
(dp411
I0
F5694.656666666667
sI1
F5834.83
sI2
F5638.236666666667
sI3
F5520.1866666666665
sI4
F5779.503333333333
sI5
F5580.373333333334
sI6
F5886.12
sI7
F5579.473333333333
sI8
F5763.88
sI9
F5672.9400000000005
sI10
F5471.363333333333
sI11
F5596.27
sI12
F5559.84
sI13
F5535.616666666667
sI14
F5266.2733333333335
ssg76
(dp412
I0
F9409.093333333332
sI1
F9534.519999999999
sI2
F9264.293333333333
sI3
F9065.32
sI4
F9471.626666666667
sI5
F9108.386666666665
sI6
F9677.973333333333
sI7
F9214.713333333335
sI8
F9447.32
sI9
F9275.483333333334
sI10
F8979.226666666666
sI11
F9174.5
sI12
F9182.516666666666
sI13
F9070.906666666668
sI14
F8646.58
ssg78
(dp413
I0
F-4.895182
sI1
F-4.334218
sI2
F-2.69526
sI3
F10.66029
sI4
F-4.545827
sI5
F6.77123
sI6
F-4.788509
sI7
F-3.674432
sI8
F7.840285
sI9
F-4.389204
sI10
F3.738647
sI11
F-4.07852
sI12
F14.11367
sI13
F-3.028904
sI14
F-2.841652
ssg80
(dp414
I0
F11.611
sI1
F11.585
sI2
F11.622
sI3
F11.645
sI4
F11.595
sI5
F11.633
sI6
F11.575
sI7
F11.634
sI8
F11.598
sI9
F11.615
sI10
F11.655
sI11
F11.63
sI12
F11.637
sI13
F11.642
sI14
F11.696
ssg82
(dp415
I0
F0.002
sI1
F0.002
sI2
F0.002
sI3
F0.002
sI4
F0.002
sI5
F0.002
sI6
F0.002
sI7
F0.002
sI8
F0.002
sI9
F0.002
sI10
F0.002
sI11
F0.002
sI12
F0.002
sI13
F0.002
sI14
F0.002
ssg84
(dp416
I0
F0.8702396622536817
sI1
Fnan
sI2
Fnan
sI3
Fnan
sI4
Fnan
sI5
Fnan
sI6
Fnan
sI7
Fnan
sI8
Fnan
sI9
Fnan
sI10
Fnan
sI11
Fnan
sI12
Fnan
sI13
Fnan
sI14
Fnan
ssg86
(dp417
I0
F11.624866666666666
sI1
Fnan
sI2
Fnan
sI3
Fnan
sI4
Fnan
sI5
Fnan
sI6
Fnan
sI7
Fnan
sI8
Fnan
sI9
Fnan
sI10
Fnan
sI11
Fnan
sI12
Fnan
sI13
Fnan
sI14
Fnan
ssg88
(dp418
I0
F11.456
sI1
F11.426
sI2
F11.457
sI3
F11.489
sI4
F11.438
sI5
F11.472
sI6
F11.417
sI7
F11.473
sI8
F11.442
sI9
F11.459
sI10
F11.5
sI11
F11.471
sI12
F11.472
sI13
F11.48
sI14
F11.531
ssg90
(dp419
I0
F4.205997
sI1
F-2.310982
sI2
F3.242374
sI3
F3.26894
sI4
F3.81769
sI5
F3.215133
sI6
F2.827484
sI7
F-2.464259
sI8
F3.621965
sI9
F3.154662
sI10
F2.900754
sI11
F-1.602984
sI12
F3.940825
sI13
F-2.807532
sI14
F-2.869383
ssg92
(dp420
I0
F0.030123555092793682
sI1
Fnan
sI2
Fnan
sI3
Fnan
sI4
Fnan
sI5
Fnan
sI6
Fnan
sI7
Fnan
sI8
Fnan
sI9
Fnan
sI10
Fnan
sI11
Fnan
sI12
Fnan
sI13
Fnan
sI14
Fnan
ssg94
(dp421
I0
F0.7126444980611231
sI1
F0.7163947656844072
sI2
F0.7125053681028436
sI3
F0.7151260453398763
sI4
F0.7155889846781048
sI5
F0.7160918033291765
sI6
F0.7138534180523454
sI7
F0.7115980817347966
sI8
F0.7157885324911922
sI9
F0.7167590473940296
sI10
F0.7156953519517459
sI11
F0.7148312884970214
sI12
F0.7102125802365316
sI13
F0.7142725038516095
sI14
F0.7126066142500845
ssg96
(dp422
I0
F30.0
sI1
F30.0
sI2
F30.0
sI3
F30.0
sI4
F30.0
sI5
F30.0
sI6
F30.0
sI7
F30.0
sI8
F30.0
sI9
F30.0
sI10
F30.0
sI11
F30.0
sI12
F30.0
sI13
F30.0
sI14
F30.0
ssg98
(dp423
I0
F0.003
sI1
F0.002
sI2
F0.003
sI3
F0.003
sI4
F0.002
sI5
F0.003
sI6
F0.002
sI7
F0.003
sI8
F0.003
sI9
F0.003
sI10
F0.003
sI11
F0.003
sI12
F0.003
sI13
F0.003
sI14
F0.003
ssg100
(dp424
I0
F0.002
sI1
F0.002
sI2
F0.002
sI3
F0.002
sI4
F0.002
sI5
F0.002
sI6
F0.002
sI7
F0.002
sI8
F0.002
sI9
F0.002
sI10
F0.002
sI11
F0.002
sI12
F0.002
sI13
F0.002
sI14
F0.002
ssg102
(dp425
I0
F2.310802
sI1
F-1.116681
sI2
F3.053249
sI3
F3.305037
sI4
F1.554312
sI5
F3.049883
sI6
F-2.314314
sI7
F4.293817
sI8
F2.532857
sI9
F3.057363
sI10
F3.946294
sI11
F1.024543
sI12
F-1.759198
sI13
F-2.124563
sI14
F-2.53104
ssg104
(dp426
I0
S"KIC8462852-20181108at023721_-25-1X1-030-g'_cal.fts.mag.1"
p427
sI1
S"KIC8462852-20181108at023610_-25-1X1-030-g'_cal.fts.mag.1"
p428
sI2
S"KIC8462852-20181108at020453_-25-1X1-030-g'_cal.fts.mag.1"
p429
sI3
S"KIC8462852-20181108at013453_-25-1X1-030-g'_cal.fts.mag.1"
p430
sI4
S"KIC8462852-20181108at023345_-25-1X1-030-g'_cal.fts.mag.1"
p431
sI5
S"KIC8462852-20181108at013710_-25-1X1-030-g'_cal.fts.mag.1"
p432
sI6
S"KIC8462852-20181108at023458_-25-1X1-030-g'_cal.fts.mag.1"
p433
sI7
S"KIC8462852-20181108at020329_-25-1X1-030-g'_cal.fts.mag.1"
p434
sI8
S"KIC8462852-20181108at013601_-25-1X1-030-g'_cal.fts.mag.1"
p435
sI9
S"KIC8462852-20181108at023831_-25-1X1-030-g'_cal.fts.mag.1"
p436
sI10
S"KIC8462852-20181108at013822_-25-1X1-030-g'_cal.fts.mag.1"
p437
sI11
S"KIC8462852-20181108at020602_-25-1X1-030-g'_cal.fts.mag.1"
p438
sI12
S"KIC8462852-20181108at013331_-25-1X1-030-g'_cal.fts.mag.1"
p439
sI13
S"KIC8462852-20181108at020821_-25-1X1-030-g'_cal.fts.mag.1"
p440
sI14
S"KIC8462852-20181108at020712_-25-1X1-030-g'_cal.fts.mag.1"
p441
ssg121
(dp442
I0
F0.006053828750186156
sI1
Fnan
sI2
Fnan
sI3
Fnan
sI4
Fnan
sI5
Fnan
sI6
Fnan
sI7
Fnan
sI8
Fnan
sI9
Fnan
sI10
Fnan
sI11
Fnan
sI12
Fnan
sI13
Fnan
sI14
Fnan
ssg123
(dp443
I0
F6309.403333333334
sI1
F6433.02
sI2
F6189.026666666667
sI3
F6060.009999999999
sI4
F6380.13
sI5
F6137.8099999999995
sI6
F6471.763333333333
sI7
F6120.3933333333325
sI8
F6342.85
sI9
F6287.033333333334
sI10
F6005.213333333333
sI11
F6185.626666666666
sI12
F6196.02
sI13
F6109.09
sI14
F5788.433333333333
ssg125
(dp444
I0
F0.03044636189072412
sI1
Fnan
sI2
Fnan
sI3
Fnan
sI4
Fnan
sI5
Fnan
sI6
Fnan
sI7
Fnan
sI8
Fnan
sI9
Fnan
sI10
Fnan
sI11
Fnan
sI12
Fnan
sI13
Fnan
sI14
Fnan
ssg127
(dp445
I0
S"g'"
p446
sI1
S"g'"
p447
sI2
S"g'"
p448
sI3
S"g'"
p449
sI4
S"g'"
p450
sI5
S"g'"
p451
sI6
S"g'"
p452
sI7
S"g'"
p453
sI8
S"g'"
p454
sI9
S"g'"
p455
sI10
S"g'"
p456
sI11
S"g'"
p457
sI12
S"g'"
p458
sI13
S"g'"
p459
sI14
S"g'"
p460
ssg144
(dp461
I0
F0.003954835070100442
sI1
Fnan
sI2
Fnan
sI3
Fnan
sI4
Fnan
sI5
Fnan
sI6
Fnan
sI7
Fnan
sI8
Fnan
sI9
Fnan
sI10
Fnan
sI11
Fnan
sI12
Fnan
sI13
Fnan
sI14
Fnan
ssg146
(dp462
I0
F4.082767
sI1
F2.895454
sI2
F2.604724
sI3
F3.503913
sI4
F1.300124
sI5
F3.398105
sI6
F1.741975
sI7
F2.797692
sI8
F-1.311676
sI9
F3.829049
sI10
F3.930484
sI11
F3.937528
sI12
F-0.794291
sI13
F1.715685
sI14
F-2.696882
ssg148
(dp463
I0
F1.521186578711476
sI1
Fnan
sI2
Fnan
sI3
Fnan
sI4
Fnan
sI5
Fnan
sI6
Fnan
sI7
Fnan
sI8
Fnan
sI9
Fnan
sI10
Fnan
sI11
Fnan
sI12
Fnan
sI13
Fnan
sI14
Fnan
ssg150
(dp464
I0
F2458430.587523148
sI1
Fnan
sI2
Fnan
sI3
Fnan
sI4
Fnan
sI5
Fnan
sI6
Fnan
sI7
Fnan
sI8
Fnan
sI9
Fnan
sI10
Fnan
sI11
Fnan
sI12
Fnan
sI13
Fnan
sI14
Fnan
ssg152
(dp465
I0
F0.003954835070100442
sI1
Fnan
sI2
Fnan
sI3
Fnan
sI4
Fnan
sI5
Fnan
sI6
Fnan
sI7
Fnan
sI8
Fnan
sI9
Fnan
sI10
Fnan
sI11
Fnan
sI12
Fnan
sI13
Fnan
sI14
Fnan
ssg154
(dp466
I0
F-3.782598
sI1
F-3.960501
sI2
F-2.495496
sI3
F12.84047
sI4
F-4.040482
sI5
F7.584494
sI6
F-4.935934
sI7
F-2.307704
sI8
F9.289723
sI9
F-2.995785
sI10
F6.55674
sI11
F-2.521538
sI12
F15.63968
sI13
F-1.723724
sI14
F-0.5706167
ssg156
(dp467
I0
F11.066
sI1
F11.052
sI2
F11.083
sI3
F11.107
sI4
F11.059
sI5
F11.101
sI6
F11.036
sI7
F11.089
sI8
F11.062
sI9
F11.082
sI10
F11.117
sI11
F11.094
sI12
F11.093
sI13
F11.106
sI14
F11.158
ssg158
(dp468
I0
F0.8702396622536817
sI1
Fnan
sI2
Fnan
sI3
Fnan
sI4
Fnan
sI5
Fnan
sI6
Fnan
sI7
Fnan
sI8
Fnan
sI9
Fnan
sI10
Fnan
sI11
Fnan
sI12
Fnan
sI13
Fnan
sI14
Fnan
sssS'V'
p469
(dp470
g3
(dp471
I0
F0.6922969829156254
sI1
Fnan
sI2
Fnan
sI3
Fnan
sI4
Fnan
sI5
Fnan
sI6
Fnan
sI7
Fnan
sI8
Fnan
sI9
Fnan
sI10
Fnan
sI11
Fnan
sI12
Fnan
sI13
Fnan
sI14
Fnan
ssg5
(dp472
I0
S'NoError'
p473
sI1
S'NoError'
p474
sI2
S'NoError'
p475
sI3
S'NoError'
p476
sI4
S'NoError'
p477
sI5
S'NoError'
p478
sI6
S'NoError'
p479
sI7
S'NoError'
p480
sI8
S'NoError'
p481
sI9
S'NoError'
p482
sI10
S'NoError'
p483
sI11
S'NoError'
p484
sI12
S'NoError'
p485
sI13
S'NoError'
p486
sI14
S'NoError'
p487
ssg22
(dp488
I0
F0.002
sI1
F0.002
sI2
F0.002
sI3
F0.002
sI4
F0.002
sI5
F0.002
sI6
F0.002
sI7
F0.002
sI8
F0.002
sI9
F0.002
sI10
F0.002
sI11
F0.002
sI12
F0.002
sI13
F0.002
sI14
F0.002
ssg24
(dp489
I0
F0.8844438737542712
sI1
F0.8852639217428492
sI2
F0.8824599054551783
sI3
F0.8850170522492213
sI4
F0.8805360728983456
sI5
F0.8811393792351208
sI6
F0.8833433045817008
sI7
F0.8862711152158936
sI8
F0.8866311130599789
sI9
F0.8893643856418109
sI10
F0.8866697793627525
sI11
F0.8825128232168598
sI12
F0.886441853066021
sI13
F0.8879285438426084
sI14
F0.8844258004632505
ssg26
(dp490
I0
F0.002496518509550052
sI1
Fnan
sI2
Fnan
sI3
Fnan
sI4
Fnan
sI5
Fnan
sI6
Fnan
sI7
Fnan
sI8
Fnan
sI9
Fnan
sI10
Fnan
sI11
Fnan
sI12
Fnan
sI13
Fnan
sI14
Fnan
ssg28
(dp491
I0
F0.8848299282523907
sI1
Fnan
sI2
Fnan
sI3
Fnan
sI4
Fnan
sI5
Fnan
sI6
Fnan
sI7
Fnan
sI8
Fnan
sI9
Fnan
sI10
Fnan
sI11
Fnan
sI12
Fnan
sI13
Fnan
sI14
Fnan
ssg30
(dp492
I0
F11.542
sI1
F11.485
sI2
F11.536
sI3
F11.494
sI4
F11.522
sI5
F11.557
sI6
F11.477
sI7
F11.513
sI8
F11.492
sI9
F11.554
sI10
F11.536
sI11
F11.542
sI12
F11.513
sI13
F11.487
sI14
F11.497
ssg32
(dp493
I0
F-1.407929
sI1
F-1.451813
sI2
F-1.324695
sI3
F-2.76369
sI4
F-2.335442
sI5
F-2.183268
sI6
F-2.668303
sI7
F-2.924368
sI8
F-1.826046
sI9
F-0.3168718
sI10
F-1.315597
sI11
F-0.8011801
sI12
F-1.752033
sI13
F-2.198003
sI14
F-1.984843
ssg34
(dp494
I0
F2458430.584814815
sI1
F2458430.626527778
sI2
F2458430.604965278
sI3
F2458430.624074074
sI4
F2458430.603252315
sI5
F2458430.602372685
sI6
F2458430.6248958334
sI7
F2458430.605787037
sI8
F2458430.6256944444
sI9
F2458430.5822800924
sI10
F2458430.5831712964
sI11
F2458430.5814814814
sI12
F2458430.604074074
sI13
F2458430.6231944445
sI14
F2458430.5839930554
ssg36
(dp495
I0
F2.597159486666667
sI1
Fnan
sI2
Fnan
sI3
Fnan
sI4
Fnan
sI5
Fnan
sI6
Fnan
sI7
Fnan
sI8
Fnan
sI9
Fnan
sI10
Fnan
sI11
Fnan
sI12
Fnan
sI13
Fnan
sI14
Fnan
ssg38
(dp496
I0
F1.8480601333333333
sI1
Fnan
sI2
Fnan
sI3
Fnan
sI4
Fnan
sI5
Fnan
sI6
Fnan
sI7
Fnan
sI8
Fnan
sI9
Fnan
sI10
Fnan
sI11
Fnan
sI12
Fnan
sI13
Fnan
sI14
Fnan
ssg40
(dp497
I0
F0.6956867415401173
sI1
F0.6916892427828893
sI2
F0.6905848771658344
sI3
F0.6902185513500552
sI4
F0.6921818888898011
sI5
F0.6952983398358088
sI6
F0.6949491308462319
sI7
F0.6891837820962663
sI8
F0.6943210380438448
sI9
F0.6905238374763107
sI10
F0.6892928071614184
sI11
F0.6917648434960234
sI12
F0.6946963504220648
sI13
F0.6917663297120883
sI14
F0.6972165763054679
ssg42
(dp498
I0
F0.002194895684887815
sI1
Fnan
sI2
Fnan
sI3
Fnan
sI4
Fnan
sI5
Fnan
sI6
Fnan
sI7
Fnan
sI8
Fnan
sI9
Fnan
sI10
Fnan
sI11
Fnan
sI12
Fnan
sI13
Fnan
sI14
Fnan
ssg44
(dp499
I0
F0.9046138666666667
sI1
Fnan
sI2
Fnan
sI3
Fnan
sI4
Fnan
sI5
Fnan
sI6
Fnan
sI7
Fnan
sI8
Fnan
sI9
Fnan
sI10
Fnan
sI11
Fnan
sI12
Fnan
sI13
Fnan
sI14
Fnan
ssg46
(dp500
I0
g473
sI1
g474
sI2
g475
sI3
g476
sI4
g477
sI5
g478
sI6
g479
sI7
g480
sI8
g481
sI9
g482
sI10
g483
sI11
g484
sI12
g485
sI13
g486
sI14
g487
ssg48
(dp501
I0
F0.002948577982053589
sI1
Fnan
sI2
Fnan
sI3
Fnan
sI4
Fnan
sI5
Fnan
sI6
Fnan
sI7
Fnan
sI8
Fnan
sI9
Fnan
sI10
Fnan
sI11
Fnan
sI12
Fnan
sI13
Fnan
sI14
Fnan
ssg50
(dp502
I0
F0.027193661726498796
sI1
Fnan
sI2
Fnan
sI3
Fnan
sI4
Fnan
sI5
Fnan
sI6
Fnan
sI7
Fnan
sI8
Fnan
sI9
Fnan
sI10
Fnan
sI11
Fnan
sI12
Fnan
sI13
Fnan
sI14
Fnan
ssg52
(dp503
I0
F2.3448971333333333
sI1
Fnan
sI2
Fnan
sI3
Fnan
sI4
Fnan
sI5
Fnan
sI6
Fnan
sI7
Fnan
sI8
Fnan
sI9
Fnan
sI10
Fnan
sI11
Fnan
sI12
Fnan
sI13
Fnan
sI14
Fnan
ssg54
(dp504
I0
F1.5057333583688903
sI1
F1.5130628436334315
sI2
F1.5140929073397145
sI3
F1.5125528798994503
sI4
F1.5079310701478683
sI5
F1.5060236329333265
sI6
F1.5088149881604145
sI7
F1.5044461612290265
sI8
F1.507224693148414
sI9
F1.5048592006021195
sI10
F1.498622618568441
sI11
F1.5191854778476948
sI12
F1.502109583922339
sI13
F1.5047655753541975
sI14
F1.502448961649267
ssg56
(dp505
I0
g473
sI1
g474
sI2
g475
sI3
g476
sI4
g477
sI5
g478
sI6
g479
sI7
g480
sI8
g481
sI9
g482
sI10
g483
sI11
g484
sI12
g485
sI13
g486
sI14
g487
ssg58
(dp506
I0
F-0.3722749
sI1
F-2.679729
sI2
F-1.574532
sI3
F-2.76221
sI4
F-1.614826
sI5
F-1.73131
sI6
F-2.361844
sI7
F-2.388314
sI8
F-2.308876
sI9
F-1.589626
sI10
F-0.8705954
sI11
F0.5841292
sI12
F-2.217449
sI13
F-2.144965
sI14
F-1.692652
ssg60
(dp507
I0
F10.8418
sI1
Fnan
sI2
Fnan
sI3
Fnan
sI4
Fnan
sI5
Fnan
sI6
Fnan
sI7
Fnan
sI8
Fnan
sI9
Fnan
sI10
Fnan
sI11
Fnan
sI12
Fnan
sI13
Fnan
sI14
Fnan
ssg62
(dp508
I0
F0.715538349237613
sI1
Fnan
sI2
Fnan
sI3
Fnan
sI4
Fnan
sI5
Fnan
sI6
Fnan
sI7
Fnan
sI8
Fnan
sI9
Fnan
sI10
Fnan
sI11
Fnan
sI12
Fnan
sI13
Fnan
sI14
Fnan
ssg64
(dp509
I0
F2.536946
sI1
F2.48244
sI2
F2.800622
sI3
F1.84449
sI4
F2.775728
sI5
F4.268585
sI6
F2.889819
sI7
F-2.122769
sI8
F-2.81123
sI9
F4.343512
sI10
F2.861943
sI11
F3.462504
sI12
F-2.66303
sI13
F1.805898
sI14
F3.245444
ssg66
(dp510
I0
F11.208066666666667
sI1
Fnan
sI2
Fnan
sI3
Fnan
sI4
Fnan
sI5
Fnan
sI6
Fnan
sI7
Fnan
sI8
Fnan
sI9
Fnan
sI10
Fnan
sI11
Fnan
sI12
Fnan
sI13
Fnan
sI14
Fnan
ssg68
(dp511
I0
g473
sI1
g474
sI2
g475
sI3
g476
sI4
g477
sI5
g478
sI6
g479
sI7
g480
sI8
g481
sI9
g482
sI10
g483
sI11
g484
sI12
g485
sI13
g486
sI14
g487
ssg70
(dp512
I0
F8024.413333333333
sI1
F8515.253333333334
sI2
F8114.16
sI3
F8460.183333333332
sI4
F8190.5
sI5
F7897.866666666667
sI6
F8521.773333333334
sI7
F8334.196666666667
sI8
F8438.42
sI9
F8031.593333333333
sI10
F8156.373333333334
sI11
F8061.576666666666
sI12
F8270.196666666667
sI13
F8518.243333333334
sI14
F8346.91
ssg72
(dp513
I0
F1.046924
sI1
F1.131581
sI2
F1.081322
sI3
F1.125107
sI4
F1.0779889999999999
sI5
F1.076265
sI6
F1.127278
sI7
F1.08299
sI8
F1.129346
sI9
F1.0434219999999998
sI10
F1.044645
sI11
F1.042316
sI12
F1.079615
sI13
F1.122874
sI14
F1.045749
ssg74
(dp514
I0
F6905.463333333333
sI1
F7284.65
sI2
F6970.259999999999
sI3
F7242.8533333333335
sI4
F7085.706666666667
sI5
F6833.553333333333
sI6
F7333.23
sI7
F7155.570000000001
sI8
F7228.22
sI9
F6858.03
sI10
F7023.3966666666665
sI11
F6902.78
sI12
F7108.823333333334
sI13
F7291.67
sI14
F7197.7733333333335
ssg76
(dp515
I0
F11240.206666666667
sI1
F11953.123333333333
sI2
F11419.606666666667
sI3
F11875.836666666666
sI4
F11517.733333333334
sI5
F11092.933333333332
sI6
F11961.133333333333
sI7
F11651.76
sI8
F11806.573333333334
sI9
F11203.393333333333
sI10
F11374.373333333333
sI11
F11366.816666666668
sI12
F11550.486666666666
sI13
F11895.106666666667
sI14
F11677.546666666667
ssg78
(dp516
I0
F-0.3865113
sI1
F-1.781683
sI2
F-2.115456
sI3
F-1.737529
sI4
F-1.949759
sI5
F-1.867767
sI6
F-2.865206
sI7
F-2.115035
sI8
F-1.327535
sI9
F-1.470296
sI10
F-1.23468
sI11
F-0.5380509
sI12
F-1.993556
sI13
F-2.640084
sI14
F-1.995087
ssg80
(dp517
I0
F11.402
sI1
F11.344
sI2
F11.392
sI3
F11.35
sI4
F11.374
sI5
F11.413
sI6
F11.337
sI7
F11.363
sI8
F11.352
sI9
F11.41
sI10
F11.384
sI11
F11.402
sI12
F11.371
sI13
F11.343
sI14
F11.357
ssg82
(dp518
I0
F0.002
sI1
F0.002
sI2
F0.002
sI3
F0.002
sI4
F0.002
sI5
F0.002
sI6
F0.002
sI7
F0.002
sI8
F0.002
sI9
F0.002
sI10
F0.002
sI11
F0.002
sI12
F0.002
sI13
F0.002
sI14
F0.002
ssg84
(dp519
I0
F0.6926249558082815
sI1
Fnan
sI2
Fnan
sI3
Fnan
sI4
Fnan
sI5
Fnan
sI6
Fnan
sI7
Fnan
sI8
Fnan
sI9
Fnan
sI10
Fnan
sI11
Fnan
sI12
Fnan
sI13
Fnan
sI14
Fnan
ssg86
(dp520
I0
F11.372933333333332
sI1
Fnan
sI2
Fnan
sI3
Fnan
sI4
Fnan
sI5
Fnan
sI6
Fnan
sI7
Fnan
sI8
Fnan
sI9
Fnan
sI10
Fnan
sI11
Fnan
sI12
Fnan
sI13
Fnan
sI14
Fnan
ssg88
(dp521
I0
F11.239
sI1
F11.175
sI2
F11.227
sI3
F11.182
sI4
F11.217
sI5
F11.256
sI6
F11.174
sI7
F11.198
sI8
F11.184
sI9
F11.238
sI10
F11.221
sI11
F11.234
sI12
F11.206
sI13
F11.174
sI14
F11.196
ssg90
(dp522
I0
F3.718483
sI1
F3.076371
sI2
F2.625934
sI3
F2.83318
sI4
F2.69506
sI5
F4.124075
sI6
F3.023089
sI7
F0.8527393
sI8
F4.046249
sI9
F1.851185
sI10
F3.272466
sI11
F-1.904031
sI12
F3.280689
sI13
F2.571329
sI14
F2.890574
ssg92
(dp523
I0
F0.02685729483239695
sI1
Fnan
sI2
Fnan
sI3
Fnan
sI4
Fnan
sI5
Fnan
sI6
Fnan
sI7
Fnan
sI8
Fnan
sI9
Fnan
sI10
Fnan
sI11
Fnan
sI12
Fnan
sI13
Fnan
sI14
Fnan
ssg94
(dp524
I0
F0.7169062595922819
sI1
F0.7117955779916108
sI2
F0.7136626661865862
sI3
F0.7123176839256978
sI4
F0.7190605618294892
sI5
F0.7196698752378344
sI6
F0.7160341175536283
sI7
F0.7160597933182083
sI8
F0.7140748214620307
sI9
F0.7130787370791003
sI10
F0.7192143533000275
sI11
F0.7105868078300521
sI12
F0.7173136479485656
sI13
F0.7144020947076302
sI14
F0.7188982406014512
ssg96
(dp525
I0
F30.0
sI1
F30.0
sI2
F30.0
sI3
F30.0
sI4
F30.0
sI5
F30.0
sI6
F30.0
sI7
F30.0
sI8
F30.0
sI9
F30.0
sI10
F30.0
sI11
F30.0
sI12
F30.0
sI13
F30.0
sI14
F30.0
ssg98
(dp526
I0
F0.002
sI1
F0.002
sI2
F0.002
sI3
F0.002
sI4
F0.002
sI5
F0.002
sI6
F0.002
sI7
F0.002
sI8
F0.002
sI9
F0.002
sI10
F0.002
sI11
F0.002
sI12
F0.002
sI13
F0.002
sI14
F0.002
ssg100
(dp527
I0
F0.002
sI1
F0.002
sI2
F0.002
sI3
F0.002
sI4
F0.002
sI5
F0.002
sI6
F0.002
sI7
F0.002
sI8
F0.002
sI9
F0.002
sI10
F0.002
sI11
F0.002
sI12
F0.002
sI13
F0.002
sI14
F0.002
ssg102
(dp528
I0
F-3.610218
sI1
F2.726046
sI2
F3.086147
sI3
F3.412126
sI4
F2.143694
sI5
F1.886061
sI6
F1.944725
sI7
F2.823636
sI8
F3.523589
sI9
F3.997266
sI10
F3.978737
sI11
F-2.520792
sI12
F3.422487
sI13
F4.288089
sI14
F4.071864
ssg104
(dp529
I0
S'KIC8462852-20181108at020208_-25-1X1-030-V_cal.fts.mag.1'
p530
sI1
S'KIC8462852-20181108at030212_-25-1X1-030-V_cal.fts.mag.1'
p531
sI2
S'KIC8462852-20181108at023108_-25-1X1-030-V_cal.fts.mag.1'
p532
sI3
S'KIC8462852-20181108at025840_-25-1X1-030-V_cal.fts.mag.1'
p533
sI4
S'KIC8462852-20181108at022841_-25-1X1-030-V_cal.fts.mag.1'
p534
sI5
S'KIC8462852-20181108at022715_-25-1X1-030-V_cal.fts.mag.1'
p535
sI6
S'KIC8462852-20181108at025951_-25-1X1-030-V_cal.fts.mag.1'
p536
sI7
S'KIC8462852-20181108at023220_-25-1X1-030-V_cal.fts.mag.1'
p537
sI8
S'KIC8462852-20181108at030100_-25-1X1-030-V_cal.fts.mag.1'
p538
sI9
S'KIC8462852-20181108at015829_-25-1X1-030-V_cal.fts.mag.1'
p539
sI10
S'KIC8462852-20181108at015946_-25-1X1-030-V_cal.fts.mag.1'
p540
sI11
S'KIC8462852-20181108at015713_-25-1X1-030-V_cal.fts.mag.1'
p541
sI12
S'KIC8462852-20181108at022951_-25-1X1-030-V_cal.fts.mag.1'
p542
sI13
S'KIC8462852-20181108at025716_-25-1X1-030-V_cal.fts.mag.1'
p543
sI14
S'KIC8462852-20181108at020057_-25-1X1-030-V_cal.fts.mag.1'
p544
ssg121
(dp545
I0
F0.005351323685923123
sI1
Fnan
sI2
Fnan
sI3
Fnan
sI4
Fnan
sI5
Fnan
sI6
Fnan
sI7
Fnan
sI8
Fnan
sI9
Fnan
sI10
Fnan
sI11
Fnan
sI12
Fnan
sI13
Fnan
sI14
Fnan
ssg123
(dp546
I0
F6068.7266666666665
sI1
F6398.823333333334
sI2
F6101.093333333333
sI3
F6345.15
sI4
F6182.093333333333
sI5
F5985.21
sI6
F6443.6
sI7
F6235.166666666667
sI8
F6358.41
sI9
F6005.95
sI10
F6101.193333333333
sI11
F6071.66
sI12
F6235.943333333333
sI13
F6388.466666666666
sI14
F6326.596666666666
ssg125
(dp547
I0
F0.026050683200985275
sI1
Fnan
sI2
Fnan
sI3
Fnan
sI4
Fnan
sI5
Fnan
sI6
Fnan
sI7
Fnan
sI8
Fnan
sI9
Fnan
sI10
Fnan
sI11
Fnan
sI12
Fnan
sI13
Fnan
sI14
Fnan
ssg127
(dp548
I0
g469
sI1
g469
sI2
g469
sI3
g469
sI4
g469
sI5
g469
sI6
g469
sI7
g469
sI8
g469
sI9
g469
sI10
g469
sI11
g469
sI12
g469
sI13
g469
sI14
g469
ssg144
(dp549
I0
F0.0025359535370936812
sI1
Fnan
sI2
Fnan
sI3
Fnan
sI4
Fnan
sI5
Fnan
sI6
Fnan
sI7
Fnan
sI8
Fnan
sI9
Fnan
sI10
Fnan
sI11
Fnan
sI12
Fnan
sI13
Fnan
sI14
Fnan
ssg146
(dp550
I0
F2.955405
sI1
F-3.392142
sI2
F2.913333
sI3
F-2.004642
sI4
F4.046172
sI5
F2.376668
sI6
F3.237137
sI7
F3.589145
sI8
F-3.154757
sI9
F-3.350864
sI10
F2.821985
sI11
F2.074356
sI12
F2.364897
sI13
F1.817943
sI14
F-2.725428
ssg148
(dp551
I0
F1.5074582635203067
sI1
Fnan
sI2
Fnan
sI3
Fnan
sI4
Fnan
sI5
Fnan
sI6
Fnan
sI7
Fnan
sI8
Fnan
sI9
Fnan
sI10
Fnan
sI11
Fnan
sI12
Fnan
sI13
Fnan
sI14
Fnan
ssg150
(dp552
I0
F2458430.604074074
sI1
Fnan
sI2
Fnan
sI3
Fnan
sI4
Fnan
sI5
Fnan
sI6
Fnan
sI7
Fnan
sI8
Fnan
sI9
Fnan
sI10
Fnan
sI11
Fnan
sI12
Fnan
sI13
Fnan
sI14
Fnan
ssg152
(dp553
I0
F0.0025359535370936812
sI1
Fnan
sI2
Fnan
sI3
Fnan
sI4
Fnan
sI5
Fnan
sI6
Fnan
sI7
Fnan
sI8
Fnan
sI9
Fnan
sI10
Fnan
sI11
Fnan
sI12
Fnan
sI13
Fnan
sI14
Fnan
ssg154
(dp554
I0
F0.7617058
sI1
F-1.523894
sI2
F-1.223643
sI3
F-1.663875
sI4
F-0.5643551
sI5
F0.002945742
sI6
F-1.494782
sI7
F-1.092218
sI8
F-2.256891
sI9
F1.298301
sI10
F-0.3363234
sI11
F1.458431
sI12
F-1.375616
sI13
F-0.2850307
sI14
F-0.3830315
ssg156
(dp555
I0
F10.873
sI1
F10.806
sI2
F10.856
sI3
F10.813
sI4
F10.847
sI5
F10.887
sI6
F10.806
sI7
F10.834
sI8
F10.82
sI9
F10.877
sI10
F10.86
sI11
F10.861
sI12
F10.843
sI13
F10.812
sI14
F10.832
ssg158
(dp556
I0
F0.6926249558082815
sI1
Fnan
sI2
Fnan
sI3
Fnan
sI4
Fnan
sI5
Fnan
sI6
Fnan
sI7
Fnan
sI8
Fnan
sI9
Fnan
sI10
Fnan
sI11
Fnan
sI12
Fnan
sI13
Fnan
sI14
Fnan
sss.