(dp0
S'i'
p1
(dp2
S'sigmean'
p3
(dp4
I0
F0.44012936969790634
sI1
Fnan
sI2
Fnan
sI3
Fnan
sI4
Fnan
sI5
Fnan
sI6
Fnan
sI7
Fnan
sI8
Fnan
sI9
Fnan
sI10
Fnan
sI11
Fnan
sI12
Fnan
sI13
Fnan
sI14
Fnan
ssS'ref3flag'
p5
(dp6
I0
S'NoError'
p7
sI1
S'NoError'
p8
sI2
S'NoError'
p9
sI3
S'NoError'
p10
sI4
S'NoError'
p11
sI5
S'NoError'
p12
sI6
S'NoError'
p13
sI7
S'NoError'
p14
sI8
S'NoError'
p15
sI9
S'NoError'
p16
sI10
S'NoError'
p17
sI11
S'NoError'
p18
sI12
S'NoError'
p19
sI13
S'NoError'
p20
sI14
S'NoError'
p21
ssS'tabbyerr'
p22
(dp23
I0
F0.005
sI1
F0.005
sI2
F0.004
sI3
F0.005
sI4
F0.005
sI5
F0.005
sI6
F0.005
sI7
F0.005
sI8
F0.004
sI9
F0.005
sI10
F0.004
sI11
F0.005
sI12
F0.004
sI13
F0.005
sI14
F0.005
ssS'ref2rel'
p24
(dp25
I0
F0.9076453248174368
sI1
F0.9100673324838104
sI2
F0.9075774159163046
sI3
F0.9131713321923419
sI4
F0.9095772783239131
sI5
F0.9079101248284971
sI6
F0.905738306591634
sI7
F0.9025537618660412
sI8
F0.9072135084301739
sI9
F0.9128898494144743
sI10
F0.9090250651105873
sI11
F0.9184906679598419
sI12
F0.9101302425934756
sI13
F0.9109293078888125
sI14
F0.9084634441228727
ssS'ref2err'
p26
(dp27
I0
F0.0036555155840301244
sI1
Fnan
sI2
Fnan
sI3
Fnan
sI4
Fnan
sI5
Fnan
sI6
Fnan
sI7
Fnan
sI8
Fnan
sI9
Fnan
sI10
Fnan
sI11
Fnan
sI12
Fnan
sI13
Fnan
sI14
Fnan
ssS'ref2mean'
p28
(dp29
I0
F0.9094255308360145
sI1
Fnan
sI2
Fnan
sI3
Fnan
sI4
Fnan
sI5
Fnan
sI6
Fnan
sI7
Fnan
sI8
Fnan
sI9
Fnan
sI10
Fnan
sI11
Fnan
sI12
Fnan
sI13
Fnan
sI14
Fnan
ssS'tabbymag'
p30
(dp31
I0
F12.494
sI1
F12.57
sI2
F12.429
sI3
F12.587
sI4
F12.499
sI5
F12.485
sI6
F12.59
sI7
F12.546
sI8
F12.415
sI9
F12.567
sI10
F12.423
sI11
F12.6
sI12
F12.383
sI13
F12.542
sI14
F12.545
ssS'tabbybkg'
p32
(dp33
I0
F50.87014
sI1
F62.70468
sI2
F47.36246
sI3
F60.2583
sI4
F51.00581
sI5
F52.64112
sI6
F62.68325
sI7
F51.01962
sI8
F43.31759
sI9
F65.75373
sI10
F50.38607
sI11
F64.72554
sI12
F45.27956
sI13
F64.34492
sI14
F56.94915
ssS'JD'
p34
(dp35
I0
F2458472.5686689815
sI1
F2458472.606701389
sI2
F2458472.5878125
sI3
F2458472.587037037
sI4
F2458472.589351852
sI5
F2458472.567847222
sI6
F2458472.607476852
sI7
F2458472.5694560185
sI8
F2458472.5702314815
sI9
F2458472.6098148148
sI10
F2458472.590127315
sI11
F2458472.608263889
sI12
F2458472.588576389
sI13
F2458472.609039352
sI14
F2458472.567071759
ssS'ref3rmsmean'
p36
(dp37
I0
F3.0101181333333336
sI1
Fnan
sI2
Fnan
sI3
Fnan
sI4
Fnan
sI5
Fnan
sI6
Fnan
sI7
Fnan
sI8
Fnan
sI9
Fnan
sI10
Fnan
sI11
Fnan
sI12
Fnan
sI13
Fnan
sI14
Fnan
ssS'ref1rmsmean'
p38
(dp39
I0
F-0.02581626666666666
sI1
Fnan
sI2
Fnan
sI3
Fnan
sI4
Fnan
sI5
Fnan
sI6
Fnan
sI7
Fnan
sI8
Fnan
sI9
Fnan
sI10
Fnan
sI11
Fnan
sI12
Fnan
sI13
Fnan
sI14
Fnan
ssS'relflux'
p40
(dp41
I0
F0.4363999210454261
sI1
F0.44207332490518336
sI2
F0.4391621185319249
sI3
F0.43934623445174537
sI4
F0.43682868699335486
sI5
F0.4421131471182648
sI6
F0.4389487167533091
sI7
F0.4373779159395614
sI8
F0.4412838730640095
sI9
F0.44451427127154397
sI10
F0.4386931628637374
sI11
F0.43368438277633137
sI12
F0.4404078677915368
sI13
F0.4445325653431846
sI14
F0.4466615811287423
ssS'sigerr'
p42
(dp43
I0
F0.0025588393709604505
sI1
Fnan
sI2
Fnan
sI3
Fnan
sI4
Fnan
sI5
Fnan
sI6
Fnan
sI7
Fnan
sI8
Fnan
sI9
Fnan
sI10
Fnan
sI11
Fnan
sI12
Fnan
sI13
Fnan
sI14
Fnan
ssS'tabbyrmsmean'
p44
(dp45
I0
F1.1214107333333334
sI1
Fnan
sI2
Fnan
sI3
Fnan
sI4
Fnan
sI5
Fnan
sI6
Fnan
sI7
Fnan
sI8
Fnan
sI9
Fnan
sI10
Fnan
sI11
Fnan
sI12
Fnan
sI13
Fnan
sI14
Fnan
ssS'tabbyflag'
p46
(dp47
I0
g7
sI1
g8
sI2
g9
sI3
g10
sI4
g11
sI5
g12
sI6
g13
sI7
g14
sI8
g15
sI9
g16
sI10
g17
sI11
g18
sI12
g19
sI13
g20
sI14
g21
ssS'ref1err'
p48
(dp49
I0
F0.0032779885248720125
sI1
Fnan
sI2
Fnan
sI3
Fnan
sI4
Fnan
sI5
Fnan
sI6
Fnan
sI7
Fnan
sI8
Fnan
sI9
Fnan
sI10
Fnan
sI11
Fnan
sI12
Fnan
sI13
Fnan
sI14
Fnan
ssS'ref2magmeanerr'
p50
(dp51
I0
F0.07088770462264014
sI1
Fnan
sI2
Fnan
sI3
Fnan
sI4
Fnan
sI5
Fnan
sI6
Fnan
sI7
Fnan
sI8
Fnan
sI9
Fnan
sI10
Fnan
sI11
Fnan
sI12
Fnan
sI13
Fnan
sI14
Fnan
ssS'ref2rmsmean'
p52
(dp53
I0
F0.47027820000000004
sI1
Fnan
sI2
Fnan
sI3
Fnan
sI4
Fnan
sI5
Fnan
sI6
Fnan
sI7
Fnan
sI8
Fnan
sI9
Fnan
sI10
Fnan
sI11
Fnan
sI12
Fnan
sI13
Fnan
sI14
Fnan
ssS'ref3rel'
p54
(dp55
I0
F1.5024221790700996
sI1
F1.5007438275459388
sI2
F1.499264366338244
sI3
F1.5042756746242798
sI4
F1.5029540801997034
sI5
F1.505405469381406
sI6
F1.5059052279146545
sI7
F1.5078334716880275
sI8
F1.5133092001288684
sI9
F1.501476266099023
sI10
F1.5082854353572381
sI11
F1.494780334481988
sI12
F1.5158307319960183
sI13
F1.5059356831551531
sI14
F1.5008251274091142
ssS'ref1flag'
p56
(dp57
I0
g7
sI1
g8
sI2
g9
sI3
g10
sI4
g11
sI5
g12
sI6
g13
sI7
g14
sI8
g15
sI9
g16
sI10
g17
sI11
g18
sI12
g19
sI13
g20
sI14
g21
ssS'ref2bkg'
p58
(dp59
I0
F51.31153
sI1
F63.39723
sI2
F49.26788
sI3
F60.80439
sI4
F51.81252
sI5
F54.00303
sI6
F64.03665
sI7
F51.99174
sI8
F44.38269
sI9
F65.69349
sI10
F50.56824
sI11
F64.11976
sI12
F46.5659
sI13
F64.72367
sI14
F57.54736
ssS'ref3magmean'
p60
(dp61
I0
F11.345933333333331
sI1
Fnan
sI2
Fnan
sI3
Fnan
sI4
Fnan
sI5
Fnan
sI6
Fnan
sI7
Fnan
sI8
Fnan
sI9
Fnan
sI10
Fnan
sI11
Fnan
sI12
Fnan
sI13
Fnan
sI14
Fnan
ssS'ref1mean'
p62
(dp63
I0
F0.6957813292632451
sI1
Fnan
sI2
Fnan
sI3
Fnan
sI4
Fnan
sI5
Fnan
sI6
Fnan
sI7
Fnan
sI8
Fnan
sI9
Fnan
sI10
Fnan
sI11
Fnan
sI12
Fnan
sI13
Fnan
sI14
Fnan
ssS'ref1rms'
p64
(dp65
I0
F4.077601
sI1
F3.530827
sI2
F3.206343
sI3
F-3.162768
sI4
F5.013458
sI5
F-2.630021
sI6
F2.086568
sI7
F4.567511
sI8
F-4.405211
sI9
F-2.130339
sI10
F-3.064552
sI11
F-3.431698
sI12
F4.061602
sI13
F-3.657438
sI14
F-4.449127
ssS'ref2magmean'
p66
(dp67
I0
F11.690266666666666
sI1
Fnan
sI2
Fnan
sI3
Fnan
sI4
Fnan
sI5
Fnan
sI6
Fnan
sI7
Fnan
sI8
Fnan
sI9
Fnan
sI10
Fnan
sI11
Fnan
sI12
Fnan
sI13
Fnan
sI14
Fnan
ssS'ref2flag'
p68
(dp69
I0
g7
sI1
g8
sI2
g9
sI3
g10
sI4
g11
sI5
g12
sI6
g13
sI7
g14
sI8
g15
sI9
g16
sI10
g17
sI11
g18
sI12
g19
sI13
g20
sI14
g21
ssS'ref2'
p70
(dp71
I0
F5419.126666666666
sI1
F4996.873333333334
sI2
F5720.1866666666665
sI3
F4960.276666666667
sI4
F5400.163333333333
sI5
F5394.213333333333
sI6
F4925.34
sI7
F5135.446666666667
sI8
F5762.426666666666
sI9
F4997.026666666667
sI10
F5760.759999999999
sI11
F4987.6033333333335
sI12
F5957.586666666667
sI13
F5105.166666666667
sI14
F5056.88
ssS'airmass'
p72
(dp73
I0
F1.352994
sI1
F1.612969
sI2
F1.468673
sI3
F1.4634639999999999
sI4
F1.479233
sI5
F1.34855
sI6
F1.6196549999999998
sI7
F1.3572309999999999
sI8
F1.361502
sI9
F1.6401
sI10
F1.4845899999999999
sI11
F1.626419
sI12
F1.473968
sI13
F1.633224
sI14
F1.3444260000000001
ssS'ref1'
p74
(dp75
I0
F4494.123333333334
sI1
F4131.586666666667
sI2
F4753.776666666667
sI3
F4071.0466666666666
sI4
F4462.466666666666
sI5
F4463.086666666667
sI6
F4088.7066666666665
sI7
F4280.77
sI8
F4749.6
sI9
F4110.41
sI10
F4748.846666666666
sI11
F4081.9433333333336
sI12
F4878.72
sI13
F4201.26
sI14
F4192.196666666667
ssS'ref3'
p76
(dp77
I0
F7446.943333333333
sI1
F6849.740000000001
sI2
F7851.62
sI3
F6792.8
sI4
F7411.54
sI5
F7419.616666666667
sI6
F6787.15
sI7
F7099.043333333333
sI8
F7953.973333333333
sI9
F6837.3
sI10
F7925.743333333333
sI11
F6778.490000000001
sI12
F8213.003333333334
sI13
F7007.4400000000005
sI14
F6940.623333333334
ssS'ref1bkg'
p78
(dp79
I0
F49.73219
sI1
F62.82105
sI2
F48.82976
sI3
F61.75248
sI4
F50.77115
sI5
F52.83022
sI6
F63.32672
sI7
F50.93931
sI8
F45.46355
sI9
F66.92389
sI10
F51.31782
sI11
F64.43466
sI12
F46.60565
sI13
F64.45464
sI14
F59.53008
ssS'ref1mag'
p80
(dp81
I0
F11.868
sI1
F11.96
sI2
F11.807
sI3
F11.976
sI4
F11.876
sI5
F11.876
sI6
F11.971
sI7
F11.921
sI8
F11.808
sI9
F11.965
sI10
F11.809
sI11
F11.973
sI12
F11.779
sI13
F11.942
sI14
F11.944
ssS'ref3magerr'
p82
(dp83
I0
F0.002
sI1
F0.002
sI2
F0.002
sI3
F0.002
sI4
F0.002
sI5
F0.002
sI6
F0.002
sI7
F0.002
sI8
F0.002
sI9
F0.002
sI10
F0.002
sI11
F0.002
sI12
F0.002
sI13
F0.002
sI14
F0.002
ssS'tabbymagmean'
p84
(dp85
I0
F0.44013518466519036
sI1
Fnan
sI2
Fnan
sI3
Fnan
sI4
Fnan
sI5
Fnan
sI6
Fnan
sI7
Fnan
sI8
Fnan
sI9
Fnan
sI10
Fnan
sI11
Fnan
sI12
Fnan
sI13
Fnan
sI14
Fnan
ssS'ref1magmean'
p86
(dp87
I0
F11.898333333333333
sI1
Fnan
sI2
Fnan
sI3
Fnan
sI4
Fnan
sI5
Fnan
sI6
Fnan
sI7
Fnan
sI8
Fnan
sI9
Fnan
sI10
Fnan
sI11
Fnan
sI12
Fnan
sI13
Fnan
sI14
Fnan
ssS'ref2mag'
p88
(dp89
I0
F11.665
sI1
F11.753
sI2
F11.606
sI3
F11.761
sI4
F11.669
sI5
F11.67
sI6
F11.769
sI7
F11.724
sI8
F11.598
sI9
F11.753
sI10
F11.599
sI11
F11.755
sI12
F11.562
sI13
F11.73
sI14
F11.74
ssS'ref3rms'
p90
(dp91
I0
F4.191041
sI1
F4.095903
sI2
F4.576359
sI3
F4.711548
sI4
F4.378381
sI5
F5.163812
sI6
F3.900595
sI7
F3.932032
sI8
F4.068482
sI9
F-3.630874
sI10
F3.248518
sI11
F-5.531033
sI12
F2.990832
sI13
F3.745842
sI14
F5.310334
ssS'ref3magmeanerr'
p92
(dp93
I0
F0.0730102406385242
sI1
Fnan
sI2
Fnan
sI3
Fnan
sI4
Fnan
sI5
Fnan
sI6
Fnan
sI7
Fnan
sI8
Fnan
sI9
Fnan
sI10
Fnan
sI11
Fnan
sI12
Fnan
sI13
Fnan
sI14
Fnan
ssS'ref1rel'
p94
(dp95
I0
F0.6986007900366366
sI1
F0.6975135509895374
sI2
F0.7005370446872462
sI3
F0.6927627177337679
sI4
F0.6966234778565743
sI5
F0.6966046321305445
sI6
F0.6981788956347739
sI7
F0.699787240824914
sI8
F0.6925432329182585
sI9
F0.6946588708891478
sI10
F0.6939459335973567
sI11
F0.693848538795658
sI12
F0.6885697772640377
sI13
F0.693700392593722
sI14
F0.6988448429965012
ssS'exposure'
p96
(dp97
I0
F30.0
sI1
F30.0
sI2
F30.0
sI3
F30.0
sI4
F30.0
sI5
F30.0
sI6
F30.0
sI7
F30.0
sI8
F30.0
sI9
F30.0
sI10
F30.0
sI11
F30.0
sI12
F30.0
sI13
F30.0
sI14
F30.0
ssS'ref1magerr'
p98
(dp99
I0
F0.003
sI1
F0.003
sI2
F0.003
sI3
F0.003
sI4
F0.003
sI5
F0.003
sI6
F0.003
sI7
F0.003
sI8
F0.003
sI9
F0.003
sI10
F0.003
sI11
F0.003
sI12
F0.003
sI13
F0.003
sI14
F0.003
ssS'ref2magerr'
p100
(dp101
I0
F0.003
sI1
F0.003
sI2
F0.003
sI3
F0.003
sI4
F0.003
sI5
F0.003
sI6
F0.003
sI7
F0.003
sI8
F0.003
sI9
F0.003
sI10
F0.003
sI11
F0.003
sI12
F0.003
sI13
F0.003
sI14
F0.003
ssS'ref2rms'
p102
(dp103
I0
F-1.960356
sI1
F3.481085
sI2
F-3.104936
sI3
F2.119433
sI4
F4.645177
sI5
F-3.68452
sI6
F1.892684
sI7
F3.071332
sI8
F2.181685
sI9
F-3.97369
sI10
F-2.904037
sI11
F5.425462
sI12
F1.491217
sI13
F-4.428318
sI14
F2.801955
ssS'name'
p104
(dp105
I0
S"KIC8462852-20181220at013853_-35-1X1-030-i'_cal.fts.mag.1"
p106
sI1
S"KIC8462852-20181220at023338_-35-1X1-030-i'_cal.fts.mag.1"
p107
sI2
S"KIC8462852-20181220at020627_-35-1X1-030-i'_cal.fts.mag.1"
p108
sI3
S"KIC8462852-20181220at020519_-35-1X1-030-i'_cal.fts.mag.1"
p109
sI4
S"KIC8462852-20181220at020840_-35-1X1-030-i'_cal.fts.mag.1"
p110
sI5
S"KIC8462852-20181220at013742_-35-1X1-030-i'_cal.fts.mag.1"
p111
sI6
S"KIC8462852-20181220at023446_-35-1X1-030-i'_cal.fts.mag.1"
p112
sI7
S"KIC8462852-20181220at014000_-35-1X1-030-i'_cal.fts.mag.1"
p113
sI8
S"KIC8462852-20181220at014108_-35-1X1-030-i'_cal.fts.mag.1"
p114
sI9
S"KIC8462852-20181220at023808_-35-1X1-030-i'_cal.fts.mag.1"
p115
sI10
S"KIC8462852-20181220at020947_-35-1X1-030-i'_cal.fts.mag.1"
p116
sI11
S"KIC8462852-20181220at023554_-35-1X1-030-i'_cal.fts.mag.1"
p117
sI12
S"KIC8462852-20181220at020733_-35-1X1-030-i'_cal.fts.mag.1"
p118
sI13
S"KIC8462852-20181220at023701_-35-1X1-030-i'_cal.fts.mag.1"
p119
sI14
S"KIC8462852-20181220at013633_-35-1X1-030-i'_cal.fts.mag.1"
p120
ssS'ref3err'
p121
(dp122
I0
F0.005355098135098705
sI1
Fnan
sI2
Fnan
sI3
Fnan
sI4
Fnan
sI5
Fnan
sI6
Fnan
sI7
Fnan
sI8
Fnan
sI9
Fnan
sI10
Fnan
sI11
Fnan
sI12
Fnan
sI13
Fnan
sI14
Fnan
ssS'tabby'
p123
(dp124
I0
F2525.3289999999997
sI1
F2354.512
sI2
F2682.634
sI3
F2317.4230000000002
sI4
F2515.2843333333335
sI5
F2546.1173333333336
sI6
F2311.9716666666664
sI7
F2407.8033333333337
sI8
F2716.249333333333
sI9
F2362.5543333333335
sI10
F2695.8206666666665
sI11
F2291.0153333333337
sI12
F2796.4886666666666
sI13
F2417.3483333333334
sI14
F2410.439
ssS'ref1magmeanerr'
p125
(dp126
I0
F0.07085263042467285
sI1
Fnan
sI2
Fnan
sI3
Fnan
sI4
Fnan
sI5
Fnan
sI6
Fnan
sI7
Fnan
sI8
Fnan
sI9
Fnan
sI10
Fnan
sI11
Fnan
sI12
Fnan
sI13
Fnan
sI14
Fnan
ssS'filter'
p127
(dp128
I0
S"i'"
p129
sI1
S"i'"
p130
sI2
S"i'"
p131
sI3
S"i'"
p132
sI4
S"i'"
p133
sI5
S"i'"
p134
sI6
S"i'"
p135
sI7
S"i'"
p136
sI8
S"i'"
p137
sI9
S"i'"
p138
sI10
S"i'"
p139
sI11
S"i'"
p140
sI12
S"i'"
p141
sI13
S"i'"
p142
sI14
S"i'"
p143
ssS'tabbymagerr'
p144
(dp145
I0
F0.003477752778444043
sI1
Fnan
sI2
Fnan
sI3
Fnan
sI4
Fnan
sI5
Fnan
sI6
Fnan
sI7
Fnan
sI8
Fnan
sI9
Fnan
sI10
Fnan
sI11
Fnan
sI12
Fnan
sI13
Fnan
sI14
Fnan
ssS'tabbyrms'
p146
(dp147
I0
F-1.390197
sI1
F4.574439
sI2
F2.668623
sI3
F3.486622
sI4
F-4.489787
sI5
F1.195554
sI6
F-2.171679
sI7
F-1.380429
sI8
F4.167466
sI9
F2.909534
sI10
F3.446356
sI11
F-5.744753
sI12
F3.695951
sI13
F4.049055
sI14
F1.804406
ssS'ref3mean'
p148
(dp149
I0
F1.5046164716926504
sI1
Fnan
sI2
Fnan
sI3
Fnan
sI4
Fnan
sI5
Fnan
sI6
Fnan
sI7
Fnan
sI8
Fnan
sI9
Fnan
sI10
Fnan
sI11
Fnan
sI12
Fnan
sI13
Fnan
sI14
Fnan
ssS'median_JD'
p150
(dp151
I0
F2458472.588576389
sI1
Fnan
sI2
Fnan
sI3
Fnan
sI4
Fnan
sI5
Fnan
sI6
Fnan
sI7
Fnan
sI8
Fnan
sI9
Fnan
sI10
Fnan
sI11
Fnan
sI12
Fnan
sI13
Fnan
sI14
Fnan
ssS'error'
p152
(dp153
I0
F0.003477752778444043
sI1
Fnan
sI2
Fnan
sI3
Fnan
sI4
Fnan
sI5
Fnan
sI6
Fnan
sI7
Fnan
sI8
Fnan
sI9
Fnan
sI10
Fnan
sI11
Fnan
sI12
Fnan
sI13
Fnan
sI14
Fnan
ssS'ref3bkg'
p154
(dp155
I0
F50.14925
sI1
F63.87909
sI2
F49.37719
sI3
F61.13696
sI4
F53.33762
sI5
F54.01967
sI6
F64.07471
sI7
F52.45404
sI8
F46.04929
sI9
F66.5312
sI10
F51.59055
sI11
F65.00941
sI12
F47.51006
sI13
F65.81371
sI14
F57.95406
ssS'ref3mag'
p156
(dp157
I0
F11.32
sI1
F11.411
sI2
F11.263
sI3
F11.42
sI4
F11.325
sI5
F11.324
sI6
F11.421
sI7
F11.372
sI8
F11.249
sI9
F11.413
sI10
F11.252
sI11
F11.422
sI12
F11.214
sI13
F11.386
sI14
F11.397
ssS'mean'
p158
(dp159
I0
F0.44013518466519036
sI1
Fnan
sI2
Fnan
sI3
Fnan
sI4
Fnan
sI5
Fnan
sI6
Fnan
sI7
Fnan
sI8
Fnan
sI9
Fnan
sI10
Fnan
sI11
Fnan
sI12
Fnan
sI13
Fnan
sI14
Fnan
sssS'r'
p160
(dp161
g3
(dp162
I0
F0.5512077339466867
sI1
Fnan
sI2
Fnan
sI3
Fnan
sI4
Fnan
sI5
Fnan
sI6
Fnan
sI7
Fnan
sI8
Fnan
sI9
Fnan
sI10
Fnan
sI11
Fnan
sI12
Fnan
sI13
Fnan
sI14
Fnan
ssg5
(dp163
I0
S'NoError'
p164
sI1
S'NoError'
p165
sI2
S'NoError'
p166
sI3
S'NoError'
p167
sI4
S'NoError'
p168
sI5
S'NoError'
p169
sI6
S'NoError'
p170
sI7
S'NoError'
p171
sI8
S'NoError'
p172
sI9
S'NoError'
p173
sI10
S'NoError'
p174
sI11
S'NoError'
p175
sI12
S'NoError'
p176
sI13
S'NoError'
p177
sI14
S'NoError'
p178
ssg22
(dp179
I0
F0.003
sI1
F0.003
sI2
F0.003
sI3
F0.004
sI4
F0.003
sI5
F0.003
sI6
F0.003
sI7
F0.003
sI8
F0.003
sI9
F0.003
sI10
F0.003
sI11
F0.003
sI12
F0.003
sI13
F0.003
sI14
F0.003
ssg24
(dp180
I0
F0.8937146852666576
sI1
F0.8921450558511845
sI2
F0.8947467806281244
sI3
F0.8938788354330482
sI4
F0.8920667163538339
sI5
F0.893051724936103
sI6
F0.8890615908239476
sI7
F0.8939149267068428
sI8
F0.8929450421957053
sI9
F0.895186014893876
sI10
F0.8953671017688225
sI11
F0.8935180315494109
sI12
F0.8939490548931572
sI13
F0.8918207943865264
sI14
F0.8906691039288416
ssg26
(dp181
I0
F0.001702795777294911
sI1
Fnan
sI2
Fnan
sI3
Fnan
sI4
Fnan
sI5
Fnan
sI6
Fnan
sI7
Fnan
sI8
Fnan
sI9
Fnan
sI10
Fnan
sI11
Fnan
sI12
Fnan
sI13
Fnan
sI14
Fnan
ssg28
(dp182
I0
F0.8930690306410721
sI1
Fnan
sI2
Fnan
sI3
Fnan
sI4
Fnan
sI5
Fnan
sI6
Fnan
sI7
Fnan
sI8
Fnan
sI9
Fnan
sI10
Fnan
sI11
Fnan
sI12
Fnan
sI13
Fnan
sI14
Fnan
ssg30
(dp183
I0
F11.783
sI1
F11.497
sI2
F11.843
sI3
F11.975
sI4
F11.651
sI5
F11.728
sI6
F11.775
sI7
F11.659
sI8
F11.895
sI9
F11.834
sI10
F11.609
sI11
F11.845
sI12
F11.94
sI13
F11.752
sI14
F11.95
ssg32
(dp184
I0
F98.76283
sI1
F61.5743
sI2
F91.72626
sI3
F112.5898
sI4
F78.7736
sI5
F89.08233
sI6
F96.85143
sI7
F81.0146
sI8
F107.3511
sI9
F101.0245
sI10
F79.86089
sI11
F107.5327
sI12
F112.0227
sI13
F85.73229
sI14
F112.5791
ssg34
(dp185
I0
F2458472.5846064813
sI1
F2458472.58306713
sI2
F2458472.566284722
sI3
F2458472.6035763887
sI4
F2458472.5646412037
sI5
F2458472.563090278
sI6
F2458472.605127315
sI7
F2458472.563865741
sI8
F2458472.604363426
sI9
F2458472.58537037
sI10
F2458472.583842593
sI11
F2458472.605902778
sI12
F2458472.58625
sI13
F2458472.5654166667
sI14
F2458472.6028009257
ssg36
(dp186
I0
F1.601434266666667
sI1
Fnan
sI2
Fnan
sI3
Fnan
sI4
Fnan
sI5
Fnan
sI6
Fnan
sI7
Fnan
sI8
Fnan
sI9
Fnan
sI10
Fnan
sI11
Fnan
sI12
Fnan
sI13
Fnan
sI14
Fnan
ssg38
(dp187
I0
F0.9779241333333331
sI1
Fnan
sI2
Fnan
sI3
Fnan
sI4
Fnan
sI5
Fnan
sI6
Fnan
sI7
Fnan
sI8
Fnan
sI9
Fnan
sI10
Fnan
sI11
Fnan
sI12
Fnan
sI13
Fnan
sI14
Fnan
ssg40
(dp188
I0
F0.5526182135906004
sI1
F0.550569436146201
sI2
F0.5527297283438366
sI3
F0.5487221412054585
sI4
F0.5532055878436357
sI5
F0.551562289115122
sI6
F0.5527028833581683
sI7
F0.5524086007367505
sI8
F0.5489750985812395
sI9
F0.5510878795536708
sI10
F0.5491222385483572
sI11
F0.5520944330168611
sI12
F0.550030093813688
sI13
F0.5510796514000229
sI14
F0.5472245094753533
ssg42
(dp189
I0
F0.0014693047668159723
sI1
Fnan
sI2
Fnan
sI3
Fnan
sI4
Fnan
sI5
Fnan
sI6
Fnan
sI7
Fnan
sI8
Fnan
sI9
Fnan
sI10
Fnan
sI11
Fnan
sI12
Fnan
sI13
Fnan
sI14
Fnan
ssg44
(dp190
I0
F1.0872663333333332
sI1
Fnan
sI2
Fnan
sI3
Fnan
sI4
Fnan
sI5
Fnan
sI6
Fnan
sI7
Fnan
sI8
Fnan
sI9
Fnan
sI10
Fnan
sI11
Fnan
sI12
Fnan
sI13
Fnan
sI14
Fnan
ssg46
(dp191
I0
g164
sI1
g165
sI2
g166
sI3
g167
sI4
g168
sI5
g169
sI6
g170
sI7
g171
sI8
g172
sI9
g173
sI10
g174
sI11
g175
sI12
g176
sI13
g177
sI14
g178
ssg48
(dp192
I0
F0.002385425184072116
sI1
Fnan
sI2
Fnan
sI3
Fnan
sI4
Fnan
sI5
Fnan
sI6
Fnan
sI7
Fnan
sI8
Fnan
sI9
Fnan
sI10
Fnan
sI11
Fnan
sI12
Fnan
sI13
Fnan
sI14
Fnan
ssg50
(dp193
I0
F0.1351427111647255
sI1
Fnan
sI2
Fnan
sI3
Fnan
sI4
Fnan
sI5
Fnan
sI6
Fnan
sI7
Fnan
sI8
Fnan
sI9
Fnan
sI10
Fnan
sI11
Fnan
sI12
Fnan
sI13
Fnan
sI14
Fnan
ssg52
(dp194
I0
F1.09655786
sI1
Fnan
sI2
Fnan
sI3
Fnan
sI4
Fnan
sI5
Fnan
sI6
Fnan
sI7
Fnan
sI8
Fnan
sI9
Fnan
sI10
Fnan
sI11
Fnan
sI12
Fnan
sI13
Fnan
sI14
Fnan
ssg54
(dp195
I0
F1.496455037104916
sI1
F1.4993160762578777
sI2
F1.4937075713021395
sI3
F1.5012775279029336
sI4
F1.5013209418276035
sI5
F1.499276159094422
sI6
F1.4996981530389328
sI7
F1.4938809222273786
sI8
F1.4980158730158732
sI9
F1.4900059411686142
sI10
F1.5018486541505685
sI11
F1.494475420014959
sI12
F1.5042382122376163
sI13
F1.499611408065232
sI14
F1.5071844720778054
ssg56
(dp196
I0
g164
sI1
g165
sI2
g166
sI3
g167
sI4
g168
sI5
g169
sI6
g170
sI7
g171
sI8
g172
sI9
g173
sI10
g174
sI11
g175
sI12
g176
sI13
g177
sI14
g178
ssg58
(dp197
I0
F99.47579
sI1
F62.61656
sI2
F93.9801
sI3
F113.2939
sI4
F80.22501
sI5
F90.3201
sI6
F98.20074
sI7
F82.09558
sI8
F107.215
sI9
F101.9826
sI10
F79.43849
sI11
F106.9464
sI12
F112.9938
sI13
F87.53365
sI14
F113.0915
ssg60
(dp198
I0
F10.862866666666665
sI1
Fnan
sI2
Fnan
sI3
Fnan
sI4
Fnan
sI5
Fnan
sI6
Fnan
sI7
Fnan
sI8
Fnan
sI9
Fnan
sI10
Fnan
sI11
Fnan
sI12
Fnan
sI13
Fnan
sI14
Fnan
ssg62
(dp199
I0
F0.7135272660149233
sI1
Fnan
sI2
Fnan
sI3
Fnan
sI4
Fnan
sI5
Fnan
sI6
Fnan
sI7
Fnan
sI8
Fnan
sI9
Fnan
sI10
Fnan
sI11
Fnan
sI12
Fnan
sI13
Fnan
sI14
Fnan
ssg64
(dp200
I0
F5.900736
sI1
F-3.461032
sI2
F4.981378
sI3
F-2.69837
sI4
F-3.652969
sI5
F4.627939
sI6
F3.697796
sI7
F4.768691
sI8
F-3.547285
sI9
F3.926553
sI10
F-5.294404
sI11
F4.160235
sI12
F3.366435
sI13
F1.616791
sI14
F-3.723632
ssg66
(dp201
I0
F11.218533333333331
sI1
Fnan
sI2
Fnan
sI3
Fnan
sI4
Fnan
sI5
Fnan
sI6
Fnan
sI7
Fnan
sI8
Fnan
sI9
Fnan
sI10
Fnan
sI11
Fnan
sI12
Fnan
sI13
Fnan
sI14
Fnan
ssg68
(dp202
I0
g164
sI1
g165
sI2
g166
sI3
g167
sI4
g168
sI5
g169
sI6
g170
sI7
g171
sI8
g172
sI9
g173
sI10
g174
sI11
g175
sI12
g176
sI13
g177
sI14
g178
ssg70
(dp203
I0
F8154.696666666667
sI1
F10639.09
sI2
F7715.570000000001
sI3
F6878.953333333334
sI4
F9184.296666666667
sI5
F8584.443333333333
sI6
F8179.526666666667
sI7
F9146.713333333335
sI8
F7398.9366666666665
sI9
F7810.153333333334
sI10
F9639.113333333335
sI11
F7701.863333333333
sI12
F7089.46
sI13
F8396.886666666667
sI14
F7042.403333333334
ssg72
(dp204
I0
F1.447383
sI1
F1.437482
sI2
F1.340279
sI3
F1.586695
sI4
F1.331795
sI5
F1.323919
sI6
F1.599586
sI7
F1.327867
sI8
F1.593066
sI9
F1.45252
sI10
F1.442411
sI11
F1.606185
sI12
F1.458264
sI13
F1.335769
sI14
F1.580242
ssg74
(dp205
I0
F6948.423333333334
sI1
F9073.146666666667
sI2
F6574.09
sI3
F5842.23
sI4
F7823.77
sI5
F7309.933333333333
sI6
F7010.29
sI7
F7803.553333333333
sI8
F6306.503333333333
sI9
F6665.113333333333
sI10
F8163.026666666667
sI11
F6572.826666666666
sI12
F6009.223333333333
sI13
F7163.566666666667
sI14
F5991.493333333333
ssg76
(dp206
I0
F11300.57
sI1
F14777.436666666666
sI2
F10672.286666666665
sI3
F9549.013333333334
sI4
F12767.283333333333
sI5
F11915.03
sI6
F11390.07
sI7
F12660.84
sI8
F10265.483333333334
sI9
F10784.116666666667
sI10
F13368.06
sI11
F10666.586666666666
sI12
F9851.769999999999
sI13
F11667.316666666668
sI14
F9822.243333333334
ssg78
(dp207
I0
F98.64037
sI1
F62.74378
sI2
F91.5536
sI3
F112.921
sI4
F79.99459
sI5
F88.38416
sI6
F96.39848
sI7
F80.94884
sI8
F107.7836
sI9
F101.4481
sI10
F80.87669
sI11
F107.5689
sI12
F113.035
sI13
F85.88087
sI14
F113.5611
ssg80
(dp208
I0
F11.395
sI1
F11.106
sI2
F11.455
sI3
F11.584
sI4
F11.266
sI5
F11.34
sI6
F11.386
sI7
F11.269
sI8
F11.501
sI9
F11.44
sI10
F11.22
sI11
F11.456
sI12
F11.553
sI13
F11.362
sI14
F11.556
ssg82
(dp209
I0
F0.002
sI1
F0.002
sI2
F0.002
sI3
F0.002
sI4
F0.002
sI5
F0.002
sI6
F0.002
sI7
F0.002
sI8
F0.002
sI9
F0.002
sI10
F0.002
sI11
F0.002
sI12
F0.002
sI13
F0.002
sI14
F0.002
ssg84
(dp210
I0
F0.5509421856485978
sI1
Fnan
sI2
Fnan
sI3
Fnan
sI4
Fnan
sI5
Fnan
sI6
Fnan
sI7
Fnan
sI8
Fnan
sI9
Fnan
sI10
Fnan
sI11
Fnan
sI12
Fnan
sI13
Fnan
sI14
Fnan
ssg86
(dp211
I0
F11.3926
sI1
Fnan
sI2
Fnan
sI3
Fnan
sI4
Fnan
sI5
Fnan
sI6
Fnan
sI7
Fnan
sI8
Fnan
sI9
Fnan
sI10
Fnan
sI11
Fnan
sI12
Fnan
sI13
Fnan
sI14
Fnan
ssg88
(dp212
I0
F11.221
sI1
F10.933
sI2
F11.282
sI3
F11.406
sI4
F11.092
sI5
F11.166
sI6
F11.218
sI7
F11.097
sI8
F11.327
sI9
F11.268
sI10
F11.04
sI11
F11.284
sI12
F11.373
sI13
F11.19
sI14
F11.381
ssg90
(dp213
I0
F4.82422
sI1
F-1.419571
sI2
F-4.430144
sI3
F-5.737013
sI4
F-4.212622
sI5
F4.884775
sI6
F5.138494
sI7
F3.155928
sI8
F5.16027
sI9
F-4.452459
sI10
F4.429893
sI11
F4.85719
sI12
F5.12431
sI13
F3.794661
sI14
F2.903582
ssg92
(dp214
I0
F0.13490836396112235
sI1
Fnan
sI2
Fnan
sI3
Fnan
sI4
Fnan
sI5
Fnan
sI6
Fnan
sI7
Fnan
sI8
Fnan
sI9
Fnan
sI10
Fnan
sI11
Fnan
sI12
Fnan
sI13
Fnan
sI14
Fnan
ssg94
(dp215
I0
F0.7142974138964943
sI1
F0.7139564572027808
sI2
F0.7150469050498364
sI3
F0.7112541824003376
sI4
F0.7128206716783029
sI5
F0.7131825500557575
sI6
F0.7164470601421015
sI7
F0.7156743550323388
sI8
F0.7140345772273682
sI9
F0.7168997044071461
sI10
F0.709607090658102
sI11
F0.7156648129446597
sI12
F0.7094199575040695
sI13
F0.7140644009289512
sI14
F0.7105388510956054
ssg96
(dp216
I0
F30.0
sI1
F30.0
sI2
F30.0
sI3
F30.0
sI4
F30.0
sI5
F30.0
sI6
F30.0
sI7
F30.0
sI8
F30.0
sI9
F30.0
sI10
F30.0
sI11
F30.0
sI12
F30.0
sI13
F30.0
sI14
F30.0
ssg98
(dp217
I0
F0.002
sI1
F0.002
sI2
F0.003
sI3
F0.003
sI4
F0.002
sI5
F0.002
sI6
F0.002
sI7
F0.002
sI8
F0.003
sI9
F0.003
sI10
F0.002
sI11
F0.003
sI12
F0.003
sI13
F0.002
sI14
F0.003
ssg100
(dp218
I0
F0.002
sI1
F0.002
sI2
F0.002
sI3
F0.003
sI4
F0.002
sI5
F0.002
sI6
F0.002
sI7
F0.002
sI8
F0.002
sI9
F0.002
sI10
F0.002
sI11
F0.002
sI12
F0.002
sI13
F0.002
sI14
F0.002
ssg102
(dp219
I0
F3.615513
sI1
F3.693695
sI2
F-5.204291
sI3
F-5.227032
sI4
F-4.333471
sI5
F-3.925765
sI6
F-3.252916
sI7
F4.417431
sI8
F4.237957
sI9
F4.221331
sI10
F4.852723
sI11
F5.305285
sI12
F4.331679
sI13
F0.6337069
sI14
F3.082522
ssg104
(dp220
I0
S"KIC8462852-20181220at020150_-35-1X1-030-r'_cal.fts.mag.1"
p221
sI1
S"KIC8462852-20181220at015934_-35-1X1-030-r'_cal.fts.mag.1"
p222
sI2
S"KIC8462852-20181220at013527_-35-1X1-030-r'_cal.fts.mag.1"
p223
sI3
S"KIC8462852-20181220at022909_-35-1X1-030-r'_cal.fts.mag.1"
p224
sI4
S"KIC8462852-20181220at013305_-35-1X1-030-r'_cal.fts.mag.1"
p225
sI5
S"KIC8462852-20181220at013050_-35-1X1-030-r'_cal.fts.mag.1"
p226
sI6
S"KIC8462852-20181220at023123_-35-1X1-030-r'_cal.fts.mag.1"
p227
sI7
S"KIC8462852-20181220at013158_-35-1X1-030-r'_cal.fts.mag.1"
p228
sI8
S"KIC8462852-20181220at023016_-35-1X1-030-r'_cal.fts.mag.1"
p229
sI9
S"KIC8462852-20181220at020256_-35-1X1-030-r'_cal.fts.mag.1"
p230
sI10
S"KIC8462852-20181220at020044_-35-1X1-030-r'_cal.fts.mag.1"
p231
sI11
S"KIC8462852-20181220at023230_-35-1X1-030-r'_cal.fts.mag.1"
p232
sI12
S"KIC8462852-20181220at020412_-35-1X1-030-r'_cal.fts.mag.1"
p233
sI13
S"KIC8462852-20181220at013412_-35-1X1-030-r'_cal.fts.mag.1"
p234
sI14
S"KIC8462852-20181220at022800_-35-1X1-030-r'_cal.fts.mag.1"
p235
ssg121
(dp236
I0
F0.00443774946793478
sI1
Fnan
sI2
Fnan
sI3
Fnan
sI4
Fnan
sI5
Fnan
sI6
Fnan
sI7
Fnan
sI8
Fnan
sI9
Fnan
sI10
Fnan
sI11
Fnan
sI12
Fnan
sI13
Fnan
sI14
Fnan
ssg123
(dp237
I0
F4863.72
sI1
F6329.653333333334
sI2
F4599.070000000001
sI3
F4073.383333333333
sI4
F5490.63
sI5
F5112.873333333334
sI6
F4896.926666666666
sI7
F5452.4766666666665
sI8
F4386.48
sI9
F4640.046666666666
sI10
F5705.416666666667
sI11
F4589.98
sI12
F4207.8133333333335
sI13
F5001.556666666667
sI14
F4169.1466666666665
ssg125
(dp238
I0
F0.13574124544251712
sI1
Fnan
sI2
Fnan
sI3
Fnan
sI4
Fnan
sI5
Fnan
sI6
Fnan
sI7
Fnan
sI8
Fnan
sI9
Fnan
sI10
Fnan
sI11
Fnan
sI12
Fnan
sI13
Fnan
sI14
Fnan
ssg127
(dp239
I0
S"r'"
p240
sI1
S"r'"
p241
sI2
S"r'"
p242
sI3
S"r'"
p243
sI4
S"r'"
p244
sI5
S"r'"
p245
sI6
S"r'"
p246
sI7
S"r'"
p247
sI8
S"r'"
p248
sI9
S"r'"
p249
sI10
S"r'"
p250
sI11
S"r'"
p251
sI12
S"r'"
p252
sI13
S"r'"
p253
sI14
S"r'"
p254
ssg144
(dp255
I0
F0.0017934868209877398
sI1
Fnan
sI2
Fnan
sI3
Fnan
sI4
Fnan
sI5
Fnan
sI6
Fnan
sI7
Fnan
sI8
Fnan
sI9
Fnan
sI10
Fnan
sI11
Fnan
sI12
Fnan
sI13
Fnan
sI14
Fnan
ssg146
(dp256
I0
F3.578307
sI1
F4.418396
sI2
F3.770814
sI3
F4.291965
sI4
F3.482673
sI5
F3.233155
sI6
F-4.839612
sI7
F4.773947
sI8
F4.356194
sI9
F5.695114
sI10
F-5.227791
sI11
F-2.272354
sI12
F-4.120406
sI13
F-1.072631
sI14
F-3.758776
ssg148
(dp257
I0
F1.4986874912991248
sI1
Fnan
sI2
Fnan
sI3
Fnan
sI4
Fnan
sI5
Fnan
sI6
Fnan
sI7
Fnan
sI8
Fnan
sI9
Fnan
sI10
Fnan
sI11
Fnan
sI12
Fnan
sI13
Fnan
sI14
Fnan
ssg150
(dp258
I0
F2458472.5846064813
sI1
Fnan
sI2
Fnan
sI3
Fnan
sI4
Fnan
sI5
Fnan
sI6
Fnan
sI7
Fnan
sI8
Fnan
sI9
Fnan
sI10
Fnan
sI11
Fnan
sI12
Fnan
sI13
Fnan
sI14
Fnan
ssg152
(dp259
I0
F0.0017934868209877398
sI1
Fnan
sI2
Fnan
sI3
Fnan
sI4
Fnan
sI5
Fnan
sI6
Fnan
sI7
Fnan
sI8
Fnan
sI9
Fnan
sI10
Fnan
sI11
Fnan
sI12
Fnan
sI13
Fnan
sI14
Fnan
ssg154
(dp260
I0
F99.94834
sI1
F64.3968
sI2
F94.48801
sI3
F114.5693
sI4
F81.85694
sI5
F89.86022
sI6
F98.91711
sI7
F84.10198
sI8
F108.2163
sI9
F104.0769
sI10
F81.48022
sI11
F108.1043
sI12
F113.4333
sI13
F87.43151
sI14
F114.2694
ssg156
(dp261
I0
F10.867
sI1
F10.576
sI2
F10.929
sI3
F11.05
sI4
F10.735
sI5
F10.81
sI6
F10.859
sI7
F10.744
sI8
F10.972
sI9
F10.918
sI10
F10.685
sI11
F10.93
sI12
F11.016
sI13
F10.833
sI14
F11.019
ssg158
(dp262
I0
F0.5509421856485978
sI1
Fnan
sI2
Fnan
sI3
Fnan
sI4
Fnan
sI5
Fnan
sI6
Fnan
sI7
Fnan
sI8
Fnan
sI9
Fnan
sI10
Fnan
sI11
Fnan
sI12
Fnan
sI13
Fnan
sI14
Fnan
sssS'z'
p263
(dp264
g3
(dp265
I0
F0.36998143048772103
sI1
Fnan
sI2
Fnan
sI3
Fnan
sI4
Fnan
sI5
Fnan
sI6
Fnan
sI7
Fnan
sI8
Fnan
sI9
Fnan
sI10
Fnan
sI11
Fnan
sI12
Fnan
sI13
Fnan
sI14
Fnan
ssg5
(dp266
I0
S'NoError'
p267
sI1
S'NoError'
p268
sI2
S'NoError'
p269
sI3
S'NoError'
p270
sI4
S'NoError'
p271
sI5
S'NoError'
p272
sI6
S'NoError'
p273
sI7
S'NoError'
p274
sI8
S'NoError'
p275
sI9
S'NoError'
p276
sI10
S'NoError'
p277
sI11
S'NoError'
p278
sI12
S'NoError'
p279
sI13
S'NoError'
p280
sI14
S'NoError'
p281
ssg22
(dp282
I0
F0.012
sI1
F0.013
sI2
F0.012
sI3
F0.012
sI4
F0.011
sI5
F0.012
sI6
F0.01
sI7
F0.011
sI8
F0.011
sI9
F0.013
sI10
F0.011
sI11
F0.011
sI12
F0.01
sI13
F0.012
sI14
F0.012
ssg24
(dp283
I0
F0.9143814870436968
sI1
F0.9262986967590728
sI2
F0.9124171031774914
sI3
F0.9264648587662291
sI4
F0.91601656788476
sI5
F0.9150659001307261
sI6
F0.9156311055043079
sI7
F0.9017183277183334
sI8
F0.9210428783637019
sI9
F0.9198684522905403
sI10
F0.9119888365831841
sI11
F0.9213208534607579
sI12
F0.9087278261135098
sI13
F0.9322731880218728
sI14
F0.926949252348534
ssg26
(dp284
I0
F0.00800771417960915
sI1
Fnan
sI2
Fnan
sI3
Fnan
sI4
Fnan
sI5
Fnan
sI6
Fnan
sI7
Fnan
sI8
Fnan
sI9
Fnan
sI10
Fnan
sI11
Fnan
sI12
Fnan
sI13
Fnan
sI14
Fnan
ssg28
(dp285
I0
F0.9180110222777811
sI1
Fnan
sI2
Fnan
sI3
Fnan
sI4
Fnan
sI5
Fnan
sI6
Fnan
sI7
Fnan
sI8
Fnan
sI9
Fnan
sI10
Fnan
sI11
Fnan
sI12
Fnan
sI13
Fnan
sI14
Fnan
ssg30
(dp286
I0
F13.907
sI1
F13.988
sI2
F13.972
sI3
F13.898
sI4
F13.812
sI5
F13.934
sI6
F13.738
sI7
F13.783
sI8
F13.873
sI9
F14.048
sI10
F13.787
sI11
F13.824
sI12
F13.716
sI13
F13.915
sI14
F13.959
ssg32
(dp287
I0
F21.9673
sI1
F24.7703
sI2
F23.42353
sI3
F21.86903
sI4
F19.9615
sI5
F23.85445
sI6
F19.50665
sI7
F20.42477
sI8
F21.48479
sI9
F25.35492
sI10
F19.20244
sI11
F20.40308
sI12
F17.25957
sI13
F21.50206
sI14
F22.70429
ssg34
(dp288
I0
F2458472.6113888887
sI1
F2458472.612939815
sI2
F2458472.5741550927
sI3
F2458472.591689815
sI4
F2458472.5932175927
sI5
F2458472.6106018517
sI6
F2458472.5939930556
sI7
F2458472.5924537037
sI8
F2458472.6121643516
sI9
F2458472.6137037035
sI10
F2458472.5718055554
sI11
F2458472.590902778
sI12
F2458472.5710416664
sI13
F2458472.5733680557
sI14
F2458472.5725810183
ssg36
(dp289
I0
F0.3805948266666667
sI1
Fnan
sI2
Fnan
sI3
Fnan
sI4
Fnan
sI5
Fnan
sI6
Fnan
sI7
Fnan
sI8
Fnan
sI9
Fnan
sI10
Fnan
sI11
Fnan
sI12
Fnan
sI13
Fnan
sI14
Fnan
ssg38
(dp290
I0
F1.879958093333333
sI1
Fnan
sI2
Fnan
sI3
Fnan
sI4
Fnan
sI5
Fnan
sI6
Fnan
sI7
Fnan
sI8
Fnan
sI9
Fnan
sI10
Fnan
sI11
Fnan
sI12
Fnan
sI13
Fnan
sI14
Fnan
ssg40
(dp291
I0
F0.36574299891046386
sI1
F0.37064922973017467
sI2
F0.3631100599743345
sI3
F0.3657263160461211
sI4
F0.3733127178385757
sI5
F0.3695398217954149
sI6
F0.36987098752917996
sI7
F0.36784811553918334
sI8
F0.3707551245086774
sI9
F0.3788001115158216
sI10
F0.37467822345178753
sI11
F0.36976100620573266
sI12
F0.3722372686364607
sI13
F0.3667589633183686
sI14
F0.37287782283023196
ssg42
(dp292
I0
F0.002758779320423228
sI1
Fnan
sI2
Fnan
sI3
Fnan
sI4
Fnan
sI5
Fnan
sI6
Fnan
sI7
Fnan
sI8
Fnan
sI9
Fnan
sI10
Fnan
sI11
Fnan
sI12
Fnan
sI13
Fnan
sI14
Fnan
ssg44
(dp293
I0
F1.4228134
sI1
Fnan
sI2
Fnan
sI3
Fnan
sI4
Fnan
sI5
Fnan
sI6
Fnan
sI7
Fnan
sI8
Fnan
sI9
Fnan
sI10
Fnan
sI11
Fnan
sI12
Fnan
sI13
Fnan
sI14
Fnan
ssg46
(dp294
I0
g267
sI1
g268
sI2
g269
sI3
g270
sI4
g271
sI5
g272
sI6
g273
sI7
g274
sI8
g275
sI9
g276
sI10
g277
sI11
g278
sI12
g279
sI13
g280
sI14
g281
ssg48
(dp295
I0
F0.005250654973261096
sI1
Fnan
sI2
Fnan
sI3
Fnan
sI4
Fnan
sI5
Fnan
sI6
Fnan
sI7
Fnan
sI8
Fnan
sI9
Fnan
sI10
Fnan
sI11
Fnan
sI12
Fnan
sI13
Fnan
sI14
Fnan
ssg50
(dp296
I0
F0.0946789059827753
sI1
Fnan
sI2
Fnan
sI3
Fnan
sI4
Fnan
sI5
Fnan
sI6
Fnan
sI7
Fnan
sI8
Fnan
sI9
Fnan
sI10
Fnan
sI11
Fnan
sI12
Fnan
sI13
Fnan
sI14
Fnan
ssg52
(dp297
I0
F2.736047266666666
sI1
Fnan
sI2
Fnan
sI3
Fnan
sI4
Fnan
sI5
Fnan
sI6
Fnan
sI7
Fnan
sI8
Fnan
sI9
Fnan
sI10
Fnan
sI11
Fnan
sI12
Fnan
sI13
Fnan
sI14
Fnan
ssg54
(dp298
I0
F1.5111017546539094
sI1
F1.4939248859717635
sI2
F1.5054590045693512
sI3
F1.502381211659598
sI4
F1.521839028081289
sI5
F1.5062824288273462
sI6
F1.5003547660124934
sI7
F1.5195871910501437
sI8
F1.4963630770956138
sI9
F1.506506770726421
sI10
F1.5134612218641674
sI11
F1.5149164890303364
sI12
F1.5248721213061416
sI13
F1.483775211708999
sI14
F1.512706139299673
ssg56
(dp299
I0
g267
sI1
g268
sI2
g269
sI3
g270
sI4
g271
sI5
g272
sI6
g273
sI7
g274
sI8
g275
sI9
g276
sI10
g277
sI11
g278
sI12
g279
sI13
g280
sI14
g281
ssg58
(dp300
I0
F21.97752
sI1
F24.38949
sI2
F22.37242
sI3
F21.79212
sI4
F21.12552
sI5
F23.04626
sI6
F19.82379
sI7
F20.54946
sI8
F21.93027
sI9
F25.37344
sI10
F19.20579
sI11
F21.1769
sI12
F18.77928
sI13
F21.21401
sI14
F22.76942
ssg60
(dp301
I0
F12.521733333333334
sI1
Fnan
sI2
Fnan
sI3
Fnan
sI4
Fnan
sI5
Fnan
sI6
Fnan
sI7
Fnan
sI8
Fnan
sI9
Fnan
sI10
Fnan
sI11
Fnan
sI12
Fnan
sI13
Fnan
sI14
Fnan
ssg62
(dp302
I0
F0.6867519239809651
sI1
Fnan
sI2
Fnan
sI3
Fnan
sI4
Fnan
sI5
Fnan
sI6
Fnan
sI7
Fnan
sI8
Fnan
sI9
Fnan
sI10
Fnan
sI11
Fnan
sI12
Fnan
sI13
Fnan
sI14
Fnan
ssg64
(dp303
I0
F-2.696651
sI1
F3.611887
sI2
F2.84217
sI3
F3.123698
sI4
F2.525689
sI5
F3.63054
sI6
F3.925019
sI7
F1.701877
sI8
F0.4533284
sI9
F2.897541
sI10
F-1.670924
sI11
F3.435138
sI12
F-2.391878
sI13
F4.139511
sI14
F2.672426
ssg66
(dp304
I0
F12.860666666666667
sI1
Fnan
sI2
Fnan
sI3
Fnan
sI4
Fnan
sI5
Fnan
sI6
Fnan
sI7
Fnan
sI8
Fnan
sI9
Fnan
sI10
Fnan
sI11
Fnan
sI12
Fnan
sI13
Fnan
sI14
Fnan
ssg68
(dp305
I0
g267
sI1
g268
sI2
g269
sI3
g270
sI4
g271
sI5
g272
sI6
g273
sI7
g274
sI8
g275
sI9
g276
sI10
g277
sI11
g278
sI12
g279
sI13
g280
sI14
g281
ssg70
(dp306
I0
F1769.5436666666667
sI1
F1634.1446666666666
sI2
F1675.6263333333334
sI3
F1800.5166666666667
sI4
F1893.6743333333334
sI5
F1709.3693333333333
sI6
F2045.8153333333332
sI7
F1953.0093333333332
sI8
F1808.7576666666669
sI9
F1505.9393333333333
sI10
F1924.9383333333333
sI11
F1898.6523333333332
sI12
F2063.3016666666667
sI13
F1773.988
sI14
F1670.175
ssg72
(dp307
I0
F1.65429
sI1
F1.668668
sI2
F1.383445
sI3
F1.495592
sI4
F1.506601
sI5
F1.647259
sI6
F1.512138
sI7
F1.501009
sI8
F1.661411
sI9
F1.67575
sI10
F1.370174
sI11
F1.49016
sI12
F1.365811
sI13
F1.379006
sI14
F1.3745450000000001
ssg74
(dp308
I0
F1443.1316666666667
sI1
F1320.9713333333334
sI2
F1375.9373333333335
sI3
F1447.1996666666666
sI4
F1529.6846666666668
sI5
F1396.7276666666667
sI6
F1676.3563333333334
sI7
F1618.2956666666666
sI8
F1472.5876666666666
sI9
F1220.5283333333332
sI10
F1573.8029999999999
sI11
F1526.8856666666666
sI12
F1683.9996666666666
sI13
F1429.269
sI14
F1332.5073333333335
ssg76
(dp309
I0
F2427.3396666666667
sI1
F2207.360666666667
sI2
F2297.002
sI3
F2439.654
sI4
F2604.900666666667
sI5
F2339.3296666666665
sI6
F2792.2889999999998
sI7
F2713.4546666666665
sI8
F2455.042
sI9
F2053.721
sI10
F2647.6046666666666
sI11
F2594.7019999999998
sI12
F2857.0776666666666
sI13
F2376.4566666666665
sI14
F2271.088
ssg78
(dp310
I0
F22.08965
sI1
F24.85888
sI2
F22.61917
sI3
F22.03795
sI4
F21.06841
sI5
F23.58498
sI6
F19.5094
sI7
F20.66206
sI8
F22.15092
sI9
F26.12053
sI10
F20.53714
sI11
F20.92735
sI12
F18.34127
sI13
F22.05276
sI14
F23.92153
ssg80
(dp311
I0
F13.102
sI1
F13.198
sI2
F13.154
sI3
F13.099
sI4
F13.038
sI5
F13.137
sI6
F12.939
sI7
F12.977
sI8
F13.08
sI9
F13.284
sI10
F13.008
sI11
F13.04
sI12
F12.934
sI13
F13.112
sI14
F13.188
ssg82
(dp312
I0
F0.005
sI1
F0.005
sI2
F0.005
sI3
F0.004
sI4
F0.004
sI5
F0.005
sI6
F0.004
sI7
F0.004
sI8
F0.004
sI9
F0.005
sI10
F0.004
sI11
F0.004
sI12
F0.004
sI13
F0.005
sI14
F0.005
ssg84
(dp313
I0
F0.370111251188702
sI1
Fnan
sI2
Fnan
sI3
Fnan
sI4
Fnan
sI5
Fnan
sI6
Fnan
sI7
Fnan
sI8
Fnan
sI9
Fnan
sI10
Fnan
sI11
Fnan
sI12
Fnan
sI13
Fnan
sI14
Fnan
ssg86
(dp314
I0
F13.086
sI1
Fnan
sI2
Fnan
sI3
Fnan
sI4
Fnan
sI5
Fnan
sI6
Fnan
sI7
Fnan
sI8
Fnan
sI9
Fnan
sI10
Fnan
sI11
Fnan
sI12
Fnan
sI13
Fnan
sI14
Fnan
ssg88
(dp315
I0
F12.88
sI1
F12.967
sI2
F12.94
sI3
F12.862
sI4
F12.807
sI5
F12.918
sI6
F12.723
sI7
F12.773
sI8
F12.857
sI9
F13.055
sI10
F12.789
sI11
F12.804
sI12
F12.714
sI13
F12.878
sI14
F12.943
ssg90
(dp316
I0
F-2.459095
sI1
F-3.323367
sI2
F2.119707
sI3
F0.7772434
sI4
F3.820145
sI5
F-2.744818
sI6
F-2.860862
sI7
F4.449047
sI8
F3.181797
sI9
F-2.682225
sI10
F-1.472268
sI11
F-3.760997
sI12
F4.159334
sI13
F3.366111
sI14
F3.13917
ssg92
(dp317
I0
F0.10006745344064295
sI1
Fnan
sI2
Fnan
sI3
Fnan
sI4
Fnan
sI5
Fnan
sI6
Fnan
sI7
Fnan
sI8
Fnan
sI9
Fnan
sI10
Fnan
sI11
Fnan
sI12
Fnan
sI13
Fnan
sI14
Fnan
ssg94
(dp318
I0
F0.6877158844062856
sI1
F0.6877363005960511
sI2
F0.6927088153644713
sI3
F0.6826138759194598
sI4
F0.6800752090013689
sI5
F0.6899636978035002
sI6
F0.6929806460698485
sI7
F0.6935854071376814
sI8
F0.6907396133917798
sI9
F0.6857555042002602
sI10
F0.6883710005570205
sI11
F0.6796195240333818
sI12
F0.6844999348966184
sI13
F0.6887305408400418
sI14
F0.6761829054967068
ssg96
(dp319
I0
F30.0
sI1
F30.0
sI2
F30.0
sI3
F30.0
sI4
F30.0
sI5
F30.0
sI6
F30.0
sI7
F30.0
sI8
F30.0
sI9
F30.0
sI10
F30.0
sI11
F30.0
sI12
F30.0
sI13
F30.0
sI14
F30.0
ssg98
(dp320
I0
F0.006
sI1
F0.007
sI2
F0.007
sI3
F0.006
sI4
F0.006
sI5
F0.007
sI6
F0.006
sI7
F0.006
sI8
F0.006
sI9
F0.008
sI10
F0.006
sI11
F0.006
sI12
F0.006
sI13
F0.007
sI14
F0.007
ssg100
(dp321
I0
F0.006
sI1
F0.006
sI2
F0.006
sI3
F0.005
sI4
F0.005
sI5
F0.006
sI6
F0.005
sI7
F0.005
sI8
F0.005
sI9
F0.006
sI10
F0.005
sI11
F0.005
sI12
F0.005
sI13
F0.006
sI14
F0.006
ssg102
(dp322
I0
F2.649912
sI1
F1.722631
sI2
F2.278213
sI3
F3.060412
sI4
F4.057824
sI5
F2.556442
sI6
F3.603993
sI7
F3.316791
sI8
F3.780579
sI9
F3.46556
sI10
F3.666392
sI11
F1.768846
sI12
F-3.526558
sI13
F3.765823
sI14
F4.873849
ssg104
(dp323
I0
S"KIC8462852-20181220at024024_-35-1X1-030-z'_cal.fts.mag.1"
p324
sI1
S"KIC8462852-20181220at024238_-35-1X1-030-z'_cal.fts.mag.1"
p325
sI2
S"KIC8462852-20181220at014647_-35-1X1-030-z'_cal.fts.mag.1"
p326
sI3
S"KIC8462852-20181220at021202_-35-1X1-030-z'_cal.fts.mag.1"
p327
sI4
S"KIC8462852-20181220at021414_-35-1X1-030-z'_cal.fts.mag.1"
p328
sI5
S"KIC8462852-20181220at023914_-35-1X1-030-z'_cal.fts.mag.1"
p329
sI6
S"KIC8462852-20181220at021521_-35-1X1-030-z'_cal.fts.mag.1"
p330
sI7
S"KIC8462852-20181220at021308_-35-1X1-030-z'_cal.fts.mag.1"
p331
sI8
S"KIC8462852-20181220at024130_-35-1X1-030-z'_cal.fts.mag.1"
p332
sI9
S"KIC8462852-20181220at024344_-35-1X1-030-z'_cal.fts.mag.1"
p333
sI10
S"KIC8462852-20181220at014324_-35-1X1-030-z'_cal.fts.mag.1"
p334
sI11
S"KIC8462852-20181220at021053_-35-1X1-030-z'_cal.fts.mag.1"
p335
sI12
S"KIC8462852-20181220at014216_-35-1X1-030-z'_cal.fts.mag.1"
p336
sI13
S"KIC8462852-20181220at014539_-35-1X1-030-z'_cal.fts.mag.1"
p337
sI14
S"KIC8462852-20181220at014431_-35-1X1-030-z'_cal.fts.mag.1"
p338
ssg121
(dp339
I0
F0.011145517890839854
sI1
Fnan
sI2
Fnan
sI3
Fnan
sI4
Fnan
sI5
Fnan
sI6
Fnan
sI7
Fnan
sI8
Fnan
sI9
Fnan
sI10
Fnan
sI11
Fnan
sI12
Fnan
sI13
Fnan
sI14
Fnan
ssg123
(dp340
I0
F687.5986666666666
sI1
F637.8226666666667
sI2
F647.3726666666666
sI3
F693.3403333333333
sI4
F750.1419999999999
sI5
F670.7673333333333
sI6
F803.17
sI7
F770.6123333333333
sI8
F708.9316666666667
sI9
F603.5786666666667
sI10
F767.634
sI11
F742.0166666666667
sI12
F819.4653333333333
sI13
F682.1366666666667
sI14
F655.4906666666667
ssg125
(dp341
I0
F0.09914347467901571
sI1
Fnan
sI2
Fnan
sI3
Fnan
sI4
Fnan
sI5
Fnan
sI6
Fnan
sI7
Fnan
sI8
Fnan
sI9
Fnan
sI10
Fnan
sI11
Fnan
sI12
Fnan
sI13
Fnan
sI14
Fnan
ssg127
(dp342
I0
S"z'"
p343
sI1
S"z'"
p344
sI2
S"z'"
p345
sI3
S"z'"
p346
sI4
S"z'"
p347
sI5
S"z'"
p348
sI6
S"z'"
p349
sI7
S"z'"
p350
sI8
S"z'"
p351
sI9
S"z'"
p352
sI10
S"z'"
p353
sI11
S"z'"
p354
sI12
S"z'"
p355
sI13
S"z'"
p356
sI14
S"z'"
p357
ssg144
(dp358
I0
F0.003997081881965397
sI1
Fnan
sI2
Fnan
sI3
Fnan
sI4
Fnan
sI5
Fnan
sI6
Fnan
sI7
Fnan
sI8
Fnan
sI9
Fnan
sI10
Fnan
sI11
Fnan
sI12
Fnan
sI13
Fnan
sI14
Fnan
ssg146
(dp359
I0
F3.692859
sI1
F3.187638
sI2
F-1.79304
sI3
F2.979577
sI4
F4.180614
sI5
F-4.486798
sI6
F4.08881
sI7
F-2.449212
sI8
F2.895193
sI9
F-3.917918
sI10
F4.754946
sI11
F-3.345322
sI12
F2.969177
sI13
F4.343184
sI14
F4.242493
ssg148
(dp360
I0
F1.5075687534571498
sI1
Fnan
sI2
Fnan
sI3
Fnan
sI4
Fnan
sI5
Fnan
sI6
Fnan
sI7
Fnan
sI8
Fnan
sI9
Fnan
sI10
Fnan
sI11
Fnan
sI12
Fnan
sI13
Fnan
sI14
Fnan
ssg150
(dp361
I0
F2458472.5924537037
sI1
Fnan
sI2
Fnan
sI3
Fnan
sI4
Fnan
sI5
Fnan
sI6
Fnan
sI7
Fnan
sI8
Fnan
sI9
Fnan
sI10
Fnan
sI11
Fnan
sI12
Fnan
sI13
Fnan
sI14
Fnan
ssg152
(dp362
I0
F0.003997081881965397
sI1
Fnan
sI2
Fnan
sI3
Fnan
sI4
Fnan
sI5
Fnan
sI6
Fnan
sI7
Fnan
sI8
Fnan
sI9
Fnan
sI10
Fnan
sI11
Fnan
sI12
Fnan
sI13
Fnan
sI14
Fnan
ssg154
(dp363
I0
F22.37631
sI1
F25.16041
sI2
F22.34584
sI3
F22.52372
sI4
F21.10289
sI5
F23.99173
sI6
F19.44654
sI7
F19.51331
sI8
F22.88647
sI9
F27.00366
sI10
F20.26658
sI11
F21.5302
sI12
F17.30564
sI13
F21.92448
sI14
F23.63323
ssg156
(dp364
I0
F12.537
sI1
F12.64
sI2
F12.597
sI3
F12.532
sI4
F12.461
sI5
F12.577
sI6
F12.385
sI7
F12.416
sI8
F12.525
sI9
F12.719
sI10
F12.443
sI11
F12.465
sI12
F12.36
sI13
F12.56
sI14
F12.609
ssg158
(dp365
I0
F0.370111251188702
sI1
Fnan
sI2
Fnan
sI3
Fnan
sI4
Fnan
sI5
Fnan
sI6
Fnan
sI7
Fnan
sI8
Fnan
sI9
Fnan
sI10
Fnan
sI11
Fnan
sI12
Fnan
sI13
Fnan
sI14
Fnan
sssS'g'
p366
(dp367
g3
(dp368
I0
F0.8680484285053323
sI1
Fnan
sI2
Fnan
sI3
Fnan
sI4
Fnan
sI5
Fnan
sI6
Fnan
sI7
Fnan
sI8
Fnan
sI9
Fnan
sI10
Fnan
sI11
Fnan
sI12
Fnan
sI13
Fnan
sI14
Fnan
ssg5
(dp369
I0
S'NoError'
p370
sI1
S'NoError'
p371
sI2
S'NoError'
p372
sI3
S'NoError'
p373
sI4
S'NoError'
p374
sI5
S'NoError'
p375
sI6
S'NoError'
p376
sI7
S'NoError'
p377
sI8
S'NoError'
p378
sI9
S'NoError'
p379
sI10
S'NoError'
p380
sI11
S'NoError'
p381
sI12
S'NoError'
p382
sI13
S'NoError'
p383
sI14
S'NoError'
p384
ssg22
(dp385
I0
F0.004
sI1
F0.003
sI2
F0.004
sI3
F0.004
sI4
F0.003
sI5
F0.003
sI6
F0.004
sI7
F0.003
sI8
F0.003
sI9
F0.004
sI10
F0.003
sI11
F0.003
sI12
F0.003
sI13
F0.003
sI14
F0.003
ssg24
(dp386
I0
F0.8847892895646232
sI1
F0.8780301854529315
sI2
F0.8872722270039016
sI3
F0.8737436911757118
sI4
F0.8800907999589438
sI5
F0.8807464159584687
sI6
F0.87710937096127
sI7
F0.8806304820276283
sI8
F0.8814072816190339
sI9
F0.8763495223974825
sI10
F0.8792328237836495
sI11
F0.884000312331555
sI12
F0.8787869879665775
sI13
F0.8773460785942688
sI14
F0.8823361541954843
ssg26
(dp387
I0
F0.0035233815245313688
sI1
Fnan
sI2
Fnan
sI3
Fnan
sI4
Fnan
sI5
Fnan
sI6
Fnan
sI7
Fnan
sI8
Fnan
sI9
Fnan
sI10
Fnan
sI11
Fnan
sI12
Fnan
sI13
Fnan
sI14
Fnan
ssg28
(dp388
I0
F0.880124774866102
sI1
Fnan
sI2
Fnan
sI3
Fnan
sI4
Fnan
sI5
Fnan
sI6
Fnan
sI7
Fnan
sI8
Fnan
sI9
Fnan
sI10
Fnan
sI11
Fnan
sI12
Fnan
sI13
Fnan
sI14
Fnan
ssg30
(dp389
I0
F12.269
sI1
F11.729
sI2
F12.238
sI3
F12.157
sI4
F11.822
sI5
F11.816
sI6
F12.008
sI7
F11.965
sI8
F11.923
sI9
F12.183
sI10
F11.743
sI11
F11.889
sI12
F11.875
sI13
F11.776
sI14
F11.796
ssg32
(dp390
I0
F106.6391
sI1
F66.25433
sI2
F105.6779
sI3
F97.3428
sI4
F84.04688
sI5
F91.28533
sI6
F93.11253
sI7
F88.62296
sI8
F94.24926
sI9
F104.4418
sI10
F66.08379
sI11
F72.0379
sI12
F85.9151
sI13
F67.44062
sI14
F69.42101
ssg34
(dp391
I0
F2458472.600474537
sI1
F2458472.579074074
sI2
F2458472.601238426
sI3
F2458472.599699074
sI4
F2458472.560740741
sI5
F2458472.559108796
sI6
F2458472.562314815
sI7
F2458472.598935185
sI8
F2458472.5599652776
sI9
F2458472.602013889
sI10
F2458472.5822800924
sI11
F2458472.581412037
sI12
F2458472.561516204
sI13
F2458472.580636574
sI14
F2458472.579849537
ssg36
(dp392
I0
F2.3922391999999997
sI1
Fnan
sI2
Fnan
sI3
Fnan
sI4
Fnan
sI5
Fnan
sI6
Fnan
sI7
Fnan
sI8
Fnan
sI9
Fnan
sI10
Fnan
sI11
Fnan
sI12
Fnan
sI13
Fnan
sI14
Fnan
ssg38
(dp393
I0
F1.655050466666667
sI1
Fnan
sI2
Fnan
sI3
Fnan
sI4
Fnan
sI5
Fnan
sI6
Fnan
sI7
Fnan
sI8
Fnan
sI9
Fnan
sI10
Fnan
sI11
Fnan
sI12
Fnan
sI13
Fnan
sI14
Fnan
ssg40
(dp394
I0
F0.8635599289127169
sI1
F0.8700458091531268
sI2
F0.8624685621643167
sI3
F0.8578902427161743
sI4
F0.8718265341771047
sI5
F0.8690695285429496
sI6
F0.8696316791252569
sI7
F0.869401407259565
sI8
F0.8736601973163952
sI9
F0.8594682511594054
sI10
F0.8663081765591132
sI11
F0.8667388362415865
sI12
F0.8732200262634391
sI13
F0.8650526575055435
sI14
F0.8636462273482036
ssg42
(dp395
I0
F0.0035762026317412016
sI1
Fnan
sI2
Fnan
sI3
Fnan
sI4
Fnan
sI5
Fnan
sI6
Fnan
sI7
Fnan
sI8
Fnan
sI9
Fnan
sI10
Fnan
sI11
Fnan
sI12
Fnan
sI13
Fnan
sI14
Fnan
ssg44
(dp396
I0
F1.0372350000000001
sI1
Fnan
sI2
Fnan
sI3
Fnan
sI4
Fnan
sI5
Fnan
sI6
Fnan
sI7
Fnan
sI8
Fnan
sI9
Fnan
sI10
Fnan
sI11
Fnan
sI12
Fnan
sI13
Fnan
sI14
Fnan
ssg46
(dp397
I0
g370
sI1
g371
sI2
g372
sI3
g373
sI4
g374
sI5
g375
sI6
g376
sI7
g377
sI8
g378
sI9
g379
sI10
g380
sI11
g381
sI12
g382
sI13
g383
sI14
g384
ssg48
(dp398
I0
F0.002666652195459519
sI1
Fnan
sI2
Fnan
sI3
Fnan
sI4
Fnan
sI5
Fnan
sI6
Fnan
sI7
Fnan
sI8
Fnan
sI9
Fnan
sI10
Fnan
sI11
Fnan
sI12
Fnan
sI13
Fnan
sI14
Fnan
ssg50
(dp399
I0
F0.18026839777979725
sI1
Fnan
sI2
Fnan
sI3
Fnan
sI4
Fnan
sI5
Fnan
sI6
Fnan
sI7
Fnan
sI8
Fnan
sI9
Fnan
sI10
Fnan
sI11
Fnan
sI12
Fnan
sI13
Fnan
sI14
Fnan
ssg52
(dp400
I0
F2.9644450666666673
sI1
Fnan
sI2
Fnan
sI3
Fnan
sI4
Fnan
sI5
Fnan
sI6
Fnan
sI7
Fnan
sI8
Fnan
sI9
Fnan
sI10
Fnan
sI11
Fnan
sI12
Fnan
sI13
Fnan
sI14
Fnan
ssg54
(dp401
I0
F1.5121310002350006
sI1
F1.5221897548015517
sI2
F1.5065388829794637
sI3
F1.5173174624351147
sI4
F1.5109119151403885
sI5
F1.5041782729805013
sI6
F1.518491870200167
sI7
F1.5143306849990237
sI8
F1.5116970170930621
sI9
F1.5206208836288875
sI10
F1.5239985931244673
sI11
F1.5120286271549253
sI12
F1.5187397173140553
sI13
F1.519135522359999
sI14
F1.5102226044091622
ssg56
(dp402
I0
g370
sI1
g371
sI2
g372
sI3
g373
sI4
g374
sI5
g375
sI6
g376
sI7
g377
sI8
g378
sI9
g379
sI10
g380
sI11
g381
sI12
g382
sI13
g383
sI14
g384
ssg58
(dp403
I0
F105.2903
sI1
F66.30991
sI2
F105.2463
sI3
F98.74227
sI4
F83.63707
sI5
F91.22703
sI6
F94.73623
sI7
F88.22168
sI8
F93.36784
sI9
F102.964
sI10
F65.36737
sI11
F69.45802
sI12
F86.03667
sI13
F66.6765
sI14
F68.22707
ssg60
(dp404
I0
F11.511933333333332
sI1
Fnan
sI2
Fnan
sI3
Fnan
sI4
Fnan
sI5
Fnan
sI6
Fnan
sI7
Fnan
sI8
Fnan
sI9
Fnan
sI10
Fnan
sI11
Fnan
sI12
Fnan
sI13
Fnan
sI14
Fnan
ssg62
(dp405
I0
F0.7153035515897223
sI1
Fnan
sI2
Fnan
sI3
Fnan
sI4
Fnan
sI5
Fnan
sI6
Fnan
sI7
Fnan
sI8
Fnan
sI9
Fnan
sI10
Fnan
sI11
Fnan
sI12
Fnan
sI13
Fnan
sI14
Fnan
ssg64
(dp406
I0
F6.633114
sI1
F-2.716363
sI2
F6.48102
sI3
F-3.483974
sI4
F-1.599281
sI5
F5.124738
sI6
F2.203134
sI7
F5.921682
sI8
F5.787117
sI9
F-1.377381
sI10
F4.135958
sI11
F-4.166952
sI12
F1.32973
sI13
F-3.227997
sI14
F3.781212
ssg66
(dp407
I0
F11.885133333333332
sI1
Fnan
sI2
Fnan
sI3
Fnan
sI4
Fnan
sI5
Fnan
sI6
Fnan
sI7
Fnan
sI8
Fnan
sI9
Fnan
sI10
Fnan
sI11
Fnan
sI12
Fnan
sI13
Fnan
sI14
Fnan
ssg68
(dp408
I0
g370
sI1
g371
sI2
g372
sI3
g373
sI4
g374
sI5
g375
sI6
g376
sI7
g377
sI8
g378
sI9
g379
sI10
g380
sI11
g381
sI12
g382
sI13
g383
sI14
g384
ssg70
(dp409
I0
F3310.2826666666665
sI1
F5374.466666666666
sI2
F3418.1933333333336
sI3
F3663.2633333333333
sI4
F4930.320000000001
sI5
F4978.203333333334
sI6
F4156.856666666667
sI7
F4337.77
sI8
F4487.116666666667
sI9
F3578.0566666666664
sI10
F5333.933333333333
sI11
F4679.473333333333
sI12
F4683.34
sI13
F5174.71
sI14
F5106.636666666667
ssg72
(dp410
I0
F1.561495
sI1
F1.412587
sI2
F1.5676709999999998
sI3
F1.5554729999999999
sI4
F1.312306
sI5
F1.304329
sI6
F1.319978
sI7
F1.549393
sI8
F1.308503
sI9
F1.573836
sI10
F1.432448
sI11
F1.4270690000000001
sI12
F1.316139
sI13
F1.4221469999999998
sI14
F1.417357
ssg74
(dp411
I0
F2835.803
sI1
F4628.723333333333
sI2
F2926.0350000000003
sI3
F3187.6826666666666
sI4
F4260.703333333334
sI5
F4315.11
sI6
F3593.8466666666664
sI7
F3737.326666666667
sI8
F3867.15
sI9
F3093.4243333333334
sI10
F4579.286666666667
sI11
F4014.3700000000003
sI12
F4036.82
sI13
F4470.266666666666
sI14
F4398.116666666667
ssg76
(dp412
I0
F4646.843333333333
sI1
F7613.376666666666
sI2
F4778.913333333333
sI3
F5197.53
sI4
F6943.413333333333
sI5
F6989.4
sI6
F5884.6900000000005
sI7
F6114.183333333333
sI8
F6314.5599999999995
sI9
F5072.3966666666665
sI10
F7553.866666666667
sI11
F6572.67
sI12
F6621.826666666666
sI13
F7326.013333333333
sI14
F7177.1466666666665
ssg78
(dp413
I0
F106.1606
sI1
F66.14145
sI2
F104.8894
sI3
F96.59914
sI4
F83.86008
sI5
F90.50671
sI6
F93.43188
sI7
F88.55118
sI8
F93.36536
sI9
F104.0305
sI10
F63.94244
sI11
F71.01992
sI12
F85.79523
sI13
F66.55832
sI14
F68.69112
ssg80
(dp414
I0
F12.368
sI1
F11.836
sI2
F12.334
sI3
F12.241
sI4
F11.926
sI5
F11.913
sI6
F12.111
sI7
F12.069
sI8
F12.032
sI9
F12.274
sI10
F11.848
sI11
F11.991
sI12
F11.985
sI13
F11.874
sI14
F11.892
ssg82
(dp415
I0
F0.003
sI1
F0.002
sI2
F0.003
sI3
F0.003
sI4
F0.002
sI5
F0.002
sI6
F0.003
sI7
F0.003
sI8
F0.003
sI9
F0.003
sI10
F0.002
sI11
F0.003
sI12
F0.003
sI13
F0.002
sI14
F0.002
ssg84
(dp416
I0
F0.8667992042963265
sI1
Fnan
sI2
Fnan
sI3
Fnan
sI4
Fnan
sI5
Fnan
sI6
Fnan
sI7
Fnan
sI8
Fnan
sI9
Fnan
sI10
Fnan
sI11
Fnan
sI12
Fnan
sI13
Fnan
sI14
Fnan
ssg86
(dp417
I0
F12.046266666666666
sI1
Fnan
sI2
Fnan
sI3
Fnan
sI4
Fnan
sI5
Fnan
sI6
Fnan
sI7
Fnan
sI8
Fnan
sI9
Fnan
sI10
Fnan
sI11
Fnan
sI12
Fnan
sI13
Fnan
sI14
Fnan
ssg88
(dp418
I0
F12.2
sI1
F11.674
sI2
F12.166
sI3
F12.09
sI4
F11.768
sI5
F11.757
sI6
F11.953
sI7
F11.907
sI8
F11.87
sI9
F12.116
sI10
F11.682
sI11
F11.825
sI12
F11.824
sI13
F11.715
sI14
F11.73
ssg90
(dp419
I0
F-5.821869
sI1
F5.650975
sI2
F6.104491
sI3
F-4.770178
sI4
F3.753483
sI5
F3.310713
sI6
F4.619034
sI7
F2.509449
sI8
F3.829967
sI9
F4.858048
sI10
F2.911598
sI11
F4.768306
sI12
F3.80111
sI13
F3.743473
sI14
F-3.385012
ssg92
(dp420
I0
F0.18130025083375104
sI1
Fnan
sI2
Fnan
sI3
Fnan
sI4
Fnan
sI5
Fnan
sI6
Fnan
sI7
Fnan
sI8
Fnan
sI9
Fnan
sI10
Fnan
sI11
Fnan
sI12
Fnan
sI13
Fnan
sI14
Fnan
ssg94
(dp421
I0
F0.7127706661927937
sI1
F0.7127778206954042
sI2
F0.7139189762891948
sI3
F0.7195027683751417
sI4
F0.7176686916779896
sI5
F0.7211318556959747
sI6
F0.7157954418708405
sI7
F0.7151441548724863
sI8
F0.7160277277941111
sI9
F0.7152051376112851
sI10
F0.7106390022605359
sI11
F0.7135298371302891
sI12
F0.714154884934617
sI13
F0.7152012803525769
sI14
F0.7160850280925937
ssg96
(dp422
I0
F30.0
sI1
F30.0
sI2
F30.0
sI3
F30.0
sI4
F30.0
sI5
F30.0
sI6
F30.0
sI7
F30.0
sI8
F30.0
sI9
F30.0
sI10
F30.0
sI11
F30.0
sI12
F30.0
sI13
F30.0
sI14
F30.0
ssg98
(dp423
I0
F0.005
sI1
F0.003
sI2
F0.005
sI3
F0.004
sI4
F0.003
sI5
F0.003
sI6
F0.004
sI7
F0.004
sI8
F0.004
sI9
F0.004
sI10
F0.003
sI11
F0.003
sI12
F0.004
sI13
F0.003
sI14
F0.003
ssg100
(dp424
I0
F0.004
sI1
F0.003
sI2
F0.004
sI3
F0.004
sI4
F0.003
sI5
F0.003
sI6
F0.003
sI7
F0.003
sI8
F0.003
sI9
F0.004
sI10
F0.003
sI11
F0.003
sI12
F0.003
sI13
F0.003
sI14
F0.003
ssg102
(dp425
I0
F6.026115
sI1
F2.345915
sI2
F6.124732
sI3
F3.570858
sI4
F5.169472
sI5
F-3.204023
sI6
F4.123228
sI7
F5.081297
sI8
F6.127492
sI9
F2.665785
sI10
F-3.798369
sI11
F4.821477
sI12
F-2.151388
sI13
F3.829829
sI14
F3.734256
ssg104
(dp426
I0
S"KIC8462852-20181220at022441_-35-1X1-030-g'_cal.fts.mag.1"
p427
sI1
S"KIC8462852-20181220at015346_-35-1X1-030-g'_cal.fts.mag.1"
p428
sI2
S"KIC8462852-20181220at022547_-35-1X1-030-g'_cal.fts.mag.1"
p429
sI3
S"KIC8462852-20181220at022334_-35-1X1-030-g'_cal.fts.mag.1"
p430
sI4
S"KIC8462852-20181220at012728_-35-1X1-030-g'_cal.fts.mag.1"
p431
sI5
S"KIC8462852-20181220at012454_-35-1X1-030-g'_cal.fts.mag.1"
p432
sI6
S"KIC8462852-20181220at012944_-35-1X1-030-g'_cal.fts.mag.1"
p433
sI7
S"KIC8462852-20181220at022221_-35-1X1-030-g'_cal.fts.mag.1"
p434
sI8
S"KIC8462852-20181220at012621_-35-1X1-030-g'_cal.fts.mag.1"
p435
sI9
S"KIC8462852-20181220at022654_-35-1X1-030-g'_cal.fts.mag.1"
p436
sI10
S"KIC8462852-20181220at015829_-35-1X1-030-g'_cal.fts.mag.1"
p437
sI11
S"KIC8462852-20181220at015714_-35-1X1-030-g'_cal.fts.mag.1"
p438
sI12
S"KIC8462852-20181220at012835_-35-1X1-030-g'_cal.fts.mag.1"
p439
sI13
S"KIC8462852-20181220at015607_-35-1X1-030-g'_cal.fts.mag.1"
p440
sI14
S"KIC8462852-20181220at015459_-35-1X1-030-g'_cal.fts.mag.1"
p441
ssg121
(dp442
I0
F0.005788916266856595
sI1
Fnan
sI2
Fnan
sI3
Fnan
sI4
Fnan
sI5
Fnan
sI6
Fnan
sI7
Fnan
sI8
Fnan
sI9
Fnan
sI10
Fnan
sI11
Fnan
sI12
Fnan
sI13
Fnan
sI14
Fnan
ssg123
(dp443
I0
F3106.7803333333336
sI1
F5109.073333333334
sI2
F3197.786666666667
sI3
F3445.423333333333
sI4
F4688.8099999999995
sI5
F4716.9366666666665
sI6
F3952.5899999999997
sI7
F4112.06
sI8
F4271.856666666667
sI9
F3364.4966666666664
sI10
F5043.96
sI11
F4410.693333333333
sI12
F4465.6433333333325
sI13
F4893.6
sI14
F4802.42
ssg125
(dp444
I0
F0.1806782723385356
sI1
Fnan
sI2
Fnan
sI3
Fnan
sI4
Fnan
sI5
Fnan
sI6
Fnan
sI7
Fnan
sI8
Fnan
sI9
Fnan
sI10
Fnan
sI11
Fnan
sI12
Fnan
sI13
Fnan
sI14
Fnan
ssg127
(dp445
I0
S"g'"
p446
sI1
S"g'"
p447
sI2
S"g'"
p448
sI3
S"g'"
p449
sI4
S"g'"
p450
sI5
S"g'"
p451
sI6
S"g'"
p452
sI7
S"g'"
p453
sI8
S"g'"
p454
sI9
S"g'"
p455
sI10
S"g'"
p456
sI11
S"g'"
p457
sI12
S"g'"
p458
sI13
S"g'"
p459
sI14
S"g'"
p460
ssg144
(dp461
I0
F0.004778371609746664
sI1
Fnan
sI2
Fnan
sI3
Fnan
sI4
Fnan
sI5
Fnan
sI6
Fnan
sI7
Fnan
sI8
Fnan
sI9
Fnan
sI10
Fnan
sI11
Fnan
sI12
Fnan
sI13
Fnan
sI14
Fnan
ssg146
(dp462
I0
F-4.005652
sI1
F-3.900388
sI2
F5.851661
sI3
F4.684388
sI4
F-4.393575
sI5
F4.305211
sI6
F5.752029
sI7
F4.466858
sI8
F3.080064
sI9
F5.664125
sI10
F-2.827747
sI11
F-2.059333
sI12
F-4.014481
sI13
F-1.476714
sI14
F4.432079
ssg148
(dp463
I0
F1.5148355205903847
sI1
Fnan
sI2
Fnan
sI3
Fnan
sI4
Fnan
sI5
Fnan
sI6
Fnan
sI7
Fnan
sI8
Fnan
sI9
Fnan
sI10
Fnan
sI11
Fnan
sI12
Fnan
sI13
Fnan
sI14
Fnan
ssg150
(dp464
I0
F2458472.580636574
sI1
Fnan
sI2
Fnan
sI3
Fnan
sI4
Fnan
sI5
Fnan
sI6
Fnan
sI7
Fnan
sI8
Fnan
sI9
Fnan
sI10
Fnan
sI11
Fnan
sI12
Fnan
sI13
Fnan
sI14
Fnan
ssg152
(dp465
I0
F0.004778371609746664
sI1
Fnan
sI2
Fnan
sI3
Fnan
sI4
Fnan
sI5
Fnan
sI6
Fnan
sI7
Fnan
sI8
Fnan
sI9
Fnan
sI10
Fnan
sI11
Fnan
sI12
Fnan
sI13
Fnan
sI14
Fnan
ssg154
(dp466
I0
F107.5037
sI1
F65.75932
sI2
F105.3938
sI3
F99.10405
sI4
F85.22643
sI5
F92.67979
sI6
F94.57719
sI7
F88.7504
sI8
F95.23843
sI9
F103.5606
sI10
F66.45778
sI11
F71.86073
sI12
F85.21364
sI13
F67.84543
sI14
F70.72142
ssg156
(dp467
I0
F11.832
sI1
F11.296
sI2
F11.802
sI3
F11.711
sI4
F11.396
sI5
F11.389
sI6
F11.576
sI7
F11.534
sI8
F11.499
sI9
F11.737
sI10
F11.305
sI11
F11.456
sI12
F11.448
sI13
F11.338
sI14
F11.36
ssg158
(dp468
I0
F0.8667992042963265
sI1
Fnan
sI2
Fnan
sI3
Fnan
sI4
Fnan
sI5
Fnan
sI6
Fnan
sI7
Fnan
sI8
Fnan
sI9
Fnan
sI10
Fnan
sI11
Fnan
sI12
Fnan
sI13
Fnan
sI14
Fnan
sssS'V'
p469
(dp470
g3
(dp471
I0
F0.6937941319666644
sI1
Fnan
sI2
Fnan
sI3
Fnan
sI4
Fnan
sI5
Fnan
sI6
Fnan
sI7
Fnan
sI8
Fnan
sI9
Fnan
sI10
Fnan
sI11
Fnan
sI12
Fnan
sI13
Fnan
sI14
Fnan
ssg5
(dp472
I0
S'NoError'
p473
sI1
S'NoError'
p474
sI2
S'NoError'
p475
sI3
S'NoError'
p476
sI4
S'NoError'
p477
sI5
S'NoError'
p478
sI6
S'NoError'
p479
sI7
S'NoError'
p480
sI8
S'NoError'
p481
sI9
S'NoError'
p482
sI10
S'NoError'
p483
sI11
S'NoError'
p484
sI12
S'NoError'
p485
sI13
S'NoError'
p486
sI14
S'NoError'
p487
ssg22
(dp488
I0
F0.004
sI1
F0.003
sI2
F0.004
sI3
F0.003
sI4
F0.003
sI5
F0.005
sI6
F0.003
sI7
F0.005
sI8
F0.003
sI9
F0.003
sI10
F0.004
sI11
F0.003
sI12
F0.003
sI13
F0.004
sI14
F0.003
ssg24
(dp489
I0
F0.8825636813767481
sI1
F0.8886583175093634
sI2
F0.8860739622053703
sI3
F0.8836690494392067
sI4
F0.8907353523490956
sI5
F0.8870077310088993
sI6
F0.882547372102406
sI7
F0.8798361072813491
sI8
F0.8850988734372597
sI9
F0.8862500733150314
sI10
F0.8910916464681657
sI11
F0.8858428113639637
sI12
F0.8876335595604131
sI13
F0.8794783781056474
sI14
F0.8850514902525503
ssg26
(dp490
I0
F0.003441528669004448
sI1
Fnan
sI2
Fnan
sI3
Fnan
sI4
Fnan
sI5
Fnan
sI6
Fnan
sI7
Fnan
sI8
Fnan
sI9
Fnan
sI10
Fnan
sI11
Fnan
sI12
Fnan
sI13
Fnan
sI14
Fnan
ssg28
(dp491
I0
F0.8854358937183645
sI1
Fnan
sI2
Fnan
sI3
Fnan
sI4
Fnan
sI5
Fnan
sI6
Fnan
sI7
Fnan
sI8
Fnan
sI9
Fnan
sI10
Fnan
sI11
Fnan
sI12
Fnan
sI13
Fnan
sI14
Fnan
ssg30
(dp492
I0
F12.164
sI1
F11.8
sI2
F12.086
sI3
F11.906
sI4
F11.942
sI5
F12.38
sI6
F11.852
sI7
F12.357
sI8
F11.802
sI9
F11.823
sI10
F12.122
sI11
F11.88
sI12
F11.841
sI13
F12.14
sI14
F11.786
ssg32
(dp493
I0
F97.17175
sI1
F61.03256
sI2
F78.09624
sI3
F73.68091
sI4
F70.54289
sI5
F110.2805
sI6
F68.59653
sI7
F105.6787
sI8
F67.76388
sI9
F68.26144
sI10
F91.32587
sI11
F71.61074
sI12
F63.44445
sI13
F91.4361
sI14
F58.13116
ssg34
(dp494
I0
F2458472.6153703704
sI1
F2458472.577361111
sI2
F2458472.575023148
sI3
F2458472.597997685
sI4
F2458472.575810185
sI5
F2458472.6145833335
sI6
F2458472.594849537
sI7
F2458472.617777778
sI8
F2458472.596412037
sI9
F2458472.595636574
sI10
F2458472.6161689814
sI11
F2458472.597199074
sI12
F2458472.576585648
sI13
F2458472.6169675924
sI14
F2458472.578148148
ssg36
(dp495
I0
F-0.0860203999999999
sI1
Fnan
sI2
Fnan
sI3
Fnan
sI4
Fnan
sI5
Fnan
sI6
Fnan
sI7
Fnan
sI8
Fnan
sI9
Fnan
sI10
Fnan
sI11
Fnan
sI12
Fnan
sI13
Fnan
sI14
Fnan
ssg38
(dp496
I0
F3.2388384
sI1
Fnan
sI2
Fnan
sI3
Fnan
sI4
Fnan
sI5
Fnan
sI6
Fnan
sI7
Fnan
sI8
Fnan
sI9
Fnan
sI10
Fnan
sI11
Fnan
sI12
Fnan
sI13
Fnan
sI14
Fnan
ssg40
(dp497
I0
F0.6994361406475736
sI1
F0.6946281897073312
sI2
F0.6976003288953544
sI3
F0.6971884184548196
sI4
F0.6933187734784082
sI5
F0.6929452377747897
sI6
F0.6959312507360484
sI7
F0.6938044998766467
sI8
F0.6928190797427712
sI9
F0.6910111199497346
sI10
F0.6942574102913398
sI11
F0.6914064018535364
sI12
F0.6949727024339032
sI13
F0.6922810221544129
sI14
F0.6909534121842035
ssg42
(dp498
I0
F0.00204551639420336
sI1
Fnan
sI2
Fnan
sI3
Fnan
sI4
Fnan
sI5
Fnan
sI6
Fnan
sI7
Fnan
sI8
Fnan
sI9
Fnan
sI10
Fnan
sI11
Fnan
sI12
Fnan
sI13
Fnan
sI14
Fnan
ssg44
(dp499
I0
F0.8797702666666668
sI1
Fnan
sI2
Fnan
sI3
Fnan
sI4
Fnan
sI5
Fnan
sI6
Fnan
sI7
Fnan
sI8
Fnan
sI9
Fnan
sI10
Fnan
sI11
Fnan
sI12
Fnan
sI13
Fnan
sI14
Fnan
ssg46
(dp500
I0
g473
sI1
g474
sI2
g475
sI3
g476
sI4
g477
sI5
g478
sI6
g479
sI7
g480
sI8
g481
sI9
g482
sI10
g483
sI11
g484
sI12
g485
sI13
g486
sI14
g487
ssg48
(dp501
I0
F0.002789260653210744
sI1
Fnan
sI2
Fnan
sI3
Fnan
sI4
Fnan
sI5
Fnan
sI6
Fnan
sI7
Fnan
sI8
Fnan
sI9
Fnan
sI10
Fnan
sI11
Fnan
sI12
Fnan
sI13
Fnan
sI14
Fnan
ssg50
(dp502
I0
F0.20349828594106728
sI1
Fnan
sI2
Fnan
sI3
Fnan
sI4
Fnan
sI5
Fnan
sI6
Fnan
sI7
Fnan
sI8
Fnan
sI9
Fnan
sI10
Fnan
sI11
Fnan
sI12
Fnan
sI13
Fnan
sI14
Fnan
ssg52
(dp503
I0
F1.3011415333333334
sI1
Fnan
sI2
Fnan
sI3
Fnan
sI4
Fnan
sI5
Fnan
sI6
Fnan
sI7
Fnan
sI8
Fnan
sI9
Fnan
sI10
Fnan
sI11
Fnan
sI12
Fnan
sI13
Fnan
sI14
Fnan
ssg54
(dp504
I0
F1.5007454068992148
sI1
F1.5052199280916017
sI2
F1.5028890720406953
sI3
F1.511657529005559
sI4
F1.4997914454420311
sI5
F1.4997555765508928
sI6
F1.5043169739615807
sI7
F1.5129300867249118
sI8
F1.5044524415672615
sI9
F1.4924754741408544
sI10
F1.500462625230317
sI11
F1.5075698259018828
sI12
F1.5012920495600106
sI13
F1.5114762838126896
sI14
F1.5033020630824356
ssg56
(dp505
I0
g473
sI1
g474
sI2
g475
sI3
g476
sI4
g477
sI5
g478
sI6
g479
sI7
g480
sI8
g481
sI9
g482
sI10
g483
sI11
g484
sI12
g485
sI13
g486
sI14
g487
ssg58
(dp506
I0
F99.34927
sI1
F61.31507
sI2
F78.59392
sI3
F73.93457
sI4
F69.9983
sI5
F110.1907
sI6
F68.1666
sI7
F106.621
sI8
F65.8997
sI9
F68.68288
sI10
F91.71278
sI11
F71.29359
sI12
F64.24065
sI13
F91.95551
sI14
F57.42641
ssg60
(dp507
I0
F11.3212
sI1
Fnan
sI2
Fnan
sI3
Fnan
sI4
Fnan
sI5
Fnan
sI6
Fnan
sI7
Fnan
sI8
Fnan
sI9
Fnan
sI10
Fnan
sI11
Fnan
sI12
Fnan
sI13
Fnan
sI14
Fnan
ssg62
(dp508
I0
F0.7171454549003511
sI1
Fnan
sI2
Fnan
sI3
Fnan
sI4
Fnan
sI5
Fnan
sI6
Fnan
sI7
Fnan
sI8
Fnan
sI9
Fnan
sI10
Fnan
sI11
Fnan
sI12
Fnan
sI13
Fnan
sI14
Fnan
ssg64
(dp509
I0
F5.378757
sI1
F3.521803
sI2
F3.638498
sI3
F4.907894
sI4
F5.190963
sI5
F3.201642
sI6
F3.254303
sI7
F6.076057
sI8
F3.612012
sI9
F3.697419
sI10
F4.304264
sI11
F-4.053431
sI12
F4.535574
sI13
F-3.94374
sI14
F5.260561
ssg66
(dp510
I0
F11.685533333333332
sI1
Fnan
sI2
Fnan
sI3
Fnan
sI4
Fnan
sI5
Fnan
sI6
Fnan
sI7
Fnan
sI8
Fnan
sI9
Fnan
sI10
Fnan
sI11
Fnan
sI12
Fnan
sI13
Fnan
sI14
Fnan
ssg68
(dp511
I0
g473
sI1
g474
sI2
g475
sI3
g476
sI4
g477
sI5
g478
sI6
g479
sI7
g480
sI8
g481
sI9
g482
sI10
g483
sI11
g484
sI12
g485
sI13
g486
sI14
g487
ssg70
(dp512
I0
F4497.09
sI1
F6360.786666666667
sI2
F4854.093333333333
sI3
F5723.7733333333335
sI4
F5597.456666666667
sI5
F3730.8933333333334
sI6
F6022.803333333333
sI7
F3784.483333333333
sI8
F6347.8966666666665
sI9
F6245.593333333333
sI10
F4740.096666666666
sI11
F5922.163333333333
sI12
F6113.466666666666
sI13
F4633.703333333334
sI14
F6460.5233333333335
ssg72
(dp513
I0
F1.6916689999999999
sI1
F1.40214
sI2
F1.3884450000000002
sI3
F1.542233
sI4
F1.39296
sI5
F1.684016
sI6
F1.51849
sI7
F1.7150869999999998
sI8
F1.5301040000000001
sI9
F1.524284
sI10
F1.699342
sI11
F1.536118
sI12
F1.397551
sI13
F1.707068
sI14
F1.406903
ssg74
(dp514
I0
F3894.3
sI1
F5436.63
sI2
F4173.026666666667
sI3
F4914.13
sI4
F4783.52
sI5
F3208.5663333333337
sI6
F5204.196666666667
sI7
F3267.854
sI8
F5460.98
sI9
F5402.316666666667
sI10
F4046.713333333333
sI11
F5078.53
sI12
F5247.036666666667
sI13
F4007.1600000000003
sI14
F5562.263333333333
ssg76
(dp515
I0
F6296.67
sI1
F8878.853333333333
sI2
F6783.38
sI3
F8040.433333333333
sI4
F7784.65
sI5
F5203.746666666667
sI6
F8444.483333333334
sI7
F5334.846666666666
sI8
F8882.946666666667
sI9
F8692.109999999999
sI10
F6592.14
sI11
F8292.156666666668
sI12
F8527.716666666667
sI13
F6530.23
sI14
F9036.94
ssg78
(dp516
I0
F97.14742
sI1
F61.63373
sI2
F78.14082
sI3
F72.36411
sI4
F69.62196
sI5
F112.2308
sI6
F68.77525
sI7
F105.3312
sI8
F66.19762
sI9
F67.27405
sI10
F91.57857
sI11
F71.68387
sI12
F63.74039
sI13
F92.46303
sI14
F56.64935
ssg80
(dp517
I0
F12.024
sI1
F11.662
sI2
F11.949
sI3
F11.771
sI4
F11.801
sI5
F12.234
sI6
F11.709
sI7
F12.214
sI8
F11.657
sI9
F11.669
sI10
F11.982
sI11
F11.736
sI12
F11.7
sI13
F11.993
sI14
F11.637
ssg82
(dp518
I0
F0.003
sI1
F0.002
sI2
F0.002
sI3
F0.002
sI4
F0.002
sI5
F0.003
sI6
F0.002
sI7
F0.003
sI8
F0.002
sI9
F0.002
sI10
F0.003
sI11
F0.002
sI12
F0.002
sI13
F0.003
sI14
F0.002
ssg84
(dp519
I0
F0.6941702658787249
sI1
Fnan
sI2
Fnan
sI3
Fnan
sI4
Fnan
sI5
Fnan
sI6
Fnan
sI7
Fnan
sI8
Fnan
sI9
Fnan
sI10
Fnan
sI11
Fnan
sI12
Fnan
sI13
Fnan
sI14
Fnan
ssg86
(dp520
I0
F11.849199999999998
sI1
Fnan
sI2
Fnan
sI3
Fnan
sI4
Fnan
sI5
Fnan
sI6
Fnan
sI7
Fnan
sI8
Fnan
sI9
Fnan
sI10
Fnan
sI11
Fnan
sI12
Fnan
sI13
Fnan
sI14
Fnan
ssg88
(dp521
I0
F11.868
sI1
F11.491
sI2
F11.785
sI3
F11.606
sI4
F11.63
sI5
F12.07
sI6
F11.551
sI7
F12.055
sI8
F11.493
sI9
F11.511
sI10
F11.811
sI11
F11.569
sI12
F11.534
sI13
F11.835
sI14
F11.474
ssg90
(dp522
I0
F-3.691735
sI1
F4.571439
sI2
F3.086258
sI3
F2.583594
sI4
F-3.147228
sI5
F-3.804179
sI6
F4.755942
sI7
F-3.040856
sI8
F-2.747273
sI9
F4.118309
sI10
F2.681508
sI11
F3.114056
sI12
F-3.630507
sI13
F-1.872757
sI14
F-4.266877
ssg92
(dp523
I0
F0.20209870290104728
sI1
Fnan
sI2
Fnan
sI3
Fnan
sI4
Fnan
sI5
Fnan
sI6
Fnan
sI7
Fnan
sI8
Fnan
sI9
Fnan
sI10
Fnan
sI11
Fnan
sI12
Fnan
sI13
Fnan
sI14
Fnan
ssg94
(dp524
I0
F0.7215835816249389
sI1
F0.7134853579218408
sI2
F0.7171705656611601
sI3
F0.7140447857268442
sI4
F0.714912848799093
sI5
F0.7182306916301796
sI6
F0.7194433602615188
sI7
F0.7166873004924703
sI8
F0.717094894942346
sI9
F0.7233128876795206
sI10
F0.7141949912212092
sI11
F0.7145653116012585
sI12
F0.7167503537396226
sI13
F0.7178760174132176
sI14
F0.7178288747900463
ssg96
(dp525
I0
F30.0
sI1
F30.0
sI2
F30.0
sI3
F30.0
sI4
F30.0
sI5
F30.0
sI6
F30.0
sI7
F30.0
sI8
F30.0
sI9
F30.0
sI10
F30.0
sI11
F30.0
sI12
F30.0
sI13
F30.0
sI14
F30.0
ssg98
(dp526
I0
F0.004
sI1
F0.003
sI2
F0.003
sI3
F0.003
sI4
F0.003
sI5
F0.004
sI6
F0.003
sI7
F0.004
sI8
F0.003
sI9
F0.003
sI10
F0.003
sI11
F0.003
sI12
F0.003
sI13
F0.003
sI14
F0.003
ssg100
(dp527
I0
F0.003
sI1
F0.003
sI2
F0.003
sI3
F0.003
sI4
F0.003
sI5
F0.004
sI6
F0.003
sI7
F0.004
sI8
F0.003
sI9
F0.003
sI10
F0.003
sI11
F0.003
sI12
F0.003
sI13
F0.003
sI14
F0.002
ssg102
(dp528
I0
F-3.370218
sI1
F5.238266
sI2
F-4.798528
sI3
F4.134621
sI4
F4.284913
sI5
F4.885802
sI6
F4.511028
sI7
F5.241408
sI8
F5.069868
sI9
F-3.339783
sI10
F5.318601
sI11
F4.938305
sI12
F-4.087895
sI13
F-5.265894
sI14
F-3.243371
ssg104
(dp529
I0
S'KIC8462852-20181220at024608_-35-1X1-030-V_cal.fts.mag.1'
p530
sI1
S'KIC8462852-20181220at015124_-35-1X1-030-V_cal.fts.mag.1'
p531
sI2
S'KIC8462852-20181220at014753_-35-1X1-030-V_cal.fts.mag.1'
p532
sI3
S'KIC8462852-20181220at022107_-35-1X1-030-V_cal.fts.mag.1'
p533
sI4
S'KIC8462852-20181220at014910_-35-1X1-030-V_cal.fts.mag.1'
p534
sI5
S'KIC8462852-20181220at024451_-35-1X1-030-V_cal.fts.mag.1'
p535
sI6
S'KIC8462852-20181220at021627_-35-1X1-030-V_cal.fts.mag.1'
p536
sI7
S'KIC8462852-20181220at024936_-35-1X1-030-V_cal.fts.mag.1'
p537
sI8
S'KIC8462852-20181220at021850_-35-1X1-030-V_cal.fts.mag.1'
p538
sI9
S'KIC8462852-20181220at021743_-35-1X1-030-V_cal.fts.mag.1'
p539
sI10
S'KIC8462852-20181220at024717_-35-1X1-030-V_cal.fts.mag.1'
p540
sI11
S'KIC8462852-20181220at021958_-35-1X1-030-V_cal.fts.mag.1'
p541
sI12
S'KIC8462852-20181220at015016_-35-1X1-030-V_cal.fts.mag.1'
p542
sI13
S'KIC8462852-20181220at024826_-35-1X1-030-V_cal.fts.mag.1'
p543
sI14
S'KIC8462852-20181220at015232_-35-1X1-030-V_cal.fts.mag.1'
p544
ssg121
(dp545
I0
F0.005407224558347919
sI1
Fnan
sI2
Fnan
sI3
Fnan
sI4
Fnan
sI5
Fnan
sI6
Fnan
sI7
Fnan
sI8
Fnan
sI9
Fnan
sI10
Fnan
sI11
Fnan
sI12
Fnan
sI13
Fnan
sI14
Fnan
ssg123
(dp546
I0
F3424.4533333333334
sI1
F4787.4400000000005
sI2
F3676.4700000000003
sI3
F4340.7733333333335
sI4
F4198.19
sI5
F2804.859
sI6
F4563.333333333333
sI7
F2864.7613333333334
sI8
F4778.5633333333335
sI9
F4685.0599999999995
sI10
F3558.983333333333
sI11
F4446.4
sI12
F4607.256666666667
sI13
F3500.8866666666668
sI14
F4850.429999999999
ssg125
(dp547
I0
F0.20224355896506835
sI1
Fnan
sI2
Fnan
sI3
Fnan
sI4
Fnan
sI5
Fnan
sI6
Fnan
sI7
Fnan
sI8
Fnan
sI9
Fnan
sI10
Fnan
sI11
Fnan
sI12
Fnan
sI13
Fnan
sI14
Fnan
ssg127
(dp548
I0
g469
sI1
g469
sI2
g469
sI3
g469
sI4
g469
sI5
g469
sI6
g469
sI7
g469
sI8
g469
sI9
g469
sI10
g469
sI11
g469
sI12
g469
sI13
g469
sI14
g469
ssg144
(dp549
I0
F0.002511232389880546
sI1
Fnan
sI2
Fnan
sI3
Fnan
sI4
Fnan
sI5
Fnan
sI6
Fnan
sI7
Fnan
sI8
Fnan
sI9
Fnan
sI10
Fnan
sI11
Fnan
sI12
Fnan
sI13
Fnan
sI14
Fnan
ssg146
(dp550
I0
F5.738841
sI1
F-3.496353
sI2
F3.398599
sI3
F-2.752139
sI4
F-4.741063
sI5
F4.316843
sI6
F6.349401
sI7
F1.974079
sI8
F-5.18289
sI9
F-3.576999
sI10
F2.883141
sI11
F4.590183
sI12
F2.804657
sI13
F4.708184
sI14
F-3.81793
ssg148
(dp551
I0
F1.503889118800796
sI1
Fnan
sI2
Fnan
sI3
Fnan
sI4
Fnan
sI5
Fnan
sI6
Fnan
sI7
Fnan
sI8
Fnan
sI9
Fnan
sI10
Fnan
sI11
Fnan
sI12
Fnan
sI13
Fnan
sI14
Fnan
ssg150
(dp552
I0
F2458472.596412037
sI1
Fnan
sI2
Fnan
sI3
Fnan
sI4
Fnan
sI5
Fnan
sI6
Fnan
sI7
Fnan
sI8
Fnan
sI9
Fnan
sI10
Fnan
sI11
Fnan
sI12
Fnan
sI13
Fnan
sI14
Fnan
ssg152
(dp553
I0
F0.002511232389880546
sI1
Fnan
sI2
Fnan
sI3
Fnan
sI4
Fnan
sI5
Fnan
sI6
Fnan
sI7
Fnan
sI8
Fnan
sI9
Fnan
sI10
Fnan
sI11
Fnan
sI12
Fnan
sI13
Fnan
sI14
Fnan
ssg154
(dp554
I0
F100.1375
sI1
F61.41609
sI2
F79.30235
sI3
F73.95266
sI4
F71.14689
sI5
F112.2203
sI6
F69.42233
sI7
F105.7077
sI8
F68.57878
sI9
F67.63404
sI10
F92.04159
sI11
F72.72974
sI12
F65.43209
sI13
F92.20303
sI14
F59.10073
ssg156
(dp555
I0
F11.502
sI1
F11.129
sI2
F11.421
sI3
F11.237
sI4
F11.272
sI5
F11.709
sI6
F11.184
sI7
F11.682
sI8
F11.129
sI9
F11.152
sI10
F11.452
sI11
F11.203
sI12
F11.173
sI13
F11.463
sI14
F11.11
ssg158
(dp556
I0
F0.6941702658787249
sI1
Fnan
sI2
Fnan
sI3
Fnan
sI4
Fnan
sI5
Fnan
sI6
Fnan
sI7
Fnan
sI8
Fnan
sI9
Fnan
sI10
Fnan
sI11
Fnan
sI12
Fnan
sI13
Fnan
sI14
Fnan
sss.