(dp0
S'i'
p1
(dp2
S'sigmean'
p3
(dp4
I0
F0.43501267741197797
sI1
Fnan
sI2
Fnan
sI3
Fnan
sI4
Fnan
sI5
Fnan
sI6
Fnan
sI7
Fnan
sI8
Fnan
sI9
Fnan
sI10
Fnan
sI11
Fnan
sI12
Fnan
sI13
Fnan
sI14
Fnan
ssS'ref3flag'
p5
(dp6
I0
S'NoError'
p7
sI1
S'NoError'
p8
sI2
S'NoError'
p9
sI3
S'NoError'
p10
sI4
S'NoError'
p11
sI5
S'NoError'
p12
sI6
S'NoError'
p13
sI7
S'NoError'
p14
sI8
S'NoError'
p15
sI9
S'NoError'
p16
sI10
S'NoError'
p17
sI11
S'NoError'
p18
sI12
S'NoError'
p19
sI13
S'NoError'
p20
sI14
S'NoError'
p21
ssS'tabbyerr'
p22
(dp23
I0
F0.003
sI1
F0.003
sI2
F0.004
sI3
F0.004
sI4
F0.003
sI5
F0.003
sI6
F0.005
sI7
F0.005
sI8
F0.005
sI9
F0.003
sI10
F0.004
sI11
F0.005
sI12
F0.003
sI13
F0.004
sI14
F0.005
ssS'ref2rel'
p24
(dp25
I0
F0.9073811673105004
sI1
F0.9059366208628716
sI2
F0.9142698288733409
sI3
F0.9123427571344985
sI4
F0.9094516048771109
sI5
F0.9061185312892218
sI6
F0.9074407635652603
sI7
F0.8990997047157108
sI8
F0.908557205439129
sI9
F0.9090914654483923
sI10
F0.9083981843823178
sI11
F0.9131981823987564
sI12
F0.9078312144077462
sI13
F0.9030424076989073
sI14
F0.9083364012316689
ssS'ref2err'
p26
(dp27
I0
F0.0037925703839206504
sI1
Fnan
sI2
Fnan
sI3
Fnan
sI4
Fnan
sI5
Fnan
sI6
Fnan
sI7
Fnan
sI8
Fnan
sI9
Fnan
sI10
Fnan
sI11
Fnan
sI12
Fnan
sI13
Fnan
sI14
Fnan
ssS'ref2mean'
p28
(dp29
I0
F0.9080330693090289
sI1
Fnan
sI2
Fnan
sI3
Fnan
sI4
Fnan
sI5
Fnan
sI6
Fnan
sI7
Fnan
sI8
Fnan
sI9
Fnan
sI10
Fnan
sI11
Fnan
sI12
Fnan
sI13
Fnan
sI14
Fnan
ssS'tabbymag'
p30
(dp31
I0
F12.038
sI1
F12.055
sI2
F12.256
sI3
F12.266
sI4
F12.036
sI5
F12.035
sI6
F12.657
sI7
F12.847
sI8
F12.768
sI9
F12.159
sI10
F12.198
sI11
F12.767
sI12
F12.032
sI13
F12.296
sI14
F12.66
ssS'tabbybkg'
p32
(dp33
I0
F4.870818
sI1
F4.588218
sI2
F4.73284
sI3
F4.830289
sI4
F4.792584
sI5
F4.72532
sI6
F6.898005
sI7
F6.985749
sI8
F7.857477
sI9
F3.789444
sI10
F3.78945
sI11
F7.983236
sI12
F4.648128
sI13
F3.988835
sI14
F7.683558
ssS'JD'
p34
(dp35
I0
F2458449.584849537
sI1
F2458449.5841087964
sI2
F2458449.6044444446
sI3
F2458449.602951389
sI4
F2458449.5863310187
sI5
F2458449.587060185
sI6
F2458449.568263889
sI7
F2458449.566747685
sI8
F2458449.567488426
sI9
F2458449.605925926
sI10
F2458449.605185185
sI11
F2458449.5660069445
sI12
F2458449.585590278
sI13
F2458449.6037037037
sI14
F2458449.5652662036
ssS'ref3rmsmean'
p36
(dp37
I0
F1.1218422666666663
sI1
Fnan
sI2
Fnan
sI3
Fnan
sI4
Fnan
sI5
Fnan
sI6
Fnan
sI7
Fnan
sI8
Fnan
sI9
Fnan
sI10
Fnan
sI11
Fnan
sI12
Fnan
sI13
Fnan
sI14
Fnan
ssS'ref1rmsmean'
p38
(dp39
I0
F1.5429383333333329
sI1
Fnan
sI2
Fnan
sI3
Fnan
sI4
Fnan
sI5
Fnan
sI6
Fnan
sI7
Fnan
sI8
Fnan
sI9
Fnan
sI10
Fnan
sI11
Fnan
sI12
Fnan
sI13
Fnan
sI14
Fnan
ssS'relflux'
p40
(dp41
I0
F0.4356758336661405
sI1
F0.43630332817474315
sI2
F0.43444779740730244
sI3
F0.4327527066659071
sI4
F0.44009686163429046
sI5
F0.43663755123908016
sI6
F0.43403551352498587
sI7
F0.43608743790347104
sI8
F0.4335787326787223
sI9
F0.4340244074328859
sI10
F0.4348074836370773
sI11
F0.4334833708917656
sI12
F0.4417556929675869
sI13
F0.4368852682224206
sI14
F0.4364453749112125
ssS'sigerr'
p42
(dp43
I0
F0.0013374851132759618
sI1
Fnan
sI2
Fnan
sI3
Fnan
sI4
Fnan
sI5
Fnan
sI6
Fnan
sI7
Fnan
sI8
Fnan
sI9
Fnan
sI10
Fnan
sI11
Fnan
sI12
Fnan
sI13
Fnan
sI14
Fnan
ssS'tabbyrmsmean'
p44
(dp45
I0
F2.0917163333333337
sI1
Fnan
sI2
Fnan
sI3
Fnan
sI4
Fnan
sI5
Fnan
sI6
Fnan
sI7
Fnan
sI8
Fnan
sI9
Fnan
sI10
Fnan
sI11
Fnan
sI12
Fnan
sI13
Fnan
sI14
Fnan
ssS'tabbyflag'
p46
(dp47
I0
g7
sI1
g8
sI2
g9
sI3
g10
sI4
g11
sI5
g12
sI6
g13
sI7
g14
sI8
g15
sI9
g16
sI10
g17
sI11
g18
sI12
g19
sI13
g20
sI14
g21
ssS'ref1err'
p48
(dp49
I0
F0.0042184933366342416
sI1
Fnan
sI2
Fnan
sI3
Fnan
sI4
Fnan
sI5
Fnan
sI6
Fnan
sI7
Fnan
sI8
Fnan
sI9
Fnan
sI10
Fnan
sI11
Fnan
sI12
Fnan
sI13
Fnan
sI14
Fnan
ssS'ref2magmeanerr'
p50
(dp51
I0
F0.3075067633789692
sI1
Fnan
sI2
Fnan
sI3
Fnan
sI4
Fnan
sI5
Fnan
sI6
Fnan
sI7
Fnan
sI8
Fnan
sI9
Fnan
sI10
Fnan
sI11
Fnan
sI12
Fnan
sI13
Fnan
sI14
Fnan
ssS'ref2rmsmean'
p52
(dp53
I0
F2.061887
sI1
Fnan
sI2
Fnan
sI3
Fnan
sI4
Fnan
sI5
Fnan
sI6
Fnan
sI7
Fnan
sI8
Fnan
sI9
Fnan
sI10
Fnan
sI11
Fnan
sI12
Fnan
sI13
Fnan
sI14
Fnan
ssS'ref3rel'
p54
(dp55
I0
F1.499238105776443
sI1
F1.5022902215817988
sI2
F1.5120075228438463
sI3
F1.5041462549828486
sI4
F1.495192734425205
sI5
F1.5051685837255875
sI6
F1.5045891311157003
sI7
F1.5303772323544194
sI8
F1.506511183428896
sI9
F1.5115470185335893
sI10
F1.5111182099644904
sI11
F1.5046518542963265
sI12
F1.5035270180774556
sI13
F1.5142345604268328
sI14
F1.500394947490381
ssS'ref1flag'
p56
(dp57
I0
g7
sI1
g8
sI2
g9
sI3
g10
sI4
g11
sI5
g12
sI6
g13
sI7
g14
sI8
g15
sI9
g16
sI10
g17
sI11
g18
sI12
g19
sI13
g20
sI14
g21
ssS'ref2bkg'
p58
(dp59
I0
F5.683165
sI1
F5.26915
sI2
F4.24483
sI3
F4.331364
sI4
F7.066185
sI5
F6.599961
sI6
F7.740964
sI7
F8.821784
sI8
F7.895473
sI9
F4.968307
sI10
F5.57161
sI11
F7.275795
sI12
F6.37312
sI13
F5.56016
sI14
F7.983939
ssS'ref3magmean'
p60
(dp61
I0
F11.160466666666668
sI1
Fnan
sI2
Fnan
sI3
Fnan
sI4
Fnan
sI5
Fnan
sI6
Fnan
sI7
Fnan
sI8
Fnan
sI9
Fnan
sI10
Fnan
sI11
Fnan
sI12
Fnan
sI13
Fnan
sI14
Fnan
ssS'ref1mean'
p62
(dp63
I0
F0.695577259846823
sI1
Fnan
sI2
Fnan
sI3
Fnan
sI4
Fnan
sI5
Fnan
sI6
Fnan
sI7
Fnan
sI8
Fnan
sI9
Fnan
sI10
Fnan
sI11
Fnan
sI12
Fnan
sI13
Fnan
sI14
Fnan
ssS'ref1rms'
p64
(dp65
I0
F4.29039
sI1
F3.059566
sI2
F-2.720044
sI3
F3.121654
sI4
F4.227264
sI5
F3.812338
sI6
F3.81384
sI7
F4.340565
sI8
F2.181548
sI9
F3.224437
sI10
F-3.813354
sI11
F1.926377
sI12
F-2.95621
sI13
F2.156549
sI14
F-3.520845
ssS'ref2magmean'
p66
(dp67
I0
F11.507133333333336
sI1
Fnan
sI2
Fnan
sI3
Fnan
sI4
Fnan
sI5
Fnan
sI6
Fnan
sI7
Fnan
sI8
Fnan
sI9
Fnan
sI10
Fnan
sI11
Fnan
sI12
Fnan
sI13
Fnan
sI14
Fnan
ssS'ref2flag'
p68
(dp69
I0
g7
sI1
g8
sI2
g9
sI3
g10
sI4
g11
sI5
g12
sI6
g13
sI7
g14
sI8
g15
sI9
g16
sI10
g17
sI11
g18
sI12
g19
sI13
g20
sI14
g21
ssS'ref2'
p70
(dp71
I0
F8257.563333333334
sI1
F8110.23
sI2
F6813.303333333333
sI3
F6764.673333333334
sI4
F8205.95
sI5
F8260.32
sI6
F4691.113333333333
sI7
F3892.9566666666665
sI8
F4240.946666666667
sI9
F7427.3
sI10
F7151.973333333333
sI11
F4261.1866666666665
sI12
F8194.736666666668
sI13
F6473.113333333333
sI14
F4655.0
ssS'airmass'
p72
(dp73
I0
F1.160736
sI1
F1.158477
sI2
F1.228672
sI3
F1.222906
sI4
F1.1652879999999999
sI5
F1.167574
sI6
F1.115018
sI7
F1.111315
sI8
F1.1130879999999999
sI9
F1.234438
sI10
F1.231514
sI11
F1.109512
sI12
F1.163015
sI13
F1.225773
sI14
F1.1077489999999999
ssS'ref1'
p74
(dp75
I0
F6864.833333333333
sI1
F6745.683333333333
sI2
F5554.36
sI3
F5560.1033333333335
sI4
F6815.756666666667
sI5
F6856.006666666667
sI6
F3886.4
sI7
F3218.2573333333335
sI8
F3502.6533333333336
sI9
F6109.383333333333
sI10
F5891.343333333333
sI11
F3496.2933333333335
sI12
F6789.12
sI13
F5369.776666666667
sI14
F3860.9
ssS'ref3'
p76
(dp77
I0
F11336.036666666665
sI1
F11158.946666666667
sI2
F9350.0
sI3
F9269.133333333333
sI4
F11230.173333333334
sI5
F11376.31
sI6
F6452.816666666667
sI7
F5441.42
sI8
F5832.91
sI9
F10230.666666666666
sI10
F9854.996666666668
sI11
F5836.153333333334
sI12
F11264.316666666668
sI13
F8966.456666666667
sI14
F6388.6066666666675
ssS'ref1bkg'
p78
(dp79
I0
F5.338631
sI1
F5.555118
sI2
F5.297859
sI3
F4.403421
sI4
F5.222832
sI5
F4.819166
sI6
F7.358658
sI7
F7.585218
sI8
F7.730735
sI9
F5.526831
sI10
F5.321472
sI11
F8.660268
sI12
F5.956799
sI13
F5.173234
sI14
F8.617695
ssS'ref1mag'
p80
(dp81
I0
F11.408
sI1
F11.427
sI2
F11.638
sI3
F11.637
sI4
F11.416
sI5
F11.41
sI6
F12.026
sI7
F12.231
sI8
F12.139
sI9
F11.535
sI10
F11.574
sI11
F12.141
sI12
F11.42
sI13
F11.675
sI14
F12.033
ssS'ref3magerr'
p82
(dp83
I0
F0.002
sI1
F0.002
sI2
F0.002
sI3
F0.002
sI4
F0.002
sI5
F0.002
sI6
F0.002
sI7
F0.003
sI8
F0.003
sI9
F0.002
sI10
F0.002
sI11
F0.002
sI12
F0.002
sI13
F0.002
sI14
F0.002
ssS'tabbymagmean'
p84
(dp85
I0
F0.43580115739717284
sI1
Fnan
sI2
Fnan
sI3
Fnan
sI4
Fnan
sI5
Fnan
sI6
Fnan
sI7
Fnan
sI8
Fnan
sI9
Fnan
sI10
Fnan
sI11
Fnan
sI12
Fnan
sI13
Fnan
sI14
Fnan
ssS'ref1magmean'
p86
(dp87
I0
F11.713999999999999
sI1
Fnan
sI2
Fnan
sI3
Fnan
sI4
Fnan
sI5
Fnan
sI6
Fnan
sI7
Fnan
sI8
Fnan
sI9
Fnan
sI10
Fnan
sI11
Fnan
sI12
Fnan
sI13
Fnan
sI14
Fnan
ssS'ref2mag'
p88
(dp89
I0
F11.208
sI1
F11.227
sI2
F11.417
sI3
F11.424
sI4
F11.215
sI5
F11.208
sI6
F11.822
sI7
F12.024
sI8
F11.931
sI9
F11.323
sI10
F11.364
sI11
F11.926
sI12
F11.216
sI13
F11.472
sI14
F11.83
ssS'ref3rms'
p90
(dp91
I0
F-1.91021
sI1
F-3.56128
sI2
F2.884638
sI3
F2.85327
sI4
F3.034767
sI5
F-2.038502
sI6
F3.941316
sI7
F1.42286
sI8
F3.463152
sI9
F4.096797
sI10
F2.42478
sI11
F2.074476
sI12
F-1.284697
sI13
F-3.546114
sI14
F2.972381
ssS'ref3magmeanerr'
p92
(dp93
I0
F0.30583979622080093
sI1
Fnan
sI2
Fnan
sI3
Fnan
sI4
Fnan
sI5
Fnan
sI6
Fnan
sI7
Fnan
sI8
Fnan
sI9
Fnan
sI10
Fnan
sI11
Fnan
sI12
Fnan
sI13
Fnan
sI14
Fnan
ssS'ref1rel'
p94
(dp95
I0
F0.7007220044640426
sI1
F0.7001527309677477
sI2
F0.6872803022319488
sI3
F0.6935475085766699
sI4
F0.7013493946066405
sI5
F0.6982875031679742
sI6
F0.6974918184159449
sI7
F0.689549489646336
sI8
F0.6953947131138456
sI9
F0.6919690640107675
sI10
F0.6928151614700717
sI11
F0.692517699380893
sI12
F0.6977852297028494
sI13
F0.6955862976322096
sI14
F0.6992099803144022
ssS'exposure'
p96
(dp97
I0
F30.0
sI1
F30.0
sI2
F30.0
sI3
F30.0
sI4
F30.0
sI5
F30.0
sI6
F30.0
sI7
F30.0
sI8
F30.0
sI9
F30.0
sI10
F30.0
sI11
F30.0
sI12
F30.0
sI13
F30.0
sI14
F30.0
ssS'ref1magerr'
p98
(dp99
I0
F0.002
sI1
F0.002
sI2
F0.003
sI3
F0.003
sI4
F0.002
sI5
F0.002
sI6
F0.003
sI7
F0.004
sI8
F0.003
sI9
F0.002
sI10
F0.003
sI11
F0.003
sI12
F0.002
sI13
F0.003
sI14
F0.003
ssS'ref2magerr'
p100
(dp101
I0
F0.002
sI1
F0.002
sI2
F0.002
sI3
F0.002
sI4
F0.002
sI5
F0.002
sI6
F0.003
sI7
F0.003
sI8
F0.003
sI9
F0.002
sI10
F0.002
sI11
F0.003
sI12
F0.002
sI13
F0.002
sI14
F0.003
ssS'ref2rms'
p102
(dp103
I0
F3.469766
sI1
F4.61813
sI2
F3.646224
sI3
F2.258955
sI4
F3.175096
sI5
F2.018205
sI6
F3.11452
sI7
F-2.7628
sI8
F1.654221
sI9
F3.593547
sI10
F-1.412326
sI11
F4.083373
sI12
F-1.160218
sI13
F2.193405
sI14
F2.438207
ssS'name'
p104
(dp105
I0
S"KIC8462852-20181127at020211_-35-1X1-030-i'_cal.fts.mag.1"
p106
sI1
S"KIC8462852-20181127at020105_-35-1X1-030-i'_cal.fts.mag.1"
p107
sI2
S"KIC8462852-20181127at023024_-35-1X1-030-i'_cal.fts.mag.1"
p108
sI3
S"KIC8462852-20181127at022813_-35-1X1-030-i'_cal.fts.mag.1"
p109
sI4
S"KIC8462852-20181127at020419_-35-1X1-030-i'_cal.fts.mag.1"
p110
sI5
S"KIC8462852-20181127at020522_-35-1X1-030-i'_cal.fts.mag.1"
p111
sI6
S"KIC8462852-20181127at013818_-35-1X1-030-i'_cal.fts.mag.1"
p112
sI7
S"KIC8462852-20181127at013607_-35-1X1-030-i'_cal.fts.mag.1"
p113
sI8
S"KIC8462852-20181127at013711_-35-1X1-030-i'_cal.fts.mag.1"
p114
sI9
S"KIC8462852-20181127at023231_-35-1X1-030-i'_cal.fts.mag.1"
p115
sI10
S"KIC8462852-20181127at023128_-35-1X1-030-i'_cal.fts.mag.1"
p116
sI11
S"KIC8462852-20181127at013503_-35-1X1-030-i'_cal.fts.mag.1"
p117
sI12
S"KIC8462852-20181127at020315_-35-1X1-030-i'_cal.fts.mag.1"
p118
sI13
S"KIC8462852-20181127at022920_-35-1X1-030-i'_cal.fts.mag.1"
p119
sI14
S"KIC8462852-20181127at013357_-35-1X1-030-i'_cal.fts.mag.1"
p120
ssS'ref3err'
p121
(dp122
I0
F0.008289993938634374
sI1
Fnan
sI2
Fnan
sI3
Fnan
sI4
Fnan
sI5
Fnan
sI6
Fnan
sI7
Fnan
sI8
Fnan
sI9
Fnan
sI10
Fnan
sI11
Fnan
sI12
Fnan
sI13
Fnan
sI14
Fnan
ssS'tabby'
p123
(dp124
I0
F3842.4333333333334
sI1
F3783.4566666666665
sI2
F3145.063666666667
sI3
F3114.941
sI4
F3851.1233333333334
sI5
F3855.8933333333334
sI6
F2174.565666666667
sI7
F1824.682
sI8
F1962.162
sI9
F3438.536666666667
sI10
F3318.786
sI11
F1964.2046666666668
sI12
F3865.0933333333332
sI13
F3030.432333333333
sI14
F2168.3343333333332
ssS'ref1magmeanerr'
p125
(dp126
I0
F0.309131964423887
sI1
Fnan
sI2
Fnan
sI3
Fnan
sI4
Fnan
sI5
Fnan
sI6
Fnan
sI7
Fnan
sI8
Fnan
sI9
Fnan
sI10
Fnan
sI11
Fnan
sI12
Fnan
sI13
Fnan
sI14
Fnan
ssS'filter'
p127
(dp128
I0
S"i'"
p129
sI1
S"i'"
p130
sI2
S"i'"
p131
sI3
S"i'"
p132
sI4
S"i'"
p133
sI5
S"i'"
p134
sI6
S"i'"
p135
sI7
S"i'"
p136
sI8
S"i'"
p137
sI9
S"i'"
p138
sI10
S"i'"
p139
sI11
S"i'"
p140
sI12
S"i'"
p141
sI13
S"i'"
p142
sI14
S"i'"
p143
ssS'tabbymagerr'
p144
(dp145
I0
F0.0024676035403208424
sI1
Fnan
sI2
Fnan
sI3
Fnan
sI4
Fnan
sI5
Fnan
sI6
Fnan
sI7
Fnan
sI8
Fnan
sI9
Fnan
sI10
Fnan
sI11
Fnan
sI12
Fnan
sI13
Fnan
sI14
Fnan
ssS'tabbyrms'
p146
(dp147
I0
F3.009875
sI1
F2.520847
sI2
F2.46922
sI3
F-3.140416
sI4
F1.552663
sI5
F3.159702
sI6
F3.438997
sI7
F2.127851
sI8
F2.964041
sI9
F3.468744
sI10
F2.483145
sI11
F3.015143
sI12
F-2.090956
sI13
F3.942957
sI14
F2.453932
ssS'ref3mean'
p148
(dp149
I0
F1.506999638601588
sI1
Fnan
sI2
Fnan
sI3
Fnan
sI4
Fnan
sI5
Fnan
sI6
Fnan
sI7
Fnan
sI8
Fnan
sI9
Fnan
sI10
Fnan
sI11
Fnan
sI12
Fnan
sI13
Fnan
sI14
Fnan
ssS'median_JD'
p150
(dp151
I0
F2458449.585590278
sI1
Fnan
sI2
Fnan
sI3
Fnan
sI4
Fnan
sI5
Fnan
sI6
Fnan
sI7
Fnan
sI8
Fnan
sI9
Fnan
sI10
Fnan
sI11
Fnan
sI12
Fnan
sI13
Fnan
sI14
Fnan
ssS'error'
p152
(dp153
I0
F0.0024676035403208424
sI1
Fnan
sI2
Fnan
sI3
Fnan
sI4
Fnan
sI5
Fnan
sI6
Fnan
sI7
Fnan
sI8
Fnan
sI9
Fnan
sI10
Fnan
sI11
Fnan
sI12
Fnan
sI13
Fnan
sI14
Fnan
ssS'ref3bkg'
p154
(dp155
I0
F7.066178
sI1
F7.4417
sI2
F5.882489
sI3
F6.406839
sI4
F7.500401
sI5
F6.430336
sI6
F8.529684
sI7
F8.155534
sI8
F7.664786
sI9
F6.263865
sI10
F5.676877
sI11
F8.42953
sI12
F7.223799
sI13
F5.806627
sI14
F8.714188
ssS'ref3mag'
p156
(dp157
I0
F10.864
sI1
F10.881
sI2
F11.073
sI3
F11.082
sI4
F10.874
sI5
F10.86
sI6
F11.476
sI7
F11.661
sI8
F11.585
sI9
F10.975
sI10
F11.016
sI11
F11.585
sI12
F10.871
sI13
F11.118
sI14
F11.486
ssS'mean'
p158
(dp159
I0
F0.43580115739717284
sI1
Fnan
sI2
Fnan
sI3
Fnan
sI4
Fnan
sI5
Fnan
sI6
Fnan
sI7
Fnan
sI8
Fnan
sI9
Fnan
sI10
Fnan
sI11
Fnan
sI12
Fnan
sI13
Fnan
sI14
Fnan
sssS'r'
p160
(dp161
g3
(dp162
I0
F0.5468385496766973
sI1
Fnan
sI2
Fnan
sI3
Fnan
sI4
Fnan
sI5
Fnan
sI6
Fnan
sI7
Fnan
sI8
Fnan
sI9
Fnan
sI10
Fnan
sI11
Fnan
sI12
Fnan
sI13
Fnan
sI14
Fnan
ssg5
(dp163
I0
S'NoError'
p164
sI1
S'NoError'
p165
sI2
S'NoError'
p166
sI3
S'NoError'
p167
sI4
S'NoError'
p168
sI5
S'NoError'
p169
sI6
S'NoError'
p170
sI7
S'NoError'
p171
sI8
S'NoError'
p172
sI9
S'NoError'
p173
sI10
S'NoError'
p174
sI11
S'NoError'
p175
sI12
S'NoError'
p176
sI13
S'NoError'
p177
sI14
S'NoError'
p178
ssg22
(dp179
I0
F0.003
sI1
F0.002
sI2
F0.002
sI3
F0.003
sI4
F0.002
sI5
F0.002
sI6
F0.002
sI7
F0.002
sI8
F0.002
sI9
F0.002
sI10
F0.003
sI11
F0.003
sI12
F0.002
sI13
F0.003
sI14
F0.002
ssg24
(dp180
I0
F0.8888481375970548
sI1
F0.8908532213290079
sI2
F0.8900822313703312
sI3
F0.8884785171888784
sI4
F0.894461881361657
sI5
F0.8902740023994599
sI6
F0.8920256026084111
sI7
F0.8931768704396018
sI8
F0.8895341240411793
sI9
F0.8924822360908953
sI10
F0.8936410180468384
sI11
F0.8889345535118944
sI12
F0.8952544096835998
sI13
F0.8923815984682554
sI14
F0.8925800832005915
ssg26
(dp181
I0
F0.0021376082654787545
sI1
Fnan
sI2
Fnan
sI3
Fnan
sI4
Fnan
sI5
Fnan
sI6
Fnan
sI7
Fnan
sI8
Fnan
sI9
Fnan
sI10
Fnan
sI11
Fnan
sI12
Fnan
sI13
Fnan
sI14
Fnan
ssg28
(dp182
I0
F0.8915338991558437
sI1
Fnan
sI2
Fnan
sI3
Fnan
sI4
Fnan
sI5
Fnan
sI6
Fnan
sI7
Fnan
sI8
Fnan
sI9
Fnan
sI10
Fnan
sI11
Fnan
sI12
Fnan
sI13
Fnan
sI14
Fnan
ssg30
(dp183
I0
F11.84
sI1
F11.482
sI2
F11.339
sI3
F12.056
sI4
F11.301
sI5
F11.27
sI6
F11.488
sI7
F11.55
sI8
F11.489
sI9
F11.522
sI10
F11.784
sI11
F11.912
sI12
F11.318
sI13
F11.918
sI14
F11.277
ssg32
(dp184
I0
F9.429241
sI1
F5.037179
sI2
F7.107066
sI3
F9.279423
sI4
F7.198987
sI5
F7.234808
sI6
F5.113742
sI7
F5.858393
sI8
F5.464615
sI9
F4.754287
sI10
F9.504039
sI11
F9.771338
sI12
F6.922069
sI13
F10.88981
sI14
F5.892946
ssg34
(dp185
I0
F2458449.5622685184
sI1
F2458449.6014699074
sI2
F2458449.5833564815
sI3
F2458449.5644907407
sI4
F2458449.581886574
sI5
F2458449.580428241
sI6
F2458449.599976852
sI7
F2458449.599236111
sI8
F2458449.6007175925
sI9
F2458449.602199074
sI10
F2458449.5630092593
sI11
F2458449.5637384257
sI12
F2458449.5826157406
sI13
F2458449.561527778
sI14
F2458449.5811574073
ssg36
(dp186
I0
F1.7918757
sI1
Fnan
sI2
Fnan
sI3
Fnan
sI4
Fnan
sI5
Fnan
sI6
Fnan
sI7
Fnan
sI8
Fnan
sI9
Fnan
sI10
Fnan
sI11
Fnan
sI12
Fnan
sI13
Fnan
sI14
Fnan
ssg38
(dp187
I0
F0.9215078
sI1
Fnan
sI2
Fnan
sI3
Fnan
sI4
Fnan
sI5
Fnan
sI6
Fnan
sI7
Fnan
sI8
Fnan
sI9
Fnan
sI10
Fnan
sI11
Fnan
sI12
Fnan
sI13
Fnan
sI14
Fnan
ssg40
(dp188
I0
F0.5487273312400059
sI1
F0.5487353284928839
sI2
F0.5451017070282004
sI3
F0.548443509519526
sI4
F0.5477903875416964
sI5
F0.5492100459175113
sI6
F0.5488502676607852
sI7
F0.5453444510880893
sI8
F0.5444389381095338
sI9
F0.5446192499286435
sI10
F0.546907088982308
sI11
F0.5457246401845653
sI12
F0.5478669105987422
sI13
F0.5439798391812721
sI14
F0.5513845753728396
ssg42
(dp189
I0
F0.0018268979300653354
sI1
Fnan
sI2
Fnan
sI3
Fnan
sI4
Fnan
sI5
Fnan
sI6
Fnan
sI7
Fnan
sI8
Fnan
sI9
Fnan
sI10
Fnan
sI11
Fnan
sI12
Fnan
sI13
Fnan
sI14
Fnan
ssg44
(dp190
I0
F2.2411863999999997
sI1
Fnan
sI2
Fnan
sI3
Fnan
sI4
Fnan
sI5
Fnan
sI6
Fnan
sI7
Fnan
sI8
Fnan
sI9
Fnan
sI10
Fnan
sI11
Fnan
sI12
Fnan
sI13
Fnan
sI14
Fnan
ssg46
(dp191
I0
g164
sI1
g165
sI2
g166
sI3
g167
sI4
g168
sI5
g169
sI6
g170
sI7
g171
sI8
g172
sI9
g173
sI10
g174
sI11
g175
sI12
g176
sI13
g177
sI14
g178
ssg48
(dp192
I0
F0.0028546046021387717
sI1
Fnan
sI2
Fnan
sI3
Fnan
sI4
Fnan
sI5
Fnan
sI6
Fnan
sI7
Fnan
sI8
Fnan
sI9
Fnan
sI10
Fnan
sI11
Fnan
sI12
Fnan
sI13
Fnan
sI14
Fnan
ssg50
(dp193
I0
F0.2643989590066675
sI1
Fnan
sI2
Fnan
sI3
Fnan
sI4
Fnan
sI5
Fnan
sI6
Fnan
sI7
Fnan
sI8
Fnan
sI9
Fnan
sI10
Fnan
sI11
Fnan
sI12
Fnan
sI13
Fnan
sI14
Fnan
ssg52
(dp194
I0
F0.8672892666666667
sI1
Fnan
sI2
Fnan
sI3
Fnan
sI4
Fnan
sI5
Fnan
sI6
Fnan
sI7
Fnan
sI8
Fnan
sI9
Fnan
sI10
Fnan
sI11
Fnan
sI12
Fnan
sI13
Fnan
sI14
Fnan
ssg54
(dp195
I0
F1.5026478848734037
sI1
F1.4966341242723
sI2
F1.5058323226100965
sI3
F1.5064631526852028
sI4
F1.4988794930431588
sI5
F1.500581732172069
sI6
F1.5077608034793073
sI7
F1.5075032470635366
sI8
F1.511189223744323
sI9
F1.501122254742488
sI10
F1.5033624566514658
sI11
F1.4984565634253435
sI12
F1.4960379593768722
sI13
F1.5076712924554827
sI14
F1.5011165277820666
ssg56
(dp196
I0
g164
sI1
g165
sI2
g166
sI3
g167
sI4
g168
sI5
g169
sI6
g170
sI7
g171
sI8
g172
sI9
g173
sI10
g174
sI11
g175
sI12
g176
sI13
g177
sI14
g178
ssg58
(dp197
I0
F11.438
sI1
F6.020149
sI2
F8.306041
sI3
F10.08638
sI4
F7.322618
sI5
F7.559099
sI6
F6.925059
sI7
F7.670111
sI8
F5.948346
sI9
F6.425743
sI10
F10.59732
sI11
F11.11911
sI12
F8.56503
sI13
F11.32254
sI14
F7.688294
ssg60
(dp198
I0
F10.6408
sI1
Fnan
sI2
Fnan
sI3
Fnan
sI4
Fnan
sI5
Fnan
sI6
Fnan
sI7
Fnan
sI8
Fnan
sI9
Fnan
sI10
Fnan
sI11
Fnan
sI12
Fnan
sI13
Fnan
sI14
Fnan
ssg62
(dp199
I0
F0.7122792790222652
sI1
Fnan
sI2
Fnan
sI3
Fnan
sI4
Fnan
sI5
Fnan
sI6
Fnan
sI7
Fnan
sI8
Fnan
sI9
Fnan
sI10
Fnan
sI11
Fnan
sI12
Fnan
sI13
Fnan
sI14
Fnan
ssg64
(dp200
I0
F3.832835
sI1
F-4.135303
sI2
F3.780563
sI3
F-3.593667
sI4
F4.459629
sI5
F4.209005
sI6
F-1.460658
sI7
F-3.666207
sI8
F-1.933275
sI9
F3.145943
sI10
F3.499917
sI11
F1.528357
sI12
F2.82464
sI13
F3.345889
sI14
F-2.015051
ssg66
(dp201
I0
F10.999666666666666
sI1
Fnan
sI2
Fnan
sI3
Fnan
sI4
Fnan
sI5
Fnan
sI6
Fnan
sI7
Fnan
sI8
Fnan
sI9
Fnan
sI10
Fnan
sI11
Fnan
sI12
Fnan
sI13
Fnan
sI14
Fnan
ssg68
(dp202
I0
g164
sI1
g165
sI2
g166
sI3
g167
sI4
g168
sI5
g169
sI6
g170
sI7
g171
sI8
g172
sI9
g173
sI10
g174
sI11
g175
sI12
g176
sI13
g177
sI14
g178
ssg70
(dp203
I0
F7763.29
sI1
F10805.066666666668
sI2
F12409.673333333334
sI3
F6363.666666666667
sI4
F12821.880000000001
sI5
F13124.603333333333
sI6
F10757.336666666666
sI7
F10235.056666666667
sI8
F10812.976666666666
sI9
F10507.553333333333
sI10
F8227.146666666666
sI11
F7303.576666666666
sI12
F12633.433333333332
sI13
F7307.253333333333
sI14
F13003.826666666666
ssg72
(dp204
I0
F1.1007930000000001
sI1
F1.217216
sI2
F1.156192
sI3
F1.105923
sI4
F1.151826
sI5
F1.147553
sI6
F1.21169
sI7
F1.208965
sI8
F1.214456
sI9
F1.2199959999999999
sI10
F1.102483
sI11
F1.1041889999999999
sI12
F1.154002
sI13
F1.099117
sI14
F1.1496950000000001
ssg74
(dp205
I0
F6643.806666666667
sI1
F9250.140000000001
sI2
F10577.166666666666
sI3
F5436.5599999999995
sI4
F10895.063333333334
sI5
F11219.359999999999
sI6
F9127.846666666668
sI7
F8669.203333333333
sI8
F9194.22
sI9
F8945.843333333332
sI10
F6980.98
sI11
F6265.71
sI12
F10739.623333333333
sI13
F6196.990000000001
sI14
F11069.316666666668
ssg76
(dp206
I0
F10824.396666666667
sI1
F15007.653333333332
sI2
F17307.163333333334
sI3
F8888.303333333333
sI4
F17774.42
sI5
F18265.053333333333
sI6
F14991.05
sI7
F14249.116666666667
sI8
F15117.33
sI9
F14600.963333333335
sI10
F11431.663333333334
sI11
F10166.493333333334
sI12
F17483.489999999998
sI13
F10179.980000000001
sI14
F18068.29666666667
ssg78
(dp207
I0
F10.21464
sI1
F7.33555
sI2
F7.856928
sI3
F10.21795
sI4
F6.389423
sI5
F6.569137
sI6
F6.083725
sI7
F7.20602
sI8
F6.466763
sI9
F5.817096
sI10
F10.05111
sI11
F10.20097
sI12
F6.827528
sI13
F10.91772
sI14
F7.404908
ssg80
(dp208
I0
F11.444
sI1
F11.085
sI2
F10.939
sI3
F11.662
sI4
F10.907
sI5
F10.875
sI6
F11.099
sI7
F11.155
sI8
F11.091
sI9
F11.121
sI10
F11.39
sI11
F11.508
sI12
F10.923
sI13
F11.52
sI14
F10.89
ssg82
(dp209
I0
F0.002
sI1
F0.001
sI2
F0.001
sI3
F0.002
sI4
F0.001
sI5
F0.001
sI6
F0.001
sI7
F0.002
sI8
F0.001
sI9
F0.001
sI10
F0.002
sI11
F0.002
sI12
F0.001
sI13
F0.002
sI14
F0.001
ssg84
(dp210
I0
F0.5471416180564401
sI1
Fnan
sI2
Fnan
sI3
Fnan
sI4
Fnan
sI5
Fnan
sI6
Fnan
sI7
Fnan
sI8
Fnan
sI9
Fnan
sI10
Fnan
sI11
Fnan
sI12
Fnan
sI13
Fnan
sI14
Fnan
ssg86
(dp211
I0
F11.173933333333332
sI1
Fnan
sI2
Fnan
sI3
Fnan
sI4
Fnan
sI5
Fnan
sI6
Fnan
sI7
Fnan
sI8
Fnan
sI9
Fnan
sI10
Fnan
sI11
Fnan
sI12
Fnan
sI13
Fnan
sI14
Fnan
ssg88
(dp212
I0
F11.275
sI1
F10.916
sI2
F10.766
sI3
F11.491
sI4
F10.73
sI5
F10.705
sI6
F10.921
sI7
F10.975
sI8
F10.915
sI9
F10.946
sI10
F11.212
sI11
F11.341
sI12
F10.746
sI13
F11.341
sI14
F10.715
ssg90
(dp213
I0
F-2.752973
sI1
F-2.564246
sI2
F4.587079
sI3
F-3.427876
sI4
F3.65952
sI5
F3.464029
sI6
F1.651878
sI7
F3.166868
sI8
F4.424044
sI9
F2.390317
sI10
F2.349838
sI11
F4.210919
sI12
F0.5426255
sI13
F3.165334
sI14
F2.010779
ssg92
(dp214
I0
F0.2630997095073597
sI1
Fnan
sI2
Fnan
sI3
Fnan
sI4
Fnan
sI5
Fnan
sI6
Fnan
sI7
Fnan
sI8
Fnan
sI9
Fnan
sI10
Fnan
sI11
Fnan
sI12
Fnan
sI13
Fnan
sI14
Fnan
ssg94
(dp215
I0
F0.7148610567641015
sI1
F0.7167117607133228
sI2
F0.7118635664563219
sI3
F0.7128993828338239
sI4
F0.7121817561818478
sI5
F0.7148443908858725
sI6
F0.7090033861021197
sI7
F0.7081475216915635
sI8
F0.7091485741523561
sI9
F0.7125744186401558
sI10
F0.7102138939233861
sI11
F0.7173079443871719
sI12
F0.7131952500238792
sI13
F0.7087444745404744
sI14
F0.7124918080375796
ssg96
(dp216
I0
F30.0
sI1
F30.0
sI2
F30.0
sI3
F30.0
sI4
F30.0
sI5
F30.0
sI6
F30.0
sI7
F30.0
sI8
F30.0
sI9
F30.0
sI10
F30.0
sI11
F30.0
sI12
F30.0
sI13
F30.0
sI14
F30.0
ssg98
(dp217
I0
F0.002
sI1
F0.002
sI2
F0.002
sI3
F0.003
sI4
F0.002
sI5
F0.002
sI6
F0.002
sI7
F0.002
sI8
F0.002
sI9
F0.002
sI10
F0.002
sI11
F0.002
sI12
F0.002
sI13
F0.002
sI14
F0.002
ssg100
(dp218
I0
F0.002
sI1
F0.002
sI2
F0.002
sI3
F0.002
sI4
F0.002
sI5
F0.002
sI6
F0.002
sI7
F0.002
sI8
F0.002
sI9
F0.002
sI10
F0.002
sI11
F0.002
sI12
F0.002
sI13
F0.002
sI14
F0.002
ssg102
(dp219
I0
F2.498054
sI1
F2.056414
sI2
F-2.213443
sI3
F3.430818
sI4
F2.567147
sI5
F2.140279
sI6
F1.661417
sI7
F-2.683709
sI8
F4.155238
sI9
F2.886993
sI10
F3.226671
sI11
F-2.329396
sI12
F-3.201583
sI13
F-2.724528
sI14
F1.538967
ssg104
(dp220
I0
S"KIC8462852-20181127at012940_-35-1X1-030-r'_cal.fts.mag.1"
p221
sI1
S"KIC8462852-20181127at022606_-35-1X1-030-r'_cal.fts.mag.1"
p222
sI2
S"KIC8462852-20181127at020002_-35-1X1-030-r'_cal.fts.mag.1"
p223
sI3
S"KIC8462852-20181127at013252_-35-1X1-030-r'_cal.fts.mag.1"
p224
sI4
S"KIC8462852-20181127at015755_-35-1X1-030-r'_cal.fts.mag.1"
p225
sI5
S"KIC8462852-20181127at015547_-35-1X1-030-r'_cal.fts.mag.1"
p226
sI6
S"KIC8462852-20181127at022358_-35-1X1-030-r'_cal.fts.mag.1"
p227
sI7
S"KIC8462852-20181127at022253_-35-1X1-030-r'_cal.fts.mag.1"
p228
sI8
S"KIC8462852-20181127at022502_-35-1X1-030-r'_cal.fts.mag.1"
p229
sI9
S"KIC8462852-20181127at022710_-35-1X1-030-r'_cal.fts.mag.1"
p230
sI10
S"KIC8462852-20181127at013044_-35-1X1-030-r'_cal.fts.mag.1"
p231
sI11
S"KIC8462852-20181127at013147_-35-1X1-030-r'_cal.fts.mag.1"
p232
sI12
S"KIC8462852-20181127at015858_-35-1X1-030-r'_cal.fts.mag.1"
p233
sI13
S"KIC8462852-20181127at012834_-35-1X1-030-r'_cal.fts.mag.1"
p234
sI14
S"KIC8462852-20181127at015652_-35-1X1-030-r'_cal.fts.mag.1"
p235
ssg121
(dp236
I0
F0.004564086499505992
sI1
Fnan
sI2
Fnan
sI3
Fnan
sI4
Fnan
sI5
Fnan
sI6
Fnan
sI7
Fnan
sI8
Fnan
sI9
Fnan
sI10
Fnan
sI11
Fnan
sI12
Fnan
sI13
Fnan
sI14
Fnan
ssg123
(dp237
I0
F4615.070000000001
sI1
F6413.41
sI2
F7321.443333333333
sI3
F3782.163333333333
sI4
F7576.1900000000005
sI5
F7800.433333333333
sI6
F6380.61
sI7
F6026.67
sI8
F6374.386666666667
sI9
F6182.22
sI10
F4856.496666666667
sI11
F4317.733333333334
sI12
F7461.316666666667
sI13
F4294.58
sI14
F7745.38
ssg125
(dp238
I0
F0.2635132055966257
sI1
Fnan
sI2
Fnan
sI3
Fnan
sI4
Fnan
sI5
Fnan
sI6
Fnan
sI7
Fnan
sI8
Fnan
sI9
Fnan
sI10
Fnan
sI11
Fnan
sI12
Fnan
sI13
Fnan
sI14
Fnan
ssg127
(dp239
I0
S"r'"
p240
sI1
S"r'"
p241
sI2
S"r'"
p242
sI3
S"r'"
p243
sI4
S"r'"
p244
sI5
S"r'"
p245
sI6
S"r'"
p246
sI7
S"r'"
p247
sI8
S"r'"
p248
sI9
S"r'"
p249
sI10
S"r'"
p250
sI11
S"r'"
p251
sI12
S"r'"
p252
sI13
S"r'"
p253
sI14
S"r'"
p254
ssg144
(dp255
I0
F0.002171477075374276
sI1
Fnan
sI2
Fnan
sI3
Fnan
sI4
Fnan
sI5
Fnan
sI6
Fnan
sI7
Fnan
sI8
Fnan
sI9
Fnan
sI10
Fnan
sI11
Fnan
sI12
Fnan
sI13
Fnan
sI14
Fnan
ssg146
(dp256
I0
F1.756676
sI1
F2.513304
sI2
F1.851242
sI3
F4.174836
sI4
F-2.099133
sI5
F-2.271227
sI6
F3.935025
sI7
F3.376054
sI8
F2.427135
sI9
F3.180293
sI10
F3.150861
sI11
F3.765173
sI12
F1.685505
sI13
F3.04195
sI14
F3.130102
ssg148
(dp257
I0
F1.503017269225141
sI1
Fnan
sI2
Fnan
sI3
Fnan
sI4
Fnan
sI5
Fnan
sI6
Fnan
sI7
Fnan
sI8
Fnan
sI9
Fnan
sI10
Fnan
sI11
Fnan
sI12
Fnan
sI13
Fnan
sI14
Fnan
ssg150
(dp258
I0
F2458449.581886574
sI1
Fnan
sI2
Fnan
sI3
Fnan
sI4
Fnan
sI5
Fnan
sI6
Fnan
sI7
Fnan
sI8
Fnan
sI9
Fnan
sI10
Fnan
sI11
Fnan
sI12
Fnan
sI13
Fnan
sI14
Fnan
ssg152
(dp259
I0
F0.002171477075374276
sI1
Fnan
sI2
Fnan
sI3
Fnan
sI4
Fnan
sI5
Fnan
sI6
Fnan
sI7
Fnan
sI8
Fnan
sI9
Fnan
sI10
Fnan
sI11
Fnan
sI12
Fnan
sI13
Fnan
sI14
Fnan
ssg154
(dp260
I0
F11.76655
sI1
F7.189175
sI2
F9.322123
sI3
F10.14449
sI4
F9.305929
sI5
F8.944345
sI6
F7.701654
sI7
F9.098977
sI8
F7.715109
sI9
F6.804682
sI10
F11.44971
sI11
F10.5083
sI12
F9.633579
sI13
F11.98332
sI14
F9.422335
ssg156
(dp261
I0
F10.914
sI1
F10.559
sI2
F10.404
sI3
F11.128
sI4
F10.376
sI5
F10.346
sI6
F10.56
sI7
F10.616
sI8
F10.551
sI9
F10.589
sI10
F10.855
sI11
F10.982
sI12
F10.393
sI13
F10.981
sI14
F10.358
ssg158
(dp262
I0
F0.5471416180564401
sI1
Fnan
sI2
Fnan
sI3
Fnan
sI4
Fnan
sI5
Fnan
sI6
Fnan
sI7
Fnan
sI8
Fnan
sI9
Fnan
sI10
Fnan
sI11
Fnan
sI12
Fnan
sI13
Fnan
sI14
Fnan
sssS'z'
p263
(dp264
g3
(dp265
I0
F0.3663891585850259
sI1
Fnan
sI2
Fnan
sI3
Fnan
sI4
Fnan
sI5
Fnan
sI6
Fnan
sI7
Fnan
sI8
Fnan
sI9
Fnan
sI10
Fnan
sI11
Fnan
sI12
Fnan
sI13
Fnan
sI14
Fnan
ssg5
(dp266
I0
S'NoError'
p267
sI1
S'NoError'
p268
sI2
S'NoError'
p269
sI3
S'NoError'
p270
sI4
S'NoError'
p271
sI5
S'NoError'
p272
sI6
S'NoError'
p273
sI7
S'NoError'
p274
sI8
S'NoError'
p275
sI9
S'NoError'
p276
sI10
S'NoError'
p277
sI11
S'NoError'
p278
sI12
S'NoError'
p279
sI13
S'NoError'
p280
sI14
S'NoError'
p281
ssg22
(dp282
I0
F0.008
sI1
F0.008
sI2
F0.008
sI3
F0.007
sI4
F0.008
sI5
F0.01
sI6
F0.01
sI7
F0.008
sI8
F0.008
sI9
F0.012
sI10
F0.011
sI11
F0.008
sI12
F0.011
sI13
F0.008
sI14
F0.008
ssg24
(dp283
I0
F0.9139822609085486
sI1
F0.915139158416493
sI2
F0.9118204684138291
sI3
F0.9119768612531942
sI4
F0.9232081592274444
sI5
F0.9046663797692205
sI6
F0.9009364311588438
sI7
F0.9070717518381407
sI8
F0.9103786519835226
sI9
F0.908838174937005
sI10
F0.9051176835741346
sI11
F0.9095240786363166
sI12
F0.9101859795647962
sI13
F0.9100098019612768
sI14
F0.9121164040495336
ssg26
(dp284
I0
F0.005151557977038642
sI1
Fnan
sI2
Fnan
sI3
Fnan
sI4
Fnan
sI5
Fnan
sI6
Fnan
sI7
Fnan
sI8
Fnan
sI9
Fnan
sI10
Fnan
sI11
Fnan
sI12
Fnan
sI13
Fnan
sI14
Fnan
ssg28
(dp285
I0
F0.9103314830461533
sI1
Fnan
sI2
Fnan
sI3
Fnan
sI4
Fnan
sI5
Fnan
sI6
Fnan
sI7
Fnan
sI8
Fnan
sI9
Fnan
sI10
Fnan
sI11
Fnan
sI12
Fnan
sI13
Fnan
sI14
Fnan
ssg30
(dp286
I0
F13.453
sI1
F13.454
sI2
F13.493
sI3
F13.401
sI4
F13.508
sI5
F13.758
sI6
F13.84
sI7
F13.494
sI8
F13.43
sI9
F14.017
sI10
F13.952
sI11
F13.518
sI12
F13.896
sI13
F13.491
sI14
F13.502
ssg32
(dp287
I0
F1.501036
sI1
F0.8337525
sI2
F1.64097
sI3
F0.6402327
sI4
F1.894618
sI5
F3.295207
sI6
F3.549788
sI7
F1.657042
sI8
F2.331487
sI9
F4.108117
sI10
F3.947758
sI11
F1.635714
sI12
F3.140396
sI13
F1.927121
sI14
F0.9249346
ssg34
(dp288
I0
F2458449.5892824074
sI1
F2458449.6081481483
sI2
F2458449.590763889
sI3
F2458449.5878125
sI4
F2458449.6096412037
sI5
F2458449.571990741
sI6
F2458449.571261574
sI7
F2458449.590011574
sI8
F2458449.5885532405
sI9
F2458449.5690277778
sI10
F2458449.5697685187
sI11
F2458449.606678241
sI12
F2458449.570520833
sI13
F2458449.6074074074
sI14
F2458449.6089004627
ssg36
(dp289
I0
F2.0927883999999994
sI1
Fnan
sI2
Fnan
sI3
Fnan
sI4
Fnan
sI5
Fnan
sI6
Fnan
sI7
Fnan
sI8
Fnan
sI9
Fnan
sI10
Fnan
sI11
Fnan
sI12
Fnan
sI13
Fnan
sI14
Fnan
ssg38
(dp290
I0
F-0.11627046666666666
sI1
Fnan
sI2
Fnan
sI3
Fnan
sI4
Fnan
sI5
Fnan
sI6
Fnan
sI7
Fnan
sI8
Fnan
sI9
Fnan
sI10
Fnan
sI11
Fnan
sI12
Fnan
sI13
Fnan
sI14
Fnan
ssg40
(dp291
I0
F0.3680257694704401
sI1
F0.3702216726318061
sI2
F0.36816339808275456
sI3
F0.373015859200806
sI4
F0.3661634452280003
sI5
F0.3635070789657214
sI6
F0.3618143434976017
sI7
F0.3643689729279123
sI8
F0.3664861547878707
sI9
F0.3655904476827832
sI10
F0.37074699658920757
sI11
F0.36420486503596755
sI12
F0.36758836705147485
sI13
F0.36308315586317047
sI14
F0.36490873728822737
ssg42
(dp292
I0
F0.00235211368694187
sI1
Fnan
sI2
Fnan
sI3
Fnan
sI4
Fnan
sI5
Fnan
sI6
Fnan
sI7
Fnan
sI8
Fnan
sI9
Fnan
sI10
Fnan
sI11
Fnan
sI12
Fnan
sI13
Fnan
sI14
Fnan
ssg44
(dp293
I0
F2.3176478
sI1
Fnan
sI2
Fnan
sI3
Fnan
sI4
Fnan
sI5
Fnan
sI6
Fnan
sI7
Fnan
sI8
Fnan
sI9
Fnan
sI10
Fnan
sI11
Fnan
sI12
Fnan
sI13
Fnan
sI14
Fnan
ssg46
(dp294
I0
g267
sI1
g268
sI2
g269
sI3
g270
sI4
g271
sI5
g272
sI6
g273
sI7
g274
sI8
g275
sI9
g276
sI10
g277
sI11
g278
sI12
g279
sI13
g280
sI14
g281
ssg48
(dp295
I0
F0.004909278403369425
sI1
Fnan
sI2
Fnan
sI3
Fnan
sI4
Fnan
sI5
Fnan
sI6
Fnan
sI7
Fnan
sI8
Fnan
sI9
Fnan
sI10
Fnan
sI11
Fnan
sI12
Fnan
sI13
Fnan
sI14
Fnan
ssg50
(dp296
I0
F0.2143238537487469
sI1
Fnan
sI2
Fnan
sI3
Fnan
sI4
Fnan
sI5
Fnan
sI6
Fnan
sI7
Fnan
sI8
Fnan
sI9
Fnan
sI10
Fnan
sI11
Fnan
sI12
Fnan
sI13
Fnan
sI14
Fnan
ssg52
(dp297
I0
F1.3245650866666665
sI1
Fnan
sI2
Fnan
sI3
Fnan
sI4
Fnan
sI5
Fnan
sI6
Fnan
sI7
Fnan
sI8
Fnan
sI9
Fnan
sI10
Fnan
sI11
Fnan
sI12
Fnan
sI13
Fnan
sI14
Fnan
ssg54
(dp298
I0
F1.51684211424822
sI1
F1.5046425700502903
sI2
F1.5082619198083413
sI3
F1.5127189336909213
sI4
F1.5024253623399595
sI5
F1.5232273454627379
sI6
F1.5154471730148324
sI7
F1.5143257312090497
sI8
F1.5192640540751976
sI9
F1.522927366104182
sI10
F1.5243254418061565
sI11
F1.515383767428094
sI12
F1.5407653657131275
sI13
F1.5159179278141284
sI14
F1.5161073620939107
ssg56
(dp299
I0
g267
sI1
g268
sI2
g269
sI3
g270
sI4
g271
sI5
g272
sI6
g273
sI7
g274
sI8
g275
sI9
g276
sI10
g277
sI11
g278
sI12
g279
sI13
g280
sI14
g281
ssg58
(dp300
I0
F2.589128
sI1
F1.496935
sI2
F2.246035
sI3
F1.919248
sI4
F1.439919
sI5
F3.134445
sI6
F4.12004
sI7
F1.923246
sI8
F2.544559
sI9
F3.143362
sI10
F4.412207
sI11
F1.447964
sI12
F3.429262
sI13
F1.94186
sI14
F2.170248
ssg60
(dp301
I0
F12.244133333333332
sI1
Fnan
sI2
Fnan
sI3
Fnan
sI4
Fnan
sI5
Fnan
sI6
Fnan
sI7
Fnan
sI8
Fnan
sI9
Fnan
sI10
Fnan
sI11
Fnan
sI12
Fnan
sI13
Fnan
sI14
Fnan
ssg62
(dp302
I0
F0.687837478065351
sI1
Fnan
sI2
Fnan
sI3
Fnan
sI4
Fnan
sI5
Fnan
sI6
Fnan
sI7
Fnan
sI8
Fnan
sI9
Fnan
sI10
Fnan
sI11
Fnan
sI12
Fnan
sI13
Fnan
sI14
Fnan
ssg64
(dp303
I0
F-2.684625
sI1
F-2.367446
sI2
F3.282977
sI3
F2.496406
sI4
F-3.150998
sI5
F3.828609
sI6
F-2.664026
sI7
F1.647891
sI8
F-2.697616
sI9
F-2.661175
sI10
F2.715433
sI11
F3.3832
sI12
F-2.733443
sI13
F-1.502063
sI14
F1.362819
ssg66
(dp304
I0
F12.593
sI1
Fnan
sI2
Fnan
sI3
Fnan
sI4
Fnan
sI5
Fnan
sI6
Fnan
sI7
Fnan
sI8
Fnan
sI9
Fnan
sI10
Fnan
sI11
Fnan
sI12
Fnan
sI13
Fnan
sI14
Fnan
ssg68
(dp305
I0
g267
sI1
g268
sI2
g269
sI3
g270
sI4
g271
sI5
g272
sI6
g273
sI7
g274
sI8
g275
sI9
g276
sI10
g277
sI11
g278
sI12
g279
sI13
g280
sI14
g281
ssg70
(dp306
I0
F2670.727
sI1
F2654.2636666666667
sI2
F2567.641
sI3
F2758.7283333333335
sI4
F2568.21
sI5
F2026.154
sI6
F1882.8053333333335
sI7
F2584.150666666667
sI8
F2732.2596666666664
sI9
F1592.276
sI10
F1662.4533333333334
sI11
F2532.1053333333334
sI12
F1772.0723333333333
sI13
F2606.316
sI14
F2571.3683333333333
ssg72
(dp307
I0
F1.174665
sI1
F1.243441
sI2
F1.179502
sI3
F1.169972
sI4
F1.249535
sI5
F1.124428
sI6
F1.1225370000000001
sI7
F1.1770909999999999
sI8
F1.172303
sI9
F1.116889
sI10
F1.118773
sI11
F1.2374129999999999
sI12
F1.120642
sI13
F1.240392
sI14
F1.246464
ssg74
(dp308
I0
F2171.6183333333333
sI1
F2170.7936666666665
sI2
F2106.777
sI3
F2256.603
sI4
F2075.3573333333334
sI5
F1666.7633333333333
sI6
F1566.24
sI7
F2129.0933333333332
sI8
F2231.692
sI9
F1300.9186666666667
sI10
F1365.5903333333333
sI11
F2076.2586666666666
sI12
F1428.3323333333333
sI13
F2134.6486666666665
sI14
F2098.3493333333336
ssg76
(dp309
I0
F3672.536666666667
sI1
F3629.9933333333333
sI2
F3525.1233333333334
sI3
F3793.3933333333334
sI4
F3488.3066666666664
sI5
F2812.576333333333
sI6
F2613.4230000000002
sI7
F3568.6933333333336
sI8
F3770.7766666666666
sI9
F2203.0626666666667
sI10
F2307.862
sI11
F3491.7200000000003
sI12
F2465.536333333333
sI13
F3593.4566666666665
sI14
F3539.8966666666665
ssg78
(dp310
I0
F2.472432
sI1
F1.695111
sI2
F1.945978
sI3
F2.243932
sI4
F2.122254
sI5
F2.713842
sI6
F3.33463
sI7
F1.861651
sI8
F2.368219
sI9
F3.922275
sI10
F4.29967
sI11
F1.312902
sI12
F4.492228
sI13
F1.177099
sI14
F2.394655
ssg80
(dp311
I0
F12.658
sI1
F12.658
sI2
F12.691
sI3
F12.616
sI4
F12.707
sI5
F12.945
sI6
F13.013
sI7
F12.68
sI8
F12.628
sI9
F13.214
sI10
F13.162
sI11
F12.707
sI12
F13.113
sI13
F12.677
sI14
F12.695
ssg82
(dp312
I0
F0.003
sI1
F0.003
sI2
F0.003
sI3
F0.003
sI4
F0.003
sI5
F0.004
sI6
F0.004
sI7
F0.003
sI8
F0.003
sI9
F0.005
sI10
F0.004
sI11
F0.003
sI12
F0.004
sI13
F0.003
sI14
F0.003
ssg84
(dp313
I0
F0.366525950953583
sI1
Fnan
sI2
Fnan
sI3
Fnan
sI4
Fnan
sI5
Fnan
sI6
Fnan
sI7
Fnan
sI8
Fnan
sI9
Fnan
sI10
Fnan
sI11
Fnan
sI12
Fnan
sI13
Fnan
sI14
Fnan
ssg86
(dp314
I0
F12.810933333333333
sI1
Fnan
sI2
Fnan
sI3
Fnan
sI4
Fnan
sI5
Fnan
sI6
Fnan
sI7
Fnan
sI8
Fnan
sI9
Fnan
sI10
Fnan
sI11
Fnan
sI12
Fnan
sI13
Fnan
sI14
Fnan
ssg88
(dp315
I0
F12.433
sI1
F12.44
sI2
F12.476
sI3
F12.398
sI4
F12.476
sI5
F12.733
sI6
F12.813
sI7
F12.469
sI8
F12.409
sI9
F12.995
sI10
F12.948
sI11
F12.491
sI12
F12.879
sI13
F12.46
sI14
F12.475
ssg90
(dp316
I0
F2.780679
sI1
F-3.259494
sI2
F3.111536
sI3
F2.308692
sI4
F-1.4114
sI5
F2.815162
sI6
F2.171793
sI7
F3.08596
sI8
F3.07245
sI9
F2.414514
sI10
F2.761798
sI11
F2.255916
sI12
F2.735013
sI13
F3.588414
sI14
F2.960793
ssg92
(dp317
I0
F0.2095610605414044
sI1
Fnan
sI2
Fnan
sI3
Fnan
sI4
Fnan
sI5
Fnan
sI6
Fnan
sI7
Fnan
sI8
Fnan
sI9
Fnan
sI10
Fnan
sI11
Fnan
sI12
Fnan
sI13
Fnan
sI14
Fnan
ssg94
(dp318
I0
F0.6847006359659967
sI1
F0.6908672470481926
sI2
F0.6915668766224504
sI3
F0.6888159636840281
sI4
F0.685330346651403
sI5
F0.6889259034963098
sI6
F0.6966905966000392
sI7
F0.6920680366130957
sI8
F0.6863538462981574
sI9
F0.6855349579694953
sI10
F0.6879001886164205
sI11
F0.6893488943570518
sI12
F0.6741218671599848
sI13
F0.6886215935444515
sI14
F0.6867152163531883
ssg96
(dp319
I0
F30.0
sI1
F30.0
sI2
F30.0
sI3
F30.0
sI4
F30.0
sI5
F30.0
sI6
F30.0
sI7
F30.0
sI8
F30.0
sI9
F30.0
sI10
F30.0
sI11
F30.0
sI12
F30.0
sI13
F30.0
sI14
F30.0
ssg98
(dp320
I0
F0.005
sI1
F0.005
sI2
F0.005
sI3
F0.005
sI4
F0.005
sI5
F0.006
sI6
F0.006
sI7
F0.005
sI8
F0.004
sI9
F0.006
sI10
F0.006
sI11
F0.005
sI12
F0.006
sI13
F0.005
sI14
F0.005
ssg100
(dp321
I0
F0.004
sI1
F0.004
sI2
F0.004
sI3
F0.004
sI4
F0.004
sI5
F0.005
sI6
F0.005
sI7
F0.004
sI8
F0.004
sI9
F0.006
sI10
F0.006
sI11
F0.004
sI12
F0.005
sI13
F0.004
sI14
F0.004
ssg102
(dp322
I0
F2.921903
sI1
F2.836463
sI2
F2.808977
sI3
F3.815769
sI4
F3.845416
sI5
F3.324196
sI6
F-0.9930963
sI7
F1.683876
sI8
F-0.7695025
sI9
F3.980902
sI10
F-2.732234
sI11
F4.046262
sI12
F-1.689021
sI13
F0.7990651
sI14
F-4.010499
ssg104
(dp323
I0
S"KIC8462852-20181127at020834_-35-1X1-030-z'_cal.fts.mag.1"
p324
sI1
S"KIC8462852-20181127at023544_-35-1X1-030-z'_cal.fts.mag.1"
p325
sI2
S"KIC8462852-20181127at021042_-35-1X1-030-z'_cal.fts.mag.1"
p326
sI3
S"KIC8462852-20181127at020625_-35-1X1-030-z'_cal.fts.mag.1"
p327
sI4
S"KIC8462852-20181127at023753_-35-1X1-030-z'_cal.fts.mag.1"
p328
sI5
S"KIC8462852-20181127at014340_-35-1X1-030-z'_cal.fts.mag.1"
p329
sI6
S"KIC8462852-20181127at014236_-35-1X1-030-z'_cal.fts.mag.1"
p330
sI7
S"KIC8462852-20181127at020937_-35-1X1-030-z'_cal.fts.mag.1"
p331
sI8
S"KIC8462852-20181127at020730_-35-1X1-030-z'_cal.fts.mag.1"
p332
sI9
S"KIC8462852-20181127at013923_-35-1X1-030-z'_cal.fts.mag.1"
p333
sI10
S"KIC8462852-20181127at014028_-35-1X1-030-z'_cal.fts.mag.1"
p334
sI11
S"KIC8462852-20181127at023335_-35-1X1-030-z'_cal.fts.mag.1"
p335
sI12
S"KIC8462852-20181127at014133_-35-1X1-030-z'_cal.fts.mag.1"
p336
sI13
S"KIC8462852-20181127at023440_-35-1X1-030-z'_cal.fts.mag.1"
p337
sI14
S"KIC8462852-20181127at023649_-35-1X1-030-z'_cal.fts.mag.1"
p338
ssg121
(dp339
I0
F0.009145959375510562
sI1
Fnan
sI2
Fnan
sI3
Fnan
sI4
Fnan
sI5
Fnan
sI6
Fnan
sI7
Fnan
sI8
Fnan
sI9
Fnan
sI10
Fnan
sI11
Fnan
sI12
Fnan
sI13
Fnan
sI14
Fnan
ssg123
(dp340
I0
F1044.5653333333332
sI1
F1043.4143333333334
sI2
F1006.257
sI3
F1095.2646666666667
sI4
F992.5316666666666
sI5
F788.2643333333333
sI6
F731.1626666666667
sI7
F1005.8936666666667
sI8
F1067.0523333333333
sI9
F621.0476666666667
sI10
F659.4236666666667
sI11
F983.3633333333333
sI12
F694.2446666666667
sI13
F1008.696
sI14
F998.5866666666666
ssg125
(dp341
I0
F0.21356011755363843
sI1
Fnan
sI2
Fnan
sI3
Fnan
sI4
Fnan
sI5
Fnan
sI6
Fnan
sI7
Fnan
sI8
Fnan
sI9
Fnan
sI10
Fnan
sI11
Fnan
sI12
Fnan
sI13
Fnan
sI14
Fnan
ssg127
(dp342
I0
S"z'"
p343
sI1
S"z'"
p344
sI2
S"z'"
p345
sI3
S"z'"
p346
sI4
S"z'"
p347
sI5
S"z'"
p348
sI6
S"z'"
p349
sI7
S"z'"
p350
sI8
S"z'"
p351
sI9
S"z'"
p352
sI10
S"z'"
p353
sI11
S"z'"
p354
sI12
S"z'"
p355
sI13
S"z'"
p356
sI14
S"z'"
p357
ssg144
(dp358
I0
F0.0031223058810272504
sI1
Fnan
sI2
Fnan
sI3
Fnan
sI4
Fnan
sI5
Fnan
sI6
Fnan
sI7
Fnan
sI8
Fnan
sI9
Fnan
sI10
Fnan
sI11
Fnan
sI12
Fnan
sI13
Fnan
sI14
Fnan
ssg146
(dp359
I0
F3.208417
sI1
F3.308496
sI2
F1.778352
sI3
F3.696126
sI4
F-2.131682
sI5
F4.152604
sI6
F2.162345
sI7
F2.944059
sI8
F3.295001
sI9
F3.654057
sI10
F-1.25601
sI11
F3.200874
sI12
F2.943563
sI13
F1.549437
sI14
F2.259078
ssg148
(dp360
I0
F1.5168388289906103
sI1
Fnan
sI2
Fnan
sI3
Fnan
sI4
Fnan
sI5
Fnan
sI6
Fnan
sI7
Fnan
sI8
Fnan
sI9
Fnan
sI10
Fnan
sI11
Fnan
sI12
Fnan
sI13
Fnan
sI14
Fnan
ssg150
(dp361
I0
F2458449.5892824074
sI1
Fnan
sI2
Fnan
sI3
Fnan
sI4
Fnan
sI5
Fnan
sI6
Fnan
sI7
Fnan
sI8
Fnan
sI9
Fnan
sI10
Fnan
sI11
Fnan
sI12
Fnan
sI13
Fnan
sI14
Fnan
ssg152
(dp362
I0
F0.0031223058810272504
sI1
Fnan
sI2
Fnan
sI3
Fnan
sI4
Fnan
sI5
Fnan
sI6
Fnan
sI7
Fnan
sI8
Fnan
sI9
Fnan
sI10
Fnan
sI11
Fnan
sI12
Fnan
sI13
Fnan
sI14
Fnan
ssg154
(dp363
I0
F2.900501
sI1
F2.118783
sI2
F1.467698
sI3
F2.473349
sI4
F2.472156
sI5
F3.404258
sI6
F3.595031
sI7
F2.655287
sI8
F2.864585
sI9
F4.259421
sI10
F3.080052
sI11
F2.578007
sI12
F3.089859
sI13
F0.9050667
sI14
F1.702547
ssg156
(dp364
I0
F12.088
sI1
F12.1
sI2
F12.132
sI3
F12.052
sI4
F12.143
sI5
F12.377
sI6
F12.457
sI7
F12.119
sI8
F12.059
sI9
F12.642
sI10
F12.592
sI11
F12.142
sI12
F12.52
sI13
F12.111
sI14
F12.128
ssg158
(dp365
I0
F0.366525950953583
sI1
Fnan
sI2
Fnan
sI3
Fnan
sI4
Fnan
sI5
Fnan
sI6
Fnan
sI7
Fnan
sI8
Fnan
sI9
Fnan
sI10
Fnan
sI11
Fnan
sI12
Fnan
sI13
Fnan
sI14
Fnan
sssS'g'
p366
(dp367
g3
(dp368
I0
F0.8696582527851459
sI1
Fnan
sI2
Fnan
sI3
Fnan
sI4
Fnan
sI5
Fnan
sI6
Fnan
sI7
Fnan
sI8
Fnan
sI9
Fnan
sI10
Fnan
sI11
Fnan
sI12
Fnan
sI13
Fnan
sI14
Fnan
ssg5
(dp369
I0
S'NoError'
p370
sI1
S'NoError'
p371
sI2
S'NoError'
p372
sI3
S'NoError'
p373
sI4
S'NoError'
p374
sI5
S'NoError'
p375
sI6
S'NoError'
p376
sI7
S'NoError'
p377
sI8
S'NoError'
p378
sI9
S'NoError'
p379
sI10
S'NoError'
p380
sI11
S'NoError'
p381
sI12
S'NoError'
p382
sI13
S'NoError'
p383
sI14
S'NoError'
p384
ssg22
(dp385
I0
F0.002
sI1
F0.003
sI2
F0.002
sI3
F0.004
sI4
F0.003
sI5
F0.003
sI6
F0.002
sI7
F0.003
sI8
F0.002
sI9
F0.002
sI10
F0.003
sI11
F0.003
sI12
F0.003
sI13
F0.004
sI14
F0.003
ssg24
(dp386
I0
F0.874994671544643
sI1
F0.881183314629717
sI2
F0.8733931241005932
sI3
F0.8706749982936117
sI4
F0.8813340540490523
sI5
F0.8683888952383204
sI6
F0.8782247727099871
sI7
F0.8725652006754496
sI8
F0.8759066203332443
sI9
F0.8743458836252195
sI10
F0.8753205918050263
sI11
F0.88477734752294
sI12
F0.876836891127462
sI13
F0.8803151142480133
sI14
F0.8763134917133826
ssg26
(dp387
I0
F0.0043460092709318296
sI1
Fnan
sI2
Fnan
sI3
Fnan
sI4
Fnan
sI5
Fnan
sI6
Fnan
sI7
Fnan
sI8
Fnan
sI9
Fnan
sI10
Fnan
sI11
Fnan
sI12
Fnan
sI13
Fnan
sI14
Fnan
ssg28
(dp388
I0
F0.8763049981077775
sI1
Fnan
sI2
Fnan
sI3
Fnan
sI4
Fnan
sI5
Fnan
sI6
Fnan
sI7
Fnan
sI8
Fnan
sI9
Fnan
sI10
Fnan
sI11
Fnan
sI12
Fnan
sI13
Fnan
sI14
Fnan
ssg30
(dp389
I0
F11.57
sI1
F12.069
sI2
F11.562
sI3
F12.173
sI4
F12.111
sI5
F11.702
sI6
F11.554
sI7
F11.703
sI8
F11.509
sI9
F11.52
sI10
F11.696
sI11
F12.007
sI12
F11.682
sI13
F12.15
sI14
F11.749
ssg32
(dp390
I0
F1.8945
sI1
F13.91314
sI2
F1.434883
sI3
F18.41242
sI4
F10.76202
sI5
F1.051428
sI6
F1.231995
sI7
F0.1734211
sI8
F0.7579942
sI9
F1.110318
sI10
F-0.4233261
sI11
F21.03585
sI12
F-0.4511418
sI13
F16.83275
sI14
F0.02171058
ssg34
(dp391
I0
F2458449.5767013887
sI1
F2458449.560023148
sI2
F2458449.5774537036
sI3
F2458449.558333333
sI4
F2458449.560763889
sI5
F2458449.595474537
sI6
F2458449.5781944445
sI7
F2458449.596203704
sI8
F2458449.579675926
sI9
F2458449.5789467595
sI10
F2458449.5969328703
sI11
F2458449.5575925927
sI12
F2458449.5976736112
sI13
F2458449.5591898146
sI14
F2458449.5984027777
ssg36
(dp392
I0
F1.4693337933333332
sI1
Fnan
sI2
Fnan
sI3
Fnan
sI4
Fnan
sI5
Fnan
sI6
Fnan
sI7
Fnan
sI8
Fnan
sI9
Fnan
sI10
Fnan
sI11
Fnan
sI12
Fnan
sI13
Fnan
sI14
Fnan
ssg38
(dp393
I0
F1.7488539333333335
sI1
Fnan
sI2
Fnan
sI3
Fnan
sI4
Fnan
sI5
Fnan
sI6
Fnan
sI7
Fnan
sI8
Fnan
sI9
Fnan
sI10
Fnan
sI11
Fnan
sI12
Fnan
sI13
Fnan
sI14
Fnan
ssg40
(dp394
I0
F0.8677387861188984
sI1
F0.8721992945948694
sI2
F0.8699223839549726
sI3
F0.8667528193408726
sI4
F0.8659284542123443
sI5
F0.8636575058315071
sI6
F0.8709113575402334
sI7
F0.8690808693579583
sI8
F0.872770577792374
sI9
F0.871267898229653
sI10
F0.8691091692201193
sI11
F0.8686733555210148
sI12
F0.8696074930058229
sI13
F0.8729984891227497
sI14
F0.868254590980159
ssg42
(dp395
I0
F0.0020898847828357977
sI1
Fnan
sI2
Fnan
sI3
Fnan
sI4
Fnan
sI5
Fnan
sI6
Fnan
sI7
Fnan
sI8
Fnan
sI9
Fnan
sI10
Fnan
sI11
Fnan
sI12
Fnan
sI13
Fnan
sI14
Fnan
ssg44
(dp396
I0
F1.15958526
sI1
Fnan
sI2
Fnan
sI3
Fnan
sI4
Fnan
sI5
Fnan
sI6
Fnan
sI7
Fnan
sI8
Fnan
sI9
Fnan
sI10
Fnan
sI11
Fnan
sI12
Fnan
sI13
Fnan
sI14
Fnan
ssg46
(dp397
I0
g370
sI1
g371
sI2
g372
sI3
g373
sI4
g374
sI5
g375
sI6
g376
sI7
g377
sI8
g378
sI9
g379
sI10
g380
sI11
g381
sI12
g382
sI13
g383
sI14
g384
ssg48
(dp398
I0
F0.0038958026184278904
sI1
Fnan
sI2
Fnan
sI3
Fnan
sI4
Fnan
sI5
Fnan
sI6
Fnan
sI7
Fnan
sI8
Fnan
sI9
Fnan
sI10
Fnan
sI11
Fnan
sI12
Fnan
sI13
Fnan
sI14
Fnan
ssg50
(dp399
I0
F0.2444396507466472
sI1
Fnan
sI2
Fnan
sI3
Fnan
sI4
Fnan
sI5
Fnan
sI6
Fnan
sI7
Fnan
sI8
Fnan
sI9
Fnan
sI10
Fnan
sI11
Fnan
sI12
Fnan
sI13
Fnan
sI14
Fnan
ssg52
(dp400
I0
F2.8230691
sI1
Fnan
sI2
Fnan
sI3
Fnan
sI4
Fnan
sI5
Fnan
sI6
Fnan
sI7
Fnan
sI8
Fnan
sI9
Fnan
sI10
Fnan
sI11
Fnan
sI12
Fnan
sI13
Fnan
sI14
Fnan
ssg54
(dp401
I0
F1.5233237779253141
sI1
F1.5146601803172308
sI2
F1.5250498871358924
sI3
F1.527105881203838
sI4
F1.5280043091178346
sI5
F1.5319173853489112
sI6
F1.5174590741844878
sI7
F1.5185700983687005
sI8
F1.516415633937083
sI9
F1.5269192756501093
sI10
F1.5210358535647808
sI11
F1.5155990246908386
sI12
F1.520692389183268
sI13
F1.5310276008519836
sI14
F1.5263887282947888
ssg56
(dp402
I0
g370
sI1
g371
sI2
g372
sI3
g373
sI4
g374
sI5
g375
sI6
g376
sI7
g377
sI8
g378
sI9
g379
sI10
g380
sI11
g381
sI12
g382
sI13
g383
sI14
g384
ssg58
(dp403
I0
F1.227542
sI1
F12.21968
sI2
F1.359261
sI3
F18.71722
sI4
F10.24009
sI5
F0.04194297
sI6
F0.7442625
sI7
F-0.4897737
sI8
F1.16529
sI9
F1.390826
sI10
F0.4564812
sI11
F21.08752
sI12
F0.07757728
sI13
F16.13239
sI14
F0.3470619
ssg60
(dp404
I0
F11.349266666666667
sI1
Fnan
sI2
Fnan
sI3
Fnan
sI4
Fnan
sI5
Fnan
sI6
Fnan
sI7
Fnan
sI8
Fnan
sI9
Fnan
sI10
Fnan
sI11
Fnan
sI12
Fnan
sI13
Fnan
sI14
Fnan
ssg62
(dp405
I0
F0.713879919294944
sI1
Fnan
sI2
Fnan
sI3
Fnan
sI4
Fnan
sI5
Fnan
sI6
Fnan
sI7
Fnan
sI8
Fnan
sI9
Fnan
sI10
Fnan
sI11
Fnan
sI12
Fnan
sI13
Fnan
sI14
Fnan
ssg64
(dp406
I0
F2.701849
sI1
F4.453377
sI2
F3.085046
sI3
F-2.848833
sI4
F2.011368
sI5
F-3.032831
sI6
F3.14491
sI7
F3.563007
sI8
F2.723389
sI9
F-1.094915
sI10
F3.955649
sI11
F4.120286
sI12
F4.014777
sI13
F-2.793258
sI14
F2.228988
ssg66
(dp407
I0
F11.729199999999999
sI1
Fnan
sI2
Fnan
sI3
Fnan
sI4
Fnan
sI5
Fnan
sI6
Fnan
sI7
Fnan
sI8
Fnan
sI9
Fnan
sI10
Fnan
sI11
Fnan
sI12
Fnan
sI13
Fnan
sI14
Fnan
ssg68
(dp408
I0
g370
sI1
g371
sI2
g372
sI3
g373
sI4
g374
sI5
g375
sI6
g376
sI7
g377
sI8
g378
sI9
g379
sI10
g380
sI11
g381
sI12
g382
sI13
g383
sI14
g384
ssg70
(dp409
I0
F6226.36
sI1
F3928.7
sI2
F6248.2733333333335
sI3
F3563.2066666666665
sI4
F3809.8866666666668
sI5
F5508.6466666666665
sI6
F6312.316666666667
sI7
F5488.55
sI8
F6553.533333333334
sI9
F6489.593333333333
sI10
F5535.17
sI11
F4187.826666666667
sI12
F5609.9366666666665
sI13
F3641.3766666666666
sI14
F5280.736666666667
ssg72
(dp410
I0
F1.137063
sI1
F1.095768
sI2
F1.139142
sI3
F1.0920729999999998
sI4
F1.097417
sI5
F1.195516
sI6
F1.1412280000000001
sI7
F1.19808
sI8
F1.145394
sI9
F1.143309
sI10
F1.200664
sI11
F1.0905
sI12
F1.203276
sI13
F1.093947
sI14
F1.2059360000000001
ssg74
(dp411
I0
F5386.61
sI1
F3381.01
sI2
F5414.72
sI3
F3098.4226666666664
sI4
F3251.11
sI5
F4794.933333333333
sI6
F5450.429999999999
sI7
F4781.993333333333
sI8
F5684.8
sI9
F5608.243333333333
sI10
F4792.673333333334
sI11
F3579.9666666666667
sI12
F4845.84
sI13
F3106.953666666667
sI14
F4549.66
ssg76
(dp412
I0
F8845.156666666668
sI1
F5535.863333333333
sI2
F8893.323333333334
sI3
F5086.506666666667
sI4
F5394.616666666667
sI5
F7892.116666666667
sI6
F8924.743333333334
sI7
F7798.27
sI8
F9279.2
sI9
F9236.21
sI10
F7854.509999999999
sI11
F5886.429999999999
sI12
F7950.009999999999
sI13
F5165.9400000000005
sI14
F7502.503333333333
ssg78
(dp413
I0
F0.5969183
sI1
F13.68442
sI2
F0.3757456
sI3
F19.2347
sI4
F11.21896
sI5
F0.264316
sI6
F1.039589
sI7
F0.0377455
sI8
F1.713628
sI9
F0.5741183
sI10
F-0.2594565
sI11
F21.39764
sI12
F-0.2419123
sI13
F16.72626
sI14
F0.9574849
ssg80
(dp414
I0
F11.672
sI1
F12.177
sI2
F11.666
sI3
F12.272
sI4
F12.22
sI5
F11.798
sI6
F11.659
sI7
F11.801
sI8
F11.613
sI9
F11.628
sI10
F11.799
sI11
F12.115
sI12
F11.787
sI13
F12.269
sI14
F11.855
ssg82
(dp415
I0
F0.002
sI1
F0.003
sI2
F0.002
sI3
F0.003
sI4
F0.003
sI5
F0.002
sI6
F0.002
sI7
F0.002
sI8
F0.002
sI9
F0.002
sI10
F0.002
sI11
F0.003
sI12
F0.002
sI13
F0.003
sI14
F0.002
ssg84
(dp416
I0
F0.8692582029882366
sI1
Fnan
sI2
Fnan
sI3
Fnan
sI4
Fnan
sI5
Fnan
sI6
Fnan
sI7
Fnan
sI8
Fnan
sI9
Fnan
sI10
Fnan
sI11
Fnan
sI12
Fnan
sI13
Fnan
sI14
Fnan
ssg86
(dp417
I0
F11.888733333333334
sI1
Fnan
sI2
Fnan
sI3
Fnan
sI4
Fnan
sI5
Fnan
sI6
Fnan
sI7
Fnan
sI8
Fnan
sI9
Fnan
sI10
Fnan
sI11
Fnan
sI12
Fnan
sI13
Fnan
sI14
Fnan
ssg88
(dp418
I0
F11.514
sI1
F12.014
sI2
F11.511
sI3
F12.12
sI4
F12.048
sI5
F11.647
sI6
F11.5
sI7
F11.651
sI8
F11.459
sI9
F11.469
sI10
F11.642
sI11
F11.945
sI12
F11.628
sI13
F12.097
sI14
F11.693
ssg90
(dp419
I0
F-2.746866
sI1
F2.709622
sI2
F3.856707
sI3
F2.949096
sI4
F0.1824859
sI5
F-2.412173
sI6
F3.300709
sI7
F3.274649
sI8
F3.080935
sI9
F2.682511
sI10
F1.98547
sI11
F1.980489
sI12
F-3.907987
sI13
F3.517556
sI14
F1.586803
ssg92
(dp420
I0
F0.24565000266542597
sI1
Fnan
sI2
Fnan
sI3
Fnan
sI4
Fnan
sI5
Fnan
sI6
Fnan
sI7
Fnan
sI8
Fnan
sI9
Fnan
sI10
Fnan
sI11
Fnan
sI12
Fnan
sI13
Fnan
sI14
Fnan
ssg94
(dp421
I0
F0.7148066275126037
sI1
F0.7144566275112536
sI2
F0.7152112315764145
sI3
F0.7164220471275734
sI4
F0.7064172573497538
sI5
F0.7156209260716243
sI6
F0.7154175411792038
sI7
F0.7198100573851882
sI8
F0.7181072124838415
sI9
F0.7132536525426045
sI10
F0.7158757092526982
sI11
F0.7107157947468085
sI12
F0.7147284748415923
sI13
F0.7055392202316634
sI14
F0.7118164096113349
ssg96
(dp422
I0
F30.0
sI1
F30.0
sI2
F30.0
sI3
F30.0
sI4
F30.0
sI5
F30.0
sI6
F30.0
sI7
F30.0
sI8
F30.0
sI9
F30.0
sI10
F30.0
sI11
F30.0
sI12
F30.0
sI13
F30.0
sI14
F30.0
ssg98
(dp423
I0
F0.003
sI1
F0.004
sI2
F0.003
sI3
F0.004
sI4
F0.004
sI5
F0.003
sI6
F0.003
sI7
F0.003
sI8
F0.003
sI9
F0.003
sI10
F0.003
sI11
F0.003
sI12
F0.003
sI13
F0.004
sI14
F0.003
ssg100
(dp424
I0
F0.002
sI1
F0.003
sI2
F0.002
sI3
F0.003
sI4
F0.003
sI5
F0.003
sI6
F0.002
sI7
F0.003
sI8
F0.002
sI9
F0.002
sI10
F0.003
sI11
F0.003
sI12
F0.003
sI13
F0.003
sI14
F0.003
ssg102
(dp425
I0
F2.948658
sI1
F4.434403
sI2
F2.144964
sI3
F4.005283
sI4
F3.170547
sI5
F3.180626
sI6
F2.791342
sI7
F3.639234
sI8
F4.496396
sI9
F-0.9861075
sI10
F2.195775
sI11
F3.387985
sI12
F1.615108
sI13
F1.783275
sI14
F3.538548
ssg104
(dp426
I0
S"KIC8462852-20181127at015022_-35-1X1-030-g'_cal.fts.mag.1"
p427
sI1
S"KIC8462852-20181127at012626_-35-1X1-030-g'_cal.fts.mag.1"
p428
sI2
S"KIC8462852-20181127at015132_-35-1X1-030-g'_cal.fts.mag.1"
p429
sI3
S"KIC8462852-20181127at012400_-35-1X1-030-g'_cal.fts.mag.1"
p430
sI4
S"KIC8462852-20181127at012730_-35-1X1-030-g'_cal.fts.mag.1"
p431
sI5
S"KIC8462852-20181127at021725_-35-1X1-030-g'_cal.fts.mag.1"
p432
sI6
S"KIC8462852-20181127at015236_-35-1X1-030-g'_cal.fts.mag.1"
p433
sI7
S"KIC8462852-20181127at021832_-35-1X1-030-g'_cal.fts.mag.1"
p434
sI8
S"KIC8462852-20181127at015444_-35-1X1-030-g'_cal.fts.mag.1"
p435
sI9
S"KIC8462852-20181127at015341_-35-1X1-030-g'_cal.fts.mag.1"
p436
sI10
S"KIC8462852-20181127at021935_-35-1X1-030-g'_cal.fts.mag.1"
p437
sI11
S"KIC8462852-20181127at012245_-35-1X1-030-g'_cal.fts.mag.1"
p438
sI12
S"KIC8462852-20181127at022039_-35-1X1-030-g'_cal.fts.mag.1"
p439
sI13
S"KIC8462852-20181127at012514_-35-1X1-030-g'_cal.fts.mag.1"
p440
sI14
S"KIC8462852-20181127at022142_-35-1X1-030-g'_cal.fts.mag.1"
p441
ssg121
(dp442
I0
F0.005632547519476094
sI1
Fnan
sI2
Fnan
sI3
Fnan
sI4
Fnan
sI5
Fnan
sI6
Fnan
sI7
Fnan
sI8
Fnan
sI9
Fnan
sI10
Fnan
sI11
Fnan
sI12
Fnan
sI13
Fnan
sI14
Fnan
ssg123
(dp443
I0
F5917.4366666666665
sI1
F3734.633333333333
sI2
F5960.8
sI3
F3394.2433333333333
sI4
F3595.2233333333334
sI5
F5238.283333333334
sI6
F6005.656666666667
sI7
F5234.42
sI8
F6259.956666666667
sI9
F6195.89
sI10
F5267.483333333334
sI11
F3953.686666666667
sI12
F5335.27
sI13
F3467.0466666666666
sI14
F5016.456666666667
ssg125
(dp444
I0
F0.24847663490806957
sI1
Fnan
sI2
Fnan
sI3
Fnan
sI4
Fnan
sI5
Fnan
sI6
Fnan
sI7
Fnan
sI8
Fnan
sI9
Fnan
sI10
Fnan
sI11
Fnan
sI12
Fnan
sI13
Fnan
sI14
Fnan
ssg127
(dp445
I0
S"g'"
p446
sI1
S"g'"
p447
sI2
S"g'"
p448
sI3
S"g'"
p449
sI4
S"g'"
p450
sI5
S"g'"
p451
sI6
S"g'"
p452
sI7
S"g'"
p453
sI8
S"g'"
p454
sI9
S"g'"
p455
sI10
S"g'"
p456
sI11
S"g'"
p457
sI12
S"g'"
p458
sI13
S"g'"
p459
sI14
S"g'"
p460
ssg144
(dp461
I0
F0.002601579521297699
sI1
Fnan
sI2
Fnan
sI3
Fnan
sI4
Fnan
sI5
Fnan
sI6
Fnan
sI7
Fnan
sI8
Fnan
sI9
Fnan
sI10
Fnan
sI11
Fnan
sI12
Fnan
sI13
Fnan
sI14
Fnan
ssg146
(dp462
I0
F1.393446
sI1
F-2.613936
sI2
F-2.438492
sI3
F3.452891
sI4
F-1.49647
sI5
F-3.747626
sI6
F2.409293
sI7
F3.55262
sI8
F3.581288
sI9
F2.087469
sI10
F2.781882
sI11
F4.082168
sI12
F-0.7646401
sI13
F2.400294
sI14
F2.713592
ssg148
(dp463
I0
F1.5229446066516705
sI1
Fnan
sI2
Fnan
sI3
Fnan
sI4
Fnan
sI5
Fnan
sI6
Fnan
sI7
Fnan
sI8
Fnan
sI9
Fnan
sI10
Fnan
sI11
Fnan
sI12
Fnan
sI13
Fnan
sI14
Fnan
ssg150
(dp464
I0
F2458449.5781944445
sI1
Fnan
sI2
Fnan
sI3
Fnan
sI4
Fnan
sI5
Fnan
sI6
Fnan
sI7
Fnan
sI8
Fnan
sI9
Fnan
sI10
Fnan
sI11
Fnan
sI12
Fnan
sI13
Fnan
sI14
Fnan
ssg152
(dp465
I0
F0.002601579521297699
sI1
Fnan
sI2
Fnan
sI3
Fnan
sI4
Fnan
sI5
Fnan
sI6
Fnan
sI7
Fnan
sI8
Fnan
sI9
Fnan
sI10
Fnan
sI11
Fnan
sI12
Fnan
sI13
Fnan
sI14
Fnan
ssg154
(dp466
I0
F1.398082
sI1
F14.26436
sI2
F1.435984
sI3
F19.14052
sI4
F11.50379
sI5
F0.4129042
sI6
F0.7339408
sI7
F0.5184394
sI8
F2.415102
sI9
F2.369466
sI10
F0.8217486
sI11
F22.8427
sI12
F1.135575
sI13
F16.47954
sI14
F0.8015091
ssg156
(dp467
I0
F11.133
sI1
F11.642
sI2
F11.127
sI3
F11.734
sI4
F11.67
sI5
F11.257
sI6
F11.124
sI7
F11.27
sI8
F11.081
sI9
F11.086
sI10
F11.262
sI11
F11.575
sI12
F11.249
sI13
F11.717
sI14
F11.312
ssg158
(dp468
I0
F0.8692582029882366
sI1
Fnan
sI2
Fnan
sI3
Fnan
sI4
Fnan
sI5
Fnan
sI6
Fnan
sI7
Fnan
sI8
Fnan
sI9
Fnan
sI10
Fnan
sI11
Fnan
sI12
Fnan
sI13
Fnan
sI14
Fnan
sssS'V'
p469
(dp470
g3
(dp471
I0
F0.6915519089510399
sI1
Fnan
sI2
Fnan
sI3
Fnan
sI4
Fnan
sI5
Fnan
sI6
Fnan
sI7
Fnan
sI8
Fnan
sI9
Fnan
sI10
Fnan
sI11
Fnan
sI12
Fnan
sI13
Fnan
sI14
Fnan
ssg5
(dp472
I0
S'NoError'
p473
sI1
S'NoError'
p474
sI2
S'NoError'
p475
sI3
S'NoError'
p476
sI4
S'NoError'
p477
sI5
S'NoError'
p478
sI6
S'NoError'
p479
sI7
S'NoError'
p480
sI8
S'NoError'
p481
sI9
S'NoError'
p482
sI10
S'NoError'
p483
sI11
S'NoError'
p484
sI12
S'NoError'
p485
sI13
S'NoError'
p486
sI14
S'NoError'
p487
ssg22
(dp488
I0
F0.003
sI1
F0.003
sI2
F0.003
sI3
F0.003
sI4
F0.003
sI5
F0.003
sI6
F0.003
sI7
F0.003
sI8
F0.003
sI9
F0.003
sI10
F0.003
sI11
F0.003
sI12
F0.003
sI13
F0.003
sI14
F0.003
ssg24
(dp489
I0
F0.8844522081909503
sI1
F0.8805585087253872
sI2
F0.8861419068518284
sI3
F0.877082753476127
sI4
F0.8828066120366044
sI5
F0.8803613517964737
sI6
F0.8914871493983765
sI7
F0.8799028922343446
sI8
F0.8817616202946162
sI9
F0.8846038432174788
sI10
F0.8846783829608692
sI11
F0.8823408093919434
sI12
F0.8785379748194627
sI13
F0.8831258085554522
sI14
F0.877916550838309
ssg26
(dp490
I0
F0.0036743252441485
sI1
Fnan
sI2
Fnan
sI3
Fnan
sI4
Fnan
sI5
Fnan
sI6
Fnan
sI7
Fnan
sI8
Fnan
sI9
Fnan
sI10
Fnan
sI11
Fnan
sI12
Fnan
sI13
Fnan
sI14
Fnan
ssg28
(dp491
I0
F0.8823838915192148
sI1
Fnan
sI2
Fnan
sI3
Fnan
sI4
Fnan
sI5
Fnan
sI6
Fnan
sI7
Fnan
sI8
Fnan
sI9
Fnan
sI10
Fnan
sI11
Fnan
sI12
Fnan
sI13
Fnan
sI14
Fnan
ssg30
(dp492
I0
F11.749
sI1
F11.728
sI2
F11.612
sI3
F11.689
sI4
F11.704
sI5
F11.75
sI6
F11.662
sI7
F11.63
sI8
F11.695
sI9
F11.624
sI10
F11.656
sI11
F11.664
sI12
F11.617
sI13
F11.717
sI14
F11.728
ssg32
(dp493
I0
F1.531775
sI1
F0.177515
sI2
F1.345429
sI3
F3.148454
sI4
F1.06621
sI5
F2.454038
sI6
F2.487194
sI7
F1.858542
sI8
F2.563892
sI9
F2.433876
sI10
F1.524501
sI11
F0.5325998
sI12
F0.8859012
sI13
F1.226416
sI14
F2.568068
ssg34
(dp494
I0
F2458449.613611111
sI1
F2458449.6128703705
sI2
F2458449.5915740742
sI3
F2458449.57431713
sI4
F2458449.6121064816
sI5
F2458449.5728125
sI6
F2458449.5750694443
sI7
F2458449.5930787036
sI8
F2458449.573553241
sI9
F2458449.575821759
sI10
F2458449.610474537
sI11
F2458449.6113541666
sI12
F2458449.5923263887
sI13
F2458449.5938310185
sI14
F2458449.5945833335
ssg36
(dp495
I0
F0.8491408
sI1
Fnan
sI2
Fnan
sI3
Fnan
sI4
Fnan
sI5
Fnan
sI6
Fnan
sI7
Fnan
sI8
Fnan
sI9
Fnan
sI10
Fnan
sI11
Fnan
sI12
Fnan
sI13
Fnan
sI14
Fnan
ssg38
(dp496
I0
F1.3300383666666669
sI1
Fnan
sI2
Fnan
sI3
Fnan
sI4
Fnan
sI5
Fnan
sI6
Fnan
sI7
Fnan
sI8
Fnan
sI9
Fnan
sI10
Fnan
sI11
Fnan
sI12
Fnan
sI13
Fnan
sI14
Fnan
ssg40
(dp497
I0
F0.6959459209443022
sI1
F0.6987136499790987
sI2
F0.6976837006320126
sI3
F0.690220005200002
sI4
F0.6916555862788942
sI5
F0.6899361063649108
sI6
F0.6874680395317003
sI7
F0.6918022985734191
sI8
F0.6917810706365307
sI9
F0.6900477133910189
sI10
F0.691042303415322
sI11
F0.6935445202924367
sI12
F0.6913869302645954
sI13
F0.689910363224076
sI14
F0.6913500888269702
ssg42
(dp498
I0
F0.001660158370245766
sI1
Fnan
sI2
Fnan
sI3
Fnan
sI4
Fnan
sI5
Fnan
sI6
Fnan
sI7
Fnan
sI8
Fnan
sI9
Fnan
sI10
Fnan
sI11
Fnan
sI12
Fnan
sI13
Fnan
sI14
Fnan
ssg44
(dp499
I0
F2.327820266666667
sI1
Fnan
sI2
Fnan
sI3
Fnan
sI4
Fnan
sI5
Fnan
sI6
Fnan
sI7
Fnan
sI8
Fnan
sI9
Fnan
sI10
Fnan
sI11
Fnan
sI12
Fnan
sI13
Fnan
sI14
Fnan
ssg46
(dp500
I0
g473
sI1
g474
sI2
g475
sI3
g476
sI4
g477
sI5
g478
sI6
g479
sI7
g480
sI8
g481
sI9
g482
sI10
g483
sI11
g484
sI12
g485
sI13
g486
sI14
g487
ssg48
(dp501
I0
F0.002549323012756946
sI1
Fnan
sI2
Fnan
sI3
Fnan
sI4
Fnan
sI5
Fnan
sI6
Fnan
sI7
Fnan
sI8
Fnan
sI9
Fnan
sI10
Fnan
sI11
Fnan
sI12
Fnan
sI13
Fnan
sI14
Fnan
ssg50
(dp502
I0
F0.04917238869044112
sI1
Fnan
sI2
Fnan
sI3
Fnan
sI4
Fnan
sI5
Fnan
sI6
Fnan
sI7
Fnan
sI8
Fnan
sI9
Fnan
sI10
Fnan
sI11
Fnan
sI12
Fnan
sI13
Fnan
sI14
Fnan
ssg52
(dp503
I0
F0.6144755333333334
sI1
Fnan
sI2
Fnan
sI3
Fnan
sI4
Fnan
sI5
Fnan
sI6
Fnan
sI7
Fnan
sI8
Fnan
sI9
Fnan
sI10
Fnan
sI11
Fnan
sI12
Fnan
sI13
Fnan
sI14
Fnan
ssg54
(dp504
I0
F1.513419230565056
sI1
F1.5071542113438887
sI2
F1.5071135406090277
sI3
F1.5150120591546647
sI4
F1.5127396393317716
sI5
F1.5142166952390679
sI6
F1.5031775517824393
sI7
F1.5081395149987369
sI8
F1.5138025826244854
sI9
F1.508566396835743
sI10
F1.5132281062079724
sI11
F1.51052586285385
sI12
F1.5138523867400682
sI13
F1.5119518420378835
sI14
F1.5117709464816937
ssg56
(dp505
I0
g473
sI1
g474
sI2
g475
sI3
g476
sI4
g477
sI5
g478
sI6
g479
sI7
g480
sI8
g481
sI9
g482
sI10
g483
sI11
g484
sI12
g485
sI13
g486
sI14
g487
ssg58
(dp506
I0
F1.42964
sI1
F1.15518
sI2
F1.724972
sI3
F2.991935
sI4
F1.244373
sI5
F3.233174
sI6
F2.332906
sI7
F2.006069
sI8
F2.615945
sI9
F2.227689
sI10
F1.021441
sI11
F1.915661
sI12
F1.842617
sI13
F2.377423
sI14
F3.227264
ssg60
(dp507
I0
F11.004866666666667
sI1
Fnan
sI2
Fnan
sI3
Fnan
sI4
Fnan
sI5
Fnan
sI6
Fnan
sI7
Fnan
sI8
Fnan
sI9
Fnan
sI10
Fnan
sI11
Fnan
sI12
Fnan
sI13
Fnan
sI14
Fnan
ssg62
(dp508
I0
F0.715598505428286
sI1
Fnan
sI2
Fnan
sI3
Fnan
sI4
Fnan
sI5
Fnan
sI6
Fnan
sI7
Fnan
sI8
Fnan
sI9
Fnan
sI10
Fnan
sI11
Fnan
sI12
Fnan
sI13
Fnan
sI14
Fnan
ssg64
(dp509
I0
F3.047468
sI1
F-1.757331
sI2
F2.770809
sI3
F2.590091
sI4
F2.797985
sI5
F3.727233
sI6
F-3.740241
sI7
F-2.750085
sI8
F2.959924
sI9
F0.7045885
sI10
F3.027445
sI11
F3.584359
sI12
F3.31182
sI13
F-2.810444
sI14
F2.486954
ssg66
(dp510
I0
F11.374733333333335
sI1
Fnan
sI2
Fnan
sI3
Fnan
sI4
Fnan
sI5
Fnan
sI6
Fnan
sI7
Fnan
sI8
Fnan
sI9
Fnan
sI10
Fnan
sI11
Fnan
sI12
Fnan
sI13
Fnan
sI14
Fnan
ssg68
(dp511
I0
g473
sI1
g474
sI2
g475
sI3
g476
sI4
g477
sI5
g478
sI6
g479
sI7
g480
sI8
g481
sI9
g482
sI10
g483
sI11
g484
sI12
g485
sI13
g486
sI14
g487
ssg70
(dp512
I0
F6629.346666666666
sI1
F6713.056666666667
sI2
F7515.6900000000005
sI3
F7027.213333333333
sI4
F6946.166666666667
sI5
F6662.1433333333325
sI6
F7313.4366666666665
sI7
F7416.8099999999995
sI8
F6993.746666666667
sI9
F7502.48
sI10
F7274.3933333333325
sI11
F7180.2733333333335
sI12
F7500.093333333333
sI13
F6883.303333333333
sI14
F6768.88
ssg72
(dp513
I0
F1.266405
sI1
F1.263155
sI2
F1.182213
sI3
F1.130543
sI4
F1.259929
sI5
F1.126565
sI6
F1.13259
sI7
F1.187266
sI8
F1.12855
sI9
F1.134635
sI10
F1.252995
sI11
F1.2567059999999999
sI12
F1.184735
sI13
F1.189832
sI14
F1.192451
ssg74
(dp514
I0
F5677.866666666667
sI1
F5810.1033333333335
sI2
F6443.6033333333335
sI3
F6088.6866666666665
sI4
F5968.38
sI5
F5742.990000000001
sI6
F6228.96
sI7
F6422.466666666666
sI8
F6016.016666666666
sI9
F6443.29
sI10
F6228.673333333334
sI11
F6182.843333333333
sI12
F6486.906666666667
sI13
F5914.026666666667
sI14
F5868.166666666667
ssg76
(dp515
I0
F9312.986666666666
sI1
F9437.166666666666
sI2
F10519.119999999999
sI3
F9935.373333333333
sI4
F9768.173333333334
sI5
F9392.03
sI6
F10178.313333333334
sI7
F10435.78
sI8
F9847.106666666667
sI9
F10519.06
sI10
F10216.609999999999
sI11
F10092.666666666666
sI12
F10587.126666666667
sI13
F9674.473333333333
sI14
F9552.16
ssg78
(dp516
I0
F1.241728
sI1
F0.7998129
sI2
F2.270876
sI3
F2.433567
sI4
F1.091522
sI5
F2.228349
sI6
F3.005867
sI7
F1.083662
sI8
F3.598541
sI9
F2.049845
sI10
F1.332707
sI11
F1.981824
sI12
F1.320626
sI13
F2.387573
sI14
F1.125268
ssg80
(dp517
I0
F11.615
sI1
F11.59
sI2
F11.477
sI3
F11.539
sI4
F11.56
sI5
F11.602
sI6
F11.514
sI7
F11.481
sI8
F11.552
sI9
F11.477
sI10
F11.514
sI11
F11.522
sI12
F11.47
sI13
F11.57
sI14
F11.579
ssg82
(dp518
I0
F0.002
sI1
F0.002
sI2
F0.002
sI3
F0.002
sI4
F0.002
sI5
F0.002
sI6
F0.002
sI7
F0.002
sI8
F0.002
sI9
F0.002
sI10
F0.002
sI11
F0.002
sI12
F0.002
sI13
F0.002
sI14
F0.002
ssg84
(dp519
I0
F0.692165886503686
sI1
Fnan
sI2
Fnan
sI3
Fnan
sI4
Fnan
sI5
Fnan
sI6
Fnan
sI7
Fnan
sI8
Fnan
sI9
Fnan
sI10
Fnan
sI11
Fnan
sI12
Fnan
sI13
Fnan
sI14
Fnan
ssg86
(dp520
I0
F11.537466666666665
sI1
Fnan
sI2
Fnan
sI3
Fnan
sI4
Fnan
sI5
Fnan
sI6
Fnan
sI7
Fnan
sI8
Fnan
sI9
Fnan
sI10
Fnan
sI11
Fnan
sI12
Fnan
sI13
Fnan
sI14
Fnan
ssg88
(dp521
I0
F11.446
sI1
F11.433
sI2
F11.31
sI3
F11.383
sI4
F11.396
sI5
F11.441
sI6
F11.34
sI7
F11.324
sI8
F11.388
sI9
F11.312
sI10
F11.346
sI11
F11.36
sI12
F11.312
sI13
F11.406
sI14
F11.424
ssg90
(dp522
I0
F4.612203
sI1
F1.631856
sI2
F1.213374
sI3
F3.46344
sI4
F3.721284
sI5
F-3.510562
sI6
F-3.348495
sI7
F3.587727
sI8
F-3.312469
sI9
F-2.485074
sI10
F1.9703
sI11
F-2.391287
sI12
F3.674247
sI13
F1.907579
sI14
F2.002989
ssg92
(dp523
I0
F0.047753633618914396
sI1
Fnan
sI2
Fnan
sI3
Fnan
sI4
Fnan
sI5
Fnan
sI6
Fnan
sI7
Fnan
sI8
Fnan
sI9
Fnan
sI10
Fnan
sI11
Fnan
sI12
Fnan
sI13
Fnan
sI14
Fnan
ssg94
(dp524
I0
F0.7123005833524997
sI1
F0.7195074908148845
sI2
F0.7145740191699645
sI3
F0.7178960127150419
sI4
F0.7141628087019888
sI5
F0.715451350967516
sI6
F0.7122169022539198
sI7
F0.719499710312808
sI8
F0.7144550869948
sI9
F0.7150654161631026
sI10
F0.7122145270492394
sI11
F0.7158993585728121
sI12
F0.7172917304778365
sI13
F0.7143503364884135
sI14
F0.7190922473894638
ssg96
(dp525
I0
F30.0
sI1
F30.0
sI2
F30.0
sI3
F30.0
sI4
F30.0
sI5
F30.0
sI6
F30.0
sI7
F30.0
sI8
F30.0
sI9
F30.0
sI10
F30.0
sI11
F30.0
sI12
F30.0
sI13
F30.0
sI14
F30.0
ssg98
(dp526
I0
F0.003
sI1
F0.003
sI2
F0.002
sI3
F0.002
sI4
F0.002
sI5
F0.003
sI6
F0.002
sI7
F0.002
sI8
F0.002
sI9
F0.002
sI10
F0.002
sI11
F0.002
sI12
F0.002
sI13
F0.002
sI14
F0.002
ssg100
(dp527
I0
F0.002
sI1
F0.002
sI2
F0.002
sI3
F0.002
sI4
F0.002
sI5
F0.002
sI6
F0.002
sI7
F0.002
sI8
F0.002
sI9
F0.002
sI10
F0.002
sI11
F0.002
sI12
F0.002
sI13
F0.002
sI14
F0.002
ssg102
(dp528
I0
F3.335838
sI1
F-1.10702
sI2
F-1.582809
sI3
F2.143225
sI4
F1.803344
sI5
F3.544358
sI6
F-2.094512
sI7
F4.533933
sI8
F3.766278
sI9
F2.541631
sI10
F3.166552
sI11
F-2.740368
sI12
F-1.24524
sI13
F-2.312051
sI14
F-4.536026
ssg104
(dp529
I0
S'KIC8462852-20181127at024336_-35-1X1-030-V_cal.fts.mag.1'
p530
sI1
S'KIC8462852-20181127at024232_-35-1X1-030-V_cal.fts.mag.1'
p531
sI2
S'KIC8462852-20181127at021145_-35-1X1-030-V_cal.fts.mag.1'
p532
sI3
S'KIC8462852-20181127at014701_-35-1X1-030-V_cal.fts.mag.1'
p533
sI4
S'KIC8462852-20181127at024126_-35-1X1-030-V_cal.fts.mag.1'
p534
sI5
S'KIC8462852-20181127at014444_-35-1X1-030-V_cal.fts.mag.1'
p535
sI6
S'KIC8462852-20181127at014806_-35-1X1-030-V_cal.fts.mag.1'
p536
sI7
S'KIC8462852-20181127at021402_-35-1X1-030-V_cal.fts.mag.1'
p537
sI8
S'KIC8462852-20181127at014555_-35-1X1-030-V_cal.fts.mag.1'
p538
sI9
S'KIC8462852-20181127at014911_-35-1X1-030-V_cal.fts.mag.1'
p539
sI10
S'KIC8462852-20181127at023857_-35-1X1-030-V_cal.fts.mag.1'
p540
sI11
S'KIC8462852-20181127at024021_-35-1X1-030-V_cal.fts.mag.1'
p541
sI12
S'KIC8462852-20181127at021257_-35-1X1-030-V_cal.fts.mag.1'
p542
sI13
S'KIC8462852-20181127at021507_-35-1X1-030-V_cal.fts.mag.1'
p543
sI14
S'KIC8462852-20181127at021612_-35-1X1-030-V_cal.fts.mag.1'
p544
ssg121
(dp545
I0
F0.00341410822709397
sI1
Fnan
sI2
Fnan
sI3
Fnan
sI4
Fnan
sI5
Fnan
sI6
Fnan
sI7
Fnan
sI8
Fnan
sI9
Fnan
sI10
Fnan
sI11
Fnan
sI12
Fnan
sI13
Fnan
sI14
Fnan
ssg123
(dp546
I0
F5015.496666666667
sI1
F5114.66
sI2
F5692.73
sI3
F5303.483333333334
sI4
F5229.543333333333
sI5
F5012.883333333333
sI6
F5435.743333333333
sI7
F5597.846666666666
sI8
F5270.65
sI9
F5627.3
sI10
F5463.766666666666
sI11
F5422.543333333333
sI12
F5663.41
sI13
F5167.843333333333
sI14
F5113.503333333333
ssg125
(dp547
I0
F0.04842795336029254
sI1
Fnan
sI2
Fnan
sI3
Fnan
sI4
Fnan
sI5
Fnan
sI6
Fnan
sI7
Fnan
sI8
Fnan
sI9
Fnan
sI10
Fnan
sI11
Fnan
sI12
Fnan
sI13
Fnan
sI14
Fnan
ssg127
(dp548
I0
g469
sI1
g469
sI2
g469
sI3
g469
sI4
g469
sI5
g469
sI6
g469
sI7
g469
sI8
g469
sI9
g469
sI10
g469
sI11
g469
sI12
g469
sI13
g469
sI14
g469
ssg144
(dp549
I0
F0.003082049138042378
sI1
Fnan
sI2
Fnan
sI3
Fnan
sI4
Fnan
sI5
Fnan
sI6
Fnan
sI7
Fnan
sI8
Fnan
sI9
Fnan
sI10
Fnan
sI11
Fnan
sI12
Fnan
sI13
Fnan
sI14
Fnan
ssg146
(dp550
I0
F1.40444
sI1
F4.06802
sI2
F3.934821
sI3
F-2.447501
sI4
F2.073029
sI5
F2.31206
sI6
F3.568315
sI7
F2.906511
sI8
F3.743177
sI9
F2.003677
sI10
F2.938718
sI11
F3.828929
sI12
F3.457014
sI13
F3.778762
sI14
F-2.652668
ssg148
(dp551
I0
F1.51097803778709
sI1
Fnan
sI2
Fnan
sI3
Fnan
sI4
Fnan
sI5
Fnan
sI6
Fnan
sI7
Fnan
sI8
Fnan
sI9
Fnan
sI10
Fnan
sI11
Fnan
sI12
Fnan
sI13
Fnan
sI14
Fnan
ssg150
(dp552
I0
F2458449.5930787036
sI1
Fnan
sI2
Fnan
sI3
Fnan
sI4
Fnan
sI5
Fnan
sI6
Fnan
sI7
Fnan
sI8
Fnan
sI9
Fnan
sI10
Fnan
sI11
Fnan
sI12
Fnan
sI13
Fnan
sI14
Fnan
ssg152
(dp553
I0
F0.003082049138042378
sI1
Fnan
sI2
Fnan
sI3
Fnan
sI4
Fnan
sI5
Fnan
sI6
Fnan
sI7
Fnan
sI8
Fnan
sI9
Fnan
sI10
Fnan
sI11
Fnan
sI12
Fnan
sI13
Fnan
sI14
Fnan
ssg154
(dp554
I0
F2.710356
sI1
F2.571437
sI2
F2.381203
sI3
F2.742545
sI4
F1.843485
sI5
F3.281744
sI6
F3.543839
sI7
F2.365566
sI8
F3.544356
sI9
F3.816419
sI10
F2.419816
sI11
F2.899527
sI12
F1.821841
sI13
F2.583978
sI14
F2.652894
ssg156
(dp555
I0
F11.077
sI1
F11.063
sI2
F10.945
sI3
F11.007
sI4
F11.025
sI5
F11.068
sI6
F10.981
sI7
F10.954
sI8
F11.017
sI9
F10.945
sI10
F10.977
sI11
F10.99
sI12
F10.938
sI13
F11.036
sI14
F11.05
ssg158
(dp556
I0
F0.692165886503686
sI1
Fnan
sI2
Fnan
sI3
Fnan
sI4
Fnan
sI5
Fnan
sI6
Fnan
sI7
Fnan
sI8
Fnan
sI9
Fnan
sI10
Fnan
sI11
Fnan
sI12
Fnan
sI13
Fnan
sI14
Fnan
sss.