(dp0
S'i'
p1
(dp2
S'sigmean'
p3
(dp4
I0
F0.4395748169373041
sI1
Fnan
sI2
Fnan
sI3
Fnan
sI4
Fnan
sI5
Fnan
sI6
Fnan
sI7
Fnan
sI8
Fnan
sI9
Fnan
ssS'ref3flag'
p5
(dp6
I0
S'NoError'
p7
sI1
S'NoError'
p8
sI2
S'NoError'
p9
sI3
S'NoError'
p10
sI4
S'NoError'
p11
sI5
S'NoError'
p12
sI6
S'NoError'
p13
sI7
S'NoError'
p14
sI8
S'NoError'
p15
sI9
S'NoError'
p16
ssS'tabbyerr'
p17
(dp18
I0
F0.003
sI1
F0.003
sI2
F0.003
sI3
F0.003
sI4
F0.003
sI5
F0.003
sI6
F0.004
sI7
F0.003
sI8
F0.003
sI9
F0.003
ssS'ref2rel'
p19
(dp20
I0
F0.9091509570549682
sI1
F0.9160450367013699
sI2
F0.9127857376660499
sI3
F0.9155040281338489
sI4
F0.90744659481796
sI5
F0.9120248766104383
sI6
F0.9100222145561545
sI7
F0.9107112144929391
sI8
F0.9056384189948067
sI9
F0.9120087260835565
ssS'ref2err'
p21
(dp22
I0
F0.0032769923948976513
sI1
Fnan
sI2
Fnan
sI3
Fnan
sI4
Fnan
sI5
Fnan
sI6
Fnan
sI7
Fnan
sI8
Fnan
sI9
Fnan
ssS'ref2mean'
p23
(dp24
I0
F0.9111337805112092
sI1
Fnan
sI2
Fnan
sI3
Fnan
sI4
Fnan
sI5
Fnan
sI6
Fnan
sI7
Fnan
sI8
Fnan
sI9
Fnan
ssS'tabbymag'
p25
(dp26
I0
F11.967
sI1
F11.941
sI2
F11.88
sI3
F11.908
sI4
F12.033
sI5
F11.893
sI6
F12.086
sI7
F12.066
sI8
F12.079
sI9
F11.953
ssS'tabbybkg'
p27
(dp28
I0
F36.58393
sI1
F54.21078
sI2
F56.65633
sI3
F65.35406
sI4
F39.59566
sI5
F72.92308
sI6
F40.36592
sI7
F41.41951
sI8
F39.78011
sI9
F48.79895
ssS'JD'
p29
(dp30
I0
F2458324.8884490742
sI1
F2458324.8671412035
sI2
F2458324.8678703704
sI3
F2458324.868599537
sI4
F2458324.886979167
sI5
F2458324.8693402777
sI6
F2458324.886226852
sI7
F2458324.8877199073
sI8
F2458324.885474537
sI9
F2458324.866412037
ssS'ref3rmsmean'
p31
(dp32
I0
F3.3446843
sI1
Fnan
sI2
Fnan
sI3
Fnan
sI4
Fnan
sI5
Fnan
sI6
Fnan
sI7
Fnan
sI8
Fnan
sI9
Fnan
ssS'ref1rmsmean'
p33
(dp34
I0
F1.9651803
sI1
Fnan
sI2
Fnan
sI3
Fnan
sI4
Fnan
sI5
Fnan
sI6
Fnan
sI7
Fnan
sI8
Fnan
sI9
Fnan
ssS'relflux'
p35
(dp36
I0
F0.4397443305243774
sI1
F0.43713477981778065
sI2
F0.44575033108044476
sI3
F0.4422470057838982
sI4
F0.4329146325326709
sI5
F0.44165051282446444
sI6
F0.4418152656716585
sI7
F0.4372104293934176
sI8
F0.4350692519834756
sI9
F0.44172695949936047
ssS'sigerr'
p37
(dp38
I0
F0.0025732614227432504
sI1
Fnan
sI2
Fnan
sI3
Fnan
sI4
Fnan
sI5
Fnan
sI6
Fnan
sI7
Fnan
sI8
Fnan
sI9
Fnan
ssS'tabbyrmsmean'
p39
(dp40
I0
F2.2691199
sI1
Fnan
sI2
Fnan
sI3
Fnan
sI4
Fnan
sI5
Fnan
sI6
Fnan
sI7
Fnan
sI8
Fnan
sI9
Fnan
ssS'tabbyflag'
p41
(dp42
I0
g7
sI1
g8
sI2
g9
sI3
g10
sI4
g11
sI5
g12
sI6
g13
sI7
g14
sI8
g15
sI9
g16
ssS'ref1err'
p43
(dp44
I0
F0.0037416281100957744
sI1
Fnan
sI2
Fnan
sI3
Fnan
sI4
Fnan
sI5
Fnan
sI6
Fnan
sI7
Fnan
sI8
Fnan
sI9
Fnan
ssS'ref2magmeanerr'
p45
(dp46
I0
F0.07560753930660641
sI1
Fnan
sI2
Fnan
sI3
Fnan
sI4
Fnan
sI5
Fnan
sI6
Fnan
sI7
Fnan
sI8
Fnan
sI9
Fnan
ssS'ref2rmsmean'
p47
(dp48
I0
F0.4212727
sI1
Fnan
sI2
Fnan
sI3
Fnan
sI4
Fnan
sI5
Fnan
sI6
Fnan
sI7
Fnan
sI8
Fnan
sI9
Fnan
ssS'ref3rel'
p49
(dp50
I0
F1.505045589965325
sI1
F1.499030613998379
sI2
F1.4958665211095195
sI3
F1.4953442196534656
sI4
F1.5133611407261718
sI5
F1.494969494970666
sI6
F1.4868814172796085
sI7
F1.5035055152242733
sI8
F1.5059351146043325
sI9
F1.4981507405500758
ssS'ref1flag'
p51
(dp52
I0
g7
sI1
g8
sI2
g9
sI3
g10
sI4
g11
sI5
g12
sI6
g13
sI7
g14
sI8
g15
sI9
g16
ssS'ref2bkg'
p53
(dp54
I0
F38.93569
sI1
F54.92872
sI2
F60.16031
sI3
F68.24076
sI4
F42.66787
sI5
F73.40118
sI6
F46.77194
sI7
F46.43713
sI8
F45.29623
sI9
F52.35304
ssS'ref3magmean'
p55
(dp56
I0
F10.815300000000002
sI1
Fnan
sI2
Fnan
sI3
Fnan
sI4
Fnan
sI5
Fnan
sI6
Fnan
sI7
Fnan
sI8
Fnan
sI9
Fnan
ssS'ref1mean'
p57
(dp58
I0
F0.6971686259501972
sI1
Fnan
sI2
Fnan
sI3
Fnan
sI4
Fnan
sI5
Fnan
sI6
Fnan
sI7
Fnan
sI8
Fnan
sI9
Fnan
ssS'ref1rms'
p59
(dp60
I0
F4.365486
sI1
F3.216583
sI2
F2.814517
sI3
F-3.42023
sI4
F4.534653
sI5
F-3.905337
sI6
F2.434223
sI7
F3.606665
sI8
F3.868069
sI9
F2.137174
ssS'ref2magmean'
p61
(dp62
I0
F11.156499999999998
sI1
Fnan
sI2
Fnan
sI3
Fnan
sI4
Fnan
sI5
Fnan
sI6
Fnan
sI7
Fnan
sI8
Fnan
sI9
Fnan
ssS'ref2flag'
p63
(dp64
I0
g7
sI1
g8
sI2
g9
sI3
g10
sI4
g11
sI5
g12
sI6
g13
sI7
g14
sI8
g15
sI9
g16
ssS'ref2'
p65
(dp66
I0
F8749.323333333334
sI1
F9061.726666666666
sI2
F9374.426666666666
sI3
F9226.896666666667
sI4
F8349.95
sI5
F9348.306666666667
sI6
F7812.733333333334
sI7
F8039.863333333333
sI8
F7952.98
sI9
F8846.17
ssS'airmass'
p67
(dp68
I0
F1.069955
sI1
F1.0374709999999998
sI2
F1.0383930000000001
sI3
F1.0393270000000001
sI4
F1.067279
sI5
F1.040298
sI6
F1.065955
sI7
F1.0685879999999999
sI8
F1.064668
sI9
F1.036567
ssS'ref1'
p69
(dp70
I0
F7225.683333333333
sI1
F7426.373333333334
sI2
F7739.89
sI3
F7586.253333333333
sI4
F6879.413333333333
sI5
F7732.483333333334
sI6
F6517.066666666667
sI7
F6628.926666666666
sI8
F6603.043333333333
sI9
F7302.636666666667
ssS'ref3'
p71
(dp72
I0
F12021.556666666667
sI1
F12358.083333333334
sI2
F12800.366666666667
sI3
F12570.723333333333
sI4
F11523.763333333334
sI5
F12767.630000000001
sI6
F10653.356666666667
sI7
F11027.303333333333
sI8
F10960.213333333335
sI9
F12096.673333333334
ssS'ref1bkg'
p73
(dp74
I0
F38.67635
sI1
F53.46173
sI2
F58.23576
sI3
F68.08331
sI4
F42.42746
sI5
F72.9181
sI6
F43.85695
sI7
F44.62321
sI8
F43.10793
sI9
F51.41921
ssS'ref1mag'
p75
(dp76
I0
F11.353
sI1
F11.323
sI2
F11.278
sI3
F11.3
sI4
F11.406
sI5
F11.279
sI6
F11.465
sI7
F11.446
sI8
F11.451
sI9
F11.341
ssS'ref3magerr'
p77
(dp78
I0
F0.002
sI1
F0.002
sI2
F0.002
sI3
F0.002
sI4
F0.002
sI5
F0.002
sI6
F0.002
sI7
F0.002
sI8
F0.002
sI9
F0.002
ssS'tabbymagmean'
p79
(dp80
I0
F0.43952634991115486
sI1
Fnan
sI2
Fnan
sI3
Fnan
sI4
Fnan
sI5
Fnan
sI6
Fnan
sI7
Fnan
sI8
Fnan
sI9
Fnan
ssS'ref1magmean'
p81
(dp82
I0
F11.3642
sI1
Fnan
sI2
Fnan
sI3
Fnan
sI4
Fnan
sI5
Fnan
sI6
Fnan
sI7
Fnan
sI8
Fnan
sI9
Fnan
ssS'ref2mag'
p83
(dp84
I0
F11.145
sI1
F11.107
sI2
F11.07
sI3
F11.087
sI4
F11.196
sI5
F11.073
sI6
F11.268
sI7
F11.237
sI8
F11.249
sI9
F11.133
ssS'ref3rms'
p85
(dp86
I0
F4.069769
sI1
F5.376683
sI2
F5.478538
sI3
F-3.350608
sI4
F2.422691
sI5
F2.663953
sI6
F6.046506
sI7
F3.381048
sI8
F3.567402
sI9
F3.790861
ssS'ref3magmeanerr'
p87
(dp88
I0
F0.072933836073831
sI1
Fnan
sI2
Fnan
sI3
Fnan
sI4
Fnan
sI5
Fnan
sI6
Fnan
sI7
Fnan
sI8
Fnan
sI9
Fnan
ssS'ref1rel'
p89
(dp90
I0
F0.6957512954033082
sI1
F0.6934116907043839
sI2
F0.6980800121699744
sI3
F0.6960625364909868
sI4
F0.6923128272958216
sI5
F0.6992679939247429
sI6
F0.7058415362068166
sI7
F0.6953237240282161
sI8
F0.6982473257644839
sI9
F0.697387317513238
ssS'exposure'
p91
(dp92
I0
F30.0
sI1
F30.0
sI2
F30.0
sI3
F30.0
sI4
F30.0
sI5
F30.0
sI6
F30.0
sI7
F30.0
sI8
F30.0
sI9
F30.0
ssS'ref1magerr'
p93
(dp94
I0
F0.002
sI1
F0.002
sI2
F0.002
sI3
F0.002
sI4
F0.002
sI5
F0.002
sI6
F0.002
sI7
F0.002
sI8
F0.002
sI9
F0.002
ssS'ref2magerr'
p95
(dp96
I0
F0.002
sI1
F0.002
sI2
F0.002
sI3
F0.002
sI4
F0.002
sI5
F0.002
sI6
F0.002
sI7
F0.002
sI8
F0.002
sI9
F0.002
ssS'ref2rms'
p97
(dp98
I0
F3.102824
sI1
F-2.880094
sI2
F-2.603836
sI3
F-2.730449
sI4
F3.143974
sI5
F5.471793
sI6
F-3.802553
sI7
F-4.873964
sI8
F3.537566
sI9
F5.847466
ssS'name'
p99
(dp100
I0
S"KIC8462852-20180725at091922_-25-1X1-030-i'_cal.fts.mag.1"
p101
sI1
S"KIC8462852-20180725at084841_-25-1X1-030-i'_cal.fts.mag.1"
p102
sI2
S"KIC8462852-20180725at084944_-25-1X1-030-i'_cal.fts.mag.1"
p103
sI3
S"KIC8462852-20180725at085047_-25-1X1-030-i'_cal.fts.mag.1"
p104
sI4
S"KIC8462852-20180725at091715_-25-1X1-030-i'_cal.fts.mag.1"
p105
sI5
S"KIC8462852-20180725at085151_-25-1X1-030-i'_cal.fts.mag.1"
p106
sI6
S"KIC8462852-20180725at091610_-25-1X1-030-i'_cal.fts.mag.1"
p107
sI7
S"KIC8462852-20180725at091819_-25-1X1-030-i'_cal.fts.mag.1"
p108
sI8
S"KIC8462852-20180725at091504_-25-1X1-030-i'_cal.fts.mag.1"
p109
sI9
S"KIC8462852-20180725at084736_-25-1X1-030-i'_cal.fts.mag.1"
p110
ssS'ref3err'
p111
(dp112
I0
F0.007391077309078968
sI1
Fnan
sI2
Fnan
sI3
Fnan
sI4
Fnan
sI5
Fnan
sI6
Fnan
sI7
Fnan
sI8
Fnan
sI9
Fnan
ssS'tabby'
p113
(dp114
I0
F4103.776666666667
sI1
F4203.223333333333
sI2
F4444.826666666666
sI3
F4331.643333333333
sI4
F3860.6066666666666
sI5
F4394.1900000000005
sI6
F3679.313333333333
sI7
F3744.866666666667
sI8
F3700.4433333333336
sI9
F4158.929999999999
ssS'ref1magmeanerr'
p115
(dp116
I0
F0.07249950191399779
sI1
Fnan
sI2
Fnan
sI3
Fnan
sI4
Fnan
sI5
Fnan
sI6
Fnan
sI7
Fnan
sI8
Fnan
sI9
Fnan
ssS'filter'
p117
(dp118
I0
S"i'"
p119
sI1
S"i'"
p120
sI2
S"i'"
p121
sI3
S"i'"
p122
sI4
S"i'"
p123
sI5
S"i'"
p124
sI6
S"i'"
p125
sI7
S"i'"
p126
sI8
S"i'"
p127
sI9
S"i'"
p128
ssS'tabbymagerr'
p129
(dp130
I0
F0.003879360421338683
sI1
Fnan
sI2
Fnan
sI3
Fnan
sI4
Fnan
sI5
Fnan
sI6
Fnan
sI7
Fnan
sI8
Fnan
sI9
Fnan
ssS'tabbyrms'
p131
(dp132
I0
F2.609408
sI1
F-3.946311
sI2
F3.30311
sI3
F3.490444
sI4
F3.12689
sI5
F4.36723
sI6
F-2.323658
sI7
F4.474987
sI8
F3.931245
sI9
F3.657854
ssS'ref3mean'
p133
(dp134
I0
F1.4998090368081816
sI1
Fnan
sI2
Fnan
sI3
Fnan
sI4
Fnan
sI5
Fnan
sI6
Fnan
sI7
Fnan
sI8
Fnan
sI9
Fnan
ssS'median_JD'
p135
(dp136
I0
F2458324.8774074074
sI1
Fnan
sI2
Fnan
sI3
Fnan
sI4
Fnan
sI5
Fnan
sI6
Fnan
sI7
Fnan
sI8
Fnan
sI9
Fnan
ssS'error'
p137
(dp138
I0
F0.003879360421338683
sI1
Fnan
sI2
Fnan
sI3
Fnan
sI4
Fnan
sI5
Fnan
sI6
Fnan
sI7
Fnan
sI8
Fnan
sI9
Fnan
ssS'ref3bkg'
p139
(dp140
I0
F41.43224
sI1
F55.10274
sI2
F60.514
sI3
F69.98597
sI4
F46.20061
sI5
F73.44157
sI6
F49.49903
sI7
F48.09857
sI8
F48.67465
sI9
F54.27586
ssS'ref3mag'
p141
(dp142
I0
F10.8
sI1
F10.77
sI2
F10.732
sI3
F10.752
sI4
F10.846
sI5
F10.735
sI6
F10.931
sI7
F10.894
sI8
F10.9
sI9
F10.793
ssS'mean'
p143
(dp144
I0
F0.43952634991115486
sI1
Fnan
sI2
Fnan
sI3
Fnan
sI4
Fnan
sI5
Fnan
sI6
Fnan
sI7
Fnan
sI8
Fnan
sI9
Fnan
sssS'r'
p145
(dp146
g3
(dp147
I0
F0.5501561911722402
sI1
Fnan
sI2
Fnan
sI3
Fnan
sI4
Fnan
sI5
Fnan
sI6
Fnan
sI7
Fnan
sI8
Fnan
sI9
Fnan
ssg5
(dp148
I0
S'NoError'
p149
sI1
S'NoError'
p150
sI2
S'NoError'
p151
sI3
S'NoError'
p152
sI4
S'NoError'
p153
sI5
S'NoError'
p154
sI6
S'NoError'
p155
sI7
S'NoError'
p156
sI8
S'NoError'
p157
sI9
S'NoError'
p158
ssg17
(dp159
I0
F0.002
sI1
F0.002
sI2
F0.002
sI3
F0.002
sI4
F0.002
sI5
F0.002
sI6
F0.002
sI7
F0.002
sI8
F0.002
sI9
F0.002
ssg19
(dp160
I0
F0.8950212753165336
sI1
F0.8959777642146471
sI2
F0.8936856185224658
sI3
F0.8938712267406645
sI4
F0.8958516663795478
sI5
F0.8949817790741151
sI6
F0.8960155880333318
sI7
F0.8963257776985247
sI8
F0.8930519946425217
sI9
F0.8955605301237191
ssg21
(dp161
I0
F0.0011338290712774892
sI1
Fnan
sI2
Fnan
sI3
Fnan
sI4
Fnan
sI5
Fnan
sI6
Fnan
sI7
Fnan
sI8
Fnan
sI9
Fnan
ssg23
(dp162
I0
F0.8950343220746071
sI1
Fnan
sI2
Fnan
sI3
Fnan
sI4
Fnan
sI5
Fnan
sI6
Fnan
sI7
Fnan
sI8
Fnan
sI9
Fnan
ssg25
(dp163
I0
F11.272
sI1
F11.24
sI2
F11.365
sI3
F11.305
sI4
F11.21
sI5
F11.252
sI6
F11.241
sI7
F11.232
sI8
F11.289
sI9
F11.288
ssg27
(dp164
I0
F62.61609
sI1
F59.78431
sI2
F68.35051
sI3
F64.21161
sI4
F55.65311
sI5
F60.89982
sI6
F62.5673
sI7
F54.47923
sI8
F56.05256
sI9
F68.30863
ssg29
(dp165
I0
F2458324.8817824074
sI1
F2458324.882511574
sI2
F2458324.8626851854
sI3
F2458324.8641666668
sI4
F2458324.8832523148
sI5
F2458324.863414352
sI6
F2458324.864907407
sI7
F2458324.8839930557
sI8
F2458324.884722222
sI9
F2458324.865648148
ssg31
(dp166
I0
F5.0407417
sI1
Fnan
sI2
Fnan
sI3
Fnan
sI4
Fnan
sI5
Fnan
sI6
Fnan
sI7
Fnan
sI8
Fnan
sI9
Fnan
ssg33
(dp167
I0
F1.489238
sI1
Fnan
sI2
Fnan
sI3
Fnan
sI4
Fnan
sI5
Fnan
sI6
Fnan
sI7
Fnan
sI8
Fnan
sI9
Fnan
ssg35
(dp168
I0
F0.5512796913165068
sI1
F0.5500877884140327
sI2
F0.548937076217013
sI3
F0.5512512862348293
sI4
F0.5486878036841027
sI5
F0.5521294128086361
sI6
F0.5512145331474392
sI7
F0.5485715592883752
sI8
F0.5463971333051166
sI9
F0.5492465694392262
ssg37
(dp169
I0
F0.00126757551010334
sI1
Fnan
sI2
Fnan
sI3
Fnan
sI4
Fnan
sI5
Fnan
sI6
Fnan
sI7
Fnan
sI8
Fnan
sI9
Fnan
ssg39
(dp170
I0
F2.8322548000000003
sI1
Fnan
sI2
Fnan
sI3
Fnan
sI4
Fnan
sI5
Fnan
sI6
Fnan
sI7
Fnan
sI8
Fnan
sI9
Fnan
ssg41
(dp171
I0
g149
sI1
g150
sI2
g151
sI3
g152
sI4
g153
sI5
g154
sI6
g155
sI7
g156
sI8
g157
sI9
g158
ssg43
(dp172
I0
F0.0012048008010999286
sI1
Fnan
sI2
Fnan
sI3
Fnan
sI4
Fnan
sI5
Fnan
sI6
Fnan
sI7
Fnan
sI8
Fnan
sI9
Fnan
ssg45
(dp173
I0
F0.04537755196374345
sI1
Fnan
sI2
Fnan
sI3
Fnan
sI4
Fnan
sI5
Fnan
sI6
Fnan
sI7
Fnan
sI8
Fnan
sI9
Fnan
ssg47
(dp174
I0
F3.5556674999999998
sI1
Fnan
sI2
Fnan
sI3
Fnan
sI4
Fnan
sI5
Fnan
sI6
Fnan
sI7
Fnan
sI8
Fnan
sI9
Fnan
ssg49
(dp175
I0
F1.4935211267605633
sI1
F1.4936723588634633
sI2
F1.4929141600161562
sI3
F1.4965018461572503
sI4
F1.4934328496623785
sI5
F1.491811320683361
sI6
F1.4941761766357116
sI7
F1.4931555746138165
sI8
F1.4991356594489909
sI9
F1.4968434741361902
ssg51
(dp176
I0
g149
sI1
g150
sI2
g151
sI3
g152
sI4
g153
sI5
g154
sI6
g155
sI7
g156
sI8
g157
sI9
g158
ssg53
(dp177
I0
F66.2039
sI1
F62.93725
sI2
F71.29972
sI3
F69.38979
sI4
F58.74728
sI5
F62.1865
sI6
F65.85367
sI7
F58.48489
sI8
F61.3064
sI9
F72.18032
ssg55
(dp178
I0
F10.3492
sI1
Fnan
sI2
Fnan
sI3
Fnan
sI4
Fnan
sI5
Fnan
sI6
Fnan
sI7
Fnan
sI8
Fnan
sI9
Fnan
ssg57
(dp179
I0
F0.7143074091079702
sI1
Fnan
sI2
Fnan
sI3
Fnan
sI4
Fnan
sI5
Fnan
sI6
Fnan
sI7
Fnan
sI8
Fnan
sI9
Fnan
ssg59
(dp180
I0
F3.489428
sI1
F5.120974
sI2
F4.934607
sI3
F-3.340434
sI4
F4.286033
sI5
F4.796239
sI6
F4.30023
sI7
F-3.334251
sI8
F-2.439724
sI9
F-2.920722
ssg61
(dp181
I0
F10.701699999999999
sI1
Fnan
sI2
Fnan
sI3
Fnan
sI4
Fnan
sI5
Fnan
sI6
Fnan
sI7
Fnan
sI8
Fnan
sI9
Fnan
ssg63
(dp182
I0
g149
sI1
g150
sI2
g151
sI3
g152
sI4
g153
sI5
g154
sI6
g155
sI7
g156
sI8
g157
sI9
g158
ssg65
(dp183
I0
F13100.140000000001
sI1
F13532.473333333333
sI2
F12054.143333333333
sI3
F12691.72
sI4
F13945.303333333333
sI5
F13320.486666666666
sI6
F13485.806666666667
sI7
F13663.75
sI8
F12982.019999999999
sI9
F12954.666666666666
ssg67
(dp184
I0
F1.0584149999999999
sI1
F1.0596299999999998
sI2
F1.032166
sI3
F1.033879
sI4
F1.0608549999999999
sI5
F1.033023
sI6
F1.034756
sI7
F1.062085
sI8
F1.063344
sI9
F1.035648
ssg69
(dp185
I0
F11158.193333333333
sI1
F11506.873333333333
sI2
F10294.183333333332
sI3
F10811.153333333332
sI4
F11862.186666666666
sI5
F11358.706666666667
sI6
F11462.866666666667
sI7
F11615.46
sI8
F11055.573333333334
sI9
F11001.523333333334
ssg71
(dp186
I0
F18115.166666666668
sI1
F18700.289999999997
sI2
F16682.066666666666
sI3
F17586.04666666667
sI4
F19270.876666666667
sI5
F18408.35
sI6
F18638.856666666667
sI7
F18872.896666666667
sI8
F18017.806666666664
sI9
F17929.333333333332
ssg73
(dp187
I0
F64.82895
sI1
F61.17516
sI2
F68.47698
sI3
F67.03429
sI4
F57.11716
sI5
F61.48907
sI6
F64.36224
sI7
F57.09208
sI8
F60.46415
sI9
F71.94312
ssg75
(dp188
I0
F10.881
sI1
F10.848
sI2
F10.969
sI3
F10.915
sI4
F10.815
sI5
F10.862
sI6
F10.852
sI7
F10.837
sI8
F10.891
sI9
F10.896
ssg77
(dp189
I0
F0.001
sI1
F0.001
sI2
F0.001
sI3
F0.001
sI4
F0.001
sI5
F0.001
sI6
F0.001
sI7
F0.001
sI8
F0.001
sI9
F0.001
ssg79
(dp190
I0
F0.5497802853855279
sI1
Fnan
sI2
Fnan
sI3
Fnan
sI4
Fnan
sI5
Fnan
sI6
Fnan
sI7
Fnan
sI8
Fnan
sI9
Fnan
ssg81
(dp191
I0
F10.8766
sI1
Fnan
sI2
Fnan
sI3
Fnan
sI4
Fnan
sI5
Fnan
sI6
Fnan
sI7
Fnan
sI8
Fnan
sI9
Fnan
ssg83
(dp192
I0
F10.707
sI1
F10.672
sI2
F10.797
sI3
F10.741
sI4
F10.639
sI5
F10.689
sI6
F10.675
sI7
F10.661
sI8
F10.717
sI9
F10.719
ssg85
(dp193
I0
F3.48486
sI1
F5.297076
sI2
F5.289545
sI3
F4.915663
sI4
F2.721109
sI5
F4.269715
sI6
F6.446879
sI7
F5.962311
sI8
F6.689555
sI9
F5.330704
ssg87
(dp194
I0
F0.04445921976623338
sI1
Fnan
sI2
Fnan
sI3
Fnan
sI4
Fnan
sI5
Fnan
sI6
Fnan
sI7
Fnan
sI8
Fnan
sI9
Fnan
ssg89
(dp195
I0
F0.7149180658377854
sI1
F0.7139861521853179
sI2
F0.7164607534071704
sI3
F0.7141314914244004
sI4
F0.7142414730812915
sI5
F0.7159863304159383
sI6
F0.713648983506857
sI7
F0.7139924479002855
sI8
F0.7132667838572863
sI9
F0.7124416094633684
ssg91
(dp196
I0
F30.0
sI1
F30.0
sI2
F30.0
sI3
F30.0
sI4
F30.0
sI5
F30.0
sI6
F30.0
sI7
F30.0
sI8
F30.0
sI9
F30.0
ssg93
(dp197
I0
F0.002
sI1
F0.002
sI2
F0.002
sI3
F0.002
sI4
F0.002
sI5
F0.002
sI6
F0.002
sI7
F0.002
sI8
F0.002
sI9
F0.002
ssg95
(dp198
I0
F0.002
sI1
F0.002
sI2
F0.002
sI3
F0.002
sI4
F0.002
sI5
F0.002
sI6
F0.002
sI7
F0.002
sI8
F0.002
sI9
F0.002
ssg97
(dp199
I0
F4.736987
sI1
F5.601482
sI2
F5.183841
sI3
F-2.198578
sI4
F-3.291077
sI5
F4.287635
sI6
F5.932903
sI7
F5.663245
sI8
F3.816182
sI9
F5.824055
ssg99
(dp200
I0
S"KIC8462852-20180725at090944_-25-1X1-030-r'_cal.fts.mag.1"
p201
sI1
S"KIC8462852-20180725at091049_-25-1X1-030-r'_cal.fts.mag.1"
p202
sI2
S"KIC8462852-20180725at084215_-25-1X1-030-r'_cal.fts.mag.1"
p203
sI3
S"KIC8462852-20180725at084424_-25-1X1-030-r'_cal.fts.mag.1"
p204
sI4
S"KIC8462852-20180725at091152_-25-1X1-030-r'_cal.fts.mag.1"
p205
sI5
S"KIC8462852-20180725at084319_-25-1X1-030-r'_cal.fts.mag.1"
p206
sI6
S"KIC8462852-20180725at084528_-25-1X1-030-r'_cal.fts.mag.1"
p207
sI7
S"KIC8462852-20180725at091257_-25-1X1-030-r'_cal.fts.mag.1"
p208
sI8
S"KIC8462852-20180725at091400_-25-1X1-030-r'_cal.fts.mag.1"
p209
sI9
S"KIC8462852-20180725at084632_-25-1X1-030-r'_cal.fts.mag.1"
p210
ssg111
(dp211
I0
F0.0022465803308269906
sI1
Fnan
sI2
Fnan
sI3
Fnan
sI4
Fnan
sI5
Fnan
sI6
Fnan
sI7
Fnan
sI8
Fnan
sI9
Fnan
ssg113
(dp212
I0
F7786.55
sI1
F8020.213333333333
sI2
F7141.743333333333
sI3
F7550.1066666666675
sI4
F8244.65
sI5
F7929.966666666666
sI6
F8008.693333333333
sI7
F8073.53
sI8
F7659.65
sI9
F7668.493333333333
ssg115
(dp213
I0
F0.04423975085322636
sI1
Fnan
sI2
Fnan
sI3
Fnan
sI4
Fnan
sI5
Fnan
sI6
Fnan
sI7
Fnan
sI8
Fnan
sI9
Fnan
ssg117
(dp214
I0
S"r'"
p215
sI1
S"r'"
p216
sI2
S"r'"
p217
sI3
S"r'"
p218
sI4
S"r'"
p219
sI5
S"r'"
p220
sI6
S"r'"
p221
sI7
S"r'"
p222
sI8
S"r'"
p223
sI9
S"r'"
p224
ssg129
(dp225
I0
F0.0017377569676603412
sI1
Fnan
sI2
Fnan
sI3
Fnan
sI4
Fnan
sI5
Fnan
sI6
Fnan
sI7
Fnan
sI8
Fnan
sI9
Fnan
ssg131
(dp226
I0
F2.465751
sI1
F2.663822
sI2
F4.258384
sI3
F3.901394
sI4
F1.196389
sI5
F-3.776431
sI6
F4.980089
sI7
F2.129057
sI8
F4.824565
sI9
F5.679528
ssg133
(dp227
I0
F1.4945164546977883
sI1
Fnan
sI2
Fnan
sI3
Fnan
sI4
Fnan
sI5
Fnan
sI6
Fnan
sI7
Fnan
sI8
Fnan
sI9
Fnan
ssg135
(dp228
I0
F2458324.8737152778
sI1
Fnan
sI2
Fnan
sI3
Fnan
sI4
Fnan
sI5
Fnan
sI6
Fnan
sI7
Fnan
sI8
Fnan
sI9
Fnan
ssg137
(dp229
I0
F0.0017377569676603412
sI1
Fnan
sI2
Fnan
sI3
Fnan
sI4
Fnan
sI5
Fnan
sI6
Fnan
sI7
Fnan
sI8
Fnan
sI9
Fnan
ssg139
(dp230
I0
F67.87054
sI1
F64.11699
sI2
F74.59027
sI3
F70.37624
sI4
F60.3474
sI5
F65.05007
sI6
F68.11629
sI7
F60.28313
sI8
F64.35873
sI9
F77.06915
ssg141
(dp231
I0
F10.355
sI1
F10.32
sI2
F10.444
sI3
F10.387
sI4
F10.288
sI5
F10.337
sI6
F10.324
sI7
F10.31
sI8
F10.361
sI9
F10.366
ssg143
(dp232
I0
F0.5497802853855279
sI1
Fnan
sI2
Fnan
sI3
Fnan
sI4
Fnan
sI5
Fnan
sI6
Fnan
sI7
Fnan
sI8
Fnan
sI9
Fnan
sssS'z'
p233
(dp234
g3
(dp235
I0
F0.3747347176135097
sI1
Fnan
sI2
Fnan
sI3
Fnan
sI4
Fnan
sI5
Fnan
sI6
Fnan
sI7
Fnan
sI8
Fnan
sI9
Fnan
ssg5
(dp236
I0
S'NoError'
p237
sI1
S'NoError'
p238
sI2
S'NoError'
p239
sI3
S'NoError'
p240
sI4
S'NoError'
p241
sI5
S'NoError'
p242
sI6
S'NoError'
p243
sI7
S'NoError'
p244
sI8
S'NoError'
p245
sI9
S'NoError'
p246
ssg17
(dp247
I0
F0.007
sI1
F0.007
sI2
F0.008
sI3
F0.008
sI4
F0.008
sI5
F0.008
sI6
F0.008
sI7
F0.008
sI8
F0.007
sI9
F0.007
ssg19
(dp248
I0
F0.9220972200314973
sI1
F0.9210225430659114
sI2
F0.9211327659687567
sI3
F0.9215517147495773
sI4
F0.9168013897149375
sI5
F0.9189857663522438
sI6
F0.911905260209154
sI7
F0.9181284574991785
sI8
F0.9190035679468509
sI9
F0.9153667920687416
ssg21
(dp249
I0
F0.0032018916747727846
sI1
Fnan
sI2
Fnan
sI3
Fnan
sI4
Fnan
sI5
Fnan
sI6
Fnan
sI7
Fnan
sI8
Fnan
sI9
Fnan
ssg23
(dp250
I0
F0.9185995477606849
sI1
Fnan
sI2
Fnan
sI3
Fnan
sI4
Fnan
sI5
Fnan
sI6
Fnan
sI7
Fnan
sI8
Fnan
sI9
Fnan
ssg25
(dp251
I0
F13.253
sI1
F13.312
sI2
F13.339
sI3
F13.345
sI4
F13.331
sI5
F13.308
sI6
F13.376
sI7
F13.281
sI8
F13.227
sI9
F13.284
ssg27
(dp252
I0
F14.16288
sI1
F16.37184
sI2
F44.32378
sI3
F17.47332
sI4
F51.42174
sI5
F46.25024
sI6
F50.1497
sI7
F51.4726
sI8
F14.35374
sI9
F15.36278
ssg29
(dp253
I0
F2458324.8921875
sI1
F2458324.8899768516
sI2
F2458324.873078704
sI3
F2458324.889224537
sI4
F2458324.8708564816
sI5
F2458324.8701041667
sI6
F2458324.872326389
sI7
F2458324.871597222
sI8
F2458324.8914583335
sI9
F2458324.8907291666
ssg31
(dp254
I0
F0.6921581000000001
sI1
Fnan
sI2
Fnan
sI3
Fnan
sI4
Fnan
sI5
Fnan
sI6
Fnan
sI7
Fnan
sI8
Fnan
sI9
Fnan
ssg33
(dp255
I0
F0.6230604
sI1
Fnan
sI2
Fnan
sI3
Fnan
sI4
Fnan
sI5
Fnan
sI6
Fnan
sI7
Fnan
sI8
Fnan
sI9
Fnan
ssg35
(dp256
I0
F0.3729444703347596
sI1
F0.3726662466515347
sI2
F0.37847519252840195
sI3
F0.37215425672902475
sI4
F0.36923369013242024
sI5
F0.3752838931299444
sI6
F0.37402916989796114
sI7
F0.3768950375957972
sI8
F0.378588979250249
sI9
F0.3715752124039143
ssg37
(dp257
I0
F0.0025481511400194004
sI1
Fnan
sI2
Fnan
sI3
Fnan
sI4
Fnan
sI5
Fnan
sI6
Fnan
sI7
Fnan
sI8
Fnan
sI9
Fnan
ssg39
(dp258
I0
F1.6845036
sI1
Fnan
sI2
Fnan
sI3
Fnan
sI4
Fnan
sI5
Fnan
sI6
Fnan
sI7
Fnan
sI8
Fnan
sI9
Fnan
ssg41
(dp259
I0
g237
sI1
g238
sI2
g239
sI3
g240
sI4
g241
sI5
g242
sI6
g243
sI7
g244
sI8
g245
sI9
g246
ssg43
(dp260
I0
F0.0041033519785452326
sI1
Fnan
sI2
Fnan
sI3
Fnan
sI4
Fnan
sI5
Fnan
sI6
Fnan
sI7
Fnan
sI8
Fnan
sI9
Fnan
ssg45
(dp261
I0
F0.044168993649391475
sI1
Fnan
sI2
Fnan
sI3
Fnan
sI4
Fnan
sI5
Fnan
sI6
Fnan
sI7
Fnan
sI8
Fnan
sI9
Fnan
ssg47
(dp262
I0
F2.6918816000000003
sI1
Fnan
sI2
Fnan
sI3
Fnan
sI4
Fnan
sI5
Fnan
sI6
Fnan
sI7
Fnan
sI8
Fnan
sI9
Fnan
ssg49
(dp263
I0
F1.5070383816496835
sI1
F1.5029902614766522
sI2
F1.4968377982910352
sI3
F1.507276703943724
sI4
F1.4968823649802112
sI5
F1.4932907276101017
sI6
F1.5140873773900425
sI7
F1.496890997213609
sI8
F1.497832953668105
sI9
F1.4996831741152277
ssg51
(dp264
I0
g237
sI1
g238
sI2
g239
sI3
g240
sI4
g241
sI5
g242
sI6
g243
sI7
g244
sI8
g245
sI9
g246
ssg53
(dp265
I0
F16.5516
sI1
F15.48062
sI2
F46.56138
sI3
F16.99604
sI4
F50.88876
sI5
F46.84961
sI6
F52.17456
sI7
F53.72959
sI8
F16.55822
sI9
F15.9228
ssg55
(dp266
I0
F11.9649
sI1
Fnan
sI2
Fnan
sI3
Fnan
sI4
Fnan
sI5
Fnan
sI6
Fnan
sI7
Fnan
sI8
Fnan
sI9
Fnan
ssg57
(dp267
I0
F0.6899208197648314
sI1
Fnan
sI2
Fnan
sI3
Fnan
sI4
Fnan
sI5
Fnan
sI6
Fnan
sI7
Fnan
sI8
Fnan
sI9
Fnan
ssg59
(dp268
I0
F-3.377783
sI1
F2.927351
sI2
F3.08061
sI3
F-3.876008
sI4
F3.813628
sI5
F-2.957995
sI6
F1.417577
sI7
F2.728157
sI8
F3.726837
sI9
F-1.25177
ssg61
(dp269
I0
F12.300699999999999
sI1
Fnan
sI2
Fnan
sI3
Fnan
sI4
Fnan
sI5
Fnan
sI6
Fnan
sI7
Fnan
sI8
Fnan
sI9
Fnan
ssg63
(dp270
I0
g237
sI1
g238
sI2
g239
sI3
g240
sI4
g241
sI5
g242
sI6
g243
sI7
g244
sI8
g245
sI9
g246
ssg65
(dp271
I0
F3187.0263333333332
sI1
F3017.0076666666664
sI2
F2899.6766666666667
sI3
F2933.4883333333332
sI4
F2983.2723333333333
sI5
F3003.521333333333
sI6
F2814.739666666667
sI7
F3063.361
sI8
F3208.5756666666666
sI9
F3093.387333333333
ssg67
(dp272
I0
F1.076913
sI1
F1.072749
sI2
F1.045334
sI3
F1.071358
sI4
F1.042284
sI5
F1.041297
sI6
F1.044298
sI7
F1.04328
sI8
F1.075518
sI9
F1.07412
ssg69
(dp273
I0
F2572.5836666666664
sI1
F2446.004
sI2
F2359.686333333333
sI3
F2369.714
sI4
F2445.148
sI5
F2458.447
sI6
F2300.7026666666666
sI7
F2505.252
sI8
F2618.634
sI9
F2536.9396666666667
ssg71
(dp274
I0
F4339.9766666666665
sI1
F4105.426666666667
sI2
F3936.2066666666665
sI3
F3996.6966666666663
sI4
F4062.8533333333335
sI5
F4078.1533333333336
sI6
F3872.6133333333332
sI7
F4167.803333333333
sI8
F4364.093333333333
sI9
F4221.8533333333335
ssg73
(dp275
I0
F16.52064
sI1
F16.30392
sI2
F45.21904
sI3
F18.45881
sI4
F49.59935
sI5
F46.74125
sI6
F48.46108
sI7
F49.76619
sI8
F16.32203
sI9
F15.76336
ssg75
(dp276
I0
F12.474
sI1
F12.529
sI2
F12.568
sI3
F12.563
sI4
F12.529
sI5
F12.523
sI6
F12.595
sI7
F12.503
sI8
F12.455
sI9
F12.489
ssg77
(dp277
I0
F0.003
sI1
F0.003
sI2
F0.003
sI3
F0.003
sI4
F0.003
sI5
F0.003
sI6
F0.003
sI7
F0.003
sI8
F0.003
sI9
F0.003
ssg79
(dp278
I0
F0.3741846148654007
sI1
Fnan
sI2
Fnan
sI3
Fnan
sI4
Fnan
sI5
Fnan
sI6
Fnan
sI7
Fnan
sI8
Fnan
sI9
Fnan
ssg81
(dp279
I0
F12.5228
sI1
Fnan
sI2
Fnan
sI3
Fnan
sI4
Fnan
sI5
Fnan
sI6
Fnan
sI7
Fnan
sI8
Fnan
sI9
Fnan
ssg83
(dp280
I0
F12.242
sI1
F12.301
sI2
F12.344
sI3
F12.332
sI4
F12.313
sI5
F12.306
sI6
F12.376
sI7
F12.285
sI8
F12.234
sI9
F12.274
ssg85
(dp281
I0
F3.42114
sI1
F4.106882
sI2
F-3.609069
sI3
F-3.884647
sI4
F2.908092
sI5
F2.827388
sI6
F-3.324992
sI7
F3.783359
sI8
F3.41123
sI9
F-2.717802
ssg87
(dp282
I0
F0.04271468651932767
sI1
Fnan
sI2
Fnan
sI3
Fnan
sI4
Fnan
sI5
Fnan
sI6
Fnan
sI7
Fnan
sI8
Fnan
sI9
Fnan
ssg89
(dp283
I0
F0.6835612173043286
sI1
F0.6868449424805741
sI2
F0.6903822719814313
sI3
F0.6838818877129543
sI4
F0.6940404175779437
sI5
F0.6943123246177553
sI6
F0.6880757353968503
sI7
F0.6929041809910464
sI8
F0.6916013363320119
sI9
F0.6936038832534195
ssg91
(dp284
I0
F30.0
sI1
F30.0
sI2
F30.0
sI3
F30.0
sI4
F30.0
sI5
F30.0
sI6
F30.0
sI7
F30.0
sI8
F30.0
sI9
F30.0
ssg93
(dp285
I0
F0.004
sI1
F0.004
sI2
F0.005
sI3
F0.004
sI4
F0.005
sI5
F0.005
sI6
F0.005
sI7
F0.005
sI8
F0.004
sI9
F0.004
ssg95
(dp286
I0
F0.004
sI1
F0.004
sI2
F0.004
sI3
F0.004
sI4
F0.004
sI5
F0.004
sI6
F0.004
sI7
F0.004
sI8
F0.004
sI9
F0.004
ssg97
(dp287
I0
F2.35278
sI1
F-2.160747
sI2
F4.088761
sI3
F3.028995
sI4
F2.752366
sI5
F4.08449
sI6
F5.364542
sI7
F5.752946
sI8
F-2.260806
sI9
F3.915489
ssg99
(dp288
I0
S"KIC8462852-20180725at092445_-25-1X1-030-z'_cal.fts.mag.1"
p289
sI1
S"KIC8462852-20180725at092134_-25-1X1-030-z'_cal.fts.mag.1"
p290
sI2
S"KIC8462852-20180725at085713_-25-1X1-030-z'_cal.fts.mag.1"
p291
sI3
S"KIC8462852-20180725at092027_-25-1X1-030-z'_cal.fts.mag.1"
p292
sI4
S"KIC8462852-20180725at085401_-25-1X1-030-z'_cal.fts.mag.1"
p293
sI5
S"KIC8462852-20180725at085256_-25-1X1-030-z'_cal.fts.mag.1"
p294
sI6
S"KIC8462852-20180725at085609_-25-1X1-030-z'_cal.fts.mag.1"
p295
sI7
S"KIC8462852-20180725at085506_-25-1X1-030-z'_cal.fts.mag.1"
p296
sI8
S"KIC8462852-20180725at092342_-25-1X1-030-z'_cal.fts.mag.1"
p297
sI9
S"KIC8462852-20180725at092239_-25-1X1-030-z'_cal.fts.mag.1"
p298
ssg111
(dp299
I0
F0.0064348829368264596
sI1
Fnan
sI2
Fnan
sI3
Fnan
sI4
Fnan
sI5
Fnan
sI6
Fnan
sI7
Fnan
sI8
Fnan
sI9
Fnan
ssg113
(dp300
I0
F1255.5283333333332
sI1
F1188.6113333333333
sI2
F1160.0983333333331
sI3
F1153.6656666666668
sI4
F1168.1660000000002
sI5
F1193.4180000000001
sI6
F1120.5983333333331
sI7
F1223.2023333333334
sI8
F1286.105
sI9
F1220.2753333333335
ssg115
(dp301
I0
F0.04404744916312158
sI1
Fnan
sI2
Fnan
sI3
Fnan
sI4
Fnan
sI5
Fnan
sI6
Fnan
sI7
Fnan
sI8
Fnan
sI9
Fnan
ssg117
(dp302
I0
S"z'"
p303
sI1
S"z'"
p304
sI2
S"z'"
p305
sI3
S"z'"
p306
sI4
S"z'"
p307
sI5
S"z'"
p308
sI6
S"z'"
p309
sI7
S"z'"
p310
sI8
S"z'"
p311
sI9
S"z'"
p312
ssg129
(dp313
I0
F0.00308532082078222
sI1
Fnan
sI2
Fnan
sI3
Fnan
sI4
Fnan
sI5
Fnan
sI6
Fnan
sI7
Fnan
sI8
Fnan
sI9
Fnan
ssg131
(dp314
I0
F4.420047
sI1
F-3.692639
sI2
F4.167202
sI3
F1.493969
sI4
F-5.371058
sI5
F4.827178
sI6
F1.117226
sI7
F3.258425
sI8
F3.315778
sI9
F3.308908
ssg133
(dp315
I0
F1.5012810740338394
sI1
Fnan
sI2
Fnan
sI3
Fnan
sI4
Fnan
sI5
Fnan
sI6
Fnan
sI7
Fnan
sI8
Fnan
sI9
Fnan
ssg135
(dp316
I0
F2458324.8811516203
sI1
Fnan
sI2
Fnan
sI3
Fnan
sI4
Fnan
sI5
Fnan
sI6
Fnan
sI7
Fnan
sI8
Fnan
sI9
Fnan
ssg137
(dp317
I0
F0.00308532082078222
sI1
Fnan
sI2
Fnan
sI3
Fnan
sI4
Fnan
sI5
Fnan
sI6
Fnan
sI7
Fnan
sI8
Fnan
sI9
Fnan
ssg139
(dp318
I0
F17.27925
sI1
F17.04007
sI2
F49.66529
sI3
F18.75739
sI4
F52.55426
sI5
F47.68352
sI6
F55.18597
sI7
F53.80738
sI8
F16.81383
sI9
F17.41293
ssg141
(dp319
I0
F11.906
sI1
F11.967
sI2
F12.012
sI3
F11.996
sI4
F11.978
sI5
F11.974
sI6
F12.03
sI7
F11.95
sI8
F11.9
sI9
F11.936
ssg143
(dp320
I0
F0.3741846148654007
sI1
Fnan
sI2
Fnan
sI3
Fnan
sI4
Fnan
sI5
Fnan
sI6
Fnan
sI7
Fnan
sI8
Fnan
sI9
Fnan
sssS'g'
p321
(dp322
g3
(dp323
I0
F0.8708500143196016
sI1
Fnan
sI2
Fnan
sI3
Fnan
sI4
Fnan
ssg5
(dp324
I0
S'NoError'
p325
sI1
S'NoError'
p326
sI2
S'NoError'
p327
sI3
S'NoError'
p328
sI4
S'NoError'
p329
ssg17
(dp330
I0
F0.002
sI1
F0.002
sI2
F0.002
sI3
F0.002
sI4
F0.002
ssg19
(dp331
I0
F0.8821236300721019
sI1
F0.8787549740465839
sI2
F0.8856317894295543
sI3
F0.8837097316235705
sI4
F0.8756293617766057
ssg21
(dp332
I0
F0.00399368984065586
sI1
Fnan
sI2
Fnan
sI3
Fnan
sI4
Fnan
ssg23
(dp333
I0
F0.8811698973896833
sI1
Fnan
sI2
Fnan
sI3
Fnan
sI4
Fnan
ssg25
(dp334
I0
F11.392
sI1
F11.441
sI2
F11.423
sI3
F11.445
sI4
F11.462
ssg27
(dp335
I0
F57.6961
sI1
F57.59127
sI2
F58.84556
sI3
F56.50781
sI4
F58.30459
ssg29
(dp336
I0
F2458324.8780324073
sI1
F2458324.8802546295
sI2
F2458324.878773148
sI3
F2458324.8810069445
sI4
F2458324.879513889
ssg31
(dp337
I0
F3.3497475999999997
sI1
Fnan
sI2
Fnan
sI3
Fnan
sI4
Fnan
ssg33
(dp338
I0
F2.4793284
sI1
Fnan
sI2
Fnan
sI3
Fnan
sI4
Fnan
ssg35
(dp339
I0
F0.8708018282012299
sI1
F0.8730523467831085
sI2
F0.8682294295028281
sI3
F0.8730997259493585
sI4
F0.8690667411614837
ssg37
(dp340
I0
F0.0019980650908942286
sI1
Fnan
sI2
Fnan
sI3
Fnan
sI4
Fnan
ssg39
(dp341
I0
F0.8371753999999998
sI1
Fnan
sI2
Fnan
sI3
Fnan
sI4
Fnan
ssg41
(dp342
I0
g325
sI1
g326
sI2
g327
sI3
g328
sI4
g329
ssg43
(dp343
I0
F0.00299397711613486
sI1
Fnan
sI2
Fnan
sI3
Fnan
sI4
Fnan
ssg45
(dp344
I0
F0.029063723092542845
sI1
Fnan
sI2
Fnan
sI3
Fnan
sI4
Fnan
ssg47
(dp345
I0
F-0.41898440000000015
sI1
Fnan
sI2
Fnan
sI3
Fnan
sI4
Fnan
ssg49
(dp346
I0
F1.5105978190013338
sI1
F1.5101075510720594
sI2
F1.5063899686307451
sI3
F1.5003283373844487
sI4
F1.509712545970298
ssg51
(dp347
I0
g325
sI1
g326
sI2
g327
sI3
g328
sI4
g329
ssg53
(dp348
I0
F57.17236
sI1
F59.25888
sI2
F56.62519
sI3
F57.57339
sI4
F58.38753
ssg55
(dp349
I0
F11.0066
sI1
Fnan
sI2
Fnan
sI3
Fnan
sI4
Fnan
ssg57
(dp350
I0
F0.7188078210745081
sI1
Fnan
sI2
Fnan
sI3
Fnan
sI4
Fnan
ssg59
(dp351
I0
F3.808813
sI1
F5.311632
sI2
F4.866
sI3
F-3.940409
sI4
F2.350606
ssg61
(dp352
I0
F11.375799999999998
sI1
Fnan
sI2
Fnan
sI3
Fnan
sI4
Fnan
ssg63
(dp353
I0
g325
sI1
g326
sI2
g327
sI3
g328
sI4
g329
ssg65
(dp354
I0
F7348.6
sI1
F6985.38
sI2
F7182.503333333333
sI3
F6985.8933333333325
sI4
F6870.6900000000005
ssg67
(dp355
I0
F1.052511
sI1
F1.055984
sI2
F1.05365
sI3
F1.057192
sI4
F1.0548030000000002
ssg69
(dp356
I0
F6329.843333333333
sI1
F6053.386666666667
sI2
F6166.0233333333335
sI3
F6039.326666666666
sI4
F5987.25
ssg71
(dp357
I0
F10331.313333333334
sI1
F9844.97
sI2
F10054.043333333333
sI3
F9771.053333333333
sI4
F9705.896666666667
ssg73
(dp358
I0
F56.30843
sI1
F57.65352
sI2
F57.24779
sI3
F56.98027
sI4
F56.80721
ssg75
(dp359
I0
F11.497
sI1
F11.545
sI2
F11.525
sI3
F11.548
sI4
F11.557
ssg77
(dp360
I0
F0.002
sI1
F0.002
sI2
F0.002
sI3
F0.002
sI4
F0.002
ssg79
(dp361
I0
F0.8708500143196016
sI1
Fnan
sI2
Fnan
sI3
Fnan
sI4
Fnan
ssg81
(dp362
I0
F11.534400000000002
sI1
Fnan
sI2
Fnan
sI3
Fnan
sI4
Fnan
ssg83
(dp363
I0
F11.334
sI1
F11.39
sI2
F11.359
sI3
F11.389
sI4
F11.407
ssg85
(dp364
I0
F4.584544
sI1
F4.663693
sI2
F4.962607
sI3
F4.858647
sI4
F-2.320753
ssg87
(dp365
I0
F0.02730018314956889
sI1
Fnan
sI2
Fnan
sI3
Fnan
sI4
Fnan
ssg89
(dp366
I0
F0.716049135987469
sI1
F0.7193417447250554
sI2
F0.7154592451233466
sI3
F0.7208146909818892
sI4
F0.7223742885547807
ssg91
(dp367
I0
F30.0
sI1
F30.0
sI2
F30.0
sI3
F30.0
sI4
F30.0
ssg93
(dp368
I0
F0.003
sI1
F0.003
sI2
F0.003
sI3
F0.003
sI4
F0.003
ssg95
(dp369
I0
F0.002
sI1
F0.002
sI2
F0.002
sI3
F0.002
sI4
F0.002
ssg97
(dp370
I0
F2.972095
sI1
F5.499817
sI2
F-3.388345
sI3
F-4.445711
sI4
F-2.732778
ssg99
(dp371
I0
S"KIC8462852-20180725at090417_-25-1X1-030-g'_cal.fts.mag.1"
p372
sI1
S"KIC8462852-20180725at090734_-25-1X1-030-g'_cal.fts.mag.1"
p373
sI2
S"KIC8462852-20180725at090526_-25-1X1-030-g'_cal.fts.mag.1"
p374
sI3
S"KIC8462852-20180725at090839_-25-1X1-030-g'_cal.fts.mag.1"
p375
sI4
S"KIC8462852-20180725at090630_-25-1X1-030-g'_cal.fts.mag.1"
p376
ssg111
(dp377
I0
F0.004299116544798553
sI1
Fnan
sI2
Fnan
sI3
Fnan
sI4
Fnan
ssg113
(dp378
I0
F6969.246666666667
sI1
F6659.566666666667
sI2
F6772.933333333333
sI3
F6634.473333333333
sI4
F6536.493333333333
ssg115
(dp379
I0
F0.023954122818421148
sI1
Fnan
sI2
Fnan
sI3
Fnan
sI4
Fnan
ssg117
(dp380
I0
S"g'"
p381
sI1
S"g'"
p382
sI2
S"g'"
p383
sI3
S"g'"
p384
sI4
S"g'"
p385
ssg129
(dp386
I0
F0.0022339046833543957
sI1
Fnan
sI2
Fnan
sI3
Fnan
sI4
Fnan
ssg131
(dp387
I0
F4.848387
sI1
F2.960426
sI2
F-4.336831
sI3
F4.829993
sI4
F-4.116098
ssg133
(dp388
I0
F1.5074272444117771
sI1
Fnan
sI2
Fnan
sI3
Fnan
sI4
Fnan
ssg135
(dp389
I0
F2458324.879513889
sI1
Fnan
sI2
Fnan
sI3
Fnan
sI4
Fnan
ssg137
(dp390
I0
F0.0022339046833543957
sI1
Fnan
sI2
Fnan
sI3
Fnan
sI4
Fnan
ssg139
(dp391
I0
F58.50378
sI1
F60.32932
sI2
F59.74956
sI3
F58.91994
sI4
F61.47231
ssg141
(dp392
I0
F10.965
sI1
F11.017
sI2
F10.994
sI3
F11.025
sI4
F11.032
ssg143
(dp393
I0
F0.8708500143196016
sI1
Fnan
sI2
Fnan
sI3
Fnan
sI4
Fnan
sssS'V'
p394
(dp395
g3
(dp396
I0
F0.6936285289259301
sI1
Fnan
sI2
Fnan
sI3
Fnan
sI4
Fnan
sI5
Fnan
ssg5
(dp397
I0
S'NoError'
p398
sI1
S'NoError'
p399
sI2
S'NoError'
p400
sI3
S'NoError'
p401
sI4
S'NoError'
p402
sI5
S'NoError'
p403
ssg17
(dp404
I0
F0.002
sI1
F0.002
sI2
F0.003
sI3
F0.002
sI4
F0.003
sI5
F0.002
ssg19
(dp405
I0
F0.8863274741180986
sI1
F0.889483763529016
sI2
F0.8891323278844998
sI3
F0.8888209108683762
sI4
F0.8875792546216906
sI5
F0.8895411908326134
ssg21
(dp406
I0
F0.0012743723918727807
sI1
Fnan
sI2
Fnan
sI3
Fnan
sI4
Fnan
sI5
Fnan
ssg23
(dp407
I0
F0.8884808203090491
sI1
Fnan
sI2
Fnan
sI3
Fnan
sI4
Fnan
sI5
Fnan
ssg25
(dp408
I0
F11.451
sI1
F11.428
sI2
F11.515
sI3
F11.42
sI4
F11.514
sI5
F11.351
ssg27
(dp409
I0
F58.83791
sI1
F55.63063
sI2
F60.12206
sI3
F65.92167
sI4
F65.84653
sI5
F37.50312
ssg29
(dp410
I0
F2458324.8754745373
sI1
F2458324.8769675926
sI2
F2458324.8762152777
sI3
F2458324.873900463
sI4
F2458324.874641204
sI5
F2458324.8930092594
ssg31
(dp411
I0
F-0.8306338333333333
sI1
Fnan
sI2
Fnan
sI3
Fnan
sI4
Fnan
sI5
Fnan
ssg33
(dp412
I0
F3.067516833333334
sI1
Fnan
sI2
Fnan
sI3
Fnan
sI4
Fnan
sI5
Fnan
ssg35
(dp413
I0
F0.6931326074286153
sI1
F0.6940959103280692
sI2
F0.6944367073835866
sI3
F0.6928801252339213
sI4
F0.6936545487268834
sI5
F0.6935712744545048
ssg37
(dp414
I0
F0.0005294020395277492
sI1
Fnan
sI2
Fnan
sI3
Fnan
sI4
Fnan
sI5
Fnan
ssg39
(dp415
I0
F0.9786158333333331
sI1
Fnan
sI2
Fnan
sI3
Fnan
sI4
Fnan
sI5
Fnan
ssg41
(dp416
I0
g398
sI1
g399
sI2
g400
sI3
g401
sI4
g402
sI5
g403
ssg43
(dp417
I0
F0.0031528792913756336
sI1
Fnan
sI2
Fnan
sI3
Fnan
sI4
Fnan
sI5
Fnan
ssg45
(dp418
I0
F0.06327637789886532
sI1
Fnan
sI2
Fnan
sI3
Fnan
sI4
Fnan
sI5
Fnan
ssg47
(dp419
I0
F0.7188918333333333
sI1
Fnan
sI2
Fnan
sI3
Fnan
sI4
Fnan
sI5
Fnan
ssg49
(dp420
I0
F1.503892300844298
sI1
F1.497103419596302
sI2
F1.4872163240452814
sI3
F1.4923397798204856
sI4
F1.5010747742779134
sI5
F1.4994836191323722
ssg51
(dp421
I0
g398
sI1
g399
sI2
g400
sI3
g401
sI4
g402
sI5
g403
ssg53
(dp422
I0
F59.50438
sI1
F57.02031
sI2
F62.20878
sI3
F66.89853
sI4
F67.85919
sI5
F38.26791
ssg55
(dp423
I0
F10.777666666666667
sI1
Fnan
sI2
Fnan
sI3
Fnan
sI4
Fnan
sI5
Fnan
ssg57
(dp424
I0
F0.7186876281124613
sI1
Fnan
sI2
Fnan
sI3
Fnan
sI4
Fnan
sI5
Fnan
ssg59
(dp425
I0
F4.680258
sI1
F5.12445
sI2
F5.424104
sI3
F-2.641477
sI4
F2.787101
sI5
F3.030665
ssg61
(dp426
I0
F11.136499999999998
sI1
Fnan
sI2
Fnan
sI3
Fnan
sI4
Fnan
sI5
Fnan
ssg63
(dp427
I0
g398
sI1
g399
sI2
g400
sI3
g401
sI4
g402
sI5
g403
ssg65
(dp428
I0
F8770.59
sI1
F8974.243333333334
sI2
F8271.97
sI3
F9050.890000000001
sI4
F8283.123333333333
sI5
F9640.316666666668
ssg67
(dp429
I0
F1.048762
sI1
F1.050986
sI2
F1.049865
sI3
F1.046485
sI4
F1.047552
sI5
F1.078508
ssg69
(dp430
I0
F7532.1066666666675
sI1
F7698.29
sI2
F7143.653333333334
sI3
F7795.666666666667
sI4
F7110.806666666667
sI5
F8256.68
ssg71
(dp431
I0
F12258.75
sI1
F12480.253333333332
sI2
F11463.183333333332
sI3
F12570.393333333333
sI4
F11553.72
sI5
F13418.126666666667
ssg73
(dp432
I0
F58.63008
sI1
F55.84611
sI2
F58.34829
sI3
F66.62725
sI4
F66.34121
sI5
F38.8938
ssg75
(dp433
I0
F11.308
sI1
F11.284
sI2
F11.365
sI3
F11.27
sI4
F11.37
sI5
F11.208
ssg77
(dp434
I0
F0.002
sI1
F0.002
sI2
F0.002
sI3
F0.002
sI4
F0.002
sI5
F0.002
ssg79
(dp435
I0
F0.6936285289259301
sI1
Fnan
sI2
Fnan
sI3
Fnan
sI4
Fnan
sI5
Fnan
ssg81
(dp436
I0
F11.300833333333335
sI1
Fnan
sI2
Fnan
sI3
Fnan
sI4
Fnan
sI5
Fnan
ssg83
(dp437
I0
F11.142
sI1
F11.118
sI2
F11.206
sI3
F11.108
sI4
F11.205
sI5
F11.04
ssg85
(dp438
I0
F5.83059
sI1
F-3.230704
sI2
F-2.268449
sI3
F-3.681463
sI4
F1.857916
sI5
F-3.491693
ssg87
(dp439
I0
F0.06347808020621526
sI1
Fnan
sI2
Fnan
sI3
Fnan
sI4
Fnan
sI5
Fnan
ssg89
(dp440
I0
F0.7163426590341558
sI1
F0.7176388353086509
sI2
F0.7239521490078787
sI3
F0.7211104490405673
sI4
F0.7169292560493078
sI5
F0.7161524202342077
ssg91
(dp441
I0
F30.0
sI1
F30.0
sI2
F30.0
sI3
F30.0
sI4
F30.0
sI5
F30.0
ssg93
(dp442
I0
F0.002
sI1
F0.002
sI2
F0.002
sI3
F0.002
sI4
F0.002
sI5
F0.002
ssg95
(dp443
I0
F0.002
sI1
F0.002
sI2
F0.002
sI3
F0.002
sI4
F0.002
sI5
F0.002
ssg97
(dp444
I0
F4.654053
sI1
F4.325727
sI2
F-3.626426
sI3
F5.368795
sI4
F-4.074141
sI5
F-2.334657
ssg99
(dp445
I0
S'KIC8462852-20180725at090041_-25-1X1-030-V_cal.fts.mag.1'
p446
sI1
S'KIC8462852-20180725at090250_-25-1X1-030-V_cal.fts.mag.1'
p447
sI2
S'KIC8462852-20180725at090145_-25-1X1-030-V_cal.fts.mag.1'
p448
sI3
S'KIC8462852-20180725at085818_-25-1X1-030-V_cal.fts.mag.1'
p449
sI4
S'KIC8462852-20180725at085929_-25-1X1-030-V_cal.fts.mag.1'
p450
sI5
S'KIC8462852-20180725at092549_-25-1X1-030-V_cal.fts.mag.1'
p451
ssg111
(dp452
I0
F0.0061252374839680795
sI1
Fnan
sI2
Fnan
sI3
Fnan
sI4
Fnan
sI5
Fnan
ssg113
(dp453
I0
F6598.956666666667
sI1
F6744.943333333333
sI2
F6221.876666666666
sI3
F6794.14
sI4
F6230.786666666667
sI5
F7239.756666666667
ssg115
(dp454
I0
F0.061326720658018585
sI1
Fnan
sI2
Fnan
sI3
Fnan
sI4
Fnan
sI5
Fnan
ssg117
(dp455
I0
g394
sI1
g394
sI2
g394
sI3
g394
sI4
g394
sI5
g394
ssg129
(dp456
I0
F0.0005799308780771797
sI1
Fnan
sI2
Fnan
sI3
Fnan
sI4
Fnan
sI5
Fnan
ssg131
(dp457
I0
F-2.219717
sI1
F4.001959
sI2
F-2.990868
sI3
F4.844447
sI4
F4.667862
sI5
F-2.431988
ssg133
(dp458
I0
F1.4968517029527755
sI1
Fnan
sI2
Fnan
sI3
Fnan
sI4
Fnan
sI5
Fnan
ssg135
(dp459
I0
F2458324.8758449075
sI1
Fnan
sI2
Fnan
sI3
Fnan
sI4
Fnan
sI5
Fnan
ssg137
(dp460
I0
F0.0005799308780771797
sI1
Fnan
sI2
Fnan
sI3
Fnan
sI4
Fnan
sI5
Fnan
ssg139
(dp461
I0
F61.93527
sI1
F58.93913
sI2
F65.27626
sI3
F70.39314
sI4
F70.56039
sI5
F40.95008
ssg141
(dp462
I0
F10.779
sI1
F10.759
sI2
F10.852
sI3
F10.752
sI4
F10.843
sI5
F10.681
ssg143
(dp463
I0
F0.6936285289259301
sI1
Fnan
sI2
Fnan
sI3
Fnan
sI4
Fnan
sI5
Fnan
sss.