(dp0
S'i'
p1
(dp2
S'sigmean'
p3
(dp4
I0
F0.4385118184779406
sI1
Fnan
sI2
Fnan
sI3
Fnan
sI4
Fnan
sI5
Fnan
sI6
Fnan
sI7
Fnan
sI8
Fnan
sI9
Fnan
sI10
Fnan
sI11
Fnan
ssS'ref3flag'
p5
(dp6
I0
S'NoError'
p7
sI1
S'NoError'
p8
sI2
S'NoError'
p9
sI3
S'NoError'
p10
sI4
S'NoError'
p11
sI5
S'NoError'
p12
sI6
S'NoError'
p13
sI7
S'NoError'
p14
sI8
S'NoError'
p15
sI9
S'NoError'
p16
sI10
S'NoError'
p17
sI11
S'NoError'
p18
ssS'tabbyerr'
p19
(dp20
I0
F0.003
sI1
F0.004
sI2
F0.005
sI3
F0.003
sI4
F0.003
sI5
F0.003
sI6
F0.003
sI7
F0.003
sI8
F0.003
sI9
F0.003
sI10
F0.003
sI11
F0.003
ssS'ref2rel'
p21
(dp22
I0
F0.9139425195755078
sI1
F0.9117850856583065
sI2
F0.9143294888312093
sI3
F0.9095337570809238
sI4
F0.910332711475665
sI5
F0.907761204072476
sI6
F0.9120483380115046
sI7
F0.9111690539948208
sI8
F0.9165217194064906
sI9
F0.9127316660829743
sI10
F0.9072109737785516
sI11
F0.9100343982284369
ssS'ref2err'
p23
(dp24
I0
F0.0027122473817896967
sI1
Fnan
sI2
Fnan
sI3
Fnan
sI4
Fnan
sI5
Fnan
sI6
Fnan
sI7
Fnan
sI8
Fnan
sI9
Fnan
sI10
Fnan
sI11
Fnan
ssS'ref2mean'
p25
(dp26
I0
F0.911450076349739
sI1
Fnan
sI2
Fnan
sI3
Fnan
sI4
Fnan
sI5
Fnan
sI6
Fnan
sI7
Fnan
sI8
Fnan
sI9
Fnan
sI10
Fnan
sI11
Fnan
ssS'tabbymag'
p27
(dp28
I0
F11.897
sI1
F12.52
sI2
F12.851
sI3
F11.861
sI4
F11.866
sI5
F11.864
sI6
F11.86
sI7
F11.864
sI8
F11.883
sI9
F11.855
sI10
F11.877
sI11
F11.877
ssS'tabbybkg'
p29
(dp30
I0
F13.81422
sI1
F16.36117
sI2
F15.65938
sI3
F15.68751
sI4
F14.26083
sI5
F15.3012
sI6
F14.55331
sI7
F15.96538
sI8
F14.36482
sI9
F15.00932
sI10
F14.55568
sI11
F14.88806
ssS'JD'
p31
(dp32
I0
F2458370.6937037036
sI1
F2458370.653414352
sI2
F2458370.6541435183
sI3
F2458370.6749189813
sI4
F2458370.692210648
sI5
F2458370.673449074
sI6
F2458370.675659722
sI7
F2458370.6727083335
sI8
F2458370.692962963
sI9
F2458370.674178241
sI10
F2458370.6914814813
sI11
F2458370.6944444445
ssS'ref3rmsmean'
p33
(dp34
I0
F2.2160482666666668
sI1
Fnan
sI2
Fnan
sI3
Fnan
sI4
Fnan
sI5
Fnan
sI6
Fnan
sI7
Fnan
sI8
Fnan
sI9
Fnan
sI10
Fnan
sI11
Fnan
ssS'ref1rmsmean'
p35
(dp36
I0
F0.8888877583333333
sI1
Fnan
sI2
Fnan
sI3
Fnan
sI4
Fnan
sI5
Fnan
sI6
Fnan
sI7
Fnan
sI8
Fnan
sI9
Fnan
sI10
Fnan
sI11
Fnan
ssS'relflux'
p37
(dp38
I0
F0.4395228221552751
sI1
F0.43347632919331114
sI2
F0.4365859304425474
sI3
F0.43819866620728
sI4
F0.43951832128897955
sI5
F0.43905681366981336
sI6
F0.44003192574780897
sI7
F0.4362629203100714
sI8
F0.4370069657923424
sI9
F0.4394246824850333
sI10
F0.43879948801057916
sI11
F0.43922146714761595
ssS'sigerr'
p39
(dp40
I0
F0.0012501575009645886
sI1
Fnan
sI2
Fnan
sI3
Fnan
sI4
Fnan
sI5
Fnan
sI6
Fnan
sI7
Fnan
sI8
Fnan
sI9
Fnan
sI10
Fnan
sI11
Fnan
ssS'tabbyrmsmean'
p41
(dp42
I0
F3.1174111666666664
sI1
Fnan
sI2
Fnan
sI3
Fnan
sI4
Fnan
sI5
Fnan
sI6
Fnan
sI7
Fnan
sI8
Fnan
sI9
Fnan
sI10
Fnan
sI11
Fnan
ssS'tabbyflag'
p43
(dp44
I0
g7
sI1
g8
sI2
g9
sI3
g10
sI4
g11
sI5
g12
sI6
g13
sI7
g14
sI8
g15
sI9
g16
sI10
g17
sI11
g18
ssS'ref1err'
p45
(dp46
I0
F0.006369507366252242
sI1
Fnan
sI2
Fnan
sI3
Fnan
sI4
Fnan
sI5
Fnan
sI6
Fnan
sI7
Fnan
sI8
Fnan
sI9
Fnan
sI10
Fnan
sI11
Fnan
ssS'ref2magmeanerr'
p47
(dp48
I0
F0.3215141615241946
sI1
Fnan
sI2
Fnan
sI3
Fnan
sI4
Fnan
sI5
Fnan
sI6
Fnan
sI7
Fnan
sI8
Fnan
sI9
Fnan
sI10
Fnan
sI11
Fnan
ssS'ref2rmsmean'
p49
(dp50
I0
F2.6284050833333334
sI1
Fnan
sI2
Fnan
sI3
Fnan
sI4
Fnan
sI5
Fnan
sI6
Fnan
sI7
Fnan
sI8
Fnan
sI9
Fnan
sI10
Fnan
sI11
Fnan
ssS'ref3rel'
p51
(dp52
I0
F1.5063253144569535
sI1
F1.5295261547712593
sI2
F1.4851987740910642
sI3
F1.4958175408547485
sI4
F1.4947493497448725
sI5
F1.502108333702552
sI6
F1.49359780201919
sI7
F1.4987504096208593
sI8
F1.4967614719732307
sI9
F1.4939894822265825
sI10
F1.5050398725671907
sI11
F1.5001189263763384
ssS'ref1flag'
p53
(dp54
I0
g7
sI1
g8
sI2
g9
sI3
g10
sI4
g11
sI5
g12
sI6
g13
sI7
g14
sI8
g15
sI9
g16
sI10
g17
sI11
g18
ssS'ref2bkg'
p55
(dp56
I0
F16.18022
sI1
F17.47713
sI2
F17.24695
sI3
F16.56116
sI4
F16.60945
sI5
F17.5155
sI6
F16.54854
sI7
F16.50014
sI8
F14.80425
sI9
F15.67494
sI10
F15.72429
sI11
F16.88358
ssS'ref3magmean'
p57
(dp58
I0
F10.83725
sI1
Fnan
sI2
Fnan
sI3
Fnan
sI4
Fnan
sI5
Fnan
sI6
Fnan
sI7
Fnan
sI8
Fnan
sI9
Fnan
sI10
Fnan
sI11
Fnan
ssS'ref1mean'
p59
(dp60
I0
F0.6967038665685047
sI1
Fnan
sI2
Fnan
sI3
Fnan
sI4
Fnan
sI5
Fnan
sI6
Fnan
sI7
Fnan
sI8
Fnan
sI9
Fnan
sI10
Fnan
sI11
Fnan
ssS'ref1rms'
p61
(dp62
I0
F2.826102
sI1
F1.613696
sI2
F3.838552
sI3
F3.690887
sI4
F3.692847
sI5
F-2.333972
sI6
F-2.621382
sI7
F-2.823511
sI8
F4.257955
sI9
F-0.8418289
sI10
F2.712486
sI11
F-3.345178
ssS'ref2magmean'
p63
(dp64
I0
F11.178416666666665
sI1
Fnan
sI2
Fnan
sI3
Fnan
sI4
Fnan
sI5
Fnan
sI6
Fnan
sI7
Fnan
sI8
Fnan
sI9
Fnan
sI10
Fnan
sI11
Fnan
ssS'ref2flag'
p65
(dp66
I0
g7
sI1
g8
sI2
g9
sI3
g10
sI4
g11
sI5
g12
sI6
g13
sI7
g14
sI8
g15
sI9
g16
sI10
g17
sI11
g18
ssS'ref2'
p67
(dp68
I0
F9373.406666666668
sI1
F5342.446666666667
sI2
F3919.64
sI3
F9681.0
sI4
F9613.706666666667
sI5
F9623.7
sI6
F9671.556666666667
sI7
F9707.75
sI8
F9562.869999999999
sI9
F9734.16
sI10
F9514.636666666665
sI11
F9525.869999999999
ssS'airmass'
p69
(dp70
I0
F1.0050370000000002
sI1
F1.017787
sI2
F1.017218
sI3
F1.006451
sI4
F1.004864
sI5
F1.006894
sI6
F1.00625
sI7
F1.007134
sI8
F1.004945
sI9
F1.0066680000000001
sI10
F1.004796
sI11
F1.005141
ssS'ref1'
p71
(dp72
I0
F7673.176666666666
sI1
F4325.196666666667
sI2
F3249.788666666667
sI3
F8036.6466666666665
sI4
F7975.543333333333
sI5
F7981.04
sI6
F8006.486666666667
sI7
F8022.0599999999995
sI8
F7842.156666666667
sI9
F8047.17
sI10
F7883.29
sI11
F7879.8566666666675
ssS'ref3'
p73
(dp74
I0
F12838.85
sI1
F7393.456666666667
sI2
F5324.013333333333
sI3
F13251.183333333332
sI4
F13145.76
sI5
F13222.113333333335
sI6
F13201.943333333333
sI7
F13286.28
sI8
F13025.586666666666
sI9
F13282.56
sI10
F13092.286666666665
sI11
F13055.33
ssS'ref1bkg'
p75
(dp76
I0
F15.89892
sI1
F18.02174
sI2
F17.69079
sI3
F15.38884
sI4
F15.30667
sI5
F16.87408
sI6
F16.63292
sI7
F16.81062
sI8
F15.76947
sI9
F16.48019
sI10
F16.14631
sI11
F16.698
ssS'ref1mag'
p77
(dp78
I0
F11.288
sI1
F11.91
sI2
F12.22
sI3
F11.237
sI4
F11.246
sI5
F11.245
sI6
F11.241
sI7
F11.239
sI8
F11.264
sI9
F11.236
sI10
F11.258
sI11
F11.259
ssS'ref3magerr'
p79
(dp80
I0
F0.002
sI1
F0.002
sI2
F0.003
sI3
F0.002
sI4
F0.002
sI5
F0.002
sI6
F0.002
sI7
F0.002
sI8
F0.002
sI9
F0.002
sI10
F0.002
sI11
F0.002
ssS'tabbymagmean'
p81
(dp82
I0
F0.43809219437088814
sI1
Fnan
sI2
Fnan
sI3
Fnan
sI4
Fnan
sI5
Fnan
sI6
Fnan
sI7
Fnan
sI8
Fnan
sI9
Fnan
sI10
Fnan
sI11
Fnan
ssS'ref1magmean'
p83
(dp84
I0
F11.386916666666666
sI1
Fnan
sI2
Fnan
sI3
Fnan
sI4
Fnan
sI5
Fnan
sI6
Fnan
sI7
Fnan
sI8
Fnan
sI9
Fnan
sI10
Fnan
sI11
Fnan
ssS'ref2mag'
p85
(dp86
I0
F11.07
sI1
F11.681
sI2
F12.017
sI3
F11.035
sI4
F11.043
sI5
F11.042
sI6
F11.036
sI7
F11.032
sI8
F11.049
sI9
F11.029
sI10
F11.054
sI11
F11.053
ssS'ref3rms'
p87
(dp88
I0
F-3.435537
sI1
F3.742066
sI2
F0.3036622
sI3
F4.342418
sI4
F1.918404
sI5
F3.526758
sI6
F3.241776
sI7
F3.620829
sI8
F3.781292
sI9
F4.229136
sI10
F-2.363107
sI11
F3.684882
ssS'ref3magmeanerr'
p89
(dp90
I0
F0.3216395851372659
sI1
Fnan
sI2
Fnan
sI3
Fnan
sI4
Fnan
sI5
Fnan
sI6
Fnan
sI7
Fnan
sI8
Fnan
sI9
Fnan
sI10
Fnan
sI11
Fnan
ssS'ref1rel'
p91
(dp92
I0
F0.690895732191101
sI1
F0.6792131745137303
sI2
F0.7031394513568949
sI3
F0.7009054959878075
sI4
F0.700855028823171
sI5
F0.6986873160129704
sI6
F0.7000665981740151
sI7
F0.6977515468145428
sI8
F0.6943508166486806
sI9
F0.6992455919001491
sI10
F0.6974226332139845
sI11
F0.6979130131850095
ssS'exposure'
p93
(dp94
I0
F30.0
sI1
F30.0
sI2
F30.0
sI3
F30.0
sI4
F30.0
sI5
F30.0
sI6
F30.0
sI7
F30.0
sI8
F30.0
sI9
F30.0
sI10
F30.0
sI11
F30.0
ssS'ref1magerr'
p95
(dp96
I0
F0.002
sI1
F0.003
sI2
F0.004
sI3
F0.002
sI4
F0.002
sI5
F0.002
sI6
F0.002
sI7
F0.002
sI8
F0.002
sI9
F0.002
sI10
F0.002
sI11
F0.002
ssS'ref2magerr'
p97
(dp98
I0
F0.002
sI1
F0.003
sI2
F0.003
sI3
F0.002
sI4
F0.002
sI5
F0.002
sI6
F0.002
sI7
F0.002
sI8
F0.002
sI9
F0.002
sI10
F0.002
sI11
F0.002
ssS'ref2rms'
p99
(dp100
I0
F-2.073201
sI1
F3.600671
sI2
F4.649376
sI3
F2.227545
sI4
F2.302023
sI5
F-1.503156
sI6
F3.384166
sI7
F3.353829
sI8
F4.405254
sI9
F3.414432
sI10
F4.046478
sI11
F3.733444
ssS'name'
p101
(dp102
I0
S"KIC8462852-20180909at043856_-25-1X1-030-i'_cal.fts.mag.1"
p103
sI1
S"KIC8462852-20180909at034053_-25-1X1-030-i'_cal.fts.mag.1"
p104
sI2
S"KIC8462852-20180909at034158_-25-1X1-030-i'_cal.fts.mag.1"
p105
sI3
S"KIC8462852-20180909at041153_-25-1X1-030-i'_cal.fts.mag.1"
p106
sI4
S"KIC8462852-20180909at043647_-25-1X1-030-i'_cal.fts.mag.1"
p107
sI5
S"KIC8462852-20180909at040945_-25-1X1-030-i'_cal.fts.mag.1"
p108
sI6
S"KIC8462852-20180909at041257_-25-1X1-030-i'_cal.fts.mag.1"
p109
sI7
S"KIC8462852-20180909at040840_-25-1X1-030-i'_cal.fts.mag.1"
p110
sI8
S"KIC8462852-20180909at043752_-25-1X1-030-i'_cal.fts.mag.1"
p111
sI9
S"KIC8462852-20180909at041049_-25-1X1-030-i'_cal.fts.mag.1"
p112
sI10
S"KIC8462852-20180909at043542_-25-1X1-030-i'_cal.fts.mag.1"
p113
sI11
S"KIC8462852-20180909at044000_-25-1X1-030-i'_cal.fts.mag.1"
p114
ssS'ref3err'
p115
(dp116
I0
F0.010848702053302961
sI1
Fnan
sI2
Fnan
sI3
Fnan
sI4
Fnan
sI5
Fnan
sI6
Fnan
sI7
Fnan
sI8
Fnan
sI9
Fnan
sI10
Fnan
sI11
Fnan
ssS'tabby'
p117
(dp118
I0
F4378.443333333333
sI1
F2465.1943333333334
sI2
F1818.1536666666666
sI3
F4523.5
sI4
F4502.866666666667
sI5
F4511.58
sI6
F4529.3933333333325
sI7
F4510.39
sI8
F4432.796666666666
sI9
F4550.08
sI10
F4459.696666666667
sI11
F4459.716666666666
ssS'ref1magmeanerr'
p119
(dp120
I0
F0.32388815643488417
sI1
Fnan
sI2
Fnan
sI3
Fnan
sI4
Fnan
sI5
Fnan
sI6
Fnan
sI7
Fnan
sI8
Fnan
sI9
Fnan
sI10
Fnan
sI11
Fnan
ssS'filter'
p121
(dp122
I0
S"i'"
p123
sI1
S"i'"
p124
sI2
S"i'"
p125
sI3
S"i'"
p126
sI4
S"i'"
p127
sI5
S"i'"
p128
sI6
S"i'"
p129
sI7
S"i'"
p130
sI8
S"i'"
p131
sI9
S"i'"
p132
sI10
S"i'"
p133
sI11
S"i'"
p134
ssS'tabbymagerr'
p135
(dp136
I0
F0.0019172653629200285
sI1
Fnan
sI2
Fnan
sI3
Fnan
sI4
Fnan
sI5
Fnan
sI6
Fnan
sI7
Fnan
sI8
Fnan
sI9
Fnan
sI10
Fnan
sI11
Fnan
ssS'tabbyrms'
p137
(dp138
I0
F2.416116
sI1
F3.505935
sI2
F2.499365
sI3
F2.885616
sI4
F2.258248
sI5
F3.34017
sI6
F3.753955
sI7
F2.668778
sI8
F4.478886
sI9
F3.883967
sI10
F2.809013
sI11
F2.908885
ssS'ref3mean'
p139
(dp140
I0
F1.5001652860337369
sI1
Fnan
sI2
Fnan
sI3
Fnan
sI4
Fnan
sI5
Fnan
sI6
Fnan
sI7
Fnan
sI8
Fnan
sI9
Fnan
sI10
Fnan
sI11
Fnan
ssS'median_JD'
p141
(dp142
I0
F2458370.6752893515
sI1
Fnan
sI2
Fnan
sI3
Fnan
sI4
Fnan
sI5
Fnan
sI6
Fnan
sI7
Fnan
sI8
Fnan
sI9
Fnan
sI10
Fnan
sI11
Fnan
ssS'error'
p143
(dp144
I0
F0.0019172653629200285
sI1
Fnan
sI2
Fnan
sI3
Fnan
sI4
Fnan
sI5
Fnan
sI6
Fnan
sI7
Fnan
sI8
Fnan
sI9
Fnan
sI10
Fnan
sI11
Fnan
ssS'ref3bkg'
p145
(dp146
I0
F17.73152
sI1
F18.84396
sI2
F18.90406
sI3
F17.45522
sI4
F18.21322
sI5
F18.03272
sI6
F18.16886
sI7
F18.14044
sI8
F16.89533
sI9
F17.60876
sI10
F17.55761
sI11
F17.45405
ssS'ref3mag'
p147
(dp148
I0
F10.729
sI1
F11.328
sI2
F11.684
sI3
F10.694
sI4
F10.703
sI5
F10.697
sI6
F10.698
sI7
F10.691
sI8
F10.713
sI9
F10.692
sI10
F10.707
sI11
F10.711
ssS'mean'
p149
(dp150
I0
F0.43809219437088814
sI1
Fnan
sI2
Fnan
sI3
Fnan
sI4
Fnan
sI5
Fnan
sI6
Fnan
sI7
Fnan
sI8
Fnan
sI9
Fnan
sI10
Fnan
sI11
Fnan
sssS'r'
p151
(dp152
g3
(dp153
I0
F0.5491929089919177
sI1
Fnan
sI2
Fnan
sI3
Fnan
sI4
Fnan
sI5
Fnan
sI6
Fnan
sI7
Fnan
sI8
Fnan
sI9
Fnan
sI10
Fnan
sI11
Fnan
sI12
Fnan
sI13
Fnan
sI14
Fnan
ssg5
(dp154
I0
S'NoError'
p155
sI1
S'NoError'
p156
sI2
S'NoError'
p157
sI3
S'NoError'
p158
sI4
S'NoError'
p159
sI5
S'NoError'
p160
sI6
S'NoError'
p161
sI7
S'NoError'
p162
sI8
S'NoError'
p163
sI9
S'NoError'
p164
sI10
S'NoError'
p165
sI11
S'NoError'
p166
sI12
S'NoError'
p167
sI13
S'NoError'
p168
sI14
S'NoError'
p169
ssg19
(dp170
I0
F0.002
sI1
F0.002
sI2
F0.002
sI3
F0.003
sI4
F0.002
sI5
F0.002
sI6
F0.002
sI7
F0.002
sI8
F0.002
sI9
F0.002
sI10
F0.002
sI11
F0.002
sI12
F0.002
sI13
F0.002
sI14
F0.003
ssg21
(dp171
I0
F0.8949067590034627
sI1
F0.8922707063377429
sI2
F0.8935906849784703
sI3
F0.8899086256295814
sI4
F0.8947984153424375
sI5
F0.8952904102175471
sI6
F0.8901323681024194
sI7
F0.8929459280073704
sI8
F0.8918149683111382
sI9
F0.8934741516445441
sI10
F0.8928789196429463
sI11
F0.8904279319093047
sI12
F0.8975176125577172
sI13
F0.8959360080977408
sI14
F0.8892211219981041
ssg23
(dp172
I0
F0.002425267896490176
sI1
Fnan
sI2
Fnan
sI3
Fnan
sI4
Fnan
sI5
Fnan
sI6
Fnan
sI7
Fnan
sI8
Fnan
sI9
Fnan
sI10
Fnan
sI11
Fnan
sI12
Fnan
sI13
Fnan
sI14
Fnan
ssg25
(dp173
I0
F0.8930076407853683
sI1
Fnan
sI2
Fnan
sI3
Fnan
sI4
Fnan
sI5
Fnan
sI6
Fnan
sI7
Fnan
sI8
Fnan
sI9
Fnan
sI10
Fnan
sI11
Fnan
sI12
Fnan
sI13
Fnan
sI14
Fnan
ssg27
(dp174
I0
F11.133
sI1
F11.133
sI2
F11.136
sI3
F12.179
sI4
F11.136
sI5
F11.316
sI6
F11.142
sI7
F11.14
sI8
F11.373
sI9
F11.139
sI10
F11.129
sI11
F11.296
sI12
F11.14
sI13
F11.128
sI14
F11.888
ssg29
(dp175
I0
F15.21768
sI1
F15.38049
sI2
F14.75369
sI3
F15.78399
sI4
F15.55825
sI5
F19.94017
sI6
F16.01708
sI7
F15.50719
sI8
F18.76454
sI9
F16.00602
sI10
F14.53286
sI11
F20.28979
sI12
F15.71906
sI13
F15.98857
sI14
F16.98585
ssg31
(dp176
I0
F2458370.6885185186
sI1
F2458370.6712152776
sI2
F2458370.689259259
sI3
F2458370.652650463
sI4
F2458370.690729167
sI5
F2458370.6504513887
sI6
F2458370.6697337963
sI7
F2458370.6689930554
sI8
F2458370.6511805556
sI9
F2458370.69
sI10
F2458370.6719560185
sI11
F2458370.649710648
sI12
F2458370.6877662037
sI13
F2458370.670474537
sI14
F2458370.651909722
ssg33
(dp177
I0
F2.603493733333333
sI1
Fnan
sI2
Fnan
sI3
Fnan
sI4
Fnan
sI5
Fnan
sI6
Fnan
sI7
Fnan
sI8
Fnan
sI9
Fnan
sI10
Fnan
sI11
Fnan
sI12
Fnan
sI13
Fnan
sI14
Fnan
ssg35
(dp178
I0
F1.5387960666666662
sI1
Fnan
sI2
Fnan
sI3
Fnan
sI4
Fnan
sI5
Fnan
sI6
Fnan
sI7
Fnan
sI8
Fnan
sI9
Fnan
sI10
Fnan
sI11
Fnan
sI12
Fnan
sI13
Fnan
sI14
Fnan
ssg37
(dp179
I0
F0.550008909083887
sI1
F0.5489908813646404
sI2
F0.550170521099899
sI3
F0.5452532875108237
sI4
F0.5493727643030107
sI5
F0.5448917494833947
sI6
F0.5507773693162963
sI7
F0.5500487516069112
sI8
F0.5427075239539467
sI9
F0.5507594080542968
sI10
F0.5521159338162758
sI11
F0.5477032889714493
sI12
F0.5523242089520664
sI13
F0.5501135045569231
sI14
F0.5461701477669758
ssg39
(dp180
I0
F0.0022672339757554244
sI1
Fnan
sI2
Fnan
sI3
Fnan
sI4
Fnan
sI5
Fnan
sI6
Fnan
sI7
Fnan
sI8
Fnan
sI9
Fnan
sI10
Fnan
sI11
Fnan
sI12
Fnan
sI13
Fnan
sI14
Fnan
ssg41
(dp181
I0
F0.9432109333333334
sI1
Fnan
sI2
Fnan
sI3
Fnan
sI4
Fnan
sI5
Fnan
sI6
Fnan
sI7
Fnan
sI8
Fnan
sI9
Fnan
sI10
Fnan
sI11
Fnan
sI12
Fnan
sI13
Fnan
sI14
Fnan
ssg43
(dp182
I0
g155
sI1
g156
sI2
g157
sI3
g158
sI4
g159
sI5
g160
sI6
g161
sI7
g162
sI8
g163
sI9
g164
sI10
g165
sI11
g166
sI12
g167
sI13
g168
sI14
g169
ssg45
(dp183
I0
F0.00444274857551696
sI1
Fnan
sI2
Fnan
sI3
Fnan
sI4
Fnan
sI5
Fnan
sI6
Fnan
sI7
Fnan
sI8
Fnan
sI9
Fnan
sI10
Fnan
sI11
Fnan
sI12
Fnan
sI13
Fnan
sI14
Fnan
ssg47
(dp184
I0
F0.3133150399928388
sI1
Fnan
sI2
Fnan
sI3
Fnan
sI4
Fnan
sI5
Fnan
sI6
Fnan
sI7
Fnan
sI8
Fnan
sI9
Fnan
sI10
Fnan
sI11
Fnan
sI12
Fnan
sI13
Fnan
sI14
Fnan
ssg49
(dp185
I0
F1.2876698666666668
sI1
Fnan
sI2
Fnan
sI3
Fnan
sI4
Fnan
sI5
Fnan
sI6
Fnan
sI7
Fnan
sI8
Fnan
sI9
Fnan
sI10
Fnan
sI11
Fnan
sI12
Fnan
sI13
Fnan
sI14
Fnan
ssg51
(dp186
I0
F1.4904421534936998
sI1
F1.4885854009670971
sI2
F1.4847813841321535
sI3
F1.5099623916290903
sI4
F1.4930269291799987
sI5
F1.4979632243888186
sI6
F1.505381873758215
sI7
F1.4900329159257175
sI8
F1.5139110019618787
sI9
F1.4963526167395504
sI10
F1.4893494040749478
sI11
F1.4935045040251838
sI12
F1.4836116511371842
sI13
F1.494291026937685
sI14
F1.497644194606099
ssg53
(dp187
I0
g155
sI1
g156
sI2
g157
sI3
g158
sI4
g159
sI5
g160
sI6
g161
sI7
g162
sI8
g163
sI9
g164
sI10
g165
sI11
g166
sI12
g167
sI13
g168
sI14
g169
ssg55
(dp188
I0
F16.09363
sI1
F17.81962
sI2
F17.73909
sI3
F17.15533
sI4
F17.30946
sI5
F23.38335
sI6
F18.06935
sI7
F17.55436
sI8
F23.38408
sI9
F17.90156
sI10
F18.07994
sI11
F24.26612
sI12
F18.3231
sI13
F17.01326
sI14
F18.65836
ssg57
(dp189
I0
F10.371599999999999
sI1
Fnan
sI2
Fnan
sI3
Fnan
sI4
Fnan
sI5
Fnan
sI6
Fnan
sI7
Fnan
sI8
Fnan
sI9
Fnan
sI10
Fnan
sI11
Fnan
sI12
Fnan
sI13
Fnan
sI14
Fnan
ssg59
(dp190
I0
F0.7156638331638424
sI1
Fnan
sI2
Fnan
sI3
Fnan
sI4
Fnan
sI5
Fnan
sI6
Fnan
sI7
Fnan
sI8
Fnan
sI9
Fnan
sI10
Fnan
sI11
Fnan
sI12
Fnan
sI13
Fnan
sI14
Fnan
ssg61
(dp191
I0
F1.445884
sI1
F-2.98278
sI2
F2.859331
sI3
F3.949944
sI4
F2.097981
sI5
F-3.46429
sI6
F4.099955
sI7
F4.095122
sI8
F2.074461
sI9
F4.033534
sI10
F-2.462109
sI11
F2.278718
sI12
F3.679427
sI13
F-2.162628
sI14
F3.539391
ssg63
(dp192
I0
F10.7258
sI1
Fnan
sI2
Fnan
sI3
Fnan
sI4
Fnan
sI5
Fnan
sI6
Fnan
sI7
Fnan
sI8
Fnan
sI9
Fnan
sI10
Fnan
sI11
Fnan
sI12
Fnan
sI13
Fnan
sI14
Fnan
ssg65
(dp193
I0
g155
sI1
g156
sI2
g157
sI3
g158
sI4
g159
sI5
g160
sI6
g161
sI7
g162
sI8
g163
sI9
g164
sI10
g165
sI11
g166
sI12
g167
sI13
g168
sI14
g169
ssg67
(dp194
I0
F14914.553333333333
sI1
F14911.46
sI2
F14857.01
sI3
F5719.64
sI4
F14887.92
sI5
F12721.55
sI6
F14716.613333333335
sI7
F14792.130000000001
sI8
F12094.859999999999
sI9
F14797.933333333332
sI10
F14887.416666666666
sI11
F12844.663333333334
sI12
F14788.29
sI13
F14999.866666666667
sI14
F7458.506666666667
ssg69
(dp195
I0
F1.004645
sI1
F1.007658
sI2
F1.004665
sI3
F1.0183799999999998
sI4
F1.004739
sI5
F1.0201850000000001
sI6
F1.008226
sI7
F1.008527
sI8
F1.019572
sI9
F1.0046959999999998
sI10
F1.007392
sI11
F1.020817
sI12
F1.004638
sI13
F1.007935
sI14
F1.018972
ssg71
(dp196
I0
F12730.446666666667
sI1
F12798.96
sI2
F12754.130000000001
sI3
F4863.996666666667
sI4
F12689.6
sI5
F10800.923333333334
sI6
F12545.886666666665
sI7
F12670.766666666666
sI8
F10227.28
sI9
F12614.869999999999
sI10
F12759.236666666666
sI11
F11025.466666666667
sI12
F12621.223333333333
sI13
F12750.6
sI14
F6398.75
ssg73
(dp197
I0
F20601.636666666665
sI1
F20624.663333333334
sI2
F20498.253333333334
sI3
F7990.446666666667
sI4
F20586.989999999998
sI5
F17617.9
sI6
F20520.236666666668
sI7
F20460.31
sI8
F16896.866666666665
sI9
F20509.61
sI10
F20587.763333333332
sI11
F17825.07333333333
sI12
F20332.536666666667
sI13
F20733.636666666665
sI14
F10376.619999999999
ssg75
(dp198
I0
F16.97735
sI1
F16.79327
sI2
F16.70841
sI3
F16.42099
sI4
F17.5281
sI5
F22.31166
sI6
F16.12273
sI7
F17.4018
sI8
F22.66844
sI9
F17.67629
sI10
F16.87288
sI11
F21.61613
sI12
F16.25751
sI13
F17.55158
sI14
F17.75181
ssg77
(dp199
I0
F10.738
sI1
F10.732
sI2
F10.736
sI3
F11.783
sI4
F10.741
sI5
F10.916
sI6
F10.754
sI7
F10.743
sI8
F10.976
sI9
F10.748
sI10
F10.735
sI11
F10.894
sI12
F10.747
sI13
F10.736
sI14
F11.485
ssg79
(dp200
I0
F0.001
sI1
F0.001
sI2
F0.001
sI3
F0.002
sI4
F0.001
sI5
F0.001
sI6
F0.001
sI7
F0.001
sI8
F0.001
sI9
F0.001
sI10
F0.001
sI11
F0.001
sI12
F0.001
sI13
F0.001
sI14
F0.002
ssg81
(dp201
I0
F0.5487605499893865
sI1
Fnan
sI2
Fnan
sI3
Fnan
sI4
Fnan
sI5
Fnan
sI6
Fnan
sI7
Fnan
sI8
Fnan
sI9
Fnan
sI10
Fnan
sI11
Fnan
sI12
Fnan
sI13
Fnan
sI14
Fnan
ssg83
(dp202
I0
F10.8976
sI1
Fnan
sI2
Fnan
sI3
Fnan
sI4
Fnan
sI5
Fnan
sI6
Fnan
sI7
Fnan
sI8
Fnan
sI9
Fnan
sI10
Fnan
sI11
Fnan
sI12
Fnan
sI13
Fnan
sI14
Fnan
ssg85
(dp203
I0
F10.566
sI1
F10.566
sI2
F10.57
sI3
F11.607
sI4
F10.568
sI5
F10.739
sI6
F10.58
sI7
F10.575
sI8
F10.793
sI9
F10.574
sI10
F10.568
sI11
F10.728
sI12
F10.575
sI13
F10.56
sI14
F11.318
ssg87
(dp204
I0
F3.473513
sI1
F4.052661
sI2
F3.985409
sI3
F2.882528
sI4
F3.327415
sI5
F4.507774
sI6
F-2.572463
sI7
F3.933185
sI8
F4.509655
sI9
F-3.611401
sI10
F-3.251157
sI11
F6.208867
sI12
F3.636263
sI13
F3.969876
sI14
F4.000281
ssg89
(dp205
I0
F0.3100937185524955
sI1
Fnan
sI2
Fnan
sI3
Fnan
sI4
Fnan
sI5
Fnan
sI6
Fnan
sI7
Fnan
sI8
Fnan
sI9
Fnan
sI10
Fnan
sI11
Fnan
sI12
Fnan
sI13
Fnan
sI14
Fnan
ssg91
(dp206
I0
F0.7168813246390824
sI1
F0.7203351856894538
sI2
F0.7214840902047682
sI3
F0.70955009766532
sI4
F0.7154126677136039
sI5
F0.7120052165305129
sI6
F0.7120890015234996
sI7
F0.7188589877277525
sI8
F0.705530934227443
sI9
F0.7145708145653105
sI10
F0.7193331600666532
sI11
F0.7189801977432477
sI12
F0.7187315636458064
sI13
F0.7136495899133316
sI14
F0.7175446656018516
ssg93
(dp207
I0
F30.0
sI1
F30.0
sI2
F30.0
sI3
F30.0
sI4
F30.0
sI5
F30.0
sI6
F30.0
sI7
F30.0
sI8
F30.0
sI9
F30.0
sI10
F30.0
sI11
F30.0
sI12
F30.0
sI13
F30.0
sI14
F30.0
ssg95
(dp208
I0
F0.002
sI1
F0.002
sI2
F0.002
sI3
F0.003
sI4
F0.002
sI5
F0.002
sI6
F0.002
sI7
F0.002
sI8
F0.002
sI9
F0.002
sI10
F0.002
sI11
F0.002
sI12
F0.002
sI13
F0.002
sI14
F0.002
ssg97
(dp209
I0
F0.001
sI1
F0.001
sI2
F0.001
sI3
F0.003
sI4
F0.001
sI5
F0.002
sI6
F0.002
sI7
F0.001
sI8
F0.002
sI9
F0.001
sI10
F0.001
sI11
F0.002
sI12
F0.001
sI13
F0.001
sI14
F0.002
ssg99
(dp210
I0
F1.262199
sI1
F2.600796
sI2
F4.349514
sI3
F2.921975
sI4
F-3.187643
sI5
F3.04191
sI6
F-3.095822
sI7
F3.437264
sI8
F4.553493
sI9
F2.219491
sI10
F-2.010448
sI11
F3.889167
sI12
F-2.743843
sI13
F-1.642175
sI14
F3.71917
ssg101
(dp211
I0
S"KIC8462852-20180909at043128_-25-1X1-030-r'_cal.fts.mag.1"
p212
sI1
S"KIC8462852-20180909at040633_-25-1X1-030-r'_cal.fts.mag.1"
p213
sI2
S"KIC8462852-20180909at043232_-25-1X1-030-r'_cal.fts.mag.1"
p214
sI3
S"KIC8462852-20180909at033949_-25-1X1-030-r'_cal.fts.mag.1"
p215
sI4
S"KIC8462852-20180909at043439_-25-1X1-030-r'_cal.fts.mag.1"
p216
sI5
S"KIC8462852-20180909at033639_-25-1X1-030-r'_cal.fts.mag.1"
p217
sI6
S"KIC8462852-20180909at040425_-25-1X1-030-r'_cal.fts.mag.1"
p218
sI7
S"KIC8462852-20180909at040320_-25-1X1-030-r'_cal.fts.mag.1"
p219
sI8
S"KIC8462852-20180909at033742_-25-1X1-030-r'_cal.fts.mag.1"
p220
sI9
S"KIC8462852-20180909at043336_-25-1X1-030-r'_cal.fts.mag.1"
p221
sI10
S"KIC8462852-20180909at040737_-25-1X1-030-r'_cal.fts.mag.1"
p222
sI11
S"KIC8462852-20180909at033533_-25-1X1-030-r'_cal.fts.mag.1"
p223
sI12
S"KIC8462852-20180909at043022_-25-1X1-030-r'_cal.fts.mag.1"
p224
sI13
S"KIC8462852-20180909at040528_-25-1X1-030-r'_cal.fts.mag.1"
p225
sI14
S"KIC8462852-20180909at033845_-25-1X1-030-r'_cal.fts.mag.1"
p226
ssg115
(dp227
I0
F0.008722590032031725
sI1
Fnan
sI2
Fnan
sI3
Fnan
sI4
Fnan
sI5
Fnan
sI6
Fnan
sI7
Fnan
sI8
Fnan
sI9
Fnan
sI10
Fnan
sI11
Fnan
sI12
Fnan
sI13
Fnan
sI14
Fnan
ssg117
(dp228
I0
F8845.359999999999
sI1
F8845.173333333334
sI2
F8822.79
sI3
F3375.86
sI4
F8820.09
sI5
F7472.35
sI6
F8772.55
sI7
F8786.7
sI8
F7094.816666666667
sI9
F8797.906666666668
sI10
F8876.996666666668
sI11
F7612.2
sI12
F8789.696666666667
sI13
F8890.586666666666
sI14
F4411.9400000000005
ssg119
(dp229
I0
F0.31409047832022624
sI1
Fnan
sI2
Fnan
sI3
Fnan
sI4
Fnan
sI5
Fnan
sI6
Fnan
sI7
Fnan
sI8
Fnan
sI9
Fnan
sI10
Fnan
sI11
Fnan
sI12
Fnan
sI13
Fnan
sI14
Fnan
ssg121
(dp230
I0
S"r'"
p231
sI1
S"r'"
p232
sI2
S"r'"
p233
sI3
S"r'"
p234
sI4
S"r'"
p235
sI5
S"r'"
p236
sI6
S"r'"
p237
sI7
S"r'"
p238
sI8
S"r'"
p239
sI9
S"r'"
p240
sI10
S"r'"
p241
sI11
S"r'"
p242
sI12
S"r'"
p243
sI13
S"r'"
p244
sI14
S"r'"
p245
ssg135
(dp246
I0
F0.0028185749070885227
sI1
Fnan
sI2
Fnan
sI3
Fnan
sI4
Fnan
sI5
Fnan
sI6
Fnan
sI7
Fnan
sI8
Fnan
sI9
Fnan
sI10
Fnan
sI11
Fnan
sI12
Fnan
sI13
Fnan
sI14
Fnan
ssg137
(dp247
I0
F-2.41276
sI1
F-2.479773
sI2
F4.899088
sI3
F3.539133
sI4
F-3.81427
sI5
F-3.22957
sI6
F-1.767755
sI7
F-2.886317
sI8
F3.039528
sI9
F2.511912
sI10
F3.924931
sI11
F2.767725
sI12
F3.743548
sI13
F4.223196
sI14
F2.089548
ssg139
(dp248
I0
F1.4952560448638212
sI1
Fnan
sI2
Fnan
sI3
Fnan
sI4
Fnan
sI5
Fnan
sI6
Fnan
sI7
Fnan
sI8
Fnan
sI9
Fnan
sI10
Fnan
sI11
Fnan
sI12
Fnan
sI13
Fnan
sI14
Fnan
ssg141
(dp249
I0
F2458370.670474537
sI1
Fnan
sI2
Fnan
sI3
Fnan
sI4
Fnan
sI5
Fnan
sI6
Fnan
sI7
Fnan
sI8
Fnan
sI9
Fnan
sI10
Fnan
sI11
Fnan
sI12
Fnan
sI13
Fnan
sI14
Fnan
ssg143
(dp250
I0
F0.0028185749070885227
sI1
Fnan
sI2
Fnan
sI3
Fnan
sI4
Fnan
sI5
Fnan
sI6
Fnan
sI7
Fnan
sI8
Fnan
sI9
Fnan
sI10
Fnan
sI11
Fnan
sI12
Fnan
sI13
Fnan
sI14
Fnan
ssg145
(dp251
I0
F18.94128
sI1
F18.79021
sI2
F18.90249
sI3
F18.01256
sI4
F18.85801
sI5
F27.57547
sI6
F20.32459
sI7
F19.0759
sI8
F25.81125
sI9
F20.28361
sI10
F19.12284
sI11
F27.44953
sI12
F19.91987
sI13
F18.22053
sI14
F20.694
ssg147
(dp252
I0
F10.215
sI1
F10.214
sI2
F10.221
sI3
F11.244
sI4
F10.216
sI5
F10.385
sI6
F10.22
sI7
F10.223
sI8
F10.43
sI9
F10.22
sI10
F10.216
sI11
F10.372
sI12
F10.23
sI13
F10.208
sI14
F10.96
ssg149
(dp253
I0
F0.5487605499893865
sI1
Fnan
sI2
Fnan
sI3
Fnan
sI4
Fnan
sI5
Fnan
sI6
Fnan
sI7
Fnan
sI8
Fnan
sI9
Fnan
sI10
Fnan
sI11
Fnan
sI12
Fnan
sI13
Fnan
sI14
Fnan
sssS'z'
p254
(dp255
g3
(dp256
I0
F0.3694873218096167
sI1
Fnan
sI2
Fnan
sI3
Fnan
sI4
Fnan
sI5
Fnan
ssg5
(dp257
I0
S'NoError'
p258
sI1
S'NoError'
p259
sI2
S'NoError'
p260
sI3
S'NoError'
p261
sI4
S'NoError'
p262
sI5
S'NoError'
p263
ssg19
(dp264
I0
F0.007
sI1
F0.015
sI2
F0.007
sI3
F0.007
sI4
F0.007
sI5
F0.007
ssg21
(dp265
I0
F0.916933292225015
sI1
F0.915033981526167
sI2
F0.9102819271458981
sI3
F0.9096305520766949
sI4
F0.9149666571929985
sI5
F0.9220381398017329
ssg23
(dp266
I0
F0.00456418904469375
sI1
Fnan
sI2
Fnan
sI3
Fnan
sI4
Fnan
sI5
Fnan
ssg25
(dp267
I0
F0.9148140916614177
sI1
Fnan
sI2
Fnan
sI3
Fnan
sI4
Fnan
sI5
Fnan
ssg27
(dp268
I0
F13.25
sI1
F14.353
sI2
F13.256
sI3
F13.24
sI4
F13.249
sI5
F13.265
ssg29
(dp269
I0
F12.08978
sI1
F14.04044
sI2
F12.86812
sI3
F12.18541
sI4
F12.52194
sI5
F13.09163
ssg31
(dp270
I0
F2458370.679363426
sI1
F2458370.6579050925
sI2
F2458370.6786342594
sI3
F2458370.6778819445
sI4
F2458370.6771412035
sI5
F2458370.676412037
ssg33
(dp271
I0
F1.054103166666667
sI1
Fnan
sI2
Fnan
sI3
Fnan
sI4
Fnan
sI5
Fnan
ssg35
(dp272
I0
F-0.06768133333333348
sI1
Fnan
sI2
Fnan
sI3
Fnan
sI4
Fnan
sI5
Fnan
ssg37
(dp273
I0
F0.3689015888606193
sI1
F0.34522463493179023
sI2
F0.3690825889780655
sI3
F0.371365714899175
sI4
F0.3704548374715168
sI5
F0.3676318788387065
ssg39
(dp274
I0
F0.0012972283935914384
sI1
Fnan
sI2
Fnan
sI3
Fnan
sI4
Fnan
sI5
Fnan
ssg41
(dp275
I0
F0.14521333333333342
sI1
Fnan
sI2
Fnan
sI3
Fnan
sI4
Fnan
sI5
Fnan
ssg43
(dp276
I0
g258
sI1
g259
sI2
g260
sI3
g261
sI4
g262
sI5
g263
ssg45
(dp277
I0
F0.027848669026449318
sI1
Fnan
sI2
Fnan
sI3
Fnan
sI4
Fnan
sI5
Fnan
ssg47
(dp278
I0
F0.4191270690375414
sI1
Fnan
sI2
Fnan
sI3
Fnan
sI4
Fnan
sI5
Fnan
ssg49
(dp279
I0
F-0.1056421666666667
sI1
Fnan
sI2
Fnan
sI3
Fnan
sI4
Fnan
sI5
Fnan
ssg51
(dp280
I0
F1.4990662235393692
sI1
F1.6224861392262109
sI2
F1.5053483997635912
sI3
F1.507238648767341
sI4
F1.5106264018966782
sI5
F1.4844424427969054
ssg53
(dp281
I0
g258
sI1
g259
sI2
g260
sI3
g261
sI4
g262
sI5
g263
ssg55
(dp282
I0
F13.50463
sI1
F14.8328
sI2
F13.4015
sI3
F12.25061
sI4
F13.88013
sI5
F13.53151
ssg57
(dp283
I0
F12.060833333333335
sI1
Fnan
sI2
Fnan
sI3
Fnan
sI4
Fnan
sI5
Fnan
ssg59
(dp284
I0
F0.6818583097855996
sI1
Fnan
sI2
Fnan
sI3
Fnan
sI4
Fnan
sI5
Fnan
ssg61
(dp285
I0
F4.075359
sI1
F-2.75347
sI2
F-2.423554
sI3
F2.38026
sI4
F-3.476132
sI5
F1.791449
ssg63
(dp286
I0
F12.4075
sI1
Fnan
sI2
Fnan
sI3
Fnan
sI4
Fnan
sI5
Fnan
ssg65
(dp287
I0
g258
sI1
g259
sI2
g260
sI3
g261
sI4
g262
sI5
g263
ssg67
(dp288
I0
F3218.4066666666668
sI1
F1243.4846666666667
sI2
F3182.4296666666664
sI3
F3209.1053333333334
sI4
F3204.309
sI5
F3198.14
ssg69
(dp289
I0
F1.005408
sI1
F1.014542
sI2
F1.005551
sI3
F1.005707
sI4
F1.005875
sI5
F1.006054
ssg71
(dp290
I0
F2633.6363333333334
sI1
F943.6226666666666
sI2
F2622.764666666667
sI3
F2644.4733333333334
sI4
F2611.4726666666666
sI5
F2619.29
ssg73
(dp291
I0
F4386.3
sI1
F1774.2756666666667
sI2
F4369.42
sI3
F4411.37
sI4
F4392.736666666667
sI5
F4317.820000000001
ssg75
(dp292
I0
F12.52286
sI1
F14.6681
sI2
F12.19527
sI3
F12.24746
sI4
F13.01425
sI5
F12.98269
ssg77
(dp293
I0
F12.449
sI1
F13.563
sI2
F12.453
sI3
F12.444
sI4
F12.458
sI5
F12.455
ssg79
(dp294
I0
F0.003
sI1
F0.005
sI2
F0.003
sI3
F0.003
sI4
F0.003
sI5
F0.003
ssg81
(dp295
I0
F0.3654435406633123
sI1
Fnan
sI2
Fnan
sI3
Fnan
sI4
Fnan
sI5
Fnan
ssg83
(dp296
I0
F12.637
sI1
Fnan
sI2
Fnan
sI3
Fnan
sI4
Fnan
sI5
Fnan
ssg85
(dp297
I0
F12.231
sI1
F13.263
sI2
F12.243
sI3
F12.234
sI4
F12.236
sI5
F12.238
ssg87
(dp298
I0
F4.598626
sI1
F2.559363
sI2
F-2.34191
sI3
F2.199094
sI4
F-3.267581
sI5
F2.577027
ssg89
(dp299
I0
F0.3999161995551905
sI1
Fnan
sI2
Fnan
sI3
Fnan
sI4
Fnan
sI5
Fnan
ssg91
(dp300
I0
F0.6926332464280892
sI1
F0.6253794618768598
sI2
F0.6946019273247362
sI3
F0.6940441947934481
sI4
F0.6874968984653991
sI5
F0.6969941298250655
ssg93
(dp301
I0
F30.0
sI1
F30.0
sI2
F30.0
sI3
F30.0
sI4
F30.0
sI5
F30.0
ssg95
(dp302
I0
F0.004
sI1
F0.009
sI2
F0.004
sI3
F0.004
sI4
F0.004
sI5
F0.004
ssg97
(dp303
I0
F0.004
sI1
F0.007
sI2
F0.004
sI3
F0.004
sI4
F0.004
sI5
F0.004
ssg99
(dp304
I0
F2.509101
sI1
F-3.210331
sI2
F-3.71421
sI3
F2.23932
sI4
F-2.214729
sI5
F3.756996
ssg101
(dp305
I0
S"KIC8462852-20180909at041817_-25-1X1-030-z'_cal.fts.mag.1"
p306
sI1
S"KIC8462852-20180909at034723_-25-1X1-030-z'_cal.fts.mag.1"
p307
sI2
S"KIC8462852-20180909at041714_-25-1X1-030-z'_cal.fts.mag.1"
p308
sI3
S"KIC8462852-20180909at041609_-25-1X1-030-z'_cal.fts.mag.1"
p309
sI4
S"KIC8462852-20180909at041505_-25-1X1-030-z'_cal.fts.mag.1"
p310
sI5
S"KIC8462852-20180909at041400_-25-1X1-030-z'_cal.fts.mag.1"
p311
ssg115
(dp312
I0
F0.050313468225567946
sI1
Fnan
sI2
Fnan
sI3
Fnan
sI4
Fnan
sI5
Fnan
ssg117
(dp313
I0
F1258.9803333333334
sI1
F455.85566666666665
sI2
F1251.7576666666669
sI3
F1270.6833333333334
sI4
F1260.5983333333331
sI5
F1242.0136666666667
ssg119
(dp314
I0
F0.45367168745690994
sI1
Fnan
sI2
Fnan
sI3
Fnan
sI4
Fnan
sI5
Fnan
ssg121
(dp315
I0
S"z'"
p316
sI1
S"z'"
p317
sI2
S"z'"
p318
sI3
S"z'"
p319
sI4
S"z'"
p320
sI5
S"z'"
p321
ssg135
(dp322
I0
F0.009989784645345534
sI1
Fnan
sI2
Fnan
sI3
Fnan
sI4
Fnan
sI5
Fnan
ssg137
(dp323
I0
F2.843663
sI1
F2.903877
sI2
F-2.84217
sI3
F-2.27635
sI4
F3.238716
sI5
F-2.996456
ssg139
(dp324
I0
F1.5215347093316829
sI1
Fnan
sI2
Fnan
sI3
Fnan
sI4
Fnan
sI5
Fnan
ssg141
(dp325
I0
F2458370.677511574
sI1
Fnan
sI2
Fnan
sI3
Fnan
sI4
Fnan
sI5
Fnan
ssg143
(dp326
I0
F0.009989784645345534
sI1
Fnan
sI2
Fnan
sI3
Fnan
sI4
Fnan
sI5
Fnan
ssg145
(dp327
I0
F13.50584
sI1
F14.27977
sI2
F13.38867
sI3
F13.70551
sI4
F13.66651
sI5
F13.71165
ssg147
(dp328
I0
F11.895
sI1
F12.877
sI2
F11.899
sI3
F11.889
sI4
F11.893
sI5
F11.912
ssg149
(dp329
I0
F0.3654435406633123
sI1
Fnan
sI2
Fnan
sI3
Fnan
sI4
Fnan
sI5
Fnan
sssS'g'
p330
(dp331
g3
(dp332
I0
F0.8679968724129395
sI1
Fnan
sI2
Fnan
sI3
Fnan
sI4
Fnan
sI5
Fnan
sI6
Fnan
sI7
Fnan
sI8
Fnan
sI9
Fnan
sI10
Fnan
sI11
Fnan
sI12
Fnan
sI13
Fnan
sI14
Fnan
ssg5
(dp333
I0
S'NoError'
p334
sI1
S'NoError'
p335
sI2
S'NoError'
p336
sI3
S'NoError'
p337
sI4
S'NoError'
p338
sI5
S'NoError'
p339
sI6
S'NoError'
p340
sI7
S'NoError'
p341
sI8
S'NoError'
p342
sI9
S'NoError'
p343
sI10
S'NoError'
p344
sI11
S'NoError'
p345
sI12
S'NoError'
p346
sI13
S'NoError'
p347
sI14
S'NoError'
p348
ssg19
(dp349
I0
F0.002
sI1
F0.002
sI2
F0.002
sI3
F0.002
sI4
F0.002
sI5
F0.002
sI6
F0.002
sI7
F0.002
sI8
F0.002
sI9
F0.002
sI10
F0.002
sI11
F0.002
sI12
F0.002
sI13
F0.002
sI14
F0.002
ssg21
(dp350
I0
F0.8759005213693578
sI1
F0.8797847129498972
sI2
F0.8800645718035284
sI3
F0.8733264519792814
sI4
F0.8736237582500918
sI5
F0.8752826273537067
sI6
F0.8784451117853086
sI7
F0.8890825478665605
sI8
F0.879787304102073
sI9
F0.8753017304716834
sI10
F0.873022056234981
sI11
F0.8792146270829692
sI12
F0.8754043470319913
sI13
F0.8739230340882307
sI14
F0.8789646232153905
ssg23
(dp351
I0
F0.004131988237588395
sI1
Fnan
sI2
Fnan
sI3
Fnan
sI4
Fnan
sI5
Fnan
sI6
Fnan
sI7
Fnan
sI8
Fnan
sI9
Fnan
sI10
Fnan
sI11
Fnan
sI12
Fnan
sI13
Fnan
sI14
Fnan
ssg25
(dp352
I0
F0.8774085350390035
sI1
Fnan
sI2
Fnan
sI3
Fnan
sI4
Fnan
sI5
Fnan
sI6
Fnan
sI7
Fnan
sI8
Fnan
sI9
Fnan
sI10
Fnan
sI11
Fnan
sI12
Fnan
sI13
Fnan
sI14
Fnan
ssg27
(dp353
I0
F11.39
sI1
F11.456
sI2
F11.37
sI3
F11.365
sI4
F11.368
sI5
F11.34
sI6
F11.426
sI7
F11.339
sI8
F11.324
sI9
F11.356
sI10
F11.348
sI11
F11.356
sI12
F11.345
sI13
F11.325
sI14
F11.346
ssg29
(dp354
I0
F13.7027
sI1
F14.33141
sI2
F11.8354
sI3
F12.48482
sI4
F13.3549
sI5
F11.78589
sI6
F13.98237
sI7
F12.20519
sI8
F10.89426
sI9
F11.97517
sI10
F12.00324
sI11
F11.70664
sI12
F11.72848
sI13
F11.17332
sI14
F11.99022
ssg31
(dp355
I0
F2458370.647465278
sI1
F2458370.6482060184
sI2
F2458370.6660185186
sI3
F2458370.6652777777
sI4
F2458370.646712963
sI5
F2458370.6862615743
sI6
F2458370.6489467593
sI7
F2458370.6855324074
sI8
F2458370.6870023147
sI9
F2458370.668240741
sI10
F2458370.666747685
sI11
F2458370.6675
sI12
F2458370.645972222
sI13
F2458370.6847916665
sI14
F2458370.6840625
ssg33
(dp356
I0
F1.4869880666666668
sI1
Fnan
sI2
Fnan
sI3
Fnan
sI4
Fnan
sI5
Fnan
sI6
Fnan
sI7
Fnan
sI8
Fnan
sI9
Fnan
sI10
Fnan
sI11
Fnan
sI12
Fnan
sI13
Fnan
sI14
Fnan
ssg35
(dp357
I0
F0.8007318666666668
sI1
Fnan
sI2
Fnan
sI3
Fnan
sI4
Fnan
sI5
Fnan
sI6
Fnan
sI7
Fnan
sI8
Fnan
sI9
Fnan
sI10
Fnan
sI11
Fnan
sI12
Fnan
sI13
Fnan
sI14
Fnan
ssg37
(dp358
I0
F0.8671835513121156
sI1
F0.8655402111390411
sI2
F0.8702700629937576
sI3
F0.8684988661984581
sI4
F0.8645423084247822
sI5
F0.8703091325377579
sI6
F0.8687652581710048
sI7
F0.8647186957450314
sI8
F0.8724628886081963
sI9
F0.8709013880619446
sI10
F0.8698171820771256
sI11
F0.8678248701820562
sI12
F0.8650446281777521
sI13
F0.8720241740015776
sI14
F0.8665158847587471
ssg39
(dp359
I0
F0.0023850881821918762
sI1
Fnan
sI2
Fnan
sI3
Fnan
sI4
Fnan
sI5
Fnan
sI6
Fnan
sI7
Fnan
sI8
Fnan
sI9
Fnan
sI10
Fnan
sI11
Fnan
sI12
Fnan
sI13
Fnan
sI14
Fnan
ssg41
(dp360
I0
F0.23389052000000005
sI1
Fnan
sI2
Fnan
sI3
Fnan
sI4
Fnan
sI5
Fnan
sI6
Fnan
sI7
Fnan
sI8
Fnan
sI9
Fnan
sI10
Fnan
sI11
Fnan
sI12
Fnan
sI13
Fnan
sI14
Fnan
ssg43
(dp361
I0
g334
sI1
g335
sI2
g336
sI3
g337
sI4
g338
sI5
g339
sI6
g340
sI7
g341
sI8
g342
sI9
g343
sI10
g344
sI11
g345
sI12
g346
sI13
g347
sI14
g348
ssg45
(dp362
I0
F0.003607612989997888
sI1
Fnan
sI2
Fnan
sI3
Fnan
sI4
Fnan
sI5
Fnan
sI6
Fnan
sI7
Fnan
sI8
Fnan
sI9
Fnan
sI10
Fnan
sI11
Fnan
sI12
Fnan
sI13
Fnan
sI14
Fnan
ssg47
(dp363
I0
F0.03523688543611778
sI1
Fnan
sI2
Fnan
sI3
Fnan
sI4
Fnan
sI5
Fnan
sI6
Fnan
sI7
Fnan
sI8
Fnan
sI9
Fnan
sI10
Fnan
sI11
Fnan
sI12
Fnan
sI13
Fnan
sI14
Fnan
ssg49
(dp364
I0
F0.07002392
sI1
Fnan
sI2
Fnan
sI3
Fnan
sI4
Fnan
sI5
Fnan
sI6
Fnan
sI7
Fnan
sI8
Fnan
sI9
Fnan
sI10
Fnan
sI11
Fnan
sI12
Fnan
sI13
Fnan
sI14
Fnan
ssg51
(dp365
I0
F1.5154591843045604
sI1
F1.526735119891243
sI2
F1.5155864798778114
sI3
F1.5217105114585203
sI4
F1.522425083164441
sI5
F1.508269020278133
sI6
F1.5182959499419328
sI7
F1.5073874877428028
sI8
F1.5092861350330764
sI9
F1.5186471949162295
sI10
F1.522861972333235
sI11
F1.5126969940442392
sI12
F1.5190239300709374
sI13
F1.5224679942839043
sI14
F1.5055025327718574
ssg53
(dp366
I0
g334
sI1
g335
sI2
g336
sI3
g337
sI4
g338
sI5
g339
sI6
g340
sI7
g341
sI8
g342
sI9
g343
sI10
g344
sI11
g345
sI12
g346
sI13
g347
sI14
g348
ssg55
(dp367
I0
F12.42646
sI1
F14.73164
sI2
F12.19076
sI3
F12.88608
sI4
F12.23419
sI5
F12.28908
sI6
F14.20823
sI7
F12.28069
sI8
F11.16556
sI9
F11.91251
sI10
F12.17371
sI11
F11.77883
sI12
F13.34262
sI13
F11.78459
sI14
F11.91769
ssg57
(dp368
I0
F10.930800000000001
sI1
Fnan
sI2
Fnan
sI3
Fnan
sI4
Fnan
sI5
Fnan
sI6
Fnan
sI7
Fnan
sI8
Fnan
sI9
Fnan
sI10
Fnan
sI11
Fnan
sI12
Fnan
sI13
Fnan
sI14
Fnan
ssg59
(dp369
I0
F0.7167783016692785
sI1
Fnan
sI2
Fnan
sI3
Fnan
sI4
Fnan
sI5
Fnan
sI6
Fnan
sI7
Fnan
sI8
Fnan
sI9
Fnan
sI10
Fnan
sI11
Fnan
sI12
Fnan
sI13
Fnan
sI14
Fnan
ssg61
(dp370
I0
F1.718447
sI1
F1.07775
sI2
F2.520252
sI3
F-3.964885
sI4
F-2.676892
sI5
F-2.315345
sI6
F3.521875
sI7
F2.562141
sI8
F3.055248
sI9
F2.047814
sI10
F4.586559
sI11
F1.930846
sI12
F2.477206
sI13
F-2.24729
sI14
F-2.282748
ssg63
(dp371
I0
F11.307066666666666
sI1
Fnan
sI2
Fnan
sI3
Fnan
sI4
Fnan
sI5
Fnan
sI6
Fnan
sI7
Fnan
sI8
Fnan
sI9
Fnan
sI10
Fnan
sI11
Fnan
sI12
Fnan
sI13
Fnan
sI14
Fnan
ssg65
(dp372
I0
g334
sI1
g335
sI2
g336
sI3
g337
sI4
g338
sI5
g339
sI6
g340
sI7
g341
sI8
g342
sI9
g343
sI10
g344
sI11
g345
sI12
g346
sI13
g347
sI14
g348
ssg67
(dp373
I0
F7357.5599999999995
sI1
F6955.88
sI2
F7490.63
sI3
F7504.73
sI4
F7518.816666666667
sI5
F7670.756666666667
sI6
F7117.48
sI7
F7809.75
sI8
F7792.906666666667
sI9
F7555.133333333333
sI10
F7604.953333333334
sI11
F7603.1066666666675
sI12
F7684.786666666667
sI13
F7755.433333333333
sI14
F7682.156666666667
ssg69
(dp374
I0
F1.02281
sI1
F1.022133
sI2
F1.009871
sI3
F1.010234
sI4
F1.0234940000000001
sI5
F1.004661
sI6
F1.021475
sI7
F1.004691
sI8
F1.004643
sI9
F1.008848
sI10
F1.00952
sI11
F1.009175
sI12
F1.024186
sI13
F1.004732
sI14
F1.004785
ssg71
(dp375
I0
F6386.05
sI1
F5956.1
sI2
F6455.003333333333
sI3
F6517.586666666667
sI4
F6523.6433333333325
sI5
F6694.306666666667
sI6
F6140.1900000000005
sI7
F6661.34
sI8
F6744.716666666666
sI9
F6551.456666666667
sI10
F6603.429999999999
sI11
F6573.083333333333
sI12
F6661.179999999999
sI13
F6725.3133333333335
sI14
F6673.656666666667
ssg73
(dp376
I0
F10413.94
sI1
F9856.586666666666
sI2
F10567.906666666668
sI3
F10668.953333333333
sI4
F10689.296666666667
sI5
F10833.19
sI6
F10064.533333333333
sI7
F10906.769999999999
sI8
F10970.716666666667
sI9
F10711.466666666667
sI10
F10818.703333333333
sI11
F10722.140000000001
sI12
F10895.933333333332
sI13
F11023.236666666666
sI14
F10806.356666666667
ssg75
(dp377
I0
F13.2288
sI1
F14.05133
sI2
F10.75027
sI3
F11.91509
sI4
F12.24723
sI5
F11.61017
sI6
F13.91096
sI7
F11.531
sI8
F11.17379
sI9
F11.29568
sI10
F11.49397
sI11
F12.03574
sI12
F11.52694
sI13
F11.0917
sI14
F11.61907
ssg77
(dp378
I0
F11.487
sI1
F11.563
sI2
F11.475
sI3
F11.465
sI4
F11.464
sI5
F11.436
sI6
F11.53
sI7
F11.441
sI8
F11.428
sI9
F11.459
sI10
F11.451
sI11
F11.456
sI12
F11.441
sI13
F11.431
sI14
F11.439
ssg79
(dp379
I0
F0.002
sI1
F0.002
sI2
F0.002
sI3
F0.002
sI4
F0.002
sI5
F0.002
sI6
F0.002
sI7
F0.002
sI8
F0.002
sI9
F0.002
sI10
F0.002
sI11
F0.002
sI12
F0.002
sI13
F0.002
sI14
F0.002
ssg81
(dp380
I0
F0.8682946068259567
sI1
Fnan
sI2
Fnan
sI3
Fnan
sI4
Fnan
sI5
Fnan
sI6
Fnan
sI7
Fnan
sI8
Fnan
sI9
Fnan
sI10
Fnan
sI11
Fnan
sI12
Fnan
sI13
Fnan
sI14
Fnan
ssg83
(dp381
I0
F11.4644
sI1
Fnan
sI2
Fnan
sI3
Fnan
sI4
Fnan
sI5
Fnan
sI6
Fnan
sI7
Fnan
sI8
Fnan
sI9
Fnan
sI10
Fnan
sI11
Fnan
sI12
Fnan
sI13
Fnan
sI14
Fnan
ssg85
(dp382
I0
F11.333
sI1
F11.394
sI2
F11.314
sI3
F11.312
sI4
F11.31
sI5
F11.288
sI6
F11.369
sI7
F11.268
sI8
F11.271
sI9
F11.304
sI10
F11.297
sI11
F11.298
sI12
F11.286
sI13
F11.276
sI14
F11.286
ssg87
(dp383
I0
F3.586947
sI1
F3.823651
sI2
F2.025807
sI3
F3.78092
sI4
F2.411648
sI5
F2.459468
sI6
F3.775576
sI7
F2.476278
sI8
F3.433662
sI9
F-2.917214
sI10
F-3.931905
sI11
F3.543091
sI12
F3.310632
sI13
F-2.387637
sI14
F-3.086103
ssg89
(dp384
I0
F0.03408854017743461
sI1
Fnan
sI2
Fnan
sI3
Fnan
sI4
Fnan
sI5
Fnan
sI6
Fnan
sI7
Fnan
sI8
Fnan
sI9
Fnan
sI10
Fnan
sI11
Fnan
sI12
Fnan
sI13
Fnan
sI14
Fnan
ssg91
(dp385
I0
F0.718684410432434
sI1
F0.7085337467831411
sI2
F0.7148977187335777
sI3
F0.717255445373851
sI4
F0.7165644472775322
sI5
F0.72355447054178
sI6
F0.7147229932697061
sI7
F0.7118139483194527
sI8
F0.7189140974371154
sI9
F0.7173153916620134
sI10
F0.7168424943510128
sI11
F0.7173800661891953
sI12
F0.7169991259757424
sI13
F0.7162715286368346
sI14
F0.7219246400557896
ssg93
(dp386
I0
F30.0
sI1
F30.0
sI2
F30.0
sI3
F30.0
sI4
F30.0
sI5
F30.0
sI6
F30.0
sI7
F30.0
sI8
F30.0
sI9
F30.0
sI10
F30.0
sI11
F30.0
sI12
F30.0
sI13
F30.0
sI14
F30.0
ssg95
(dp387
I0
F0.002
sI1
F0.002
sI2
F0.002
sI3
F0.002
sI4
F0.002
sI5
F0.002
sI6
F0.002
sI7
F0.002
sI8
F0.002
sI9
F0.002
sI10
F0.002
sI11
F0.002
sI12
F0.002
sI13
F0.002
sI14
F0.002
ssg97
(dp388
I0
F0.002
sI1
F0.002
sI2
F0.002
sI3
F0.002
sI4
F0.002
sI5
F0.002
sI6
F0.002
sI7
F0.002
sI8
F0.002
sI9
F0.002
sI10
F0.002
sI11
F0.002
sI12
F0.002
sI13
F0.002
sI14
F0.002
ssg99
(dp389
I0
F3.679079
sI1
F3.076662
sI2
F2.088015
sI3
F-3.076597
sI4
F4.601825
sI5
F-3.001859
sI6
F3.822238
sI7
F-4.048176
sI8
F3.967158
sI9
F-0.7008616
sI10
F-3.092971
sI11
F1.811031
sI12
F-4.013934
sI13
F-0.8146736
sI14
F-3.246577
ssg101
(dp390
I0
S"KIC8462852-20180909at033220_-25-1X1-030-g'_cal.fts.mag.1"
p391
sI1
S"KIC8462852-20180909at033325_-25-1X1-030-g'_cal.fts.mag.1"
p392
sI2
S"KIC8462852-20180909at035904_-25-1X1-030-g'_cal.fts.mag.1"
p393
sI3
S"KIC8462852-20180909at035754_-25-1X1-030-g'_cal.fts.mag.1"
p394
sI4
S"KIC8462852-20180909at033116_-25-1X1-030-g'_cal.fts.mag.1"
p395
sI5
S"KIC8462852-20180909at042813_-25-1X1-030-g'_cal.fts.mag.1"
p396
sI6
S"KIC8462852-20180909at033429_-25-1X1-030-g'_cal.fts.mag.1"
p397
sI7
S"KIC8462852-20180909at042710_-25-1X1-030-g'_cal.fts.mag.1"
p398
sI8
S"KIC8462852-20180909at042917_-25-1X1-030-g'_cal.fts.mag.1"
p399
sI9
S"KIC8462852-20180909at040216_-25-1X1-030-g'_cal.fts.mag.1"
p400
sI10
S"KIC8462852-20180909at040007_-25-1X1-030-g'_cal.fts.mag.1"
p401
sI11
S"KIC8462852-20180909at040111_-25-1X1-030-g'_cal.fts.mag.1"
p402
sI12
S"KIC8462852-20180909at033001_-25-1X1-030-g'_cal.fts.mag.1"
p403
sI13
S"KIC8462852-20180909at042606_-25-1X1-030-g'_cal.fts.mag.1"
p404
sI14
S"KIC8462852-20180909at042458_-25-1X1-030-g'_cal.fts.mag.1"
p405
ssg115
(dp406
I0
F0.006532205224555713
sI1
Fnan
sI2
Fnan
sI3
Fnan
sI4
Fnan
sI5
Fnan
sI6
Fnan
sI7
Fnan
sI8
Fnan
sI9
Fnan
sI10
Fnan
sI11
Fnan
sI12
Fnan
sI13
Fnan
sI14
Fnan
ssg117
(dp407
I0
F6983.009999999999
sI1
F6569.036666666667
sI2
F7111.133333333333
sI3
F7148.113333333333
sI4
F7127.216666666666
sI5
F7310.09
sI6
F6753.84
sI7
F7314.903333333334
sI8
F7418.36
sI9
F7204.693333333333
sI10
F7256.33
sI11
F7202.463333333333
sI12
F7278.456666666667
sI13
F7413.363333333333
sI14
F7267.806666666667
ssg119
(dp408
I0
F0.037716612482338
sI1
Fnan
sI2
Fnan
sI3
Fnan
sI4
Fnan
sI5
Fnan
sI6
Fnan
sI7
Fnan
sI8
Fnan
sI9
Fnan
sI10
Fnan
sI11
Fnan
sI12
Fnan
sI13
Fnan
sI14
Fnan
ssg121
(dp409
I0
S"g'"
p410
sI1
S"g'"
p411
sI2
S"g'"
p412
sI3
S"g'"
p413
sI4
S"g'"
p414
sI5
S"g'"
p415
sI6
S"g'"
p416
sI7
S"g'"
p417
sI8
S"g'"
p418
sI9
S"g'"
p419
sI10
S"g'"
p420
sI11
S"g'"
p421
sI12
S"g'"
p422
sI13
S"g'"
p423
sI14
S"g'"
p424
ssg135
(dp425
I0
F0.0026492135337211203
sI1
Fnan
sI2
Fnan
sI3
Fnan
sI4
Fnan
sI5
Fnan
sI6
Fnan
sI7
Fnan
sI8
Fnan
sI9
Fnan
sI10
Fnan
sI11
Fnan
sI12
Fnan
sI13
Fnan
sI14
Fnan
ssg137
(dp426
I0
F-2.416778
sI1
F3.389779
sI2
F-0.6737692
sI3
F2.516236
sI4
F-2.402917
sI5
F-2.503065
sI6
F3.461882
sI7
F-3.503645
sI8
F3.946429
sI9
F-3.341692
sI10
F-2.273045
sI11
F4.400601
sI12
F2.608775
sI13
F-2.678402
sI14
F2.977969
ssg139
(dp427
I0
F1.5164237060075283
sI1
Fnan
sI2
Fnan
sI3
Fnan
sI4
Fnan
sI5
Fnan
sI6
Fnan
sI7
Fnan
sI8
Fnan
sI9
Fnan
sI10
Fnan
sI11
Fnan
sI12
Fnan
sI13
Fnan
sI14
Fnan
ssg141
(dp428
I0
F2458370.666747685
sI1
Fnan
sI2
Fnan
sI3
Fnan
sI4
Fnan
sI5
Fnan
sI6
Fnan
sI7
Fnan
sI8
Fnan
sI9
Fnan
sI10
Fnan
sI11
Fnan
sI12
Fnan
sI13
Fnan
sI14
Fnan
ssg143
(dp429
I0
F0.0026492135337211203
sI1
Fnan
sI2
Fnan
sI3
Fnan
sI4
Fnan
sI5
Fnan
sI6
Fnan
sI7
Fnan
sI8
Fnan
sI9
Fnan
sI10
Fnan
sI11
Fnan
sI12
Fnan
sI13
Fnan
sI14
Fnan
ssg145
(dp430
I0
F14.64434
sI1
F16.11097
sI2
F13.43232
sI3
F12.87497
sI4
F13.96335
sI5
F13.09686
sI6
F15.69937
sI7
F13.00296
sI8
F12.33273
sI9
F14.46415
sI10
F14.0866
sI11
F13.03339
sI12
F13.03836
sI13
F13.35983
sI14
F13.36047
ssg147
(dp431
I0
F10.956
sI1
F11.016
sI2
F10.94
sI3
F10.93
sI4
F10.928
sI5
F10.913
sI6
F10.993
sI7
F10.906
sI8
F10.899
sI9
F10.925
sI10
F10.915
sI11
F10.924
sI12
F10.907
sI13
F10.894
sI14
F10.916
ssg149
(dp432
I0
F0.8682946068259567
sI1
Fnan
sI2
Fnan
sI3
Fnan
sI4
Fnan
sI5
Fnan
sI6
Fnan
sI7
Fnan
sI8
Fnan
sI9
Fnan
sI10
Fnan
sI11
Fnan
sI12
Fnan
sI13
Fnan
sI14
Fnan
sssS'V'
p433
(dp434
g3
(dp435
I0
F0.690510114756052
sI1
Fnan
sI2
Fnan
sI3
Fnan
sI4
Fnan
sI5
Fnan
sI6
Fnan
sI7
Fnan
sI8
Fnan
sI9
Fnan
ssg5
(dp436
I0
S'NoError'
p437
sI1
S'NoError'
p438
sI2
S'NoError'
p439
sI3
S'NoError'
p440
sI4
S'NoError'
p441
sI5
S'NoError'
p442
sI6
S'NoError'
p443
sI7
S'NoError'
p444
sI8
S'NoError'
p445
sI9
S'NoError'
p446
ssg19
(dp447
I0
F0.002
sI1
F0.003
sI2
F0.002
sI3
F0.002
sI4
F0.003
sI5
F0.002
sI6
F0.002
sI7
F0.002
sI8
F0.002
sI9
F0.002
ssg21
(dp448
I0
F0.8826257691907138
sI1
F0.8994755118380061
sI2
F0.8872104722831115
sI3
F0.8799503012058771
sI4
F0.886757219704187
sI5
F0.8912215898869822
sI6
F0.878647116872752
sI7
F0.8840753840795634
sI8
F0.888694240791244
sI9
F0.8871824471313784
ssg23
(dp449
I0
F0.005980457652732245
sI1
Fnan
sI2
Fnan
sI3
Fnan
sI4
Fnan
sI5
Fnan
sI6
Fnan
sI7
Fnan
sI8
Fnan
sI9
Fnan
ssg25
(dp450
I0
F0.8865840052983816
sI1
Fnan
sI2
Fnan
sI3
Fnan
sI4
Fnan
sI5
Fnan
sI6
Fnan
sI7
Fnan
sI8
Fnan
sI9
Fnan
ssg27
(dp451
I0
F11.366
sI1
F11.612
sI2
F11.469
sI3
F11.5
sI4
F11.869
sI5
F11.56
sI6
F11.355
sI7
F11.364
sI8
F11.362
sI9
F11.384
ssg29
(dp452
I0
F12.06293
sI1
F13.46536
sI2
F14.3167
sI3
F13.96795
sI4
F12.02166
sI5
F13.22468
sI6
F12.39547
sI7
F12.05765
sI8
F12.5926
sI9
F13.08624
ssg31
(dp453
I0
F2458370.6801967593
sI1
F2458370.6632060185
sI2
F2458370.660949074
sI3
F2458370.6639583334
sI4
F2458370.6617013887
sI5
F2458370.6624537036
sI6
F2458370.6824305556
sI7
F2458370.6831828705
sI8
F2458370.6816898147
sI9
F2458370.6809375
ssg33
(dp454
I0
F1.95742664
sI1
Fnan
sI2
Fnan
sI3
Fnan
sI4
Fnan
sI5
Fnan
sI6
Fnan
sI7
Fnan
sI8
Fnan
sI9
Fnan
ssg35
(dp455
I0
F-0.2166907699999999
sI1
Fnan
sI2
Fnan
sI3
Fnan
sI4
Fnan
sI5
Fnan
sI6
Fnan
sI7
Fnan
sI8
Fnan
sI9
Fnan
ssg37
(dp456
I0
F0.6919078991292587
sI1
F0.6899892096263555
sI2
F0.6899262467515812
sI3
F0.6926780682990736
sI4
F0.6738693489951019
sI5
F0.6855293166125748
sI6
F0.6944852168246156
sI7
F0.6906541959766953
sI8
F0.6926628800843159
sI9
F0.6867579994999956
ssg39
(dp457
I0
F0.0027204856832003534
sI1
Fnan
sI2
Fnan
sI3
Fnan
sI4
Fnan
sI5
Fnan
sI6
Fnan
sI7
Fnan
sI8
Fnan
sI9
Fnan
ssg41
(dp458
I0
F-0.14379360000000002
sI1
Fnan
sI2
Fnan
sI3
Fnan
sI4
Fnan
sI5
Fnan
sI6
Fnan
sI7
Fnan
sI8
Fnan
sI9
Fnan
ssg43
(dp459
I0
g437
sI1
g438
sI2
g439
sI3
g440
sI4
g441
sI5
g442
sI6
g443
sI7
g444
sI8
g445
sI9
g446
ssg45
(dp460
I0
F0.011227215414292713
sI1
Fnan
sI2
Fnan
sI3
Fnan
sI4
Fnan
sI5
Fnan
sI6
Fnan
sI7
Fnan
sI8
Fnan
sI9
Fnan
ssg47
(dp461
I0
F0.1537456774460125
sI1
Fnan
sI2
Fnan
sI3
Fnan
sI4
Fnan
sI5
Fnan
sI6
Fnan
sI7
Fnan
sI8
Fnan
sI9
Fnan
ssg49
(dp462
I0
F1.16824884
sI1
Fnan
sI2
Fnan
sI3
Fnan
sI4
Fnan
sI5
Fnan
sI6
Fnan
sI7
Fnan
sI8
Fnan
sI9
Fnan
ssg51
(dp463
I0
F1.5052395486461574
sI1
F1.4974607422503738
sI2
F1.506917472184852
sI3
F1.5095617506010597
sI4
F1.552530668943572
sI5
F1.5249876278827033
sI6
F1.5098743719442573
sI7
F1.4976380613405722
sI8
F1.4902836636457888
sI9
F1.5064558939474435
ssg53
(dp464
I0
g437
sI1
g438
sI2
g439
sI3
g440
sI4
g441
sI5
g442
sI6
g443
sI7
g444
sI8
g445
sI9
g446
ssg55
(dp465
I0
F13.49847
sI1
F14.08183
sI2
F13.61094
sI3
F14.63877
sI4
F13.09778
sI5
F13.38757
sI6
F13.02557
sI7
F13.28488
sI8
F13.43954
sI9
F13.55968
ssg57
(dp466
I0
F10.8024
sI1
Fnan
sI2
Fnan
sI3
Fnan
sI4
Fnan
sI5
Fnan
sI6
Fnan
sI7
Fnan
sI8
Fnan
sI9
Fnan
ssg59
(dp467
I0
F0.7124988257442734
sI1
Fnan
sI2
Fnan
sI3
Fnan
sI4
Fnan
sI5
Fnan
sI6
Fnan
sI7
Fnan
sI8
Fnan
sI9
Fnan
ssg61
(dp468
I0
F-2.527967
sI1
F-2.951925
sI2
F-2.888332
sI3
F3.919677
sI4
F-3.990589
sI5
F1.573299
sI6
F2.49853
sI7
F0.5329643
sI8
F-2.027936
sI9
F3.695371
ssg63
(dp469
I0
F11.168200000000002
sI1
Fnan
sI2
Fnan
sI3
Fnan
sI4
Fnan
sI5
Fnan
sI6
Fnan
sI7
Fnan
sI8
Fnan
sI9
Fnan
ssg65
(dp470
I0
g437
sI1
g438
sI2
g439
sI3
g440
sI4
g441
sI5
g442
sI6
g443
sI7
g444
sI8
g445
sI9
g446
ssg67
(dp471
I0
F9477.890000000001
sI1
F7673.296666666666
sI2
F8673.733333333334
sI3
F8352.353333333334
sI4
F6143.276666666667
sI5
F8050.62
sI6
F9504.67
sI7
F9518.913333333334
sI8
F9548.963333333335
sI9
F9427.363333333335
ssg69
(dp472
I0
F1.005263
sI1
F1.011317
sI2
F1.012616
sI3
F1.0109110000000001
sI4
F1.012167
sI5
F1.011737
sI6
F1.004946
sI7
F1.004865
sI8
F1.00504
sI9
F1.0051459999999999
ssg71
(dp473
I0
F8183.9366666666665
sI1
F6471.256666666667
sI2
F7423.91
sI3
F7225.6866666666665
sI4
F5115.67
sI5
F6767.6466666666665
sI6
F8239.243333333334
sI7
F8237.686666666666
sI8
F8236.890000000001
sI9
F8071.633333333333
ssg73
(dp474
I0
F13292.640000000001
sI1
F10590.456666666667
sI2
F12128.91
sI3
F11758.006666666666
sI4
F8739.93
sI5
F11298.836666666666
sI6
F13395.54
sI7
F13296.480000000001
sI8
F13252.983333333334
sI9
F13180.733333333334
ssg75
(dp475
I0
F12.98279
sI1
F13.86644
sI2
F13.62761
sI3
F13.43262
sI4
F12.68681
sI5
F13.08405
sI6
F12.6066
sI7
F13.42522
sI8
F12.43141
sI9
F13.31481
ssg77
(dp476
I0
F11.218
sI1
F11.473
sI2
F11.323
sI3
F11.353
sI4
F11.728
sI5
F11.424
sI6
F11.21
sI7
F11.21
sI8
F11.211
sI9
F11.233
ssg79
(dp477
I0
F0.002
sI1
F0.002
sI2
F0.002
sI3
F0.002
sI4
F0.002
sI5
F0.002
sI6
F0.002
sI7
F0.002
sI8
F0.002
sI9
F0.002
ssg81
(dp478
I0
F0.6888460381799569
sI1
Fnan
sI2
Fnan
sI3
Fnan
sI4
Fnan
sI5
Fnan
sI6
Fnan
sI7
Fnan
sI8
Fnan
sI9
Fnan
ssg83
(dp479
I0
F11.3383
sI1
Fnan
sI2
Fnan
sI3
Fnan
sI4
Fnan
sI5
Fnan
sI6
Fnan
sI7
Fnan
sI8
Fnan
sI9
Fnan
ssg85
(dp480
I0
F11.058
sI1
F11.288
sI2
F11.154
sI3
F11.195
sI4
F11.529
sI5
F11.235
sI6
F11.055
sI7
F11.054
sI8
F11.05
sI9
F11.064
ssg87
(dp481
I0
F1.521647
sI1
F3.146169
sI2
F0.6590734
sI3
F2.31767
sI4
F2.615004
sI5
F2.97137
sI6
F2.112769
sI7
F-3.555696
sI8
F3.559566
sI9
F4.226694
ssg89
(dp482
I0
F0.15002014679517048
sI1
Fnan
sI2
Fnan
sI3
Fnan
sI4
Fnan
sI5
Fnan
sI6
Fnan
sI7
Fnan
sI8
Fnan
sI9
Fnan
ssg91
(dp483
I0
F0.7188182854476084
sI1
F0.7086447729072118
sI2
F0.7137467946781763
sI3
F0.7186034130335475
sI4
F0.6874419088001197
sI5
F0.6995180054151392
sI6
F0.7195779718468376
sI7
F0.722116559317116
sI8
F0.7224725257375686
sI9
F0.7140480202594085
ssg93
(dp484
I0
F30.0
sI1
F30.0
sI2
F30.0
sI3
F30.0
sI4
F30.0
sI5
F30.0
sI6
F30.0
sI7
F30.0
sI8
F30.0
sI9
F30.0
ssg95
(dp485
I0
F0.002
sI1
F0.002
sI2
F0.002
sI3
F0.002
sI4
F0.003
sI5
F0.002
sI6
F0.002
sI7
F0.002
sI8
F0.002
sI9
F0.002
ssg97
(dp486
I0
F0.002
sI1
F0.002
sI2
F0.002
sI3
F0.002
sI4
F0.002
sI5
F0.002
sI6
F0.002
sI7
F0.002
sI8
F0.002
sI9
F0.002
ssg99
(dp487
I0
F2.051683
sI1
F-0.7434133
sI2
F4.253639
sI3
F-0.9156443
sI4
F-2.442536
sI5
F2.863744
sI6
F2.131922
sI7
F3.928634
sI8
F2.509688
sI9
F-1.955228
ssg101
(dp488
I0
S'KIC8462852-20180909at041921_-25-1X1-030-V_cal.fts.mag.1'
p489
sI1
S'KIC8462852-20180909at035501_-25-1X1-030-V_cal.fts.mag.1'
p490
sI2
S'KIC8462852-20180909at035138_-25-1X1-030-V_cal.fts.mag.1'
p491
sI3
S'KIC8462852-20180909at035606_-25-1X1-030-V_cal.fts.mag.1'
p492
sI4
S'KIC8462852-20180909at035251_-25-1X1-030-V_cal.fts.mag.1'
p493
sI5
S'KIC8462852-20180909at035356_-25-1X1-030-V_cal.fts.mag.1'
p494
sI6
S'KIC8462852-20180909at042242_-25-1X1-030-V_cal.fts.mag.1'
p495
sI7
S'KIC8462852-20180909at042347_-25-1X1-030-V_cal.fts.mag.1'
p496
sI8
S'KIC8462852-20180909at042138_-25-1X1-030-V_cal.fts.mag.1'
p497
sI9
S'KIC8462852-20180909at042033_-25-1X1-030-V_cal.fts.mag.1'
p498
ssg115
(dp499
I0
F0.017566108204637745
sI1
Fnan
sI2
Fnan
sI3
Fnan
sI4
Fnan
sI5
Fnan
sI6
Fnan
sI7
Fnan
sI8
Fnan
sI9
Fnan
ssg117
(dp500
I0
F7139.213333333333
sI1
F5688.963333333333
sI2
F6491.413333333333
sI3
F6311.693333333333
sI4
F4492.21
sI5
F5968.013333333333
sI6
F7208.63
sI7
F7148.98
sI8
F7166.483333333334
sI9
F7023.183333333333
ssg119
(dp501
I0
F0.16749530673358493
sI1
Fnan
sI2
Fnan
sI3
Fnan
sI4
Fnan
sI5
Fnan
sI6
Fnan
sI7
Fnan
sI8
Fnan
sI9
Fnan
ssg121
(dp502
I0
g433
sI1
g433
sI2
g433
sI3
g433
sI4
g433
sI5
g433
sI6
g433
sI7
g433
sI8
g433
sI9
g433
ssg135
(dp503
I0
F0.005923896594605481
sI1
Fnan
sI2
Fnan
sI3
Fnan
sI4
Fnan
sI5
Fnan
sI6
Fnan
sI7
Fnan
sI8
Fnan
sI9
Fnan
ssg137
(dp504
I0
F-2.692965
sI1
F-2.449772
sI2
F-3.446473
sI3
F1.812302
sI4
F4.552488
sI5
F-1.283763
sI6
F2.314332
sI7
F1.598397
sI8
F-2.861652
sI9
F1.01917
ssg139
(dp505
I0
F1.510094980138678
sI1
Fnan
sI2
Fnan
sI3
Fnan
sI4
Fnan
sI5
Fnan
sI6
Fnan
sI7
Fnan
sI8
Fnan
sI9
Fnan
ssg141
(dp506
I0
F2458370.6720775464
sI1
Fnan
sI2
Fnan
sI3
Fnan
sI4
Fnan
sI5
Fnan
sI6
Fnan
sI7
Fnan
sI8
Fnan
sI9
Fnan
ssg143
(dp507
I0
F0.005923896594605481
sI1
Fnan
sI2
Fnan
sI3
Fnan
sI4
Fnan
sI5
Fnan
sI6
Fnan
sI7
Fnan
sI8
Fnan
sI9
Fnan
ssg145
(dp508
I0
F14.47196
sI1
F15.56479
sI2
F16.48728
sI3
F16.82202
sI4
F13.55035
sI5
F15.69224
sI6
F15.04586
sI7
F15.46692
sI8
F14.8895
sI9
F15.00853
ssg147
(dp509
I0
F10.691
sI1
F10.938
sI2
F10.79
sI3
F10.824
sI4
F11.146
sI5
F10.867
sI6
F10.683
sI7
F10.691
sI8
F10.694
sI9
F10.7
ssg149
(dp510
I0
F0.6888460381799569
sI1
Fnan
sI2
Fnan
sI3
Fnan
sI4
Fnan
sI5
Fnan
sI6
Fnan
sI7
Fnan
sI8
Fnan
sI9
Fnan
sss.