(dp0
S'r'
p1
(dp2
S'sigmean'
p3
(dp4
I0
F0.5500209035353327
sI1
Fnan
sI2
Fnan
sI3
Fnan
sI4
Fnan
sI5
Fnan
sI6
Fnan
sI7
Fnan
ssS'ref3flag'
p5
(dp6
I0
S'NoError'
p7
sI1
S'NoError'
p8
sI2
S'NoError'
p9
sI3
S'NoError'
p10
sI4
S'NoError'
p11
sI5
S'NoError'
p12
sI6
S'NoError'
p13
sI7
S'NoError'
p14
ssS'tabbyerr'
p15
(dp16
I0
F0.002
sI1
F0.002
sI2
F0.002
sI3
F0.002
sI4
F0.002
sI5
F0.002
sI6
F0.002
sI7
F0.002
ssS'ref2rel'
p17
(dp18
I0
F0.8945452659836973
sI1
F0.8955780816008673
sI2
F0.8969922190282679
sI3
F0.8970435553289438
sI4
F0.8963811690313586
sI5
F0.8953511765318677
sI6
F0.8964274276235599
sI7
F0.8950352617323393
ssS'ref2err'
p19
(dp20
I0
F0.0009254581390575963
sI1
Fnan
sI2
Fnan
sI3
Fnan
sI4
Fnan
sI5
Fnan
sI6
Fnan
sI7
Fnan
ssS'ref2mean'
p21
(dp22
I0
F0.8959192696076127
sI1
Fnan
sI2
Fnan
sI3
Fnan
sI4
Fnan
sI5
Fnan
sI6
Fnan
sI7
Fnan
ssS'tabbymag'
p23
(dp24
I0
F11.249
sI1
F11.335
sI2
F11.259
sI3
F11.333
sI4
F11.251
sI5
F11.28
sI6
F11.318
sI7
F11.313
ssS'tabbybkg'
p25
(dp26
I0
F42.71049
sI1
F47.53129
sI2
F44.49686
sI3
F46.28917
sI4
F44.64481
sI5
F45.74256
sI6
F45.7256
sI7
F46.02562
ssS'JD'
p27
(dp28
I0
F2458277.825439815
sI1
F2458277.816851852
sI2
F2458277.8271064814
sI3
F2458277.8143402776
sI4
F2458277.826273148
sI5
F2458277.8246064815
sI6
F2458277.815185185
sI7
F2458277.8160185185
ssS'ref3rmsmean'
p29
(dp30
I0
F4.176425999999999
sI1
Fnan
sI2
Fnan
sI3
Fnan
sI4
Fnan
sI5
Fnan
sI6
Fnan
sI7
Fnan
ssS'ref1rmsmean'
p31
(dp32
I0
F0.27068800000000015
sI1
Fnan
sI2
Fnan
sI3
Fnan
sI4
Fnan
sI5
Fnan
sI6
Fnan
sI7
Fnan
ssS'relflux'
p33
(dp34
I0
F0.5523533750502174
sI1
F0.5482142958852724
sI2
F0.5500521222209456
sI3
F0.5488549625911027
sI4
F0.5518691038701382
sI5
F0.5495660833524122
sI6
F0.5473609181902136
sI7
F0.5518963671223597
ssS'sigerr'
p35
(dp36
I0
F0.001742133714717676
sI1
Fnan
sI2
Fnan
sI3
Fnan
sI4
Fnan
sI5
Fnan
sI6
Fnan
sI7
Fnan
ssS'tabbyrmsmean'
p37
(dp38
I0
F1.155914375
sI1
Fnan
sI2
Fnan
sI3
Fnan
sI4
Fnan
sI5
Fnan
sI6
Fnan
sI7
Fnan
ssS'tabbyflag'
p39
(dp40
I0
g7
sI1
g8
sI2
g9
sI3
g10
sI4
g11
sI5
g12
sI6
g13
sI7
g14
ssS'ref1err'
p41
(dp42
I0
F0.0008395436737714798
sI1
Fnan
sI2
Fnan
sI3
Fnan
sI4
Fnan
sI5
Fnan
sI6
Fnan
sI7
Fnan
ssS'ref2magmeanerr'
p43
(dp44
I0
F0.03424048355800083
sI1
Fnan
sI2
Fnan
sI3
Fnan
sI4
Fnan
sI5
Fnan
sI6
Fnan
sI7
Fnan
ssS'ref2rmsmean'
p45
(dp46
I0
F0.9553655000000001
sI1
Fnan
sI2
Fnan
sI3
Fnan
sI4
Fnan
sI5
Fnan
sI6
Fnan
sI7
Fnan
ssS'ref3rel'
p47
(dp48
I0
F1.4980462364740401
sI1
F1.497602894687802
sI2
F1.4966645398585747
sI3
F1.495332895412138
sI4
F1.4955455851544528
sI5
F1.4960407583054478
sI6
F1.4966399076489953
sI7
F1.4950571875341807
ssS'ref1flag'
p49
(dp50
I0
g7
sI1
g8
sI2
g9
sI3
g10
sI4
g11
sI5
g12
sI6
g13
sI7
g14
ssS'ref2bkg'
p51
(dp52
I0
F44.44687
sI1
F50.86788
sI2
F45.39263
sI3
F49.72563
sI4
F45.09747
sI5
F47.41949
sI6
F48.8706
sI7
F48.36988
ssS'ref3magmean'
p53
(dp54
I0
F10.371749999999999
sI1
Fnan
sI2
Fnan
sI3
Fnan
sI4
Fnan
sI5
Fnan
sI6
Fnan
sI7
Fnan
ssS'ref1mean'
p55
(dp56
I0
F0.7124146538002013
sI1
Fnan
sI2
Fnan
sI3
Fnan
sI4
Fnan
sI5
Fnan
sI6
Fnan
sI7
Fnan
ssS'ref1rms'
p57
(dp58
I0
F-2.298826
sI1
F-3.217412
sI2
F4.582801
sI3
F4.026182
sI4
F-3.667758
sI5
F-3.773293
sI6
F3.530454
sI7
F2.983356
ssS'ref2magmean'
p59
(dp60
I0
F10.724125
sI1
Fnan
sI2
Fnan
sI3
Fnan
sI4
Fnan
sI5
Fnan
sI6
Fnan
sI7
Fnan
ssS'ref2flag'
p61
(dp62
I0
g7
sI1
g8
sI2
g9
sI3
g10
sI4
g11
sI5
g12
sI6
g13
sI7
g14
ssS'ref2'
p63
(dp64
I0
F13340.826666666666
sI1
F12429.16
sI2
F13305.259999999998
sI3
F12456.086666666668
sI4
F13355.44
sI5
F13044.79111111111
sI6
F12657.764444444445
sI7
F12601.062222222223
ssS'airmass'
p65
(dp66
I0
F1.170811
sI1
F1.19967
sI2
F1.165556
sI3
F1.208708
sI4
F1.168175
sI5
F1.173474
sI6
F1.205666
sI7
F1.2026700000000001
ssS'ref1'
p67
(dp68
I0
F11340.313333333334
sI1
F10549.944444444445
sI2
F11273.39111111111
sI3
F10561.753333333334
sI4
F11335.42
sI5
F11087.495555555555
sI6
F10735.111111111111
sI7
F10722.59111111111
ssS'ref3'
p69
(dp70
I0
F18486.744444444445
sI1
F17206.786666666667
sI2
F18392.99777777778
sI3
F17209.666666666668
sI4
F18463.153333333335
sI5
F18051.442222222224
sI6
F17505.355555555554
sI7
F17435.097777777777
ssS'ref1bkg'
p71
(dp72
I0
F45.08867
sI1
F49.79866
sI2
F45.29337
sI3
F48.16346
sI4
F45.84013
sI5
F45.4652
sI6
F46.8764
sI7
F48.59089
ssS'ref1mag'
p73
(dp74
I0
F10.863
sI1
F10.942
sI2
F10.87
sI3
F10.941
sI4
F10.864
sI5
F10.888
sI6
F10.923
sI7
F10.924
ssS'ref3magerr'
p75
(dp76
I0
F0.001
sI1
F0.001
sI2
F0.001
sI3
F0.001
sI4
F0.001
sI5
F0.001
sI6
F0.001
sI7
F0.001
ssS'tabbymagmean'
p77
(dp78
I0
F0.5500209035353327
sI1
Fnan
sI2
Fnan
sI3
Fnan
sI4
Fnan
sI5
Fnan
sI6
Fnan
sI7
Fnan
ssS'ref1magmean'
p79
(dp80
I0
F10.901875
sI1
Fnan
sI2
Fnan
sI3
Fnan
sI4
Fnan
sI5
Fnan
sI6
Fnan
sI7
Fnan
ssS'ref2mag'
p81
(dp82
I0
F10.687
sI1
F10.764
sI2
F10.69
sI3
F10.762
sI4
F10.686
sI5
F10.711
sI6
F10.744
sI7
F10.749
ssS'ref3rms'
p83
(dp84
I0
F3.634272
sI1
F5.603277
sI2
F3.304052
sI3
F4.502761
sI4
F3.617354
sI5
F4.750355
sI6
F4.583824
sI7
F3.415513
ssS'ref3magmeanerr'
p85
(dp86
I0
F0.034449756374838374
sI1
Fnan
sI2
Fnan
sI3
Fnan
sI4
Fnan
sI5
Fnan
sI6
Fnan
sI7
Fnan
ssS'ref1rel'
p87
(dp88
I0
F0.7126094098568768
sI1
F0.7119694581115307
sI2
F0.7112940521932646
sI3
F0.7120502361533377
sI4
F0.7125028992482172
sI5
F0.7131085901436437
sI6
F0.7118037597643156
sI7
F0.7139788249304246
ssS'exposure'
p89
(dp90
I0
F45.0
sI1
F45.0
sI2
F45.0
sI3
F45.0
sI4
F45.0
sI5
F45.0
sI6
F45.0
sI7
F45.0
ssS'ref1magerr'
p91
(dp92
I0
F0.001
sI1
F0.002
sI2
F0.002
sI3
F0.002
sI4
F0.001
sI5
F0.002
sI6
F0.002
sI7
F0.002
ssS'ref2magerr'
p93
(dp94
I0
F0.001
sI1
F0.001
sI2
F0.001
sI3
F0.001
sI4
F0.001
sI5
F0.001
sI6
F0.001
sI7
F0.001
ssS'ref2rms'
p95
(dp96
I0
F-2.51184
sI1
F-4.676477
sI2
F4.743397
sI3
F4.369662
sI4
F2.407935
sI5
F3.567137
sI6
F-4.246314
sI7
F3.989424
ssS'name'
p97
(dp98
I0
S"KIC8462852-20180608at074838_-25-1-045-r'_cal.fts.mag.1"
p99
sI1
S"KIC8462852-20180608at073616_-25-1-045-r'_cal.fts.mag.1"
p100
sI2
S"KIC8462852-20180608at075102_-25-1-045-r'_cal.fts.mag.1"
p101
sI3
S"KIC8462852-20180608at073238_-25-1-045-r'_cal.fts.mag.1"
p102
sI4
S"KIC8462852-20180608at074950_-25-1-045-r'_cal.fts.mag.1"
p103
sI5
S"KIC8462852-20180608at074724_-25-1-045-r'_cal.fts.mag.1"
p104
sI6
S"KIC8462852-20180608at073352_-25-1-045-r'_cal.fts.mag.1"
p105
sI7
S"KIC8462852-20180608at073504_-25-1-045-r'_cal.fts.mag.1"
p106
ssS'ref3err'
p107
(dp108
I0
F0.0010741383165134928
sI1
Fnan
sI2
Fnan
sI3
Fnan
sI4
Fnan
sI5
Fnan
sI6
Fnan
sI7
Fnan
ssS'tabby'
p109
(dp110
I0
F7947.975555555556
sI1
F7343.493333333334
sI2
F7878.8822222222225
sI3
F7359.688888888889
sI4
F7938.455555555555
sI5
F7727.582222222222
sI6
F7462.031111111111
sI7
F7498.202222222221
ssS'ref1magmeanerr'
p111
(dp112
I0
F0.034290513057029307
sI1
Fnan
sI2
Fnan
sI3
Fnan
sI4
Fnan
sI5
Fnan
sI6
Fnan
sI7
Fnan
ssS'filter'
p113
(dp114
I0
S"r'"
p115
sI1
S"r'"
p116
sI2
S"r'"
p117
sI3
S"r'"
p118
sI4
S"r'"
p119
sI5
S"r'"
p120
sI6
S"r'"
p121
sI7
S"r'"
p122
ssS'tabbymagerr'
p123
(dp124
I0
F0.0018624192806918054
sI1
Fnan
sI2
Fnan
sI3
Fnan
sI4
Fnan
sI5
Fnan
sI6
Fnan
sI7
Fnan
ssS'tabbyrms'
p125
(dp126
I0
F6.138191
sI1
F2.914511
sI2
F3.736047
sI3
F5.07681
sI4
F2.981795
sI5
F-3.798598
sI6
F-3.468395
sI7
F-4.333046
ssS'ref3mean'
p127
(dp128
I0
F1.496366250634454
sI1
Fnan
sI2
Fnan
sI3
Fnan
sI4
Fnan
sI5
Fnan
sI6
Fnan
sI7
Fnan
ssS'median_JD'
p129
(dp130
I0
F2458277.8207291667
sI1
Fnan
sI2
Fnan
sI3
Fnan
sI4
Fnan
sI5
Fnan
sI6
Fnan
sI7
Fnan
ssS'error'
p131
(dp132
I0
F0.0018624192806918054
sI1
Fnan
sI2
Fnan
sI3
Fnan
sI4
Fnan
sI5
Fnan
sI6
Fnan
sI7
Fnan
ssS'ref3bkg'
p133
(dp134
I0
F44.63008
sI1
F52.60571
sI2
F47.03307
sI3
F51.87058
sI4
F47.03165
sI5
F47.00156
sI6
F51.71247
sI7
F52.31813
ssS'ref3mag'
p135
(dp136
I0
F10.333
sI1
F10.411
sI2
F10.338
sI3
F10.411
sI4
F10.334
sI5
F10.359
sI6
F10.392
sI7
F10.396
ssS'mean'
p137
(dp138
I0
F0.5500209035353327
sI1
Fnan
sI2
Fnan
sI3
Fnan
sI4
Fnan
sI5
Fnan
sI6
Fnan
sI7
Fnan
sssS'z'
p139
(dp140
g3
(dp141
I0
F0.37296447634692503
sI1
Fnan
sI2
Fnan
sI3
Fnan
sI4
Fnan
sI5
Fnan
sI6
Fnan
sI7
Fnan
ssg5
(dp142
I0
S'NoError'
p143
sI1
S'NoError'
p144
sI2
S'NoError'
p145
sI3
S'NoError'
p146
sI4
S'NoError'
p147
sI5
S'NoError'
p148
sI6
S'NoError'
p149
sI7
S'NoError'
p150
ssg15
(dp151
I0
F0.007
sI1
F0.008
sI2
F0.007
sI3
F0.007
sI4
F0.007
sI5
F0.007
sI6
F0.007
sI7
F0.007
ssg17
(dp152
I0
F0.9178958680435981
sI1
F0.9180055310462896
sI2
F0.9123146854791455
sI3
F0.916724384681356
sI4
F0.913326216360044
sI5
F0.9221630120817622
sI6
F0.9180788847940643
sI7
F0.918899814944909
ssg19
(dp153
I0
F0.003128681362986019
sI1
Fnan
sI2
Fnan
sI3
Fnan
sI4
Fnan
sI5
Fnan
sI6
Fnan
sI7
Fnan
ssg21
(dp154
I0
F0.9171760496788961
sI1
Fnan
sI2
Fnan
sI3
Fnan
sI4
Fnan
sI5
Fnan
sI6
Fnan
sI7
Fnan
ssg23
(dp155
I0
F13.285
sI1
F13.497
sI2
F13.286
sI3
F13.43
sI4
F13.372
sI5
F13.347
sI6
F13.306
sI7
F13.296
ssg25
(dp156
I0
F13.08019
sI1
F16.51993
sI2
F13.17357
sI3
F16.24471
sI4
F15.44287
sI5
F14.44425
sI6
F13.09506
sI7
F14.07208
ssg27
(dp157
I0
F2458277.827974537
sI1
F2458277.8177199075
sI2
F2458277.8287962964
sI3
F2458277.818564815
sI4
F2458277.819409722
sI5
F2458277.8202546295
sI6
F2458277.830474537
sI7
F2458277.829641204
ssg29
(dp158
I0
F1.530433125
sI1
Fnan
sI2
Fnan
sI3
Fnan
sI4
Fnan
sI5
Fnan
sI6
Fnan
sI7
Fnan
ssg31
(dp159
I0
F2.8063363499999996
sI1
Fnan
sI2
Fnan
sI3
Fnan
sI4
Fnan
sI5
Fnan
sI6
Fnan
sI7
Fnan
ssg33
(dp160
I0
F0.3744535351829333
sI1
F0.36379358838078363
sI2
F0.37412890858604275
sI3
F0.3701303843709324
sI4
F0.3730462713504234
sI5
F0.3723518051841862
sI6
F0.37419402270614666
sI7
F0.3724464070478103
ssg35
(dp161
I0
F0.0014024220074767774
sI1
Fnan
sI2
Fnan
sI3
Fnan
sI4
Fnan
sI5
Fnan
sI6
Fnan
sI7
Fnan
ssg37
(dp162
I0
F2.22170225
sI1
Fnan
sI2
Fnan
sI3
Fnan
sI4
Fnan
sI5
Fnan
sI6
Fnan
sI7
Fnan
ssg39
(dp163
I0
g143
sI1
g144
sI2
g145
sI3
g146
sI4
g147
sI5
g148
sI6
g149
sI7
g150
ssg41
(dp164
I0
F0.004446685361844257
sI1
Fnan
sI2
Fnan
sI3
Fnan
sI4
Fnan
sI5
Fnan
sI6
Fnan
sI7
Fnan
ssg43
(dp165
I0
F0.06754984931779742
sI1
Fnan
sI2
Fnan
sI3
Fnan
sI4
Fnan
sI5
Fnan
sI6
Fnan
sI7
Fnan
ssg45
(dp166
I0
F2.0027215
sI1
Fnan
sI2
Fnan
sI3
Fnan
sI4
Fnan
sI5
Fnan
sI6
Fnan
sI7
Fnan
ssg47
(dp167
I0
F1.5060300769640842
sI1
F1.5087010063241058
sI2
F1.5034521506458214
sI3
F1.5033809452562914
sI4
F1.5160593264079743
sI5
F1.5002945481547447
sI6
F1.4876603275750082
sI7
F1.4965453138961016
ssg49
(dp168
I0
g143
sI1
g144
sI2
g145
sI3
g146
sI4
g147
sI5
g148
sI6
g149
sI7
g150
ssg51
(dp169
I0
F13.36851
sI1
F18.47105
sI2
F13.58544
sI3
F18.02309
sI4
F16.79649
sI5
F15.84197
sI6
F13.21776
sI7
F13.53778
ssg53
(dp170
I0
F12.004125
sI1
Fnan
sI2
Fnan
sI3
Fnan
sI4
Fnan
sI5
Fnan
sI6
Fnan
sI7
Fnan
ssg55
(dp171
I0
F0.6902596288965683
sI1
Fnan
sI2
Fnan
sI3
Fnan
sI4
Fnan
sI5
Fnan
sI6
Fnan
sI7
Fnan
ssg57
(dp172
I0
F0.3806258
sI1
F2.500369
sI2
F3.128117
sI3
F3.848387
sI4
F2.224388
sI5
F4.180116
sI6
F3.789316
sI7
F2.399372
ssg59
(dp173
I0
F12.341875
sI1
Fnan
sI2
Fnan
sI3
Fnan
sI4
Fnan
sI5
Fnan
sI6
Fnan
sI7
Fnan
ssg61
(dp174
I0
g143
sI1
g144
sI2
g145
sI3
g146
sI4
g147
sI5
g148
sI6
g149
sI7
g150
ssg63
(dp175
I0
F3071.1133333333337
sI1
F2602.46
sI2
F3060.297777777778
sI3
F2717.2844444444445
sI4
F2835.633333333333
sI5
F2927.22
sI6
F3014.584444444444
sI7
F3059.3288888888887
ssg65
(dp176
I0
F1.162887
sI1
F1.196607
sI2
F1.160309
sI3
F1.193655
sI4
F1.1907370000000002
sI5
F1.187865
sI6
F1.1552360000000002
sI7
F1.157781
ssg67
(dp177
I0
F2498.0066666666667
sI1
F2112.831111111111
sI2
F2516.58
sI3
F2218.251777777778
sI4
F2309.3866666666663
sI5
F2372.8
sI6
F2480.068888888889
sI7
F2499.3044444444445
ssg69
(dp178
I0
F4193.631111111111
sI1
F3556.9822222222224
sI2
F4192.2844444444445
sI3
F3709.9955555555553
sI4
F3900.0777777777776
sI5
F3975.7955555555554
sI6
F4087.088888888889
sI7
F4159.373333333333
ssg71
(dp179
I0
F14.48756
sI1
F18.26544
sI2
F13.25197
sI3
F17.26582
sI4
F16.56258
sI5
F15.35303
sI6
F12.89799
sI7
F13.51465
ssg73
(dp180
I0
F12.506
sI1
F12.688
sI2
F12.498
sI3
F12.635
sI4
F12.591
sI5
F12.562
sI6
F12.514
sI7
F12.505
ssg75
(dp181
I0
F0.003
sI1
F0.003
sI2
F0.003
sI3
F0.003
sI4
F0.003
sI5
F0.003
sI6
F0.003
sI7
F0.003
ssg77
(dp182
I0
F0.37181811535115733
sI1
Fnan
sI2
Fnan
sI3
Fnan
sI4
Fnan
sI5
Fnan
sI6
Fnan
sI7
Fnan
ssg79
(dp183
I0
F12.562375
sI1
Fnan
sI2
Fnan
sI3
Fnan
sI4
Fnan
sI5
Fnan
sI6
Fnan
sI7
Fnan
ssg81
(dp184
I0
F12.282
sI1
F12.462
sI2
F12.286
sI3
F12.415
sI4
F12.368
sI5
F12.334
sI6
F12.302
sI7
F12.286
ssg83
(dp185
I0
F2.725849
sI1
F-2.139718
sI2
F-2.599334
sI3
F3.413391
sI4
F1.475497
sI5
F2.70243
sI6
F3.588473
sI7
F3.076877
ssg85
(dp186
I0
F0.06609395368931777
sI1
Fnan
sI2
Fnan
sI3
Fnan
sI4
Fnan
sI5
Fnan
sI6
Fnan
sI7
Fnan
ssg87
(dp187
I0
F0.6877066869370644
sI1
F0.6860462473333625
sI2
F0.6939817910065441
sI3
F0.6902614411626
sI4
F0.6857142857142856
sI5
F0.6874676671097366
sI6
F0.6984463442575193
sI7
F0.6924525676514338
ssg89
(dp188
I0
F45.0
sI1
F45.0
sI2
F45.0
sI3
F45.0
sI4
F45.0
sI5
F45.0
sI6
F45.0
sI7
F45.0
ssg91
(dp189
I0
F0.004
sI1
F0.005
sI2
F0.004
sI3
F0.004
sI4
F0.004
sI5
F0.004
sI6
F0.004
sI7
F0.004
ssg93
(dp190
I0
F0.003
sI1
F0.004
sI2
F0.003
sI3
F0.004
sI4
F0.004
sI5
F0.003
sI6
F0.003
sI7
F0.003
ssg95
(dp191
I0
F1.681766
sI1
F3.263376
sI2
F-3.239378
sI3
F2.693269
sI4
F3.051346
sI5
F2.992246
sI6
F2.29874
sI7
F3.280407
ssg97
(dp192
I0
S"KIC8462852-20180608at075215_-25-1-045-z'_cal.fts.mag.1"
p193
sI1
S"KIC8462852-20180608at073730_-25-1-045-z'_cal.fts.mag.1"
p194
sI2
S"KIC8462852-20180608at075328_-25-1-045-z'_cal.fts.mag.1"
p195
sI3
S"KIC8462852-20180608at073844_-25-1-045-z'_cal.fts.mag.1"
p196
sI4
S"KIC8462852-20180608at073957_-25-1-045-z'_cal.fts.mag.1"
p197
sI5
S"KIC8462852-20180608at074110_-25-1-045-z'_cal.fts.mag.1"
p198
sI6
S"KIC8462852-20180608at075553_-25-1-045-z'_cal.fts.mag.1"
p199
sI7
S"KIC8462852-20180608at075441_-25-1-045-z'_cal.fts.mag.1"
p200
ssg107
(dp201
I0
F0.00842128538527737
sI1
Fnan
sI2
Fnan
sI3
Fnan
sI4
Fnan
sI5
Fnan
sI6
Fnan
sI7
Fnan
ssg109
(dp202
I0
F1218.5655555555554
sI1
F1003.1333333333333
sI2
F1218.3086666666666
sI3
F1066.658
sI4
F1124.7466666666667
sI5
F1151.2888888888888
sI6
F1195.1435555555556
sI7
F1206.478888888889
ssg111
(dp203
I0
F0.07053861657681872
sI1
Fnan
sI2
Fnan
sI3
Fnan
sI4
Fnan
sI5
Fnan
sI6
Fnan
sI7
Fnan
ssg113
(dp204
I0
S"z'"
p205
sI1
S"z'"
p206
sI2
S"z'"
p207
sI3
S"z'"
p208
sI4
S"z'"
p209
sI5
S"z'"
p210
sI6
S"z'"
p211
sI7
S"z'"
p212
ssg123
(dp213
I0
F0.0035326952526356925
sI1
Fnan
sI2
Fnan
sI3
Fnan
sI4
Fnan
sI5
Fnan
sI6
Fnan
sI7
Fnan
ssg125
(dp214
I0
F3.388329
sI1
F2.144503
sI2
F2.815215
sI3
F3.535524
sI4
F3.40577
sI5
F2.71546
sI6
F1.201907
sI7
F-1.43309
ssg127
(dp215
I0
F1.5027654619030164
sI1
Fnan
sI2
Fnan
sI3
Fnan
sI4
Fnan
sI5
Fnan
sI6
Fnan
sI7
Fnan
ssg129
(dp216
I0
F2458277.8241145834
sI1
Fnan
sI2
Fnan
sI3
Fnan
sI4
Fnan
sI5
Fnan
sI6
Fnan
sI7
Fnan
ssg131
(dp217
I0
F0.0035326952526356925
sI1
Fnan
sI2
Fnan
sI3
Fnan
sI4
Fnan
sI5
Fnan
sI6
Fnan
sI7
Fnan
ssg133
(dp218
I0
F14.63492
sI1
F20.83405
sI2
F14.62648
sI3
F19.34762
sI4
F17.2777
sI5
F17.46322
sI6
F14.63782
sI7
F15.073
ssg135
(dp219
I0
F11.944
sI1
F12.122
sI2
F11.944
sI3
F12.077
sI4
F12.022
sI5
F12.001
sI6
F11.971
sI7
F11.952
ssg137
(dp220
I0
F0.37181811535115733
sI1
Fnan
sI2
Fnan
sI3
Fnan
sI4
Fnan
sI5
Fnan
sI6
Fnan
sI7
Fnan
sssS'g'
p221
(dp222
g3
(dp223
I0
F0.8645022075863439
sI1
Fnan
sI2
Fnan
sI3
Fnan
sI4
Fnan
sI5
Fnan
sI6
Fnan
sI7
Fnan
ssg5
(dp224
I0
S'NoError'
p225
sI1
S'NoError'
p226
sI2
S'NoError'
p227
sI3
S'NoError'
p228
sI4
S'NoError'
p229
sI5
S'NoError'
p230
sI6
S'NoError'
p231
sI7
S'NoError'
p232
ssg15
(dp233
I0
F0.002
sI1
F0.002
sI2
F0.002
sI3
F0.002
sI4
F0.002
sI5
F0.002
sI6
F0.003
sI7
F0.002
ssg17
(dp234
I0
F0.8800634879067784
sI1
F0.8820359617815433
sI2
F0.8779705341602874
sI3
F0.8771744106627908
sI4
F0.8766678483256889
sI5
F0.8787371715817792
sI6
F0.8820504487914375
sI7
F0.8853805214546352
ssg19
(dp235
I0
F0.002978575206851798
sI1
Fnan
sI2
Fnan
sI3
Fnan
sI4
Fnan
sI5
Fnan
sI6
Fnan
sI7
Fnan
ssg21
(dp236
I0
F0.8800100480831177
sI1
Fnan
sI2
Fnan
sI3
Fnan
sI4
Fnan
sI5
Fnan
sI6
Fnan
sI7
Fnan
ssg23
(dp237
I0
F11.618
sI1
F11.644
sI2
F11.532
sI3
F11.641
sI4
F11.532
sI5
F11.509
sI6
F11.712
sI7
F11.523
ssg25
(dp238
I0
F36.7206
sI1
F37.61248
sI2
F35.89388
sI3
F37.39991
sI4
F35.57146
sI5
F33.69255
sI6
F39.5518
sI7
F35.02909
ssg27
(dp239
I0
F2458277.813472222
sI1
F2458277.8118171296
sI2
F2458277.821226852
sI3
F2458277.812638889
sI4
F2458277.8228935185
sI5
F2458277.823738426
sI6
F2458277.810983796
sI7
F2458277.822060185
ssg29
(dp240
I0
F1.7625780000000002
sI1
Fnan
sI2
Fnan
sI3
Fnan
sI4
Fnan
sI5
Fnan
sI6
Fnan
sI7
Fnan
ssg31
(dp241
I0
F2.367086
sI1
Fnan
sI2
Fnan
sI3
Fnan
sI4
Fnan
sI5
Fnan
sI6
Fnan
sI7
Fnan
ssg33
(dp242
I0
F0.8643476362887901
sI1
F0.8629062240667742
sI2
F0.8645016114881918
sI3
F0.8583208586785727
sI4
F0.8675820358817765
sI5
F0.8676193148584104
sI6
F0.8609748050765702
sI7
F0.8635838254438937
ssg35
(dp243
I0
F0.0022379439012675667
sI1
Fnan
sI2
Fnan
sI3
Fnan
sI4
Fnan
sI5
Fnan
sI6
Fnan
sI7
Fnan
ssg37
(dp244
I0
F0.9890952500000002
sI1
Fnan
sI2
Fnan
sI3
Fnan
sI4
Fnan
sI5
Fnan
sI6
Fnan
sI7
Fnan
ssg39
(dp245
I0
g225
sI1
g226
sI2
g227
sI3
g228
sI4
g229
sI5
g230
sI6
g231
sI7
g232
ssg41
(dp246
I0
F0.0029476418759967443
sI1
Fnan
sI2
Fnan
sI3
Fnan
sI4
Fnan
sI5
Fnan
sI6
Fnan
sI7
Fnan
ssg43
(dp247
I0
F0.07134373533414509
sI1
Fnan
sI2
Fnan
sI3
Fnan
sI4
Fnan
sI5
Fnan
sI6
Fnan
sI7
Fnan
ssg45
(dp248
I0
F1.6089208
sI1
Fnan
sI2
Fnan
sI3
Fnan
sI4
Fnan
sI5
Fnan
sI6
Fnan
sI7
Fnan
ssg47
(dp249
I0
F1.5134080039161728
sI1
F1.517498591136673
sI2
F1.5159160549771729
sI3
F1.513585723830672
sI4
F1.51147858803972
sI5
F1.5181707009378795
sI6
F1.5175123804618986
sI7
F1.5073548973357915
ssg49
(dp250
I0
g225
sI1
g226
sI2
g227
sI3
g228
sI4
g229
sI5
g230
sI6
g231
sI7
g232
ssg51
(dp251
I0
F36.80547
sI1
F37.28174
sI2
F35.9353
sI3
F37.26607
sI4
F35.60125
sI5
F34.57602
sI6
F40.28728
sI7
F33.00837
ssg53
(dp252
I0
F11.151
sI1
Fnan
sI2
Fnan
sI3
Fnan
sI4
Fnan
sI5
Fnan
sI6
Fnan
sI7
Fnan
ssg55
(dp253
I0
F0.7156819488958696
sI1
Fnan
sI2
Fnan
sI3
Fnan
sI4
Fnan
sI5
Fnan
sI6
Fnan
sI7
Fnan
ssg57
(dp254
I0
F-1.587802
sI1
F3.604932
sI2
F3.256927
sI3
F3.382555
sI4
F4.226791
sI5
F4.17989
sI6
F4.463921
sI7
F-2.590526
ssg59
(dp255
I0
F11.52425
sI1
Fnan
sI2
Fnan
sI3
Fnan
sI4
Fnan
sI5
Fnan
sI6
Fnan
sI7
Fnan
ssg61
(dp256
I0
g225
sI1
g226
sI2
g227
sI3
g228
sI4
g229
sI5
g230
sI6
g231
sI7
g232
ssg63
(dp257
I0
F6004.362222222222
sI1
F5879.348888888889
sI2
F6485.444444444444
sI3
F5903.482222222223
sI4
F6454.493333333334
sI5
F6606.848888888889
sI6
F5537.051111111111
sI7
F6585.042222222222
ssg65
(dp258
I0
F1.211911
sI1
F1.218124
sI2
F1.184585
sI3
F1.215016
sI4
F1.17905
sI5
F1.176302
sI6
F1.221266
sI7
F1.181814
ssg67
(dp259
I0
F5181.162222222222
sI1
F5043.562222222222
sI2
F5607.655555555555
sI3
F5118.708888888888
sI4
F5608.546666666667
sI5
F5697.268888888889
sI6
F4749.766666666666
sI7
F5652.155555555555
ssg69
(dp260
I0
F8464.131111111112
sI1
F8287.75111111111
sI2
F9166.062222222223
sI3
F8341.515555555556
sI4
F9116.513333333332
sI5
F9339.875555555556
sI6
F7805.186666666667
sI7
F9222.9
ssg71
(dp261
I0
F36.16644
sI1
F36.24294
sI2
F34.26964
sI3
F35.56191
sI4
F34.27665
sI5
F33.99569
sI6
F38.02974
sI7
F34.55873
ssg73
(dp262
I0
F11.714
sI1
F11.743
sI2
F11.628
sI3
F11.727
sI4
F11.628
sI5
F11.611
sI6
F11.808
sI7
F11.619
ssg75
(dp263
I0
F0.002
sI1
F0.002
sI2
F0.002
sI3
F0.002
sI4
F0.002
sI5
F0.002
sI6
F0.002
sI7
F0.002
ssg77
(dp264
I0
F0.8637295389728724
sI1
Fnan
sI2
Fnan
sI3
Fnan
sI4
Fnan
sI5
Fnan
sI6
Fnan
sI7
Fnan
ssg79
(dp265
I0
F11.68475
sI1
Fnan
sI2
Fnan
sI3
Fnan
sI4
Fnan
sI5
Fnan
sI6
Fnan
sI7
Fnan
ssg81
(dp266
I0
F11.554
sI1
F11.577
sI2
F11.47
sI3
F11.572
sI4
F11.475
sI5
F11.45
sI6
F11.642
sI7
F11.454
ssg83
(dp267
I0
F-2.442519
sI1
F2.97914
sI2
F2.511543
sI3
F3.157152
sI4
F-3.568887
sI5
F2.225661
sI6
F5.780426
sI7
F3.458108
ssg85
(dp268
I0
F0.07109751854219071
sI1
Fnan
sI2
Fnan
sI3
Fnan
sI4
Fnan
sI5
Fnan
sI6
Fnan
sI7
Fnan
ssg87
(dp269
I0
F0.7161992756060601
sI1
F0.7120105345797266
sI2
F0.716564312303338
sI3
F0.7186675587796978
sI4
F0.7203833106915375
sI5
F0.7145378235809068
sI6
F0.711989509672457
sI7
F0.7151032659532325
ssg89
(dp270
I0
F45.0
sI1
F45.0
sI2
F45.0
sI3
F45.0
sI4
F45.0
sI5
F45.0
sI6
F45.0
sI7
F45.0
ssg91
(dp271
I0
F0.002
sI1
F0.003
sI2
F0.002
sI3
F0.003
sI4
F0.002
sI5
F0.002
sI6
F0.003
sI7
F0.002
ssg93
(dp272
I0
F0.002
sI1
F0.002
sI2
F0.002
sI3
F0.002
sI4
F0.002
sI5
F0.002
sI6
F0.002
sI7
F0.002
ssg95
(dp273
I0
F-3.310485
sI1
F2.075455
sI2
F2.417125
sI3
F5.039658
sI4
F-2.202925
sI5
F0.8686214
sI6
F3.829467
sI7
F4.15445
ssg97
(dp274
I0
S"KIC8462852-20180608at073124_-25-1-045-g'_cal.fts.mag.1"
p275
sI1
S"KIC8462852-20180608at072901_-25-1-045-g'_cal.fts.mag.1"
p276
sI2
S"KIC8462852-20180608at074225_-25-1-045-g'_cal.fts.mag.1"
p277
sI3
S"KIC8462852-20180608at073012_-25-1-045-g'_cal.fts.mag.1"
p278
sI4
S"KIC8462852-20180608at074458_-25-1-045-g'_cal.fts.mag.1"
p279
sI5
S"KIC8462852-20180608at074610_-25-1-045-g'_cal.fts.mag.1"
p280
sI6
S"KIC8462852-20180608at072744_-25-1-045-g'_cal.fts.mag.1"
p281
sI7
S"KIC8462852-20180608at074346_-25-1-045-g'_cal.fts.mag.1"
p282
ssg107
(dp283
I0
F0.0036957611147882185
sI1
Fnan
sI2
Fnan
sI3
Fnan
sI4
Fnan
sI5
Fnan
sI6
Fnan
sI7
Fnan
ssg109
(dp284
I0
F5661.377777777778
sI1
F5525.666666666667
sI2
F6126.193333333334
sI3
F5540.091111111111
sI4
F6125.0
sI5
F6259.582222222222
sI6
F5192.253333333333
sI7
F6177.531111111111
ssg111
(dp285
I0
F0.07312171848558886
sI1
Fnan
sI2
Fnan
sI3
Fnan
sI4
Fnan
sI5
Fnan
sI6
Fnan
sI7
Fnan
ssg113
(dp286
I0
S"g'"
p287
sI1
S"g'"
p288
sI2
S"g'"
p289
sI3
S"g'"
p290
sI4
S"g'"
p291
sI5
S"g'"
p292
sI6
S"g'"
p293
sI7
S"g'"
p294
ssg123
(dp295
I0
F0.0031280228891699597
sI1
Fnan
sI2
Fnan
sI3
Fnan
sI4
Fnan
sI5
Fnan
sI6
Fnan
sI7
Fnan
ssg125
(dp296
I0
F2.891406
sI1
F-1.235157
sI2
F-2.760852
sI3
F-3.853157
sI4
F3.505367
sI5
F2.468238
sI6
F4.404605
sI7
F2.492312
ssg127
(dp297
I0
F1.5143656175794975
sI1
Fnan
sI2
Fnan
sI3
Fnan
sI4
Fnan
sI5
Fnan
sI6
Fnan
sI7
Fnan
ssg129
(dp298
I0
F2458277.8173495373
sI1
Fnan
sI2
Fnan
sI3
Fnan
sI4
Fnan
sI5
Fnan
sI6
Fnan
sI7
Fnan
ssg131
(dp299
I0
F0.0031280228891699597
sI1
Fnan
sI2
Fnan
sI3
Fnan
sI4
Fnan
sI5
Fnan
sI6
Fnan
sI7
Fnan
ssg133
(dp300
I0
F38.92413
sI1
F39.26424
sI2
F35.87362
sI3
F38.70677
sI4
F36.669
sI5
F34.50666
sI6
F42.38416
sI7
F35.11474
ssg135
(dp301
I0
F11.181
sI1
F11.204
sI2
F11.095
sI3
F11.197
sI4
F11.1
sI5
F11.074
sI6
F11.269
sI7
F11.088
ssg137
(dp302
I0
F0.8637295389728724
sI1
Fnan
sI2
Fnan
sI3
Fnan
sI4
Fnan
sI5
Fnan
sI6
Fnan
sI7
Fnan
sssS'V'
p303
(dp304
g3
(dp305
I0
F0.6903832352452589
sI1
Fnan
sI2
Fnan
sI3
Fnan
sI4
Fnan
sI5
Fnan
sI6
Fnan
sI7
Fnan
ssg5
(dp306
I0
S'NoError'
p307
sI1
S'NoError'
p308
sI2
S'NoError'
p309
sI3
S'NoError'
p310
sI4
S'NoError'
p311
sI5
S'NoError'
p312
sI6
S'NoError'
p313
sI7
S'NoError'
p314
ssg15
(dp315
I0
F0.002
sI1
F0.002
sI2
F0.002
sI3
F0.002
sI4
F0.002
sI5
F0.002
sI6
F0.002
sI7
F0.002
ssg17
(dp316
I0
F0.8846259963005647
sI1
F0.8875742529047008
sI2
F0.8866417194332751
sI3
F0.8839918089285524
sI4
F0.886985201419629
sI5
F0.8855340839050012
sI6
F0.8878338172558565
sI7
F0.8856189585500169
ssg19
(dp317
I0
F0.0013848878006635786
sI1
Fnan
sI2
Fnan
sI3
Fnan
sI4
Fnan
sI5
Fnan
sI6
Fnan
sI7
Fnan
ssg21
(dp318
I0
F0.8861007298371997
sI1
Fnan
sI2
Fnan
sI3
Fnan
sI4
Fnan
sI5
Fnan
sI6
Fnan
sI7
Fnan
ssg23
(dp319
I0
F11.657
sI1
F11.594
sI2
F11.601
sI3
F11.59
sI4
F11.647
sI5
F11.678
sI6
F11.644
sI7
F11.569
ssg25
(dp320
I0
F34.59249
sI1
F31.606
sI2
F32.18633
sI3
F33.57808
sI4
F34.18127
sI5
F35.53077
sI6
F34.98686
sI7
F31.74907
ssg27
(dp321
I0
F2458277.7794560185
sI1
F2458277.7933564815
sI2
F2458277.794212963
sI3
F2458277.7925
sI4
F2458277.7803125
sI5
F2458277.778599537
sI6
F2458277.7777314815
sI7
F2458277.7916550925
ssg29
(dp322
I0
F3.15220125
sI1
Fnan
sI2
Fnan
sI3
Fnan
sI4
Fnan
sI5
Fnan
sI6
Fnan
sI7
Fnan
ssg31
(dp323
I0
F-0.33383087499999986
sI1
Fnan
sI2
Fnan
sI3
Fnan
sI4
Fnan
sI5
Fnan
sI6
Fnan
sI7
Fnan
ssg33
(dp324
I0
F0.6906096875747676
sI1
F0.694250245952511
sI2
F0.6865531074731561
sI3
F0.6913536795041778
sI4
F0.6883478694838763
sI5
F0.6895798624567585
sI6
F0.6908671279748559
sI7
F0.6915411844771174
ssg35
(dp325
I0
F0.0011072611054940024
sI1
Fnan
sI2
Fnan
sI3
Fnan
sI4
Fnan
sI5
Fnan
sI6
Fnan
sI7
Fnan
ssg37
(dp326
I0
F-0.34471087500000014
sI1
Fnan
sI2
Fnan
sI3
Fnan
sI4
Fnan
sI5
Fnan
sI6
Fnan
sI7
Fnan
ssg39
(dp327
I0
g307
sI1
g308
sI2
g309
sI3
g310
sI4
g311
sI5
g312
sI6
g313
sI7
g314
ssg41
(dp328
I0
F0.003212894925175713
sI1
Fnan
sI2
Fnan
sI3
Fnan
sI4
Fnan
sI5
Fnan
sI6
Fnan
sI7
Fnan
ssg43
(dp329
I0
F0.037781089373994325
sI1
Fnan
sI2
Fnan
sI3
Fnan
sI4
Fnan
sI5
Fnan
sI6
Fnan
sI7
Fnan
ssg45
(dp330
I0
F3.174729125
sI1
Fnan
sI2
Fnan
sI3
Fnan
sI4
Fnan
sI5
Fnan
sI6
Fnan
sI7
Fnan
ssg47
(dp331
I0
F1.50969553858587
sI1
F1.506016026228532
sI2
F1.4975991042597794
sI3
F1.5042711361819932
sI4
F1.5066744454190424
sI5
F1.5125813696370383
sI6
F1.503559933361397
sI7
F1.4973326448534745
ssg49
(dp332
I0
g307
sI1
g308
sI2
g309
sI3
g310
sI4
g311
sI5
g312
sI6
g313
sI7
g314
ssg51
(dp333
I0
F36.62722
sI1
F32.67245
sI2
F32.54804
sI3
F32.85839
sI4
F34.93169
sI5
F35.6693
sI6
F35.21836
sI7
F31.83101
ssg53
(dp334
I0
F10.94525
sI1
Fnan
sI2
Fnan
sI3
Fnan
sI4
Fnan
sI5
Fnan
sI6
Fnan
sI7
Fnan
ssg55
(dp335
I0
F0.7160565461602167
sI1
Fnan
sI2
Fnan
sI3
Fnan
sI4
Fnan
sI5
Fnan
sI6
Fnan
sI7
Fnan
ssg57
(dp336
I0
F-2.136862
sI1
F-3.028615
sI2
F4.825997
sI3
F-1.744173
sI4
F2.890422
sI5
F-4.454582
sI6
F-1.703609
sI7
F2.680775
ssg59
(dp337
I0
F11.309375
sI1
Fnan
sI2
Fnan
sI3
Fnan
sI4
Fnan
sI5
Fnan
sI6
Fnan
sI7
Fnan
ssg61
(dp338
I0
g307
sI1
g308
sI2
g309
sI3
g310
sI4
g311
sI5
g312
sI6
g313
sI7
g314
ssg63
(dp339
I0
F7274.702222222221
sI1
F7688.688888888889
sI2
F7714.171111111112
sI3
F7727.651111111111
sI4
F7376.535555555555
sI5
F7153.248888888889
sI6
F7374.9977777777785
sI7
F7882.902222222222
ssg65
(dp340
I0
F1.367004
sI1
F1.2959209999999999
sI2
F1.2919610000000001
sI3
F1.299963
sI4
F1.36228
sI5
F1.37172
sI6
F1.376557
sI7
F1.3040260000000001
ssg67
(dp341
I0
F6243.084444444444
sI1
F6580.42
sI2
F6647.135555555555
sI3
F6661.182222222223
sI4
F6316.986666666668
sI5
F6118.4911111111105
sI6
F6318.766666666666
sI7
F6805.388888888889
ssg69
(dp342
I0
F10203.871111111112
sI1
F10744.753333333334
sI2
F10753.74
sI3
F10822.353333333334
sI4
F10315.84
sI5
F10037.293333333333
sI6
F10294.697777777777
sI7
F10996.628888888888
ssg71
(dp343
I0
F34.97964
sI1
F33.33527
sI2
F31.6944
sI3
F33.08127
sI4
F33.78323
sI5
F36.35532
sI6
F34.70798
sI7
F31.65699
ssg73
(dp344
I0
F11.512
sI1
F11.454
sI2
F11.443
sI3
F11.441
sI4
F11.499
sI5
F11.533
sI6
F11.498
sI7
F11.418
ssg75
(dp345
I0
F0.002
sI1
F0.002
sI2
F0.002
sI3
F0.002
sI4
F0.002
sI5
F0.002
sI6
F0.002
sI7
F0.002
ssg77
(dp346
I0
F0.6903878456121526
sI1
Fnan
sI2
Fnan
sI3
Fnan
sI4
Fnan
sI5
Fnan
sI6
Fnan
sI7
Fnan
ssg79
(dp347
I0
F11.47475
sI1
Fnan
sI2
Fnan
sI3
Fnan
sI4
Fnan
sI5
Fnan
sI6
Fnan
sI7
Fnan
ssg81
(dp348
I0
F11.345
sI1
F11.285
sI2
F11.282
sI3
F11.28
sI4
F11.33
sI5
F11.364
sI6
F11.331
sI7
F11.258
ssg83
(dp349
I0
F2.642661
sI1
F-2.736937
sI2
F4.310139
sI3
F4.152944
sI4
F4.657894
sI5
F3.05983
sI6
F4.686451
sI7
F4.444628
ssg85
(dp350
I0
F0.03591557561043079
sI1
Fnan
sI2
Fnan
sI3
Fnan
sI4
Fnan
sI5
Fnan
sI6
Fnan
sI7
Fnan
ssg87
(dp351
I0
F0.7143700261323133
sI1
F0.7139654027360175
sI2
F0.719857867580524
sI3
F0.7181865904314847
sI4
F0.7140914058522888
sI5
F0.7118438769431873
sI6
F0.7152094552845846
sI7
F0.7209277443213338
ssg89
(dp352
I0
F45.0
sI1
F45.0
sI2
F45.0
sI3
F45.0
sI4
F45.0
sI5
F45.0
sI6
F45.0
sI7
F45.0
ssg91
(dp353
I0
F0.002
sI1
F0.002
sI2
F0.002
sI3
F0.002
sI4
F0.002
sI5
F0.002
sI6
F0.002
sI7
F0.002
ssg93
(dp354
I0
F0.002
sI1
F0.002
sI2
F0.002
sI3
F0.002
sI4
F0.002
sI5
F0.002
sI6
F0.002
sI7
F0.002
ssg95
(dp355
I0
F2.936661
sI1
F3.79176
sI2
F3.817026
sI3
F2.044295
sI4
F3.698973
sI5
F4.339121
sI6
F1.829218
sI7
F2.940779
ssg97
(dp356
I0
S'KIC8462852-20180608at064225_-25-1-045-V_cal.fts.mag.1'
p357
sI1
S'KIC8462852-20180608at070226_-25-1-045-V_cal.fts.mag.1'
p358
sI2
S'KIC8462852-20180608at070340_-25-1-045-V_cal.fts.mag.1'
p359
sI3
S'KIC8462852-20180608at070112_-25-1-045-V_cal.fts.mag.1'
p360
sI4
S'KIC8462852-20180608at064339_-25-1-045-V_cal.fts.mag.1'
p361
sI5
S'KIC8462852-20180608at064111_-25-1-045-V_cal.fts.mag.1'
p362
sI6
S'KIC8462852-20180608at063955_-25-1-045-V_cal.fts.mag.1'
p363
sI7
S'KIC8462852-20180608at065957_-25-1-045-V_cal.fts.mag.1'
p364
ssg107
(dp365
I0
F0.005330290158167718
sI1
Fnan
sI2
Fnan
sI3
Fnan
sI4
Fnan
sI5
Fnan
sI6
Fnan
sI7
Fnan
ssg109
(dp366
I0
F5460.802222222223
sI1
F5788.626666666667
sI2
F5747.604444444445
sI3
F5809.948888888889
sI4
F5508.931111111111
sI5
F5357.8133333333335
sI6
F5524.28
sI7
F5920.726666666667
ssg111
(dp367
I0
F0.04089621009335707
sI1
Fnan
sI2
Fnan
sI3
Fnan
sI4
Fnan
sI5
Fnan
sI6
Fnan
sI7
Fnan
ssg113
(dp368
I0
g303
sI1
g303
sI2
g303
sI3
g303
sI4
g303
sI5
g303
sI6
g303
sI7
g303
ssg123
(dp369
I0
F0.002298435599993135
sI1
Fnan
sI2
Fnan
sI3
Fnan
sI4
Fnan
sI5
Fnan
sI6
Fnan
sI7
Fnan
ssg125
(dp370
I0
F-2.963773
sI1
F4.551208
sI2
F4.61168
sI3
F-3.413284
sI4
F3.694083
sI5
F-3.444024
sI6
F-2.364033
sI7
F-3.429544
ssg127
(dp371
I0
F1.5047162748158909
sI1
Fnan
sI2
Fnan
sI3
Fnan
sI4
Fnan
sI5
Fnan
sI6
Fnan
sI7
Fnan
ssg129
(dp372
I0
F2458277.785983796
sI1
Fnan
sI2
Fnan
sI3
Fnan
sI4
Fnan
sI5
Fnan
sI6
Fnan
sI7
Fnan
ssg131
(dp373
I0
F0.002298435599993135
sI1
Fnan
sI2
Fnan
sI3
Fnan
sI4
Fnan
sI5
Fnan
sI6
Fnan
sI7
Fnan
ssg133
(dp374
I0
F37.55514
sI1
F34.99438
sI2
F34.21181
sI3
F34.42999
sI4
F35.93093
sI5
F38.83563
sI6
F37.14169
sI7
F32.49453
ssg135
(dp375
I0
F10.978
sI1
F10.922
sI2
F10.921
sI3
F10.914
sI4
F10.966
sI5
F10.996
sI6
F10.968
sI7
F10.897
ssg137
(dp376
I0
F0.6903878456121526
sI1
Fnan
sI2
Fnan
sI3
Fnan
sI4
Fnan
sI5
Fnan
sI6
Fnan
sI7
Fnan
sss.