(dp0
S'r'
p1
(dp2
S'sigmean'
p3
(dp4
I0
F0.5428805067536594
sI1
Fnan
sI2
Fnan
sI3
Fnan
sI4
Fnan
sI5
Fnan
sI6
Fnan
sI7
Fnan
sI8
Fnan
sI9
Fnan
sI10
Fnan
sI11
Fnan
sI12
Fnan
sI13
Fnan
sI14
Fnan
sI15
Fnan
sI16
Fnan
sI17
Fnan
sI18
Fnan
sI19
Fnan
sI20
Fnan
sI21
Fnan
sI22
Fnan
sI23
Fnan
sI24
Fnan
sI25
Fnan
sI26
Fnan
sI27
Fnan
sI28
Fnan
sI29
Fnan
sI30
Fnan
sI31
Fnan
sI32
Fnan
sI33
Fnan
sI34
Fnan
sI35
Fnan
sI36
Fnan
sI37
Fnan
sI38
Fnan
sI39
Fnan
sI40
Fnan
sI41
Fnan
sI42
Fnan
sI43
Fnan
sI44
Fnan
ssS'ref3flag'
p5
(dp6
I0
S'NoError'
p7
sI1
S'NoError'
p8
sI2
S'NoError'
p9
sI3
S'NoError'
p10
sI4
S'NoError'
p11
sI5
S'NoError'
p12
sI6
S'NoError'
p13
sI7
S'NoError'
p14
sI8
S'NoError'
p15
sI9
S'NoError'
p16
sI10
S'NoError'
p17
sI11
S'NoError'
p18
sI12
S'NoError'
p19
sI13
S'NoError'
p20
sI14
S'NoError'
p21
sI15
S'NoError'
p22
sI16
S'NoError'
p23
sI17
S'NoError'
p24
sI18
S'NoError'
p25
sI19
S'NoError'
p26
sI20
S'NoError'
p27
sI21
S'NoError'
p28
sI22
S'NoError'
p29
sI23
S'NoError'
p30
sI24
S'NoError'
p31
sI25
S'NoError'
p32
sI26
S'NoError'
p33
sI27
S'NoError'
p34
sI28
S'NoError'
p35
sI29
S'NoError'
p36
sI30
S'NoError'
p37
sI31
S'NoError'
p38
sI32
S'NoError'
p39
sI33
S'NoError'
p40
sI34
S'NoError'
p41
sI35
S'NoError'
p42
sI36
S'NoError'
p43
sI37
S'NoError'
p44
sI38
S'NoError'
p45
sI39
S'NoError'
p46
sI40
S'NoError'
p47
sI41
S'NoError'
p48
sI42
S'NoError'
p49
sI43
S'NoError'
p50
sI44
S'NoError'
p51
ssS'tabbyerr'
p52
(dp53
I0
F0.002
sI1
F0.002
sI2
F0.002
sI3
F0.002
sI4
F0.002
sI5
F0.002
sI6
F0.003
sI7
F0.002
sI8
F0.002
sI9
F0.002
sI10
F0.002
sI11
F0.002
sI12
F0.002
sI13
F0.002
sI14
F0.002
sI15
F0.002
sI16
F0.002
sI17
F0.002
sI18
F0.003
sI19
F0.002
sI20
F0.002
sI21
F0.002
sI22
F0.002
sI23
F0.002
sI24
F0.002
sI25
F0.002
sI26
F0.002
sI27
F0.002
sI28
F0.002
sI29
F0.002
sI30
F0.002
sI31
F0.002
sI32
F0.002
sI33
F0.002
sI34
F0.002
sI35
F0.002
sI36
F0.002
sI37
F0.002
sI38
F0.002
sI39
F0.002
sI40
F0.002
sI41
F0.002
sI42
F0.003
sI43
F0.002
sI44
F0.002
ssS'ref2rel'
p54
(dp55
I0
F0.8924985443583034
sI1
F0.8896504004266866
sI2
F0.8949435391238693
sI3
F0.8971945349570623
sI4
F0.8944235827103454
sI5
F0.8934736063902898
sI6
F0.8949540610833714
sI7
F0.8955515857059043
sI8
F0.8929399686214032
sI9
F0.898364366844679
sI10
F0.894946633784295
sI11
F0.8953099669330312
sI12
F0.8915303431122499
sI13
F0.8992426245887183
sI14
F0.8915114933526027
sI15
F0.8913429134459708
sI16
F0.895012238549404
sI17
F0.8940949712298311
sI18
F0.8937262902657228
sI19
F0.8943949563506238
sI20
F0.8950943227447895
sI21
F0.8972247539256699
sI22
F0.9023100001791781
sI23
F0.8974931785991263
sI24
F0.8942674305806239
sI25
F0.8927176637408507
sI26
F0.897215354738294
sI27
F0.9004799364146734
sI28
F0.8927415566896023
sI29
F0.8936000680535253
sI30
F0.8971238871027356
sI31
F0.8917187605110108
sI32
F0.8943394623823445
sI33
F0.8994110647261851
sI34
F0.900056517099519
sI35
F0.895855546698908
sI36
F0.8999678063932794
sI37
F0.8911737466895354
sI38
F0.8975854326448637
sI39
F0.8931624469667532
sI40
F0.8997906403089955
sI41
F0.8986983729057286
sI42
F0.8966148109103922
sI43
F0.898255155399513
sI44
F0.8951139764882737
ssS'ref2err'
p56
(dp57
I0
F0.0029344886844797384
sI1
Fnan
sI2
Fnan
sI3
Fnan
sI4
Fnan
sI5
Fnan
sI6
Fnan
sI7
Fnan
sI8
Fnan
sI9
Fnan
sI10
Fnan
sI11
Fnan
sI12
Fnan
sI13
Fnan
sI14
Fnan
sI15
Fnan
sI16
Fnan
sI17
Fnan
sI18
Fnan
sI19
Fnan
sI20
Fnan
sI21
Fnan
sI22
Fnan
sI23
Fnan
sI24
Fnan
sI25
Fnan
sI26
Fnan
sI27
Fnan
sI28
Fnan
sI29
Fnan
sI30
Fnan
sI31
Fnan
sI32
Fnan
sI33
Fnan
sI34
Fnan
sI35
Fnan
sI36
Fnan
sI37
Fnan
sI38
Fnan
sI39
Fnan
sI40
Fnan
sI41
Fnan
sI42
Fnan
sI43
Fnan
sI44
Fnan
ssS'ref2mean'
p58
(dp59
I0
F0.8954915225495275
sI1
Fnan
sI2
Fnan
sI3
Fnan
sI4
Fnan
sI5
Fnan
sI6
Fnan
sI7
Fnan
sI8
Fnan
sI9
Fnan
sI10
Fnan
sI11
Fnan
sI12
Fnan
sI13
Fnan
sI14
Fnan
sI15
Fnan
sI16
Fnan
sI17
Fnan
sI18
Fnan
sI19
Fnan
sI20
Fnan
sI21
Fnan
sI22
Fnan
sI23
Fnan
sI24
Fnan
sI25
Fnan
sI26
Fnan
sI27
Fnan
sI28
Fnan
sI29
Fnan
sI30
Fnan
sI31
Fnan
sI32
Fnan
sI33
Fnan
sI34
Fnan
sI35
Fnan
sI36
Fnan
sI37
Fnan
sI38
Fnan
sI39
Fnan
sI40
Fnan
sI41
Fnan
sI42
Fnan
sI43
Fnan
sI44
Fnan
ssS'tabbymag'
p60
(dp61
I0
F11.164
sI1
F11.214
sI2
F11.228
sI3
F11.154
sI4
F11.181
sI5
F11.22
sI6
F11.262
sI7
F11.245
sI8
F11.219
sI9
F11.201
sI10
F11.201
sI11
F11.183
sI12
F11.179
sI13
F11.239
sI14
F11.204
sI15
F11.184
sI16
F11.169
sI17
F11.231
sI18
F11.265
sI19
F11.197
sI20
F11.174
sI21
F11.244
sI22
F11.258
sI23
F11.168
sI24
F11.174
sI25
F11.192
sI26
F11.206
sI27
F11.179
sI28
F11.168
sI29
F11.167
sI30
F11.226
sI31
F11.167
sI32
F11.204
sI33
F11.199
sI34
F11.233
sI35
F11.237
sI36
F11.26
sI37
F11.224
sI38
F11.182
sI39
F11.167
sI40
F11.235
sI41
F11.21
sI42
F11.263
sI43
F11.231
sI44
F11.205
ssS'tabbybkg'
p62
(dp63
I0
F43.91322
sI1
F57.0512
sI2
F64.05715
sI3
F45.36237
sI4
F43.88303
sI5
F63.62882
sI6
F69.63911
sI7
F61.58057
sI8
F56.88856
sI9
F54.92667
sI10
F51.96431
sI11
F44.11162
sI12
F41.39621
sI13
F67.90773
sI14
F51.13802
sI15
F40.72573
sI16
F45.62759
sI17
F65.29626
sI18
F70.494
sI19
F55.42507
sI20
F49.41918
sI21
F69.00327
sI22
F54.66938
sI23
F42.70914
sI24
F40.32016
sI25
F42.88035
sI26
F51.41224
sI27
F53.24563
sI28
F46.38605
sI29
F42.54066
sI30
F63.24588
sI31
F46.57219
sI32
F63.29366
sI33
F53.89396
sI34
F61.647
sI35
F58.98936
sI36
F69.48587
sI37
F61.1653
sI38
F45.36916
sI39
F45.69752
sI40
F62.95135
sI41
F57.5515
sI42
F62.87597
sI43
F51.38656
sI44
F53.33294
ssS'JD'
p64
(dp65
I0
F2458207.9874421298
sI1
F2458207.9444444445
sI2
F2458207.920914352
sI3
F2458207.9775925926
sI4
F2458207.986238426
sI5
F2458207.923287037
sI6
F2458207.9122569445
sI7
F2458207.9300694442
sI8
F2458207.9450347223
sI9
F2458207.9543055557
sI10
F2458207.9624074074
sI11
F2458207.986840278
sI12
F2458207.9960648147
sI13
F2458207.913472222
sI14
F2458207.9617939815
sI15
F2458207.995474537
sI16
F2458207.9769907407
sI17
F2458207.921516204
sI18
F2458207.9116550926
sI19
F2458207.945648148
sI20
F2458207.963009259
sI21
F2458207.9128703703
sI22
F2458207.953703704
sI23
F2458207.994861111
sI24
F2458207.9966666666
sI25
F2458207.9972569444
sI26
F2458207.964212963
sI27
F2458207.9525
sI28
F2458207.976377315
sI29
F2458207.9880439816
sI30
F2458207.922685185
sI31
F2458207.9781944444
sI32
F2458207.9220949076
sI33
F2458207.9549189815
sI34
F2458207.930659722
sI35
F2458207.943229167
sI36
F2458207.9140625
sI37
F2458207.9324189816
sI38
F2458207.985625
sI39
F2458207.9787962963
sI40
F2458207.9318287037
sI41
F2458207.9438310186
sI42
F2458207.93125
sI43
F2458207.963611111
sI44
F2458207.953101852
ssS'ref3rmsmean'
p66
(dp67
I0
F1.1566060444444444
sI1
Fnan
sI2
Fnan
sI3
Fnan
sI4
Fnan
sI5
Fnan
sI6
Fnan
sI7
Fnan
sI8
Fnan
sI9
Fnan
sI10
Fnan
sI11
Fnan
sI12
Fnan
sI13
Fnan
sI14
Fnan
sI15
Fnan
sI16
Fnan
sI17
Fnan
sI18
Fnan
sI19
Fnan
sI20
Fnan
sI21
Fnan
sI22
Fnan
sI23
Fnan
sI24
Fnan
sI25
Fnan
sI26
Fnan
sI27
Fnan
sI28
Fnan
sI29
Fnan
sI30
Fnan
sI31
Fnan
sI32
Fnan
sI33
Fnan
sI34
Fnan
sI35
Fnan
sI36
Fnan
sI37
Fnan
sI38
Fnan
sI39
Fnan
sI40
Fnan
sI41
Fnan
sI42
Fnan
sI43
Fnan
sI44
Fnan
ssS'ref1rmsmean'
p68
(dp69
I0
F1.1781677333333334
sI1
Fnan
sI2
Fnan
sI3
Fnan
sI4
Fnan
sI5
Fnan
sI6
Fnan
sI7
Fnan
sI8
Fnan
sI9
Fnan
sI10
Fnan
sI11
Fnan
sI12
Fnan
sI13
Fnan
sI14
Fnan
sI15
Fnan
sI16
Fnan
sI17
Fnan
sI18
Fnan
sI19
Fnan
sI20
Fnan
sI21
Fnan
sI22
Fnan
sI23
Fnan
sI24
Fnan
sI25
Fnan
sI26
Fnan
sI27
Fnan
sI28
Fnan
sI29
Fnan
sI30
Fnan
sI31
Fnan
sI32
Fnan
sI33
Fnan
sI34
Fnan
sI35
Fnan
sI36
Fnan
sI37
Fnan
sI38
Fnan
sI39
Fnan
sI40
Fnan
sI41
Fnan
sI42
Fnan
sI43
Fnan
sI44
Fnan
ssS'relflux'
p70
(dp71
I0
F0.5434325907585613
sI1
F0.543120411091393
sI2
F0.5403414963460742
sI3
F0.5463185783901372
sI4
F0.5406211754538847
sI5
F0.5457209823053227
sI6
F0.5458969081639384
sI7
F0.5450113542950762
sI8
F0.5398750833931275
sI9
F0.5425631034476751
sI10
F0.5392435190503062
sI11
F0.541966878611832
sI12
F0.5434659456103452
sI13
F0.5417861653831636
sI14
F0.5429953735568633
sI15
F0.542116180493965
sI16
F0.5430713682607127
sI17
F0.5462728216665224
sI18
F0.5422499679403763
sI19
F0.541824062673866
sI20
F0.5422399808364512
sI21
F0.5446918024495617
sI22
F0.5410677028361371
sI23
F0.5406739280568301
sI24
F0.5416383085105672
sI25
F0.542456701092228
sI26
F0.5419482698622762
sI27
F0.5454651617917711
sI28
F0.5449333878056019
sI29
F0.5417887489105151
sI30
F0.5419855575747974
sI31
F0.5438989909209446
sI32
F0.5494816846774946
sI33
F0.5425392013807716
sI34
F0.5441199265748324
sI35
F0.5445000604251
sI36
F0.5430699452366303
sI37
F0.5432960461080814
sI38
F0.541279228897598
sI39
F0.543427713736203
sI40
F0.5432423618215114
sI41
F0.5425683489841896
sI42
F0.5393146403291198
sI43
F0.5423932551210481
sI44
F0.5429311700660159
ssS'sigerr'
p72
(dp73
I0
F0.0013814084932610854
sI1
Fnan
sI2
Fnan
sI3
Fnan
sI4
Fnan
sI5
Fnan
sI6
Fnan
sI7
Fnan
sI8
Fnan
sI9
Fnan
sI10
Fnan
sI11
Fnan
sI12
Fnan
sI13
Fnan
sI14
Fnan
sI15
Fnan
sI16
Fnan
sI17
Fnan
sI18
Fnan
sI19
Fnan
sI20
Fnan
sI21
Fnan
sI22
Fnan
sI23
Fnan
sI24
Fnan
sI25
Fnan
sI26
Fnan
sI27
Fnan
sI28
Fnan
sI29
Fnan
sI30
Fnan
sI31
Fnan
sI32
Fnan
sI33
Fnan
sI34
Fnan
sI35
Fnan
sI36
Fnan
sI37
Fnan
sI38
Fnan
sI39
Fnan
sI40
Fnan
sI41
Fnan
sI42
Fnan
sI43
Fnan
sI44
Fnan
ssS'tabbyrmsmean'
p74
(dp75
I0
F1.7876246444444446
sI1
Fnan
sI2
Fnan
sI3
Fnan
sI4
Fnan
sI5
Fnan
sI6
Fnan
sI7
Fnan
sI8
Fnan
sI9
Fnan
sI10
Fnan
sI11
Fnan
sI12
Fnan
sI13
Fnan
sI14
Fnan
sI15
Fnan
sI16
Fnan
sI17
Fnan
sI18
Fnan
sI19
Fnan
sI20
Fnan
sI21
Fnan
sI22
Fnan
sI23
Fnan
sI24
Fnan
sI25
Fnan
sI26
Fnan
sI27
Fnan
sI28
Fnan
sI29
Fnan
sI30
Fnan
sI31
Fnan
sI32
Fnan
sI33
Fnan
sI34
Fnan
sI35
Fnan
sI36
Fnan
sI37
Fnan
sI38
Fnan
sI39
Fnan
sI40
Fnan
sI41
Fnan
sI42
Fnan
sI43
Fnan
sI44
Fnan
ssS'tabbyflag'
p76
(dp77
I0
g7
sI1
g8
sI2
g9
sI3
g10
sI4
g11
sI5
g12
sI6
g13
sI7
g14
sI8
g15
sI9
g16
sI10
g17
sI11
g18
sI12
g19
sI13
g20
sI14
g21
sI15
g22
sI16
g23
sI17
g24
sI18
g25
sI19
g26
sI20
g27
sI21
g28
sI22
g29
sI23
g30
sI24
g31
sI25
g32
sI26
g33
sI27
g34
sI28
g35
sI29
g36
sI30
g37
sI31
g38
sI32
g39
sI33
g40
sI34
g41
sI35
g42
sI36
g43
sI37
g44
sI38
g45
sI39
g46
sI40
g47
sI41
g48
sI42
g49
sI43
g50
sI44
g51
ssS'ref1err'
p78
(dp79
I0
F0.002427661766677275
sI1
Fnan
sI2
Fnan
sI3
Fnan
sI4
Fnan
sI5
Fnan
sI6
Fnan
sI7
Fnan
sI8
Fnan
sI9
Fnan
sI10
Fnan
sI11
Fnan
sI12
Fnan
sI13
Fnan
sI14
Fnan
sI15
Fnan
sI16
Fnan
sI17
Fnan
sI18
Fnan
sI19
Fnan
sI20
Fnan
sI21
Fnan
sI22
Fnan
sI23
Fnan
sI24
Fnan
sI25
Fnan
sI26
Fnan
sI27
Fnan
sI28
Fnan
sI29
Fnan
sI30
Fnan
sI31
Fnan
sI32
Fnan
sI33
Fnan
sI34
Fnan
sI35
Fnan
sI36
Fnan
sI37
Fnan
sI38
Fnan
sI39
Fnan
sI40
Fnan
sI41
Fnan
sI42
Fnan
sI43
Fnan
sI44
Fnan
ssS'ref2magmeanerr'
p80
(dp81
I0
F0.03123388473365996
sI1
Fnan
sI2
Fnan
sI3
Fnan
sI4
Fnan
sI5
Fnan
sI6
Fnan
sI7
Fnan
sI8
Fnan
sI9
Fnan
sI10
Fnan
sI11
Fnan
sI12
Fnan
sI13
Fnan
sI14
Fnan
sI15
Fnan
sI16
Fnan
sI17
Fnan
sI18
Fnan
sI19
Fnan
sI20
Fnan
sI21
Fnan
sI22
Fnan
sI23
Fnan
sI24
Fnan
sI25
Fnan
sI26
Fnan
sI27
Fnan
sI28
Fnan
sI29
Fnan
sI30
Fnan
sI31
Fnan
sI32
Fnan
sI33
Fnan
sI34
Fnan
sI35
Fnan
sI36
Fnan
sI37
Fnan
sI38
Fnan
sI39
Fnan
sI40
Fnan
sI41
Fnan
sI42
Fnan
sI43
Fnan
sI44
Fnan
ssS'ref2rmsmean'
p82
(dp83
I0
F1.247462377777778
sI1
Fnan
sI2
Fnan
sI3
Fnan
sI4
Fnan
sI5
Fnan
sI6
Fnan
sI7
Fnan
sI8
Fnan
sI9
Fnan
sI10
Fnan
sI11
Fnan
sI12
Fnan
sI13
Fnan
sI14
Fnan
sI15
Fnan
sI16
Fnan
sI17
Fnan
sI18
Fnan
sI19
Fnan
sI20
Fnan
sI21
Fnan
sI22
Fnan
sI23
Fnan
sI24
Fnan
sI25
Fnan
sI26
Fnan
sI27
Fnan
sI28
Fnan
sI29
Fnan
sI30
Fnan
sI31
Fnan
sI32
Fnan
sI33
Fnan
sI34
Fnan
sI35
Fnan
sI36
Fnan
sI37
Fnan
sI38
Fnan
sI39
Fnan
sI40
Fnan
sI41
Fnan
sI42
Fnan
sI43
Fnan
sI44
Fnan
ssS'ref3rel'
p84
(dp85
I0
F1.4970739943444658
sI1
F1.501333220062788
sI2
F1.490765163319237
sI3
F1.4991155667734974
sI4
F1.495088053254137
sI5
F1.4974667679305174
sI6
F1.4926622119527881
sI7
F1.4927043609079953
sI8
F1.4981537626743455
sI9
F1.4977181093153806
sI10
F1.5044182547810219
sI11
F1.4984164297618467
sI12
F1.4982539933604206
sI13
F1.4911437857566587
sI14
F1.4989811326869444
sI15
F1.5000742562943636
sI16
F1.5002266677997587
sI17
F1.495918935487088
sI18
F1.4947689205267296
sI19
F1.5013097030834275
sI20
F1.4906023035423068
sI21
F1.4943283479651226
sI22
F1.4923084343229631
sI23
F1.4994037643584892
sI24
F1.4979222143116973
sI25
F1.4979709359173172
sI26
F1.490938350420365
sI27
F1.4903091649387923
sI28
F1.4933824530454967
sI29
F1.500229757698136
sI30
F1.4906691266710148
sI31
F1.5027263207736694
sI32
F1.4934561503324535
sI33
F1.4942683644724084
sI34
F1.4832246020170756
sI35
F1.4989030728497417
sI36
F1.4903771623102646
sI37
F1.499164518114051
sI38
F1.4911089079263253
sI39
F1.4962185199168785
sI40
F1.4971357613733505
sI41
F1.4970151873209279
sI42
F1.4982974187933176
sI43
F1.4910594961028412
sI44
F1.5016063707170977
ssS'ref1flag'
p86
(dp87
I0
g7
sI1
g8
sI2
g9
sI3
g10
sI4
g11
sI5
g12
sI6
g13
sI7
g14
sI8
g15
sI9
g16
sI10
g17
sI11
g18
sI12
g19
sI13
g20
sI14
g21
sI15
g22
sI16
g23
sI17
g24
sI18
g25
sI19
g26
sI20
g27
sI21
g28
sI22
g29
sI23
g30
sI24
g31
sI25
g32
sI26
g33
sI27
g34
sI28
g35
sI29
g36
sI30
g37
sI31
g38
sI32
g39
sI33
g40
sI34
g41
sI35
g42
sI36
g43
sI37
g44
sI38
g45
sI39
g46
sI40
g47
sI41
g48
sI42
g49
sI43
g50
sI44
g51
ssS'ref2bkg'
p88
(dp89
I0
F44.99462
sI1
F60.25689
sI2
F66.01347
sI3
F47.23017
sI4
F47.86974
sI5
F66.76956
sI6
F71.49309
sI7
F65.15375
sI8
F59.20606
sI9
F56.25624
sI10
F53.25858
sI11
F46.56417
sI12
F45.34988
sI13
F70.83746
sI14
F53.83378
sI15
F45.30616
sI16
F49.0301
sI17
F67.58945
sI18
F71.59673
sI19
F58.52418
sI20
F53.36035
sI21
F70.21517
sI22
F58.52241
sI23
F42.91474
sI24
F42.755
sI25
F44.4623
sI26
F53.51855
sI27
F54.53113
sI28
F48.47475
sI29
F44.77398
sI30
F66.06739
sI31
F47.6042
sI32
F65.07894
sI33
F54.08373
sI34
F65.00352
sI35
F60.90436
sI36
F70.71742
sI37
F63.42815
sI38
F45.87563
sI39
F46.21439
sI40
F64.46381
sI41
F60.2954
sI42
F65.91324
sI43
F55.06067
sI44
F56.58137
ssS'ref3magmean'
p90
(dp91
I0
F10.272644444444445
sI1
Fnan
sI2
Fnan
sI3
Fnan
sI4
Fnan
sI5
Fnan
sI6
Fnan
sI7
Fnan
sI8
Fnan
sI9
Fnan
sI10
Fnan
sI11
Fnan
sI12
Fnan
sI13
Fnan
sI14
Fnan
sI15
Fnan
sI16
Fnan
sI17
Fnan
sI18
Fnan
sI19
Fnan
sI20
Fnan
sI21
Fnan
sI22
Fnan
sI23
Fnan
sI24
Fnan
sI25
Fnan
sI26
Fnan
sI27
Fnan
sI28
Fnan
sI29
Fnan
sI30
Fnan
sI31
Fnan
sI32
Fnan
sI33
Fnan
sI34
Fnan
sI35
Fnan
sI36
Fnan
sI37
Fnan
sI38
Fnan
sI39
Fnan
sI40
Fnan
sI41
Fnan
sI42
Fnan
sI43
Fnan
sI44
Fnan
ssS'ref1mean'
p92
(dp93
I0
F0.7130415100342322
sI1
Fnan
sI2
Fnan
sI3
Fnan
sI4
Fnan
sI5
Fnan
sI6
Fnan
sI7
Fnan
sI8
Fnan
sI9
Fnan
sI10
Fnan
sI11
Fnan
sI12
Fnan
sI13
Fnan
sI14
Fnan
sI15
Fnan
sI16
Fnan
sI17
Fnan
sI18
Fnan
sI19
Fnan
sI20
Fnan
sI21
Fnan
sI22
Fnan
sI23
Fnan
sI24
Fnan
sI25
Fnan
sI26
Fnan
sI27
Fnan
sI28
Fnan
sI29
Fnan
sI30
Fnan
sI31
Fnan
sI32
Fnan
sI33
Fnan
sI34
Fnan
sI35
Fnan
sI36
Fnan
sI37
Fnan
sI38
Fnan
sI39
Fnan
sI40
Fnan
sI41
Fnan
sI42
Fnan
sI43
Fnan
sI44
Fnan
ssS'ref1rms'
p94
(dp95
I0
F4.74981
sI1
F3.575022
sI2
F2.198523
sI3
F5.753291
sI4
F3.529076
sI5
F-4.406987
sI6
F3.554173
sI7
F2.382225
sI8
F4.068314
sI9
F-3.552199
sI10
F-4.549084
sI11
F4.132493
sI12
F1.849087
sI13
F-4.200865
sI14
F4.683987
sI15
F5.002105
sI16
F3.109473
sI17
F4.959056
sI18
F-5.293444
sI19
F-2.56233
sI20
F3.986943
sI21
F-2.130374
sI22
F-5.709742
sI23
F0.8596739
sI24
F4.807757
sI25
F-0.8115489
sI26
F3.341615
sI27
F4.252324
sI28
F2.471812
sI29
F-4.087409
sI30
F4.889399
sI31
F-4.046427
sI32
F4.220153
sI33
F-2.81328
sI34
F2.887364
sI35
F5.185397
sI36
F5.640732
sI37
F-4.592726
sI38
F-4.232548
sI39
F3.223711
sI40
F2.532893
sI41
F-5.402358
sI42
F1.494727
sI43
F5.267868
sI44
F2.799866
ssS'ref2magmean'
p96
(dp97
I0
F10.625111111111112
sI1
Fnan
sI2
Fnan
sI3
Fnan
sI4
Fnan
sI5
Fnan
sI6
Fnan
sI7
Fnan
sI8
Fnan
sI9
Fnan
sI10
Fnan
sI11
Fnan
sI12
Fnan
sI13
Fnan
sI14
Fnan
sI15
Fnan
sI16
Fnan
sI17
Fnan
sI18
Fnan
sI19
Fnan
sI20
Fnan
sI21
Fnan
sI22
Fnan
sI23
Fnan
sI24
Fnan
sI25
Fnan
sI26
Fnan
sI27
Fnan
sI28
Fnan
sI29
Fnan
sI30
Fnan
sI31
Fnan
sI32
Fnan
sI33
Fnan
sI34
Fnan
sI35
Fnan
sI36
Fnan
sI37
Fnan
sI38
Fnan
sI39
Fnan
sI40
Fnan
sI41
Fnan
sI42
Fnan
sI43
Fnan
sI44
Fnan
ssS'ref2flag'
p98
(dp99
I0
g7
sI1
g8
sI2
g9
sI3
g10
sI4
g11
sI5
g12
sI6
g13
sI7
g14
sI8
g15
sI9
g16
sI10
g17
sI11
g18
sI12
g19
sI13
g20
sI14
g21
sI15
g22
sI16
g23
sI17
g24
sI18
g25
sI19
g26
sI20
g27
sI21
g28
sI22
g29
sI23
g30
sI24
g31
sI25
g32
sI26
g33
sI27
g34
sI28
g35
sI29
g36
sI30
g37
sI31
g38
sI32
g39
sI33
g40
sI34
g41
sI35
g42
sI36
g43
sI37
g44
sI38
g45
sI39
g46
sI40
g47
sI41
g48
sI42
g49
sI43
g50
sI44
g51
ssS'ref2'
p100
(dp101
I0
F14641.56
sI1
F13957.96
sI2
F13915.316
sI3
F14762.271999999999
sI4
F14520.431999999999
sI5
F13864.516000000001
sI6
F13347.676000000001
sI7
F13585.428
sI8
F14016.768
sI9
F14235.568000000001
sI10
F14289.808
sI11
F14464.9
sI12
F14429.44
sI13
F13784.956
sI14
F14114.196000000002
sI15
F14400.011999999999
sI16
F14618.072
sI17
F13710.308
sI18
F13381.072
sI19
F14271.591999999999
sI20
F14569.248
sI21
F13622.576000000001
sI22
F13596.756000000001
sI23
F14727.312
sI24
F14576.483999999999
sI25
F14303.908000000001
sI26
F14185.348
sI27
F14483.511999999999
sI28
F14555.128
sI29
F14664.524
sI30
F13917.788
sI31
F14581.296
sI32
F13983.044
sI33
F14277.62
sI34
F13807.308
sI35
F13700.292
sI36
F13491.016000000001
sI37
F13846.923999999999
sI38
F14518.36
sI39
F14613.84
sI40
F13803.743999999999
sI41
F14134.32
sI42
F13516.488000000001
sI43
F13853.923999999999
sI44
F14138.336000000001
ssS'airmass'
p102
(dp103
I0
F1.283533
sI1
F1.539197
sI2
F1.748873
sI3
F1.331105
sI4
F1.289035
sI5
F1.724739
sI6
F1.8437310000000002
sI7
F1.659674
sI8
F1.534576
sI9
F1.468138
sI10
F1.415964
sI11
F1.28627
sI12
F1.24625
sI13
F1.829923
sI14
F1.419675
sI15
F1.248695
sI16
F1.334215
sI17
F1.7428290000000002
sI18
F1.850768
sI19
F1.530044
sI20
F1.412302
sI21
F1.836762
sI22
F1.472232
sI23
F1.251185
sI24
F1.243794
sI25
F1.241322
sI26
F1.404978
sI27
F1.480544
sI28
F1.337338
sI29
F1.280823
sI30
F1.7307400000000002
sI31
F1.328019
sI32
F1.7367970000000001
sI33
F1.4640309999999999
sI34
F1.654261
sI35
F1.5485389999999999
sI36
F1.823078
sI37
F1.638422
sI38
F1.291856
sI39
F1.324971
sI40
F1.643716
sI41
F1.543822
sI42
F1.648969
sI43
F1.408642
sI44
F1.4763629999999999
ssS'ref1'
p104
(dp105
I0
F12496.46
sI1
F11938.74
sI2
F11874.42
sI3
F12484.556
sI4
F12368.296
sI5
F11810.983999999999
sI6
F11376.396
sI7
F11567.132
sI8
F11946.308
sI9
F12025.988000000001
sI10
F12090.743999999999
sI11
F12277.204
sI12
F12326.472
sI13
F11676.036
sI14
F12052.116000000002
sI15
F12291.328000000001
sI16
F12399.44
sI17
F11678.656
sI18
F11413.428
sI19
F12109.96
sI20
F12430.56
sI21
F11554.568000000001
sI22
F11449.38
sI23
F12446.508
sI24
F12397.423999999999
sI25
F12196.98
sI26
F12057.556
sI27
F12248.756000000001
sI28
F12446.116000000002
sI29
F12468.408000000001
sI30
F11833.928
sI31
F12417.728000000001
sI32
F11924.336000000001
sI33
F12066.344
sI34
F11737.003999999999
sI35
F11614.06
sI36
F11418.684
sI37
F11829.276000000002
sI38
F12331.66
sI39
F12465.503999999999
sI40
F11637.572
sI41
F11939.008
sI42
F11447.96
sI43
F11754.476
sI44
F11980.168
ssS'ref3'
p106
(dp107
I0
F20313.811999999998
sI1
F19439.788
sI2
F19223.22
sI3
F20423.072
sI4
F20100.508
sI5
F19224.104
sI6
F18452.343999999997
sI7
F18772.668
sI8
F19448.34
sI9
F19666.203999999998
sI10
F19843.692
sI11
F20035.404
sI12
F20043.576
sI13
F18983.0
sI14
F19611.404
sI15
F20019.496
sI16
F20266.196
sI17
F18989.916
sI18
F18531.023999999998
sI19
F19803.44
sI20
F20122.988
sI21
F18811.46
sI22
F18688.28
sI23
F20372.264
sI24
F20202.408
sI25
F19848.78
sI26
F19563.276
sI27
F19919.672
sI28
F20161.592
sI29
F20352.816000000003
sI30
F19193.644
sI31
F20286.072
sI32
F19345.768
sI33
F19682.476000000002
sI34
F18943.976000000002
sI35
F18971.88
sI36
F18562.424
sI37
F19246.424
sI38
F20018.152
sI39
F20258.308
sI40
F19044.552
sI41
F19516.084
sI42
F18702.084
sI43
F19091.824
sI44
F19609.856
ssS'ref1bkg'
p108
(dp109
I0
F45.71974
sI1
F57.91515
sI2
F66.74721
sI3
F45.78293
sI4
F45.38014
sI5
F66.00687
sI6
F71.4139
sI7
F64.88065
sI8
F58.26315
sI9
F55.12865
sI10
F54.14391
sI11
F45.2963
sI12
F44.05493
sI13
F70.06078
sI14
F52.30016
sI15
F43.00069
sI16
F46.86589
sI17
F65.8426
sI18
F72.44115
sI19
F57.03878
sI20
F51.04527
sI21
F70.53542
sI22
F59.20245
sI23
F43.49873
sI24
F42.6812
sI25
F43.22346
sI26
F52.87244
sI27
F55.07212
sI28
F48.09617
sI29
F45.31422
sI30
F66.12962
sI31
F47.61403
sI32
F66.39081
sI33
F55.48941
sI34
F64.04106
sI35
F59.87267
sI36
F69.97014
sI37
F63.80087
sI38
F46.28967
sI39
F46.04135
sI40
F64.09131
sI41
F60.57533
sI42
F64.86035
sI43
F53.86079
sI44
F56.3656
ssS'ref1mag'
p110
(dp111
I0
F10.758
sI1
F10.808
sI2
F10.813
sI3
F10.759
sI4
F10.769
sI5
F10.819
sI6
F10.86
sI7
F10.842
sI8
F10.807
sI9
F10.8
sI10
F10.794
sI11
F10.777
sI12
F10.773
sI13
F10.832
sI14
F10.797
sI15
F10.776
sI16
F10.766
sI17
F10.832
sI18
F10.856
sI19
F10.792
sI20
F10.764
sI21
F10.843
sI22
F10.853
sI23
F10.762
sI24
F10.767
sI25
F10.784
sI26
F10.797
sI27
F10.78
sI28
F10.762
sI29
F10.76
sI30
F10.817
sI31
F10.765
sI32
F10.809
sI33
F10.796
sI34
F10.826
sI35
F10.838
sI36
F10.856
sI37
F10.818
sI38
F10.772
sI39
F10.761
sI40
F10.835
sI41
F10.808
sI42
F10.853
sI43
F10.824
sI44
F10.804
ssS'ref3magerr'
p112
(dp113
I0
F0.001
sI1
F0.001
sI2
F0.001
sI3
F0.001
sI4
F0.001
sI5
F0.001
sI6
F0.002
sI7
F0.001
sI8
F0.001
sI9
F0.001
sI10
F0.001
sI11
F0.001
sI12
F0.001
sI13
F0.001
sI14
F0.001
sI15
F0.001
sI16
F0.001
sI17
F0.001
sI18
F0.002
sI19
F0.001
sI20
F0.001
sI21
F0.001
sI22
F0.002
sI23
F0.001
sI24
F0.001
sI25
F0.001
sI26
F0.001
sI27
F0.001
sI28
F0.001
sI29
F0.001
sI30
F0.001
sI31
F0.001
sI32
F0.001
sI33
F0.001
sI34
F0.001
sI35
F0.001
sI36
F0.002
sI37
F0.001
sI38
F0.001
sI39
F0.001
sI40
F0.001
sI41
F0.001
sI42
F0.001
sI43
F0.001
sI44
F0.001
ssS'tabbymagmean'
p114
(dp115
I0
F11.206955555555556
sI1
Fnan
sI2
Fnan
sI3
Fnan
sI4
Fnan
sI5
Fnan
sI6
Fnan
sI7
Fnan
sI8
Fnan
sI9
Fnan
sI10
Fnan
sI11
Fnan
sI12
Fnan
sI13
Fnan
sI14
Fnan
sI15
Fnan
sI16
Fnan
sI17
Fnan
sI18
Fnan
sI19
Fnan
sI20
Fnan
sI21
Fnan
sI22
Fnan
sI23
Fnan
sI24
Fnan
sI25
Fnan
sI26
Fnan
sI27
Fnan
sI28
Fnan
sI29
Fnan
sI30
Fnan
sI31
Fnan
sI32
Fnan
sI33
Fnan
sI34
Fnan
sI35
Fnan
sI36
Fnan
sI37
Fnan
sI38
Fnan
sI39
Fnan
sI40
Fnan
sI41
Fnan
sI42
Fnan
sI43
Fnan
sI44
Fnan
ssS'ref1magmean'
p116
(dp117
I0
F10.801866666666665
sI1
Fnan
sI2
Fnan
sI3
Fnan
sI4
Fnan
sI5
Fnan
sI6
Fnan
sI7
Fnan
sI8
Fnan
sI9
Fnan
sI10
Fnan
sI11
Fnan
sI12
Fnan
sI13
Fnan
sI14
Fnan
sI15
Fnan
sI16
Fnan
sI17
Fnan
sI18
Fnan
sI19
Fnan
sI20
Fnan
sI21
Fnan
sI22
Fnan
sI23
Fnan
sI24
Fnan
sI25
Fnan
sI26
Fnan
sI27
Fnan
sI28
Fnan
sI29
Fnan
sI30
Fnan
sI31
Fnan
sI32
Fnan
sI33
Fnan
sI34
Fnan
sI35
Fnan
sI36
Fnan
sI37
Fnan
sI38
Fnan
sI39
Fnan
sI40
Fnan
sI41
Fnan
sI42
Fnan
sI43
Fnan
sI44
Fnan
ssS'ref2mag'
p118
(dp119
I0
F10.586
sI1
F10.638
sI2
F10.641
sI3
F10.577
sI4
F10.595
sI5
F10.645
sI6
F10.686
sI7
F10.667
sI8
F10.633
sI9
F10.617
sI10
F10.612
sI11
F10.599
sI12
F10.602
sI13
F10.651
sI14
F10.626
sI15
F10.604
sI16
F10.588
sI17
F10.657
sI18
F10.684
sI19
F10.614
sI20
F10.591
sI21
F10.664
sI22
F10.666
sI23
F10.58
sI24
F10.591
sI25
F10.611
sI26
F10.62
sI27
F10.598
sI28
F10.592
sI29
F10.584
sI30
F10.641
sI31
F10.591
sI32
F10.636
sI33
F10.613
sI34
F10.65
sI35
F10.658
sI36
F10.675
sI37
F10.647
sI38
F10.595
sI39
F10.588
sI40
F10.65
sI41
F10.624
sI42
F10.673
sI43
F10.646
sI44
F10.624
ssS'ref3rms'
p120
(dp121
I0
F4.947518
sI1
F3.106369
sI2
F-3.14597
sI3
F-2.510526
sI4
F-4.279063
sI5
F-3.369047
sI6
F4.80078
sI7
F-5.050644
sI8
F3.895987
sI9
F-4.659597
sI10
F3.955325
sI11
F4.276297
sI12
F4.408879
sI13
F4.960733
sI14
F-4.891445
sI15
F-2.056021
sI16
F-3.240489
sI17
F-3.520624
sI18
F3.987148
sI19
F4.228885
sI20
F-2.624926
sI21
F5.425585
sI22
F5.577486
sI23
F2.326916
sI24
F-3.096473
sI25
F3.865171
sI26
F-3.505854
sI27
F-4.893137
sI28
F3.274403
sI29
F5.457639
sI30
F6.09136
sI31
F4.135989
sI32
F2.003113
sI33
F-3.014094
sI34
F4.902865
sI35
F-3.215404
sI36
F5.244122
sI37
F4.41164
sI38
F5.605854
sI39
F-2.881655
sI40
F5.776202
sI41
F4.029443
sI42
F3.549587
sI43
F1.574508
sI44
F-3.817563
ssS'ref3magmeanerr'
p122
(dp123
I0
F0.03265881167155315
sI1
Fnan
sI2
Fnan
sI3
Fnan
sI4
Fnan
sI5
Fnan
sI6
Fnan
sI7
Fnan
sI8
Fnan
sI9
Fnan
sI10
Fnan
sI11
Fnan
sI12
Fnan
sI13
Fnan
sI14
Fnan
sI15
Fnan
sI16
Fnan
sI17
Fnan
sI18
Fnan
sI19
Fnan
sI20
Fnan
sI21
Fnan
sI22
Fnan
sI23
Fnan
sI24
Fnan
sI25
Fnan
sI26
Fnan
sI27
Fnan
sI28
Fnan
sI29
Fnan
sI30
Fnan
sI31
Fnan
sI32
Fnan
sI33
Fnan
sI34
Fnan
sI35
Fnan
sI36
Fnan
sI37
Fnan
sI38
Fnan
sI39
Fnan
sI40
Fnan
sI41
Fnan
sI42
Fnan
sI43
Fnan
sI44
Fnan
ssS'ref1rel'
p124
(dp125
I0
F0.7149951086202144
sI1
F0.7149428159048329
sI2
F0.7166532643445686
sI3
F0.7096452432012602
sI4
F0.7144979887894436
sI5
F0.713900065944122
sI6
F0.7154961537760041
sI7
F0.7149451562292168
sI8
F0.7139560404227592
sI9
F0.7094607326130329
sI10
F0.7084385720772847
sI11
F0.7117156996645595
sI12
F0.7151374280683767
sI13
F0.71264963856763
sI14
F0.7147161799938327
sI15
F0.714207071176032
sI16
F0.7108900780145366
sI17
F0.7142859938818767
sI18
F0.7153041906116101
sI19
F0.7107820177542312
sI20
F0.7166191305743451
sI21
F0.712496465133109
sI22
F0.7092685292344106
sI23
F0.7092113021536214
sI24
F0.7129280599278436
sI25
F0.7142617881204547
sI26
F0.7145509695447139
sI27
F0.7120710687708443
sI28
F0.717009901857088
sI29
F0.7121276487591576
sI30
F0.7147940928679859
sI31
F0.7122836458432997
sI32
F0.7155572181810742
sI33
F0.7106189570253274
sI34
F0.7167355026447206
sI35
F0.7109450819492502
sI36
F0.7124779118871484
sI37
F0.7149035510097076
sI38
F0.7141230706795173
sI39
F0.7149260779691574
sI40
F0.7085647304201106
sI41
F0.7095907674689435
sI42
F0.7106435381431554
sI43
F0.7135655866729753
sI44
F0.7099739150470638
ssS'exposure'
p126
(dp127
I0
F25.0
sI1
F25.0
sI2
F25.0
sI3
F25.0
sI4
F25.0
sI5
F25.0
sI6
F25.0
sI7
F25.0
sI8
F25.0
sI9
F25.0
sI10
F25.0
sI11
F25.0
sI12
F25.0
sI13
F25.0
sI14
F25.0
sI15
F25.0
sI16
F25.0
sI17
F25.0
sI18
F25.0
sI19
F25.0
sI20
F25.0
sI21
F25.0
sI22
F25.0
sI23
F25.0
sI24
F25.0
sI25
F25.0
sI26
F25.0
sI27
F25.0
sI28
F25.0
sI29
F25.0
sI30
F25.0
sI31
F25.0
sI32
F25.0
sI33
F25.0
sI34
F25.0
sI35
F25.0
sI36
F25.0
sI37
F25.0
sI38
F25.0
sI39
F25.0
sI40
F25.0
sI41
F25.0
sI42
F25.0
sI43
F25.0
sI44
F25.0
ssS'ref1magerr'
p128
(dp129
I0
F0.002
sI1
F0.002
sI2
F0.002
sI3
F0.002
sI4
F0.002
sI5
F0.002
sI6
F0.002
sI7
F0.002
sI8
F0.002
sI9
F0.002
sI10
F0.002
sI11
F0.002
sI12
F0.002
sI13
F0.002
sI14
F0.002
sI15
F0.002
sI16
F0.002
sI17
F0.002
sI18
F0.002
sI19
F0.002
sI20
F0.002
sI21
F0.002
sI22
F0.002
sI23
F0.002
sI24
F0.002
sI25
F0.002
sI26
F0.002
sI27
F0.002
sI28
F0.002
sI29
F0.002
sI30
F0.002
sI31
F0.002
sI32
F0.002
sI33
F0.002
sI34
F0.002
sI35
F0.002
sI36
F0.002
sI37
F0.002
sI38
F0.002
sI39
F0.002
sI40
F0.002
sI41
F0.002
sI42
F0.002
sI43
F0.002
sI44
F0.002
ssS'ref2magerr'
p130
(dp131
I0
F0.002
sI1
F0.002
sI2
F0.002
sI3
F0.002
sI4
F0.002
sI5
F0.002
sI6
F0.002
sI7
F0.002
sI8
F0.002
sI9
F0.002
sI10
F0.002
sI11
F0.002
sI12
F0.002
sI13
F0.002
sI14
F0.002
sI15
F0.002
sI16
F0.002
sI17
F0.002
sI18
F0.002
sI19
F0.002
sI20
F0.002
sI21
F0.002
sI22
F0.002
sI23
F0.002
sI24
F0.002
sI25
F0.002
sI26
F0.002
sI27
F0.002
sI28
F0.002
sI29
F0.002
sI30
F0.002
sI31
F0.002
sI32
F0.002
sI33
F0.002
sI34
F0.002
sI35
F0.002
sI36
F0.002
sI37
F0.002
sI38
F0.002
sI39
F0.002
sI40
F0.002
sI41
F0.002
sI42
F0.002
sI43
F0.002
sI44
F0.002
ssS'ref2rms'
p132
(dp133
I0
F3.385396
sI1
F2.874072
sI2
F2.803952
sI3
F2.502209
sI4
F-5.216856
sI5
F2.436404
sI6
F4.46515
sI7
F-4.971164
sI8
F-3.802315
sI9
F-4.955278
sI10
F4.375612
sI11
F-4.016708
sI12
F-4.552611
sI13
F-4.882913
sI14
F5.333765
sI15
F-4.415679
sI16
F2.796353
sI17
F2.97837
sI18
F4.38131
sI19
F-4.140273
sI20
F-4.642913
sI21
F5.493596
sI22
F6.277264
sI23
F3.640734
sI24
F1.866749
sI25
F5.736204
sI26
F-3.190618
sI27
F2.781602
sI28
F-4.045364
sI29
F3.891661
sI30
F4.636684
sI31
F2.53863
sI32
F4.115605
sI33
F4.234369
sI34
F-3.51021
sI35
F2.61858
sI36
F5.266605
sI37
F5.794405
sI38
F4.662862
sI39
F4.074202
sI40
F3.67676
sI41
F-1.701986
sI42
F-3.83552
sI43
F4.841699
sI44
F3.535411
ssS'name'
p134
(dp135
I0
S"KIC8462852-20180330at114155_-35-1-025-r'_cal.fts.mag.1"
p136
sI1
S"KIC8462852-20180330at103959_-35-1-025-r'_cal.fts.mag.1"
p137
sI2
S"KIC8462852-20180330at100605_-35-1-025-r'_cal.fts.mag.1"
p138
sI3
S"KIC8462852-20180330at112744_-35-1-025-r'_cal.fts.mag.1"
p139
sI4
S"KIC8462852-20180330at114011_-35-1-025-r'_cal.fts.mag.1"
p140
sI5
S"KIC8462852-20180330at100932_-35-1-025-r'_cal.fts.mag.1"
p141
sI6
S"KIC8462852-20180330at095339_-35-1-025-r'_cal.fts.mag.1"
p142
sI7
S"KIC8462852-20180330at101917_-35-1-025-r'_cal.fts.mag.1"
p143
sI8
S"KIC8462852-20180330at104051_-35-1-025-r'_cal.fts.mag.1"
p144
sI9
S"KIC8462852-20180330at105412_-35-1-025-r'_cal.fts.mag.1"
p145
sI10
S"KIC8462852-20180330at110552_-35-1-025-r'_cal.fts.mag.1"
p146
sI11
S"KIC8462852-20180330at114103_-35-1-025-r'_cal.fts.mag.1"
p147
sI12
S"KIC8462852-20180330at115420_-35-1-025-r'_cal.fts.mag.1"
p148
sI13
S"KIC8462852-20180330at095523_-35-1-025-r'_cal.fts.mag.1"
p149
sI14
S"KIC8462852-20180330at110457_-35-1-025-r'_cal.fts.mag.1"
p150
sI15
S"KIC8462852-20180330at115328_-35-1-025-r'_cal.fts.mag.1"
p151
sI16
S"KIC8462852-20180330at112651_-35-1-025-r'_cal.fts.mag.1"
p152
sI17
S"KIC8462852-20180330at100658_-35-1-025-r'_cal.fts.mag.1"
p153
sI18
S"KIC8462852-20180330at095245_-35-1-025-r'_cal.fts.mag.1"
p154
sI19
S"KIC8462852-20180330at104144_-35-1-025-r'_cal.fts.mag.1"
p155
sI20
S"KIC8462852-20180330at110644_-35-1-025-r'_cal.fts.mag.1"
p156
sI21
S"KIC8462852-20180330at095432_-35-1-025-r'_cal.fts.mag.1"
p157
sI22
S"KIC8462852-20180330at105320_-35-1-025-r'_cal.fts.mag.1"
p158
sI23
S"KIC8462852-20180330at115235_-35-1-025-r'_cal.fts.mag.1"
p159
sI24
S"KIC8462852-20180330at115512_-35-1-025-r'_cal.fts.mag.1"
p160
sI25
S"KIC8462852-20180330at115603_-35-1-025-r'_cal.fts.mag.1"
p161
sI26
S"KIC8462852-20180330at110828_-35-1-025-r'_cal.fts.mag.1"
p162
sI27
S"KIC8462852-20180330at105134_-35-1-025-r'_cal.fts.mag.1"
p163
sI28
S"KIC8462852-20180330at112558_-35-1-025-r'_cal.fts.mag.1"
p164
sI29
S"KIC8462852-20180330at114247_-35-1-025-r'_cal.fts.mag.1"
p165
sI30
S"KIC8462852-20180330at100840_-35-1-025-r'_cal.fts.mag.1"
p166
sI31
S"KIC8462852-20180330at112836_-35-1-025-r'_cal.fts.mag.1"
p167
sI32
S"KIC8462852-20180330at100749_-35-1-025-r'_cal.fts.mag.1"
p168
sI33
S"KIC8462852-20180330at105505_-35-1-025-r'_cal.fts.mag.1"
p169
sI34
S"KIC8462852-20180330at102009_-35-1-025-r'_cal.fts.mag.1"
p170
sI35
S"KIC8462852-20180330at103814_-35-1-025-r'_cal.fts.mag.1"
p171
sI36
S"KIC8462852-20180330at095615_-35-1-025-r'_cal.fts.mag.1"
p172
sI37
S"KIC8462852-20180330at102241_-35-1-025-r'_cal.fts.mag.1"
p173
sI38
S"KIC8462852-20180330at113917_-35-1-025-r'_cal.fts.mag.1"
p174
sI39
S"KIC8462852-20180330at112928_-35-1-025-r'_cal.fts.mag.1"
p175
sI40
S"KIC8462852-20180330at102150_-35-1-025-r'_cal.fts.mag.1"
p176
sI41
S"KIC8462852-20180330at103907_-35-1-025-r'_cal.fts.mag.1"
p177
sI42
S"KIC8462852-20180330at102100_-35-1-025-r'_cal.fts.mag.1"
p178
sI43
S"KIC8462852-20180330at110736_-35-1-025-r'_cal.fts.mag.1"
p179
sI44
S"KIC8462852-20180330at105228_-35-1-025-r'_cal.fts.mag.1"
p180
ssS'ref3err'
p181
(dp182
I0
F0.004287742805144618
sI1
Fnan
sI2
Fnan
sI3
Fnan
sI4
Fnan
sI5
Fnan
sI6
Fnan
sI7
Fnan
sI8
Fnan
sI9
Fnan
sI10
Fnan
sI11
Fnan
sI12
Fnan
sI13
Fnan
sI14
Fnan
sI15
Fnan
sI16
Fnan
sI17
Fnan
sI18
Fnan
sI19
Fnan
sI20
Fnan
sI21
Fnan
sI22
Fnan
sI23
Fnan
sI24
Fnan
sI25
Fnan
sI26
Fnan
sI27
Fnan
sI28
Fnan
sI29
Fnan
sI30
Fnan
sI31
Fnan
sI32
Fnan
sI33
Fnan
sI34
Fnan
sI35
Fnan
sI36
Fnan
sI37
Fnan
sI38
Fnan
sI39
Fnan
sI40
Fnan
sI41
Fnan
sI42
Fnan
sI43
Fnan
sI44
Fnan
ssS'tabby'
p183
(dp184
I0
F8595.624
sI1
F8207.724
sI2
F8107.456
sI3
F8680.984
sI4
F8467.792
sI5
F8167.552
sI6
F7856.624
sI7
F7979.916
sI8
F8172.164000000001
sI9
F8306.235999999999
sI10
F8308.708
sI11
F8450.62
sI12
F8477.976
sI13
F8026.38
sI14
F8285.696
sI15
F8440.9
sI16
F8559.476
sI17
F8080.991999999999
sI18
F7831.088000000001
sI19
F8341.38
sI20
F8517.288
sI21
F7986.744000000001
sI22
F7887.76
sI23
F8568.976
sI24
F8517.5
sI25
F8380.896
sI26
F8274.86
sI27
F8482.336
sI28
F8566.868
sI29
F8575.748
sI30
F8119.911999999999
sI31
F8572.771999999999
sI32
F8288.591999999999
sI33
F8323.716
sI34
F8068.988
sI35
F8037.951999999999
sI36
F7869.468000000001
sI37
F8135.428000000001
sI38
F8456.256
sI39
F8574.864
sI40
F8055.536
sI41
F8245.124
sI42
F7850.0
sI43
F8081.7
sI44
F8275.784
ssS'ref1magmeanerr'
p185
(dp186
I0
F0.03195209482391362
sI1
Fnan
sI2
Fnan
sI3
Fnan
sI4
Fnan
sI5
Fnan
sI6
Fnan
sI7
Fnan
sI8
Fnan
sI9
Fnan
sI10
Fnan
sI11
Fnan
sI12
Fnan
sI13
Fnan
sI14
Fnan
sI15
Fnan
sI16
Fnan
sI17
Fnan
sI18
Fnan
sI19
Fnan
sI20
Fnan
sI21
Fnan
sI22
Fnan
sI23
Fnan
sI24
Fnan
sI25
Fnan
sI26
Fnan
sI27
Fnan
sI28
Fnan
sI29
Fnan
sI30
Fnan
sI31
Fnan
sI32
Fnan
sI33
Fnan
sI34
Fnan
sI35
Fnan
sI36
Fnan
sI37
Fnan
sI38
Fnan
sI39
Fnan
sI40
Fnan
sI41
Fnan
sI42
Fnan
sI43
Fnan
sI44
Fnan
ssS'filter'
p187
(dp188
I0
S"r'"
p189
sI1
S"r'"
p190
sI2
S"r'"
p191
sI3
S"r'"
p192
sI4
S"r'"
p193
sI5
S"r'"
p194
sI6
S"r'"
p195
sI7
S"r'"
p196
sI8
S"r'"
p197
sI9
S"r'"
p198
sI10
S"r'"
p199
sI11
S"r'"
p200
sI12
S"r'"
p201
sI13
S"r'"
p202
sI14
S"r'"
p203
sI15
S"r'"
p204
sI16
S"r'"
p205
sI17
S"r'"
p206
sI18
S"r'"
p207
sI19
S"r'"
p208
sI20
S"r'"
p209
sI21
S"r'"
p210
sI22
S"r'"
p211
sI23
S"r'"
p212
sI24
S"r'"
p213
sI25
S"r'"
p214
sI26
S"r'"
p215
sI27
S"r'"
p216
sI28
S"r'"
p217
sI29
S"r'"
p218
sI30
S"r'"
p219
sI31
S"r'"
p220
sI32
S"r'"
p221
sI33
S"r'"
p222
sI34
S"r'"
p223
sI35
S"r'"
p224
sI36
S"r'"
p225
sI37
S"r'"
p226
sI38
S"r'"
p227
sI39
S"r'"
p228
sI40
S"r'"
p229
sI41
S"r'"
p230
sI42
S"r'"
p231
sI43
S"r'"
p232
sI44
S"r'"
p233
ssS'tabbymagerr'
p234
(dp235
I0
F0.03173967660054331
sI1
Fnan
sI2
Fnan
sI3
Fnan
sI4
Fnan
sI5
Fnan
sI6
Fnan
sI7
Fnan
sI8
Fnan
sI9
Fnan
sI10
Fnan
sI11
Fnan
sI12
Fnan
sI13
Fnan
sI14
Fnan
sI15
Fnan
sI16
Fnan
sI17
Fnan
sI18
Fnan
sI19
Fnan
sI20
Fnan
sI21
Fnan
sI22
Fnan
sI23
Fnan
sI24
Fnan
sI25
Fnan
sI26
Fnan
sI27
Fnan
sI28
Fnan
sI29
Fnan
sI30
Fnan
sI31
Fnan
sI32
Fnan
sI33
Fnan
sI34
Fnan
sI35
Fnan
sI36
Fnan
sI37
Fnan
sI38
Fnan
sI39
Fnan
sI40
Fnan
sI41
Fnan
sI42
Fnan
sI43
Fnan
sI44
Fnan
ssS'tabbyrms'
p236
(dp237
I0
F-3.735757
sI1
F-4.103179
sI2
F3.825693
sI3
F3.971789
sI4
F4.077023
sI5
F4.060907
sI6
F1.981387
sI7
F2.662229
sI8
F4.295827
sI9
F2.90676
sI10
F-2.714416
sI11
F3.788761
sI12
F-3.029309
sI13
F-2.21964
sI14
F4.822509
sI15
F5.801801
sI16
F-2.522878
sI17
F2.26439
sI18
F3.393283
sI19
F-4.690319
sI20
F3.501402
sI21
F4.319139
sI22
F2.586399
sI23
F-5.038653
sI24
F4.224421
sI25
F-4.365148
sI26
F3.305969
sI27
F4.922898
sI28
F3.327868
sI29
F4.495076
sI30
F5.454876
sI31
F3.287735
sI32
F4.096822
sI33
F3.985499
sI34
F3.734783
sI35
F-5.404896
sI36
F4.733134
sI37
F3.620069
sI38
F-2.424384
sI39
F3.485958
sI40
F-2.545869
sI41
F-2.23366
sI42
F4.836481
sI43
F4.028418
sI44
F5.671911
ssS'ref3mean'
p238
(dp239
I0
F1.4959604443619001
sI1
Fnan
sI2
Fnan
sI3
Fnan
sI4
Fnan
sI5
Fnan
sI6
Fnan
sI7
Fnan
sI8
Fnan
sI9
Fnan
sI10
Fnan
sI11
Fnan
sI12
Fnan
sI13
Fnan
sI14
Fnan
sI15
Fnan
sI16
Fnan
sI17
Fnan
sI18
Fnan
sI19
Fnan
sI20
Fnan
sI21
Fnan
sI22
Fnan
sI23
Fnan
sI24
Fnan
sI25
Fnan
sI26
Fnan
sI27
Fnan
sI28
Fnan
sI29
Fnan
sI30
Fnan
sI31
Fnan
sI32
Fnan
sI33
Fnan
sI34
Fnan
sI35
Fnan
sI36
Fnan
sI37
Fnan
sI38
Fnan
sI39
Fnan
sI40
Fnan
sI41
Fnan
sI42
Fnan
sI43
Fnan
sI44
Fnan
ssS'median_JD'
p240
(dp241
I0
F2458207.953703704
sI1
Fnan
sI2
Fnan
sI3
Fnan
sI4
Fnan
sI5
Fnan
sI6
Fnan
sI7
Fnan
sI8
Fnan
sI9
Fnan
sI10
Fnan
sI11
Fnan
sI12
Fnan
sI13
Fnan
sI14
Fnan
sI15
Fnan
sI16
Fnan
sI17
Fnan
sI18
Fnan
sI19
Fnan
sI20
Fnan
sI21
Fnan
sI22
Fnan
sI23
Fnan
sI24
Fnan
sI25
Fnan
sI26
Fnan
sI27
Fnan
sI28
Fnan
sI29
Fnan
sI30
Fnan
sI31
Fnan
sI32
Fnan
sI33
Fnan
sI34
Fnan
sI35
Fnan
sI36
Fnan
sI37
Fnan
sI38
Fnan
sI39
Fnan
sI40
Fnan
sI41
Fnan
sI42
Fnan
sI43
Fnan
sI44
Fnan
ssS'error'
p242
(dp243
I0
F0.0020004076150967106
sI1
Fnan
sI2
Fnan
sI3
Fnan
sI4
Fnan
sI5
Fnan
sI6
Fnan
sI7
Fnan
sI8
Fnan
sI9
Fnan
sI10
Fnan
sI11
Fnan
sI12
Fnan
sI13
Fnan
sI14
Fnan
sI15
Fnan
sI16
Fnan
sI17
Fnan
sI18
Fnan
sI19
Fnan
sI20
Fnan
sI21
Fnan
sI22
Fnan
sI23
Fnan
sI24
Fnan
sI25
Fnan
sI26
Fnan
sI27
Fnan
sI28
Fnan
sI29
Fnan
sI30
Fnan
sI31
Fnan
sI32
Fnan
sI33
Fnan
sI34
Fnan
sI35
Fnan
sI36
Fnan
sI37
Fnan
sI38
Fnan
sI39
Fnan
sI40
Fnan
sI41
Fnan
sI42
Fnan
sI43
Fnan
sI44
Fnan
ssS'ref3bkg'
p244
(dp245
I0
F47.36998
sI1
F62.32383
sI2
F67.91823
sI3
F47.98521
sI4
F49.49138
sI5
F68.63026
sI6
F75.75564
sI7
F68.90903
sI8
F62.39753
sI9
F59.138
sI10
F55.21463
sI11
F47.69458
sI12
F46.42277
sI13
F71.77563
sI14
F56.07088
sI15
F46.30291
sI16
F49.81099
sI17
F70.28812
sI18
F74.59707
sI19
F59.39177
sI20
F54.03035
sI21
F72.85385
sI22
F62.19329
sI23
F45.31325
sI24
F45.67616
sI25
F46.99208
sI26
F57.51821
sI27
F58.46712
sI28
F48.67434
sI29
F47.5026
sI30
F67.8997
sI31
F49.61512
sI32
F68.29058
sI33
F57.44081
sI34
F66.88602
sI35
F64.69313
sI36
F73.35692
sI37
F67.03254
sI38
F49.41995
sI39
F49.18111
sI40
F65.93393
sI41
F60.43576
sI42
F68.70196
sI43
F58.0447
sI44
F59.55992
ssS'ref3mag'
p246
(dp247
I0
F10.231
sI1
F10.278
sI2
F10.29
sI3
F10.225
sI4
F10.242
sI5
F10.29
sI6
F10.335
sI7
F10.316
sI8
F10.278
sI9
F10.266
sI10
F10.256
sI11
F10.246
sI12
F10.245
sI13
F10.304
sI14
F10.269
sI15
F10.246
sI16
F10.233
sI17
F10.304
sI18
F10.33
sI19
F10.258
sI20
F10.241
sI21
F10.314
sI22
F10.321
sI23
F10.227
sI24
F10.236
sI25
F10.256
sI26
F10.271
sI27
F10.252
sI28
F10.239
sI29
F10.228
sI30
F10.292
sI31
F10.232
sI32
F10.284
sI33
F10.265
sI34
F10.306
sI35
F10.305
sI36
F10.328
sI37
F10.289
sI38
F10.246
sI39
F10.233
sI40
F10.301
sI41
F10.274
sI42
F10.32
sI43
F10.298
sI44
F10.269
ssS'mean'
p248
(dp249
I0
F0.5429521353533205
sI1
Fnan
sI2
Fnan
sI3
Fnan
sI4
Fnan
sI5
Fnan
sI6
Fnan
sI7
Fnan
sI8
Fnan
sI9
Fnan
sI10
Fnan
sI11
Fnan
sI12
Fnan
sI13
Fnan
sI14
Fnan
sI15
Fnan
sI16
Fnan
sI17
Fnan
sI18
Fnan
sI19
Fnan
sI20
Fnan
sI21
Fnan
sI22
Fnan
sI23
Fnan
sI24
Fnan
sI25
Fnan
sI26
Fnan
sI27
Fnan
sI28
Fnan
sI29
Fnan
sI30
Fnan
sI31
Fnan
sI32
Fnan
sI33
Fnan
sI34
Fnan
sI35
Fnan
sI36
Fnan
sI37
Fnan
sI38
Fnan
sI39
Fnan
sI40
Fnan
sI41
Fnan
sI42
Fnan
sI43
Fnan
sI44
Fnan
sssS'z'
p250
(dp251
g3
(dp252
I0
F0.3666636797888542
sI1
Fnan
sI2
Fnan
sI3
Fnan
sI4
Fnan
sI5
Fnan
sI6
Fnan
sI7
Fnan
sI8
Fnan
sI9
Fnan
sI10
Fnan
sI11
Fnan
sI12
Fnan
sI13
Fnan
sI14
Fnan
sI15
Fnan
sI16
Fnan
sI17
Fnan
sI18
Fnan
sI19
Fnan
sI20
Fnan
sI21
Fnan
sI22
Fnan
sI23
Fnan
sI24
Fnan
sI25
Fnan
sI26
Fnan
sI27
Fnan
sI28
Fnan
sI29
Fnan
sI30
Fnan
sI31
Fnan
sI32
Fnan
sI33
Fnan
sI34
Fnan
sI35
Fnan
sI36
Fnan
sI37
Fnan
sI38
Fnan
sI39
Fnan
sI40
Fnan
sI41
Fnan
sI42
Fnan
sI43
Fnan
sI44
Fnan
ssg5
(dp253
I0
S'NoError'
p254
sI1
S'NoError'
p255
sI2
S'NoError'
p256
sI3
S'NoError'
p257
sI4
S'NoError'
p258
sI5
S'NoError'
p259
sI6
S'NoError'
p260
sI7
S'NoError'
p261
sI8
S'NoError'
p262
sI9
S'NoError'
p263
sI10
S'NoError'
p264
sI11
S'NoError'
p265
sI12
S'NoError'
p266
sI13
S'NoError'
p267
sI14
S'NoError'
p268
sI15
S'NoError'
p269
sI16
S'NoError'
p270
sI17
S'NoError'
p271
sI18
S'NoError'
p272
sI19
S'NoError'
p273
sI20
S'NoError'
p274
sI21
S'NoError'
p275
sI22
S'NoError'
p276
sI23
S'NoError'
p277
sI24
S'NoError'
p278
sI25
S'NoError'
p279
sI26
S'NoError'
p280
sI27
S'NoError'
p281
sI28
S'NoError'
p282
sI29
S'NoError'
p283
sI30
S'NoError'
p284
sI31
S'NoError'
p285
sI32
S'NoError'
p286
sI33
S'NoError'
p287
sI34
S'NoError'
p288
sI35
S'NoError'
p289
sI36
S'NoError'
p290
sI37
S'NoError'
p291
sI38
S'NoError'
p292
sI39
S'NoError'
p293
sI40
S'NoError'
p294
sI41
S'NoError'
p295
sI42
S'NoError'
p296
sI43
S'NoError'
p297
sI44
S'NoError'
p298
ssg52
(dp299
I0
F0.008
sI1
F0.008
sI2
F0.008
sI3
F0.008
sI4
F0.008
sI5
F0.009
sI6
F0.008
sI7
F0.008
sI8
F0.008
sI9
F0.009
sI10
F0.009
sI11
F0.01
sI12
F0.009
sI13
F0.009
sI14
F0.009
sI15
F0.009
sI16
F0.009
sI17
F0.008
sI18
F0.008
sI19
F0.008
sI20
F0.008
sI21
F0.009
sI22
F0.009
sI23
F0.009
sI24
F0.008
sI25
F0.008
sI26
F0.008
sI27
F0.008
sI28
F0.009
sI29
F0.008
sI30
F0.008
sI31
F0.008
sI32
F0.008
sI33
F0.008
sI34
F0.008
sI35
F0.009
sI36
F0.009
sI37
F0.009
sI38
F0.008
sI39
F0.008
sI40
F0.009
sI41
F0.009
sI42
F0.009
sI43
F0.009
sI44
F0.008
ssg54
(dp300
I0
F0.91311965334
sI1
F0.9115306178523237
sI2
F0.9135117008340765
sI3
F0.91481271451447
sI4
F0.9207853474873879
sI5
F0.9193412127609089
sI6
F0.9134465500611798
sI7
F0.9077100141346865
sI8
F0.9234235220710358
sI9
F0.9250267702615688
sI10
F0.910646480364667
sI11
F0.9165789825161574
sI12
F0.9144655330173695
sI13
F0.9152545861527773
sI14
F0.9090444553787584
sI15
F0.9097509792348847
sI16
F0.9130461736796472
sI17
F0.912829544409325
sI18
F0.92180373336871
sI19
F0.916506255569892
sI20
F0.9110465843710007
sI21
F0.915876679663915
sI22
F0.9251248352313052
sI23
F0.9137889935936995
sI24
F0.91281237007658
sI25
F0.9130441694515934
sI26
F0.9173617497528186
sI27
F0.916791079700364
sI28
F0.9142514852739491
sI29
F0.9141298558497645
sI30
F0.9192256181904266
sI31
F0.9129271315328265
sI32
F0.9160944750743847
sI33
F0.9088818781750768
sI34
F0.9171498211407875
sI35
F0.9080308094920174
sI36
F0.9108519264498466
sI37
F0.919515336555642
sI38
F0.9254570282779246
sI39
F0.9180547402883718
sI40
F0.9137699035441212
sI41
F0.9176044402319936
sI42
F0.9176514027422427
sI43
F0.9144074830531627
sI44
F0.9225092291031985
ssg56
(dp301
I0
F0.004541989891787866
sI1
Fnan
sI2
Fnan
sI3
Fnan
sI4
Fnan
sI5
Fnan
sI6
Fnan
sI7
Fnan
sI8
Fnan
sI9
Fnan
sI10
Fnan
sI11
Fnan
sI12
Fnan
sI13
Fnan
sI14
Fnan
sI15
Fnan
sI16
Fnan
sI17
Fnan
sI18
Fnan
sI19
Fnan
sI20
Fnan
sI21
Fnan
sI22
Fnan
sI23
Fnan
sI24
Fnan
sI25
Fnan
sI26
Fnan
sI27
Fnan
sI28
Fnan
sI29
Fnan
sI30
Fnan
sI31
Fnan
sI32
Fnan
sI33
Fnan
sI34
Fnan
sI35
Fnan
sI36
Fnan
sI37
Fnan
sI38
Fnan
sI39
Fnan
sI40
Fnan
sI41
Fnan
sI42
Fnan
sI43
Fnan
sI44
Fnan
ssg58
(dp302
I0
F0.9155331967517074
sI1
Fnan
sI2
Fnan
sI3
Fnan
sI4
Fnan
sI5
Fnan
sI6
Fnan
sI7
Fnan
sI8
Fnan
sI9
Fnan
sI10
Fnan
sI11
Fnan
sI12
Fnan
sI13
Fnan
sI14
Fnan
sI15
Fnan
sI16
Fnan
sI17
Fnan
sI18
Fnan
sI19
Fnan
sI20
Fnan
sI21
Fnan
sI22
Fnan
sI23
Fnan
sI24
Fnan
sI25
Fnan
sI26
Fnan
sI27
Fnan
sI28
Fnan
sI29
Fnan
sI30
Fnan
sI31
Fnan
sI32
Fnan
sI33
Fnan
sI34
Fnan
sI35
Fnan
sI36
Fnan
sI37
Fnan
sI38
Fnan
sI39
Fnan
sI40
Fnan
sI41
Fnan
sI42
Fnan
sI43
Fnan
sI44
Fnan
ssg60
(dp303
I0
F13.269
sI1
F13.288
sI2
F13.351
sI3
F13.309
sI4
F13.367
sI5
F13.389
sI6
F13.315
sI7
F13.266
sI8
F13.307
sI9
F13.371
sI10
F13.379
sI11
F13.462
sI12
F13.333
sI13
F13.371
sI14
F13.367
sI15
F13.327
sI16
F13.411
sI17
F13.3
sI18
F13.316
sI19
F13.299
sI20
F13.273
sI21
F13.333
sI22
F13.376
sI23
F13.389
sI24
F13.291
sI25
F13.264
sI26
F13.345
sI27
F13.325
sI28
F13.329
sI29
F13.312
sI30
F13.298
sI31
F13.29
sI32
F13.29
sI33
F13.29
sI34
F13.335
sI35
F13.371
sI36
F13.404
sI37
F13.385
sI38
F13.336
sI39
F13.327
sI40
F13.39
sI41
F13.383
sI42
F13.366
sI43
F13.335
sI44
F13.311
ssg62
(dp304
I0
F4.467038
sI1
F6.0049
sI2
F6.953405
sI3
F5.303749
sI4
F9.335841
sI5
F9.161998
sI6
F5.345479
sI7
F4.475636
sI8
F5.859414
sI9
F7.741381
sI10
F7.606158
sI11
F9.108025
sI12
F6.057099
sI13
F6.834328
sI14
F8.086134
sI15
F7.724304
sI16
F7.09399
sI17
F5.556438
sI18
F5.703896
sI19
F5.103195
sI20
F5.040817
sI21
F6.352928
sI22
F8.873189
sI23
F8.239511
sI24
F5.770204
sI25
F4.997663
sI26
F6.063715
sI27
F7.509723
sI28
F5.887727
sI29
F5.654879
sI30
F4.444165
sI31
F5.081322
sI32
F5.615548
sI33
F4.294899
sI34
F7.199845
sI35
F8.528576
sI36
F7.75604
sI37
F7.688162
sI38
F5.954363
sI39
F5.6722
sI40
F8.028844
sI41
F6.652074
sI42
F8.414947
sI43
F5.177417
sI44
F6.882687
ssg64
(dp305
I0
F2458207.989872685
sI1
F2458207.997905093
sI2
F2458207.9486921295
sI3
F2458207.9573842594
sI4
F2458207.9336458333
sI5
F2458207.914699074
sI6
F2458207.98125
sI7
F2458208.000324074
sI8
F2458207.965451389
sI9
F2458207.934375
sI10
F2458207.926296296
sI11
F2458207.9250925924
sI12
F2458207.956770833
sI13
F2458207.966666667
sI14
F2458207.9330439814
sI15
F2458207.946273148
sI16
F2458207.924502315
sI17
F2458207.9806481483
sI18
F2458207.9579861113
sI19
F2458207.9886689815
sI20
F2458207.9997222223
sI21
F2458207.9648495372
sI22
F2458207.9165046294
sI23
F2458207.9153009257
sI24
F2458207.9985069446
sI25
F2458207.990486111
sI26
F2458207.9561574073
sI27
F2458207.9480902776
sI28
F2458207.9555555554
sI29
F2458207.981851852
sI30
F2458207.9800462965
sI31
F2458207.9991087965
sI32
F2458207.991087963
sI33
F2458207.9892708333
sI34
F2458207.946886574
sI35
F2458207.9171064813
sI36
F2458207.925694444
sI37
F2458207.9159027776
sI38
F2458207.966064815
sI39
F2458207.97943287
sI40
F2458207.9337731483
sI41
F2458207.923912037
sI42
F2458207.9349537035
sI43
F2458207.9672800926
sI44
F2458207.9474884258
ssg66
(dp306
I0
F1.5111733711111106
sI1
Fnan
sI2
Fnan
sI3
Fnan
sI4
Fnan
sI5
Fnan
sI6
Fnan
sI7
Fnan
sI8
Fnan
sI9
Fnan
sI10
Fnan
sI11
Fnan
sI12
Fnan
sI13
Fnan
sI14
Fnan
sI15
Fnan
sI16
Fnan
sI17
Fnan
sI18
Fnan
sI19
Fnan
sI20
Fnan
sI21
Fnan
sI22
Fnan
sI23
Fnan
sI24
Fnan
sI25
Fnan
sI26
Fnan
sI27
Fnan
sI28
Fnan
sI29
Fnan
sI30
Fnan
sI31
Fnan
sI32
Fnan
sI33
Fnan
sI34
Fnan
sI35
Fnan
sI36
Fnan
sI37
Fnan
sI38
Fnan
sI39
Fnan
sI40
Fnan
sI41
Fnan
sI42
Fnan
sI43
Fnan
sI44
Fnan
ssg68
(dp307
I0
F0.6790901066666668
sI1
Fnan
sI2
Fnan
sI3
Fnan
sI4
Fnan
sI5
Fnan
sI6
Fnan
sI7
Fnan
sI8
Fnan
sI9
Fnan
sI10
Fnan
sI11
Fnan
sI12
Fnan
sI13
Fnan
sI14
Fnan
sI15
Fnan
sI16
Fnan
sI17
Fnan
sI18
Fnan
sI19
Fnan
sI20
Fnan
sI21
Fnan
sI22
Fnan
sI23
Fnan
sI24
Fnan
sI25
Fnan
sI26
Fnan
sI27
Fnan
sI28
Fnan
sI29
Fnan
sI30
Fnan
sI31
Fnan
sI32
Fnan
sI33
Fnan
sI34
Fnan
sI35
Fnan
sI36
Fnan
sI37
Fnan
sI38
Fnan
sI39
Fnan
sI40
Fnan
sI41
Fnan
sI42
Fnan
sI43
Fnan
sI44
Fnan
ssg70
(dp308
I0
F0.37413362730482735
sI1
F0.36762631821369857
sI2
F0.36474841388443957
sI3
F0.3694783987963837
sI4
F0.3638734560188537
sI5
F0.36371483650364617
sI6
F0.36191869994800857
sI7
F0.36891089810921873
sI8
F0.37094904279393465
sI9
F0.36494627350432896
sI10
F0.3655087037872854
sI11
F0.35982060482635275
sI12
F0.3649805185094189
sI13
F0.3636132136523647
sI14
F0.3691896320496743
sI15
F0.3654313738952562
sI16
F0.3624637926936116
sI17
F0.3712952925885472
sI18
F0.37209080720165355
sI19
F0.3696858877756486
sI20
F0.36846580441128957
sI21
F0.36473484534528244
sI22
F0.3641904956122086
sI23
F0.36861402646155134
sI24
F0.36784207108743017
sI25
F0.37539026818553084
sI26
F0.3711067086958054
sI27
F0.3654146171219894
sI28
F0.36981098646466
sI29
F0.36482962931086066
sI30
F0.3697861371221001
sI31
F0.3664449999315263
sI32
F0.366190648650426
sI33
F0.36696308660040605
sI34
F0.3596538814185652
sI35
F0.3616594069766939
sI36
F0.3662312218618473
sI37
F0.362708582636517
sI38
F0.3685920080136494
sI39
F0.3644769854781127
sI40
F0.36751773098634666
sI41
F0.37353888583407485
sI42
F0.3632345015969632
sI43
F0.3684136430623334
sI44
F0.36889349420019646
ssg72
(dp309
I0
F0.0027828975072109745
sI1
Fnan
sI2
Fnan
sI3
Fnan
sI4
Fnan
sI5
Fnan
sI6
Fnan
sI7
Fnan
sI8
Fnan
sI9
Fnan
sI10
Fnan
sI11
Fnan
sI12
Fnan
sI13
Fnan
sI14
Fnan
sI15
Fnan
sI16
Fnan
sI17
Fnan
sI18
Fnan
sI19
Fnan
sI20
Fnan
sI21
Fnan
sI22
Fnan
sI23
Fnan
sI24
Fnan
sI25
Fnan
sI26
Fnan
sI27
Fnan
sI28
Fnan
sI29
Fnan
sI30
Fnan
sI31
Fnan
sI32
Fnan
sI33
Fnan
sI34
Fnan
sI35
Fnan
sI36
Fnan
sI37
Fnan
sI38
Fnan
sI39
Fnan
sI40
Fnan
sI41
Fnan
sI42
Fnan
sI43
Fnan
sI44
Fnan
ssg74
(dp310
I0
F1.0078164977777777
sI1
Fnan
sI2
Fnan
sI3
Fnan
sI4
Fnan
sI5
Fnan
sI6
Fnan
sI7
Fnan
sI8
Fnan
sI9
Fnan
sI10
Fnan
sI11
Fnan
sI12
Fnan
sI13
Fnan
sI14
Fnan
sI15
Fnan
sI16
Fnan
sI17
Fnan
sI18
Fnan
sI19
Fnan
sI20
Fnan
sI21
Fnan
sI22
Fnan
sI23
Fnan
sI24
Fnan
sI25
Fnan
sI26
Fnan
sI27
Fnan
sI28
Fnan
sI29
Fnan
sI30
Fnan
sI31
Fnan
sI32
Fnan
sI33
Fnan
sI34
Fnan
sI35
Fnan
sI36
Fnan
sI37
Fnan
sI38
Fnan
sI39
Fnan
sI40
Fnan
sI41
Fnan
sI42
Fnan
sI43
Fnan
sI44
Fnan
ssg76
(dp311
I0
g254
sI1
g255
sI2
g256
sI3
g257
sI4
g258
sI5
g259
sI6
g260
sI7
g261
sI8
g262
sI9
g263
sI10
g264
sI11
g265
sI12
g266
sI13
g267
sI14
g268
sI15
g269
sI16
g270
sI17
g271
sI18
g272
sI19
g273
sI20
g274
sI21
g275
sI22
g276
sI23
g277
sI24
g278
sI25
g279
sI26
g280
sI27
g281
sI28
g282
sI29
g283
sI30
g284
sI31
g285
sI32
g286
sI33
g287
sI34
g288
sI35
g289
sI36
g290
sI37
g291
sI38
g292
sI39
g293
sI40
g294
sI41
g295
sI42
g296
sI43
g297
sI44
g298
ssg78
(dp312
I0
F0.004383534753622819
sI1
Fnan
sI2
Fnan
sI3
Fnan
sI4
Fnan
sI5
Fnan
sI6
Fnan
sI7
Fnan
sI8
Fnan
sI9
Fnan
sI10
Fnan
sI11
Fnan
sI12
Fnan
sI13
Fnan
sI14
Fnan
sI15
Fnan
sI16
Fnan
sI17
Fnan
sI18
Fnan
sI19
Fnan
sI20
Fnan
sI21
Fnan
sI22
Fnan
sI23
Fnan
sI24
Fnan
sI25
Fnan
sI26
Fnan
sI27
Fnan
sI28
Fnan
sI29
Fnan
sI30
Fnan
sI31
Fnan
sI32
Fnan
sI33
Fnan
sI34
Fnan
sI35
Fnan
sI36
Fnan
sI37
Fnan
sI38
Fnan
sI39
Fnan
sI40
Fnan
sI41
Fnan
sI42
Fnan
sI43
Fnan
sI44
Fnan
ssg80
(dp313
I0
F0.03931370850947131
sI1
Fnan
sI2
Fnan
sI3
Fnan
sI4
Fnan
sI5
Fnan
sI6
Fnan
sI7
Fnan
sI8
Fnan
sI9
Fnan
sI10
Fnan
sI11
Fnan
sI12
Fnan
sI13
Fnan
sI14
Fnan
sI15
Fnan
sI16
Fnan
sI17
Fnan
sI18
Fnan
sI19
Fnan
sI20
Fnan
sI21
Fnan
sI22
Fnan
sI23
Fnan
sI24
Fnan
sI25
Fnan
sI26
Fnan
sI27
Fnan
sI28
Fnan
sI29
Fnan
sI30
Fnan
sI31
Fnan
sI32
Fnan
sI33
Fnan
sI34
Fnan
sI35
Fnan
sI36
Fnan
sI37
Fnan
sI38
Fnan
sI39
Fnan
sI40
Fnan
sI41
Fnan
sI42
Fnan
sI43
Fnan
sI44
Fnan
ssg82
(dp314
I0
F1.3504642555555557
sI1
Fnan
sI2
Fnan
sI3
Fnan
sI4
Fnan
sI5
Fnan
sI6
Fnan
sI7
Fnan
sI8
Fnan
sI9
Fnan
sI10
Fnan
sI11
Fnan
sI12
Fnan
sI13
Fnan
sI14
Fnan
sI15
Fnan
sI16
Fnan
sI17
Fnan
sI18
Fnan
sI19
Fnan
sI20
Fnan
sI21
Fnan
sI22
Fnan
sI23
Fnan
sI24
Fnan
sI25
Fnan
sI26
Fnan
sI27
Fnan
sI28
Fnan
sI29
Fnan
sI30
Fnan
sI31
Fnan
sI32
Fnan
sI33
Fnan
sI34
Fnan
sI35
Fnan
sI36
Fnan
sI37
Fnan
sI38
Fnan
sI39
Fnan
sI40
Fnan
sI41
Fnan
sI42
Fnan
sI43
Fnan
sI44
Fnan
ssg84
(dp315
I0
F1.50469445827425
sI1
F1.519431747608596
sI2
F1.5156911432005198
sI3
F1.51635987393377
sI4
F1.5041579508255793
sI5
F1.4939784660944346
sI6
F1.5100551514638547
sI7
F1.5105352201143167
sI8
F1.4975624641187597
sI9
F1.5086719665176795
sI10
F1.5086002051259455
sI11
F1.518263636555519
sI12
F1.5150185333594604
sI13
F1.5093893409969483
sI14
F1.5321350257978241
sI15
F1.5216626705890464
sI16
F1.5174158792427417
sI17
F1.5076027082233727
sI18
F1.5039969307892385
sI19
F1.5013755734185066
sI20
F1.512432681214458
sI21
F1.5091097210347268
sI22
F1.4978019574702957
sI23
F1.5131228831090033
sI24
F1.501419765372174
sI25
F1.5050361174675282
sI26
F1.5133245608654389
sI27
F1.5053755471245787
sI28
F1.5195931225681272
sI29
F1.5083546208005971
sI30
F1.4870982805198718
sI31
F1.5083019390503432
sI32
F1.4986209456728559
sI33
F1.51089369895823
sI34
F1.501746429024667
sI35
F1.512041642599274
sI36
F1.5305016792235275
sI37
F1.4917281649203646
sI38
F1.4997421573857126
sI39
F1.5026605221360874
sI40
F1.5133118212743815
sI41
F1.5167382588661715
sI42
F1.499298060531736
sI43
F1.5150926336249306
sI44
F1.5005786161775136
ssg86
(dp316
I0
g254
sI1
g255
sI2
g256
sI3
g257
sI4
g258
sI5
g259
sI6
g260
sI7
g261
sI8
g262
sI9
g263
sI10
g264
sI11
g265
sI12
g266
sI13
g267
sI14
g268
sI15
g269
sI16
g270
sI17
g271
sI18
g272
sI19
g273
sI20
g274
sI21
g275
sI22
g276
sI23
g277
sI24
g278
sI25
g279
sI26
g280
sI27
g281
sI28
g282
sI29
g283
sI30
g284
sI31
g285
sI32
g286
sI33
g287
sI34
g288
sI35
g289
sI36
g290
sI37
g291
sI38
g292
sI39
g293
sI40
g294
sI41
g295
sI42
g296
sI43
g297
sI44
g298
ssg88
(dp317
I0
F5.625732
sI1
F6.973177
sI2
F7.926333
sI3
F5.559175
sI4
F9.207462
sI5
F8.931386
sI6
F6.364143
sI7
F5.92082
sI8
F6.651449
sI9
F7.858574
sI10
F9.414907
sI11
F9.03831
sI12
F6.450041
sI13
F6.852551
sI14
F8.624867
sI15
F7.827164
sI16
F8.805185
sI17
F5.574283
sI18
F6.83637
sI19
F5.603794
sI20
F6.292781
sI21
F7.373174
sI22
F8.866391
sI23
F9.416172
sI24
F5.629157
sI25
F6.100344
sI26
F6.374636
sI27
F7.351357
sI28
F7.575334
sI29
F6.731392
sI30
F5.539538
sI31
F6.397285
sI32
F4.711221
sI33
F6.618484
sI34
F7.303595
sI35
F8.453352
sI36
F8.626549
sI37
F8.119182
sI38
F6.49153
sI39
F5.754788
sI40
F9.094424
sI41
F8.37839
sI42
F8.936196
sI43
F5.791278
sI44
F7.098842
ssg90
(dp318
I0
F11.971377777777777
sI1
Fnan
sI2
Fnan
sI3
Fnan
sI4
Fnan
sI5
Fnan
sI6
Fnan
sI7
Fnan
sI8
Fnan
sI9
Fnan
sI10
Fnan
sI11
Fnan
sI12
Fnan
sI13
Fnan
sI14
Fnan
sI15
Fnan
sI16
Fnan
sI17
Fnan
sI18
Fnan
sI19
Fnan
sI20
Fnan
sI21
Fnan
sI22
Fnan
sI23
Fnan
sI24
Fnan
sI25
Fnan
sI26
Fnan
sI27
Fnan
sI28
Fnan
sI29
Fnan
sI30
Fnan
sI31
Fnan
sI32
Fnan
sI33
Fnan
sI34
Fnan
sI35
Fnan
sI36
Fnan
sI37
Fnan
sI38
Fnan
sI39
Fnan
sI40
Fnan
sI41
Fnan
sI42
Fnan
sI43
Fnan
sI44
Fnan
ssg92
(dp319
I0
F0.6881847479436244
sI1
Fnan
sI2
Fnan
sI3
Fnan
sI4
Fnan
sI5
Fnan
sI6
Fnan
sI7
Fnan
sI8
Fnan
sI9
Fnan
sI10
Fnan
sI11
Fnan
sI12
Fnan
sI13
Fnan
sI14
Fnan
sI15
Fnan
sI16
Fnan
sI17
Fnan
sI18
Fnan
sI19
Fnan
sI20
Fnan
sI21
Fnan
sI22
Fnan
sI23
Fnan
sI24
Fnan
sI25
Fnan
sI26
Fnan
sI27
Fnan
sI28
Fnan
sI29
Fnan
sI30
Fnan
sI31
Fnan
sI32
Fnan
sI33
Fnan
sI34
Fnan
sI35
Fnan
sI36
Fnan
sI37
Fnan
sI38
Fnan
sI39
Fnan
sI40
Fnan
sI41
Fnan
sI42
Fnan
sI43
Fnan
sI44
Fnan
ssg94
(dp320
I0
F1.926356
sI1
F2.244724
sI2
F3.248427
sI3
F3.409036
sI4
F2.896019
sI5
F2.301781
sI6
F-2.8946
sI7
F3.502754
sI8
F3.479912
sI9
F3.070699
sI10
F2.721284
sI11
F4.822247
sI12
F-3.372696
sI13
F2.548754
sI14
F-2.065777
sI15
F-3.782833
sI16
F-2.466344
sI17
F-2.732635
sI18
F4.319949
sI19
F-1.566062
sI20
F-1.19019
sI21
F3.407117
sI22
F-3.239939
sI23
F-3.420544
sI24
F3.72909
sI25
F3.24503
sI26
F-2.551415
sI27
F-1.695256
sI28
F-2.05658
sI29
F2.295176
sI30
F4.179349
sI31
F-3.829562
sI32
F-1.785059
sI33
F2.635526
sI34
F4.944973
sI35
F1.314059
sI36
F-2.042418
sI37
F1.922905
sI38
F3.514983
sI39
F3.538017
sI40
F-2.391627
sI41
F3.721133
sI42
F0.4330968
sI43
F-2.797604
sI44
F-2.932201
ssg96
(dp321
I0
F12.31257777777778
sI1
Fnan
sI2
Fnan
sI3
Fnan
sI4
Fnan
sI5
Fnan
sI6
Fnan
sI7
Fnan
sI8
Fnan
sI9
Fnan
sI10
Fnan
sI11
Fnan
sI12
Fnan
sI13
Fnan
sI14
Fnan
sI15
Fnan
sI16
Fnan
sI17
Fnan
sI18
Fnan
sI19
Fnan
sI20
Fnan
sI21
Fnan
sI22
Fnan
sI23
Fnan
sI24
Fnan
sI25
Fnan
sI26
Fnan
sI27
Fnan
sI28
Fnan
sI29
Fnan
sI30
Fnan
sI31
Fnan
sI32
Fnan
sI33
Fnan
sI34
Fnan
sI35
Fnan
sI36
Fnan
sI37
Fnan
sI38
Fnan
sI39
Fnan
sI40
Fnan
sI41
Fnan
sI42
Fnan
sI43
Fnan
sI44
Fnan
ssg98
(dp322
I0
g254
sI1
g255
sI2
g256
sI3
g257
sI4
g258
sI5
g259
sI6
g260
sI7
g261
sI8
g262
sI9
g263
sI10
g264
sI11
g265
sI12
g266
sI13
g267
sI14
g268
sI15
g269
sI16
g270
sI17
g271
sI18
g272
sI19
g273
sI20
g274
sI21
g275
sI22
g276
sI23
g277
sI24
g278
sI25
g279
sI26
g280
sI27
g281
sI28
g282
sI29
g283
sI30
g284
sI31
g285
sI32
g286
sI33
g287
sI34
g288
sI35
g289
sI36
g290
sI37
g291
sI38
g292
sI39
g293
sI40
g294
sI41
g295
sI42
g296
sI43
g297
sI44
g298
ssg100
(dp323
I0
F3108.9372
sI1
F3105.1852000000003
sI2
F2957.2715999999996
sI3
F3038.6152
sI4
F2936.9084000000003
sI5
F2876.3936
sI6
F3081.5176
sI7
F3148.8956
sI8
F3052.8112
sI9
F2926.9192
sI10
F2870.1040000000003
sI11
F2713.4736
sI12
F3007.8176000000003
sI13
F2917.0024
sI14
F2869.1452000000004
sI15
F3010.9808000000003
sI16
F2815.9604
sI17
F3044.7696
sI18
F3012.8671999999997
sI19
F3068.998
sI20
F3141.2356
sI21
F3013.4964
sI22
F2920.6204
sI23
F2827.5636
sI24
F3098.3656
sI25
F3112.9012
sI26
F2932.1052
sI27
F3032.5608
sI28
F2978.9868
sI29
F3067.362
sI30
F3078.0632
sI31
F3112.3740000000003
sI32
F3122.3772
sI33
F3100.572
sI34
F3051.9492
sI35
F2916.5452
sI36
F2800.192
sI37
F2895.7868
sI38
F2995.3691999999996
sI39
F3036.9708
sI40
F2832.9972
sI41
F2812.2528
sI42
F2938.6072
sI43
F2973.0264
sI44
F3055.3215999999998
ssg102
(dp324
I0
F1.272585
sI1
F1.238767
sI2
F1.5074459999999998
sI3
F1.447724
sI4
F1.631687
sI5
F1.8159299999999998
sI6
F1.312782
sI7
F1.2291590000000001
sI8
F1.397541
sI9
F1.621317
sI10
F1.695065
sI11
F1.706795
sI12
F1.451716
sI13
F1.3904290000000001
sI14
F1.632868
sI15
F1.5252350000000001
sI16
F1.712748
sI17
F1.315741
sI18
F1.443775
sI19
F1.277984
sI20
F1.2315530000000001
sI21
F1.401165
sI22
F1.7958470000000002
sI23
F1.8091150000000003
sI24
F1.236338
sI25
F1.2699340000000001
sI26
F1.4557799999999999
sI27
F1.511901
sI28
F1.4597790000000002
sI29
F1.309821
sI30
F1.318725
sI31
F1.23394
sI32
F1.267311
sI33
F1.27528
sI34
F1.52078
sI35
F1.789262
sI36
F1.7009330000000003
sI37
F1.8024669999999998
sI38
F1.393967
sI39
F1.321758
sI40
F1.626451
sI41
F1.7185720000000002
sI42
F1.6161809999999999
sI43
F1.386924
sI44
F1.516312
ssg104
(dp325
I0
F2551.1407999999997
sI1
F2531.1272
sI2
F2408.2648
sI3
F2468.0776
sI4
F2380.23
sI5
F2351.9752
sI6
F2518.6964000000003
sI7
F2597.8092
sI8
F2473.7536
sI9
F2348.7008
sI10
F2359.0735999999997
sI11
F2194.826
sI12
F2446.5632
sI13
F2378.0444
sI14
F2329.7428
sI15
F2458.2156
sI16
F2292.4696
sI17
F2495.0984
sI18
F2437.9152
sI19
F2509.4755999999998
sI20
F2573.9596
sI21
F2454.5964000000004
sI22
F2359.6232
sI23
F2305.3176000000003
sI24
F2549.0464
sI25
F2554.1628
sI26
F2376.0172000000002
sI27
F2472.2183999999997
sI28
F2416.9576
sI29
F2506.9664000000002
sI30
F2528.3988
sI31
F2548.9539999999997
sI32
F2559.3424
sI33
F2552.3472
sI34
F2492.2784
sI35
F2402.5464
sI36
F2269.1748000000002
sI37
F2370.5416
sI38
F2415.6836
sI39
F2474.8795999999998
sI40
F2309.5448
sI41
F2273.0312
sI42
F2401.4544
sI43
F2418.3851999999997
sI44
F2474.7692
ssg106
(dp326
I0
F4258.344
sI1
F4281.996
sI2
F4066.248
sI3
F4175.064
sI4
F3998.908
sI5
F3905.5352000000003
sI6
F4228.316
sI7
F4340.3
sI8
F4138.188
sI9
F3979.59
sI10
F3944.3691999999996
sI11
F3726.0464
sI12
F4131.744000000001
sI13
F3996.1436
sI14
F3982.6992
sI15
F4161.1359999999995
sI16
F3875.8064
sI17
F4175.96
sI18
F4098.98
sI19
F4187.692
sI20
F4321.924
sI21
F4125.976
sI22
F3954.3796
sI23
F3883.34
sI24
F4239.568
sI25
F4264.568
sI26
F4016.4559999999997
sI27
F4143.38
sI28
F4099.82
sI29
F4204.032
sI30
F4168.68
sI31
F4269.496
sI32
F4257.372
sI33
F4270.48
sI34
F4163.012
sI35
F4021.344
sI36
F3879.3372
sI37
F3927.9652
sI38
F4057.592
sI39
F4141.22
sI40
F3891.1348
sI41
F3856.5224
sI42
F4003.172
sI43
F4084.244
sI44
F4149.168
ssg108
(dp327
I0
F5.991335
sI1
F6.826345
sI2
F6.966064
sI3
F6.03606
sI4
F9.115947
sI5
F8.189561
sI6
F6.008198
sI7
F5.973108
sI8
F5.927433
sI9
F9.352646
sI10
F7.610173
sI11
F8.480659
sI12
F7.00347
sI13
F7.699886
sI14
F9.166067
sI15
F8.144901
sI16
F7.975961
sI17
F6.580267
sI18
F6.014819
sI19
F5.84467
sI20
F6.021569
sI21
F5.980207
sI22
F8.556061
sI23
F9.77021
sI24
F5.859756
sI25
F5.768396
sI26
F5.903451
sI27
F7.415508
sI28
F7.427874
sI29
F6.216241
sI30
F5.028581
sI31
F6.134041
sI32
F5.636459
sI33
F5.190456
sI34
F6.646985
sI35
F7.723353
sI36
F8.479316
sI37
F8.49759
sI38
F7.034352
sI39
F5.632782
sI40
F9.352992
sI41
F7.984685
sI42
F8.527454
sI43
F7.635967
sI44
F7.831028
ssg110
(dp328
I0
F12.483
sI1
F12.492
sI2
F12.546
sI3
F12.519
sI4
F12.558
sI5
F12.571
sI6
F12.497
sI7
F12.463
sI8
F12.517
sI9
F12.573
sI10
F12.568
sI11
F12.646
sI12
F12.529
sI13
F12.559
sI14
F12.582
sI15
F12.523
sI16
F12.599
sI17
F12.507
sI18
F12.532
sI19
F12.501
sI20
F12.473
sI21
F12.525
sI22
F12.568
sI23
F12.593
sI24
F12.484
sI25
F12.482
sI26
F12.56
sI27
F12.517
sI28
F12.542
sI29
F12.502
sI30
F12.493
sI31
F12.484
sI32
F12.48
sI33
F12.483
sI34
F12.509
sI35
F12.548
sI36
F12.61
sI37
F12.563
sI38
F12.542
sI39
F12.516
sI40
F12.591
sI41
F12.608
sI42
F12.549
sI43
F12.541
sI44
F12.516
ssg112
(dp329
I0
F0.003
sI1
F0.003
sI2
F0.004
sI3
F0.003
sI4
F0.004
sI5
F0.004
sI6
F0.003
sI7
F0.003
sI8
F0.003
sI9
F0.004
sI10
F0.004
sI11
F0.004
sI12
F0.003
sI13
F0.004
sI14
F0.004
sI15
F0.004
sI16
F0.004
sI17
F0.003
sI18
F0.003
sI19
F0.003
sI20
F0.003
sI21
F0.003
sI22
F0.004
sI23
F0.004
sI24
F0.003
sI25
F0.003
sI26
F0.004
sI27
F0.003
sI28
F0.004
sI29
F0.003
sI30
F0.003
sI31
F0.003
sI32
F0.003
sI33
F0.003
sI34
F0.003
sI35
F0.004
sI36
F0.004
sI37
F0.004
sI38
F0.004
sI39
F0.003
sI40
F0.004
sI41
F0.004
sI42
F0.004
sI43
F0.003
sI44
F0.003
ssg114
(dp330
I0
F13.336555555555556
sI1
Fnan
sI2
Fnan
sI3
Fnan
sI4
Fnan
sI5
Fnan
sI6
Fnan
sI7
Fnan
sI8
Fnan
sI9
Fnan
sI10
Fnan
sI11
Fnan
sI12
Fnan
sI13
Fnan
sI14
Fnan
sI15
Fnan
sI16
Fnan
sI17
Fnan
sI18
Fnan
sI19
Fnan
sI20
Fnan
sI21
Fnan
sI22
Fnan
sI23
Fnan
sI24
Fnan
sI25
Fnan
sI26
Fnan
sI27
Fnan
sI28
Fnan
sI29
Fnan
sI30
Fnan
sI31
Fnan
sI32
Fnan
sI33
Fnan
sI34
Fnan
sI35
Fnan
sI36
Fnan
sI37
Fnan
sI38
Fnan
sI39
Fnan
sI40
Fnan
sI41
Fnan
sI42
Fnan
sI43
Fnan
sI44
Fnan
ssg116
(dp331
I0
F12.53431111111111
sI1
Fnan
sI2
Fnan
sI3
Fnan
sI4
Fnan
sI5
Fnan
sI6
Fnan
sI7
Fnan
sI8
Fnan
sI9
Fnan
sI10
Fnan
sI11
Fnan
sI12
Fnan
sI13
Fnan
sI14
Fnan
sI15
Fnan
sI16
Fnan
sI17
Fnan
sI18
Fnan
sI19
Fnan
sI20
Fnan
sI21
Fnan
sI22
Fnan
sI23
Fnan
sI24
Fnan
sI25
Fnan
sI26
Fnan
sI27
Fnan
sI28
Fnan
sI29
Fnan
sI30
Fnan
sI31
Fnan
sI32
Fnan
sI33
Fnan
sI34
Fnan
sI35
Fnan
sI36
Fnan
sI37
Fnan
sI38
Fnan
sI39
Fnan
sI40
Fnan
sI41
Fnan
sI42
Fnan
sI43
Fnan
sI44
Fnan
ssg118
(dp332
I0
F12.268
sI1
F12.27
sI2
F12.323
sI3
F12.293
sI4
F12.33
sI5
F12.353
sI6
F12.278
sI7
F12.255
sI8
F12.288
sI9
F12.334
sI10
F12.355
sI11
F12.416
sI12
F12.304
sI13
F12.338
sI14
F12.356
sI15
F12.303
sI16
F12.376
sI17
F12.291
sI18
F12.303
sI19
F12.283
sI20
F12.257
sI21
F12.302
sI22
F12.336
sI23
F12.371
sI24
F12.272
sI25
F12.267
sI26
F12.332
sI27
F12.295
sI28
F12.315
sI29
F12.283
sI30
F12.279
sI31
F12.267
sI32
F12.264
sI33
F12.271
sI34
F12.289
sI35
F12.338
sI36
F12.382
sI37
F12.346
sI38
F12.309
sI39
F12.294
sI40
F12.369
sI41
F12.377
sI42
F12.33
sI43
F12.317
sI44
F12.287
ssg120
(dp333
I0
F1.672044
sI1
F3.089062
sI2
F3.411568
sI3
F-1.605117
sI4
F2.086445
sI5
F2.533868
sI6
F3.394107
sI7
F-1.77377
sI8
F2.776098
sI9
F3.251365
sI10
F-1.967948
sI11
F4.293068
sI12
F2.168307
sI13
F2.163094
sI14
F3.225267
sI15
F-3.713724
sI16
F-2.553567
sI17
F1.807151
sI18
F3.973934
sI19
F1.921328
sI20
F2.243134
sI21
F2.881664
sI22
F1.211537
sI23
F0.6963209
sI24
F1.373673
sI25
F3.58926
sI26
F4.265103
sI27
F2.260701
sI28
F-2.109354
sI29
F4.532428
sI30
F-0.6333538
sI31
F3.217501
sI32
F3.437802
sI33
F2.238564
sI34
F2.853008
sI35
F3.386873
sI36
F3.776733
sI37
F-0.7110734
sI38
F-2.651725
sI39
F3.746671
sI40
F-2.590518
sI41
F4.149948
sI42
F2.547294
sI43
F-2.046328
sI44
F-3.815641
ssg122
(dp334
I0
F0.03897743454924144
sI1
Fnan
sI2
Fnan
sI3
Fnan
sI4
Fnan
sI5
Fnan
sI6
Fnan
sI7
Fnan
sI8
Fnan
sI9
Fnan
sI10
Fnan
sI11
Fnan
sI12
Fnan
sI13
Fnan
sI14
Fnan
sI15
Fnan
sI16
Fnan
sI17
Fnan
sI18
Fnan
sI19
Fnan
sI20
Fnan
sI21
Fnan
sI22
Fnan
sI23
Fnan
sI24
Fnan
sI25
Fnan
sI26
Fnan
sI27
Fnan
sI28
Fnan
sI29
Fnan
sI30
Fnan
sI31
Fnan
sI32
Fnan
sI33
Fnan
sI34
Fnan
sI35
Fnan
sI36
Fnan
sI37
Fnan
sI38
Fnan
sI39
Fnan
sI40
Fnan
sI41
Fnan
sI42
Fnan
sI43
Fnan
sI44
Fnan
ssg124
(dp335
I0
F0.6925596378756386
sI1
F0.685275514833723
sI2
F0.6857715040761045
sI3
F0.6842770607265153
sI4
F0.6863589987762653
sI5
F0.6936006759610923
sI6
F0.6891255089582341
sI7
F0.6937485248749545
sI8
F0.6880138715632175
sI9
F0.680141220980347
sI10
F0.6923715247717166
sI11
F0.6816737893507591
sI12
F0.6853539018418161
sI13
F0.6879774852144017
sI14
F0.68003377309619
sI15
F0.6854923500409251
sI16
F0.6851612342498248
sI17
F0.691093154907781
sI18
F0.6855926825874438
sI19
F0.6916309226382826
sI20
F0.689777450290625
sI21
F0.6876128269646369
sI22
F0.68643584
sI23
F0.6870364223381187
sI24
F0.694758644313707
sI25
F0.6924224908997249
sI26
F0.6838875363147122
sI27
F0.6890297645710789
sI28
F0.6828714692425283
sI29
F0.6895421703183736
sI30
F0.6978027867746162
sI31
F0.6905984526955905
sI32
F0.6936122978271402
sI33
F0.6925326805454636
sI34
F0.6908639785893791
sI35
F0.6925871344269956
sI36
F0.6794415390833235
sI37
F0.6947912526715507
sI38
F0.6850125873370748
sI39
F0.6895552567368367
sI40
F0.6869421361746022
sI41
F0.6816937538995166
sI42
F0.6918844091151732
sI43
F0.6853599374625067
sI44
F0.6870075015445926
ssg126
(dp336
I0
F25.0
sI1
F25.0
sI2
F25.0
sI3
F25.0
sI4
F25.0
sI5
F25.0
sI6
F25.0
sI7
F25.0
sI8
F25.0
sI9
F25.0
sI10
F25.0
sI11
F25.0
sI12
F25.0
sI13
F25.0
sI14
F25.0
sI15
F25.0
sI16
F25.0
sI17
F25.0
sI18
F25.0
sI19
F25.0
sI20
F25.0
sI21
F25.0
sI22
F25.0
sI23
F25.0
sI24
F25.0
sI25
F25.0
sI26
F25.0
sI27
F25.0
sI28
F25.0
sI29
F25.0
sI30
F25.0
sI31
F25.0
sI32
F25.0
sI33
F25.0
sI34
F25.0
sI35
F25.0
sI36
F25.0
sI37
F25.0
sI38
F25.0
sI39
F25.0
sI40
F25.0
sI41
F25.0
sI42
F25.0
sI43
F25.0
sI44
F25.0
ssg128
(dp337
I0
F0.005
sI1
F0.005
sI2
F0.005
sI3
F0.005
sI4
F0.005
sI5
F0.005
sI6
F0.005
sI7
F0.005
sI8
F0.005
sI9
F0.005
sI10
F0.005
sI11
F0.005
sI12
F0.005
sI13
F0.005
sI14
F0.005
sI15
F0.005
sI16
F0.005
sI17
F0.005
sI18
F0.005
sI19
F0.005
sI20
F0.005
sI21
F0.005
sI22
F0.005
sI23
F0.005
sI24
F0.005
sI25
F0.005
sI26
F0.005
sI27
F0.005
sI28
F0.005
sI29
F0.005
sI30
F0.005
sI31
F0.005
sI32
F0.005
sI33
F0.005
sI34
F0.005
sI35
F0.005
sI36
F0.005
sI37
F0.005
sI38
F0.005
sI39
F0.005
sI40
F0.005
sI41
F0.005
sI42
F0.005
sI43
F0.005
sI44
F0.005
ssg130
(dp338
I0
F0.004
sI1
F0.004
sI2
F0.004
sI3
F0.004
sI4
F0.004
sI5
F0.004
sI6
F0.004
sI7
F0.004
sI8
F0.004
sI9
F0.004
sI10
F0.004
sI11
F0.005
sI12
F0.004
sI13
F0.004
sI14
F0.004
sI15
F0.004
sI16
F0.005
sI17
F0.004
sI18
F0.004
sI19
F0.004
sI20
F0.004
sI21
F0.004
sI22
F0.004
sI23
F0.004
sI24
F0.004
sI25
F0.004
sI26
F0.004
sI27
F0.004
sI28
F0.004
sI29
F0.004
sI30
F0.004
sI31
F0.004
sI32
F0.004
sI33
F0.004
sI34
F0.004
sI35
F0.004
sI36
F0.005
sI37
F0.004
sI38
F0.004
sI39
F0.004
sI40
F0.004
sI41
F0.004
sI42
F0.004
sI43
F0.004
sI44
F0.004
ssg132
(dp339
I0
F3.305872
sI1
F1.916108
sI2
F2.012151
sI3
F3.328779
sI4
F2.39794
sI5
F-1.43066
sI6
F3.005101
sI7
F3.771686
sI8
F3.071159
sI9
F2.855172
sI10
F-3.514889
sI11
F4.507601
sI12
F4.083622
sI13
F-1.312682
sI14
F1.857659
sI15
F-3.04852
sI16
F2.674424
sI17
F3.406306
sI18
F-2.53455
sI19
F3.495688
sI20
F-3.168124
sI21
F-3.263626
sI22
F-1.892549
sI23
F-3.802924
sI24
F3.280112
sI25
F-2.937443
sI26
F3.184682
sI27
F-2.147717
sI28
F4.354845
sI29
F3.627687
sI30
F3.639203
sI31
F0.8224785
sI32
F4.037615
sI33
F1.751913
sI34
F3.402412
sI35
F4.431715
sI36
F3.911393
sI37
F3.81386
sI38
F3.153765
sI39
F3.309693
sI40
F-2.514258
sI41
F3.712633
sI42
F1.816809
sI43
F-2.552195
sI44
F-3.049055
ssg134
(dp340
I0
S"KIC8462852-20180330at114525_-35-1-025-z'_cal.fts.mag.1"
p341
sI1
S"KIC8462852-20180330at115657_-35-1-025-z'_cal.fts.mag.1"
p342
sI2
S"KIC8462852-20180330at104607_-35-1-025-z'_cal.fts.mag.1"
p343
sI3
S"KIC8462852-20180330at105838_-35-1-025-z'_cal.fts.mag.1"
p344
sI4
S"KIC8462852-20180330at102427_-35-1-025-z'_cal.fts.mag.1"
p345
sI5
S"KIC8462852-20180330at095708_-35-1-025-z'_cal.fts.mag.1"
p346
sI6
S"KIC8462852-20180330at113300_-35-1-025-z'_cal.fts.mag.1"
p347
sI7
S"KIC8462852-20180330at120028_-35-1-025-z'_cal.fts.mag.1"
p348
sI8
S"KIC8462852-20180330at111015_-35-1-025-z'_cal.fts.mag.1"
p349
sI9
S"KIC8462852-20180330at102529_-35-1-025-z'_cal.fts.mag.1"
p350
sI10
S"KIC8462852-20180330at101352_-35-1-025-z'_cal.fts.mag.1"
p351
sI11
S"KIC8462852-20180330at101207_-35-1-025-z'_cal.fts.mag.1"
p352
sI12
S"KIC8462852-20180330at105744_-35-1-025-z'_cal.fts.mag.1"
p353
sI13
S"KIC8462852-20180330at111200_-35-1-025-z'_cal.fts.mag.1"
p354
sI14
S"KIC8462852-20180330at102333_-35-1-025-z'_cal.fts.mag.1"
p355
sI15
S"KIC8462852-20180330at104237_-35-1-025-z'_cal.fts.mag.1"
p356
sI16
S"KIC8462852-20180330at101117_-35-1-025-z'_cal.fts.mag.1"
p357
sI17
S"KIC8462852-20180330at113208_-35-1-025-z'_cal.fts.mag.1"
p358
sI18
S"KIC8462852-20180330at105930_-35-1-025-z'_cal.fts.mag.1"
p359
sI19
S"KIC8462852-20180330at114340_-35-1-025-z'_cal.fts.mag.1"
p360
sI20
S"KIC8462852-20180330at115936_-35-1-025-z'_cal.fts.mag.1"
p361
sI21
S"KIC8462852-20180330at110921_-35-1-025-z'_cal.fts.mag.1"
p362
sI22
S"KIC8462852-20180330at095946_-35-1-025-z'_cal.fts.mag.1"
p363
sI23
S"KIC8462852-20180330at095802_-35-1-025-z'_cal.fts.mag.1"
p364
sI24
S"KIC8462852-20180330at115751_-35-1-025-z'_cal.fts.mag.1"
p365
sI25
S"KIC8462852-20180330at114618_-35-1-025-z'_cal.fts.mag.1"
p366
sI26
S"KIC8462852-20180330at105652_-35-1-025-z'_cal.fts.mag.1"
p367
sI27
S"KIC8462852-20180330at104515_-35-1-025-z'_cal.fts.mag.1"
p368
sI28
S"KIC8462852-20180330at105558_-35-1-025-z'_cal.fts.mag.1"
p369
sI29
S"KIC8462852-20180330at113352_-35-1-025-z'_cal.fts.mag.1"
p370
sI30
S"KIC8462852-20180330at113116_-35-1-025-z'_cal.fts.mag.1"
p371
sI31
S"KIC8462852-20180330at115843_-35-1-025-z'_cal.fts.mag.1"
p372
sI32
S"KIC8462852-20180330at114710_-35-1-025-z'_cal.fts.mag.1"
p373
sI33
S"KIC8462852-20180330at114433_-35-1-025-z'_cal.fts.mag.1"
p374
sI34
S"KIC8462852-20180330at104331_-35-1-025-z'_cal.fts.mag.1"
p375
sI35
S"KIC8462852-20180330at100038_-35-1-025-z'_cal.fts.mag.1"
p376
sI36
S"KIC8462852-20180330at101300_-35-1-025-z'_cal.fts.mag.1"
p377
sI37
S"KIC8462852-20180330at095854_-35-1-025-z'_cal.fts.mag.1"
p378
sI38
S"KIC8462852-20180330at111108_-35-1-025-z'_cal.fts.mag.1"
p379
sI39
S"KIC8462852-20180330at113021_-35-1-025-z'_cal.fts.mag.1"
p380
sI40
S"KIC8462852-20180330at102438_-35-1-025-z'_cal.fts.mag.1"
p381
sI41
S"KIC8462852-20180330at101024_-35-1-025-z'_cal.fts.mag.1"
p382
sI42
S"KIC8462852-20180330at102620_-35-1-025-z'_cal.fts.mag.1"
p383
sI43
S"KIC8462852-20180330at111253_-35-1-025-z'_cal.fts.mag.1"
p384
sI44
S"KIC8462852-20180330at104423_-35-1-025-z'_cal.fts.mag.1"
p385
ssg181
(dp386
I0
F0.009258102592363853
sI1
Fnan
sI2
Fnan
sI3
Fnan
sI4
Fnan
sI5
Fnan
sI6
Fnan
sI7
Fnan
sI8
Fnan
sI9
Fnan
sI10
Fnan
sI11
Fnan
sI12
Fnan
sI13
Fnan
sI14
Fnan
sI15
Fnan
sI16
Fnan
sI17
Fnan
sI18
Fnan
sI19
Fnan
sI20
Fnan
sI21
Fnan
sI22
Fnan
sI23
Fnan
sI24
Fnan
sI25
Fnan
sI26
Fnan
sI27
Fnan
sI28
Fnan
sI29
Fnan
sI30
Fnan
sI31
Fnan
sI32
Fnan
sI33
Fnan
sI34
Fnan
sI35
Fnan
sI36
Fnan
sI37
Fnan
sI38
Fnan
sI39
Fnan
sI40
Fnan
sI41
Fnan
sI42
Fnan
sI43
Fnan
sI44
Fnan
ssg183
(dp387
I0
F1236.9384
sI1
F1215.4104
sI2
F1146.7428
sI3
F1192.4
sI4
F1129.954
sI5
F1107.3788
sI6
F1185.7096000000001
sI7
F1240.402
sI8
F1195.0436
sI9
F1125.8848
sI10
F1117.6704
sI11
F1035.6052
sI12
F1166.2496
sI13
F1126.1332
sI14
F1129.9156
sI15
F1173.0752
sI16
F1085.4868
sI17
F1202.4804
sI18
F1184.4596000000001
sI19
F1203.4712
sI20
F1232.7784
sI21
F1166.4304
sI22
F1121.0539999999999
sI23
F1107.8352
sI24
F1212.2824
sI25
F1242.746
sI26
F1153.4712
sI27
F1175.1928
sI28
F1170.546
sI29
F1189.1452
sI30
F1204.904
sI31
F1213.0336
sI32
F1213.2008
sI33
F1213.8404
sI34
F1163.7488
sI35
F1126.0188
sI36
F1092.4316000000001
sI37
F1111.6163999999999
sI38
F1163.3555999999999
sI39
F1172.774
sI40
F1106.6788000000001
sI41
F1113.3708
sI42
F1131.2616
sI43
F1163.6536
sI44
F1190.2052
ssg185
(dp388
I0
F0.04270928269454813
sI1
Fnan
sI2
Fnan
sI3
Fnan
sI4
Fnan
sI5
Fnan
sI6
Fnan
sI7
Fnan
sI8
Fnan
sI9
Fnan
sI10
Fnan
sI11
Fnan
sI12
Fnan
sI13
Fnan
sI14
Fnan
sI15
Fnan
sI16
Fnan
sI17
Fnan
sI18
Fnan
sI19
Fnan
sI20
Fnan
sI21
Fnan
sI22
Fnan
sI23
Fnan
sI24
Fnan
sI25
Fnan
sI26
Fnan
sI27
Fnan
sI28
Fnan
sI29
Fnan
sI30
Fnan
sI31
Fnan
sI32
Fnan
sI33
Fnan
sI34
Fnan
sI35
Fnan
sI36
Fnan
sI37
Fnan
sI38
Fnan
sI39
Fnan
sI40
Fnan
sI41
Fnan
sI42
Fnan
sI43
Fnan
sI44
Fnan
ssg187
(dp389
I0
S"z'"
p390
sI1
S"z'"
p391
sI2
S"z'"
p392
sI3
S"z'"
p393
sI4
S"z'"
p394
sI5
S"z'"
p395
sI6
S"z'"
p396
sI7
S"z'"
p397
sI8
S"z'"
p398
sI9
S"z'"
p399
sI10
S"z'"
p400
sI11
S"z'"
p401
sI12
S"z'"
p402
sI13
S"z'"
p403
sI14
S"z'"
p404
sI15
S"z'"
p405
sI16
S"z'"
p406
sI17
S"z'"
p407
sI18
S"z'"
p408
sI19
S"z'"
p409
sI20
S"z'"
p410
sI21
S"z'"
p411
sI22
S"z'"
p412
sI23
S"z'"
p413
sI24
S"z'"
p414
sI25
S"z'"
p415
sI26
S"z'"
p416
sI27
S"z'"
p417
sI28
S"z'"
p418
sI29
S"z'"
p419
sI30
S"z'"
p420
sI31
S"z'"
p421
sI32
S"z'"
p422
sI33
S"z'"
p423
sI34
S"z'"
p424
sI35
S"z'"
p425
sI36
S"z'"
p426
sI37
S"z'"
p427
sI38
S"z'"
p428
sI39
S"z'"
p429
sI40
S"z'"
p430
sI41
S"z'"
p431
sI42
S"z'"
p432
sI43
S"z'"
p433
sI44
S"z'"
p434
ssg234
(dp435
I0
F0.04441516712461041
sI1
Fnan
sI2
Fnan
sI3
Fnan
sI4
Fnan
sI5
Fnan
sI6
Fnan
sI7
Fnan
sI8
Fnan
sI9
Fnan
sI10
Fnan
sI11
Fnan
sI12
Fnan
sI13
Fnan
sI14
Fnan
sI15
Fnan
sI16
Fnan
sI17
Fnan
sI18
Fnan
sI19
Fnan
sI20
Fnan
sI21
Fnan
sI22
Fnan
sI23
Fnan
sI24
Fnan
sI25
Fnan
sI26
Fnan
sI27
Fnan
sI28
Fnan
sI29
Fnan
sI30
Fnan
sI31
Fnan
sI32
Fnan
sI33
Fnan
sI34
Fnan
sI35
Fnan
sI36
Fnan
sI37
Fnan
sI38
Fnan
sI39
Fnan
sI40
Fnan
sI41
Fnan
sI42
Fnan
sI43
Fnan
sI44
Fnan
ssg236
(dp436
I0
F2.467953
sI1
F-3.374754
sI2
F-0.8957682
sI3
F3.39829
sI4
F-3.079553
sI5
F-2.394875
sI6
F3.153548
sI7
F3.774965
sI8
F1.386843
sI9
F-4.880698
sI10
F-0.9713194
sI11
F3.134948
sI12
F2.140247
sI13
F-3.88442
sI14
F2.973643
sI15
F1.2596
sI16
F3.918873
sI17
F3.862288
sI18
F3.632595
sI19
F2.618613
sI20
F2.837174
sI21
F-2.863969
sI22
F-2.892689
sI23
F2.065824
sI24
F2.581012
sI25
F3.986933
sI26
F-2.511293
sI27
F3.248246
sI28
F3.124197
sI29
F-2.080761
sI30
F3.589779
sI31
F3.115305
sI32
F-2.801942
sI33
F2.649347
sI34
F-1.270254
sI35
F-1.848475
sI36
F3.019979
sI37
F3.678994
sI38
F2.968511
sI39
F1.193899
sI40
F3.889544
sI41
F2.707044
sI42
F-2.473481
sI43
F-2.024901
sI44
F3.222701
ssg238
(dp437
I0
F1.508678328294288
sI1
Fnan
sI2
Fnan
sI3
Fnan
sI4
Fnan
sI5
Fnan
sI6
Fnan
sI7
Fnan
sI8
Fnan
sI9
Fnan
sI10
Fnan
sI11
Fnan
sI12
Fnan
sI13
Fnan
sI14
Fnan
sI15
Fnan
sI16
Fnan
sI17
Fnan
sI18
Fnan
sI19
Fnan
sI20
Fnan
sI21
Fnan
sI22
Fnan
sI23
Fnan
sI24
Fnan
sI25
Fnan
sI26
Fnan
sI27
Fnan
sI28
Fnan
sI29
Fnan
sI30
Fnan
sI31
Fnan
sI32
Fnan
sI33
Fnan
sI34
Fnan
sI35
Fnan
sI36
Fnan
sI37
Fnan
sI38
Fnan
sI39
Fnan
sI40
Fnan
sI41
Fnan
sI42
Fnan
sI43
Fnan
sI44
Fnan
ssg240
(dp438
I0
F2458207.956770833
sI1
Fnan
sI2
Fnan
sI3
Fnan
sI4
Fnan
sI5
Fnan
sI6
Fnan
sI7
Fnan
sI8
Fnan
sI9
Fnan
sI10
Fnan
sI11
Fnan
sI12
Fnan
sI13
Fnan
sI14
Fnan
sI15
Fnan
sI16
Fnan
sI17
Fnan
sI18
Fnan
sI19
Fnan
sI20
Fnan
sI21
Fnan
sI22
Fnan
sI23
Fnan
sI24
Fnan
sI25
Fnan
sI26
Fnan
sI27
Fnan
sI28
Fnan
sI29
Fnan
sI30
Fnan
sI31
Fnan
sI32
Fnan
sI33
Fnan
sI34
Fnan
sI35
Fnan
sI36
Fnan
sI37
Fnan
sI38
Fnan
sI39
Fnan
sI40
Fnan
sI41
Fnan
sI42
Fnan
sI43
Fnan
sI44
Fnan
ssg242
(dp439
I0
F0.003640301550599602
sI1
Fnan
sI2
Fnan
sI3
Fnan
sI4
Fnan
sI5
Fnan
sI6
Fnan
sI7
Fnan
sI8
Fnan
sI9
Fnan
sI10
Fnan
sI11
Fnan
sI12
Fnan
sI13
Fnan
sI14
Fnan
sI15
Fnan
sI16
Fnan
sI17
Fnan
sI18
Fnan
sI19
Fnan
sI20
Fnan
sI21
Fnan
sI22
Fnan
sI23
Fnan
sI24
Fnan
sI25
Fnan
sI26
Fnan
sI27
Fnan
sI28
Fnan
sI29
Fnan
sI30
Fnan
sI31
Fnan
sI32
Fnan
sI33
Fnan
sI34
Fnan
sI35
Fnan
sI36
Fnan
sI37
Fnan
sI38
Fnan
sI39
Fnan
sI40
Fnan
sI41
Fnan
sI42
Fnan
sI43
Fnan
sI44
Fnan
ssg244
(dp440
I0
F5.997535
sI1
F6.52048
sI2
F8.709398
sI3
F6.408222
sI4
F9.566814
sI5
F9.321738
sI6
F6.086058
sI7
F5.833454
sI8
F6.952519
sI9
F9.335648
sI10
F8.261775
sI11
F9.221643
sI12
F7.231911
sI13
F8.068267
sI14
F9.610165
sI15
F7.570424
sI16
F9.447742
sI17
F7.546719
sI18
F7.229391
sI19
F6.258988
sI20
F6.525501
sI21
F8.092611
sI22
F9.264029
sI23
F10.30447
sI24
F6.295619
sI25
F5.887862
sI26
F6.376238
sI27
F7.696157
sI28
F7.045851
sI29
F6.229384
sI30
F6.596184
sI31
F5.684261
sI32
F6.04218
sI33
F6.459848
sI34
F7.334166
sI35
F8.757755
sI36
F9.006948
sI37
F10.03516
sI38
F6.966276
sI39
F6.155727
sI40
F9.226996
sI41
F8.943289
sI42
F8.613723
sI43
F6.445251
sI44
F8.202453
ssg246
(dp441
I0
F11.927
sI1
F11.921
sI2
F11.977
sI3
F11.948
sI4
F11.995
sI5
F12.021
sI6
F11.935
sI7
F11.906
sI8
F11.958
sI9
F12.0
sI10
F12.01
sI11
F12.072
sI12
F11.96
sI13
F11.996
sI14
F12.0
sI15
F11.952
sI16
F12.029
sI17
F11.948
sI18
F11.968
sI19
F11.945
sI20
F11.911
sI21
F11.961
sI22
F12.007
sI23
F12.027
sI24
F11.932
sI25
F11.925
sI26
F11.99
sI27
F11.957
sI28
F11.968
sI29
F11.941
sI30
F11.95
sI31
F11.924
sI32
F11.927
sI33
F11.924
sI34
F11.951
sI35
F11.989
sI36
F12.028
sI37
F12.015
sI38
F11.979
sI39
F11.957
sI40
F12.025
sI41
F12.035
sI42
F11.994
sI43
F11.972
sI44
F11.955
ssg248
(dp442
I0
F0.36686854353607823
sI1
Fnan
sI2
Fnan
sI3
Fnan
sI4
Fnan
sI5
Fnan
sI6
Fnan
sI7
Fnan
sI8
Fnan
sI9
Fnan
sI10
Fnan
sI11
Fnan
sI12
Fnan
sI13
Fnan
sI14
Fnan
sI15
Fnan
sI16
Fnan
sI17
Fnan
sI18
Fnan
sI19
Fnan
sI20
Fnan
sI21
Fnan
sI22
Fnan
sI23
Fnan
sI24
Fnan
sI25
Fnan
sI26
Fnan
sI27
Fnan
sI28
Fnan
sI29
Fnan
sI30
Fnan
sI31
Fnan
sI32
Fnan
sI33
Fnan
sI34
Fnan
sI35
Fnan
sI36
Fnan
sI37
Fnan
sI38
Fnan
sI39
Fnan
sI40
Fnan
sI41
Fnan
sI42
Fnan
sI43
Fnan
sI44
Fnan
sssS'g'
p443
(dp444
g3
(dp445
I0
F0.8510859119616024
sI1
Fnan
sI2
Fnan
sI3
Fnan
sI4
Fnan
sI5
Fnan
sI6
Fnan
sI7
Fnan
sI8
Fnan
sI9
Fnan
sI10
Fnan
sI11
Fnan
sI12
Fnan
sI13
Fnan
sI14
Fnan
sI15
Fnan
sI16
Fnan
sI17
Fnan
sI18
Fnan
sI19
Fnan
sI20
Fnan
sI21
Fnan
sI22
Fnan
sI23
Fnan
sI24
Fnan
sI25
Fnan
sI26
Fnan
sI27
Fnan
sI28
Fnan
sI29
Fnan
sI30
Fnan
sI31
Fnan
sI32
Fnan
sI33
Fnan
sI34
Fnan
sI35
Fnan
sI36
Fnan
sI37
Fnan
sI38
Fnan
sI39
Fnan
sI40
Fnan
sI41
Fnan
sI42
Fnan
sI43
Fnan
sI44
Fnan
ssg5
(dp446
I0
S'NoError'
p447
sI1
S'NoError'
p448
sI2
S'NoError'
p449
sI3
S'NoError'
p450
sI4
S'NoError'
p451
sI5
S'NoError'
p452
sI6
S'NoError'
p453
sI7
S'NoError'
p454
sI8
S'NoError'
p455
sI9
S'NoError'
p456
sI10
S'NoError'
p457
sI11
S'NoError'
p458
sI12
S'NoError'
p459
sI13
S'NoError'
p460
sI14
S'NoError'
p461
sI15
S'NoError'
p462
sI16
S'NoError'
p463
sI17
S'NoError'
p464
sI18
S'NoError'
p465
sI19
S'NoError'
p466
sI20
S'NoError'
p467
sI21
S'NoError'
p468
sI22
S'NoError'
p469
sI23
S'NoError'
p470
sI24
S'NoError'
p471
sI25
S'NoError'
p472
sI26
S'NoError'
p473
sI27
S'NoError'
p474
sI28
S'NoError'
p475
sI29
S'NoError'
p476
sI30
S'NoError'
p477
sI31
S'NoError'
p478
sI32
S'NoError'
p479
sI33
S'NoError'
p480
sI34
S'NoError'
p481
sI35
S'NoError'
p482
sI36
S'NoError'
p483
sI37
S'NoError'
p484
sI38
S'NoError'
p485
sI39
S'NoError'
p486
sI40
S'NoError'
p487
sI41
S'NoError'
p488
sI42
S'NoError'
p489
sI43
S'NoError'
p490
sI44
S'NoError'
p491
ssg52
(dp492
I0
F0.003
sI1
F0.003
sI2
F0.003
sI3
F0.003
sI4
F0.003
sI5
F0.003
sI6
F0.003
sI7
F0.003
sI8
F0.003
sI9
F0.003
sI10
F0.003
sI11
F0.003
sI12
F0.003
sI13
F0.003
sI14
F0.003
sI15
F0.003
sI16
F0.003
sI17
F0.003
sI18
F0.003
sI19
F0.003
sI20
F0.003
sI21
F0.003
sI22
F0.003
sI23
F0.003
sI24
F0.003
sI25
F0.003
sI26
F0.003
sI27
F0.003
sI28
F0.003
sI29
F0.003
sI30
F0.003
sI31
F0.003
sI32
F0.003
sI33
F0.003
sI34
F0.003
sI35
F0.003
sI36
F0.003
sI37
F0.003
sI38
F0.003
sI39
F0.003
sI40
F0.003
sI41
F0.003
sI42
F0.003
sI43
F0.003
sI44
F0.003
ssg54
(dp493
I0
F0.8804039624857015
sI1
F0.8818305737615271
sI2
F0.8801190288787216
sI3
F0.8804213119330688
sI4
F0.885696231322347
sI5
F0.8783265427899252
sI6
F0.8831698422469926
sI7
F0.8813315556813414
sI8
F0.8782156507067
sI9
F0.8866732171327322
sI10
F0.8795977869520556
sI11
F0.8814429107476505
sI12
F0.8754112724704178
sI13
F0.8823076971849774
sI14
F0.8786207221184898
sI15
F0.8815552910020773
sI16
F0.8894375709896225
sI17
F0.8822310369412302
sI18
F0.877827961994342
sI19
F0.8786449888594228
sI20
F0.8809244094966996
sI21
F0.8791741839358016
sI22
F0.8810996570409545
sI23
F0.8778704101052537
sI24
F0.8783184076589313
sI25
F0.8772732456064292
sI26
F0.8761442906347188
sI27
F0.8839757433963072
sI28
F0.8787513491987741
sI29
F0.8792066260227974
sI30
F0.8755645660497243
sI31
F0.8791410855993445
sI32
F0.8774046113196082
sI33
F0.8757719987183055
sI34
F0.8770785044273605
sI35
F0.877377899055672
sI36
F0.8783060859938182
sI37
F0.8810314702423426
sI38
F0.8751500095275155
sI39
F0.8792812741258639
sI40
F0.8816228315195009
sI41
F0.8788142118268372
sI42
F0.8777429777926987
sI43
F0.8850342969349356
sI44
F0.8828613569105327
ssg56
(dp494
I0
F0.0030653468601401115
sI1
Fnan
sI2
Fnan
sI3
Fnan
sI4
Fnan
sI5
Fnan
sI6
Fnan
sI7
Fnan
sI8
Fnan
sI9
Fnan
sI10
Fnan
sI11
Fnan
sI12
Fnan
sI13
Fnan
sI14
Fnan
sI15
Fnan
sI16
Fnan
sI17
Fnan
sI18
Fnan
sI19
Fnan
sI20
Fnan
sI21
Fnan
sI22
Fnan
sI23
Fnan
sI24
Fnan
sI25
Fnan
sI26
Fnan
sI27
Fnan
sI28
Fnan
sI29
Fnan
sI30
Fnan
sI31
Fnan
sI32
Fnan
sI33
Fnan
sI34
Fnan
sI35
Fnan
sI36
Fnan
sI37
Fnan
sI38
Fnan
sI39
Fnan
sI40
Fnan
sI41
Fnan
sI42
Fnan
sI43
Fnan
sI44
Fnan
ssg58
(dp495
I0
F0.8799597035408904
sI1
Fnan
sI2
Fnan
sI3
Fnan
sI4
Fnan
sI5
Fnan
sI6
Fnan
sI7
Fnan
sI8
Fnan
sI9
Fnan
sI10
Fnan
sI11
Fnan
sI12
Fnan
sI13
Fnan
sI14
Fnan
sI15
Fnan
sI16
Fnan
sI17
Fnan
sI18
Fnan
sI19
Fnan
sI20
Fnan
sI21
Fnan
sI22
Fnan
sI23
Fnan
sI24
Fnan
sI25
Fnan
sI26
Fnan
sI27
Fnan
sI28
Fnan
sI29
Fnan
sI30
Fnan
sI31
Fnan
sI32
Fnan
sI33
Fnan
sI34
Fnan
sI35
Fnan
sI36
Fnan
sI37
Fnan
sI38
Fnan
sI39
Fnan
sI40
Fnan
sI41
Fnan
sI42
Fnan
sI43
Fnan
sI44
Fnan
ssg60
(dp496
I0
F11.44
sI1
F11.426
sI2
F11.483
sI3
F11.37
sI4
F11.426
sI5
F11.407
sI6
F11.398
sI7
F11.368
sI8
F11.376
sI9
F11.471
sI10
F11.369
sI11
F11.494
sI12
F11.471
sI13
F11.436
sI14
F11.379
sI15
F11.477
sI16
F11.494
sI17
F11.403
sI18
F11.373
sI19
F11.374
sI20
F11.455
sI21
F11.457
sI22
F11.454
sI23
F11.384
sI24
F11.379
sI25
F11.528
sI26
F11.402
sI27
F11.488
sI28
F11.447
sI29
F11.424
sI30
F11.392
sI31
F11.455
sI32
F11.437
sI33
F11.383
sI34
F11.483
sI35
F11.433
sI36
F11.379
sI37
F11.422
sI38
F11.376
sI39
F11.415
sI40
F11.457
sI41
F11.487
sI42
F11.403
sI43
F11.444
sI44
F11.434
ssg62
(dp497
I0
F90.5435
sI1
F73.44772
sI2
F103.3567
sI3
F57.13094
sI4
F73.2423
sI5
F72.30634
sI6
F73.72115
sI7
F63.71115
sI8
F62.55408
sI9
F100.4542
sI10
F58.34087
sI11
F103.266
sI12
F89.83742
sI13
F85.11971
sI14
F59.10963
sI15
F103.6178
sI16
F95.12514
sI17
F72.98138
sI18
F65.25995
sI19
F57.52113
sI20
F90.77707
sI21
F89.41542
sI22
F78.89409
sI23
F65.14444
sI24
F61.23638
sI25
F97.31935
sI26
F56.66334
sI27
F102.9372
sI28
F83.53273
sI29
F82.78099
sI30
F65.53423
sI31
F96.45267
sI32
F83.08006
sI33
F66.28529
sI34
F91.8961
sI35
F77.1492
sI36
F59.91201
sI37
F77.88876
sI38
F62.37018
sI39
F79.45778
sI40
F83.53703
sI41
F97.19427
sI42
F57.68058
sI43
F96.87807
sI44
F77.80482
ssg64
(dp498
I0
F2458207.9288310185
sI1
F2458207.9605439813
sI2
F2458207.909212963
sI3
F2458207.9924305556
sI4
F2458207.9599305554
sI5
F2458207.961145833
sI6
F2458207.9593287036
sI7
F2458207.974537037
sI8
F2458207.9825925925
sI9
F2458207.910416667
sI10
F2458207.991828704
sI11
F2458207.908599537
sI12
F2458207.927627315
sI13
F2458207.940196759
sI14
F2458207.984398148
sI15
F2458207.909814815
sI16
F2458207.9196643517
sI17
F2458207.9587384257
sI18
F2458207.973935185
sI19
F2458207.9930208335
sI20
F2458207.9282291667
sI21
F2458207.9294328704
sI22
F2458207.9500578702
sI23
F2458207.9757407405
sI24
F2458207.983784722
sI25
F2458207.9202777776
sI26
F2458207.9936342593
sI27
F2458207.9110300927
sI28
F2458207.9414120372
sI29
F2458207.9420023146
sI30
F2458207.9751388887
sI31
F2458207.918460648
sI32
F2458207.940798611
sI33
F2458207.973321759
sI34
F2458207.927037037
sI35
F2458207.951261574
sI36
F2458207.985
sI37
F2458207.950659722
sI38
F2458207.9831944443
sI39
F2458207.9494444444
sI40
F2458207.9426041665
sI41
F2458207.9190625
sI42
F2458207.994236111
sI43
F2458207.917847222
sI44
F2458207.951863426
ssg66
(dp499
I0
F0.9256980444444447
sI1
Fnan
sI2
Fnan
sI3
Fnan
sI4
Fnan
sI5
Fnan
sI6
Fnan
sI7
Fnan
sI8
Fnan
sI9
Fnan
sI10
Fnan
sI11
Fnan
sI12
Fnan
sI13
Fnan
sI14
Fnan
sI15
Fnan
sI16
Fnan
sI17
Fnan
sI18
Fnan
sI19
Fnan
sI20
Fnan
sI21
Fnan
sI22
Fnan
sI23
Fnan
sI24
Fnan
sI25
Fnan
sI26
Fnan
sI27
Fnan
sI28
Fnan
sI29
Fnan
sI30
Fnan
sI31
Fnan
sI32
Fnan
sI33
Fnan
sI34
Fnan
sI35
Fnan
sI36
Fnan
sI37
Fnan
sI38
Fnan
sI39
Fnan
sI40
Fnan
sI41
Fnan
sI42
Fnan
sI43
Fnan
sI44
Fnan
ssg68
(dp500
I0
F1.768812362222222
sI1
Fnan
sI2
Fnan
sI3
Fnan
sI4
Fnan
sI5
Fnan
sI6
Fnan
sI7
Fnan
sI8
Fnan
sI9
Fnan
sI10
Fnan
sI11
Fnan
sI12
Fnan
sI13
Fnan
sI14
Fnan
sI15
Fnan
sI16
Fnan
sI17
Fnan
sI18
Fnan
sI19
Fnan
sI20
Fnan
sI21
Fnan
sI22
Fnan
sI23
Fnan
sI24
Fnan
sI25
Fnan
sI26
Fnan
sI27
Fnan
sI28
Fnan
sI29
Fnan
sI30
Fnan
sI31
Fnan
sI32
Fnan
sI33
Fnan
sI34
Fnan
sI35
Fnan
sI36
Fnan
sI37
Fnan
sI38
Fnan
sI39
Fnan
sI40
Fnan
sI41
Fnan
sI42
Fnan
sI43
Fnan
sI44
Fnan
ssg70
(dp501
I0
F0.8496489539819342
sI1
F0.8523430339427643
sI2
F0.8477590266959016
sI3
F0.8550292950195981
sI4
F0.8511572049613031
sI5
F0.851227231575846
sI6
F0.8531960895398736
sI7
F0.8579510801527942
sI8
F0.8567410096131951
sI9
F0.8542807311962114
sI10
F0.8549354903541804
sI11
F0.8518498494025512
sI12
F0.8506474117009133
sI13
F0.8494352293940628
sI14
F0.8479828026052598
sI15
F0.8489355804588193
sI16
F0.8509918318467838
sI17
F0.8529379483553917
sI18
F0.8571140661942344
sI19
F0.8504445167097056
sI20
F0.8532544173951858
sI21
F0.8450921869115262
sI22
F0.8519403474553597
sI23
F0.8601536205889284
sI24
F0.8498574056402419
sI25
F0.842372577991018
sI26
F0.859724139488347
sI27
F0.8471637768737995
sI28
F0.846937032582192
sI29
F0.8483508728509004
sI30
F0.850875194766144
sI31
F0.8488894113046954
sI32
F0.8433495357169757
sI33
F0.8575208313983628
sI34
F0.84219651497396
sI35
F0.8536964502789417
sI36
F0.851915230565215
sI37
F0.8530460298308475
sI38
F0.8482405250060278
sI39
F0.8511355388880514
sI40
F0.8502595108498541
sI41
F0.8536864166300671
sI42
F0.8493205303835422
sI43
F0.8484533076066245
sI44
F0.8524931651731461
ssg72
(dp502
I0
F0.002697071236018133
sI1
Fnan
sI2
Fnan
sI3
Fnan
sI4
Fnan
sI5
Fnan
sI6
Fnan
sI7
Fnan
sI8
Fnan
sI9
Fnan
sI10
Fnan
sI11
Fnan
sI12
Fnan
sI13
Fnan
sI14
Fnan
sI15
Fnan
sI16
Fnan
sI17
Fnan
sI18
Fnan
sI19
Fnan
sI20
Fnan
sI21
Fnan
sI22
Fnan
sI23
Fnan
sI24
Fnan
sI25
Fnan
sI26
Fnan
sI27
Fnan
sI28
Fnan
sI29
Fnan
sI30
Fnan
sI31
Fnan
sI32
Fnan
sI33
Fnan
sI34
Fnan
sI35
Fnan
sI36
Fnan
sI37
Fnan
sI38
Fnan
sI39
Fnan
sI40
Fnan
sI41
Fnan
sI42
Fnan
sI43
Fnan
sI44
Fnan
ssg74
(dp503
I0
F1.2545232333333334
sI1
Fnan
sI2
Fnan
sI3
Fnan
sI4
Fnan
sI5
Fnan
sI6
Fnan
sI7
Fnan
sI8
Fnan
sI9
Fnan
sI10
Fnan
sI11
Fnan
sI12
Fnan
sI13
Fnan
sI14
Fnan
sI15
Fnan
sI16
Fnan
sI17
Fnan
sI18
Fnan
sI19
Fnan
sI20
Fnan
sI21
Fnan
sI22
Fnan
sI23
Fnan
sI24
Fnan
sI25
Fnan
sI26
Fnan
sI27
Fnan
sI28
Fnan
sI29
Fnan
sI30
Fnan
sI31
Fnan
sI32
Fnan
sI33
Fnan
sI34
Fnan
sI35
Fnan
sI36
Fnan
sI37
Fnan
sI38
Fnan
sI39
Fnan
sI40
Fnan
sI41
Fnan
sI42
Fnan
sI43
Fnan
sI44
Fnan
ssg76
(dp504
I0
g447
sI1
g448
sI2
g449
sI3
g450
sI4
g451
sI5
g452
sI6
g453
sI7
g454
sI8
g455
sI9
g456
sI10
g457
sI11
g458
sI12
g459
sI13
g460
sI14
g461
sI15
g462
sI16
g463
sI17
g464
sI18
g465
sI19
g466
sI20
g467
sI21
g468
sI22
g469
sI23
g470
sI24
g471
sI25
g472
sI26
g473
sI27
g474
sI28
g475
sI29
g476
sI30
g477
sI31
g478
sI32
g479
sI33
g480
sI34
g481
sI35
g482
sI36
g483
sI37
g484
sI38
g485
sI39
g486
sI40
g487
sI41
g488
sI42
g489
sI43
g490
sI44
g491
ssg78
(dp505
I0
F0.0032577069849350805
sI1
Fnan
sI2
Fnan
sI3
Fnan
sI4
Fnan
sI5
Fnan
sI6
Fnan
sI7
Fnan
sI8
Fnan
sI9
Fnan
sI10
Fnan
sI11
Fnan
sI12
Fnan
sI13
Fnan
sI14
Fnan
sI15
Fnan
sI16
Fnan
sI17
Fnan
sI18
Fnan
sI19
Fnan
sI20
Fnan
sI21
Fnan
sI22
Fnan
sI23
Fnan
sI24
Fnan
sI25
Fnan
sI26
Fnan
sI27
Fnan
sI28
Fnan
sI29
Fnan
sI30
Fnan
sI31
Fnan
sI32
Fnan
sI33
Fnan
sI34
Fnan
sI35
Fnan
sI36
Fnan
sI37
Fnan
sI38
Fnan
sI39
Fnan
sI40
Fnan
sI41
Fnan
sI42
Fnan
sI43
Fnan
sI44
Fnan
ssg80
(dp506
I0
F0.039347801653326124
sI1
Fnan
sI2
Fnan
sI3
Fnan
sI4
Fnan
sI5
Fnan
sI6
Fnan
sI7
Fnan
sI8
Fnan
sI9
Fnan
sI10
Fnan
sI11
Fnan
sI12
Fnan
sI13
Fnan
sI14
Fnan
sI15
Fnan
sI16
Fnan
sI17
Fnan
sI18
Fnan
sI19
Fnan
sI20
Fnan
sI21
Fnan
sI22
Fnan
sI23
Fnan
sI24
Fnan
sI25
Fnan
sI26
Fnan
sI27
Fnan
sI28
Fnan
sI29
Fnan
sI30
Fnan
sI31
Fnan
sI32
Fnan
sI33
Fnan
sI34
Fnan
sI35
Fnan
sI36
Fnan
sI37
Fnan
sI38
Fnan
sI39
Fnan
sI40
Fnan
sI41
Fnan
sI42
Fnan
sI43
Fnan
sI44
Fnan
ssg82
(dp507
I0
F2.2553886444444444
sI1
Fnan
sI2
Fnan
sI3
Fnan
sI4
Fnan
sI5
Fnan
sI6
Fnan
sI7
Fnan
sI8
Fnan
sI9
Fnan
sI10
Fnan
sI11
Fnan
sI12
Fnan
sI13
Fnan
sI14
Fnan
sI15
Fnan
sI16
Fnan
sI17
Fnan
sI18
Fnan
sI19
Fnan
sI20
Fnan
sI21
Fnan
sI22
Fnan
sI23
Fnan
sI24
Fnan
sI25
Fnan
sI26
Fnan
sI27
Fnan
sI28
Fnan
sI29
Fnan
sI30
Fnan
sI31
Fnan
sI32
Fnan
sI33
Fnan
sI34
Fnan
sI35
Fnan
sI36
Fnan
sI37
Fnan
sI38
Fnan
sI39
Fnan
sI40
Fnan
sI41
Fnan
sI42
Fnan
sI43
Fnan
sI44
Fnan
ssg84
(dp508
I0
F1.5034706728958884
sI1
F1.5151100323184257
sI2
F1.5047610337679784
sI3
F1.5128480601114673
sI4
F1.5148197984805114
sI5
F1.5113366140671265
sI6
F1.5119669898402346
sI7
F1.510824186629387
sI8
F1.5168039020356423
sI9
F1.4970171339659584
sI10
F1.5138636172439104
sI11
F1.5143335304702346
sI12
F1.5170061871459293
sI13
F1.5104757565560172
sI14
F1.520546812541289
sI15
F1.5028298784215195
sI16
F1.5058492768816565
sI17
F1.5162233922344208
sI18
F1.5208221310155028
sI19
F1.5151632094468497
sI20
F1.5174468403627115
sI21
F1.5106824503977458
sI22
F1.513333389932675
sI23
F1.5077897290216424
sI24
F1.520452164454071
sI25
F1.5052740985153523
sI26
F1.5154257790520398
sI27
F1.5071543284874385
sI28
F1.5191659975302192
sI29
F1.50809171984686
sI30
F1.5152726355484656
sI31
F1.5033539121136656
sI32
F1.5118915582232169
sI33
F1.5285564729880357
sI34
F1.5181345760449152
sI35
F1.5212141986138663
sI36
F1.5160664609724712
sI37
F1.5059622648167126
sI38
F1.5179183582209188
sI39
F1.5132544276659887
sI40
F1.5139077063686242
sI41
F1.5216190878821063
sI42
F1.51446649684063
sI43
F1.5005564549217878
sI44
F1.5069231347628473
ssg86
(dp509
I0
g447
sI1
g448
sI2
g449
sI3
g450
sI4
g451
sI5
g452
sI6
g453
sI7
g454
sI8
g455
sI9
g456
sI10
g457
sI11
g458
sI12
g459
sI13
g460
sI14
g461
sI15
g462
sI16
g463
sI17
g464
sI18
g465
sI19
g466
sI20
g467
sI21
g468
sI22
g469
sI23
g470
sI24
g471
sI25
g472
sI26
g473
sI27
g474
sI28
g475
sI29
g476
sI30
g477
sI31
g478
sI32
g479
sI33
g480
sI34
g481
sI35
g482
sI36
g483
sI37
g484
sI38
g485
sI39
g486
sI40
g487
sI41
g488
sI42
g489
sI43
g490
sI44
g491
ssg88
(dp510
I0
F89.89127
sI1
F74.65836
sI2
F101.1125
sI3
F56.82264
sI4
F72.62982
sI5
F72.52369
sI6
F73.47168
sI7
F65.96866
sI8
F62.44321
sI9
F101.1141
sI10
F56.70436
sI11
F103.5616
sI12
F92.09816
sI13
F83.91306
sI14
F60.73701
sI15
F101.501
sI16
F95.42224
sI17
F73.41087
sI18
F64.87611
sI19
F57.02311
sI20
F89.75888
sI21
F90.22324
sI22
F79.77336
sI23
F65.32908
sI24
F61.23713
sI25
F97.68836
sI26
F58.57087
sI27
F101.5063
sI28
F83.36787
sI29
F83.02754
sI30
F65.58327
sI31
F95.30347
sI32
F84.26389
sI33
F67.04295
sI34
F91.17383
sI35
F78.20378
sI36
F61.12811
sI37
F77.08585
sI38
F62.12971
sI39
F79.5118
sI40
F83.05815
sI41
F96.81487
sI42
F56.60075
sI43
F95.57537
sI44
F76.83528
ssg90
(dp511
I0
F10.974866666666667
sI1
Fnan
sI2
Fnan
sI3
Fnan
sI4
Fnan
sI5
Fnan
sI6
Fnan
sI7
Fnan
sI8
Fnan
sI9
Fnan
sI10
Fnan
sI11
Fnan
sI12
Fnan
sI13
Fnan
sI14
Fnan
sI15
Fnan
sI16
Fnan
sI17
Fnan
sI18
Fnan
sI19
Fnan
sI20
Fnan
sI21
Fnan
sI22
Fnan
sI23
Fnan
sI24
Fnan
sI25
Fnan
sI26
Fnan
sI27
Fnan
sI28
Fnan
sI29
Fnan
sI30
Fnan
sI31
Fnan
sI32
Fnan
sI33
Fnan
sI34
Fnan
sI35
Fnan
sI36
Fnan
sI37
Fnan
sI38
Fnan
sI39
Fnan
sI40
Fnan
sI41
Fnan
sI42
Fnan
sI43
Fnan
sI44
Fnan
ssg92
(dp512
I0
F0.7167485552663871
sI1
Fnan
sI2
Fnan
sI3
Fnan
sI4
Fnan
sI5
Fnan
sI6
Fnan
sI7
Fnan
sI8
Fnan
sI9
Fnan
sI10
Fnan
sI11
Fnan
sI12
Fnan
sI13
Fnan
sI14
Fnan
sI15
Fnan
sI16
Fnan
sI17
Fnan
sI18
Fnan
sI19
Fnan
sI20
Fnan
sI21
Fnan
sI22
Fnan
sI23
Fnan
sI24
Fnan
sI25
Fnan
sI26
Fnan
sI27
Fnan
sI28
Fnan
sI29
Fnan
sI30
Fnan
sI31
Fnan
sI32
Fnan
sI33
Fnan
sI34
Fnan
sI35
Fnan
sI36
Fnan
sI37
Fnan
sI38
Fnan
sI39
Fnan
sI40
Fnan
sI41
Fnan
sI42
Fnan
sI43
Fnan
sI44
Fnan
ssg94
(dp513
I0
F4.936017
sI1
F-2.688194
sI2
F5.084975
sI3
F-2.747286
sI4
F1.928526
sI5
F2.633831
sI6
F4.715283
sI7
F3.105644
sI8
F4.291647
sI9
F6.490027
sI10
F-4.479877
sI11
F-2.925786
sI12
F2.689032
sI13
F5.306112
sI14
F3.563519
sI15
F7.30005
sI16
F5.950323
sI17
F-3.750295
sI18
F-1.931964
sI19
F3.864625
sI20
F-3.82214
sI21
F5.238547
sI22
F4.973473
sI23
F4.721914
sI24
F5.437492
sI25
F2.50088
sI26
F4.547198
sI27
F-3.631028
sI28
F3.978987
sI29
F-2.948464
sI30
F5.239716
sI31
F3.534947
sI32
F3.953234
sI33
F1.494875
sI34
F3.885082
sI35
F-5.308714
sI36
F4.920639
sI37
F-4.443435
sI38
F-4.642927
sI39
F-3.35161
sI40
F5.083615
sI41
F4.643289
sI42
F-4.049017
sI43
F-0.5951667
sI44
F4.898961
ssg96
(dp514
I0
F11.347422222222223
sI1
Fnan
sI2
Fnan
sI3
Fnan
sI4
Fnan
sI5
Fnan
sI6
Fnan
sI7
Fnan
sI8
Fnan
sI9
Fnan
sI10
Fnan
sI11
Fnan
sI12
Fnan
sI13
Fnan
sI14
Fnan
sI15
Fnan
sI16
Fnan
sI17
Fnan
sI18
Fnan
sI19
Fnan
sI20
Fnan
sI21
Fnan
sI22
Fnan
sI23
Fnan
sI24
Fnan
sI25
Fnan
sI26
Fnan
sI27
Fnan
sI28
Fnan
sI29
Fnan
sI30
Fnan
sI31
Fnan
sI32
Fnan
sI33
Fnan
sI34
Fnan
sI35
Fnan
sI36
Fnan
sI37
Fnan
sI38
Fnan
sI39
Fnan
sI40
Fnan
sI41
Fnan
sI42
Fnan
sI43
Fnan
sI44
Fnan
ssg98
(dp515
I0
g447
sI1
g448
sI2
g449
sI3
g450
sI4
g451
sI5
g452
sI6
g453
sI7
g454
sI8
g455
sI9
g456
sI10
g457
sI11
g458
sI12
g459
sI13
g460
sI14
g461
sI15
g462
sI16
g463
sI17
g464
sI18
g465
sI19
g466
sI20
g467
sI21
g468
sI22
g469
sI23
g470
sI24
g471
sI25
g472
sI26
g473
sI27
g474
sI28
g475
sI29
g476
sI30
g477
sI31
g478
sI32
g479
sI33
g480
sI34
g481
sI35
g482
sI36
g483
sI37
g484
sI38
g485
sI39
g486
sI40
g487
sI41
g488
sI42
g489
sI43
g490
sI44
g491
ssg100
(dp516
I0
F7194.876
sI1
F7272.715999999999
sI2
F6932.768
sI3
F7625.616
sI4
F7305.304
sI5
F7395.116
sI6
F7465.848000000001
sI7
F7623.1759999999995
sI8
F7557.476
sI9
F6991.812
sI10
F7629.64
sI11
F6834.8
sI12
F6957.6759999999995
sI13
F7236.056
sI14
F7615.54
sI15
F6966.6
sI16
F6884.7519999999995
sI17
F7429.504
sI18
F7573.696
sI19
F7628.988
sI20
F7069.584
sI21
F7118.596
sI22
F7087.148
sI23
F7470.772
sI24
F7600.371999999999
sI25
F6677.632
sI26
F7338.715999999999
sI27
F6927.9
sI28
F7162.82
sI29
F7304.104
sI30
F7485.24
sI31
F7097.044
sI32
F7254.991999999999
sI33
F7488.884
sI34
F6957.22
sI35
F7192.0
sI36
F7577.916
sI37
F7292.264
sI38
F7614.78
sI39
F7341.508000000001
sI40
F7085.876
sI41
F6850.58
sI42
F7435.596
sI43
F7207.868
sI44
F7227.2919999999995
ssg102
(dp517
I0
F1.6710479999999999
sI1
F1.427484
sI2
F1.879946
sI3
F1.261525
sI4
F1.431334
sI5
F1.4236719999999998
sI6
F1.4352120000000002
sI7
F1.347045
sI8
F1.3062690000000001
sI9
F1.865452
sI10
F1.264089
sI11
F1.8873669999999998
sI12
F1.682351
sI13
F1.57247
sI14
F1.297644
sI15
F1.872712
sI16
F1.7617580000000002
sI17
F1.439036
sI18
F1.350198
sI19
F1.258933
sI20
F1.6767
sI21
F1.6654369999999998
sI22
F1.497667
sI23
F1.340671
sI24
F1.3004870000000002
sI25
F1.755475
sI26
F1.2563799999999998
sI27
F1.8583049999999999
sI28
F1.562869
sI29
F1.558127
sI30
F1.34382
sI31
F1.774664
sI32
F1.5676290000000002
sI33
F1.3534629999999999
sI34
F1.6880380000000001
sI35
F1.4891969999999999
sI36
F1.294834
sI37
F1.4933459999999998
sI38
F1.303412
sI39
F1.502074
sI40
F1.553421
sI41
F1.768204
sI42
F1.253847
sI43
F1.781138
sI44
F1.484992
ssg104
(dp518
I0
F6242.8640000000005
sI1
F6250.22
sI2
F6013.58
sI3
F6578.396
sI4
F6238.2
sI5
F6408.3
sI6
F6414.0
sI7
F6574.2880000000005
sI8
F6528.3
sI9
F6026.54
sI10
F6586.996
sI11
F5880.56
sI12
F6038.3
sI13
F6231.42
sI14
F6558.8240000000005
sI15
F6035.371999999999
sI16
F5874.432
sI17
F6376.24
sI18
F6530.528
sI19
F6591.88
sI20
F6076.2919999999995
sI21
F6162.2519999999995
sI22
F6104.996
sI23
F6493.0
sI24
F6549.524
sI25
F5818.531999999999
sI26
F6367.172
sI27
F5961.36
sI28
F6172.776
sI29
F6332.552
sI30
F6501.344
sI31
F6171.64
sI32
F6294.62
sI33
F6449.531999999999
sI34
F6016.56
sI35
F6204.688
sI36
F6547.908
sI37
F6310.956
sI38
F6607.84
sI39
F6344.031999999999
sI40
F6096.312
sI41
F5894.1759999999995
sI42
F6437.424
sI43
F6216.4
sI44
F6231.64
ssg106
(dp519
I0
F10101.624
sI1
F10244.368
sI2
F9740.58
sI3
F10744.256000000001
sI4
F10257.984
sI5
F10430.804
sI6
F10492.936000000002
sI7
F10724.936000000002
sI8
F10682.68
sI9
F9744.348
sI10
F10761.024
sI11
F9627.648000000001
sI12
F9857.488000000001
sI13
F10171.148000000001
sI14
F10776.392
sI15
F9769.876
sI16
F9606.704
sI17
F10466.296
sI18
F10725.008
sI19
F10773.468
sI20
F9974.084
sI21
F10031.572
sI22
F9982.056
sI23
F10527.216
sI24
F10757.12
sI25
F9405.076
sI26
F10385.128
sI27
F9713.052
sI28
F10129.492
sI29
F10282.664
sI30
F10596.743999999999
sI31
F9973.764000000001
sI32
F10242.771999999999
sI33
F10652.828000000001
sI34
F9847.972
sI35
F10189.616
sI36
F10707.844
sI37
F10242.968
sI38
F10794.388
sI39
F10354.851999999999
sI40
F9978.308
sI41
F9696.332
sI42
F10505.112
sI43
F10071.936
sI44
F10140.788
ssg108
(dp520
I0
F88.83148
sI1
F73.23529
sI2
F101.6021
sI3
F57.37175
sI4
F74.05579
sI5
F71.90973
sI6
F72.89174
sI7
F65.39227
sI8
F61.95721
sI9
F100.4669
sI10
F58.10616
sI11
F103.0691
sI12
F91.14636
sI13
F83.92518
sI14
F60.40036
sI15
F100.7826
sI16
F96.05657
sI17
F74.51071
sI18
F65.68971
sI19
F56.90253
sI20
F89.79346
sI21
F89.03802
sI22
F79.88238
sI23
F64.65793
sI24
F60.32968
sI25
F96.04847
sI26
F56.20826
sI27
F100.7177
sI28
F83.45284
sI29
F82.56923
sI30
F64.65452
sI31
F94.97534
sI32
F82.13
sI33
F66.87869
sI34
F91.00835
sI35
F78.7356
sI36
F59.78163
sI37
F77.28442
sI38
F61.85257
sI39
F78.05441
sI40
F83.07203
sI41
F96.08398
sI42
F56.30794
sI43
F96.93491
sI44
F77.19114
ssg110
(dp521
I0
F11.512
sI1
F11.51
sI2
F11.552
sI3
F11.455
sI4
F11.512
sI5
F11.483
sI6
F11.482
sI7
F11.455
sI8
F11.463
sI9
F11.55
sI10
F11.453
sI11
F11.576
sI12
F11.548
sI13
F11.514
sI14
F11.458
sI15
F11.548
sI16
F11.578
sI17
F11.489
sI18
F11.463
sI19
F11.452
sI20
F11.541
sI21
F11.526
sI22
F11.536
sI23
F11.469
sI24
F11.459
sI25
F11.588
sI26
F11.49
sI27
F11.562
sI28
F11.524
sI29
F11.496
sI30
F11.467
sI31
F11.524
sI32
F11.503
sI33
F11.476
sI34
F11.552
sI35
F11.518
sI36
F11.46
sI37
F11.5
sI38
F11.45
sI39
F11.494
sI40
F11.537
sI41
F11.574
sI42
F11.478
sI43
F11.516
sI44
F11.513
ssg112
(dp522
I0
F0.002
sI1
F0.002
sI2
F0.002
sI3
F0.002
sI4
F0.002
sI5
F0.002
sI6
F0.002
sI7
F0.002
sI8
F0.002
sI9
F0.002
sI10
F0.002
sI11
F0.002
sI12
F0.002
sI13
F0.002
sI14
F0.002
sI15
F0.002
sI16
F0.002
sI17
F0.002
sI18
F0.002
sI19
F0.002
sI20
F0.002
sI21
F0.002
sI22
F0.002
sI23
F0.002
sI24
F0.002
sI25
F0.002
sI26
F0.002
sI27
F0.002
sI28
F0.002
sI29
F0.002
sI30
F0.002
sI31
F0.002
sI32
F0.002
sI33
F0.002
sI34
F0.002
sI35
F0.002
sI36
F0.002
sI37
F0.002
sI38
F0.002
sI39
F0.002
sI40
F0.002
sI41
F0.002
sI42
F0.002
sI43
F0.002
sI44
F0.002
ssg114
(dp523
I0
F11.427844444444446
sI1
Fnan
sI2
Fnan
sI3
Fnan
sI4
Fnan
sI5
Fnan
sI6
Fnan
sI7
Fnan
sI8
Fnan
sI9
Fnan
sI10
Fnan
sI11
Fnan
sI12
Fnan
sI13
Fnan
sI14
Fnan
sI15
Fnan
sI16
Fnan
sI17
Fnan
sI18
Fnan
sI19
Fnan
sI20
Fnan
sI21
Fnan
sI22
Fnan
sI23
Fnan
sI24
Fnan
sI25
Fnan
sI26
Fnan
sI27
Fnan
sI28
Fnan
sI29
Fnan
sI30
Fnan
sI31
Fnan
sI32
Fnan
sI33
Fnan
sI34
Fnan
sI35
Fnan
sI36
Fnan
sI37
Fnan
sI38
Fnan
sI39
Fnan
sI40
Fnan
sI41
Fnan
sI42
Fnan
sI43
Fnan
sI44
Fnan
ssg116
(dp524
I0
F11.5068
sI1
Fnan
sI2
Fnan
sI3
Fnan
sI4
Fnan
sI5
Fnan
sI6
Fnan
sI7
Fnan
sI8
Fnan
sI9
Fnan
sI10
Fnan
sI11
Fnan
sI12
Fnan
sI13
Fnan
sI14
Fnan
sI15
Fnan
sI16
Fnan
sI17
Fnan
sI18
Fnan
sI19
Fnan
sI20
Fnan
sI21
Fnan
sI22
Fnan
sI23
Fnan
sI24
Fnan
sI25
Fnan
sI26
Fnan
sI27
Fnan
sI28
Fnan
sI29
Fnan
sI30
Fnan
sI31
Fnan
sI32
Fnan
sI33
Fnan
sI34
Fnan
sI35
Fnan
sI36
Fnan
sI37
Fnan
sI38
Fnan
sI39
Fnan
sI40
Fnan
sI41
Fnan
sI42
Fnan
sI43
Fnan
sI44
Fnan
ssg118
(dp525
I0
F11.357
sI1
F11.346
sI2
F11.398
sI3
F11.294
sI4
F11.341
sI5
F11.328
sI6
F11.317
sI7
F11.295
sI8
F11.304
sI9
F11.389
sI10
F11.294
sI11
F11.413
sI12
F11.394
sI13
F11.351
sI14
F11.296
sI15
F11.392
sI16
F11.405
sI17
F11.323
sI18
F11.302
sI19
F11.294
sI20
F11.377
sI21
F11.369
sI22
F11.374
sI23
F11.317
sI24
F11.298
sI25
F11.438
sI26
F11.336
sI27
F11.398
sI28
F11.362
sI29
F11.341
sI30
F11.314
sI31
F11.372
sI32
F11.348
sI33
F11.314
sI34
F11.394
sI35
F11.358
sI36
F11.301
sI37
F11.343
sI38
F11.296
sI39
F11.336
sI40
F11.374
sI41
F11.411
sI42
F11.322
sI43
F11.355
sI44
F11.353
ssg120
(dp526
I0
F-4.468026
sI1
F-4.46964
sI2
F5.688065
sI3
F-5.8217
sI4
F4.190633
sI5
F-4.865223
sI6
F-2.56324
sI7
F3.470222
sI8
F-5.019126
sI9
F3.842008
sI10
F-4.879744
sI11
F4.348598
sI12
F4.742739
sI13
F6.167138
sI14
F-5.400032
sI15
F6.18297
sI16
F-2.612426
sI17
F4.317532
sI18
F-2.730392
sI19
F-4.415457
sI20
F4.856066
sI21
F4.319106
sI22
F3.447681
sI23
F-4.060118
sI24
F4.102664
sI25
F3.580315
sI26
F2.626319
sI27
F5.907815
sI28
F3.927008
sI29
F5.365345
sI30
F3.505276
sI31
F-4.585649
sI32
F2.406345
sI33
F6.073619
sI34
F4.183554
sI35
F5.518974
sI36
F-5.08036
sI37
F-4.030684
sI38
F4.29927
sI39
F-5.357389
sI40
F-5.655355
sI41
F-3.627877
sI42
F4.154595
sI43
F5.169869
sI44
F4.905124
ssg122
(dp527
I0
F0.04148964821604196
sI1
Fnan
sI2
Fnan
sI3
Fnan
sI4
Fnan
sI5
Fnan
sI6
Fnan
sI7
Fnan
sI8
Fnan
sI9
Fnan
sI10
Fnan
sI11
Fnan
sI12
Fnan
sI13
Fnan
sI14
Fnan
sI15
Fnan
sI16
Fnan
sI17
Fnan
sI18
Fnan
sI19
Fnan
sI20
Fnan
sI21
Fnan
sI22
Fnan
sI23
Fnan
sI24
Fnan
sI25
Fnan
sI26
Fnan
sI27
Fnan
sI28
Fnan
sI29
Fnan
sI30
Fnan
sI31
Fnan
sI32
Fnan
sI33
Fnan
sI34
Fnan
sI35
Fnan
sI36
Fnan
sI37
Fnan
sI38
Fnan
sI39
Fnan
sI40
Fnan
sI41
Fnan
sI42
Fnan
sI43
Fnan
sI44
Fnan
ssg124
(dp528
I0
F0.721864423438268
sI1
F0.7136142065654307
sI2
F0.721340429048803
sI3
F0.7162157689503769
sI4
F0.710368126970303
sI5
F0.7189867339245325
sI6
F0.7143022601084794
sI7
F0.7166173827585094
sI8
F0.7158162463084198
sI9
F0.7201819294270609
sI10
F0.7163412914291729
sI11
F0.7144210873133814
sI12
F0.7181969798213089
sI13
F0.7159587490328716
sI14
F0.7132283873167865
sI15
F0.7212237510453214
sI16
F0.7124212683222149
sI17
F0.7125962516344617
sI18
F0.713769456022678
sI19
F0.7164130700815151
sI20
F0.7130263274313955
sI21
F0.7186229312739094
sI22
F0.7153228703576335
sI23
F0.721525094916165
sI24
F0.713553245726595
sI25
F0.7235761539661106
sI26
F0.718486576613967
sI27
F0.7164686251123134
sI28
F0.7139329894117109
sI29
F0.7201496033836348
sI30
F0.7190963115551923
sI31
F0.7230636065967118
sI32
F0.7194770714703891
sI33
F0.7110169095397391
sI34
F0.71603585368141
sI35
F0.7139368399347908
sI36
F0.7161756470608824
sI37
F0.7198029658233207
sI38
F0.7178857838659519
sI39
F0.7169872222310124
sI40
F0.7145155021769573
sI41
F0.7124200575914104
sI42
F0.7176332171506276
sI43
F0.7194989017236537
sI44
F0.7175968788720457
ssg126
(dp529
I0
F25.0
sI1
F25.0
sI2
F25.0
sI3
F25.0
sI4
F25.0
sI5
F25.0
sI6
F25.0
sI7
F25.0
sI8
F25.0
sI9
F25.0
sI10
F25.0
sI11
F25.0
sI12
F25.0
sI13
F25.0
sI14
F25.0
sI15
F25.0
sI16
F25.0
sI17
F25.0
sI18
F25.0
sI19
F25.0
sI20
F25.0
sI21
F25.0
sI22
F25.0
sI23
F25.0
sI24
F25.0
sI25
F25.0
sI26
F25.0
sI27
F25.0
sI28
F25.0
sI29
F25.0
sI30
F25.0
sI31
F25.0
sI32
F25.0
sI33
F25.0
sI34
F25.0
sI35
F25.0
sI36
F25.0
sI37
F25.0
sI38
F25.0
sI39
F25.0
sI40
F25.0
sI41
F25.0
sI42
F25.0
sI43
F25.0
sI44
F25.0
ssg128
(dp530
I0
F0.003
sI1
F0.003
sI2
F0.003
sI3
F0.003
sI4
F0.003
sI5
F0.003
sI6
F0.003
sI7
F0.003
sI8
F0.003
sI9
F0.003
sI10
F0.003
sI11
F0.003
sI12
F0.003
sI13
F0.003
sI14
F0.003
sI15
F0.003
sI16
F0.003
sI17
F0.003
sI18
F0.003
sI19
F0.003
sI20
F0.003
sI21
F0.003
sI22
F0.003
sI23
F0.003
sI24
F0.003
sI25
F0.003
sI26
F0.003
sI27
F0.003
sI28
F0.003
sI29
F0.003
sI30
F0.003
sI31
F0.003
sI32
F0.003
sI33
F0.003
sI34
F0.003
sI35
F0.003
sI36
F0.003
sI37
F0.003
sI38
F0.003
sI39
F0.003
sI40
F0.003
sI41
F0.003
sI42
F0.003
sI43
F0.003
sI44
F0.003
ssg130
(dp531
I0
F0.003
sI1
F0.003
sI2
F0.003
sI3
F0.003
sI4
F0.003
sI5
F0.003
sI6
F0.003
sI7
F0.003
sI8
F0.003
sI9
F0.003
sI10
F0.002
sI11
F0.003
sI12
F0.003
sI13
F0.003
sI14
F0.003
sI15
F0.003
sI16
F0.003
sI17
F0.003
sI18
F0.003
sI19
F0.003
sI20
F0.003
sI21
F0.003
sI22
F0.003
sI23
F0.003
sI24
F0.003
sI25
F0.003
sI26
F0.003
sI27
F0.003
sI28
F0.003
sI29
F0.003
sI30
F0.003
sI31
F0.003
sI32
F0.003
sI33
F0.003
sI34
F0.003
sI35
F0.003
sI36
F0.003
sI37
F0.003
sI38
F0.003
sI39
F0.003
sI40
F0.003
sI41
F0.003
sI42
F0.003
sI43
F0.003
sI44
F0.003
ssg132
(dp532
I0
F-2.856392
sI1
F3.019452
sI2
F5.750009
sI3
F5.238918
sI4
F6.42967
sI5
F2.867079
sI6
F4.690558
sI7
F4.468251
sI8
F2.719694
sI9
F-5.737559
sI10
F4.625053
sI11
F-3.045414
sI12
F-1.565575
sI13
F2.398985
sI14
F6.793412
sI15
F5.809421
sI16
F5.333582
sI17
F-4.387103
sI18
F4.961423
sI19
F4.6245
sI20
F5.091403
sI21
F4.927884
sI22
F3.831764
sI23
F-1.401981
sI24
F3.029795
sI25
F-3.215504
sI26
F3.569923
sI27
F4.194767
sI28
F-5.15209
sI29
F-1.97104
sI30
F1.560213
sI31
F6.141138
sI32
F4.061584
sI33
F4.806501
sI34
F6.278316
sI35
F3.79531
sI36
F-2.197895
sI37
F4.823603
sI38
F4.218332
sI39
F-5.214254
sI40
F7.058584
sI41
F-5.041152
sI42
F3.208754
sI43
F-2.235656
sI44
F5.186226
ssg134
(dp533
I0
S"KIC8462852-20180330at101731_-35-1-025-g'_cal.fts.mag.1"
p534
sI1
S"KIC8462852-20180330at110311_-35-1-025-g'_cal.fts.mag.1"
p535
sI2
S"KIC8462852-20180330at094916_-35-1-025-g'_cal.fts.mag.1"
p536
sI3
S"KIC8462852-20180330at114906_-35-1-025-g'_cal.fts.mag.1"
p537
sI4
S"KIC8462852-20180330at110218_-35-1-025-g'_cal.fts.mag.1"
p538
sI5
S"KIC8462852-20180330at110403_-35-1-025-g'_cal.fts.mag.1"
p539
sI6
S"KIC8462852-20180330at110126_-35-1-025-g'_cal.fts.mag.1"
p540
sI7
S"KIC8462852-20180330at112320_-35-1-025-g'_cal.fts.mag.1"
p541
sI8
S"KIC8462852-20180330at113447_-35-1-025-g'_cal.fts.mag.1"
p542
sI9
S"KIC8462852-20180330at095100_-35-1-025-g'_cal.fts.mag.1"
p543
sI10
S"KIC8462852-20180330at114804_-35-1-025-g'_cal.fts.mag.1"
p544
sI11
S"KIC8462852-20180330at094818_-35-1-025-g'_cal.fts.mag.1"
p545
sI12
S"KIC8462852-20180330at101547_-35-1-025-g'_cal.fts.mag.1"
p546
sI13
S"KIC8462852-20180330at103348_-35-1-025-g'_cal.fts.mag.1"
p547
sI14
S"KIC8462852-20180330at113732_-35-1-025-g'_cal.fts.mag.1"
p548
sI15
S"KIC8462852-20180330at095008_-35-1-025-g'_cal.fts.mag.1"
p549
sI16
S"KIC8462852-20180330at100419_-35-1-025-g'_cal.fts.mag.1"
p550
sI17
S"KIC8462852-20180330at110025_-35-1-025-g'_cal.fts.mag.1"
p551
sI18
S"KIC8462852-20180330at112228_-35-1-025-g'_cal.fts.mag.1"
p552
sI19
S"KIC8462852-20180330at114957_-35-1-025-g'_cal.fts.mag.1"
p553
sI20
S"KIC8462852-20180330at101639_-35-1-025-g'_cal.fts.mag.1"
p554
sI21
S"KIC8462852-20180330at101823_-35-1-025-g'_cal.fts.mag.1"
p555
sI22
S"KIC8462852-20180330at104804_-35-1-025-g'_cal.fts.mag.1"
p556
sI23
S"KIC8462852-20180330at112504_-35-1-025-g'_cal.fts.mag.1"
p557
sI24
S"KIC8462852-20180330at113639_-35-1-025-g'_cal.fts.mag.1"
p558
sI25
S"KIC8462852-20180330at100512_-35-1-025-g'_cal.fts.mag.1"
p559
sI26
S"KIC8462852-20180330at115050_-35-1-025-g'_cal.fts.mag.1"
p560
sI27
S"KIC8462852-20180330at095153_-35-1-025-g'_cal.fts.mag.1"
p561
sI28
S"KIC8462852-20180330at103538_-35-1-025-g'_cal.fts.mag.1"
p562
sI29
S"KIC8462852-20180330at103629_-35-1-025-g'_cal.fts.mag.1"
p563
sI30
S"KIC8462852-20180330at112412_-35-1-025-g'_cal.fts.mag.1"
p564
sI31
S"KIC8462852-20180330at100235_-35-1-025-g'_cal.fts.mag.1"
p565
sI32
S"KIC8462852-20180330at103445_-35-1-025-g'_cal.fts.mag.1"
p566
sI33
S"KIC8462852-20180330at112130_-35-1-025-g'_cal.fts.mag.1"
p567
sI34
S"KIC8462852-20180330at101446_-35-1-025-g'_cal.fts.mag.1"
p568
sI35
S"KIC8462852-20180330at104949_-35-1-025-g'_cal.fts.mag.1"
p569
sI36
S"KIC8462852-20180330at113824_-35-1-025-g'_cal.fts.mag.1"
p570
sI37
S"KIC8462852-20180330at104857_-35-1-025-g'_cal.fts.mag.1"
p571
sI38
S"KIC8462852-20180330at113547_-35-1-025-g'_cal.fts.mag.1"
p572
sI39
S"KIC8462852-20180330at104702_-35-1-025-g'_cal.fts.mag.1"
p573
sI40
S"KIC8462852-20180330at103721_-35-1-025-g'_cal.fts.mag.1"
p574
sI41
S"KIC8462852-20180330at100327_-35-1-025-g'_cal.fts.mag.1"
p575
sI42
S"KIC8462852-20180330at115142_-35-1-025-g'_cal.fts.mag.1"
p576
sI43
S"KIC8462852-20180330at100133_-35-1-025-g'_cal.fts.mag.1"
p577
sI44
S"KIC8462852-20180330at105041_-35-1-025-g'_cal.fts.mag.1"
p578
ssg181
(dp579
I0
F0.006413716267270528
sI1
Fnan
sI2
Fnan
sI3
Fnan
sI4
Fnan
sI5
Fnan
sI6
Fnan
sI7
Fnan
sI8
Fnan
sI9
Fnan
sI10
Fnan
sI11
Fnan
sI12
Fnan
sI13
Fnan
sI14
Fnan
sI15
Fnan
sI16
Fnan
sI17
Fnan
sI18
Fnan
sI19
Fnan
sI20
Fnan
sI21
Fnan
sI22
Fnan
sI23
Fnan
sI24
Fnan
sI25
Fnan
sI26
Fnan
sI27
Fnan
sI28
Fnan
sI29
Fnan
sI30
Fnan
sI31
Fnan
sI32
Fnan
sI33
Fnan
sI34
Fnan
sI35
Fnan
sI36
Fnan
sI37
Fnan
sI38
Fnan
sI39
Fnan
sI40
Fnan
sI41
Fnan
sI42
Fnan
sI43
Fnan
sI44
Fnan
ssg183
(dp580
I0
F6666.732
sI1
F6752.632
sI2
F6411.016
sI3
F7110.5
sI4
F6752.936
sI5
F6876.276
sI6
F6931.588000000001
sI7
F7127.4
sI8
F7073.384
sI9
F6481.911999999999
sI10
F7118.096
sI11
F6344.295999999999
sI12
F6480.08
sI13
F6693.16
sI14
F7052.604
sI15
F6443.944
sI16
F6344.396
sI17
F6900.848000000001
sI18
F7093.828
sI19
F7085.432
sI20
F6575.736
sI21
F6567.048000000001
sI22
F6581.012
sI23
F7022.004
sI24
F7055.804
sI25
F6149.668000000001
sI26
F6903.876
sI27
F6382.62
sI28
F6624.484
sI29
F6763.991999999999
sI30
F6972.448
sI31
F6576.755999999999
sI32
F6688.432
sI33
F7029.168000000001
sI34
F6406.8
sI35
F6711.848000000001
sI36
F7052.06
sI37
F6780.632
sI38
F7073.48
sI39
F6820.544
sI40
F6564.144
sI41
F6385.884
sI42
F6901.616
sI43
F6645.144
sI44
F6706.2
ssg185
(dp581
I0
F0.03980555009269205
sI1
Fnan
sI2
Fnan
sI3
Fnan
sI4
Fnan
sI5
Fnan
sI6
Fnan
sI7
Fnan
sI8
Fnan
sI9
Fnan
sI10
Fnan
sI11
Fnan
sI12
Fnan
sI13
Fnan
sI14
Fnan
sI15
Fnan
sI16
Fnan
sI17
Fnan
sI18
Fnan
sI19
Fnan
sI20
Fnan
sI21
Fnan
sI22
Fnan
sI23
Fnan
sI24
Fnan
sI25
Fnan
sI26
Fnan
sI27
Fnan
sI28
Fnan
sI29
Fnan
sI30
Fnan
sI31
Fnan
sI32
Fnan
sI33
Fnan
sI34
Fnan
sI35
Fnan
sI36
Fnan
sI37
Fnan
sI38
Fnan
sI39
Fnan
sI40
Fnan
sI41
Fnan
sI42
Fnan
sI43
Fnan
sI44
Fnan
ssg187
(dp582
I0
S"g'"
p583
sI1
S"g'"
p584
sI2
S"g'"
p585
sI3
S"g'"
p586
sI4
S"g'"
p587
sI5
S"g'"
p588
sI6
S"g'"
p589
sI7
S"g'"
p590
sI8
S"g'"
p591
sI9
S"g'"
p592
sI10
S"g'"
p593
sI11
S"g'"
p594
sI12
S"g'"
p595
sI13
S"g'"
p596
sI14
S"g'"
p597
sI15
S"g'"
p598
sI16
S"g'"
p599
sI17
S"g'"
p600
sI18
S"g'"
p601
sI19
S"g'"
p602
sI20
S"g'"
p603
sI21
S"g'"
p604
sI22
S"g'"
p605
sI23
S"g'"
p606
sI24
S"g'"
p607
sI25
S"g'"
p608
sI26
S"g'"
p609
sI27
S"g'"
p610
sI28
S"g'"
p611
sI29
S"g'"
p612
sI30
S"g'"
p613
sI31
S"g'"
p614
sI32
S"g'"
p615
sI33
S"g'"
p616
sI34
S"g'"
p617
sI35
S"g'"
p618
sI36
S"g'"
p619
sI37
S"g'"
p620
sI38
S"g'"
p621
sI39
S"g'"
p622
sI40
S"g'"
p623
sI41
S"g'"
p624
sI42
S"g'"
p625
sI43
S"g'"
p626
sI44
S"g'"
p627
ssg234
(dp628
I0
F0.04276625451512607
sI1
Fnan
sI2
Fnan
sI3
Fnan
sI4
Fnan
sI5
Fnan
sI6
Fnan
sI7
Fnan
sI8
Fnan
sI9
Fnan
sI10
Fnan
sI11
Fnan
sI12
Fnan
sI13
Fnan
sI14
Fnan
sI15
Fnan
sI16
Fnan
sI17
Fnan
sI18
Fnan
sI19
Fnan
sI20
Fnan
sI21
Fnan
sI22
Fnan
sI23
Fnan
sI24
Fnan
sI25
Fnan
sI26
Fnan
sI27
Fnan
sI28
Fnan
sI29
Fnan
sI30
Fnan
sI31
Fnan
sI32
Fnan
sI33
Fnan
sI34
Fnan
sI35
Fnan
sI36
Fnan
sI37
Fnan
sI38
Fnan
sI39
Fnan
sI40
Fnan
sI41
Fnan
sI42
Fnan
sI43
Fnan
sI44
Fnan
ssg236
(dp629
I0
F-5.739204
sI1
F-4.441616
sI2
F5.695903
sI3
F-2.93523
sI4
F1.456014
sI5
F3.531947
sI6
F-5.417514
sI7
F3.711677
sI8
F-2.733689
sI9
F3.705908
sI10
F-4.037271
sI11
F3.467803
sI12
F4.423932
sI13
F-3.98384
sI14
F6.221231
sI15
F-1.220869
sI16
F5.607476
sI17
F3.842178
sI18
F-0.7760385
sI19
F3.229638
sI20
F-4.484762
sI21
F5.626713
sI22
F5.119414
sI23
F4.03253
sI24
F5.093085
sI25
F3.164767
sI26
F6.217809
sI27
F-5.07875
sI28
F5.858432
sI29
F-4.854388
sI30
F5.618456
sI31
F4.94465
sI32
F5.243668
sI33
F3.305944
sI34
F-5.503337
sI35
F5.55498
sI36
F5.271429
sI37
F5.687865
sI38
F-5.344306
sI39
F3.370913
sI40
F4.053441
sI41
F3.253295
sI42
F-4.756787
sI43
F-4.795602
sI44
F-3.754349
ssg238
(dp630
I0
F1.51266636577011
sI1
Fnan
sI2
Fnan
sI3
Fnan
sI4
Fnan
sI5
Fnan
sI6
Fnan
sI7
Fnan
sI8
Fnan
sI9
Fnan
sI10
Fnan
sI11
Fnan
sI12
Fnan
sI13
Fnan
sI14
Fnan
sI15
Fnan
sI16
Fnan
sI17
Fnan
sI18
Fnan
sI19
Fnan
sI20
Fnan
sI21
Fnan
sI22
Fnan
sI23
Fnan
sI24
Fnan
sI25
Fnan
sI26
Fnan
sI27
Fnan
sI28
Fnan
sI29
Fnan
sI30
Fnan
sI31
Fnan
sI32
Fnan
sI33
Fnan
sI34
Fnan
sI35
Fnan
sI36
Fnan
sI37
Fnan
sI38
Fnan
sI39
Fnan
sI40
Fnan
sI41
Fnan
sI42
Fnan
sI43
Fnan
sI44
Fnan
ssg240
(dp631
I0
F2458207.950659722
sI1
Fnan
sI2
Fnan
sI3
Fnan
sI4
Fnan
sI5
Fnan
sI6
Fnan
sI7
Fnan
sI8
Fnan
sI9
Fnan
sI10
Fnan
sI11
Fnan
sI12
Fnan
sI13
Fnan
sI14
Fnan
sI15
Fnan
sI16
Fnan
sI17
Fnan
sI18
Fnan
sI19
Fnan
sI20
Fnan
sI21
Fnan
sI22
Fnan
sI23
Fnan
sI24
Fnan
sI25
Fnan
sI26
Fnan
sI27
Fnan
sI28
Fnan
sI29
Fnan
sI30
Fnan
sI31
Fnan
sI32
Fnan
sI33
Fnan
sI34
Fnan
sI35
Fnan
sI36
Fnan
sI37
Fnan
sI38
Fnan
sI39
Fnan
sI40
Fnan
sI41
Fnan
sI42
Fnan
sI43
Fnan
sI44
Fnan
ssg242
(dp632
I0
F0.004089570500017046
sI1
Fnan
sI2
Fnan
sI3
Fnan
sI4
Fnan
sI5
Fnan
sI6
Fnan
sI7
Fnan
sI8
Fnan
sI9
Fnan
sI10
Fnan
sI11
Fnan
sI12
Fnan
sI13
Fnan
sI14
Fnan
sI15
Fnan
sI16
Fnan
sI17
Fnan
sI18
Fnan
sI19
Fnan
sI20
Fnan
sI21
Fnan
sI22
Fnan
sI23
Fnan
sI24
Fnan
sI25
Fnan
sI26
Fnan
sI27
Fnan
sI28
Fnan
sI29
Fnan
sI30
Fnan
sI31
Fnan
sI32
Fnan
sI33
Fnan
sI34
Fnan
sI35
Fnan
sI36
Fnan
sI37
Fnan
sI38
Fnan
sI39
Fnan
sI40
Fnan
sI41
Fnan
sI42
Fnan
sI43
Fnan
sI44
Fnan
ssg244
(dp633
I0
F90.38666
sI1
F76.16927
sI2
F103.533
sI3
F59.08413
sI4
F75.17965
sI5
F74.40503
sI6
F74.11107
sI7
F67.10342
sI8
F63.52758
sI9
F102.934
sI10
F58.99477
sI11
F104.7533
sI12
F92.74161
sI13
F84.8662
sI14
F63.42863
sI15
F102.9004
sI16
F98.77006
sI17
F75.73331
sI18
F67.18468
sI19
F58.48423
sI20
F91.92149
sI21
F90.01645
sI22
F79.59063
sI23
F67.74878
sI24
F62.03527
sI25
F98.39221
sI26
F59.20173
sI27
F102.1976
sI28
F84.46493
sI29
F83.31034
sI30
F66.69796
sI31
F96.85619
sI32
F84.60272
sI33
F66.16753
sI34
F92.0237
sI35
F78.40328
sI36
F61.77568
sI37
F79.48095
sI38
F62.3882
sI39
F79.57906
sI40
F85.47016
sI41
F97.93961
sI42
F58.50696
sI43
F97.73916
sI44
F78.11608
ssg246
(dp634
I0
F10.989
sI1
F10.974
sI2
F11.029
sI3
F10.922
sI4
F10.972
sI5
F10.954
sI6
F10.948
sI7
F10.924
sI8
F10.928
sI9
F11.028
sI10
F10.92
sI11
F11.041
sI12
F11.016
sI13
F10.982
sI14
F10.919
sI15
F11.025
sI16
F11.044
sI17
F10.951
sI18
F10.924
sI19
F10.919
sI20
F11.003
sI21
F10.997
sI22
F11.002
sI23
F10.944
sI24
F10.921
sI25
F11.067
sI26
F10.959
sI27
F11.032
sI28
F10.986
sI29
F10.97
sI30
F10.937
sI31
F11.003
sI32
F10.974
sI33
F10.931
sI34
F11.017
sI35
F10.98
sI36
F10.926
sI37
F10.974
sI38
F10.917
sI39
F10.962
sI40
F11.002
sI41
F11.033
sI42
F10.946
sI43
F10.992
sI44
F10.985
ssg248
(dp635
I0
F0.8512118434411396
sI1
Fnan
sI2
Fnan
sI3
Fnan
sI4
Fnan
sI5
Fnan
sI6
Fnan
sI7
Fnan
sI8
Fnan
sI9
Fnan
sI10
Fnan
sI11
Fnan
sI12
Fnan
sI13
Fnan
sI14
Fnan
sI15
Fnan
sI16
Fnan
sI17
Fnan
sI18
Fnan
sI19
Fnan
sI20
Fnan
sI21
Fnan
sI22
Fnan
sI23
Fnan
sI24
Fnan
sI25
Fnan
sI26
Fnan
sI27
Fnan
sI28
Fnan
sI29
Fnan
sI30
Fnan
sI31
Fnan
sI32
Fnan
sI33
Fnan
sI34
Fnan
sI35
Fnan
sI36
Fnan
sI37
Fnan
sI38
Fnan
sI39
Fnan
sI40
Fnan
sI41
Fnan
sI42
Fnan
sI43
Fnan
sI44
Fnan
sss.