(dp0
S'i'
p1
(dp2
S'sigmean'
p3
(dp4
I0
F0.43740551718044224
sI1
Fnan
sI2
Fnan
sI3
Fnan
sI4
Fnan
sI5
Fnan
sI6
Fnan
sI7
Fnan
sI8
Fnan
sI9
Fnan
sI10
Fnan
sI11
Fnan
sI12
Fnan
sI13
Fnan
sI14
Fnan
ssS'ref3flag'
p5
(dp6
I0
S'NoError'
p7
sI1
S'NoError'
p8
sI2
S'NoError'
p9
sI3
S'NoError'
p10
sI4
S'NoError'
p11
sI5
S'NoError'
p12
sI6
S'NoError'
p13
sI7
S'NoError'
p14
sI8
S'NoError'
p15
sI9
S'NoError'
p16
sI10
S'NoError'
p17
sI11
S'NoError'
p18
sI12
S'NoError'
p19
sI13
S'NoError'
p20
sI14
S'NoError'
p21
ssS'tabbyerr'
p22
(dp23
I0
F0.004
sI1
F0.004
sI2
F0.004
sI3
F0.004
sI4
F0.004
sI5
F0.004
sI6
F0.004
sI7
F0.003
sI8
F0.003
sI9
F0.004
sI10
F0.004
sI11
F0.004
sI12
F0.004
sI13
F0.004
sI14
F0.004
ssS'ref2rel'
p24
(dp25
I0
F0.9051556363587326
sI1
F0.9148927703035941
sI2
F0.9070862680748505
sI3
F0.9088115415202898
sI4
F0.9104099025974026
sI5
F0.9123947048919845
sI6
F0.9142928565734424
sI7
F0.9073116011472283
sI8
F0.9161041140987455
sI9
F0.908427320434114
sI10
F0.9104291438397439
sI11
F0.9121571087955549
sI12
F0.9092338905580931
sI13
F0.9131922521253165
sI14
F0.9152375306330357
ssS'ref2err'
p26
(dp27
I0
F0.0033420852533893263
sI1
Fnan
sI2
Fnan
sI3
Fnan
sI4
Fnan
sI5
Fnan
sI6
Fnan
sI7
Fnan
sI8
Fnan
sI9
Fnan
sI10
Fnan
sI11
Fnan
sI12
Fnan
sI13
Fnan
sI14
Fnan
ssS'ref2mean'
p28
(dp29
I0
F0.9110091094634752
sI1
Fnan
sI2
Fnan
sI3
Fnan
sI4
Fnan
sI5
Fnan
sI6
Fnan
sI7
Fnan
sI8
Fnan
sI9
Fnan
sI10
Fnan
sI11
Fnan
sI12
Fnan
sI13
Fnan
sI14
Fnan
ssS'tabbymag'
p30
(dp31
I0
F12.152
sI1
F12.114
sI2
F12.165
sI3
F12.099
sI4
F12.126
sI5
F12.106
sI6
F12.107
sI7
F12.068
sI8
F12.082
sI9
F12.126
sI10
F12.115
sI11
F12.167
sI12
F12.125
sI13
F12.126
sI14
F12.15
ssS'tabbybkg'
p32
(dp33
I0
F27.5436
sI1
F45.35093
sI2
F41.20207
sI3
F44.72686
sI4
F45.55084
sI5
F39.53896
sI6
F40.57287
sI7
F43.79512
sI8
F44.11523
sI9
F25.41946
sI10
F39.7476
sI11
F40.19484
sI12
F26.20322
sI13
F27.23946
sI14
F27.61562
ssS'JD'
p34
(dp35
I0
F2458330.7207638887
sI1
F2458330.75630787
sI2
F2458330.7382060187
sI3
F2458330.757037037
sI4
F2458330.7592708333
sI5
F2458330.738958333
sI6
F2458330.740439815
sI7
F2458330.7585185184
sI8
F2458330.757777778
sI9
F2458330.718541667
sI10
F2458330.739699074
sI11
F2458330.737465278
sI12
F2458330.7192939813
sI13
F2458330.7214930556
sI14
F2458330.720023148
ssS'ref3rmsmean'
p36
(dp37
I0
F2.9313739999999995
sI1
Fnan
sI2
Fnan
sI3
Fnan
sI4
Fnan
sI5
Fnan
sI6
Fnan
sI7
Fnan
sI8
Fnan
sI9
Fnan
sI10
Fnan
sI11
Fnan
sI12
Fnan
sI13
Fnan
sI14
Fnan
ssS'ref1rmsmean'
p38
(dp39
I0
F3.7644797333333333
sI1
Fnan
sI2
Fnan
sI3
Fnan
sI4
Fnan
sI5
Fnan
sI6
Fnan
sI7
Fnan
sI8
Fnan
sI9
Fnan
sI10
Fnan
sI11
Fnan
sI12
Fnan
sI13
Fnan
sI14
Fnan
ssS'relflux'
p40
(dp41
I0
F0.43829982605642653
sI1
F0.4381320589138272
sI2
F0.4341649398340096
sI3
F0.43708222990313866
sI4
F0.43449824058741493
sI5
F0.43671479918392975
sI6
F0.4385140459933643
sI7
F0.44266409753849756
sI8
F0.4408738286696507
sI9
F0.44041981307895134
sI10
F0.4381297182974474
sI11
F0.4336649347715592
sI12
F0.44151482617042476
sI13
F0.4373932785434815
sI14
F0.4342747005225654
ssS'sigerr'
p42
(dp43
I0
F0.0024554874930031415
sI1
Fnan
sI2
Fnan
sI3
Fnan
sI4
Fnan
sI5
Fnan
sI6
Fnan
sI7
Fnan
sI8
Fnan
sI9
Fnan
sI10
Fnan
sI11
Fnan
sI12
Fnan
sI13
Fnan
sI14
Fnan
ssS'tabbyrmsmean'
p44
(dp45
I0
F2.094092466666667
sI1
Fnan
sI2
Fnan
sI3
Fnan
sI4
Fnan
sI5
Fnan
sI6
Fnan
sI7
Fnan
sI8
Fnan
sI9
Fnan
sI10
Fnan
sI11
Fnan
sI12
Fnan
sI13
Fnan
sI14
Fnan
ssS'tabbyflag'
p46
(dp47
I0
g7
sI1
g8
sI2
g9
sI3
g10
sI4
g11
sI5
g12
sI6
g13
sI7
g14
sI8
g15
sI9
g16
sI10
g17
sI11
g18
sI12
g19
sI13
g20
sI14
g21
ssS'ref1err'
p48
(dp49
I0
F0.0025740535982923234
sI1
Fnan
sI2
Fnan
sI3
Fnan
sI4
Fnan
sI5
Fnan
sI6
Fnan
sI7
Fnan
sI8
Fnan
sI9
Fnan
sI10
Fnan
sI11
Fnan
sI12
Fnan
sI13
Fnan
sI14
Fnan
ssS'ref2magmeanerr'
p50
(dp51
I0
F0.024593262724343104
sI1
Fnan
sI2
Fnan
sI3
Fnan
sI4
Fnan
sI5
Fnan
sI6
Fnan
sI7
Fnan
sI8
Fnan
sI9
Fnan
sI10
Fnan
sI11
Fnan
sI12
Fnan
sI13
Fnan
sI14
Fnan
ssS'ref2rmsmean'
p52
(dp53
I0
F-0.06847953333333319
sI1
Fnan
sI2
Fnan
sI3
Fnan
sI4
Fnan
sI5
Fnan
sI6
Fnan
sI7
Fnan
sI8
Fnan
sI9
Fnan
sI10
Fnan
sI11
Fnan
sI12
Fnan
sI13
Fnan
sI14
Fnan
ssS'ref3rel'
p54
(dp55
I0
F1.5153972894282957
sI1
F1.495927063508365
sI2
F1.5094081394407808
sI3
F1.4993481521938372
sI4
F1.5021371623015298
sI5
F1.5017799453996397
sI6
F1.5043376444293701
sI7
F1.5027936859633948
sI8
F1.4944497960351941
sI9
F1.509579431384856
sI10
F1.5046765319311997
sI11
F1.4960380325185638
sI12
F1.5122511254850222
sI13
F1.5058438358601094
sI14
F1.500910927821392
ssS'ref1flag'
p56
(dp57
I0
g7
sI1
g8
sI2
g9
sI3
g10
sI4
g11
sI5
g12
sI6
g13
sI7
g14
sI8
g15
sI9
g16
sI10
g17
sI11
g18
sI12
g19
sI13
g20
sI14
g21
ssS'ref2bkg'
p58
(dp59
I0
F30.64206
sI1
F47.95472
sI2
F43.82386
sI3
F46.39964
sI4
F47.28892
sI5
F40.57495
sI6
F41.95974
sI7
F46.96458
sI8
F47.14701
sI9
F27.56946
sI10
F42.12516
sI11
F43.41388
sI12
F27.97191
sI13
F29.72503
sI14
F28.90743
ssS'ref3magmean'
p60
(dp61
I0
F10.950666666666669
sI1
Fnan
sI2
Fnan
sI3
Fnan
sI4
Fnan
sI5
Fnan
sI6
Fnan
sI7
Fnan
sI8
Fnan
sI9
Fnan
sI10
Fnan
sI11
Fnan
sI12
Fnan
sI13
Fnan
sI14
Fnan
ssS'ref1mean'
p62
(dp63
I0
F0.6949889955736739
sI1
Fnan
sI2
Fnan
sI3
Fnan
sI4
Fnan
sI5
Fnan
sI6
Fnan
sI7
Fnan
sI8
Fnan
sI9
Fnan
sI10
Fnan
sI11
Fnan
sI12
Fnan
sI13
Fnan
sI14
Fnan
ssS'ref1rms'
p64
(dp65
I0
F4.93854
sI1
F5.798872
sI2
F3.929517
sI3
F3.762898
sI4
F4.0409
sI5
F5.705204
sI6
F2.05409
sI7
F4.952785
sI8
F3.082384
sI9
F-3.007155
sI10
F4.491436
sI11
F4.523261
sI12
F5.163561
sI13
F3.226609
sI14
F3.804294
ssS'ref2magmean'
p66
(dp67
I0
F11.293599999999998
sI1
Fnan
sI2
Fnan
sI3
Fnan
sI4
Fnan
sI5
Fnan
sI6
Fnan
sI7
Fnan
sI8
Fnan
sI9
Fnan
sI10
Fnan
sI11
Fnan
sI12
Fnan
sI13
Fnan
sI14
Fnan
ssS'ref2flag'
p68
(dp69
I0
g7
sI1
g8
sI2
g9
sI3
g10
sI4
g11
sI5
g12
sI6
g13
sI7
g14
sI8
g15
sI9
g16
sI10
g17
sI11
g18
sI12
g19
sI13
g20
sI14
g21
ssS'ref2'
p70
(dp71
I0
F7383.35
sI1
F7701.556666666667
sI2
F7374.266666666666
sI3
F7793.6466666666665
sI4
F7656.96
sI5
F7772.973333333333
sI6
F7741.63
sI7
F7910.3099999999995
sI8
F7888.163333333333
sI9
F7541.733333333334
sI10
F7667.423333333334
sI11
F7395.006666666667
sI12
F7532.6466666666665
sI13
F7619.723333333333
sI14
F7521.03
ssS'airmass'
p72
(dp73
I0
F1.071913
sI1
F1.0231540000000001
sI2
F1.043867
sI3
F1.022477
sI4
F1.020525
sI5
F1.04285
sI6
F1.040872
sI7
F1.021153
sI8
F1.0218129999999999
sI9
F1.076056
sI10
F1.041854
sI11
F1.044904
sI12
F1.074659
sI13
F1.070529
sI14
F1.073269
ssS'ref1'
p74
(dp75
I0
F6098.676666666666
sI1
F6336.2266666666665
sI2
F6094.39
sI3
F6463.259999999999
sI4
F6321.8566666666675
sI5
F6397.873333333334
sI6
F6341.666666666667
sI7
F6562.206666666667
sI8
F6482.78
sI9
F6218.13
sI10
F6320.15
sI11
F6111.33
sI12
F6191.806666666667
sI13
F6247.3099999999995
sI14
F6164.65
ssS'ref3'
p76
(dp77
I0
F10215.313333333334
sI1
F10499.75
sI2
F10164.85
sI3
F10688.033333333333
sI4
F10499.05
sI5
F10640.746666666668
sI6
F10593.016666666666
sI7
F10874.603333333333
sI8
F10738.326666666666
sI9
F10385.803333333333
sI10
F10523.386666666665
sI11
F10102.996666666668
sI12
F10377.41
sI13
F10440.793333333333
sI14
F10270.493333333334
ssS'ref1bkg'
p78
(dp79
I0
F29.07312
sI1
F46.4967
sI2
F42.27526
sI3
F45.00937
sI4
F47.59122
sI5
F40.52836
sI6
F42.45001
sI7
F46.24154
sI8
F46.189
sI9
F27.88505
sI10
F41.4867
sI11
F41.5563
sI12
F26.68914
sI13
F28.68211
sI14
F28.39229
ssS'ref1mag'
p80
(dp81
I0
F11.537
sI1
F11.495
sI2
F11.538
sI3
F11.474
sI4
F11.498
sI5
F11.485
sI6
F11.494
sI7
F11.457
sI8
F11.471
sI9
F11.516
sI10
F11.498
sI11
F11.535
sI12
F11.52
sI13
F11.511
sI14
F11.525
ssS'ref3magerr'
p82
(dp83
I0
F0.002
sI1
F0.002
sI2
F0.002
sI3
F0.002
sI4
F0.002
sI5
F0.002
sI6
F0.002
sI7
F0.002
sI8
F0.002
sI9
F0.002
sI10
F0.002
sI11
F0.002
sI12
F0.002
sI13
F0.002
sI14
F0.002
ssS'tabbymagmean'
p84
(dp85
I0
F0.43775608920431264
sI1
Fnan
sI2
Fnan
sI3
Fnan
sI4
Fnan
sI5
Fnan
sI6
Fnan
sI7
Fnan
sI8
Fnan
sI9
Fnan
sI10
Fnan
sI11
Fnan
sI12
Fnan
sI13
Fnan
sI14
Fnan
ssS'ref1magmean'
p86
(dp87
I0
F11.503600000000002
sI1
Fnan
sI2
Fnan
sI3
Fnan
sI4
Fnan
sI5
Fnan
sI6
Fnan
sI7
Fnan
sI8
Fnan
sI9
Fnan
sI10
Fnan
sI11
Fnan
sI12
Fnan
sI13
Fnan
sI14
Fnan
ssS'ref2mag'
p88
(dp89
I0
F11.329
sI1
F11.284
sI2
F11.331
sI3
F11.271
sI4
F11.29
sI5
F11.274
sI6
F11.278
sI7
F11.255
sI8
F11.258
sI9
F11.306
sI10
F11.288
sI11
F11.328
sI12
F11.308
sI13
F11.295
sI14
F11.309
ssS'ref3rms'
p90
(dp91
I0
F4.204627
sI1
F5.145058
sI2
F5.15739
sI3
F4.57285
sI4
F-1.814414
sI5
F3.638842
sI6
F3.896835
sI7
F4.955965
sI8
F3.877663
sI9
F3.272146
sI10
F3.697981
sI11
F-3.248527
sI12
F4.429943
sI13
F-2.310983
sI14
F4.495234
ssS'ref3magmeanerr'
p92
(dp93
I0
F0.02282438128301355
sI1
Fnan
sI2
Fnan
sI3
Fnan
sI4
Fnan
sI5
Fnan
sI6
Fnan
sI7
Fnan
sI8
Fnan
sI9
Fnan
sI10
Fnan
sI11
Fnan
sI12
Fnan
sI13
Fnan
sI14
Fnan
ssS'ref1rel'
p94
(dp95
I0
F0.6930840770293349
sI1
F0.6962386583234317
sI2
F0.6949483392835253
sI3
F0.6994234290389184
sI4
F0.6963927279910804
sI5
F0.6949028586655313
sI6
F0.6917686260293353
sI7
F0.6986677606888082
sI8
F0.6960817631233797
sI9
F0.6936959734754412
sI10
F0.6948728506317201
sI11
F0.6985174117961268
sI12
F0.6914335093300469
sI13
F0.691819632328717
sI14
F0.6929873158697109
ssS'exposure'
p96
(dp97
I0
F30.0
sI1
F30.0
sI2
F30.0
sI3
F30.0
sI4
F30.0
sI5
F30.0
sI6
F30.0
sI7
F30.0
sI8
F30.0
sI9
F30.0
sI10
F30.0
sI11
F30.0
sI12
F30.0
sI13
F30.0
sI14
F30.0
ssS'ref1magerr'
p98
(dp99
I0
F0.002
sI1
F0.003
sI2
F0.003
sI3
F0.002
sI4
F0.002
sI5
F0.002
sI6
F0.002
sI7
F0.002
sI8
F0.002
sI9
F0.002
sI10
F0.002
sI11
F0.003
sI12
F0.002
sI13
F0.002
sI14
F0.002
ssS'ref2magerr'
p100
(dp101
I0
F0.002
sI1
F0.002
sI2
F0.002
sI3
F0.002
sI4
F0.002
sI5
F0.002
sI6
F0.002
sI7
F0.002
sI8
F0.002
sI9
F0.002
sI10
F0.002
sI11
F0.002
sI12
F0.002
sI13
F0.002
sI14
F0.002
ssS'ref2rms'
p102
(dp103
I0
F-3.546125
sI1
F-5.416919
sI2
F-4.028506
sI3
F-3.099483
sI4
F2.25334
sI5
F4.73537
sI6
F-1.663597
sI7
F-2.480438
sI8
F-4.082032
sI9
F3.973693
sI10
F3.98002
sI11
F2.459334
sI12
F3.108639
sI13
F-1.426023
sI14
F4.205534
ssS'name'
p104
(dp105
I0
S"KIC8462852-20180731at051754_-25-1X1-030-i'_cal.fts.mag.1"
p106
sI1
S"KIC8462852-20180731at060903_-25-1X1-030-i'_cal.fts.mag.1"
p107
sI2
S"KIC8462852-20180731at054301_-25-1X1-030-i'_cal.fts.mag.1"
p108
sI3
S"KIC8462852-20180731at061008_-25-1X1-030-i'_cal.fts.mag.1"
p109
sI4
S"KIC8462852-20180731at061321_-25-1X1-030-i'_cal.fts.mag.1"
p110
sI5
S"KIC8462852-20180731at054406_-25-1X1-030-i'_cal.fts.mag.1"
p111
sI6
S"KIC8462852-20180731at054614_-25-1X1-030-i'_cal.fts.mag.1"
p112
sI7
S"KIC8462852-20180731at061216_-25-1X1-030-i'_cal.fts.mag.1"
p113
sI8
S"KIC8462852-20180731at061112_-25-1X1-030-i'_cal.fts.mag.1"
p114
sI9
S"KIC8462852-20180731at051441_-25-1X1-030-i'_cal.fts.mag.1"
p115
sI10
S"KIC8462852-20180731at054510_-25-1X1-030-i'_cal.fts.mag.1"
p116
sI11
S"KIC8462852-20180731at054155_-25-1X1-030-i'_cal.fts.mag.1"
p117
sI12
S"KIC8462852-20180731at051547_-25-1X1-030-i'_cal.fts.mag.1"
p118
sI13
S"KIC8462852-20180731at051857_-25-1X1-030-i'_cal.fts.mag.1"
p119
sI14
S"KIC8462852-20180731at051650_-25-1X1-030-i'_cal.fts.mag.1"
p120
ssS'ref3err'
p121
(dp122
I0
F0.0061026220639164895
sI1
Fnan
sI2
Fnan
sI3
Fnan
sI4
Fnan
sI5
Fnan
sI6
Fnan
sI7
Fnan
sI8
Fnan
sI9
Fnan
sI10
Fnan
sI11
Fnan
sI12
Fnan
sI13
Fnan
sI14
Fnan
ssS'tabby'
p123
(dp124
I0
F3462.18
sI1
F3583.56
sI2
F3420.2799999999997
sI3
F3634.33
sI4
F3545.1966666666663
sI5
F3611.8633333333332
sI6
F3606.9700000000003
sI7
F3740.086666666667
sI8
F3690.0066666666667
sI9
F3544.7433333333333
sI10
F3579.6600000000003
sI11
F3412.8466666666664
sI12
F3547.11
sI13
F3544.0266666666666
sI14
F3467.8533333333335
ssS'ref1magmeanerr'
p125
(dp126
I0
F0.02522130618572893
sI1
Fnan
sI2
Fnan
sI3
Fnan
sI4
Fnan
sI5
Fnan
sI6
Fnan
sI7
Fnan
sI8
Fnan
sI9
Fnan
sI10
Fnan
sI11
Fnan
sI12
Fnan
sI13
Fnan
sI14
Fnan
ssS'filter'
p127
(dp128
I0
S"i'"
p129
sI1
S"i'"
p130
sI2
S"i'"
p131
sI3
S"i'"
p132
sI4
S"i'"
p133
sI5
S"i'"
p134
sI6
S"i'"
p135
sI7
S"i'"
p136
sI8
S"i'"
p137
sI9
S"i'"
p138
sI10
S"i'"
p139
sI11
S"i'"
p140
sI12
S"i'"
p141
sI13
S"i'"
p142
sI14
S"i'"
p143
ssS'tabbymagerr'
p144
(dp145
I0
F0.0028058741930284763
sI1
Fnan
sI2
Fnan
sI3
Fnan
sI4
Fnan
sI5
Fnan
sI6
Fnan
sI7
Fnan
sI8
Fnan
sI9
Fnan
sI10
Fnan
sI11
Fnan
sI12
Fnan
sI13
Fnan
sI14
Fnan
ssS'tabbyrms'
p146
(dp147
I0
F2.375802
sI1
F-3.200596
sI2
F2.609022
sI3
F-1.885045
sI4
F4.570396
sI5
F3.617059
sI6
F3.580077
sI7
F2.308395
sI8
F4.070863
sI9
F4.699086
sI10
F-2.481013
sI11
F2.905496
sI12
F3.172637
sI13
F3.819395
sI14
F1.249813
ssS'ref3mean'
p148
(dp149
I0
F1.50365858424677
sI1
Fnan
sI2
Fnan
sI3
Fnan
sI4
Fnan
sI5
Fnan
sI6
Fnan
sI7
Fnan
sI8
Fnan
sI9
Fnan
sI10
Fnan
sI11
Fnan
sI12
Fnan
sI13
Fnan
sI14
Fnan
ssS'median_JD'
p150
(dp151
I0
F2458330.738958333
sI1
Fnan
sI2
Fnan
sI3
Fnan
sI4
Fnan
sI5
Fnan
sI6
Fnan
sI7
Fnan
sI8
Fnan
sI9
Fnan
sI10
Fnan
sI11
Fnan
sI12
Fnan
sI13
Fnan
sI14
Fnan
ssS'error'
p152
(dp153
I0
F0.0028058741930284763
sI1
Fnan
sI2
Fnan
sI3
Fnan
sI4
Fnan
sI5
Fnan
sI6
Fnan
sI7
Fnan
sI8
Fnan
sI9
Fnan
sI10
Fnan
sI11
Fnan
sI12
Fnan
sI13
Fnan
sI14
Fnan
ssS'ref3bkg'
p154
(dp155
I0
F32.63619
sI1
F49.45893
sI2
F44.75055
sI3
F48.2883
sI4
F51.42156
sI5
F42.69241
sI6
F44.03935
sI7
F47.06385
sI8
F48.85133
sI9
F28.75829
sI10
F42.87693
sI11
F45.87815
sI12
F30.00012
sI13
F30.69795
sI14
F31.51649
ssS'ref3mag'
p156
(dp157
I0
F10.977
sI1
F10.947
sI2
F10.982
sI3
F10.928
sI4
F10.947
sI5
F10.933
sI6
F10.937
sI7
F10.909
sI8
F10.923
sI9
F10.959
sI10
F10.945
sI11
F10.989
sI12
F10.96
sI13
F10.953
sI14
F10.971
ssS'mean'
p158
(dp159
I0
F0.43775608920431264
sI1
Fnan
sI2
Fnan
sI3
Fnan
sI4
Fnan
sI5
Fnan
sI6
Fnan
sI7
Fnan
sI8
Fnan
sI9
Fnan
sI10
Fnan
sI11
Fnan
sI12
Fnan
sI13
Fnan
sI14
Fnan
sssS'r'
p160
(dp161
g3
(dp162
I0
F0.5467391084194441
sI1
Fnan
sI2
Fnan
sI3
Fnan
sI4
Fnan
sI5
Fnan
sI6
Fnan
sI7
Fnan
sI8
Fnan
sI9
Fnan
sI10
Fnan
sI11
Fnan
sI12
Fnan
sI13
Fnan
sI14
Fnan
ssg5
(dp163
I0
S'NoError'
p164
sI1
S'NoError'
p165
sI2
S'NoError'
p166
sI3
S'NoError'
p167
sI4
S'NoError'
p168
sI5
S'NoError'
p169
sI6
S'NoError'
p170
sI7
S'NoError'
p171
sI8
S'NoError'
p172
sI9
S'NoError'
p173
sI10
S'NoError'
p174
sI11
S'NoError'
p175
sI12
S'NoError'
p176
sI13
S'NoError'
p177
sI14
S'NoError'
p178
ssg22
(dp179
I0
F0.003
sI1
F0.003
sI2
F0.003
sI3
F0.003
sI4
F0.003
sI5
F0.003
sI6
F0.003
sI7
F0.003
sI8
F0.003
sI9
F0.003
sI10
F0.003
sI11
F0.003
sI12
F0.003
sI13
F0.003
sI14
F0.003
ssg24
(dp180
I0
F0.892639728418026
sI1
F0.892152568290387
sI2
F0.899408179841962
sI3
F0.8940974265002962
sI4
F0.8968141634876718
sI5
F0.8967233335721854
sI6
F0.8981333651781405
sI7
F0.8996623678201195
sI8
F0.8912458274851249
sI9
F0.8927910213954995
sI10
F0.8967079563559597
sI11
F0.8955224698949378
sI12
F0.8964811379938118
sI13
F0.9015622907559275
sI14
F0.8955912248242076
ssg26
(dp181
I0
F0.002993229997291784
sI1
Fnan
sI2
Fnan
sI3
Fnan
sI4
Fnan
sI5
Fnan
sI6
Fnan
sI7
Fnan
sI8
Fnan
sI9
Fnan
sI10
Fnan
sI11
Fnan
sI12
Fnan
sI13
Fnan
sI14
Fnan
ssg28
(dp182
I0
F0.8959688707876172
sI1
Fnan
sI2
Fnan
sI3
Fnan
sI4
Fnan
sI5
Fnan
sI6
Fnan
sI7
Fnan
sI8
Fnan
sI9
Fnan
sI10
Fnan
sI11
Fnan
sI12
Fnan
sI13
Fnan
sI14
Fnan
ssg30
(dp183
I0
F11.577
sI1
F11.573
sI2
F11.554
sI3
F11.519
sI4
F11.554
sI5
F11.56
sI6
F11.544
sI7
F11.569
sI8
F11.546
sI9
F11.575
sI10
F11.547
sI11
F11.542
sI12
F11.562
sI13
F11.58
sI14
F11.54
ssg32
(dp184
I0
F62.03455
sI1
F63.89537
sI2
F31.93614
sI3
F81.46832
sI4
F57.93027
sI5
F81.51388
sI6
F61.39496
sI7
F34.93233
sI8
F30.54943
sI9
F37.03432
sI10
F80.22396
sI11
F64.01556
sI12
F33.26785
sI13
F84.93005
sI14
F79.42968
ssg34
(dp185
I0
F2458330.7344791666
sI1
F2458330.7359722224
sI2
F2458330.7155787037
sI3
F2458330.7555439817
sI4
F2458330.733738426
sI5
F2458330.754074074
sI6
F2458330.7352314815
sI7
F2458330.717048611
sI8
F2458330.7148379628
sI9
F2458330.717777778
sI10
F2458330.7533217594
sI11
F2458330.736701389
sI12
F2458330.7163078706
sI13
F2458330.7548032408
sI14
F2458330.7525925925
ssg36
(dp186
I0
F2.801975066666666
sI1
Fnan
sI2
Fnan
sI3
Fnan
sI4
Fnan
sI5
Fnan
sI6
Fnan
sI7
Fnan
sI8
Fnan
sI9
Fnan
sI10
Fnan
sI11
Fnan
sI12
Fnan
sI13
Fnan
sI14
Fnan
ssg38
(dp187
I0
F3.508202133333333
sI1
Fnan
sI2
Fnan
sI3
Fnan
sI4
Fnan
sI5
Fnan
sI6
Fnan
sI7
Fnan
sI8
Fnan
sI9
Fnan
sI10
Fnan
sI11
Fnan
sI12
Fnan
sI13
Fnan
sI14
Fnan
ssg40
(dp188
I0
F0.5460246193907506
sI1
F0.5424550668934867
sI2
F0.5467482678142377
sI3
F0.5467630290207812
sI4
F0.5493805078716228
sI5
F0.5471412273657191
sI6
F0.5478603872962706
sI7
F0.5456118169558956
sI8
F0.548620969040287
sI9
F0.5435882079027008
sI10
F0.5480166714819364
sI11
F0.5445907377654267
sI12
F0.5475087849945313
sI13
F0.5453961339898483
sI14
F0.546586655917643
ssg42
(dp189
I0
F0.0011331809957013188
sI1
Fnan
sI2
Fnan
sI3
Fnan
sI4
Fnan
sI5
Fnan
sI6
Fnan
sI7
Fnan
sI8
Fnan
sI9
Fnan
sI10
Fnan
sI11
Fnan
sI12
Fnan
sI13
Fnan
sI14
Fnan
ssg44
(dp190
I0
F0.87969506
sI1
Fnan
sI2
Fnan
sI3
Fnan
sI4
Fnan
sI5
Fnan
sI6
Fnan
sI7
Fnan
sI8
Fnan
sI9
Fnan
sI10
Fnan
sI11
Fnan
sI12
Fnan
sI13
Fnan
sI14
Fnan
ssg46
(dp191
I0
g164
sI1
g165
sI2
g166
sI3
g167
sI4
g168
sI5
g169
sI6
g170
sI7
g171
sI8
g172
sI9
g173
sI10
g174
sI11
g175
sI12
g176
sI13
g177
sI14
g178
ssg48
(dp192
I0
F0.0016792397305060338
sI1
Fnan
sI2
Fnan
sI3
Fnan
sI4
Fnan
sI5
Fnan
sI6
Fnan
sI7
Fnan
sI8
Fnan
sI9
Fnan
sI10
Fnan
sI11
Fnan
sI12
Fnan
sI13
Fnan
sI14
Fnan
ssg50
(dp193
I0
F0.015469786220704072
sI1
Fnan
sI2
Fnan
sI3
Fnan
sI4
Fnan
sI5
Fnan
sI6
Fnan
sI7
Fnan
sI8
Fnan
sI9
Fnan
sI10
Fnan
sI11
Fnan
sI12
Fnan
sI13
Fnan
sI14
Fnan
ssg52
(dp194
I0
F1.1326434
sI1
Fnan
sI2
Fnan
sI3
Fnan
sI4
Fnan
sI5
Fnan
sI6
Fnan
sI7
Fnan
sI8
Fnan
sI9
Fnan
sI10
Fnan
sI11
Fnan
sI12
Fnan
sI13
Fnan
sI14
Fnan
ssg54
(dp195
I0
F1.505011116620229
sI1
F1.5055123077297612
sI2
F1.4952132892377452
sI3
F1.5012384316149414
sI4
F1.4950002504759932
sI5
F1.498443789358222
sI6
F1.4962610129875422
sI7
F1.494125536115948
sI8
F1.5045379067477374
sI9
F1.5046158265693927
sI10
F1.4896771308759085
sI11
F1.5002243062900649
sI12
F1.4990546462334062
sI13
F1.4957878645475091
sI14
F1.498662548314329
ssg56
(dp196
I0
g164
sI1
g165
sI2
g166
sI3
g167
sI4
g168
sI5
g169
sI6
g170
sI7
g171
sI8
g172
sI9
g173
sI10
g174
sI11
g175
sI12
g176
sI13
g177
sI14
g178
ssg58
(dp197
I0
F64.68394
sI1
F66.01363
sI2
F33.56185
sI3
F83.34688
sI4
F61.76289
sI5
F84.39388
sI6
F64.38652
sI7
F38.07151
sI8
F32.51776
sI9
F39.54042
sI10
F83.58524
sI11
F65.04681
sI12
F35.46057
sI13
F85.68273
sI14
F83.14434
ssg60
(dp198
I0
F10.627399999999998
sI1
Fnan
sI2
Fnan
sI3
Fnan
sI4
Fnan
sI5
Fnan
sI6
Fnan
sI7
Fnan
sI8
Fnan
sI9
Fnan
sI10
Fnan
sI11
Fnan
sI12
Fnan
sI13
Fnan
sI14
Fnan
ssg62
(dp199
I0
F0.7108599881918309
sI1
Fnan
sI2
Fnan
sI3
Fnan
sI4
Fnan
sI5
Fnan
sI6
Fnan
sI7
Fnan
sI8
Fnan
sI9
Fnan
sI10
Fnan
sI11
Fnan
sI12
Fnan
sI13
Fnan
sI14
Fnan
ssg64
(dp200
I0
F4.266221
sI1
F6.370344
sI2
F3.368508
sI3
F4.596709
sI4
F2.492417
sI5
F3.491946
sI6
F2.553258
sI7
F4.238301
sI8
F-2.216527
sI9
F2.66318
sI10
F4.156047
sI11
F4.505241
sI12
F2.205686
sI13
F4.905361
sI14
F5.02634
ssg66
(dp201
I0
F10.9808
sI1
Fnan
sI2
Fnan
sI3
Fnan
sI4
Fnan
sI5
Fnan
sI6
Fnan
sI7
Fnan
sI8
Fnan
sI9
Fnan
sI10
Fnan
sI11
Fnan
sI12
Fnan
sI13
Fnan
sI14
Fnan
ssg68
(dp202
I0
g164
sI1
g165
sI2
g166
sI3
g167
sI4
g168
sI5
g169
sI6
g170
sI7
g171
sI8
g172
sI9
g173
sI10
g174
sI11
g175
sI12
g176
sI13
g177
sI14
g178
ssg70
(dp203
I0
F9965.623333333333
sI1
F10068.176666666666
sI2
F10216.653333333332
sI3
F10511.566666666668
sI4
F10151.513333333334
sI5
F10136.623333333333
sI6
F10278.59
sI7
F10098.92
sI8
F10198.916666666666
sI9
F10027.859999999999
sI10
F10239.55
sI11
F10344.123333333333
sI12
F10107.866666666667
sI13
F10019.886666666665
sI14
F10328.026666666667
ssg72
(dp204
I0
F1.049161
sI1
F1.047016
sI2
F1.08188
sI3
F1.023857
sI4
F1.050263
sI5
F1.0252780000000001
sI6
F1.048078
sI7
F1.078973
sI8
F1.083348
sI9
F1.077517
sI10
F1.025996
sI11
F1.045966
sI12
F1.080415
sI13
F1.0245600000000001
sI14
F1.02675
ssg74
(dp205
I0
F8461.74
sI1
F8553.183333333332
sI2
F8629.273333333334
sI3
F8924.306666666667
sI4
F8612.76
sI5
F8582.993333333334
sI6
F8694.463333333333
sI7
F8532.0
sI8
F8682.77
sI9
F8514.503333333334
sI10
F8717.873333333333
sI11
F8766.65
sI12
F8558.866666666667
sI13
F8429.583333333334
sI14
F8760.513333333334
ssg76
(dp206
I0
F13866.693333333333
sI1
F14017.343333333332
sI2
F14089.34
sI3
F14588.94
sI4
F14026.296666666667
sI5
F14025.146666666667
sI6
F14194.32
sI7
F13918.466666666667
sI8
F14204.106666666667
sI9
F13949.566666666668
sI10
F14120.22
sI11
F14335.223333333333
sI12
F13991.226666666666
sI13
F13798.246666666668
sI14
F14303.640000000001
ssg78
(dp207
I0
F63.97217
sI1
F64.78429
sI2
F33.32777
sI3
F81.90866
sI4
F61.14301
sI5
F83.99529
sI6
F63.01472
sI7
F35.16405
sI8
F31.82744
sI9
F37.71148
sI10
F83.65686
sI11
F64.7552
sI12
F35.07333
sI13
F85.73591
sI14
F81.1816
ssg80
(dp208
I0
F11.181
sI1
F11.17
sI2
F11.16
sI3
F11.124
sI4
F11.162
sI5
F11.166
sI6
F11.152
sI7
F11.172
sI8
F11.153
sI9
F11.175
sI10
F11.149
sI11
F11.143
sI12
F11.169
sI13
F11.185
sI14
F11.144
ssg82
(dp209
I0
F0.002
sI1
F0.002
sI2
F0.002
sI3
F0.002
sI4
F0.002
sI5
F0.002
sI6
F0.002
sI7
F0.002
sI8
F0.002
sI9
F0.002
sI10
F0.002
sI11
F0.002
sI12
F0.002
sI13
F0.002
sI14
F0.002
ssg84
(dp210
I0
F0.5464195389134091
sI1
Fnan
sI2
Fnan
sI3
Fnan
sI4
Fnan
sI5
Fnan
sI6
Fnan
sI7
Fnan
sI8
Fnan
sI9
Fnan
sI10
Fnan
sI11
Fnan
sI12
Fnan
sI13
Fnan
sI14
Fnan
ssg86
(dp211
I0
F11.160333333333336
sI1
Fnan
sI2
Fnan
sI3
Fnan
sI4
Fnan
sI5
Fnan
sI6
Fnan
sI7
Fnan
sI8
Fnan
sI9
Fnan
sI10
Fnan
sI11
Fnan
sI12
Fnan
sI13
Fnan
sI14
Fnan
ssg88
(dp212
I0
F11.004
sI1
F10.993
sI2
F10.977
sI3
F10.946
sI4
F10.984
sI5
F10.985
sI6
F10.97
sI7
F10.989
sI8
F10.979
sI9
F10.997
sI10
F10.974
sI11
F10.963
sI12
F10.988
sI13
F10.998
sI14
F10.965
ssg90
(dp213
I0
F5.777802
sI1
F4.717147
sI2
F3.871104
sI3
F6.732471
sI4
F3.072026
sI5
F5.825818
sI6
F4.758852
sI7
F-3.909402
sI8
F2.708845
sI9
F2.102543
sI10
F4.012911
sI11
F5.583871
sI12
F-3.190764
sI13
F3.817913
sI14
F-3.851511
ssg92
(dp214
I0
F0.015651563135080968
sI1
Fnan
sI2
Fnan
sI3
Fnan
sI4
Fnan
sI5
Fnan
sI6
Fnan
sI7
Fnan
sI8
Fnan
sI9
Fnan
sI10
Fnan
sI11
Fnan
sI12
Fnan
sI13
Fnan
sI14
Fnan
ssg94
(dp215
I0
F0.7101063751670526
sI1
F0.7102344755964026
sI2
F0.7100531309287504
sI3
F0.711085778879364
sI4
F0.7124516240304642
sI5
F0.7104606436807679
sI6
F0.7105377605959678
sI7
F0.710485292876716
sI8
F0.7116142849513046
sI9
F0.7102099363456852
sI10
F0.7157599052317271
sI11
F0.710444252711174
sI12
F0.7103061138676311
sI13
F0.707829049015876
sI14
F0.7113211989985792
ssg96
(dp216
I0
F30.0
sI1
F30.0
sI2
F30.0
sI3
F30.0
sI4
F30.0
sI5
F30.0
sI6
F30.0
sI7
F30.0
sI8
F30.0
sI9
F30.0
sI10
F30.0
sI11
F30.0
sI12
F30.0
sI13
F30.0
sI14
F30.0
ssg98
(dp217
I0
F0.002
sI1
F0.002
sI2
F0.002
sI3
F0.002
sI4
F0.002
sI5
F0.002
sI6
F0.002
sI7
F0.002
sI8
F0.002
sI9
F0.002
sI10
F0.002
sI11
F0.002
sI12
F0.002
sI13
F0.002
sI14
F0.002
ssg100
(dp218
I0
F0.002
sI1
F0.002
sI2
F0.002
sI3
F0.002
sI4
F0.002
sI5
F0.002
sI6
F0.002
sI7
F0.002
sI8
F0.002
sI9
F0.002
sI10
F0.002
sI11
F0.002
sI12
F0.002
sI13
F0.002
sI14
F0.002
ssg102
(dp219
I0
F-1.007174
sI1
F1.964545
sI2
F3.865767
sI3
F3.150444
sI4
F1.634823
sI5
F3.980292
sI6
F4.659064
sI7
F-4.052884
sI8
F-3.63748
sI9
F-3.184131
sI10
F4.153567
sI11
F3.69689
sI12
F2.982849
sI13
F-4.642838
sI14
F3.425917
ssg104
(dp220
I0
S"KIC8462852-20180731at053739_-25-1X1-030-r'_cal.fts.mag.1"
p221
sI1
S"KIC8462852-20180731at053948_-25-1X1-030-r'_cal.fts.mag.1"
p222
sI2
S"KIC8462852-20180731at051026_-25-1X1-030-r'_cal.fts.mag.1"
p223
sI3
S"KIC8462852-20180731at060759_-25-1X1-030-r'_cal.fts.mag.1"
p224
sI4
S"KIC8462852-20180731at053634_-25-1X1-030-r'_cal.fts.mag.1"
p225
sI5
S"KIC8462852-20180731at060552_-25-1X1-030-r'_cal.fts.mag.1"
p226
sI6
S"KIC8462852-20180731at053844_-25-1X1-030-r'_cal.fts.mag.1"
p227
sI7
S"KIC8462852-20180731at051233_-25-1X1-030-r'_cal.fts.mag.1"
p228
sI8
S"KIC8462852-20180731at050921_-25-1X1-030-r'_cal.fts.mag.1"
p229
sI9
S"KIC8462852-20180731at051336_-25-1X1-030-r'_cal.fts.mag.1"
p230
sI10
S"KIC8462852-20180731at060447_-25-1X1-030-r'_cal.fts.mag.1"
p231
sI11
S"KIC8462852-20180731at054051_-25-1X1-030-r'_cal.fts.mag.1"
p232
sI12
S"KIC8462852-20180731at051129_-25-1X1-030-r'_cal.fts.mag.1"
p233
sI13
S"KIC8462852-20180731at060655_-25-1X1-030-r'_cal.fts.mag.1"
p234
sI14
S"KIC8462852-20180731at060342_-25-1X1-030-r'_cal.fts.mag.1"
p235
ssg121
(dp236
I0
F0.0046777638649776665
sI1
Fnan
sI2
Fnan
sI3
Fnan
sI4
Fnan
sI5
Fnan
sI6
Fnan
sI7
Fnan
sI8
Fnan
sI9
Fnan
sI10
Fnan
sI11
Fnan
sI12
Fnan
sI13
Fnan
sI14
Fnan
ssg123
(dp237
I0
F5877.783333333334
sI1
F5901.676666666666
sI2
F6002.433333333333
sI3
F6201.17
sI4
F6004.833333333333
sI5
F5972.003333333333
sI6
F6057.03
sI7
F5919.776666666667
sI8
F6050.52
sI9
F5887.41
sI10
F6042.366666666667
sI11
F6071.46
sI12
F5960.173333333334
sI13
F5862.593333333333
sI14
F6083.906666666667
ssg125
(dp238
I0
F0.016321181096383683
sI1
Fnan
sI2
Fnan
sI3
Fnan
sI4
Fnan
sI5
Fnan
sI6
Fnan
sI7
Fnan
sI8
Fnan
sI9
Fnan
sI10
Fnan
sI11
Fnan
sI12
Fnan
sI13
Fnan
sI14
Fnan
ssg127
(dp239
I0
S"r'"
p240
sI1
S"r'"
p241
sI2
S"r'"
p242
sI3
S"r'"
p243
sI4
S"r'"
p244
sI5
S"r'"
p245
sI6
S"r'"
p246
sI7
S"r'"
p247
sI8
S"r'"
p248
sI9
S"r'"
p249
sI10
S"r'"
p250
sI11
S"r'"
p251
sI12
S"r'"
p252
sI13
S"r'"
p253
sI14
S"r'"
p254
ssg144
(dp255
I0
F0.0018734135558791344
sI1
Fnan
sI2
Fnan
sI3
Fnan
sI4
Fnan
sI5
Fnan
sI6
Fnan
sI7
Fnan
sI8
Fnan
sI9
Fnan
sI10
Fnan
sI11
Fnan
sI12
Fnan
sI13
Fnan
sI14
Fnan
ssg146
(dp256
I0
F-5.4972
sI1
F-2.84972
sI2
F-3.026846
sI3
F2.951902
sI4
F2.520911
sI5
F-2.227743
sI6
F4.291556
sI7
F-0.6218151
sI8
F4.36482
sI9
F3.800026
sI10
F3.187059
sI11
F2.404052
sI12
F4.445858
sI13
F-4.138629
sI14
F3.591195
ssg148
(dp257
I0
F1.4988910642479152
sI1
Fnan
sI2
Fnan
sI3
Fnan
sI4
Fnan
sI5
Fnan
sI6
Fnan
sI7
Fnan
sI8
Fnan
sI9
Fnan
sI10
Fnan
sI11
Fnan
sI12
Fnan
sI13
Fnan
sI14
Fnan
ssg150
(dp258
I0
F2458330.7352314815
sI1
Fnan
sI2
Fnan
sI3
Fnan
sI4
Fnan
sI5
Fnan
sI6
Fnan
sI7
Fnan
sI8
Fnan
sI9
Fnan
sI10
Fnan
sI11
Fnan
sI12
Fnan
sI13
Fnan
sI14
Fnan
ssg152
(dp259
I0
F0.0018734135558791344
sI1
Fnan
sI2
Fnan
sI3
Fnan
sI4
Fnan
sI5
Fnan
sI6
Fnan
sI7
Fnan
sI8
Fnan
sI9
Fnan
sI10
Fnan
sI11
Fnan
sI12
Fnan
sI13
Fnan
sI14
Fnan
ssg154
(dp260
I0
F67.93446
sI1
F69.20135
sI2
F35.48951
sI3
F84.81171
sI4
F64.63977
sI5
F88.02195
sI6
F67.18184
sI7
F39.24461
sI8
F33.87019
sI9
F40.65553
sI10
F86.66225
sI11
F67.97565
sI12
F37.63812
sI13
F88.88702
sI14
F86.21999
ssg156
(dp261
I0
F10.645
sI1
F10.633
sI2
F10.628
sI3
F10.59
sI4
F10.633
sI5
F10.633
sI6
F10.62
sI7
F10.641
sI8
F10.619
sI9
F10.639
sI10
F10.625
sI11
F10.609
sI12
F10.635
sI13
F10.65
sI14
F10.611
ssg158
(dp262
I0
F0.5464195389134091
sI1
Fnan
sI2
Fnan
sI3
Fnan
sI4
Fnan
sI5
Fnan
sI6
Fnan
sI7
Fnan
sI8
Fnan
sI9
Fnan
sI10
Fnan
sI11
Fnan
sI12
Fnan
sI13
Fnan
sI14
Fnan
sssS'z'
p263
(dp264
g3
(dp265
I0
F0.37073622869275447
sI1
Fnan
sI2
Fnan
sI3
Fnan
sI4
Fnan
sI5
Fnan
sI6
Fnan
sI7
Fnan
sI8
Fnan
sI9
Fnan
sI10
Fnan
sI11
Fnan
sI12
Fnan
sI13
Fnan
sI14
Fnan
ssg5
(dp266
I0
S'NoError'
p267
sI1
S'NoError'
p268
sI2
S'NoError'
p269
sI3
S'NoError'
p270
sI4
S'NoError'
p271
sI5
S'NoError'
p272
sI6
S'NoError'
p273
sI7
S'NoError'
p274
sI8
S'NoError'
p275
sI9
S'NoError'
p276
sI10
S'NoError'
p277
sI11
S'NoError'
p278
sI12
S'NoError'
p279
sI13
S'NoError'
p280
sI14
S'NoError'
p281
ssg22
(dp282
I0
F0.008
sI1
F0.008
sI2
F0.008
sI3
F0.009
sI4
F0.008
sI5
F0.008
sI6
F0.009
sI7
F0.008
sI8
F0.008
sI9
F0.008
sI10
F0.008
sI11
F0.008
sI12
F0.008
sI13
F0.008
sI14
F0.008
ssg24
(dp283
I0
F0.9122883156338315
sI1
F0.9149531010139373
sI2
F0.9131034557869682
sI3
F0.9110305798135985
sI4
F0.9181933375484281
sI5
F0.9146431315667738
sI6
F0.9135449914883796
sI7
F0.9155580937864076
sI8
F0.9179767539670595
sI9
F0.912263689140488
sI10
F0.9093218777045
sI11
F0.9055633167120483
sI12
F0.9106188141893298
sI13
F0.91520015503412
sI14
F0.9179940224822707
ssg26
(dp284
I0
F0.003492934654481744
sI1
Fnan
sI2
Fnan
sI3
Fnan
sI4
Fnan
sI5
Fnan
sI6
Fnan
sI7
Fnan
sI8
Fnan
sI9
Fnan
sI10
Fnan
sI11
Fnan
sI12
Fnan
sI13
Fnan
sI14
Fnan
ssg28
(dp285
I0
F0.9134835757245426
sI1
Fnan
sI2
Fnan
sI3
Fnan
sI4
Fnan
sI5
Fnan
sI6
Fnan
sI7
Fnan
sI8
Fnan
sI9
Fnan
sI10
Fnan
sI11
Fnan
sI12
Fnan
sI13
Fnan
sI14
Fnan
ssg30
(dp286
I0
F13.431
sI1
F13.47
sI2
F13.444
sI3
F13.523
sI4
F13.433
sI5
F13.433
sI6
F13.456
sI7
F13.42
sI8
F13.428
sI9
F13.384
sI10
F13.409
sI11
F13.418
sI12
F13.453
sI13
F13.437
sI14
F13.435
ssg32
(dp287
I0
F16.74052
sI1
F12.80514
sI2
F12.28236
sI3
F17.75311
sI4
F12.33621
sI5
F11.86742
sI6
F17.56604
sI7
F16.46238
sI8
F15.40656
sI9
F14.04361
sI10
F14.48412
sI11
F16.76651
sI12
F16.2352
sI13
F11.54399
sI14
F15.29177
ssg34
(dp288
I0
F2458330.7607523147
sI1
F2458330.722997685
sI2
F2458330.723726852
sI3
F2458330.7614930556
sI4
F2458330.7222685185
sI5
F2458330.725208333
sI6
F2458330.762974537
sI7
F2458330.7441435186
sI8
F2458330.7600115743
sI9
F2458330.7426620373
sI10
F2458330.7419328704
sI11
F2458330.7434027777
sI12
F2458330.762233796
sI13
F2458330.724467593
sI14
F2458330.741203704
ssg36
(dp289
I0
F1.37410636
sI1
Fnan
sI2
Fnan
sI3
Fnan
sI4
Fnan
sI5
Fnan
sI6
Fnan
sI7
Fnan
sI8
Fnan
sI9
Fnan
sI10
Fnan
sI11
Fnan
sI12
Fnan
sI13
Fnan
sI14
Fnan
ssg38
(dp290
I0
F1.6162448666666667
sI1
Fnan
sI2
Fnan
sI3
Fnan
sI4
Fnan
sI5
Fnan
sI6
Fnan
sI7
Fnan
sI8
Fnan
sI9
Fnan
sI10
Fnan
sI11
Fnan
sI12
Fnan
sI13
Fnan
sI14
Fnan
ssg40
(dp291
I0
F0.3697040650175792
sI1
F0.3617744672404929
sI2
F0.3690576333159485
sI3
F0.3742230143019385
sI4
F0.37094896796126064
sI5
F0.3719542823969509
sI6
F0.36997992808286895
sI7
F0.369353717899357
sI8
F0.3707743520938343
sI9
F0.37650188089205716
sI10
F0.36858318882230784
sI11
F0.3643683784493684
sI12
F0.3704555510284666
sI13
F0.3730638146997871
sI14
F0.3767557493192826
ssg42
(dp292
I0
F0.001656568972129674
sI1
Fnan
sI2
Fnan
sI3
Fnan
sI4
Fnan
sI5
Fnan
sI6
Fnan
sI7
Fnan
sI8
Fnan
sI9
Fnan
sI10
Fnan
sI11
Fnan
sI12
Fnan
sI13
Fnan
sI14
Fnan
ssg44
(dp293
I0
F1.5429139333333333
sI1
Fnan
sI2
Fnan
sI3
Fnan
sI4
Fnan
sI5
Fnan
sI6
Fnan
sI7
Fnan
sI8
Fnan
sI9
Fnan
sI10
Fnan
sI11
Fnan
sI12
Fnan
sI13
Fnan
sI14
Fnan
ssg46
(dp294
I0
g267
sI1
g268
sI2
g269
sI3
g270
sI4
g271
sI5
g272
sI6
g273
sI7
g274
sI8
g275
sI9
g276
sI10
g277
sI11
g278
sI12
g279
sI13
g280
sI14
g281
ssg48
(dp295
I0
F0.002848813246242443
sI1
Fnan
sI2
Fnan
sI3
Fnan
sI4
Fnan
sI5
Fnan
sI6
Fnan
sI7
Fnan
sI8
Fnan
sI9
Fnan
sI10
Fnan
sI11
Fnan
sI12
Fnan
sI13
Fnan
sI14
Fnan
ssg50
(dp296
I0
F0.03201264631063037
sI1
Fnan
sI2
Fnan
sI3
Fnan
sI4
Fnan
sI5
Fnan
sI6
Fnan
sI7
Fnan
sI8
Fnan
sI9
Fnan
sI10
Fnan
sI11
Fnan
sI12
Fnan
sI13
Fnan
sI14
Fnan
ssg52
(dp297
I0
F0.5616976000000001
sI1
Fnan
sI2
Fnan
sI3
Fnan
sI4
Fnan
sI5
Fnan
sI6
Fnan
sI7
Fnan
sI8
Fnan
sI9
Fnan
sI10
Fnan
sI11
Fnan
sI12
Fnan
sI13
Fnan
sI14
Fnan
ssg54
(dp298
I0
F1.5131610449567698
sI1
F1.5091195321947484
sI2
F1.5144366518147134
sI3
F1.5135361439797037
sI4
F1.5119083129539412
sI5
F1.5126760649890822
sI6
F1.5015949881715243
sI7
F1.5109775346511338
sI8
F1.5061670119470414
sI9
F1.506708255069534
sI10
F1.5097957981522532
sI11
F1.5237839747327944
sI12
F1.5080408497757032
sI13
F1.5104969040915988
sI14
F1.507061877865968
ssg56
(dp299
I0
g267
sI1
g268
sI2
g269
sI3
g270
sI4
g271
sI5
g272
sI6
g273
sI7
g274
sI8
g275
sI9
g276
sI10
g277
sI11
g278
sI12
g279
sI13
g280
sI14
g281
ssg58
(dp300
I0
F17.0054
sI1
F13.35213
sI2
F13.12349
sI3
F18.57111
sI4
F11.8947
sI5
F12.77161
sI6
F17.38109
sI7
F17.14767
sI8
F17.127
sI9
F15.73254
sI10
F16.02179
sI11
F16.13861
sI12
F18.18738
sI13
F12.78722
sI14
F16.73502
ssg60
(dp301
I0
F12.083066666666666
sI1
Fnan
sI2
Fnan
sI3
Fnan
sI4
Fnan
sI5
Fnan
sI6
Fnan
sI7
Fnan
sI8
Fnan
sI9
Fnan
sI10
Fnan
sI11
Fnan
sI12
Fnan
sI13
Fnan
sI14
Fnan
ssg62
(dp302
I0
F0.6887660999049743
sI1
Fnan
sI2
Fnan
sI3
Fnan
sI4
Fnan
sI5
Fnan
sI6
Fnan
sI7
Fnan
sI8
Fnan
sI9
Fnan
sI10
Fnan
sI11
Fnan
sI12
Fnan
sI13
Fnan
sI14
Fnan
ssg64
(dp303
I0
F3.520279
sI1
F2.575281
sI2
F-2.890526
sI3
F3.832375
sI4
F-3.023417
sI5
F1.841324
sI6
F3.592755
sI7
F2.903749
sI8
F1.843302
sI9
F-1.382423
sI10
F3.133313
sI11
F-2.551715
sI12
F3.655827
sI13
F2.773719
sI14
F4.41983
ssg66
(dp304
I0
F12.426666666666668
sI1
Fnan
sI2
Fnan
sI3
Fnan
sI4
Fnan
sI5
Fnan
sI6
Fnan
sI7
Fnan
sI8
Fnan
sI9
Fnan
sI10
Fnan
sI11
Fnan
sI12
Fnan
sI13
Fnan
sI14
Fnan
ssg68
(dp305
I0
g267
sI1
g268
sI2
g269
sI3
g270
sI4
g271
sI5
g272
sI6
g273
sI7
g274
sI8
g275
sI9
g276
sI10
g277
sI11
g278
sI12
g279
sI13
g280
sI14
g281
ssg70
(dp306
I0
F2708.1923333333334
sI1
F2675.726666666667
sI2
F2682.860333333333
sI3
F2456.585
sI4
F2705.5053333333335
sI5
F2691.958
sI6
F2647.0946666666664
sI7
F2746.184
sI8
F2719.188666666667
sI9
F2778.35
sI10
F2766.1553333333336
sI11
F2767.451
sI12
F2644.8126666666667
sI13
F2676.125333333333
sI14
F2658.7833333333333
ssg72
(dp307
I0
F1.0192780000000001
sI1
F1.067842
sI2
F1.066541
sI3
F1.018677
sI4
F1.069156
sI5
F1.0639610000000002
sI6
F1.017525
sI7
F1.036187
sI8
F1.019885
sI9
F1.03801
sI10
F1.038949
sI11
F1.0370780000000002
sI12
F1.0180930000000001
sI13
F1.065232
sI14
F1.039888
ssg74
(dp308
I0
F2213.4913333333334
sI1
F2182.8193333333334
sI2
F2188.029
sI3
F2011.6003333333333
sI4
F2191.326
sI5
F2192.2470000000003
sI6
F2174.884666666667
sI7
F2235.399
sI8
F2211.265
sI9
F2280.2183333333332
sI10
F2276.9593333333332
sI11
F2272.3360000000002
sI12
F2174.765
sI13
F2180.3383333333336
sI14
F2160.8506666666667
ssg76
(dp309
I0
F3723.65
sI1
F3666.063333333333
sI2
F3688.326666666667
sI3
F3381.3799999999997
sI4
F3701.7799999999997
sI5
F3694.11
sI6
F3620.33
sI7
F3763.5299999999997
sI8
F3713.0433333333335
sI9
F3810.8933333333334
sI10
F3807.036666666667
sI11
F3839.773333333333
sI12
F3634.06
sI13
F3667.836666666667
sI14
F3631.7433333333333
ssg78
(dp310
I0
F16.80453
sI1
F12.93634
sI2
F12.674
sI3
F18.78371
sI4
F13.42455
sI5
F13.07929
sI6
F16.45899
sI7
F16.53581
sI8
F16.69221
sI9
F15.72311
sI10
F15.35316
sI11
F16.13244
sI12
F17.44772
sI13
F12.88686
sI14
F15.70267
ssg80
(dp311
I0
F12.637
sI1
F12.652
sI2
F12.65
sI3
F12.741
sI4
F12.648
sI5
F12.648
sI6
F12.656
sI7
F12.627
sI8
F12.638
sI9
F12.605
sI10
F12.607
sI11
F12.609
sI12
F12.656
sI13
F12.654
sI14
F12.663
ssg82
(dp312
I0
F0.003
sI1
F0.003
sI2
F0.003
sI3
F0.004
sI4
F0.003
sI5
F0.003
sI6
F0.003
sI7
F0.003
sI8
F0.003
sI9
F0.003
sI10
F0.003
sI11
F0.003
sI12
F0.003
sI13
F0.003
sI14
F0.003
ssg84
(dp313
I0
F0.37049993276810006
sI1
Fnan
sI2
Fnan
sI3
Fnan
sI4
Fnan
sI5
Fnan
sI6
Fnan
sI7
Fnan
sI8
Fnan
sI9
Fnan
sI10
Fnan
sI11
Fnan
sI12
Fnan
sI13
Fnan
sI14
Fnan
ssg86
(dp314
I0
F12.646066666666668
sI1
Fnan
sI2
Fnan
sI3
Fnan
sI4
Fnan
sI5
Fnan
sI6
Fnan
sI7
Fnan
sI8
Fnan
sI9
Fnan
sI10
Fnan
sI11
Fnan
sI12
Fnan
sI13
Fnan
sI14
Fnan
ssg88
(dp315
I0
F12.418
sI1
F12.431
sI2
F12.429
sI3
F12.524
sI4
F12.419
sI5
F12.425
sI6
F12.443
sI7
F12.403
sI8
F12.414
sI9
F12.391
sI10
F12.395
sI11
F12.395
sI12
F12.444
sI13
F12.431
sI14
F12.438
ssg90
(dp316
I0
F-3.430811
sI1
F1.685326
sI2
F1.751862
sI3
F2.133719
sI4
F3.225288
sI5
F4.406888
sI6
F-4.148373
sI7
F1.524755
sI8
F3.617981
sI9
F3.385337
sI10
F3.824812
sI11
F3.182014
sI12
F-0.9037776
sI13
F-3.327453
sI14
F3.684028
ssg92
(dp317
I0
F0.03263098148050325
sI1
Fnan
sI2
Fnan
sI3
Fnan
sI4
Fnan
sI5
Fnan
sI6
Fnan
sI7
Fnan
sI8
Fnan
sI9
Fnan
sI10
Fnan
sI11
Fnan
sI12
Fnan
sI13
Fnan
sI14
Fnan
ssg94
(dp318
I0
F0.6882915403139805
sI1
F0.6883921836999753
sI2
F0.6868512884647712
sI3
F0.6891443622335294
sI4
F0.6840107427711455
sI5
F0.6865717684183759
sI6
F0.6940281797829349
sI7
F0.6867886976294196
sI8
F0.687557600534309
sI9
F0.6921032409892284
sI10
F0.6928017113552541
sI11
F0.6878337666048674
sI12
F0.6927246706388589
sI13
F0.687374335890831
sI14
F0.6870174092471325
ssg96
(dp319
I0
F30.0
sI1
F30.0
sI2
F30.0
sI3
F30.0
sI4
F30.0
sI5
F30.0
sI6
F30.0
sI7
F30.0
sI8
F30.0
sI9
F30.0
sI10
F30.0
sI11
F30.0
sI12
F30.0
sI13
F30.0
sI14
F30.0
ssg98
(dp320
I0
F0.005
sI1
F0.005
sI2
F0.005
sI3
F0.005
sI4
F0.005
sI5
F0.005
sI6
F0.005
sI7
F0.005
sI8
F0.005
sI9
F0.004
sI10
F0.005
sI11
F0.005
sI12
F0.005
sI13
F0.005
sI14
F0.005
ssg100
(dp321
I0
F0.004
sI1
F0.004
sI2
F0.004
sI3
F0.004
sI4
F0.004
sI5
F0.004
sI6
F0.004
sI7
F0.004
sI8
F0.004
sI9
F0.004
sI10
F0.004
sI11
F0.004
sI12
F0.004
sI13
F0.004
sI14
F0.004
ssg102
(dp322
I0
F-2.983272
sI1
F3.337904
sI2
F-2.541325
sI3
F-2.191954
sI4
F4.10175
sI5
F3.901747
sI6
F2.682891
sI7
F-2.816449
sI8
F2.598053
sI9
F2.659265
sI10
F-2.716764
sI11
F3.300184
sI12
F-2.338559
sI13
F3.89106
sI14
F-2.459067
ssg104
(dp323
I0
S"KIC8462852-20180731at061529_-25-1X1-030-z'_cal.fts.mag.1"
p324
sI1
S"KIC8462852-20180731at052107_-25-1X1-030-z'_cal.fts.mag.1"
p325
sI2
S"KIC8462852-20180731at052210_-25-1X1-030-z'_cal.fts.mag.1"
p326
sI3
S"KIC8462852-20180731at061633_-25-1X1-030-z'_cal.fts.mag.1"
p327
sI4
S"KIC8462852-20180731at052002_-25-1X1-030-z'_cal.fts.mag.1"
p328
sI5
S"KIC8462852-20180731at052418_-25-1X1-030-z'_cal.fts.mag.1"
p329
sI6
S"KIC8462852-20180731at061841_-25-1X1-030-z'_cal.fts.mag.1"
p330
sI7
S"KIC8462852-20180731at055134_-25-1X1-030-z'_cal.fts.mag.1"
p331
sI8
S"KIC8462852-20180731at061424_-25-1X1-030-z'_cal.fts.mag.1"
p332
sI9
S"KIC8462852-20180731at054926_-25-1X1-030-z'_cal.fts.mag.1"
p333
sI10
S"KIC8462852-20180731at054823_-25-1X1-030-z'_cal.fts.mag.1"
p334
sI11
S"KIC8462852-20180731at055030_-25-1X1-030-z'_cal.fts.mag.1"
p335
sI12
S"KIC8462852-20180731at061737_-25-1X1-030-z'_cal.fts.mag.1"
p336
sI13
S"KIC8462852-20180731at052314_-25-1X1-030-z'_cal.fts.mag.1"
p337
sI14
S"KIC8462852-20180731at054718_-25-1X1-030-z'_cal.fts.mag.1"
p338
ssg121
(dp339
I0
F0.004983335380380067
sI1
Fnan
sI2
Fnan
sI3
Fnan
sI4
Fnan
sI5
Fnan
sI6
Fnan
sI7
Fnan
sI8
Fnan
sI9
Fnan
sI10
Fnan
sI11
Fnan
sI12
Fnan
sI13
Fnan
sI14
Fnan
ssg123
(dp340
I0
F1065.405
sI1
F1027.9953333333333
sI2
F1052.9479999999999
sI3
F979.1626666666667
sI4
F1063.2153333333333
sI5
F1063.5803333333333
sI6
F1041.1616666666666
sI7
F1076.68
sI8
F1068.2623333333333
sI9
F1113.123
sI10
F1087.339
sI11
F1078.477
sI12
F1043.8990000000001
sI13
F1060.036
sI14
F1061.3683333333333
ssg125
(dp341
I0
F0.03242015833808747
sI1
Fnan
sI2
Fnan
sI3
Fnan
sI4
Fnan
sI5
Fnan
sI6
Fnan
sI7
Fnan
sI8
Fnan
sI9
Fnan
sI10
Fnan
sI11
Fnan
sI12
Fnan
sI13
Fnan
sI14
Fnan
ssg127
(dp342
I0
S"z'"
p343
sI1
S"z'"
p344
sI2
S"z'"
p345
sI3
S"z'"
p346
sI4
S"z'"
p347
sI5
S"z'"
p348
sI6
S"z'"
p349
sI7
S"z'"
p350
sI8
S"z'"
p351
sI9
S"z'"
p352
sI10
S"z'"
p353
sI11
S"z'"
p354
sI12
S"z'"
p355
sI13
S"z'"
p356
sI14
S"z'"
p357
ssg144
(dp358
I0
F0.00396132148584896
sI1
Fnan
sI2
Fnan
sI3
Fnan
sI4
Fnan
sI5
Fnan
sI6
Fnan
sI7
Fnan
sI8
Fnan
sI9
Fnan
sI10
Fnan
sI11
Fnan
sI12
Fnan
sI13
Fnan
sI14
Fnan
ssg146
(dp359
I0
F2.277503
sI1
F3.431966
sI2
F-1.61395
sI3
F4.058515
sI4
F-1.713476
sI5
F3.438527
sI6
F-2.05514
sI7
F-4.068608
sI8
F3.910395
sI9
F4.852309
sI10
F2.392381
sI11
F-2.488601
sI12
F3.440287
sI13
F4.495544
sI14
F2.786057
ssg148
(dp360
I0
F1.5106309963564342
sI1
Fnan
sI2
Fnan
sI3
Fnan
sI4
Fnan
sI5
Fnan
sI6
Fnan
sI7
Fnan
sI8
Fnan
sI9
Fnan
sI10
Fnan
sI11
Fnan
sI12
Fnan
sI13
Fnan
sI14
Fnan
ssg150
(dp361
I0
F2458330.7426620373
sI1
Fnan
sI2
Fnan
sI3
Fnan
sI4
Fnan
sI5
Fnan
sI6
Fnan
sI7
Fnan
sI8
Fnan
sI9
Fnan
sI10
Fnan
sI11
Fnan
sI12
Fnan
sI13
Fnan
sI14
Fnan
ssg152
(dp362
I0
F0.00396132148584896
sI1
Fnan
sI2
Fnan
sI3
Fnan
sI4
Fnan
sI5
Fnan
sI6
Fnan
sI7
Fnan
sI8
Fnan
sI9
Fnan
sI10
Fnan
sI11
Fnan
sI12
Fnan
sI13
Fnan
sI14
Fnan
ssg154
(dp363
I0
F18.52486
sI1
F13.53328
sI2
F14.13563
sI3
F19.72103
sI4
F13.09606
sI5
F13.23564
sI6
F19.05785
sI7
F16.74887
sI8
F17.16947
sI9
F15.81046
sI10
F15.94316
sI11
F16.97119
sI12
F18.20936
sI13
F13.78011
sI14
F17.04063
ssg156
(dp364
I0
F12.073
sI1
F12.09
sI2
F12.083
sI3
F12.177
sI4
F12.079
sI5
F12.081
sI6
F12.103
sI7
F12.061
sI8
F12.076
sI9
F12.047
sI10
F12.049
sI11
F12.039
sI12
F12.099
sI13
F12.089
sI14
F12.1
ssg158
(dp365
I0
F0.37049993276810006
sI1
Fnan
sI2
Fnan
sI3
Fnan
sI4
Fnan
sI5
Fnan
sI6
Fnan
sI7
Fnan
sI8
Fnan
sI9
Fnan
sI10
Fnan
sI11
Fnan
sI12
Fnan
sI13
Fnan
sI14
Fnan
sssS'g'
p366
(dp367
g3
(dp368
I0
F0.8557474417137929
sI1
Fnan
sI2
Fnan
sI3
Fnan
sI4
Fnan
sI5
Fnan
sI6
Fnan
sI7
Fnan
sI8
Fnan
sI9
Fnan
sI10
Fnan
sI11
Fnan
sI12
Fnan
sI13
Fnan
sI14
Fnan
ssg5
(dp369
I0
S'NoError'
p370
sI1
S'NoError'
p371
sI2
S'NoError'
p372
sI3
S'NoError'
p373
sI4
S'NoError'
p374
sI5
S'NoError'
p375
sI6
S'NoError'
p376
sI7
S'NoError'
p377
sI8
S'NoError'
p378
sI9
S'NoError'
p379
sI10
S'NoError'
p380
sI11
S'NoError'
p381
sI12
S'NoError'
p382
sI13
S'NoError'
p383
sI14
S'NoError'
p384
ssg22
(dp385
I0
F0.003
sI1
F0.003
sI2
F0.003
sI3
F0.003
sI4
F0.003
sI5
F0.003
sI6
F0.003
sI7
F0.003
sI8
F0.004
sI9
F0.003
sI10
F0.003
sI11
F0.003
sI12
F0.004
sI13
F0.003
sI14
F0.003
ssg24
(dp386
I0
F0.8753436336459391
sI1
F0.8909512342686342
sI2
F0.8784309755719704
sI3
F0.8832934804528824
sI4
F0.8804273364811508
sI5
F0.8818528505537929
sI6
F0.8756271869381389
sI7
F0.8837762847481683
sI8
F0.8885404797327066
sI9
F0.8793620143662625
sI10
F0.8805284692951106
sI11
F0.8837228254921341
sI12
F0.8832931239553442
sI13
F0.8766765988871333
sI14
F0.8798623457764472
ssg26
(dp387
I0
F0.004391154870448966
sI1
Fnan
sI2
Fnan
sI3
Fnan
sI4
Fnan
sI5
Fnan
sI6
Fnan
sI7
Fnan
sI8
Fnan
sI9
Fnan
sI10
Fnan
sI11
Fnan
sI12
Fnan
sI13
Fnan
sI14
Fnan
ssg28
(dp388
I0
F0.8814459226777209
sI1
Fnan
sI2
Fnan
sI3
Fnan
sI4
Fnan
sI5
Fnan
sI6
Fnan
sI7
Fnan
sI8
Fnan
sI9
Fnan
sI10
Fnan
sI11
Fnan
sI12
Fnan
sI13
Fnan
sI14
Fnan
ssg30
(dp389
I0
F11.971
sI1
F11.961
sI2
F11.991
sI3
F11.985
sI4
F11.992
sI5
F11.993
sI6
F11.984
sI7
F11.954
sI8
F12.279
sI9
F12.023
sI10
F11.973
sI11
F11.974
sI12
F12.254
sI13
F12.047
sI14
F12.01
ssg32
(dp390
I0
F19.79808
sI1
F65.18127
sI2
F23.4721
sI3
F21.53244
sI4
F22.14874
sI5
F46.92425
sI6
F43.68212
sI7
F63.03215
sI8
F74.55677
sI9
F45.35387
sI10
F40.79547
sI11
F21.38055
sI12
F74.50323
sI13
F44.32103
sI14
F68.15816
ssg34
(dp391
I0
F2458330.711145833
sI1
F2458330.7495601852
sI2
F2458330.7140972223
sI3
F2458330.712627315
sI4
F2458330.7133564814
sI5
F2458330.7328935186
sI6
F2458330.731400463
sI7
F2458330.7488194443
sI8
F2458330.751076389
sI9
F2458330.7321412037
sI10
F2458330.7299189814
sI11
F2458330.711886574
sI12
F2458330.750335648
sI13
F2458330.7306597224
sI14
F2458330.7518287036
ssg36
(dp392
I0
F2.3091731866666665
sI1
Fnan
sI2
Fnan
sI3
Fnan
sI4
Fnan
sI5
Fnan
sI6
Fnan
sI7
Fnan
sI8
Fnan
sI9
Fnan
sI10
Fnan
sI11
Fnan
sI12
Fnan
sI13
Fnan
sI14
Fnan
ssg38
(dp393
I0
F1.1278641333333332
sI1
Fnan
sI2
Fnan
sI3
Fnan
sI4
Fnan
sI5
Fnan
sI6
Fnan
sI7
Fnan
sI8
Fnan
sI9
Fnan
sI10
Fnan
sI11
Fnan
sI12
Fnan
sI13
Fnan
sI14
Fnan
ssg40
(dp394
I0
F0.8538190354466437
sI1
F0.8577550512697734
sI2
F0.8581943378772352
sI3
F0.8543467297992118
sI4
F0.8535301893794521
sI5
F0.8561556866942086
sI6
F0.859381711018154
sI7
F0.8547631305044676
sI8
F0.8569404666498935
sI9
F0.8551398894969422
sI10
F0.8552688703193603
sI11
F0.8568380614809052
sI12
F0.8616066195942557
sI13
F0.8533825861457808
sI14
F0.8549484379110727
ssg42
(dp395
I0
F0.0017808516132743109
sI1
Fnan
sI2
Fnan
sI3
Fnan
sI4
Fnan
sI5
Fnan
sI6
Fnan
sI7
Fnan
sI8
Fnan
sI9
Fnan
sI10
Fnan
sI11
Fnan
sI12
Fnan
sI13
Fnan
sI14
Fnan
ssg44
(dp396
I0
F1.1258156666666668
sI1
Fnan
sI2
Fnan
sI3
Fnan
sI4
Fnan
sI5
Fnan
sI6
Fnan
sI7
Fnan
sI8
Fnan
sI9
Fnan
sI10
Fnan
sI11
Fnan
sI12
Fnan
sI13
Fnan
sI14
Fnan
ssg46
(dp397
I0
g370
sI1
g371
sI2
g372
sI3
g373
sI4
g374
sI5
g375
sI6
g376
sI7
g377
sI8
g378
sI9
g379
sI10
g380
sI11
g381
sI12
g382
sI13
g383
sI14
g384
ssg48
(dp398
I0
F0.00347420521817287
sI1
Fnan
sI2
Fnan
sI3
Fnan
sI4
Fnan
sI5
Fnan
sI6
Fnan
sI7
Fnan
sI8
Fnan
sI9
Fnan
sI10
Fnan
sI11
Fnan
sI12
Fnan
sI13
Fnan
sI14
Fnan
ssg50
(dp399
I0
F0.10074352159249315
sI1
Fnan
sI2
Fnan
sI3
Fnan
sI4
Fnan
sI5
Fnan
sI6
Fnan
sI7
Fnan
sI8
Fnan
sI9
Fnan
sI10
Fnan
sI11
Fnan
sI12
Fnan
sI13
Fnan
sI14
Fnan
ssg52
(dp400
I0
F1.7813043333333334
sI1
Fnan
sI2
Fnan
sI3
Fnan
sI4
Fnan
sI5
Fnan
sI6
Fnan
sI7
Fnan
sI8
Fnan
sI9
Fnan
sI10
Fnan
sI11
Fnan
sI12
Fnan
sI13
Fnan
sI14
Fnan
ssg54
(dp401
I0
F1.521144082070127
sI1
F1.4955985659609516
sI2
F1.5205867712938834
sI3
F1.5172142341215222
sI4
F1.5223618595982724
sI5
F1.5175856222108317
sI6
F1.523223656528856
sI7
F1.508934500658657
sI8
F1.5201207301488113
sI9
F1.5181982011353257
sI10
F1.5186282303150485
sI11
F1.5145200320460201
sI12
F1.5082095040173082
sI13
F1.534992697122728
sI14
F1.5216484209222394
ssg56
(dp402
I0
g370
sI1
g371
sI2
g372
sI3
g373
sI4
g374
sI5
g375
sI6
g376
sI7
g377
sI8
g378
sI9
g379
sI10
g380
sI11
g381
sI12
g382
sI13
g383
sI14
g384
ssg58
(dp403
I0
F20.39824
sI1
F65.76877
sI2
F24.0389
sI3
F21.41973
sI4
F23.05494
sI5
F46.15344
sI6
F44.78703
sI7
F63.54106
sI8
F74.36494
sI9
F44.18244
sI10
F42.09383
sI11
F21.50804
sI12
F74.76836
sI13
F45.1832
sI14
F67.74487
ssg60
(dp404
I0
F11.577466666666668
sI1
Fnan
sI2
Fnan
sI3
Fnan
sI4
Fnan
sI5
Fnan
sI6
Fnan
sI7
Fnan
sI8
Fnan
sI9
Fnan
sI10
Fnan
sI11
Fnan
sI12
Fnan
sI13
Fnan
sI14
Fnan
ssg62
(dp405
I0
F0.712535507432442
sI1
Fnan
sI2
Fnan
sI3
Fnan
sI4
Fnan
sI5
Fnan
sI6
Fnan
sI7
Fnan
sI8
Fnan
sI9
Fnan
sI10
Fnan
sI11
Fnan
sI12
Fnan
sI13
Fnan
sI14
Fnan
ssg64
(dp406
I0
F4.642262
sI1
F-3.978334
sI2
F-1.726333
sI3
F2.462246
sI4
F3.869797
sI5
F-3.67214
sI6
F4.099959
sI7
F4.107576
sI8
F2.734083
sI9
F-2.263566
sI10
F-4.196064
sI11
F-3.610543
sI12
F5.528219
sI13
F5.051991
sI14
F3.868809
ssg66
(dp407
I0
F11.950600000000001
sI1
Fnan
sI2
Fnan
sI3
Fnan
sI4
Fnan
sI5
Fnan
sI6
Fnan
sI7
Fnan
sI8
Fnan
sI9
Fnan
sI10
Fnan
sI11
Fnan
sI12
Fnan
sI13
Fnan
sI14
Fnan
ssg68
(dp408
I0
g370
sI1
g371
sI2
g372
sI3
g373
sI4
g374
sI5
g375
sI6
g376
sI7
g377
sI8
g378
sI9
g379
sI10
g380
sI11
g381
sI12
g382
sI13
g383
sI14
g384
ssg70
(dp409
I0
F4375.546666666666
sI1
F4447.29
sI2
F4280.973333333333
sI3
F4343.5
sI4
F4307.606666666667
sI5
F4294.536666666667
sI6
F4296.263333333333
sI7
F4466.696666666667
sI8
F3316.5903333333335
sI9
F4174.536666666667
sI10
F4377.183333333333
sI11
F4373.64
sI12
F3359.4166666666665
sI13
F4083.77
sI14
F4227.13
ssg72
(dp410
I0
F1.091021
sI1
F1.0299209999999999
sI2
F1.084884
sI3
F1.08791
sI4
F1.086385
sI5
F1.0515379999999999
sI6
F1.053818
sI7
F1.0307309999999998
sI8
F1.0282950000000002
sI9
F1.052668
sI10
F1.0561479999999999
sI11
F1.08945
sI12
F1.0290920000000001
sI13
F1.05498
sI14
F1.027521
ssg74
(dp411
I0
F3788.2033333333334
sI1
F3809.11
sI2
F3688.06
sI3
F3718.7233333333334
sI4
F3694.336666666667
sI5
F3684.9933333333333
sI6
F3713.0266666666666
sI7
F3840.6133333333332
sI8
F2809.2476666666666
sI9
F3595.92
sI10
F3761.9866666666667
sI11
F3748.0133333333333
sI12
F2892.199333333333
sI13
F3497.7166666666667
sI14
F3630.4100000000003
ssg76
(dp412
I0
F6209.12
sI1
F6174.13
sI2
F6058.803333333333
sI3
F6116.0599999999995
sI4
F6090.926666666666
sI5
F6054.8099999999995
sI6
F6099.97
sI7
F6267.593333333333
sI8
F4656.006666666667
sI9
F5898.546666666666
sI10
F6180.1866666666665
sI11
F6150.203333333334
sI12
F4714.373333333334
sI13
F5818.763333333333
sI14
F5978.206666666667
ssg78
(dp413
I0
F19.46331
sI1
F64.57483
sI2
F23.66563
sI3
F21.71039
sI4
F21.81413
sI5
F46.05547
sI6
F43.53283
sI7
F62.99949
sI8
F75.43644
sI9
F45.14355
sI10
F42.14611
sI11
F21.52098
sI12
F74.27164
sI13
F43.80217
sI14
F66.86966
ssg80
(dp414
I0
F12.054
sI1
F12.048
sI2
F12.083
sI3
F12.074
sI4
F12.081
sI5
F12.084
sI6
F12.076
sI7
F12.039
sI8
F12.379
sI9
F12.11
sI10
F12.061
sI11
F12.065
sI12
F12.347
sI13
F12.141
sI14
F12.1
ssg82
(dp415
I0
F0.002
sI1
F0.003
sI2
F0.003
sI3
F0.002
sI4
F0.002
sI5
F0.003
sI6
F0.003
sI7
F0.003
sI8
F0.003
sI9
F0.003
sI10
F0.003
sI11
F0.002
sI12
F0.003
sI13
F0.003
sI14
F0.003
ssg84
(dp416
I0
F0.8561380535724904
sI1
Fnan
sI2
Fnan
sI3
Fnan
sI4
Fnan
sI5
Fnan
sI6
Fnan
sI7
Fnan
sI8
Fnan
sI9
Fnan
sI10
Fnan
sI11
Fnan
sI12
Fnan
sI13
Fnan
sI14
Fnan
ssg86
(dp417
I0
F12.116133333333332
sI1
Fnan
sI2
Fnan
sI3
Fnan
sI4
Fnan
sI5
Fnan
sI6
Fnan
sI7
Fnan
sI8
Fnan
sI9
Fnan
sI10
Fnan
sI11
Fnan
sI12
Fnan
sI13
Fnan
sI14
Fnan
ssg88
(dp418
I0
F11.897
sI1
F11.88
sI2
F11.921
sI3
F11.905
sI4
F11.914
sI5
F11.918
sI6
F11.917
sI7
F11.875
sI8
F12.198
sI9
F11.948
sI10
F11.897
sI11
F11.898
sI12
F12.184
sI13
F11.972
sI14
F11.935
ssg90
(dp419
I0
F1.061119
sI1
F3.667051
sI2
F4.576777
sI3
F-2.949927
sI4
F3.86659
sI5
F4.611572
sI6
F-2.732267
sI7
F4.100778
sI8
F3.902915
sI9
F4.833402
sI10
F0.6628048
sI11
F2.257131
sI12
F-3.52536
sI13
F5.416955
sI14
F4.888057
ssg92
(dp420
I0
F0.10191233394208885
sI1
Fnan
sI2
Fnan
sI3
Fnan
sI4
Fnan
sI5
Fnan
sI6
Fnan
sI7
Fnan
sI8
Fnan
sI9
Fnan
sI10
Fnan
sI11
Fnan
sI12
Fnan
sI13
Fnan
sI14
Fnan
ssg94
(dp421
I0
F0.7157907665176041
sI1
F0.7172506124416509
sI2
F0.7133732417818179
sI3
F0.7110668772555124
sI4
F0.7105495646821989
sI5
F0.7121209583600124
sI6
F0.7143022953826226
sI7
F0.715578456205922
sI8
F0.7047258670334563
sI9
F0.7139660977688064
sI10
F0.7126749686080278
sI11
F0.7122898383448631
sI12
F0.716441555535463
sI13
F0.7064286579865086
sI14
F0.7114728535821618
ssg96
(dp422
I0
F30.0
sI1
F30.0
sI2
F30.0
sI3
F30.0
sI4
F30.0
sI5
F30.0
sI6
F30.0
sI7
F30.0
sI8
F30.0
sI9
F30.0
sI10
F30.0
sI11
F30.0
sI12
F30.0
sI13
F30.0
sI14
F30.0
ssg98
(dp423
I0
F0.003
sI1
F0.004
sI2
F0.003
sI3
F0.003
sI4
F0.003
sI5
F0.004
sI6
F0.004
sI7
F0.004
sI8
F0.004
sI9
F0.004
sI10
F0.003
sI11
F0.003
sI12
F0.004
sI13
F0.004
sI14
F0.004
ssg100
(dp424
I0
F0.003
sI1
F0.003
sI2
F0.003
sI3
F0.003
sI4
F0.003
sI5
F0.003
sI6
F0.003
sI7
F0.003
sI8
F0.004
sI9
F0.003
sI10
F0.003
sI11
F0.003
sI12
F0.004
sI13
F0.003
sI14
F0.003
ssg102
(dp425
I0
F-2.039817
sI1
F2.065458
sI2
F3.056662
sI3
F3.704611
sI4
F2.675368
sI5
F1.87246
sI6
F-2.167429
sI7
F3.024758
sI8
F2.108118
sI9
F5.635706
sI10
F-3.103374
sI11
F4.044887
sI12
F5.46944
sI13
F-3.599586
sI14
F3.972303
ssg104
(dp426
I0
S"KIC8462852-20180731at050352_-25-1X1-030-g'_cal.fts.mag.1"
p427
sI1
S"KIC8462852-20180731at055922_-25-1X1-030-g'_cal.fts.mag.1"
p428
sI2
S"KIC8462852-20180731at050818_-25-1X1-030-g'_cal.fts.mag.1"
p429
sI3
S"KIC8462852-20180731at050611_-25-1X1-030-g'_cal.fts.mag.1"
p430
sI4
S"KIC8462852-20180731at050714_-25-1X1-030-g'_cal.fts.mag.1"
p431
sI5
S"KIC8462852-20180731at053522_-25-1X1-030-g'_cal.fts.mag.1"
p432
sI6
S"KIC8462852-20180731at053313_-25-1X1-030-g'_cal.fts.mag.1"
p433
sI7
S"KIC8462852-20180731at055813_-25-1X1-030-g'_cal.fts.mag.1"
p434
sI8
S"KIC8462852-20180731at060133_-25-1X1-030-g'_cal.fts.mag.1"
p435
sI9
S"KIC8462852-20180731at053417_-25-1X1-030-g'_cal.fts.mag.1"
p436
sI10
S"KIC8462852-20180731at053100_-25-1X1-030-g'_cal.fts.mag.1"
p437
sI11
S"KIC8462852-20180731at050507_-25-1X1-030-g'_cal.fts.mag.1"
p438
sI12
S"KIC8462852-20180731at060029_-25-1X1-030-g'_cal.fts.mag.1"
p439
sI13
S"KIC8462852-20180731at053209_-25-1X1-030-g'_cal.fts.mag.1"
p440
sI14
S"KIC8462852-20180731at060238_-25-1X1-030-g'_cal.fts.mag.1"
p441
ssg121
(dp442
I0
F0.008698712719087362
sI1
Fnan
sI2
Fnan
sI3
Fnan
sI4
Fnan
sI5
Fnan
sI6
Fnan
sI7
Fnan
sI8
Fnan
sI9
Fnan
sI10
Fnan
sI11
Fnan
sI12
Fnan
sI13
Fnan
sI14
Fnan
ssg123
(dp443
I0
F4090.61
sI1
F4125.953333333334
sI2
F4012.8700000000003
sI3
F4037.7233333333334
sI4
F4009.563333333333
sI5
F4005.1933333333336
sI6
F4041.7466666666664
sI7
F4152.696666666667
sI8
F3079.799666666667
sI9
F3896.3033333333337
sI10
F4082.3
sI11
F4076.2233333333334
sI12
F3149.4563333333335
sI13
F3811.8466666666664
sI14
F3942.95
ssg125
(dp444
I0
F0.10356907058071128
sI1
Fnan
sI2
Fnan
sI3
Fnan
sI4
Fnan
sI5
Fnan
sI6
Fnan
sI7
Fnan
sI8
Fnan
sI9
Fnan
sI10
Fnan
sI11
Fnan
sI12
Fnan
sI13
Fnan
sI14
Fnan
ssg127
(dp445
I0
S"g'"
p446
sI1
S"g'"
p447
sI2
S"g'"
p448
sI3
S"g'"
p449
sI4
S"g'"
p450
sI5
S"g'"
p451
sI6
S"g'"
p452
sI7
S"g'"
p453
sI8
S"g'"
p454
sI9
S"g'"
p455
sI10
S"g'"
p456
sI11
S"g'"
p457
sI12
S"g'"
p458
sI13
S"g'"
p459
sI14
S"g'"
p460
ssg144
(dp461
I0
F0.002336685008902276
sI1
Fnan
sI2
Fnan
sI3
Fnan
sI4
Fnan
sI5
Fnan
sI6
Fnan
sI7
Fnan
sI8
Fnan
sI9
Fnan
sI10
Fnan
sI11
Fnan
sI12
Fnan
sI13
Fnan
sI14
Fnan
ssg146
(dp462
I0
F-3.870232
sI1
F3.359855
sI2
F-1.772233
sI3
F-2.059241
sI4
F4.481533
sI5
F3.788169
sI6
F1.728335
sI7
F4.995415
sI8
F-3.70936
sI9
F5.092066
sI10
F3.666723
sI11
F-2.444567
sI12
F2.228881
sI13
F-2.87496
sI14
F4.276851
ssg148
(dp463
I0
F1.5175311405433725
sI1
Fnan
sI2
Fnan
sI3
Fnan
sI4
Fnan
sI5
Fnan
sI6
Fnan
sI7
Fnan
sI8
Fnan
sI9
Fnan
sI10
Fnan
sI11
Fnan
sI12
Fnan
sI13
Fnan
sI14
Fnan
ssg150
(dp464
I0
F2458330.731400463
sI1
Fnan
sI2
Fnan
sI3
Fnan
sI4
Fnan
sI5
Fnan
sI6
Fnan
sI7
Fnan
sI8
Fnan
sI9
Fnan
sI10
Fnan
sI11
Fnan
sI12
Fnan
sI13
Fnan
sI14
Fnan
ssg152
(dp465
I0
F0.002336685008902276
sI1
Fnan
sI2
Fnan
sI3
Fnan
sI4
Fnan
sI5
Fnan
sI6
Fnan
sI7
Fnan
sI8
Fnan
sI9
Fnan
sI10
Fnan
sI11
Fnan
sI12
Fnan
sI13
Fnan
sI14
Fnan
ssg154
(dp466
I0
F21.09262
sI1
F66.08963
sI2
F24.36276
sI3
F22.63833
sI4
F24.32974
sI5
F48.00138
sI6
F45.45914
sI7
F65.2609
sI8
F76.76906
sI9
F47.41383
sI10
F42.55892
sI11
F23.27392
sI12
F76.89747
sI13
F46.87216
sI14
F69.19638
ssg156
(dp467
I0
F11.517
sI1
F11.524
sI2
F11.544
sI3
F11.534
sI4
F11.538
sI5
F11.545
sI6
F11.537
sI7
F11.507
sI8
F11.83
sI9
F11.573
sI10
F11.522
sI11
F11.528
sI12
F11.816
sI13
F11.588
sI14
F11.559
ssg158
(dp468
I0
F0.8561380535724904
sI1
Fnan
sI2
Fnan
sI3
Fnan
sI4
Fnan
sI5
Fnan
sI6
Fnan
sI7
Fnan
sI8
Fnan
sI9
Fnan
sI10
Fnan
sI11
Fnan
sI12
Fnan
sI13
Fnan
sI14
Fnan
sssS'V'
p469
(dp470
g3
(dp471
I0
F0.6875634404009486
sI1
Fnan
sI2
Fnan
sI3
Fnan
sI4
Fnan
sI5
Fnan
sI6
Fnan
sI7
Fnan
sI8
Fnan
sI9
Fnan
sI10
Fnan
sI11
Fnan
sI12
Fnan
sI13
Fnan
sI14
Fnan
ssg5
(dp472
I0
S'NoError'
p473
sI1
S'NoError'
p474
sI2
S'NoError'
p475
sI3
S'NoError'
p476
sI4
S'NoError'
p477
sI5
S'NoError'
p478
sI6
S'NoError'
p479
sI7
S'NoError'
p480
sI8
S'NoError'
p481
sI9
S'NoError'
p482
sI10
S'NoError'
p483
sI11
S'NoError'
p484
sI12
S'NoError'
p485
sI13
S'NoError'
p486
sI14
S'NoError'
p487
ssg22
(dp488
I0
F0.003
sI1
F0.003
sI2
F0.003
sI3
F0.003
sI4
F0.003
sI5
F0.003
sI6
F0.003
sI7
F0.003
sI8
F0.003
sI9
F0.003
sI10
F0.003
sI11
F0.003
sI12
F0.003
sI13
F0.003
sI14
F0.003
ssg24
(dp489
I0
F0.8865102468150703
sI1
F0.8895369666952865
sI2
F0.8883733294081304
sI3
F0.8890577838039223
sI4
F0.881586253251118
sI5
F0.8849552682355522
sI6
F0.8858453396059983
sI7
F0.8863678204629067
sI8
F0.8872805497871175
sI9
F0.8889580321774729
sI10
F0.8865725908222613
sI11
F0.8853571752537015
sI12
F0.8904315806939556
sI13
F0.8812798209266915
sI14
F0.8838627355107574
ssg26
(dp490
I0
F0.002721900133241211
sI1
Fnan
sI2
Fnan
sI3
Fnan
sI4
Fnan
sI5
Fnan
sI6
Fnan
sI7
Fnan
sI8
Fnan
sI9
Fnan
sI10
Fnan
sI11
Fnan
sI12
Fnan
sI13
Fnan
sI14
Fnan
ssg28
(dp491
I0
F0.8863983662299961
sI1
Fnan
sI2
Fnan
sI3
Fnan
sI4
Fnan
sI5
Fnan
sI6
Fnan
sI7
Fnan
sI8
Fnan
sI9
Fnan
sI10
Fnan
sI11
Fnan
sI12
Fnan
sI13
Fnan
sI14
Fnan
ssg30
(dp492
I0
F11.897
sI1
F11.856
sI2
F11.858
sI3
F11.862
sI4
F11.897
sI5
F11.866
sI6
F11.867
sI7
F11.894
sI8
F11.896
sI9
F11.915
sI10
F11.899
sI11
F11.911
sI12
F11.839
sI13
F11.87
sI14
F11.868
ssg32
(dp493
I0
F38.22744
sI1
F57.61761
sI2
F73.83471
sI3
F60.71473
sI4
F75.58062
sI5
F59.35302
sI6
F71.8905
sI7
F38.9055
sI8
F35.2986
sI9
F36.45855
sI10
F60.5104
sI11
F35.65472
sI12
F58.44279
sI13
F74.72655
sI14
F73.56543
ssg34
(dp494
I0
F2458330.728275463
sI1
F2458330.7449537036
sI2
F2458330.7660416667
sI3
F2458330.7471875
sI4
F2458330.7637847224
sI5
F2458330.7464467594
sI6
F2458330.7667939817
sI7
F2458330.729039352
sI8
F2458330.7267824076
sI9
F2458330.7260300927
sI10
F2458330.747939815
sI11
F2458330.727534722
sI12
F2458330.7456944445
sI13
F2458330.764548611
sI14
F2458330.765289352
ssg36
(dp495
I0
F1.0847155999999998
sI1
Fnan
sI2
Fnan
sI3
Fnan
sI4
Fnan
sI5
Fnan
sI6
Fnan
sI7
Fnan
sI8
Fnan
sI9
Fnan
sI10
Fnan
sI11
Fnan
sI12
Fnan
sI13
Fnan
sI14
Fnan
ssg38
(dp496
I0
F2.2720118
sI1
Fnan
sI2
Fnan
sI3
Fnan
sI4
Fnan
sI5
Fnan
sI6
Fnan
sI7
Fnan
sI8
Fnan
sI9
Fnan
sI10
Fnan
sI11
Fnan
sI12
Fnan
sI13
Fnan
sI14
Fnan
ssg40
(dp497
I0
F0.6866800328862686
sI1
F0.6864950514186371
sI2
F0.6845485327938147
sI3
F0.6883995444501083
sI4
F0.6887265281714399
sI5
F0.6858405754051371
sI6
F0.6879424458672447
sI7
F0.6884857565884404
sI8
F0.6902312848381574
sI9
F0.6840931048510119
sI10
F0.6835579219641423
sI11
F0.6890868972416232
sI12
F0.6936082819676431
sI13
F0.6873823462775762
sI14
F0.6904126244228737
ssg42
(dp498
I0
F0.0018944887508437428
sI1
Fnan
sI2
Fnan
sI3
Fnan
sI4
Fnan
sI5
Fnan
sI6
Fnan
sI7
Fnan
sI8
Fnan
sI9
Fnan
sI10
Fnan
sI11
Fnan
sI12
Fnan
sI13
Fnan
sI14
Fnan
ssg44
(dp499
I0
F2.840618466666667
sI1
Fnan
sI2
Fnan
sI3
Fnan
sI4
Fnan
sI5
Fnan
sI6
Fnan
sI7
Fnan
sI8
Fnan
sI9
Fnan
sI10
Fnan
sI11
Fnan
sI12
Fnan
sI13
Fnan
sI14
Fnan
ssg46
(dp500
I0
g473
sI1
g474
sI2
g475
sI3
g476
sI4
g477
sI5
g478
sI6
g479
sI7
g480
sI8
g481
sI9
g482
sI10
g483
sI11
g484
sI12
g485
sI13
g486
sI14
g487
ssg48
(dp501
I0
F0.0033596302795400232
sI1
Fnan
sI2
Fnan
sI3
Fnan
sI4
Fnan
sI5
Fnan
sI6
Fnan
sI7
Fnan
sI8
Fnan
sI9
Fnan
sI10
Fnan
sI11
Fnan
sI12
Fnan
sI13
Fnan
sI14
Fnan
ssg50
(dp502
I0
F0.02255532879704605
sI1
Fnan
sI2
Fnan
sI3
Fnan
sI4
Fnan
sI5
Fnan
sI6
Fnan
sI7
Fnan
sI8
Fnan
sI9
Fnan
sI10
Fnan
sI11
Fnan
sI12
Fnan
sI13
Fnan
sI14
Fnan
ssg52
(dp503
I0
F1.8534225999999996
sI1
Fnan
sI2
Fnan
sI3
Fnan
sI4
Fnan
sI5
Fnan
sI6
Fnan
sI7
Fnan
sI8
Fnan
sI9
Fnan
sI10
Fnan
sI11
Fnan
sI12
Fnan
sI13
Fnan
sI14
Fnan
ssg54
(dp504
I0
F1.506054098845523
sI1
F1.504177832442227
sI2
F1.5022290664868578
sI3
F1.5087290171281
sI4
F1.5098564718979621
sI5
F1.5028570988144727
sI6
F1.501188792354629
sI7
F1.5083431360800588
sI8
F1.5008670492776326
sI9
F1.509216031663322
sI10
F1.5087824163813202
sI11
F1.5097863388795107
sI12
F1.5009072872753106
sI13
F1.5075252164007211
sI14
F1.4953351654624873
ssg56
(dp505
I0
g473
sI1
g474
sI2
g475
sI3
g476
sI4
g477
sI5
g478
sI6
g479
sI7
g480
sI8
g481
sI9
g482
sI10
g483
sI11
g484
sI12
g485
sI13
g486
sI14
g487
ssg58
(dp506
I0
F38.2273
sI1
F58.58643
sI2
F74.28584
sI3
F59.65257
sI4
F76.0295
sI5
F60.19184
sI6
F73.98759
sI7
F40.354
sI8
F35.96395
sI9
F36.32896
sI10
F62.56479
sI11
F37.59146
sI12
F59.93076
sI13
F76.00178
sI14
F75.97092
ssg60
(dp507
I0
F11.197933333333335
sI1
Fnan
sI2
Fnan
sI3
Fnan
sI4
Fnan
sI5
Fnan
sI6
Fnan
sI7
Fnan
sI8
Fnan
sI9
Fnan
sI10
Fnan
sI11
Fnan
sI12
Fnan
sI13
Fnan
sI14
Fnan
ssg62
(dp508
I0
F0.7155893798590156
sI1
Fnan
sI2
Fnan
sI3
Fnan
sI4
Fnan
sI5
Fnan
sI6
Fnan
sI7
Fnan
sI8
Fnan
sI9
Fnan
sI10
Fnan
sI11
Fnan
sI12
Fnan
sI13
Fnan
sI14
Fnan
ssg64
(dp509
I0
F2.953361
sI1
F-3.381678
sI2
F-4.116048
sI3
F-2.581304
sI4
F6.220055
sI5
F5.235036
sI6
F3.980614
sI7
F4.410203
sI8
F1.909285
sI9
F4.534145
sI10
F5.855199
sI11
F3.198671
sI12
F-3.000118
sI13
F3.457081
sI14
F5.405675
ssg66
(dp510
I0
F11.562199999999997
sI1
Fnan
sI2
Fnan
sI3
Fnan
sI4
Fnan
sI5
Fnan
sI6
Fnan
sI7
Fnan
sI8
Fnan
sI9
Fnan
sI10
Fnan
sI11
Fnan
sI12
Fnan
sI13
Fnan
sI14
Fnan
ssg68
(dp511
I0
g473
sI1
g474
sI2
g475
sI3
g476
sI4
g477
sI5
g478
sI6
g479
sI7
g480
sI8
g481
sI9
g482
sI10
g483
sI11
g484
sI12
g485
sI13
g486
sI14
g487
ssg70
(dp512
I0
F5873.55
sI1
F6116.1033333333335
sI2
F6115.816666666667
sI3
F6065.263333333333
sI4
F5832.286666666667
sI5
F6041.086666666667
sI6
F6025.52
sI7
F5873.8
sI8
F5851.433333333333
sI9
F5809.346666666666
sI10
F5889.593333333333
sI11
F5774.823333333334
sI12
F6153.5233333333335
sI13
F5989.593333333333
sI14
F5989.413333333333
ssg72
(dp513
I0
F1.058791
sI1
F1.035201
sI2
F1.0152809999999999
sI3
F1.03257
sI4
F1.016899
sI5
F1.033435
sI6
F1.01476
sI7
F1.057567
sI8
F1.06128
sI9
F1.062541
sI10
F1.03172
sI11
F1.060036
sI12
F1.034306
sI13
F1.016348
sI14
F1.0158049999999998
ssg74
(dp514
I0
F5035.863333333333
sI1
F5223.11
sI2
F5239.46
sI3
F5169.296666666666
sI4
F5030.626666666666
sI5
F5203.42
sI6
F5187.54
sI7
F5030.173333333334
sI8
F5026.456666666667
sI9
F4950.526666666667
sI10
F5040.58
sI11
F4949.48
sI12
F5257.783333333334
sI13
F5176.42
sI14
F5192.4766666666665
ssg76
(dp515
I0
F8215.083333333334
sI1
F8528.096666666666
sI2
F8529.113333333333
sI3
F8474.953333333333
sI4
F8200.72
sI5
F8449.443333333333
sI6
F8416.46
sI7
F8223.466666666667
sI8
F8163.133333333333
sI9
F8119.486666666667
sI10
F8245.626666666667
sI11
F8095.703333333334
sI12
F8563.656666666668
sI13
F8416.523333333334
sI14
F8360.336666666666
ssg78
(dp516
I0
F37.82321
sI1
F59.07494
sI2
F73.53086
sI3
F61.89688
sI4
F75.84611
sI5
F60.38843
sI6
F73.81249
sI7
F38.99971
sI8
F36.40749
sI9
F35.77369
sI10
F61.83664
sI11
F36.96623
sI12
F58.30762
sI13
F74.39719
sI14
F74.39895
ssg80
(dp517
I0
F11.745
sI1
F11.705
sI2
F11.702
sI3
F11.716
sI4
F11.746
sI5
F11.709
sI6
F11.713
sI7
F11.746
sI8
F11.747
sI9
F11.763
sI10
F11.744
sI11
F11.764
sI12
F11.698
sI13
F11.715
sI14
F11.712
ssg82
(dp518
I0
F0.002
sI1
F0.002
sI2
F0.002
sI3
F0.002
sI4
F0.002
sI5
F0.002
sI6
F0.002
sI7
F0.002
sI8
F0.002
sI9
F0.002
sI10
F0.002
sI11
F0.002
sI12
F0.002
sI13
F0.002
sI14
F0.002
ssg84
(dp519
I0
F0.6876993952762745
sI1
Fnan
sI2
Fnan
sI3
Fnan
sI4
Fnan
sI5
Fnan
sI6
Fnan
sI7
Fnan
sI8
Fnan
sI9
Fnan
sI10
Fnan
sI11
Fnan
sI12
Fnan
sI13
Fnan
sI14
Fnan
ssg86
(dp520
I0
F11.728333333333333
sI1
Fnan
sI2
Fnan
sI3
Fnan
sI4
Fnan
sI5
Fnan
sI6
Fnan
sI7
Fnan
sI8
Fnan
sI9
Fnan
sI10
Fnan
sI11
Fnan
sI12
Fnan
sI13
Fnan
sI14
Fnan
ssg88
(dp521
I0
F11.578
sI1
F11.534
sI2
F11.534
sI3
F11.543
sI4
F11.585
sI5
F11.547
sI6
F11.55
sI7
F11.578
sI8
F11.582
sI9
F11.59
sI10
F11.575
sI11
F11.596
sI12
F11.527
sI13
F11.557
sI14
F11.557
ssg90
(dp522
I0
F3.190902
sI1
F4.322346
sI2
F-1.422698
sI3
F4.254986
sI4
F5.306156
sI5
F2.507693
sI6
F-1.899992
sI7
F1.353035
sI8
F-4.314309
sI9
F-4.272495
sI10
F5.747176
sI11
F3.86551
sI12
F-3.667389
sI13
F2.914769
sI14
F-1.614956
ssg92
(dp523
I0
F0.020731158973413825
sI1
Fnan
sI2
Fnan
sI3
Fnan
sI4
Fnan
sI5
Fnan
sI6
Fnan
sI7
Fnan
sI8
Fnan
sI9
Fnan
sI10
Fnan
sI11
Fnan
sI12
Fnan
sI13
Fnan
sI14
Fnan
ssg94
(dp524
I0
F0.7148831563979471
sI1
F0.7133349722074267
sI2
F0.7155322695294549
sI3
F0.7110343380944575
sI4
F0.7169706088170222
sI5
F0.71818215068738
sI6
F0.7183973388690471
sI7
F0.7136381047862708
sI8
F0.7173188848745473
sI9
F0.7108314886386752
sI10
F0.713194417914967
sI11
F0.713668647044885
sI12
F0.7145096184640446
sI13
F0.7186419657390899
sI14
F0.7237027358200201
ssg96
(dp525
I0
F30.0
sI1
F30.0
sI2
F30.0
sI3
F30.0
sI4
F30.0
sI5
F30.0
sI6
F30.0
sI7
F30.0
sI8
F30.0
sI9
F30.0
sI10
F30.0
sI11
F30.0
sI12
F30.0
sI13
F30.0
sI14
F30.0
ssg98
(dp526
I0
F0.003
sI1
F0.003
sI2
F0.003
sI3
F0.003
sI4
F0.003
sI5
F0.003
sI6
F0.003
sI7
F0.003
sI8
F0.003
sI9
F0.003
sI10
F0.003
sI11
F0.003
sI12
F0.003
sI13
F0.003
sI14
F0.003
ssg100
(dp527
I0
F0.003
sI1
F0.003
sI2
F0.003
sI3
F0.003
sI4
F0.003
sI5
F0.003
sI6
F0.003
sI7
F0.003
sI8
F0.003
sI9
F0.003
sI10
F0.003
sI11
F0.003
sI12
F0.003
sI13
F0.003
sI14
F0.003
ssg102
(dp528
I0
F2.193058
sI1
F4.421084
sI2
F-2.888834
sI3
F4.419298
sI4
F4.43208
sI5
F3.72525
sI6
F-2.368341
sI7
F2.481727
sI8
F3.84349
sI9
F1.118837
sI10
F3.929028
sI11
F-3.114455
sI12
F-2.748616
sI13
F4.217153
sI14
F4.14058
ssg104
(dp529
I0
S'KIC8462852-20180731at052843_-25-1X1-030-V_cal.fts.mag.1'
p530
sI1
S'KIC8462852-20180731at055237_-25-1X1-030-V_cal.fts.mag.1'
p531
sI2
S'KIC8462852-20180731at062306_-25-1X1-030-V_cal.fts.mag.1'
p532
sI3
S'KIC8462852-20180731at055557_-25-1X1-030-V_cal.fts.mag.1'
p533
sI4
S'KIC8462852-20180731at061944_-25-1X1-030-V_cal.fts.mag.1'
p534
sI5
S'KIC8462852-20180731at055453_-25-1X1-030-V_cal.fts.mag.1'
p535
sI6
S'KIC8462852-20180731at062411_-25-1X1-030-V_cal.fts.mag.1'
p536
sI7
S'KIC8462852-20180731at052949_-25-1X1-030-V_cal.fts.mag.1'
p537
sI8
S'KIC8462852-20180731at052634_-25-1X1-030-V_cal.fts.mag.1'
p538
sI9
S'KIC8462852-20180731at052522_-25-1X1-030-V_cal.fts.mag.1'
p539
sI10
S'KIC8462852-20180731at055702_-25-1X1-030-V_cal.fts.mag.1'
p540
sI11
S'KIC8462852-20180731at052739_-25-1X1-030-V_cal.fts.mag.1'
p541
sI12
S'KIC8462852-20180731at055348_-25-1X1-030-V_cal.fts.mag.1'
p542
sI13
S'KIC8462852-20180731at062057_-25-1X1-030-V_cal.fts.mag.1'
p543
sI14
S'KIC8462852-20180731at062201_-25-1X1-030-V_cal.fts.mag.1'
p544
ssg121
(dp545
I0
F0.004357334993620441
sI1
Fnan
sI2
Fnan
sI3
Fnan
sI4
Fnan
sI5
Fnan
sI6
Fnan
sI7
Fnan
sI8
Fnan
sI9
Fnan
sI10
Fnan
sI11
Fnan
sI12
Fnan
sI13
Fnan
sI14
Fnan
ssg123
(dp546
I0
F4377.47
sI1
F4546.27
sI2
F4537.276666666667
sI3
F4522.673333333334
sI4
F4376.543333333333
sI5
F4502.303333333333
sI6
F4501.326666666666
sI7
F4389.656666666667
sI8
F4380.903333333334
sI9
F4305.08
sI10
F4369.256666666667
sI11
F4322.873333333333
sI12
F4618.266666666666
sI13
F4486.8966666666665
sI14
F4497.4
ssg125
(dp547
I0
F0.022886885410853146
sI1
Fnan
sI2
Fnan
sI3
Fnan
sI4
Fnan
sI5
Fnan
sI6
Fnan
sI7
Fnan
sI8
Fnan
sI9
Fnan
sI10
Fnan
sI11
Fnan
sI12
Fnan
sI13
Fnan
sI14
Fnan
ssg127
(dp548
I0
g469
sI1
g469
sI2
g469
sI3
g469
sI4
g469
sI5
g469
sI6
g469
sI7
g469
sI8
g469
sI9
g469
sI10
g469
sI11
g469
sI12
g469
sI13
g469
sI14
g469
ssg144
(dp549
I0
F0.0026587479698980043
sI1
Fnan
sI2
Fnan
sI3
Fnan
sI4
Fnan
sI5
Fnan
sI6
Fnan
sI7
Fnan
sI8
Fnan
sI9
Fnan
sI10
Fnan
sI11
Fnan
sI12
Fnan
sI13
Fnan
sI14
Fnan
ssg146
(dp550
I0
F-3.008696
sI1
F3.033708
sI2
F4.438303
sI3
F4.562638
sI4
F3.502706
sI5
F-2.762093
sI6
F5.772612
sI7
F2.842429
sI8
F4.166833
sI9
F-2.906997
sI10
F5.322402
sI11
F4.00521
sI12
F3.618546
sI13
F3.70303
sI14
F6.318646
ssg148
(dp551
I0
F1.5050570012926758
sI1
Fnan
sI2
Fnan
sI3
Fnan
sI4
Fnan
sI5
Fnan
sI6
Fnan
sI7
Fnan
sI8
Fnan
sI9
Fnan
sI10
Fnan
sI11
Fnan
sI12
Fnan
sI13
Fnan
sI14
Fnan
ssg150
(dp552
I0
F2458330.7464467594
sI1
Fnan
sI2
Fnan
sI3
Fnan
sI4
Fnan
sI5
Fnan
sI6
Fnan
sI7
Fnan
sI8
Fnan
sI9
Fnan
sI10
Fnan
sI11
Fnan
sI12
Fnan
sI13
Fnan
sI14
Fnan
ssg152
(dp553
I0
F0.0026587479698980043
sI1
Fnan
sI2
Fnan
sI3
Fnan
sI4
Fnan
sI5
Fnan
sI6
Fnan
sI7
Fnan
sI8
Fnan
sI9
Fnan
sI10
Fnan
sI11
Fnan
sI12
Fnan
sI13
Fnan
sI14
Fnan
ssg154
(dp554
I0
F39.4127
sI1
F59.55384
sI2
F75.32807
sI3
F62.56514
sI4
F76.95941
sI5
F61.49942
sI6
F74.90398
sI7
F41.17907
sI8
F36.79248
sI9
F38.43986
sI10
F63.38219
sI11
F38.89364
sI12
F61.19151
sI13
F76.47243
sI14
F77.48283
ssg156
(dp555
I0
F11.213
sI1
F11.173
sI2
F11.173
sI3
F11.18
sI4
F11.215
sI5
F11.183
sI6
F11.187
sI7
F11.212
sI8
F11.22
sI9
F11.226
sI10
F11.209
sI11
F11.229
sI12
F11.168
sI13
F11.187
sI14
F11.194
ssg158
(dp556
I0
F0.6876993952762745
sI1
Fnan
sI2
Fnan
sI3
Fnan
sI4
Fnan
sI5
Fnan
sI6
Fnan
sI7
Fnan
sI8
Fnan
sI9
Fnan
sI10
Fnan
sI11
Fnan
sI12
Fnan
sI13
Fnan
sI14
Fnan
sss.