(dp0
S'i'
p1
(dp2
S'sigmean'
p3
(dp4
I0
F0.44075964162424613
sI1
Fnan
sI2
Fnan
sI3
Fnan
sI4
Fnan
sI5
Fnan
sI6
Fnan
sI7
Fnan
sI8
Fnan
sI9
Fnan
sI10
Fnan
sI11
Fnan
sI12
Fnan
sI13
Fnan
sI14
Fnan
ssS'ref3flag'
p5
(dp6
I0
S'NoError'
p7
sI1
S'NoError'
p8
sI2
S'NoError'
p9
sI3
S'NoError'
p10
sI4
S'NoError'
p11
sI5
S'NoError'
p12
sI6
S'NoError'
p13
sI7
S'NoError'
p14
sI8
S'NoError'
p15
sI9
S'NoError'
p16
sI10
S'NoError'
p17
sI11
S'NoError'
p18
sI12
S'NoError'
p19
sI13
S'NoError'
p20
sI14
S'NoError'
p21
ssS'tabbyerr'
p22
(dp23
I0
F0.003
sI1
F0.003
sI2
F0.003
sI3
F0.003
sI4
F0.003
sI5
F0.003
sI6
F0.003
sI7
F0.003
sI8
F0.003
sI9
F0.003
sI10
F0.003
sI11
F0.003
sI12
F0.003
sI13
F0.003
sI14
F0.003
ssS'ref2rel'
p24
(dp25
I0
F0.9077874818893747
sI1
F0.9099769942811797
sI2
F0.9122365623177742
sI3
F0.9150362716364983
sI4
F0.9140859981719307
sI5
F0.9118400933115939
sI6
F0.9147348058956496
sI7
F0.9113249932253155
sI8
F0.9092470884813436
sI9
F0.9090929764247115
sI10
F0.9127656782566191
sI11
F0.9133560384377264
sI12
F0.9107911641604512
sI13
F0.9134840691783391
sI14
F0.9139941683605382
ssS'ref2err'
p26
(dp27
I0
F0.00222831400855662
sI1
Fnan
sI2
Fnan
sI3
Fnan
sI4
Fnan
sI5
Fnan
sI6
Fnan
sI7
Fnan
sI8
Fnan
sI9
Fnan
sI10
Fnan
sI11
Fnan
sI12
Fnan
sI13
Fnan
sI14
Fnan
ssS'ref2mean'
p28
(dp29
I0
F0.9119836256019365
sI1
Fnan
sI2
Fnan
sI3
Fnan
sI4
Fnan
sI5
Fnan
sI6
Fnan
sI7
Fnan
sI8
Fnan
sI9
Fnan
sI10
Fnan
sI11
Fnan
sI12
Fnan
sI13
Fnan
sI14
Fnan
ssS'tabbymag'
p30
(dp31
I0
F11.908
sI1
F11.924
sI2
F11.895
sI3
F11.889
sI4
F11.905
sI5
F11.904
sI6
F11.922
sI7
F11.939
sI8
F11.904
sI9
F11.945
sI10
F11.898
sI11
F11.916
sI12
F11.961
sI13
F11.952
sI14
F11.928
ssS'tabbybkg'
p32
(dp33
I0
F22.04804
sI1
F23.56546
sI2
F21.4973
sI3
F17.85779
sI4
F18.99718
sI5
F19.30989
sI6
F24.10075
sI7
F22.57598
sI8
F18.27139
sI9
F20.39197
sI10
F18.08724
sI11
F22.39624
sI12
F21.94036
sI13
F22.31454
sI14
F20.03496
ssS'JD'
p34
(dp35
I0
F2458437.572974537
sI1
F2458437.5714930557
sI2
F2458437.572222222
sI3
F2458437.613923611
sI4
F2458437.6154050925
sI5
F2458437.614675926
sI6
F2458437.5707523148
sI7
F2458437.5919675925
sI8
F2458437.61318287
sI9
F2458437.5941898148
sI10
F2458437.6161458334
sI11
F2458437.5927083334
sI12
F2458437.5934606483
sI13
F2458437.573703704
sI14
F2458437.5949305557
ssS'ref3rmsmean'
p36
(dp37
I0
F2.0831992
sI1
Fnan
sI2
Fnan
sI3
Fnan
sI4
Fnan
sI5
Fnan
sI6
Fnan
sI7
Fnan
sI8
Fnan
sI9
Fnan
sI10
Fnan
sI11
Fnan
sI12
Fnan
sI13
Fnan
sI14
Fnan
ssS'ref1rmsmean'
p38
(dp39
I0
F1.3793344
sI1
Fnan
sI2
Fnan
sI3
Fnan
sI4
Fnan
sI5
Fnan
sI6
Fnan
sI7
Fnan
sI8
Fnan
sI9
Fnan
sI10
Fnan
sI11
Fnan
sI12
Fnan
sI13
Fnan
sI14
Fnan
ssS'relflux'
p40
(dp41
I0
F0.44432192814764937
sI1
F0.4381706292653467
sI2
F0.44150097234685826
sI3
F0.4433550585078651
sI4
F0.44124094163245364
sI5
F0.44257753041317566
sI6
F0.44211233127662
sI7
F0.4396152165218981
sI8
F0.43957184543003996
sI9
F0.43989425679968136
sI10
F0.4433122564286287
sI11
F0.4393492731325766
sI12
F0.43915473513893977
sI13
F0.438889703756362
sI14
F0.44189023208899963
ssS'sigerr'
p42
(dp43
I0
F0.0016621834191091344
sI1
Fnan
sI2
Fnan
sI3
Fnan
sI4
Fnan
sI5
Fnan
sI6
Fnan
sI7
Fnan
sI8
Fnan
sI9
Fnan
sI10
Fnan
sI11
Fnan
sI12
Fnan
sI13
Fnan
sI14
Fnan
ssS'tabbyrmsmean'
p44
(dp45
I0
F0.47563326666666655
sI1
Fnan
sI2
Fnan
sI3
Fnan
sI4
Fnan
sI5
Fnan
sI6
Fnan
sI7
Fnan
sI8
Fnan
sI9
Fnan
sI10
Fnan
sI11
Fnan
sI12
Fnan
sI13
Fnan
sI14
Fnan
ssS'tabbyflag'
p46
(dp47
I0
g7
sI1
g8
sI2
g9
sI3
g10
sI4
g11
sI5
g12
sI6
g13
sI7
g14
sI8
g15
sI9
g16
sI10
g17
sI11
g18
sI12
g19
sI13
g20
sI14
g21
ssS'ref1err'
p48
(dp49
I0
F0.0019921571870363665
sI1
Fnan
sI2
Fnan
sI3
Fnan
sI4
Fnan
sI5
Fnan
sI6
Fnan
sI7
Fnan
sI8
Fnan
sI9
Fnan
sI10
Fnan
sI11
Fnan
sI12
Fnan
sI13
Fnan
sI14
Fnan
ssS'ref2magmeanerr'
p50
(dp51
I0
F0.01954189638406955
sI1
Fnan
sI2
Fnan
sI3
Fnan
sI4
Fnan
sI5
Fnan
sI6
Fnan
sI7
Fnan
sI8
Fnan
sI9
Fnan
sI10
Fnan
sI11
Fnan
sI12
Fnan
sI13
Fnan
sI14
Fnan
ssS'ref2rmsmean'
p52
(dp53
I0
F1.4079464666666668
sI1
Fnan
sI2
Fnan
sI3
Fnan
sI4
Fnan
sI5
Fnan
sI6
Fnan
sI7
Fnan
sI8
Fnan
sI9
Fnan
sI10
Fnan
sI11
Fnan
sI12
Fnan
sI13
Fnan
sI14
Fnan
ssS'ref3rel'
p54
(dp55
I0
F1.4976474875038968
sI1
F1.504790522568302
sI2
F1.494806752375489
sI3
F1.4938668734292575
sI4
F1.4922364109116972
sI5
F1.4982144964737714
sI6
F1.4946922900800275
sI7
F1.499422416725318
sI8
F1.500145179195556
sI9
F1.5012892462321412
sI10
F1.4966188922631378
sI11
F1.4999458664946579
sI12
F1.5023323223463456
sI13
F1.5032024473707755
sI14
F1.4978346201897361
ssS'ref1flag'
p56
(dp57
I0
g7
sI1
g8
sI2
g9
sI3
g10
sI4
g11
sI5
g12
sI6
g13
sI7
g14
sI8
g15
sI9
g16
sI10
g17
sI11
g18
sI12
g19
sI13
g20
sI14
g21
ssS'ref2bkg'
p58
(dp59
I0
F23.41377
sI1
F24.05031
sI2
F22.6754
sI3
F18.71702
sI4
F19.04616
sI5
F18.70377
sI6
F24.12172
sI7
F23.10178
sI8
F18.74782
sI9
F22.40195
sI10
F18.89682
sI11
F21.2784
sI12
F22.73165
sI13
F24.08741
sI14
F21.2441
ssS'ref3magmean'
p60
(dp61
I0
F10.758133333333335
sI1
Fnan
sI2
Fnan
sI3
Fnan
sI4
Fnan
sI5
Fnan
sI6
Fnan
sI7
Fnan
sI8
Fnan
sI9
Fnan
sI10
Fnan
sI11
Fnan
sI12
Fnan
sI13
Fnan
sI14
Fnan
ssS'ref1mean'
p62
(dp63
I0
F0.6972240395095006
sI1
Fnan
sI2
Fnan
sI3
Fnan
sI4
Fnan
sI5
Fnan
sI6
Fnan
sI7
Fnan
sI8
Fnan
sI9
Fnan
sI10
Fnan
sI11
Fnan
sI12
Fnan
sI13
Fnan
sI14
Fnan
ssS'ref1rms'
p64
(dp65
I0
F2.260863
sI1
F-2.773523
sI2
F2.648972
sI3
F2.779105
sI4
F3.676507
sI5
F-2.118005
sI6
F3.485904
sI7
F-1.942132
sI8
F2.982126
sI9
F3.187163
sI10
F2.937027
sI11
F2.262761
sI12
F2.559144
sI13
F-3.673732
sI14
F2.417836
ssS'ref2magmean'
p66
(dp67
I0
F11.0982
sI1
Fnan
sI2
Fnan
sI3
Fnan
sI4
Fnan
sI5
Fnan
sI6
Fnan
sI7
Fnan
sI8
Fnan
sI9
Fnan
sI10
Fnan
sI11
Fnan
sI12
Fnan
sI13
Fnan
sI14
Fnan
ssS'ref2flag'
p68
(dp69
I0
g7
sI1
g8
sI2
g9
sI3
g10
sI4
g11
sI5
g12
sI6
g13
sI7
g14
sI8
g15
sI9
g16
sI10
g17
sI11
g18
sI12
g19
sI13
g20
sI14
g21
ssS'ref2'
p70
(dp71
I0
F9129.983333333334
sI1
F9139.04
sI2
F9331.643333333333
sI3
F9368.586666666666
sI4
F9267.186666666666
sI5
F9235.183333333332
sI6
F9109.206666666667
sI7
F8995.97
sI8
F9274.323333333334
sI9
F8928.09
sI10
F9274.703333333333
sI11
F9205.703333333333
sI12
F8822.96
sI13
F8920.966666666667
sI14
F9055.35
ssS'airmass'
p72
(dp73
I0
F1.057991
sI1
F1.055609
sI2
F1.056801
sI3
F1.149722
sI4
F1.154076
sI5
F1.151893
sI6
F1.054451
sI7
F1.093988
sI8
F1.147556
sI9
F1.098902
sI10
F1.156283
sI11
F1.095613
sI12
F1.097242
sI13
F1.059195
sI14
F1.1005610000000001
ssS'ref1'
p74
(dp75
I0
F7592.5633333333335
sI1
F7538.333333333333
sI2
F7716.776666666667
sI3
F7715.956666666667
sI4
F7652.3933333333325
sI5
F7625.6066666666675
sI6
F7502.163333333333
sI7
F7428.79
sI8
F7681.733333333334
sI9
F7391.5233333333335
sI10
F7654.166666666667
sI11
F7573.8
sI12
F7279.016666666666
sI13
F7322.86
sI14
F7452.1466666666665
ssS'ref3'
p76
(dp77
I0
F12522.24
sI1
F12547.976666666666
sI2
F12742.046666666667
sI3
F12761.016666666666
sI4
F12624.006666666666
sI5
F12630.54
sI6
F12414.443333333333
sI7
F12313.826666666666
sI8
F12718.273333333334
sI9
F12250.230000000001
sI10
F12668.033333333333
sI11
F12584.173333333334
sI12
F12095.26
sI13
F12208.880000000001
sI14
F12362.75
ssS'ref1bkg'
p78
(dp79
I0
F22.23079
sI1
F22.54446
sI2
F22.63493
sI3
F18.98498
sI4
F18.977
sI5
F19.95443
sI6
F22.67256
sI7
F23.54794
sI8
F18.11126
sI9
F21.96536
sI10
F19.33319
sI11
F22.4574
sI12
F22.6789
sI13
F23.3618
sI14
F20.88955
ssS'ref1mag'
p80
(dp81
I0
F11.299
sI1
F11.307
sI2
F11.281
sI3
F11.282
sI4
F11.291
sI5
F11.294
sI6
F11.312
sI7
F11.323
sI8
F11.286
sI9
F11.328
sI10
F11.29
sI11
F11.302
sI12
F11.345
sI13
F11.338
sI14
F11.319
ssS'ref3magerr'
p82
(dp83
I0
F0.002
sI1
F0.002
sI2
F0.002
sI3
F0.002
sI4
F0.002
sI5
F0.002
sI6
F0.002
sI7
F0.002
sI8
F0.002
sI9
F0.002
sI10
F0.002
sI11
F0.002
sI12
F0.002
sI13
F0.002
sI14
F0.002
ssS'tabbymagmean'
p84
(dp85
I0
F0.44099712739247293
sI1
Fnan
sI2
Fnan
sI3
Fnan
sI4
Fnan
sI5
Fnan
sI6
Fnan
sI7
Fnan
sI8
Fnan
sI9
Fnan
sI10
Fnan
sI11
Fnan
sI12
Fnan
sI13
Fnan
sI14
Fnan
ssS'ref1magmean'
p86
(dp87
I0
F11.306466666666665
sI1
Fnan
sI2
Fnan
sI3
Fnan
sI4
Fnan
sI5
Fnan
sI6
Fnan
sI7
Fnan
sI8
Fnan
sI9
Fnan
sI10
Fnan
sI11
Fnan
sI12
Fnan
sI13
Fnan
sI14
Fnan
ssS'ref2mag'
p88
(dp89
I0
F11.099
sI1
F11.098
sI2
F11.075
sI3
F11.071
sI4
F11.083
sI5
F11.086
sI6
F11.101
sI7
F11.115
sI8
F11.082
sI9
F11.123
sI10
F11.082
sI11
F11.09
sI12
F11.136
sI13
F11.124
sI14
F11.108
ssS'ref3rms'
p90
(dp91
I0
F3.554753
sI1
F3.907207
sI2
F3.024574
sI3
F2.480096
sI4
F-3.157414
sI5
F3.672261
sI6
F3.599227
sI7
F4.319664
sI8
F5.084436
sI9
F3.75103
sI10
F-0.593776
sI11
F2.657266
sI12
F4.360423
sI13
F-1.139638
sI14
F-4.272121
ssS'ref3magmeanerr'
p92
(dp93
I0
F0.01829858178215142
sI1
Fnan
sI2
Fnan
sI3
Fnan
sI4
Fnan
sI5
Fnan
sI6
Fnan
sI7
Fnan
sI8
Fnan
sI9
Fnan
sI10
Fnan
sI11
Fnan
sI12
Fnan
sI13
Fnan
sI14
Fnan
ssS'ref1rel'
p94
(dp95
I0
F0.701319510375147
sI1
F0.6951932069955834
sI2
F0.699183205586983
sI3
F0.6973425190178888
sI4
F0.6991298479540783
sI5
F0.697494114456462
sI6
F0.6971088391916178
sI7
F0.697218290366919
sI8
F0.6985744748346375
sI9
F0.6980273537592532
sI10
F0.6976492297147379
sI11
F0.6951668534761479
sI12
F0.6959499103333521
sI13
F0.6931294973902634
sI14
F0.6958737391894395
ssS'exposure'
p96
(dp97
I0
F30.0
sI1
F30.0
sI2
F30.0
sI3
F30.0
sI4
F30.0
sI5
F30.0
sI6
F30.0
sI7
F30.0
sI8
F30.0
sI9
F30.0
sI10
F30.0
sI11
F30.0
sI12
F30.0
sI13
F30.0
sI14
F30.0
ssS'ref1magerr'
p98
(dp99
I0
F0.002
sI1
F0.002
sI2
F0.002
sI3
F0.002
sI4
F0.002
sI5
F0.002
sI6
F0.002
sI7
F0.002
sI8
F0.002
sI9
F0.002
sI10
F0.002
sI11
F0.002
sI12
F0.002
sI13
F0.002
sI14
F0.002
ssS'ref2magerr'
p100
(dp101
I0
F0.002
sI1
F0.002
sI2
F0.002
sI3
F0.002
sI4
F0.002
sI5
F0.002
sI6
F0.002
sI7
F0.002
sI8
F0.002
sI9
F0.002
sI10
F0.002
sI11
F0.002
sI12
F0.002
sI13
F0.002
sI14
F0.002
ssS'ref2rms'
p102
(dp103
I0
F-3.327927
sI1
F-3.404265
sI2
F-1.493738
sI3
F-3.524809
sI4
F5.071126
sI5
F3.965825
sI6
F3.794576
sI7
F2.831287
sI8
F3.373901
sI9
F2.401402
sI10
F-1.229798
sI11
F4.16791
sI12
F4.26755
sI13
F2.108781
sI14
F2.117376
ssS'name'
p104
(dp105
I0
S"KIC8462852-20181115at014505_-25-1X1-030-i'_cal.fts.mag.1"
p106
sI1
S"KIC8462852-20181115at014257_-25-1X1-030-i'_cal.fts.mag.1"
p107
sI2
S"KIC8462852-20181115at014400_-25-1X1-030-i'_cal.fts.mag.1"
p108
sI3
S"KIC8462852-20181115at024403_-25-1X1-030-i'_cal.fts.mag.1"
p109
sI4
S"KIC8462852-20181115at024611_-25-1X1-030-i'_cal.fts.mag.1"
p110
sI5
S"KIC8462852-20181115at024508_-25-1X1-030-i'_cal.fts.mag.1"
p111
sI6
S"KIC8462852-20181115at014152_-25-1X1-030-i'_cal.fts.mag.1"
p112
sI7
S"KIC8462852-20181115at021225_-25-1X1-030-i'_cal.fts.mag.1"
p113
sI8
S"KIC8462852-20181115at024258_-25-1X1-030-i'_cal.fts.mag.1"
p114
sI9
S"KIC8462852-20181115at021538_-25-1X1-030-i'_cal.fts.mag.1"
p115
sI10
S"KIC8462852-20181115at024715_-25-1X1-030-i'_cal.fts.mag.1"
p116
sI11
S"KIC8462852-20181115at021330_-25-1X1-030-i'_cal.fts.mag.1"
p117
sI12
S"KIC8462852-20181115at021435_-25-1X1-030-i'_cal.fts.mag.1"
p118
sI13
S"KIC8462852-20181115at014608_-25-1X1-030-i'_cal.fts.mag.1"
p119
sI14
S"KIC8462852-20181115at021642_-25-1X1-030-i'_cal.fts.mag.1"
p120
ssS'ref3err'
p121
(dp122
I0
F0.0036195032151474845
sI1
Fnan
sI2
Fnan
sI3
Fnan
sI4
Fnan
sI5
Fnan
sI6
Fnan
sI7
Fnan
sI8
Fnan
sI9
Fnan
sI10
Fnan
sI11
Fnan
sI12
Fnan
sI13
Fnan
sI14
Fnan
ssS'tabby'
p123
(dp124
I0
F4331.366666666667
sI1
F4268.5633333333335
sI2
F4384.173333333334
sI3
F4410.7266666666665
sI4
F4345.28
sI5
F4350.733333333334
sI6
F4277.556666666666
sI7
F4211.306666666666
sI8
F4348.0
sI9
F4189.236666666667
sI10
F4373.556666666667
sI11
F4300.303333333333
sI12
F4127.65
sI13
F4162.533333333334
sI14
F4252.493333333334
ssS'ref1magmeanerr'
p125
(dp126
I0
F0.020374587346098805
sI1
Fnan
sI2
Fnan
sI3
Fnan
sI4
Fnan
sI5
Fnan
sI6
Fnan
sI7
Fnan
sI8
Fnan
sI9
Fnan
sI10
Fnan
sI11
Fnan
sI12
Fnan
sI13
Fnan
sI14
Fnan
ssS'filter'
p127
(dp128
I0
S"i'"
p129
sI1
S"i'"
p130
sI2
S"i'"
p131
sI3
S"i'"
p132
sI4
S"i'"
p133
sI5
S"i'"
p134
sI6
S"i'"
p135
sI7
S"i'"
p136
sI8
S"i'"
p137
sI9
S"i'"
p138
sI10
S"i'"
p139
sI11
S"i'"
p140
sI12
S"i'"
p141
sI13
S"i'"
p142
sI14
S"i'"
p143
ssS'tabbymagerr'
p144
(dp145
I0
F0.0018996963100495912
sI1
Fnan
sI2
Fnan
sI3
Fnan
sI4
Fnan
sI5
Fnan
sI6
Fnan
sI7
Fnan
sI8
Fnan
sI9
Fnan
sI10
Fnan
sI11
Fnan
sI12
Fnan
sI13
Fnan
sI14
Fnan
ssS'tabbyrms'
p146
(dp147
I0
F2.919584
sI1
F-3.760542
sI2
F4.740676
sI3
F4.135999
sI4
F-4.303524
sI5
F-3.391253
sI6
F-2.85231
sI7
F1.829631
sI8
F3.561414
sI9
F4.618494
sI10
F-2.166428
sI11
F-3.141374
sI12
F-1.883692
sI13
F1.623053
sI14
F5.204771
ssS'ref3mean'
p148
(dp149
I0
F1.498469721610674
sI1
Fnan
sI2
Fnan
sI3
Fnan
sI4
Fnan
sI5
Fnan
sI6
Fnan
sI7
Fnan
sI8
Fnan
sI9
Fnan
sI10
Fnan
sI11
Fnan
sI12
Fnan
sI13
Fnan
sI14
Fnan
ssS'median_JD'
p150
(dp151
I0
F2458437.5934606483
sI1
Fnan
sI2
Fnan
sI3
Fnan
sI4
Fnan
sI5
Fnan
sI6
Fnan
sI7
Fnan
sI8
Fnan
sI9
Fnan
sI10
Fnan
sI11
Fnan
sI12
Fnan
sI13
Fnan
sI14
Fnan
ssS'error'
p152
(dp153
I0
F0.0018996963100495912
sI1
Fnan
sI2
Fnan
sI3
Fnan
sI4
Fnan
sI5
Fnan
sI6
Fnan
sI7
Fnan
sI8
Fnan
sI9
Fnan
sI10
Fnan
sI11
Fnan
sI12
Fnan
sI13
Fnan
sI14
Fnan
ssS'ref3bkg'
p154
(dp155
I0
F23.80497
sI1
F23.64504
sI2
F23.96541
sI3
F19.1992
sI4
F20.94718
sI5
F19.6828
sI6
F24.40153
sI7
F24.60651
sI8
F18.8091
sI9
F22.71843
sI10
F19.48417
sI11
F23.48947
sI12
F23.71972
sI13
F24.51599
sI14
F23.48183
ssS'ref3mag'
p156
(dp157
I0
F10.756
sI1
F10.754
sI2
F10.737
sI3
F10.735
sI4
F10.747
sI5
F10.746
sI6
F10.765
sI7
F10.774
sI8
F10.739
sI9
F10.78
sI10
F10.743
sI11
F10.75
sI12
F10.793
sI13
F10.783
sI14
F10.77
ssS'mean'
p158
(dp159
I0
F0.44099712739247293
sI1
Fnan
sI2
Fnan
sI3
Fnan
sI4
Fnan
sI5
Fnan
sI6
Fnan
sI7
Fnan
sI8
Fnan
sI9
Fnan
sI10
Fnan
sI11
Fnan
sI12
Fnan
sI13
Fnan
sI14
Fnan
sssS'r'
p160
(dp161
g3
(dp162
I0
F0.5503446511961096
sI1
Fnan
sI2
Fnan
sI3
Fnan
sI4
Fnan
sI5
Fnan
sI6
Fnan
sI7
Fnan
sI8
Fnan
sI9
Fnan
sI10
Fnan
sI11
Fnan
sI12
Fnan
sI13
Fnan
sI14
Fnan
ssg5
(dp163
I0
S'NoError'
p164
sI1
S'NoError'
p165
sI2
S'NoError'
p166
sI3
S'NoError'
p167
sI4
S'NoError'
p168
sI5
S'NoError'
p169
sI6
S'NoError'
p170
sI7
S'NoError'
p171
sI8
S'NoError'
p172
sI9
S'NoError'
p173
sI10
S'NoError'
p174
sI11
S'NoError'
p175
sI12
S'NoError'
p176
sI13
S'NoError'
p177
sI14
S'NoError'
p178
ssg22
(dp179
I0
F0.002
sI1
F0.002
sI2
F0.002
sI3
F0.002
sI4
F0.002
sI5
F0.002
sI6
F0.002
sI7
F0.002
sI8
F0.002
sI9
F0.002
sI10
F0.002
sI11
F0.002
sI12
F0.002
sI13
F0.002
sI14
F0.002
ssg24
(dp180
I0
F0.8958778728392448
sI1
F0.8969134626540297
sI2
F0.8975735622863984
sI3
F0.896398182093474
sI4
F0.8946546704896241
sI5
F0.895449852603793
sI6
F0.8988597260944443
sI7
F0.8973123769236379
sI8
F0.8975629275965269
sI9
F0.896125724049675
sI10
F0.8968496126999804
sI11
F0.8968492014964705
sI12
F0.8943120568741789
sI13
F0.8943338826348785
sI14
F0.8981549688278568
ssg26
(dp181
I0
F0.0013675951471739812
sI1
Fnan
sI2
Fnan
sI3
Fnan
sI4
Fnan
sI5
Fnan
sI6
Fnan
sI7
Fnan
sI8
Fnan
sI9
Fnan
sI10
Fnan
sI11
Fnan
sI12
Fnan
sI13
Fnan
sI14
Fnan
ssg28
(dp182
I0
F0.8964818720109476
sI1
Fnan
sI2
Fnan
sI3
Fnan
sI4
Fnan
sI5
Fnan
sI6
Fnan
sI7
Fnan
sI8
Fnan
sI9
Fnan
sI10
Fnan
sI11
Fnan
sI12
Fnan
sI13
Fnan
sI14
Fnan
ssg30
(dp183
I0
F11.232
sI1
F11.238
sI2
F11.188
sI3
F11.245
sI4
F11.233
sI5
F11.246
sI6
F11.254
sI7
F11.276
sI8
F11.237
sI9
F11.23
sI10
F11.182
sI11
F11.206
sI12
F11.23
sI13
F11.199
sI14
F11.233
ssg32
(dp184
I0
F26.24937
sI1
F29.75157
sI2
F21.07645
sI3
F28.22032
sI4
F27.92816
sI5
F28.86264
sI6
F22.95922
sI7
F28.66595
sI8
F27.41006
sI9
F24.33219
sI10
F20.74236
sI11
F21.37346
sI12
F30.00251
sI13
F20.64813
sI14
F30.48717
ssg34
(dp185
I0
F2458437.590462963
sI1
F2458437.588263889
sI2
F2458437.611678241
sI3
F2458437.589733796
sI4
F2458437.5692708334
sI5
F2458437.5685300925
sI6
F2458437.6094444445
sI7
F2458437.5889930557
sI8
F2458437.57
sI9
F2458437.5912037035
sI10
F2458437.6124189813
sI11
F2458437.610185185
sI12
F2458437.567789352
sI13
F2458437.6109375
sI14
F2458437.567048611
ssg36
(dp186
I0
F2.4089107333333333
sI1
Fnan
sI2
Fnan
sI3
Fnan
sI4
Fnan
sI5
Fnan
sI6
Fnan
sI7
Fnan
sI8
Fnan
sI9
Fnan
sI10
Fnan
sI11
Fnan
sI12
Fnan
sI13
Fnan
sI14
Fnan
ssg38
(dp187
I0
F1.4379035333333334
sI1
Fnan
sI2
Fnan
sI3
Fnan
sI4
Fnan
sI5
Fnan
sI6
Fnan
sI7
Fnan
sI8
Fnan
sI9
Fnan
sI10
Fnan
sI11
Fnan
sI12
Fnan
sI13
Fnan
sI14
Fnan
ssg40
(dp188
I0
F0.5502866360173484
sI1
F0.5497829507981239
sI2
F0.549782171399181
sI3
F0.5510775855286041
sI4
F0.551184087045677
sI5
F0.549166509837098
sI6
F0.5476677708924483
sI7
F0.5489750012901179
sI8
F0.5500825947787817
sI9
F0.5510563911831159
sI10
F0.5514221629366425
sI11
F0.5506793948446443
sI12
F0.5507755947945748
sI13
F0.5519489221382463
sI14
F0.5502093850955151
ssg42
(dp189
I0
F0.0007438673045084613
sI1
Fnan
sI2
Fnan
sI3
Fnan
sI4
Fnan
sI5
Fnan
sI6
Fnan
sI7
Fnan
sI8
Fnan
sI9
Fnan
sI10
Fnan
sI11
Fnan
sI12
Fnan
sI13
Fnan
sI14
Fnan
ssg44
(dp190
I0
F2.2513453999999995
sI1
Fnan
sI2
Fnan
sI3
Fnan
sI4
Fnan
sI5
Fnan
sI6
Fnan
sI7
Fnan
sI8
Fnan
sI9
Fnan
sI10
Fnan
sI11
Fnan
sI12
Fnan
sI13
Fnan
sI14
Fnan
ssg46
(dp191
I0
g164
sI1
g165
sI2
g166
sI3
g167
sI4
g168
sI5
g169
sI6
g170
sI7
g171
sI8
g172
sI9
g173
sI10
g174
sI11
g175
sI12
g176
sI13
g177
sI14
g178
ssg48
(dp192
I0
F0.0014842973032868003
sI1
Fnan
sI2
Fnan
sI3
Fnan
sI4
Fnan
sI5
Fnan
sI6
Fnan
sI7
Fnan
sI8
Fnan
sI9
Fnan
sI10
Fnan
sI11
Fnan
sI12
Fnan
sI13
Fnan
sI14
Fnan
ssg50
(dp193
I0
F0.023981739084641303
sI1
Fnan
sI2
Fnan
sI3
Fnan
sI4
Fnan
sI5
Fnan
sI6
Fnan
sI7
Fnan
sI8
Fnan
sI9
Fnan
sI10
Fnan
sI11
Fnan
sI12
Fnan
sI13
Fnan
sI14
Fnan
ssg52
(dp194
I0
F0.3590974666666666
sI1
Fnan
sI2
Fnan
sI3
Fnan
sI4
Fnan
sI5
Fnan
sI6
Fnan
sI7
Fnan
sI8
Fnan
sI9
Fnan
sI10
Fnan
sI11
Fnan
sI12
Fnan
sI13
Fnan
sI14
Fnan
ssg54
(dp195
I0
F1.4909546373211346
sI1
F1.494192969474284
sI2
F1.4897554075020536
sI3
F1.492202204136932
sI4
F1.4913055074769626
sI5
F1.492660740515016
sI6
F1.4933249212474864
sI7
F1.4955815129837784
sI8
F1.4924589121302039
sI9
F1.4918253175373406
sI10
F1.490427735053914
sI11
F1.4901835844617433
sI12
F1.496674015732209
sI13
F1.4985578684815728
sI14
F1.4899138395845009
ssg56
(dp196
I0
g164
sI1
g165
sI2
g166
sI3
g167
sI4
g168
sI5
g169
sI6
g170
sI7
g171
sI8
g172
sI9
g173
sI10
g174
sI11
g175
sI12
g176
sI13
g177
sI14
g178
ssg58
(dp197
I0
F26.77753
sI1
F30.53093
sI2
F21.37741
sI3
F28.80809
sI4
F30.5818
sI5
F29.79907
sI6
F23.7447
sI7
F29.35814
sI8
F28.4714
sI9
F26.09972
sI10
F21.7735
sI11
F21.98678
sI12
F30.77138
sI13
F21.3418
sI14
F30.94505
ssg60
(dp198
I0
F10.3102
sI1
Fnan
sI2
Fnan
sI3
Fnan
sI4
Fnan
sI5
Fnan
sI6
Fnan
sI7
Fnan
sI8
Fnan
sI9
Fnan
sI10
Fnan
sI11
Fnan
sI12
Fnan
sI13
Fnan
sI14
Fnan
ssg62
(dp199
I0
F0.7141521823623476
sI1
Fnan
sI2
Fnan
sI3
Fnan
sI4
Fnan
sI5
Fnan
sI6
Fnan
sI7
Fnan
sI8
Fnan
sI9
Fnan
sI10
Fnan
sI11
Fnan
sI12
Fnan
sI13
Fnan
sI14
Fnan
ssg64
(dp200
I0
F3.095322
sI1
F-2.841949
sI2
F2.970672
sI3
F2.632121
sI4
F2.883412
sI5
F-3.395797
sI6
F-2.492194
sI7
F2.56457
sI8
F2.386651
sI9
F4.347212
sI10
F4.400277
sI11
F2.768424
sI12
F-4.106593
sI13
F2.256003
sI14
F4.100422
ssg66
(dp201
I0
F10.660533333333335
sI1
Fnan
sI2
Fnan
sI3
Fnan
sI4
Fnan
sI5
Fnan
sI6
Fnan
sI7
Fnan
sI8
Fnan
sI9
Fnan
sI10
Fnan
sI11
Fnan
sI12
Fnan
sI13
Fnan
sI14
Fnan
ssg68
(dp202
I0
g164
sI1
g165
sI2
g166
sI3
g167
sI4
g168
sI5
g169
sI6
g170
sI7
g171
sI8
g172
sI9
g173
sI10
g174
sI11
g175
sI12
g176
sI13
g177
sI14
g178
ssg70
(dp203
I0
F13619.01
sI1
F13567.45
sI2
F14213.58
sI3
F13439.103333333333
sI4
F13573.253333333332
sI5
F13469.556666666667
sI6
F13443.133333333333
sI7
F13123.253333333332
sI8
F13585.256666666666
sI9
F13630.480000000001
sI10
F14238.133333333333
sI11
F13956.323333333334
sI12
F13621.1
sI13
F13988.343333333332
sI14
F13633.47
ssg72
(dp204
I0
F1.090748
sI1
F1.086107
sI2
F1.143243
sI3
F1.089178
sI4
F1.052159
sI5
F1.051046
sI6
F1.136987
sI7
F1.087632
sI8
F1.0532860000000002
sI9
F1.092341
sI10
F1.145378
sI11
F1.1390719999999999
sI12
F1.0499399999999999
sI13
F1.141137
sI14
F1.0488469999999999
ssg74
(dp205
I0
F11602.016666666666
sI1
F11514.79
sI2
F12083.22
sI3
F11429.890000000001
sI4
F11584.243333333334
sI5
F11470.743333333334
sI6
F11378.296666666667
sI7
F11120.716666666667
sI8
F11529.82
sI9
F11600.673333333334
sI10
F12113.693333333333
sI11
F11875.746666666668
sI12
F11592.99
sI13
F11891.173333333334
sI14
F11577.643333333333
ssg76
(dp206
I0
F18801.70333333333
sI1
F18738.853333333333
sI2
F19587.9
sI3
F18554.783333333333
sI4
F18758.756666666664
sI5
F18613.70333333333
sI6
F18533.23
sI7
F18129.416666666668
sI8
F18741.61
sI9
F18820.236666666668
sI10
F19637.746666666666
sI11
F19247.263333333332
sI12
F18868.636666666665
sI13
F19390.97666666667
sI14
F18781.193333333336
ssg78
(dp207
I0
F25.94563
sI1
F28.07397
sI2
F20.96499
sI3
F27.55905
sI4
F27.66062
sI5
F28.54754
sI6
F23.04186
sI7
F29.28718
sI8
F28.00482
sI9
F24.83015
sI10
F20.45673
sI11
F21.66876
sI12
F29.93268
sI13
F21.80473
sI14
F29.43295
ssg80
(dp208
I0
F10.839
sI1
F10.847
sI2
F10.795
sI3
F10.855
sI4
F10.84
sI5
F10.851
sI6
F10.86
sI7
F10.885
sI8
F10.845
sI9
F10.839
sI10
F10.792
sI11
F10.813
sI12
F10.84
sI13
F10.812
sI14
F10.841
ssg82
(dp209
I0
F0.001
sI1
F0.001
sI2
F0.001
sI3
F0.001
sI4
F0.001
sI5
F0.001
sI6
F0.001
sI7
F0.001
sI8
F0.001
sI9
F0.001
sI10
F0.001
sI11
F0.001
sI12
F0.001
sI13
F0.001
sI14
F0.001
ssg84
(dp210
I0
F0.5502731439053413
sI1
Fnan
sI2
Fnan
sI3
Fnan
sI4
Fnan
sI5
Fnan
sI6
Fnan
sI7
Fnan
sI8
Fnan
sI9
Fnan
sI10
Fnan
sI11
Fnan
sI12
Fnan
sI13
Fnan
sI14
Fnan
ssg86
(dp211
I0
F10.836933333333333
sI1
Fnan
sI2
Fnan
sI3
Fnan
sI4
Fnan
sI5
Fnan
sI6
Fnan
sI7
Fnan
sI8
Fnan
sI9
Fnan
sI10
Fnan
sI11
Fnan
sI12
Fnan
sI13
Fnan
sI14
Fnan
ssg88
(dp212
I0
F10.665
sI1
F10.669
sI2
F10.618
sI3
F10.679
sI4
F10.668
sI5
F10.677
sI6
F10.679
sI7
F10.705
sI8
F10.667
sI9
F10.664
sI10
F10.616
sI11
F10.638
sI12
F10.664
sI13
F10.636
sI14
F10.663
ssg90
(dp213
I0
F3.065068
sI1
F4.927322
sI2
F2.491965
sI3
F-2.064986
sI4
F4.26123
sI5
F2.610258
sI6
F3.807596
sI7
F3.359372
sI8
F3.043503
sI9
F1.336934
sI10
F-2.520539
sI11
F2.271755
sI12
F3.80454
sI13
F3.810935
sI14
F1.928708
ssg92
(dp214
I0
F0.023755300160475452
sI1
Fnan
sI2
Fnan
sI3
Fnan
sI4
Fnan
sI5
Fnan
sI6
Fnan
sI7
Fnan
sI8
Fnan
sI9
Fnan
sI10
Fnan
sI11
Fnan
sI12
Fnan
sI13
Fnan
sI14
Fnan
ssg94
(dp215
I0
F0.7157163105808694
sI1
F0.7128509802679375
sI2
F0.7149521263565973
sI3
F0.7145046251544307
sI4
F0.716580462107573
sI5
F0.7150609591003741
sI6
F0.7116692131656831
sI7
F0.7116650620037691
sI8
F0.7133274077495911
sI9
F0.7149717802842567
sI10
F0.7151810275236147
sI11
F0.7153291471724541
sI12
F0.7136401331251172
sI13
F0.7124874523107921
sI14
F0.7143460485321509
ssg96
(dp216
I0
F30.0
sI1
F30.0
sI2
F30.0
sI3
F30.0
sI4
F30.0
sI5
F30.0
sI6
F30.0
sI7
F30.0
sI8
F30.0
sI9
F30.0
sI10
F30.0
sI11
F30.0
sI12
F30.0
sI13
F30.0
sI14
F30.0
ssg98
(dp217
I0
F0.002
sI1
F0.002
sI2
F0.002
sI3
F0.002
sI4
F0.002
sI5
F0.002
sI6
F0.002
sI7
F0.002
sI8
F0.002
sI9
F0.002
sI10
F0.002
sI11
F0.002
sI12
F0.002
sI13
F0.002
sI14
F0.002
ssg100
(dp218
I0
F0.002
sI1
F0.002
sI2
F0.002
sI3
F0.002
sI4
F0.002
sI5
F0.002
sI6
F0.002
sI7
F0.002
sI8
F0.002
sI9
F0.002
sI10
F0.002
sI11
F0.002
sI12
F0.002
sI13
F0.002
sI14
F0.002
ssg102
(dp219
I0
F4.947282
sI1
F-4.021465
sI2
F4.095305
sI3
F-3.065443
sI4
F2.242068
sI5
F2.832101
sI6
F3.032858
sI7
F-2.776025
sI8
F3.276246
sI9
F2.937318
sI10
F1.732593
sI11
F-2.852412
sI12
F-2.338912
sI13
F-1.874254
sI14
F-2.780798
ssg104
(dp220
I0
S"KIC8462852-20181115at021016_-25-1X1-030-r'_cal.fts.mag.1"
p221
sI1
S"KIC8462852-20181115at020704_-25-1X1-030-r'_cal.fts.mag.1"
p222
sI2
S"KIC8462852-20181115at024049_-25-1X1-030-r'_cal.fts.mag.1"
p223
sI3
S"KIC8462852-20181115at020913_-25-1X1-030-r'_cal.fts.mag.1"
p224
sI4
S"KIC8462852-20181115at013944_-25-1X1-030-r'_cal.fts.mag.1"
p225
sI5
S"KIC8462852-20181115at013840_-25-1X1-030-r'_cal.fts.mag.1"
p226
sI6
S"KIC8462852-20181115at023734_-25-1X1-030-r'_cal.fts.mag.1"
p227
sI7
S"KIC8462852-20181115at020809_-25-1X1-030-r'_cal.fts.mag.1"
p228
sI8
S"KIC8462852-20181115at014048_-25-1X1-030-r'_cal.fts.mag.1"
p229
sI9
S"KIC8462852-20181115at021120_-25-1X1-030-r'_cal.fts.mag.1"
p230
sI10
S"KIC8462852-20181115at024153_-25-1X1-030-r'_cal.fts.mag.1"
p231
sI11
S"KIC8462852-20181115at023840_-25-1X1-030-r'_cal.fts.mag.1"
p232
sI12
S"KIC8462852-20181115at013737_-25-1X1-030-r'_cal.fts.mag.1"
p233
sI13
S"KIC8462852-20181115at023945_-25-1X1-030-r'_cal.fts.mag.1"
p234
sI14
S"KIC8462852-20181115at013632_-25-1X1-030-r'_cal.fts.mag.1"
p235
ssg121
(dp236
I0
F0.0026050349299926016
sI1
Fnan
sI2
Fnan
sI3
Fnan
sI4
Fnan
sI5
Fnan
sI6
Fnan
sI7
Fnan
sI8
Fnan
sI9
Fnan
sI10
Fnan
sI11
Fnan
sI12
Fnan
sI13
Fnan
sI14
Fnan
ssg123
(dp237
I0
F8075.04
sI1
F8030.696666666667
sI2
F8408.863333333333
sI3
F7976.623333333334
sI4
F8068.6466666666665
sI5
F7972.8
sI6
F7914.65
sI7
F7753.9766666666665
sI8
F8041.6
sI9
F8091.6
sI10
F8453.223333333333
sI11
F8274.753333333334
sI12
F8093.23
sI13
F8329.0
sI14
F8068.326666666666
ssg125
(dp238
I0
F0.024711092554520857
sI1
Fnan
sI2
Fnan
sI3
Fnan
sI4
Fnan
sI5
Fnan
sI6
Fnan
sI7
Fnan
sI8
Fnan
sI9
Fnan
sI10
Fnan
sI11
Fnan
sI12
Fnan
sI13
Fnan
sI14
Fnan
ssg127
(dp239
I0
S"r'"
p240
sI1
S"r'"
p241
sI2
S"r'"
p242
sI3
S"r'"
p243
sI4
S"r'"
p244
sI5
S"r'"
p245
sI6
S"r'"
p246
sI7
S"r'"
p247
sI8
S"r'"
p248
sI9
S"r'"
p249
sI10
S"r'"
p250
sI11
S"r'"
p251
sI12
S"r'"
p252
sI13
S"r'"
p253
sI14
S"r'"
p254
ssg144
(dp255
I0
F0.0010972717918851333
sI1
Fnan
sI2
Fnan
sI3
Fnan
sI4
Fnan
sI5
Fnan
sI6
Fnan
sI7
Fnan
sI8
Fnan
sI9
Fnan
sI10
Fnan
sI11
Fnan
sI12
Fnan
sI13
Fnan
sI14
Fnan
ssg146
(dp256
I0
F3.114137
sI1
F3.226375
sI2
F3.603862
sI3
F3.208511
sI4
F2.394834
sI5
F1.749258
sI6
F-2.163375
sI7
F4.514991
sI8
F2.207755
sI9
F4.139508
sI10
F1.523968
sI11
F1.988083
sI12
F3.231389
sI13
F-1.413046
sI14
F2.443931
ssg148
(dp257
I0
F1.4926679449092755
sI1
Fnan
sI2
Fnan
sI3
Fnan
sI4
Fnan
sI5
Fnan
sI6
Fnan
sI7
Fnan
sI8
Fnan
sI9
Fnan
sI10
Fnan
sI11
Fnan
sI12
Fnan
sI13
Fnan
sI14
Fnan
ssg150
(dp258
I0
F2458437.589733796
sI1
Fnan
sI2
Fnan
sI3
Fnan
sI4
Fnan
sI5
Fnan
sI6
Fnan
sI7
Fnan
sI8
Fnan
sI9
Fnan
sI10
Fnan
sI11
Fnan
sI12
Fnan
sI13
Fnan
sI14
Fnan
ssg152
(dp259
I0
F0.0010972717918851333
sI1
Fnan
sI2
Fnan
sI3
Fnan
sI4
Fnan
sI5
Fnan
sI6
Fnan
sI7
Fnan
sI8
Fnan
sI9
Fnan
sI10
Fnan
sI11
Fnan
sI12
Fnan
sI13
Fnan
sI14
Fnan
ssg154
(dp260
I0
F28.49372
sI1
F28.96128
sI2
F24.16256
sI3
F29.33503
sI4
F30.67194
sI5
F31.70219
sI6
F25.53887
sI7
F30.98058
sI8
F29.38986
sI9
F27.42412
sI10
F23.91342
sI11
F23.44484
sI12
F31.59916
sI13
F23.46107
sI14
F33.05123
ssg156
(dp261
I0
F10.315
sI1
F10.318
sI2
F10.27
sI3
F10.329
sI4
F10.317
sI5
F10.325
sI6
F10.33
sI7
F10.354
sI8
F10.318
sI9
F10.313
sI10
F10.267
sI11
F10.289
sI12
F10.311
sI13
F10.281
sI14
F10.316
ssg158
(dp262
I0
F0.5502731439053413
sI1
Fnan
sI2
Fnan
sI3
Fnan
sI4
Fnan
sI5
Fnan
sI6
Fnan
sI7
Fnan
sI8
Fnan
sI9
Fnan
sI10
Fnan
sI11
Fnan
sI12
Fnan
sI13
Fnan
sI14
Fnan
sssS'z'
p263
(dp264
g3
(dp265
I0
F0.3718457623665625
sI1
Fnan
sI2
Fnan
sI3
Fnan
sI4
Fnan
sI5
Fnan
sI6
Fnan
sI7
Fnan
sI8
Fnan
sI9
Fnan
sI10
Fnan
ssg5
(dp266
I0
S'NoError'
p267
sI1
S'NoError'
p268
sI2
S'NoError'
p269
sI3
S'NoError'
p270
sI4
S'NoError'
p271
sI5
S'NoError'
p272
sI6
S'NoError'
p273
sI7
S'NoError'
p274
sI8
S'NoError'
p275
sI9
S'NoError'
p276
sI10
S'NoError'
p277
ssg22
(dp278
I0
F0.007
sI1
F0.007
sI2
F0.007
sI3
F0.007
sI4
F0.007
sI5
F0.007
sI6
F0.007
sI7
F0.007
sI8
F0.007
sI9
F0.007
sI10
F0.007
ssg24
(dp279
I0
F0.9073474657600569
sI1
F0.9166458312864406
sI2
F0.9177848884299213
sI3
F0.9205534914719152
sI4
F0.9158182371651854
sI5
F0.9235312019689131
sI6
F0.9150964737142323
sI7
F0.908619223187858
sI8
F0.9151063314236446
sI9
F0.9099289031292149
sI10
F0.9089036345343784
ssg26
(dp280
I0
F0.005234669810370498
sI1
Fnan
sI2
Fnan
sI3
Fnan
sI4
Fnan
sI5
Fnan
sI6
Fnan
sI7
Fnan
sI8
Fnan
sI9
Fnan
sI10
Fnan
ssg28
(dp281
I0
F0.9144850620065238
sI1
Fnan
sI2
Fnan
sI3
Fnan
sI4
Fnan
sI5
Fnan
sI6
Fnan
sI7
Fnan
sI8
Fnan
sI9
Fnan
sI10
Fnan
ssg30
(dp282
I0
F13.294
sI1
F13.308
sI2
F13.306
sI3
F13.25
sI4
F13.295
sI5
F13.295
sI6
F13.312
sI7
F13.293
sI8
F13.27
sI9
F13.282
sI10
F13.274
ssg32
(dp283
I0
F11.9458
sI1
F13.27097
sI2
F13.67758
sI3
F11.04959
sI4
F13.0558
sI5
F12.01795
sI6
F14.1092
sI7
F12.01466
sI8
F11.47575
sI9
F13.54101
sI10
F12.74446
ssg34
(dp284
I0
F2458437.597175926
sI1
F2458437.5751967593
sI2
F2458437.5766782407
sI3
F2458437.6169097223
sI4
F2458437.5744675924
sI5
F2458437.5986689813
sI6
F2458437.5774189816
sI7
F2458437.596435185
sI8
F2458437.597928241
sI9
F2458437.5956828706
sI10
F2458437.5759375
ssg36
(dp285
I0
F1.2642930000000001
sI1
Fnan
sI2
Fnan
sI3
Fnan
sI4
Fnan
sI5
Fnan
sI6
Fnan
sI7
Fnan
sI8
Fnan
sI9
Fnan
sI10
Fnan
ssg38
(dp286
I0
F0.6539604545454545
sI1
Fnan
sI2
Fnan
sI3
Fnan
sI4
Fnan
sI5
Fnan
sI6
Fnan
sI7
Fnan
sI8
Fnan
sI9
Fnan
sI10
Fnan
ssg40
(dp287
I0
F0.3707808426499225
sI1
F0.37031326488678057
sI2
F0.36507271864728746
sI3
F0.374466340617648
sI4
F0.3750743642266364
sI5
F0.36986721899014896
sI6
F0.3674444350036003
sI7
F0.37154167242087976
sI8
F0.37328110069165793
sI9
F0.37054054548338206
sI10
F0.37514783869496915
ssg42
(dp288
I0
F0.002425287308979851
sI1
Fnan
sI2
Fnan
sI3
Fnan
sI4
Fnan
sI5
Fnan
sI6
Fnan
sI7
Fnan
sI8
Fnan
sI9
Fnan
sI10
Fnan
ssg44
(dp289
I0
F1.2494012727272727
sI1
Fnan
sI2
Fnan
sI3
Fnan
sI4
Fnan
sI5
Fnan
sI6
Fnan
sI7
Fnan
sI8
Fnan
sI9
Fnan
sI10
Fnan
ssg46
(dp290
I0
g267
sI1
g268
sI2
g269
sI3
g270
sI4
g271
sI5
g272
sI6
g273
sI7
g274
sI8
g275
sI9
g276
sI10
g277
ssg48
(dp291
I0
F0.004092155966444246
sI1
Fnan
sI2
Fnan
sI3
Fnan
sI4
Fnan
sI5
Fnan
sI6
Fnan
sI7
Fnan
sI8
Fnan
sI9
Fnan
sI10
Fnan
ssg50
(dp292
I0
F0.015001818071638582
sI1
Fnan
sI2
Fnan
sI3
Fnan
sI4
Fnan
sI5
Fnan
sI6
Fnan
sI7
Fnan
sI8
Fnan
sI9
Fnan
sI10
Fnan
ssg52
(dp293
I0
F0.5129218181818183
sI1
Fnan
sI2
Fnan
sI3
Fnan
sI4
Fnan
sI5
Fnan
sI6
Fnan
sI7
Fnan
sI8
Fnan
sI9
Fnan
sI10
Fnan
ssg54
(dp294
I0
F1.5129639771165955
sI1
F1.503361619734783
sI2
F1.512908565349271
sI3
F1.4955990096175746
sI4
F1.517449726644291
sI5
F1.492906360294874
sI6
F1.5078773985429235
sI7
F1.5034671490969733
sI8
F1.5067604906041685
sI9
F1.5076693285396818
sI10
F1.5175840070891278
ssg56
(dp295
I0
g267
sI1
g268
sI2
g269
sI3
g270
sI4
g271
sI5
g272
sI6
g273
sI7
g274
sI8
g275
sI9
g276
sI10
g277
ssg58
(dp296
I0
F12.77029
sI1
F13.96769
sI2
F13.72156
sI3
F10.66626
sI4
F13.50379
sI5
F11.19968
sI6
F14.71933
sI7
F13.6594
sI8
F13.3275
sI9
F13.61085
sI10
F14.55901
ssg60
(dp297
I0
F11.937454545454544
sI1
Fnan
sI2
Fnan
sI3
Fnan
sI4
Fnan
sI5
Fnan
sI6
Fnan
sI7
Fnan
sI8
Fnan
sI9
Fnan
sI10
Fnan
ssg62
(dp298
I0
F0.6899761833472557
sI1
Fnan
sI2
Fnan
sI3
Fnan
sI4
Fnan
sI5
Fnan
sI6
Fnan
sI7
Fnan
sI8
Fnan
sI9
Fnan
sI10
Fnan
ssg64
(dp299
I0
F-4.141218
sI1
F2.668
sI2
F-2.211832
sI3
F-2.135051
sI4
F-2.157136
sI5
F3.354754
sI6
F4.742294
sI7
F3.631854
sI8
F-2.613725
sI9
F2.7956
sI10
F3.260025
ssg66
(dp300
I0
F12.278636363636364
sI1
Fnan
sI2
Fnan
sI3
Fnan
sI4
Fnan
sI5
Fnan
sI6
Fnan
sI7
Fnan
sI8
Fnan
sI9
Fnan
sI10
Fnan
ssg68
(dp301
I0
g267
sI1
g268
sI2
g269
sI3
g270
sI4
g271
sI5
g272
sI6
g273
sI7
g274
sI8
g275
sI9
g276
sI10
g277
ssg70
(dp302
I0
F3051.6366666666668
sI1
F3039.9100000000003
sI2
F3090.4576666666667
sI3
F3178.7276666666667
sI4
F3033.086666666667
sI5
F3094.2706666666663
sI6
F3046.7656666666667
sI7
F3052.229
sI8
F3117.5923333333335
sI9
F3094.7476666666666
sI10
F3078.0353333333333
ssg72
(dp303
I0
F1.10576
sI1
F1.0616729999999999
sI2
F1.064208
sI3
F1.158583
sI4
F1.060441
sI5
F1.10925
sI6
F1.065504
sI7
F1.104017
sI8
F1.107499
sI9
F1.102292
sI10
F1.062928
ssg74
(dp304
I0
F2515.250666666667
sI1
F2481.9816666666666
sI2
F2503.2313333333336
sI3
F2591.2993333333334
sI4
F2457.7443333333335
sI5
F2514.3686666666667
sI6
F2486.8716666666664
sI7
F2525.4563333333335
sI8
F2546.4443333333334
sI9
F2548.271333333333
sI10
F2523.029666666667
ssg76
(dp305
I0
F4211.25
sI1
F4150.7
sI2
F4231.37
sI3
F4314.823333333333
sI4
F4166.03
sI5
F4186.586666666667
sI6
F4172.0233333333335
sI7
F4192.933333333333
sI8
F4267.173333333333
sI9
F4253.903333333334
sI10
F4250.043333333333
ssg78
(dp306
I0
F12.09258
sI1
F12.48943
sI2
F13.25256
sI3
F11.99462
sI4
F14.149
sI5
F11.70987
sI6
F12.48459
sI7
F11.87545
sI8
F12.53511
sI9
F13.13978
sI10
F13.07252
ssg80
(dp307
I0
F12.499
sI1
F12.513
sI2
F12.504
sI3
F12.466
sI4
F12.524
sI5
F12.499
sI6
F12.511
sI7
F12.494
sI8
F12.485
sI9
F12.484
sI10
F12.495
ssg82
(dp308
I0
F0.003
sI1
F0.003
sI2
F0.003
sI3
F0.003
sI4
F0.003
sI5
F0.003
sI6
F0.003
sI7
F0.003
sI8
F0.003
sI9
F0.003
sI10
F0.003
ssg84
(dp309
I0
F0.37123003111935576
sI1
Fnan
sI2
Fnan
sI3
Fnan
sI4
Fnan
sI5
Fnan
sI6
Fnan
sI7
Fnan
sI8
Fnan
sI9
Fnan
sI10
Fnan
ssg86
(dp310
I0
F12.497636363636362
sI1
Fnan
sI2
Fnan
sI3
Fnan
sI4
Fnan
sI5
Fnan
sI6
Fnan
sI7
Fnan
sI8
Fnan
sI9
Fnan
sI10
Fnan
ssg88
(dp311
I0
F12.289
sI1
F12.293
sI2
F12.275
sI3
F12.244
sI4
F12.295
sI5
F12.274
sI6
F12.29
sI7
F12.288
sI8
F12.265
sI9
F12.273
sI10
F12.279
ssg90
(dp312
I0
F3.671856
sI1
F4.397951
sI2
F-3.086041
sI3
F3.826853
sI4
F2.689376
sI5
F-4.047187
sI6
F4.328377
sI7
F2.689465
sI8
F-3.751152
sI9
F-1.221016
sI10
F4.408741
ssg92
(dp313
I0
F0.012855844090246487
sI1
Fnan
sI2
Fnan
sI3
Fnan
sI4
Fnan
sI5
Fnan
sI6
Fnan
sI7
Fnan
sI8
Fnan
sI9
Fnan
sI10
Fnan
ssg94
(dp314
I0
F0.6926311209592513
sI1
F0.690339669837932
sI2
F0.6837722621442015
sI3
F0.6916078460888125
sI4
F0.6827905275415734
sI5
F0.6906792844725429
sI6
F0.6889996830955071
sI7
F0.6971427877369392
sI8
F0.6896479721292894
sI9
F0.6935344550539502
sI10
F0.6885924077598149
ssg96
(dp315
I0
F30.0
sI1
F30.0
sI2
F30.0
sI3
F30.0
sI4
F30.0
sI5
F30.0
sI6
F30.0
sI7
F30.0
sI8
F30.0
sI9
F30.0
sI10
F30.0
ssg98
(dp316
I0
F0.004
sI1
F0.004
sI2
F0.004
sI3
F0.004
sI4
F0.004
sI5
F0.004
sI6
F0.004
sI7
F0.004
sI8
F0.004
sI9
F0.004
sI10
F0.004
ssg100
(dp317
I0
F0.004
sI1
F0.004
sI2
F0.004
sI3
F0.004
sI4
F0.004
sI5
F0.004
sI6
F0.004
sI7
F0.004
sI8
F0.004
sI9
F0.004
sI10
F0.004
ssg102
(dp318
I0
F-1.391703
sI1
F2.812469
sI2
F2.211853
sI3
F3.181446
sI4
F1.787067
sI5
F3.11679
sI6
F-2.136445
sI7
F-1.139628
sI8
F-4.067425
sI9
F3.149582
sI10
F-1.881866
ssg104
(dp319
I0
S"KIC8462852-20181115at021956_-25-1X1-030-z'_cal.fts.mag.1"
p320
sI1
S"KIC8462852-20181115at014817_-25-1X1-030-z'_cal.fts.mag.1"
p321
sI2
S"KIC8462852-20181115at015025_-25-1X1-030-z'_cal.fts.mag.1"
p322
sI3
S"KIC8462852-20181115at024819_-25-1X1-030-z'_cal.fts.mag.1"
p323
sI4
S"KIC8462852-20181115at014712_-25-1X1-030-z'_cal.fts.mag.1"
p324
sI5
S"KIC8462852-20181115at022205_-25-1X1-030-z'_cal.fts.mag.1"
p325
sI6
S"KIC8462852-20181115at015129_-25-1X1-030-z'_cal.fts.mag.1"
p326
sI7
S"KIC8462852-20181115at021852_-25-1X1-030-z'_cal.fts.mag.1"
p327
sI8
S"KIC8462852-20181115at022101_-25-1X1-030-z'_cal.fts.mag.1"
p328
sI9
S"KIC8462852-20181115at021746_-25-1X1-030-z'_cal.fts.mag.1"
p329
sI10
S"KIC8462852-20181115at014921_-25-1X1-030-z'_cal.fts.mag.1"
p330
ssg121
(dp331
I0
F0.008044176278822276
sI1
Fnan
sI2
Fnan
sI3
Fnan
sI4
Fnan
sI5
Fnan
sI6
Fnan
sI7
Fnan
sI8
Fnan
sI9
Fnan
sI10
Fnan
ssg123
(dp332
I0
F1208.5153333333333
sI1
F1193.963
sI2
F1195.6203333333333
sI3
F1258.8123333333335
sI4
F1207.3470000000002
sI5
F1207.6443333333334
sI6
F1188.7636666666667
sI7
F1210.0639999999999
sI8
F1235.711
sI9
F1222.4036666666666
sI10
F1231.874
ssg125
(dp333
I0
F0.015876225793762973
sI1
Fnan
sI2
Fnan
sI3
Fnan
sI4
Fnan
sI5
Fnan
sI6
Fnan
sI7
Fnan
sI8
Fnan
sI9
Fnan
sI10
Fnan
ssg127
(dp334
I0
S"z'"
p335
sI1
S"z'"
p336
sI2
S"z'"
p337
sI3
S"z'"
p338
sI4
S"z'"
p339
sI5
S"z'"
p340
sI6
S"z'"
p341
sI7
S"z'"
p342
sI8
S"z'"
p343
sI9
S"z'"
p344
sI10
S"z'"
p345
ssg144
(dp346
I0
F0.0031705509281123928
sI1
Fnan
sI2
Fnan
sI3
Fnan
sI4
Fnan
sI5
Fnan
sI6
Fnan
sI7
Fnan
sI8
Fnan
sI9
Fnan
sI10
Fnan
ssg146
(dp347
I0
F2.303207
sI1
F4.432031
sI2
F-2.714875
sI3
F2.745262
sI4
F2.947273
sI5
F-3.146505
sI6
F3.64012
sI7
F1.53878
sI8
F2.9602
sI9
F-4.09277
sI10
F3.130691
ssg148
(dp348
I0
F1.5071406938754786
sI1
Fnan
sI2
Fnan
sI3
Fnan
sI4
Fnan
sI5
Fnan
sI6
Fnan
sI7
Fnan
sI8
Fnan
sI9
Fnan
sI10
Fnan
ssg150
(dp349
I0
F2458437.5956828706
sI1
Fnan
sI2
Fnan
sI3
Fnan
sI4
Fnan
sI5
Fnan
sI6
Fnan
sI7
Fnan
sI8
Fnan
sI9
Fnan
sI10
Fnan
ssg152
(dp350
I0
F0.0031705509281123928
sI1
Fnan
sI2
Fnan
sI3
Fnan
sI4
Fnan
sI5
Fnan
sI6
Fnan
sI7
Fnan
sI8
Fnan
sI9
Fnan
sI10
Fnan
ssg154
(dp351
I0
F13.41936
sI1
F14.07797
sI2
F14.82112
sI3
F11.49786
sI4
F14.77795
sI5
F12.77383
sI6
F13.98115
sI7
F12.52203
sI8
F12.47307
sI9
F13.64149
sI10
F13.39458
ssg156
(dp352
I0
F11.939
sI1
F11.955
sI2
F11.934
sI3
F11.913
sI4
F11.951
sI5
F11.945
sI6
F11.949
sI7
F11.944
sI8
F11.925
sI9
F11.928
sI10
F11.929
ssg158
(dp353
I0
F0.37123003111935576
sI1
Fnan
sI2
Fnan
sI3
Fnan
sI4
Fnan
sI5
Fnan
sI6
Fnan
sI7
Fnan
sI8
Fnan
sI9
Fnan
sI10
Fnan
sssS'g'
p354
(dp355
g3
(dp356
I0
F0.8677044096070644
sI1
Fnan
sI2
Fnan
sI3
Fnan
sI4
Fnan
sI5
Fnan
sI6
Fnan
sI7
Fnan
sI8
Fnan
sI9
Fnan
sI10
Fnan
sI11
Fnan
sI12
Fnan
sI13
Fnan
sI14
Fnan
ssg5
(dp357
I0
S'NoError'
p358
sI1
S'NoError'
p359
sI2
S'NoError'
p360
sI3
S'NoError'
p361
sI4
S'NoError'
p362
sI5
S'NoError'
p363
sI6
S'NoError'
p364
sI7
S'NoError'
p365
sI8
S'NoError'
p366
sI9
S'NoError'
p367
sI10
S'NoError'
p368
sI11
S'NoError'
p369
sI12
S'NoError'
p370
sI13
S'NoError'
p371
sI14
S'NoError'
p372
ssg22
(dp373
I0
F0.002
sI1
F0.002
sI2
F0.002
sI3
F0.002
sI4
F0.002
sI5
F0.002
sI6
F0.002
sI7
F0.002
sI8
F0.002
sI9
F0.002
sI10
F0.002
sI11
F0.002
sI12
F0.002
sI13
F0.002
sI14
F0.002
ssg24
(dp374
I0
F0.8729006019782348
sI1
F0.8760558013324926
sI2
F0.8795818911109667
sI3
F0.8818152837688408
sI4
F0.8813140646641247
sI5
F0.8751951680243363
sI6
F0.8768158091508519
sI7
F0.8836711364794054
sI8
F0.8821029667373764
sI9
F0.8774991909711749
sI10
F0.8795914248505977
sI11
F0.88089113438267
sI12
F0.8781110187773329
sI13
F0.8788304167230622
sI14
F0.8790008935543071
ssg26
(dp375
I0
F0.002890966568158629
sI1
Fnan
sI2
Fnan
sI3
Fnan
sI4
Fnan
sI5
Fnan
sI6
Fnan
sI7
Fnan
sI8
Fnan
sI9
Fnan
sI10
Fnan
sI11
Fnan
sI12
Fnan
sI13
Fnan
sI14
Fnan
ssg28
(dp376
I0
F0.8788917868337182
sI1
Fnan
sI2
Fnan
sI3
Fnan
sI4
Fnan
sI5
Fnan
sI6
Fnan
sI7
Fnan
sI8
Fnan
sI9
Fnan
sI10
Fnan
sI11
Fnan
sI12
Fnan
sI13
Fnan
sI14
Fnan
ssg30
(dp377
I0
F11.468
sI1
F11.467
sI2
F11.446
sI3
F11.435
sI4
F11.497
sI5
F11.448
sI6
F11.449
sI7
F11.446
sI8
F11.424
sI9
F11.462
sI10
F11.462
sI11
F11.47
sI12
F11.448
sI13
F11.442
sI14
F11.43
ssg32
(dp378
I0
F27.00446
sI1
F15.16679
sI2
F19.72695
sI3
F20.66722
sI4
F20.92158
sI5
F14.37519
sI6
F15.23304
sI7
F14.68012
sI8
F14.50326
sI9
F26.70076
sI10
F31.10954
sI11
F29.90952
sI12
F20.14175
sI13
F20.87833
sI14
F24.80792
ssg34
(dp379
I0
F2458437.564803241
sI1
F2458437.6056944444
sI2
F2458437.5860069445
sI3
F2458437.5845023147
sI4
F2458437.586747685
sI5
F2458437.6079398147
sI6
F2458437.6064699073
sI7
F2458437.6072106482
sI8
F2458437.6086921296
sI9
F2458437.5655555557
sI10
F2458437.5633217595
sI11
F2458437.564074074
sI12
F2458437.587488426
sI13
F2458437.5852662036
sI14
F2458437.566284722
ssg36
(dp380
I0
F2.5305445333333334
sI1
Fnan
sI2
Fnan
sI3
Fnan
sI4
Fnan
sI5
Fnan
sI6
Fnan
sI7
Fnan
sI8
Fnan
sI9
Fnan
sI10
Fnan
sI11
Fnan
sI12
Fnan
sI13
Fnan
sI14
Fnan
ssg38
(dp381
I0
F2.51663766
sI1
Fnan
sI2
Fnan
sI3
Fnan
sI4
Fnan
sI5
Fnan
sI6
Fnan
sI7
Fnan
sI8
Fnan
sI9
Fnan
sI10
Fnan
sI11
Fnan
sI12
Fnan
sI13
Fnan
sI14
Fnan
ssg40
(dp382
I0
F0.8732456447389454
sI1
F0.8694077525551466
sI2
F0.8662154902485047
sI3
F0.8682308113779235
sI4
F0.8666053735834723
sI5
F0.8611635591220203
sI6
F0.8672704857846868
sI7
F0.8679200331965995
sI8
F0.8671710133953164
sI9
F0.8643650510666188
sI10
F0.8680567687651389
sI11
F0.8661420407872504
sI12
F0.8689223280583764
sI13
F0.8682054173815553
sI14
F0.871644758691248
ssg42
(dp383
I0
F0.0017119418980910785
sI1
Fnan
sI2
Fnan
sI3
Fnan
sI4
Fnan
sI5
Fnan
sI6
Fnan
sI7
Fnan
sI8
Fnan
sI9
Fnan
sI10
Fnan
sI11
Fnan
sI12
Fnan
sI13
Fnan
sI14
Fnan
ssg44
(dp384
I0
F0.012262466666666683
sI1
Fnan
sI2
Fnan
sI3
Fnan
sI4
Fnan
sI5
Fnan
sI6
Fnan
sI7
Fnan
sI8
Fnan
sI9
Fnan
sI10
Fnan
sI11
Fnan
sI12
Fnan
sI13
Fnan
sI14
Fnan
ssg46
(dp385
I0
g358
sI1
g359
sI2
g360
sI3
g361
sI4
g362
sI5
g363
sI6
g364
sI7
g365
sI8
g366
sI9
g367
sI10
g368
sI11
g369
sI12
g370
sI13
g371
sI14
g372
ssg48
(dp386
I0
F0.0022636937050311474
sI1
Fnan
sI2
Fnan
sI3
Fnan
sI4
Fnan
sI5
Fnan
sI6
Fnan
sI7
Fnan
sI8
Fnan
sI9
Fnan
sI10
Fnan
sI11
Fnan
sI12
Fnan
sI13
Fnan
sI14
Fnan
ssg50
(dp387
I0
F0.019181340138890383
sI1
Fnan
sI2
Fnan
sI3
Fnan
sI4
Fnan
sI5
Fnan
sI6
Fnan
sI7
Fnan
sI8
Fnan
sI9
Fnan
sI10
Fnan
sI11
Fnan
sI12
Fnan
sI13
Fnan
sI14
Fnan
ssg52
(dp388
I0
F1.289008733333333
sI1
Fnan
sI2
Fnan
sI3
Fnan
sI4
Fnan
sI5
Fnan
sI6
Fnan
sI7
Fnan
sI8
Fnan
sI9
Fnan
sI10
Fnan
sI11
Fnan
sI12
Fnan
sI13
Fnan
sI14
Fnan
ssg54
(dp389
I0
F1.521272307080187
sI1
F1.5161875435117431
sI2
F1.5155646498457434
sI3
F1.5066643567401952
sI4
F1.5135117506384965
sI5
F1.5152530654574294
sI6
F1.5125483431107647
sI7
F1.5093698510991467
sI8
F1.5166175632912975
sI9
F1.5118832518999685
sI10
F1.5107771007491921
sI11
F1.511186275695032
sI12
F1.5184521511369131
sI13
F1.5077861655005822
sI14
F1.5145311884573147
ssg56
(dp390
I0
g358
sI1
g359
sI2
g360
sI3
g361
sI4
g362
sI5
g363
sI6
g364
sI7
g365
sI8
g366
sI9
g367
sI10
g368
sI11
g369
sI12
g370
sI13
g371
sI14
g372
ssg58
(dp391
I0
F27.77568
sI1
F15.33321
sI2
F19.29419
sI3
F19.26188
sI4
F19.74766
sI5
F13.70115
sI6
F13.99357
sI7
F14.06702
sI8
F14.13132
sI9
F26.70001
sI10
F30.29334
sI11
F29.17222
sI12
F19.02413
sI13
F20.55203
sI14
F24.90621
ssg60
(dp392
I0
F11.020399999999999
sI1
Fnan
sI2
Fnan
sI3
Fnan
sI4
Fnan
sI5
Fnan
sI6
Fnan
sI7
Fnan
sI8
Fnan
sI9
Fnan
sI10
Fnan
sI11
Fnan
sI12
Fnan
sI13
Fnan
sI14
Fnan
ssg62
(dp393
I0
F0.7172296095072582
sI1
Fnan
sI2
Fnan
sI3
Fnan
sI4
Fnan
sI5
Fnan
sI6
Fnan
sI7
Fnan
sI8
Fnan
sI9
Fnan
sI10
Fnan
sI11
Fnan
sI12
Fnan
sI13
Fnan
sI14
Fnan
ssg64
(dp394
I0
F2.425094
sI1
F3.004941
sI2
F3.037886
sI3
F2.02646
sI4
F4.935546
sI5
F3.148991
sI6
F3.151986
sI7
F4.016722
sI8
F4.153258
sI9
F2.354524
sI10
F2.868632
sI11
F-0.6006711
sI12
F3.770726
sI13
F2.654821
sI14
F-3.199351
ssg66
(dp395
I0
F11.394266666666665
sI1
Fnan
sI2
Fnan
sI3
Fnan
sI4
Fnan
sI5
Fnan
sI6
Fnan
sI7
Fnan
sI8
Fnan
sI9
Fnan
sI10
Fnan
sI11
Fnan
sI12
Fnan
sI13
Fnan
sI14
Fnan
ssg68
(dp396
I0
g358
sI1
g359
sI2
g360
sI3
g361
sI4
g362
sI5
g363
sI6
g364
sI7
g365
sI8
g366
sI9
g367
sI10
g368
sI11
g369
sI12
g370
sI13
g371
sI14
g372
ssg70
(dp397
I0
F6785.283333333334
sI1
F6835.793333333333
sI2
F7018.2733333333335
sI3
F7081.4
sI4
F6700.34
sI5
F7016.086666666667
sI6
F6969.35
sI7
F7022.986666666667
sI8
F7167.5599999999995
sI9
F6919.053333333333
sI10
F6900.526666666667
sI11
F6867.740000000001
sI12
F6974.133333333333
sI13
F7023.33
sI14
F7069.616666666667
ssg72
(dp398
I0
F1.045632
sI1
F1.126884
sI2
F1.081545
sI3
F1.078619
sI4
F1.0830389999999999
sI5
F1.132889
sI6
F1.1289200000000001
sI7
F1.1308719999999999
sI8
F1.134895
sI9
F1.046675
sI10
F1.043582
sI11
F1.0445959999999999
sI12
F1.084566
sI13
F1.080072
sI14
F1.047749
ssg74
(dp399
I0
F5898.656666666667
sI1
F5928.96
sI2
F6053.013333333333
sI3
F6117.673333333334
sI4
F5769.053333333333
sI5
F6097.78
sI6
F6050.429999999999
sI7
F6038.053333333333
sI8
F6151.28
sI9
F6002.213333333333
sI10
F5968.89
sI11
F5925.913333333333
sI12
F6019.383333333333
sI13
F6094.166666666667
sI14
F6107.213333333333
ssg76
(dp400
I0
F9647.863333333335
sI1
F9676.880000000001
sI2
F9905.19
sI3
F9943.286666666665
sI4
F9436.286666666665
sI5
F9935.413333333334
sI6
F9846.523333333334
sI7
F9856.97
sI8
F10099.793333333333
sI9
F9767.723333333333
sI10
F9721.41
sI11
F9666.796666666667
sI12
F9865.016666666666
sI13
F9889.19
sI14
F9978.359999999999
ssg78
(dp401
I0
F27.75874
sI1
F14.44304
sI2
F19.13895
sI3
F18.89578
sI4
F19.23841
sI5
F13.5633
sI6
F13.78468
sI7
F14.12173
sI8
F13.96988
sI9
F25.04319
sI10
F30.19733
sI11
F27.49786
sI12
F18.19955
sI13
F19.38954
sI14
F23.52142
ssg80
(dp402
I0
F11.573
sI1
F11.568
sI2
F11.545
sI3
F11.534
sI4
F11.597
sI5
F11.537
sI6
F11.546
sI7
F11.548
sI8
F11.528
sI9
F11.554
sI10
F11.56
sI11
F11.568
sI12
F11.551
sI13
F11.538
sI14
F11.535
ssg82
(dp403
I0
F0.002
sI1
F0.002
sI2
F0.002
sI3
F0.002
sI4
F0.002
sI5
F0.002
sI6
F0.002
sI7
F0.002
sI8
F0.002
sI9
F0.002
sI10
F0.002
sI11
F0.002
sI12
F0.002
sI13
F0.002
sI14
F0.002
ssg84
(dp404
I0
F0.8676377685835204
sI1
Fnan
sI2
Fnan
sI3
Fnan
sI4
Fnan
sI5
Fnan
sI6
Fnan
sI7
Fnan
sI8
Fnan
sI9
Fnan
sI10
Fnan
sI11
Fnan
sI12
Fnan
sI13
Fnan
sI14
Fnan
ssg86
(dp405
I0
F11.552133333333334
sI1
Fnan
sI2
Fnan
sI3
Fnan
sI4
Fnan
sI5
Fnan
sI6
Fnan
sI7
Fnan
sI8
Fnan
sI9
Fnan
sI10
Fnan
sI11
Fnan
sI12
Fnan
sI13
Fnan
sI14
Fnan
ssg88
(dp406
I0
F11.421
sI1
F11.413
sI2
F11.384
sI3
F11.375
sI4
F11.435
sI5
F11.385
sI6
F11.392
sI7
F11.384
sI8
F11.362
sI9
F11.4
sI10
F11.403
sI11
F11.408
sI12
F11.391
sI13
F11.384
sI14
F11.377
ssg90
(dp407
I0
F3.089636
sI1
F2.240371
sI2
F2.620183
sI3
F4.778791
sI4
F1.768925
sI5
F2.828304
sI6
F3.695849
sI7
F1.029106
sI8
F4.596817
sI9
F2.832343
sI10
F-3.562418
sI11
F4.671397
sI12
F3.035345
sI13
F1.272362
sI14
F3.061157
ssg92
(dp408
I0
F0.018465411681612403
sI1
Fnan
sI2
Fnan
sI3
Fnan
sI4
Fnan
sI5
Fnan
sI6
Fnan
sI7
Fnan
sI8
Fnan
sI9
Fnan
sI10
Fnan
sI11
Fnan
sI12
Fnan
sI13
Fnan
sI14
Fnan
ssg94
(dp409
I0
F0.7178974041084442
sI1
F0.7181102514795706
sI2
F0.7153397876203039
sI3
F0.7186826345898487
sI4
F0.7150259409856006
sI5
F0.7194383977819072
sI6
F0.7196093690842102
sI7
F0.7154109992778418
sI8
F0.7124751409499931
sI9
F0.7193975748861424
sI10
F0.7181942898350593
sI11
F0.7167921850849162
sI12
F0.714927218218655
sI13
F0.7206692635593829
sI14
F0.7164736851469959
ssg96
(dp410
I0
F30.0
sI1
F30.0
sI2
F30.0
sI3
F30.0
sI4
F30.0
sI5
F30.0
sI6
F30.0
sI7
F30.0
sI8
F30.0
sI9
F30.0
sI10
F30.0
sI11
F30.0
sI12
F30.0
sI13
F30.0
sI14
F30.0
ssg98
(dp411
I0
F0.003
sI1
F0.002
sI2
F0.002
sI3
F0.002
sI4
F0.003
sI5
F0.002
sI6
F0.002
sI7
F0.002
sI8
F0.002
sI9
F0.002
sI10
F0.003
sI11
F0.003
sI12
F0.002
sI13
F0.002
sI14
F0.002
ssg100
(dp412
I0
F0.002
sI1
F0.002
sI2
F0.002
sI3
F0.002
sI4
F0.002
sI5
F0.002
sI6
F0.002
sI7
F0.002
sI8
F0.002
sI9
F0.002
sI10
F0.002
sI11
F0.002
sI12
F0.002
sI13
F0.002
sI14
F0.002
ssg102
(dp413
I0
F-1.942232
sI1
F-2.376828
sI2
F1.999982
sI3
F3.722763
sI4
F4.435674
sI5
F1.547263
sI6
F4.2457
sI7
F2.402771
sI8
F2.447067
sI9
F2.942164
sI10
F4.014083
sI11
F-3.068517
sI12
F3.12736
sI13
F-2.716021
sI14
F-1.446098
ssg104
(dp414
I0
S"KIC8462852-20181115at013319_-25-1X1-030-g'_cal.fts.mag.1"
p415
sI1
S"KIC8462852-20181115at023201_-25-1X1-030-g'_cal.fts.mag.1"
p416
sI2
S"KIC8462852-20181115at020350_-25-1X1-030-g'_cal.fts.mag.1"
p417
sI3
S"KIC8462852-20181115at020131_-25-1X1-030-g'_cal.fts.mag.1"
p418
sI4
S"KIC8462852-20181115at020455_-25-1X1-030-g'_cal.fts.mag.1"
p419
sI5
S"KIC8462852-20181115at023526_-25-1X1-030-g'_cal.fts.mag.1"
p420
sI6
S"KIC8462852-20181115at023319_-25-1X1-030-g'_cal.fts.mag.1"
p421
sI7
S"KIC8462852-20181115at023423_-25-1X1-030-g'_cal.fts.mag.1"
p422
sI8
S"KIC8462852-20181115at023630_-25-1X1-030-g'_cal.fts.mag.1"
p423
sI9
S"KIC8462852-20181115at013424_-25-1X1-030-g'_cal.fts.mag.1"
p424
sI10
S"KIC8462852-20181115at013101_-25-1X1-030-g'_cal.fts.mag.1"
p425
sI11
S"KIC8462852-20181115at013216_-25-1X1-030-g'_cal.fts.mag.1"
p426
sI12
S"KIC8462852-20181115at020559_-25-1X1-030-g'_cal.fts.mag.1"
p427
sI13
S"KIC8462852-20181115at020247_-25-1X1-030-g'_cal.fts.mag.1"
p428
sI14
S"KIC8462852-20181115at013527_-25-1X1-030-g'_cal.fts.mag.1"
p429
ssg121
(dp430
I0
F0.0039905235891692994
sI1
Fnan
sI2
Fnan
sI3
Fnan
sI4
Fnan
sI5
Fnan
sI6
Fnan
sI7
Fnan
sI8
Fnan
sI9
Fnan
sI10
Fnan
sI11
Fnan
sI12
Fnan
sI13
Fnan
sI14
Fnan
ssg123
(dp431
I0
F6500.383333333333
sI1
F6503.6433333333325
sI2
F6634.193333333333
sI3
F6697.636666666667
sI4
F6327.86
sI5
F6616.4
sI6
F6610.423333333334
sI7
F6630.333333333333
sI8
F6769.320000000001
sI9
F6537.1900000000005
sI10
F6536.706666666667
sI11
F6484.6466666666665
sI12
F6620.763333333333
sI13
F6658.176666666666
sI14
F6727.7
ssg125
(dp432
I0
F0.01843469813254578
sI1
Fnan
sI2
Fnan
sI3
Fnan
sI4
Fnan
sI5
Fnan
sI6
Fnan
sI7
Fnan
sI8
Fnan
sI9
Fnan
sI10
Fnan
sI11
Fnan
sI12
Fnan
sI13
Fnan
sI14
Fnan
ssg127
(dp433
I0
S"g'"
p434
sI1
S"g'"
p435
sI2
S"g'"
p436
sI3
S"g'"
p437
sI4
S"g'"
p438
sI5
S"g'"
p439
sI6
S"g'"
p440
sI7
S"g'"
p441
sI8
S"g'"
p442
sI9
S"g'"
p443
sI10
S"g'"
p444
sI11
S"g'"
p445
sI12
S"g'"
p446
sI13
S"g'"
p447
sI14
S"g'"
p448
ssg144
(dp449
I0
F0.0028223733968306725
sI1
Fnan
sI2
Fnan
sI3
Fnan
sI4
Fnan
sI5
Fnan
sI6
Fnan
sI7
Fnan
sI8
Fnan
sI9
Fnan
sI10
Fnan
sI11
Fnan
sI12
Fnan
sI13
Fnan
sI14
Fnan
ssg146
(dp450
I0
F3.141724
sI1
F3.534354
sI2
F-1.608431
sI3
F-3.340894
sI4
F-2.991626
sI5
F4.207316
sI6
F2.977425
sI7
F3.951246
sI8
F-1.575835
sI9
F-3.490829
sI10
F-4.24652
sI11
F-3.392397
sI12
F-3.193767
sI13
F2.466261
sI14
F3.74591
ssg148
(dp451
I0
F1.5134403709476005
sI1
Fnan
sI2
Fnan
sI3
Fnan
sI4
Fnan
sI5
Fnan
sI6
Fnan
sI7
Fnan
sI8
Fnan
sI9
Fnan
sI10
Fnan
sI11
Fnan
sI12
Fnan
sI13
Fnan
sI14
Fnan
ssg150
(dp452
I0
F2458437.5860069445
sI1
Fnan
sI2
Fnan
sI3
Fnan
sI4
Fnan
sI5
Fnan
sI6
Fnan
sI7
Fnan
sI8
Fnan
sI9
Fnan
sI10
Fnan
sI11
Fnan
sI12
Fnan
sI13
Fnan
sI14
Fnan
ssg152
(dp453
I0
F0.0028223733968306725
sI1
Fnan
sI2
Fnan
sI3
Fnan
sI4
Fnan
sI5
Fnan
sI6
Fnan
sI7
Fnan
sI8
Fnan
sI9
Fnan
sI10
Fnan
sI11
Fnan
sI12
Fnan
sI13
Fnan
sI14
Fnan
ssg154
(dp454
I0
F28.21099
sI1
F15.41914
sI2
F19.08142
sI3
F19.4116
sI4
F19.94345
sI5
F14.38973
sI6
F15.00624
sI7
F14.73324
sI8
F13.60723
sI9
F27.10921
sI10
F30.92158
sI11
F28.5354
sI12
F18.58586
sI13
F21.08196
sI14
F24.44043
ssg156
(dp455
I0
F11.039
sI1
F11.036
sI2
F11.01
sI3
F11.006
sI4
F11.063
sI5
F11.007
sI6
F11.017
sI7
F11.016
sI8
F10.989
sI9
F11.026
sI10
F11.031
sI11
F11.037
sI12
F11.015
sI13
F11.012
sI14
F11.002
ssg158
(dp456
I0
F0.8676377685835204
sI1
Fnan
sI2
Fnan
sI3
Fnan
sI4
Fnan
sI5
Fnan
sI6
Fnan
sI7
Fnan
sI8
Fnan
sI9
Fnan
sI10
Fnan
sI11
Fnan
sI12
Fnan
sI13
Fnan
sI14
Fnan
sssS'V'
p457
(dp458
g3
(dp459
I0
F0.6925523030641821
sI1
Fnan
sI2
Fnan
sI3
Fnan
sI4
Fnan
sI5
Fnan
sI6
Fnan
sI7
Fnan
sI8
Fnan
sI9
Fnan
ssg5
(dp460
I0
S'NoError'
p461
sI1
S'NoError'
p462
sI2
S'NoError'
p463
sI3
S'NoError'
p464
sI4
S'NoError'
p465
sI5
S'NoError'
p466
sI6
S'NoError'
p467
sI7
S'NoError'
p468
sI8
S'NoError'
p469
sI9
S'NoError'
p470
ssg22
(dp471
I0
F0.002
sI1
F0.002
sI2
F0.002
sI3
F0.002
sI4
F0.002
sI5
F0.002
sI6
F0.002
sI7
F0.002
sI8
F0.002
sI9
F0.002
ssg24
(dp472
I0
F0.8836787265480898
sI1
F0.890434352886573
sI2
F0.8890444408921484
sI3
F0.8882184743178984
sI4
F0.8868329426644715
sI5
F0.8872150028458494
sI6
F0.8859141417415589
sI7
F0.8865863089381576
sI8
F0.8885501123509506
sI9
F0.8889399340904357
ssg26
(dp473
I0
F0.0019191722063888435
sI1
Fnan
sI2
Fnan
sI3
Fnan
sI4
Fnan
sI5
Fnan
sI6
Fnan
sI7
Fnan
sI8
Fnan
sI9
Fnan
ssg28
(dp474
I0
F0.8875414437276132
sI1
Fnan
sI2
Fnan
sI3
Fnan
sI4
Fnan
sI5
Fnan
sI6
Fnan
sI7
Fnan
sI8
Fnan
sI9
Fnan
ssg30
(dp475
I0
F11.454
sI1
F11.443
sI2
F11.436
sI3
F11.451
sI4
F11.466
sI5
F11.467
sI6
F11.443
sI7
F11.523
sI8
F11.468
sI9
F11.46
ssg32
(dp476
I0
F15.87854
sI1
F14.88475
sI2
F19.33831
sI3
F14.84002
sI4
F18.44785
sI5
F19.51289
sI6
F15.25052
sI7
F19.98671
sI8
F18.60518
sI9
F15.52375
ssg34
(dp477
I0
F2458437.601712963
sI1
F2458437.600972222
sI2
F2458437.5805092594
sI3
F2458437.599479167
sI4
F2458437.5789930555
sI5
F2458437.5812615743
sI6
F2458437.6002430557
sI7
F2458437.5797453704
sI8
F2458437.5782523146
sI9
F2458437.602465278
ssg36
(dp478
I0
F2.6689682000000006
sI1
Fnan
sI2
Fnan
sI3
Fnan
sI4
Fnan
sI5
Fnan
sI6
Fnan
sI7
Fnan
sI8
Fnan
sI9
Fnan
ssg38
(dp479
I0
F0.8658332999999999
sI1
Fnan
sI2
Fnan
sI3
Fnan
sI4
Fnan
sI5
Fnan
sI6
Fnan
sI7
Fnan
sI8
Fnan
sI9
Fnan
ssg40
(dp480
I0
F0.6912595812195618
sI1
F0.691399431105562
sI2
F0.6957331587696588
sI3
F0.691551186807623
sI4
F0.6930787099985439
sI5
F0.6925701043872174
sI6
F0.694668656949295
sI7
F0.6895517888622713
sI8
F0.6921552560256623
sI9
F0.6937354980199915
ssg42
(dp481
I0
F0.0011355862389426203
sI1
Fnan
sI2
Fnan
sI3
Fnan
sI4
Fnan
sI5
Fnan
sI6
Fnan
sI7
Fnan
sI8
Fnan
sI9
Fnan
ssg44
(dp482
I0
F1.2416288
sI1
Fnan
sI2
Fnan
sI3
Fnan
sI4
Fnan
sI5
Fnan
sI6
Fnan
sI7
Fnan
sI8
Fnan
sI9
Fnan
ssg46
(dp483
I0
g461
sI1
g462
sI2
g463
sI3
g464
sI4
g465
sI5
g466
sI6
g467
sI7
g468
sI8
g469
sI9
g470
ssg48
(dp484
I0
F0.001880168763192645
sI1
Fnan
sI2
Fnan
sI3
Fnan
sI4
Fnan
sI5
Fnan
sI6
Fnan
sI7
Fnan
sI8
Fnan
sI9
Fnan
ssg50
(dp485
I0
F0.023277075035799
sI1
Fnan
sI2
Fnan
sI3
Fnan
sI4
Fnan
sI5
Fnan
sI6
Fnan
sI7
Fnan
sI8
Fnan
sI9
Fnan
ssg52
(dp486
I0
F3.9074316000000002
sI1
Fnan
sI2
Fnan
sI3
Fnan
sI4
Fnan
sI5
Fnan
sI6
Fnan
sI7
Fnan
sI8
Fnan
sI9
Fnan
ssg54
(dp487
I0
F1.5058271836835992
sI1
F1.4983327587941873
sI2
F1.5053482090742505
sI3
F1.4962679331595505
sI4
F1.5010806595688375
sI5
F1.5045656389675306
sI6
F1.5002148560951778
sI7
F1.5020862949278964
sI8
F1.5026268243734993
sI9
F1.5001946073960706
ssg56
(dp488
I0
g461
sI1
g462
sI2
g463
sI3
g464
sI4
g465
sI5
g466
sI6
g467
sI7
g468
sI8
g469
sI9
g470
ssg58
(dp489
I0
F16.01495
sI1
F13.85227
sI2
F19.18169
sI3
F14.64331
sI4
F19.22429
sI5
F19.57007
sI6
F14.86596
sI7
F20.92504
sI8
F18.63613
sI9
F15.62239
ssg60
(dp490
I0
F10.7887
sI1
Fnan
sI2
Fnan
sI3
Fnan
sI4
Fnan
sI5
Fnan
sI6
Fnan
sI7
Fnan
sI8
Fnan
sI9
Fnan
ssg62
(dp491
I0
F0.7166173587464398
sI1
Fnan
sI2
Fnan
sI3
Fnan
sI4
Fnan
sI5
Fnan
sI6
Fnan
sI7
Fnan
sI8
Fnan
sI9
Fnan
ssg64
(dp492
I0
F4.368371
sI1
F3.132029
sI2
F4.122466
sI3
F3.804147
sI4
F3.840528
sI5
F-4.066718
sI6
F3.050569
sI7
F-3.519936
sI8
F-1.805195
sI9
F-4.267928
ssg66
(dp493
I0
F11.150400000000001
sI1
Fnan
sI2
Fnan
sI3
Fnan
sI4
Fnan
sI5
Fnan
sI6
Fnan
sI7
Fnan
sI8
Fnan
sI9
Fnan
ssg68
(dp494
I0
g461
sI1
g462
sI2
g463
sI3
g464
sI4
g465
sI5
g466
sI6
g467
sI7
g468
sI8
g469
sI9
g470
ssg70
(dp495
I0
F8758.43
sI1
F8889.08
sI2
F8880.063333333334
sI3
F8807.013333333334
sI4
F8657.04
sI5
F8653.87
sI6
F8814.230000000001
sI7
F8252.556666666667
sI8
F8667.936666666666
sI9
F8707.38
ssg72
(dp496
I0
F1.116701
sI1
F1.114853
sI2
F1.071021
sI3
F1.111242
sI4
F1.068283
sI5
F1.072406
sI6
F1.1130440000000001
sI7
F1.069647
sI8
F1.066937
sI9
F1.118595
ssg74
(dp497
I0
F7546.473333333333
sI1
F7607.233333333334
sI2
F7584.326666666666
sI3
F7574.883333333333
sI4
F7441.153333333334
sI5
F7417.63
sI6
F7592.1
sI7
F7092.03
sI8
F7421.833333333333
sI9
F7461.926666666666
ssg76
(dp498
I0
F12276.183333333332
sI1
F12358.483333333334
sI2
F12392.32
sI3
F12255.853333333333
sI4
F12082.343333333332
sI5
F12090.313333333334
sI6
F12306.51
sI7
F11524.446666666667
sI8
F12088.46
sI9
F12128.553333333333
ssg78
(dp499
I0
F15.49629
sI1
F14.17336
sI2
F17.3373
sI3
F14.90554
sI4
F17.87873
sI5
F19.3165
sI6
F14.2929
sI7
F19.82614
sI8
F18.01015
sI9
F16.16458
ssg80
(dp500
I0
F11.306
sI1
F11.297
sI2
F11.3
sI3
F11.302
sI4
F11.321
sI5
F11.324
sI6
F11.299
sI7
F11.373
sI8
F11.324
sI9
F11.318
ssg82
(dp501
I0
F0.002
sI1
F0.002
sI2
F0.002
sI3
F0.002
sI4
F0.002
sI5
F0.002
sI6
F0.002
sI7
F0.002
sI8
F0.002
sI9
F0.002
ssg84
(dp502
I0
F0.6925703372145386
sI1
Fnan
sI2
Fnan
sI3
Fnan
sI4
Fnan
sI5
Fnan
sI6
Fnan
sI7
Fnan
sI8
Fnan
sI9
Fnan
ssg86
(dp503
I0
F11.316399999999998
sI1
Fnan
sI2
Fnan
sI3
Fnan
sI4
Fnan
sI5
Fnan
sI6
Fnan
sI7
Fnan
sI8
Fnan
sI9
Fnan
ssg88
(dp504
I0
F11.144
sI1
F11.128
sI2
F11.129
sI3
F11.138
sI4
F11.157
sI5
F11.157
sI6
F11.137
sI7
F11.209
sI8
F11.155
sI9
F11.15
ssg90
(dp505
I0
F3.897698
sI1
F2.121819
sI2
F2.634618
sI3
F3.44903
sI4
F4.953737
sI5
F4.120104
sI6
F3.593372
sI7
F2.824761
sI8
F1.796067
sI9
F-2.701524
ssg92
(dp506
I0
F0.02265710582674786
sI1
Fnan
sI2
Fnan
sI3
Fnan
sI4
Fnan
sI5
Fnan
sI6
Fnan
sI7
Fnan
sI8
Fnan
sI9
Fnan
ssg94
(dp507
I0
F0.7175290758850809
sI1
F0.7160570098312451
sI2
F0.7130678822228821
sI3
F0.7192642343713896
sI4
F0.7175867492042114
sI5
F0.7151527616978575
sI6
F0.7189236740758136
sI7
F0.7171996566382403
sI8
F0.7151369722329775
sI9
F0.7162555713047011
ssg96
(dp508
I0
F30.0
sI1
F30.0
sI2
F30.0
sI3
F30.0
sI4
F30.0
sI5
F30.0
sI6
F30.0
sI7
F30.0
sI8
F30.0
sI9
F30.0
ssg98
(dp509
I0
F0.002
sI1
F0.002
sI2
F0.002
sI3
F0.002
sI4
F0.002
sI5
F0.002
sI6
F0.002
sI7
F0.002
sI8
F0.002
sI9
F0.002
ssg100
(dp510
I0
F0.002
sI1
F0.002
sI2
F0.002
sI3
F0.002
sI4
F0.002
sI5
F0.002
sI6
F0.002
sI7
F0.002
sI8
F0.002
sI9
F0.002
ssg102
(dp511
I0
F4.121782
sI1
F4.824383
sI2
F3.351208
sI3
F4.36236
sI4
F3.19873
sI5
F4.216699
sI6
F1.70998
sI7
F4.047992
sI8
F5.544209
sI9
F3.696973
ssg104
(dp512
I0
S'KIC8462852-20181115at022628_-25-1X1-030-V_cal.fts.mag.1'
p513
sI1
S'KIC8462852-20181115at022524_-25-1X1-030-V_cal.fts.mag.1'
p514
sI2
S'KIC8462852-20181115at015556_-25-1X1-030-V_cal.fts.mag.1'
p515
sI3
S'KIC8462852-20181115at022308_-25-1X1-030-V_cal.fts.mag.1'
p516
sI4
S'KIC8462852-20181115at015345_-25-1X1-030-V_cal.fts.mag.1'
p517
sI5
S'KIC8462852-20181115at015701_-25-1X1-030-V_cal.fts.mag.1'
p518
sI6
S'KIC8462852-20181115at022421_-25-1X1-030-V_cal.fts.mag.1'
p519
sI7
S'KIC8462852-20181115at015450_-25-1X1-030-V_cal.fts.mag.1'
p520
sI8
S'KIC8462852-20181115at015234_-25-1X1-030-V_cal.fts.mag.1'
p521
sI9
S'KIC8462852-20181115at022733_-25-1X1-030-V_cal.fts.mag.1'
p522
ssg121
(dp523
I0
F0.0030775818118370796
sI1
Fnan
sI2
Fnan
sI3
Fnan
sI4
Fnan
sI5
Fnan
sI6
Fnan
sI7
Fnan
sI8
Fnan
sI9
Fnan
ssg123
(dp524
I0
F6585.65
sI1
F6650.0633333333335
sI2
F6692.1900000000005
sI3
F6601.490000000001
sI4
F6510.443333333333
sI5
F6501.343333333333
sI6
F6648.636666666667
sI7
F6175.863333333333
sI8
F6501.236666666667
sI9
F6543.743333333333
ssg125
(dp525
I0
F0.02262348828589908
sI1
Fnan
sI2
Fnan
sI3
Fnan
sI4
Fnan
sI5
Fnan
sI6
Fnan
sI7
Fnan
sI8
Fnan
sI9
Fnan
ssg127
(dp526
I0
g457
sI1
g457
sI2
g457
sI3
g457
sI4
g457
sI5
g457
sI6
g457
sI7
g457
sI8
g457
sI9
g457
ssg144
(dp527
I0
F0.0018084408581779913
sI1
Fnan
sI2
Fnan
sI3
Fnan
sI4
Fnan
sI5
Fnan
sI6
Fnan
sI7
Fnan
sI8
Fnan
sI9
Fnan
ssg146
(dp528
I0
F2.203431
sI1
F3.78636
sI2
F-3.337769
sI3
F3.508034
sI4
F3.198886
sI5
F2.777748
sI6
F2.161309
sI7
F-3.469944
sI8
F-2.293182
sI9
F3.881415
ssg148
(dp529
I0
F1.50165449660406
sI1
Fnan
sI2
Fnan
sI3
Fnan
sI4
Fnan
sI5
Fnan
sI6
Fnan
sI7
Fnan
sI8
Fnan
sI9
Fnan
ssg150
(dp530
I0
F2458437.5903703705
sI1
Fnan
sI2
Fnan
sI3
Fnan
sI4
Fnan
sI5
Fnan
sI6
Fnan
sI7
Fnan
sI8
Fnan
sI9
Fnan
ssg152
(dp531
I0
F0.0018084408581779913
sI1
Fnan
sI2
Fnan
sI3
Fnan
sI4
Fnan
sI5
Fnan
sI6
Fnan
sI7
Fnan
sI8
Fnan
sI9
Fnan
ssg154
(dp532
I0
F16.40897
sI1
F16.26418
sI2
F19.89898
sI3
F16.73679
sI4
F19.08427
sI5
F20.60134
sI6
F16.10376
sI7
F21.23745
sI8
F19.76546
sI9
F15.99562
ssg156
(dp533
I0
F10.777
sI1
F10.77
sI2
F10.767
sI3
F10.779
sI4
F10.795
sI5
F10.794
sI6
F10.775
sI7
F10.846
sI8
F10.794
sI9
F10.79
ssg158
(dp534
I0
F0.6925703372145386
sI1
Fnan
sI2
Fnan
sI3
Fnan
sI4
Fnan
sI5
Fnan
sI6
Fnan
sI7
Fnan
sI8
Fnan
sI9
Fnan
sss.