(dp0
S'i'
p1
(dp2
S'sigmean'
p3
(dp4
I0
F0.44058931449363725
sI1
Fnan
sI2
Fnan
sI3
Fnan
sI4
Fnan
sI5
Fnan
sI6
Fnan
sI7
Fnan
sI8
Fnan
sI9
Fnan
sI10
Fnan
sI11
Fnan
sI12
Fnan
sI13
Fnan
ssS'ref3flag'
p5
(dp6
I0
S'NoError'
p7
sI1
S'NoError'
p8
sI2
S'NoError'
p9
sI3
S'NoError'
p10
sI4
S'NoError'
p11
sI5
S'NoError'
p12
sI6
S'NoError'
p13
sI7
S'NoError'
p14
sI8
S'NoError'
p15
sI9
S'NoError'
p16
sI10
S'NoError'
p17
sI11
S'NoError'
p18
sI12
S'NoError'
p19
sI13
S'NoError'
p20
ssS'tabbyerr'
p21
(dp22
I0
F0.003
sI1
F0.003
sI2
F0.003
sI3
F0.003
sI4
F0.003
sI5
F0.003
sI6
F0.003
sI7
F0.003
sI8
F0.003
sI9
F0.003
sI10
F0.003
sI11
F0.003
sI12
F0.003
sI13
F0.003
ssS'ref2rel'
p23
(dp24
I0
F0.9099975704097119
sI1
F0.9108539081908198
sI2
F0.9095143466312848
sI3
F0.9098605722071161
sI4
F0.9130425432028179
sI5
F0.9088584790130205
sI6
F0.9112586471178078
sI7
F0.9107895703108004
sI8
F0.907981417621014
sI9
F0.9120947796580691
sI10
F0.9099492229241509
sI11
F0.9127795122366559
sI12
F0.9118116811184789
sI13
F0.9130883100099835
ssS'ref2err'
p25
(dp26
I0
F0.0015855386822402283
sI1
Fnan
sI2
Fnan
sI3
Fnan
sI4
Fnan
sI5
Fnan
sI6
Fnan
sI7
Fnan
sI8
Fnan
sI9
Fnan
sI10
Fnan
sI11
Fnan
sI12
Fnan
sI13
Fnan
ssS'ref2mean'
p27
(dp28
I0
F0.9108486114751237
sI1
Fnan
sI2
Fnan
sI3
Fnan
sI4
Fnan
sI5
Fnan
sI6
Fnan
sI7
Fnan
sI8
Fnan
sI9
Fnan
sI10
Fnan
sI11
Fnan
sI12
Fnan
sI13
Fnan
ssS'tabbymag'
p29
(dp30
I0
F11.932
sI1
F11.981
sI2
F11.995
sI3
F11.922
sI4
F11.972
sI5
F11.945
sI6
F11.942
sI7
F12.015
sI8
F11.935
sI9
F11.967
sI10
F11.931
sI11
F11.938
sI12
F11.914
sI13
F11.969
ssS'tabbybkg'
p31
(dp32
I0
F23.73927
sI1
F31.76614
sI2
F33.4612
sI3
F23.23079
sI4
F31.67888
sI5
F23.78715
sI6
F23.52761
sI7
F30.52824
sI8
F25.35757
sI9
F27.55997
sI10
F23.40699
sI11
F24.5742
sI12
F21.78676
sI13
F32.07053
ssS'JD'
p33
(dp34
I0
F2458416.600752315
sI1
F2458416.620949074
sI2
F2458416.6224189815
sI3
F2458416.584976852
sI4
F2458416.6202083332
sI5
F2458416.584247685
sI6
F2458416.5820486112
sI7
F2458416.619467593
sI8
F2458416.6036921297
sI9
F2458416.6022222224
sI10
F2458416.5835069446
sI11
F2458416.602951389
sI12
F2458416.5827777777
sI13
F2458416.6216898146
ssS'ref3rmsmean'
p35
(dp36
I0
F2.119087357142857
sI1
Fnan
sI2
Fnan
sI3
Fnan
sI4
Fnan
sI5
Fnan
sI6
Fnan
sI7
Fnan
sI8
Fnan
sI9
Fnan
sI10
Fnan
sI11
Fnan
sI12
Fnan
sI13
Fnan
ssS'ref1rmsmean'
p37
(dp38
I0
F1.9759004999999996
sI1
Fnan
sI2
Fnan
sI3
Fnan
sI4
Fnan
sI5
Fnan
sI6
Fnan
sI7
Fnan
sI8
Fnan
sI9
Fnan
sI10
Fnan
sI11
Fnan
sI12
Fnan
sI13
Fnan
ssS'relflux'
p39
(dp40
I0
F0.44136474174158025
sI1
F0.4400324551131952
sI2
F0.44158296295678473
sI3
F0.43832985964349724
sI4
F0.44139157729908585
sI5
F0.43949257978012807
sI6
F0.43903145132033855
sI7
F0.4421097818964102
sI8
F0.43957479681576966
sI9
F0.43763550543348945
sI10
F0.44261838310918067
sI11
F0.4416496431614771
sI12
F0.4391978909487684
sI13
F0.44128496463106875
ssS'sigerr'
p41
(dp42
I0
F0.0013091311196323804
sI1
Fnan
sI2
Fnan
sI3
Fnan
sI4
Fnan
sI5
Fnan
sI6
Fnan
sI7
Fnan
sI8
Fnan
sI9
Fnan
sI10
Fnan
sI11
Fnan
sI12
Fnan
sI13
Fnan
ssS'tabbyrmsmean'
p43
(dp44
I0
F1.5490242142857142
sI1
Fnan
sI2
Fnan
sI3
Fnan
sI4
Fnan
sI5
Fnan
sI6
Fnan
sI7
Fnan
sI8
Fnan
sI9
Fnan
sI10
Fnan
sI11
Fnan
sI12
Fnan
sI13
Fnan
ssS'tabbyflag'
p45
(dp46
I0
g7
sI1
g8
sI2
g9
sI3
g10
sI4
g11
sI5
g12
sI6
g13
sI7
g14
sI8
g15
sI9
g16
sI10
g17
sI11
g18
sI12
g19
sI13
g20
ssS'ref1err'
p47
(dp48
I0
F0.001475891937818774
sI1
Fnan
sI2
Fnan
sI3
Fnan
sI4
Fnan
sI5
Fnan
sI6
Fnan
sI7
Fnan
sI8
Fnan
sI9
Fnan
sI10
Fnan
sI11
Fnan
sI12
Fnan
sI13
Fnan
ssS'ref2magmeanerr'
p49
(dp50
I0
F0.030766133085828908
sI1
Fnan
sI2
Fnan
sI3
Fnan
sI4
Fnan
sI5
Fnan
sI6
Fnan
sI7
Fnan
sI8
Fnan
sI9
Fnan
sI10
Fnan
sI11
Fnan
sI12
Fnan
sI13
Fnan
ssS'ref2rmsmean'
p51
(dp52
I0
F1.5973429285714287
sI1
Fnan
sI2
Fnan
sI3
Fnan
sI4
Fnan
sI5
Fnan
sI6
Fnan
sI7
Fnan
sI8
Fnan
sI9
Fnan
sI10
Fnan
sI11
Fnan
sI12
Fnan
sI13
Fnan
ssS'ref3rel'
p53
(dp54
I0
F1.5003169536802068
sI1
F1.4949841728130124
sI2
F1.4976910761078286
sI3
F1.5039732967011483
sI4
F1.4960291863094954
sI5
F1.503952563115715
sI6
F1.5011990134668443
sI7
F1.5041259539090603
sI8
F1.5030921189861386
sI9
F1.4965997472055776
sI10
F1.5008628013868146
sI11
F1.4978037542502232
sI12
F1.4981758075050509
sI13
F1.4988874809196433
ssS'ref1flag'
p55
(dp56
I0
g7
sI1
g8
sI2
g9
sI3
g10
sI4
g11
sI5
g12
sI6
g13
sI7
g14
sI8
g15
sI9
g16
sI10
g17
sI11
g18
sI12
g19
sI13
g20
ssS'ref2bkg'
p57
(dp58
I0
F27.40285
sI1
F34.31707
sI2
F36.16443
sI3
F24.40527
sI4
F34.62246
sI5
F26.33473
sI6
F25.94876
sI7
F35.38598
sI8
F27.71585
sI9
F29.86271
sI10
F26.00042
sI11
F28.01247
sI12
F25.06693
sI13
F34.64942
ssS'ref3magmean'
p59
(dp60
I0
F10.790857142857144
sI1
Fnan
sI2
Fnan
sI3
Fnan
sI4
Fnan
sI5
Fnan
sI6
Fnan
sI7
Fnan
sI8
Fnan
sI9
Fnan
sI10
Fnan
sI11
Fnan
sI12
Fnan
sI13
Fnan
ssS'ref1mean'
p61
(dp62
I0
F0.6973849938354767
sI1
Fnan
sI2
Fnan
sI3
Fnan
sI4
Fnan
sI5
Fnan
sI6
Fnan
sI7
Fnan
sI8
Fnan
sI9
Fnan
sI10
Fnan
sI11
Fnan
sI12
Fnan
sI13
Fnan
ssS'ref1rms'
p63
(dp64
I0
F-3.39612
sI1
F3.473805
sI2
F3.617769
sI3
F-1.595245
sI4
F3.840104
sI5
F2.543949
sI6
F4.176241
sI7
F2.182204
sI8
F4.900778
sI9
F2.409751
sI10
F3.153715
sI11
F1.044233
sI12
F3.534034
sI13
F-2.222611
ssS'ref2magmean'
p65
(dp66
I0
F11.132357142857144
sI1
Fnan
sI2
Fnan
sI3
Fnan
sI4
Fnan
sI5
Fnan
sI6
Fnan
sI7
Fnan
sI8
Fnan
sI9
Fnan
sI10
Fnan
sI11
Fnan
sI12
Fnan
sI13
Fnan
ssS'ref2flag'
p67
(dp68
I0
g7
sI1
g8
sI2
g9
sI3
g10
sI4
g11
sI5
g12
sI6
g13
sI7
g14
sI8
g15
sI9
g16
sI10
g17
sI11
g18
sI12
g19
sI13
g20
ssS'ref2'
p69
(dp70
I0
F9007.873333333333
sI1
F8641.366666666667
sI2
F8495.390000000001
sI3
F9153.456666666667
sI4
F8703.19
sI5
F8934.316666666668
sI6
F8984.773333333334
sI7
F8338.586666666666
sI8
F9010.57
sI9
F8810.34
sI10
F8989.506666666666
sI11
F8969.353333333333
sI12
F9216.17
sI13
F8728.293333333333
ssS'airmass'
p71
(dp72
I0
F1.021392
sI1
F1.044071
sI2
F1.0461200000000002
sI3
F1.010467
sI4
F1.043067
sI5
F1.010098
sI6
F1.0090649999999999
sI7
F1.042058
sI8
F1.024071
sI9
F1.022706
sI10
F1.009743
sI11
F1.02338
sI12
F1.009396
sI13
F1.045091
ssS'ref1'
p73
(dp74
I0
F7450.8933333333325
sI1
F7161.61
sI2
F7044.316666666667
sI3
F7555.59
sI4
F7181.883333333333
sI5
F7387.16
sI6
F7412.04
sI7
F6871.633333333333
sI8
F7465.1866666666665
sI9
F7279.15
sI10
F7433.740000000001
sI11
F7396.453333333334
sI12
F7610.453333333334
sI13
F7189.036666666667
ssS'ref3'
p75
(dp76
I0
F12346.683333333332
sI1
F11812.6
sI2
F11636.84
sI3
F12564.980000000001
sI4
F11882.266666666666
sI5
F12273.363333333335
sI6
F12307.44
sI7
F11439.043333333333
sI8
F12382.29
sI9
F12039.763333333334
sI10
F12324.519999999999
sI11
F12256.383333333333
sI12
F12604.619999999999
sI13
F11929.143333333333
ssS'ref1bkg'
p77
(dp78
I0
F25.34238
sI1
F33.84239
sI2
F33.96219
sI3
F25.18964
sI4
F33.21299
sI5
F25.22639
sI6
F25.94855
sI7
F33.973
sI8
F25.46036
sI9
F28.9072
sI10
F25.34932
sI11
F27.15482
sI12
F23.44896
sI13
F34.17402
ssS'ref1mag'
p79
(dp80
I0
F11.319
sI1
F11.362
sI2
F11.38
sI3
F11.304
sI4
F11.359
sI5
F11.329
sI6
F11.325
sI7
F11.407
sI8
F11.317
sI9
F11.345
sI10
F11.322
sI11
F11.327
sI12
F11.296
sI13
F11.358
ssS'ref3magerr'
p81
(dp82
I0
F0.002
sI1
F0.002
sI2
F0.002
sI3
F0.002
sI4
F0.002
sI5
F0.002
sI6
F0.002
sI7
F0.002
sI8
F0.002
sI9
F0.002
sI10
F0.002
sI11
F0.002
sI12
F0.002
sI13
F0.002
ssS'tabbymagmean'
p83
(dp84
I0
F0.4403783281321981
sI1
Fnan
sI2
Fnan
sI3
Fnan
sI4
Fnan
sI5
Fnan
sI6
Fnan
sI7
Fnan
sI8
Fnan
sI9
Fnan
sI10
Fnan
sI11
Fnan
sI12
Fnan
sI13
Fnan
ssS'ref1magmean'
p85
(dp86
I0
F11.339285714285714
sI1
Fnan
sI2
Fnan
sI3
Fnan
sI4
Fnan
sI5
Fnan
sI6
Fnan
sI7
Fnan
sI8
Fnan
sI9
Fnan
sI10
Fnan
sI11
Fnan
sI12
Fnan
sI13
Fnan
ssS'ref2mag'
p87
(dp88
I0
F11.113
sI1
F11.159
sI2
F11.177
sI3
F11.096
sI4
F11.151
sI5
F11.122
sI6
F11.116
sI7
F11.197
sI8
F11.113
sI9
F11.138
sI10
F11.116
sI11
F11.118
sI12
F11.089
sI13
F11.148
ssS'ref3rms'
p89
(dp90
I0
F2.960152
sI1
F-2.025171
sI2
F-3.354165
sI3
F4.448695
sI4
F4.243617
sI5
F3.466356
sI6
F4.56465
sI7
F4.340173
sI8
F-4.833936
sI9
F4.717054
sI10
F4.307545
sI11
F3.661073
sI12
F4.750293
sI13
F-1.579113
ssS'ref3magmeanerr'
p91
(dp92
I0
F0.031154348116970716
sI1
Fnan
sI2
Fnan
sI3
Fnan
sI4
Fnan
sI5
Fnan
sI6
Fnan
sI7
Fnan
sI8
Fnan
sI9
Fnan
sI10
Fnan
sI11
Fnan
sI12
Fnan
sI13
Fnan
ssS'ref1rel'
p93
(dp94
I0
F0.6978270211494284
sI1
F0.7002661260489
sI2
F0.6998049065271622
sI3
F0.6957765990216299
sI4
F0.6977628380683645
sI5
F0.6966495156471617
sI6
F0.6962207154289893
sI7
F0.6948894618145182
sI8
F0.6979138522541322
sI9
F0.6982363476695799
sI10
F0.6975444026844295
sI11
F0.6969325446262487
sI12
F0.6975415036149776
sI13
F0.6960240791411518
ssS'exposure'
p95
(dp96
I0
F30.0
sI1
F30.0
sI2
F30.0
sI3
F30.0
sI4
F30.0
sI5
F30.0
sI6
F30.0
sI7
F30.0
sI8
F30.0
sI9
F30.0
sI10
F30.0
sI11
F30.0
sI12
F30.0
sI13
F30.0
ssS'ref1magerr'
p97
(dp98
I0
F0.002
sI1
F0.002
sI2
F0.002
sI3
F0.002
sI4
F0.002
sI5
F0.002
sI6
F0.002
sI7
F0.002
sI8
F0.002
sI9
F0.002
sI10
F0.002
sI11
F0.002
sI12
F0.002
sI13
F0.002
ssS'ref2magerr'
p99
(dp100
I0
F0.002
sI1
F0.002
sI2
F0.002
sI3
F0.002
sI4
F0.002
sI5
F0.002
sI6
F0.002
sI7
F0.002
sI8
F0.002
sI9
F0.002
sI10
F0.002
sI11
F0.002
sI12
F0.002
sI13
F0.002
ssS'ref2rms'
p101
(dp102
I0
F3.772964
sI1
F-1.568495
sI2
F-2.995338
sI3
F4.292749
sI4
F4.882905
sI5
F3.249554
sI6
F3.116554
sI7
F5.075273
sI8
F-2.337422
sI9
F4.337415
sI10
F-1.851079
sI11
F-3.356057
sI12
F2.748897
sI13
F2.994881
ssS'name'
p103
(dp104
I0
S"KIC8462852-20181025at022504_-25-1X1-030-i'_cal.fts.mag.1"
p105
sI1
S"KIC8462852-20181025at025410_-25-1X1-030-i'_cal.fts.mag.1"
p106
sI2
S"KIC8462852-20181025at025617_-25-1X1-030-i'_cal.fts.mag.1"
p107
sI3
S"KIC8462852-20181025at020222_-25-1X1-030-i'_cal.fts.mag.1"
p108
sI4
S"KIC8462852-20181025at025305_-25-1X1-030-i'_cal.fts.mag.1"
p109
sI5
S"KIC8462852-20181025at020119_-25-1X1-030-i'_cal.fts.mag.1"
p110
sI6
S"KIC8462852-20181025at015808_-25-1X1-030-i'_cal.fts.mag.1"
p111
sI7
S"KIC8462852-20181025at025200_-25-1X1-030-i'_cal.fts.mag.1"
p112
sI8
S"KIC8462852-20181025at022919_-25-1X1-030-i'_cal.fts.mag.1"
p113
sI9
S"KIC8462852-20181025at022712_-25-1X1-030-i'_cal.fts.mag.1"
p114
sI10
S"KIC8462852-20181025at020015_-25-1X1-030-i'_cal.fts.mag.1"
p115
sI11
S"KIC8462852-20181025at022815_-25-1X1-030-i'_cal.fts.mag.1"
p116
sI12
S"KIC8462852-20181025at015912_-25-1X1-030-i'_cal.fts.mag.1"
p117
sI13
S"KIC8462852-20181025at025514_-25-1X1-030-i'_cal.fts.mag.1"
p118
ssS'ref3err'
p119
(dp120
I0
F0.0031268662833130677
sI1
Fnan
sI2
Fnan
sI3
Fnan
sI4
Fnan
sI5
Fnan
sI6
Fnan
sI7
Fnan
sI8
Fnan
sI9
Fnan
sI10
Fnan
sI11
Fnan
sI12
Fnan
sI13
Fnan
ssS'tabby'
p121
(dp122
I0
F4237.903333333334
sI1
F4050.5833333333335
sI2
F4000.233333333333
sI3
F4277.2266666666665
sI4
F4085.423333333333
sI5
F4189.073333333333
sI6
F4200.69
sI7
F3927.3
sI8
F4228.423333333333
sI9
F4103.453333333334
sI10
F4241.429999999999
sI11
F4213.66
sI12
F4308.713333333333
sI13
F4096.076666666667
ssS'ref1magmeanerr'
p123
(dp124
I0
F0.030780684681315316
sI1
Fnan
sI2
Fnan
sI3
Fnan
sI4
Fnan
sI5
Fnan
sI6
Fnan
sI7
Fnan
sI8
Fnan
sI9
Fnan
sI10
Fnan
sI11
Fnan
sI12
Fnan
sI13
Fnan
ssS'filter'
p125
(dp126
I0
S"i'"
p127
sI1
S"i'"
p128
sI2
S"i'"
p129
sI3
S"i'"
p130
sI4
S"i'"
p131
sI5
S"i'"
p132
sI6
S"i'"
p133
sI7
S"i'"
p134
sI8
S"i'"
p135
sI9
S"i'"
p136
sI10
S"i'"
p137
sI11
S"i'"
p138
sI12
S"i'"
p139
sI13
S"i'"
p140
ssS'tabbymagerr'
p141
(dp142
I0
F0.001528737294101397
sI1
Fnan
sI2
Fnan
sI3
Fnan
sI4
Fnan
sI5
Fnan
sI6
Fnan
sI7
Fnan
sI8
Fnan
sI9
Fnan
sI10
Fnan
sI11
Fnan
sI12
Fnan
sI13
Fnan
ssS'tabbyrms'
p143
(dp144
I0
F2.721868
sI1
F3.711913
sI2
F4.08784
sI3
F-3.963894
sI4
F3.753371
sI5
F-3.901779
sI6
F4.49783
sI7
F3.681813
sI8
F3.047227
sI9
F-2.5334
sI10
F-4.346295
sI11
F3.617078
sI12
F4.323277
sI13
F2.98949
ssS'ref3mean'
p145
(dp146
I0
F1.499835280454054
sI1
Fnan
sI2
Fnan
sI3
Fnan
sI4
Fnan
sI5
Fnan
sI6
Fnan
sI7
Fnan
sI8
Fnan
sI9
Fnan
sI10
Fnan
sI11
Fnan
sI12
Fnan
sI13
Fnan
ssS'median_JD'
p147
(dp148
I0
F2458416.602586806
sI1
Fnan
sI2
Fnan
sI3
Fnan
sI4
Fnan
sI5
Fnan
sI6
Fnan
sI7
Fnan
sI8
Fnan
sI9
Fnan
sI10
Fnan
sI11
Fnan
sI12
Fnan
sI13
Fnan
ssS'error'
p149
(dp150
I0
F0.001528737294101397
sI1
Fnan
sI2
Fnan
sI3
Fnan
sI4
Fnan
sI5
Fnan
sI6
Fnan
sI7
Fnan
sI8
Fnan
sI9
Fnan
sI10
Fnan
sI11
Fnan
sI12
Fnan
sI13
Fnan
ssS'ref3bkg'
p151
(dp152
I0
F28.59379
sI1
F36.51217
sI2
F39.5875
sI3
F27.40339
sI4
F36.3399
sI5
F28.96492
sI6
F27.6515
sI7
F37.30123
sI8
F30.04865
sI9
F31.16177
sI10
F27.88788
sI11
F31.21639
sI12
F26.03155
sI13
F37.02188
ssS'ref3mag'
p153
(dp154
I0
F10.771
sI1
F10.819
sI2
F10.835
sI3
F10.752
sI4
F10.813
sI5
F10.778
sI6
F10.775
sI7
F10.854
sI8
F10.768
sI9
F10.798
sI10
F10.773
sI11
F10.779
sI12
F10.749
sI13
F10.808
ssS'mean'
p155
(dp156
I0
F0.4403783281321981
sI1
Fnan
sI2
Fnan
sI3
Fnan
sI4
Fnan
sI5
Fnan
sI6
Fnan
sI7
Fnan
sI8
Fnan
sI9
Fnan
sI10
Fnan
sI11
Fnan
sI12
Fnan
sI13
Fnan
sssS'r'
p157
(dp158
g3
(dp159
I0
F0.5518601631605076
sI1
Fnan
sI2
Fnan
sI3
Fnan
sI4
Fnan
sI5
Fnan
sI6
Fnan
sI7
Fnan
sI8
Fnan
sI9
Fnan
ssg5
(dp160
I0
S'NoError'
p161
sI1
S'NoError'
p162
sI2
S'NoError'
p163
sI3
S'NoError'
p164
sI4
S'NoError'
p165
sI5
S'NoError'
p166
sI6
S'NoError'
p167
sI7
S'NoError'
p168
sI8
S'NoError'
p169
sI9
S'NoError'
p170
ssg21
(dp171
I0
F0.002
sI1
F0.002
sI2
F0.002
sI3
F0.002
sI4
F0.002
sI5
F0.002
sI6
F0.002
sI7
F0.002
sI8
F0.002
sI9
F0.002
ssg23
(dp172
I0
F0.8982956708509998
sI1
F0.8963856592720418
sI2
F0.8969975958378466
sI3
F0.8984327386329704
sI4
F0.8960714178793364
sI5
F0.8990100044963428
sI6
F0.8967216714705976
sI7
F0.8947349350539551
sI8
F0.8991161736358328
sI9
F0.8936545285608948
ssg25
(dp173
I0
F0.0018213568799147772
sI1
Fnan
sI2
Fnan
sI3
Fnan
sI4
Fnan
sI5
Fnan
sI6
Fnan
sI7
Fnan
sI8
Fnan
sI9
Fnan
ssg27
(dp174
I0
F0.8969420395690817
sI1
Fnan
sI2
Fnan
sI3
Fnan
sI4
Fnan
sI5
Fnan
sI6
Fnan
sI7
Fnan
sI8
Fnan
sI9
Fnan
ssg29
(dp175
I0
F11.195
sI1
F11.201
sI2
F11.207
sI3
F11.212
sI4
F11.198
sI5
F11.202
sI6
F11.205
sI7
F11.249
sI8
F11.214
sI9
F11.22
ssg31
(dp176
I0
F49.6692
sI1
F40.12823
sI2
F40.10458
sI3
F53.53978
sI4
F39.30526
sI5
F38.99212
sI6
F39.42628
sI7
F57.1515
sI8
F48.53701
sI9
F52.04204
ssg33
(dp177
I0
F2458416.6165046296
sI1
F2458416.5813078703
sI2
F2458416.5783564816
sI3
F2458416.617974537
sI4
F2458416.5805671294
sI5
F2458416.579097222
sI6
F2458416.579826389
sI7
F2458416.618703704
sI8
F2458416.6157638887
sI9
F2458416.6172453705
ssg35
(dp178
I0
F2.8800041000000003
sI1
Fnan
sI2
Fnan
sI3
Fnan
sI4
Fnan
sI5
Fnan
sI6
Fnan
sI7
Fnan
sI8
Fnan
sI9
Fnan
ssg37
(dp179
I0
F1.0653308
sI1
Fnan
sI2
Fnan
sI3
Fnan
sI4
Fnan
sI5
Fnan
sI6
Fnan
sI7
Fnan
sI8
Fnan
sI9
Fnan
ssg39
(dp180
I0
F0.5533585075318335
sI1
F0.5505422572058722
sI2
F0.5508155496132553
sI3
F0.553852119383964
sI4
F0.5516774147456694
sI5
F0.5500069067924495
sI6
F0.5504837289817911
sI7
F0.553125312929989
sI8
F0.5523409256923664
sI9
F0.552398908727885
ssg41
(dp181
I0
F0.0012855166103344035
sI1
Fnan
sI2
Fnan
sI3
Fnan
sI4
Fnan
sI5
Fnan
sI6
Fnan
sI7
Fnan
sI8
Fnan
sI9
Fnan
ssg43
(dp182
I0
F1.1938191999999999
sI1
Fnan
sI2
Fnan
sI3
Fnan
sI4
Fnan
sI5
Fnan
sI6
Fnan
sI7
Fnan
sI8
Fnan
sI9
Fnan
ssg45
(dp183
I0
g161
sI1
g162
sI2
g163
sI3
g164
sI4
g165
sI5
g166
sI6
g167
sI7
g168
sI8
g169
sI9
g170
ssg47
(dp184
I0
F0.0017288105363574867
sI1
Fnan
sI2
Fnan
sI3
Fnan
sI4
Fnan
sI5
Fnan
sI6
Fnan
sI7
Fnan
sI8
Fnan
sI9
Fnan
ssg49
(dp185
I0
F0.01763708214718853
sI1
Fnan
sI2
Fnan
sI3
Fnan
sI4
Fnan
sI5
Fnan
sI6
Fnan
sI7
Fnan
sI8
Fnan
sI9
Fnan
ssg51
(dp186
I0
F1.9511475000000005
sI1
Fnan
sI2
Fnan
sI3
Fnan
sI4
Fnan
sI5
Fnan
sI6
Fnan
sI7
Fnan
sI8
Fnan
sI9
Fnan
ssg53
(dp187
I0
F1.487573327884215
sI1
F1.4900807323417105
sI2
F1.4915865956210599
sI3
F1.486043286722683
sI4
F1.4926757202055352
sI5
F1.4945803819251335
sI6
F1.4936496115046585
sI7
F1.493401652768531
sI8
F1.4914153484492068
sI9
F1.4983913725622156
ssg55
(dp188
I0
g161
sI1
g162
sI2
g163
sI3
g164
sI4
g165
sI5
g166
sI6
g167
sI7
g168
sI8
g169
sI9
g170
ssg57
(dp189
I0
F52.11296
sI1
F42.08148
sI2
F43.35259
sI3
F57.40685
sI4
F41.80195
sI5
F42.22189
sI6
F42.21244
sI7
F60.09214
sI8
F55.20493
sI9
F56.9123
ssg59
(dp190
I0
F10.2952
sI1
Fnan
sI2
Fnan
sI3
Fnan
sI4
Fnan
sI5
Fnan
sI6
Fnan
sI7
Fnan
sI8
Fnan
sI9
Fnan
ssg61
(dp191
I0
F0.7141894458001704
sI1
Fnan
sI2
Fnan
sI3
Fnan
sI4
Fnan
sI5
Fnan
sI6
Fnan
sI7
Fnan
sI8
Fnan
sI9
Fnan
ssg63
(dp192
I0
F4.060927
sI1
F4.726841
sI2
F-4.211463
sI3
F4.624299
sI4
F5.726426
sI5
F2.184198
sI6
F-3.394829
sI7
F5.388096
sI8
F-3.428526
sI9
F-5.022661
ssg65
(dp193
I0
F10.6448
sI1
Fnan
sI2
Fnan
sI3
Fnan
sI4
Fnan
sI5
Fnan
sI6
Fnan
sI7
Fnan
sI8
Fnan
sI9
Fnan
ssg67
(dp194
I0
g161
sI1
g162
sI2
g163
sI3
g164
sI4
g165
sI5
g166
sI6
g167
sI7
g168
sI8
g169
sI9
g170
ssg69
(dp195
I0
F14035.706666666667
sI1
F14018.16
sI2
F13942.82
sI3
F13805.486666666666
sI4
F14017.706666666667
sI5
F14045.96
sI6
F13972.33
sI7
F13334.359999999999
sI8
F13836.8
sI9
F13699.196666666667
ssg71
(dp196
I0
F1.038209
sI1
F1.00874
sI2
F1.007578
sI3
F1.040084
sI4
F1.008433
sI5
F1.007851
sI6
F1.008137
sI7
F1.0410540000000001
sI8
F1.037292
sI9
F1.03914
ssg73
(dp197
I0
F11933.836666666666
sI1
F11938.393333333333
sI2
F11850.94
sI3
F11746.613333333335
sI4
F11925.003333333332
sI5
F11876.223333333333
sI6
F11866.246666666668
sI7
F11363.996666666668
sI8
F11720.44
sI9
F11659.896666666667
ssg75
(dp198
I0
F19315.8
sI1
F19338.68
sI2
F19236.813333333335
sI3
F18985.763333333332
sI4
F19362.02666666667
sI5
F19371.393333333333
sI6
F19296.89
sI7
F18442.283333333333
sI8
F19058.23
sI9
F18998.923333333332
ssg77
(dp199
I0
F50.78462
sI1
F40.97601
sI2
F42.16594
sI3
F54.99695
sI4
F40.81528
sI5
F40.58032
sI6
F41.50486
sI7
F59.52057
sI8
F50.95853
sI9
F54.89431
ssg79
(dp200
I0
F10.808
sI1
F10.808
sI2
F10.816
sI3
F10.825
sI4
F10.809
sI5
F10.813
sI6
F10.814
sI7
F10.861
sI8
F10.828
sI9
F10.833
ssg81
(dp201
I0
F0.001
sI1
F0.001
sI2
F0.001
sI3
F0.001
sI4
F0.001
sI5
F0.001
sI6
F0.001
sI7
F0.001
sI8
F0.001
sI9
F0.001
ssg83
(dp202
I0
F0.5518601631605076
sI1
Fnan
sI2
Fnan
sI3
Fnan
sI4
Fnan
sI5
Fnan
sI6
Fnan
sI7
Fnan
sI8
Fnan
sI9
Fnan
ssg85
(dp203
I0
F10.8215
sI1
Fnan
sI2
Fnan
sI3
Fnan
sI4
Fnan
sI5
Fnan
sI6
Fnan
sI7
Fnan
sI8
Fnan
sI9
Fnan
ssg87
(dp204
I0
F10.632
sI1
F10.633
sI2
F10.639
sI3
F10.65
sI4
F10.633
sI5
F10.631
sI6
F10.637
sI7
F10.688
sI8
F10.647
sI9
F10.658
ssg89
(dp205
I0
F2.450432
sI1
F5.005096
sI2
F4.326198
sI3
F-4.354246
sI4
F1.274034
sI5
F3.331026
sI6
F5.234098
sI7
F3.894293
sI8
F3.067012
sI9
F4.572098
ssg91
(dp206
I0
F0.016362558887085623
sI1
Fnan
sI2
Fnan
sI3
Fnan
sI4
Fnan
sI5
Fnan
sI6
Fnan
sI7
Fnan
sI8
Fnan
sI9
Fnan
ssg93
(dp207
I0
F0.7156400330539789
sI1
F0.7157988186730718
sI2
F0.7143502690907777
sI3
F0.7164480361885158
sI4
F0.7145056081933946
sI5
F0.7107818033863843
sI6
F0.7133468513338556
sI7
F0.7152421070696265
sI8
F0.7125964013408713
sI9
F0.7131845296712268
ssg95
(dp208
I0
F30.0
sI1
F30.0
sI2
F30.0
sI3
F30.0
sI4
F30.0
sI5
F30.0
sI6
F30.0
sI7
F30.0
sI8
F30.0
sI9
F30.0
ssg97
(dp209
I0
F0.002
sI1
F0.002
sI2
F0.002
sI3
F0.002
sI4
F0.002
sI5
F0.002
sI6
F0.002
sI7
F0.002
sI8
F0.002
sI9
F0.002
ssg99
(dp210
I0
F0.002
sI1
F0.002
sI2
F0.002
sI3
F0.002
sI4
F0.002
sI5
F0.002
sI6
F0.002
sI7
F0.002
sI8
F0.002
sI9
F0.002
ssg101
(dp211
I0
F-3.203308
sI1
F4.792572
sI2
F4.417544
sI3
F4.919678
sI4
F3.217536
sI5
F4.711552
sI6
F-2.813839
sI7
F5.356837
sI8
F2.681619
sI9
F-4.568716
ssg103
(dp212
I0
S"KIC8462852-20181025at024746_-25-1X1-030-r'_cal.fts.mag.1"
p213
sI1
S"KIC8462852-20181025at015705_-25-1X1-030-r'_cal.fts.mag.1"
p214
sI2
S"KIC8462852-20181025at015248_-25-1X1-030-r'_cal.fts.mag.1"
p215
sI3
S"KIC8462852-20181025at024953_-25-1X1-030-r'_cal.fts.mag.1"
p216
sI4
S"KIC8462852-20181025at015601_-25-1X1-030-r'_cal.fts.mag.1"
p217
sI5
S"KIC8462852-20181025at015354_-25-1X1-030-r'_cal.fts.mag.1"
p218
sI6
S"KIC8462852-20181025at015457_-25-1X1-030-r'_cal.fts.mag.1"
p219
sI7
S"KIC8462852-20181025at025056_-25-1X1-030-r'_cal.fts.mag.1"
p220
sI8
S"KIC8462852-20181025at024641_-25-1X1-030-r'_cal.fts.mag.1"
p221
sI9
S"KIC8462852-20181025at024850_-25-1X1-030-r'_cal.fts.mag.1"
p222
ssg119
(dp223
I0
F0.0035259103121520075
sI1
Fnan
sI2
Fnan
sI3
Fnan
sI4
Fnan
sI5
Fnan
sI6
Fnan
sI7
Fnan
sI8
Fnan
sI9
Fnan
ssg121
(dp224
I0
F8353.01
sI1
F8312.313333333334
sI2
F8267.846666666666
sI3
F8222.463333333333
sI4
F8331.2
sI5
F8303.926666666666
sI6
F8282.113333333333
sI7
F7954.0599999999995
sI8
F8214.316666666668
sI9
F8167.7733333333335
ssg123
(dp225
I0
F0.01641983894900059
sI1
Fnan
sI2
Fnan
sI3
Fnan
sI4
Fnan
sI5
Fnan
sI6
Fnan
sI7
Fnan
sI8
Fnan
sI9
Fnan
ssg125
(dp226
I0
S"r'"
p227
sI1
S"r'"
p228
sI2
S"r'"
p229
sI3
S"r'"
p230
sI4
S"r'"
p231
sI5
S"r'"
p232
sI6
S"r'"
p233
sI7
S"r'"
p234
sI8
S"r'"
p235
sI9
S"r'"
p236
ssg141
(dp237
I0
F0.0013550534862119548
sI1
Fnan
sI2
Fnan
sI3
Fnan
sI4
Fnan
sI5
Fnan
sI6
Fnan
sI7
Fnan
sI8
Fnan
sI9
Fnan
ssg143
(dp238
I0
F2.749899
sI1
F-5.494473
sI2
F3.410469
sI3
F4.803233
sI4
F3.57596
sI5
F-1.693094
sI6
F-1.005149
sI7
F-2.924741
sI8
F4.516222
sI9
F3.999866
ssg145
(dp239
I0
F1.491939802998495
sI1
Fnan
sI2
Fnan
sI3
Fnan
sI4
Fnan
sI5
Fnan
sI6
Fnan
sI7
Fnan
sI8
Fnan
sI9
Fnan
ssg147
(dp240
I0
F2458416.5985358795
sI1
Fnan
sI2
Fnan
sI3
Fnan
sI4
Fnan
sI5
Fnan
sI6
Fnan
sI7
Fnan
sI8
Fnan
sI9
Fnan
ssg149
(dp241
I0
F0.0013550534862119548
sI1
Fnan
sI2
Fnan
sI3
Fnan
sI4
Fnan
sI5
Fnan
sI6
Fnan
sI7
Fnan
sI8
Fnan
sI9
Fnan
ssg151
(dp242
I0
F56.06693
sI1
F45.03722
sI2
F46.30986
sI3
F60.16817
sI4
F44.43914
sI5
F45.66622
sI6
F45.50516
sI7
F63.78666
sI8
F57.07092
sI9
F58.34972
ssg153
(dp243
I0
F10.285
sI1
F10.284
sI2
F10.29
sI3
F10.304
sI4
F10.283
sI5
F10.282
sI6
F10.286
sI7
F10.335
sI8
F10.3
sI9
F10.303
ssg155
(dp244
I0
F0.5518601631605076
sI1
Fnan
sI2
Fnan
sI3
Fnan
sI4
Fnan
sI5
Fnan
sI6
Fnan
sI7
Fnan
sI8
Fnan
sI9
Fnan
sssS'z'
p245
(dp246
g3
(dp247
I0
F0.3712335326025626
sI1
Fnan
sI2
Fnan
sI3
Fnan
sI4
Fnan
sI5
Fnan
sI6
Fnan
sI7
Fnan
sI8
Fnan
sI9
Fnan
sI10
Fnan
sI11
Fnan
sI12
Fnan
sI13
Fnan
sI14
Fnan
ssg5
(dp248
I0
S'NoError'
p249
sI1
S'NoError'
p250
sI2
S'NoError'
p251
sI3
S'NoError'
p252
sI4
S'NoError'
p253
sI5
S'NoError'
p254
sI6
S'NoError'
p255
sI7
S'NoError'
p256
sI8
S'NoError'
p257
sI9
S'NoError'
p258
sI10
S'NoError'
p259
sI11
S'NoError'
p260
sI12
S'NoError'
p261
sI13
S'NoError'
p262
sI14
S'NoError'
p263
ssg21
(dp264
I0
F0.007
sI1
F0.007
sI2
F0.007
sI3
F0.008
sI4
F0.008
sI5
F0.007
sI6
F0.008
sI7
F0.008
sI8
F0.007
sI9
F0.007
sI10
F0.008
sI11
F0.007
sI12
F0.007
sI13
F0.008
sI14
F0.008
ssg23
(dp265
I0
F0.9202545239757288
sI1
F0.9225683879549043
sI2
F0.9113556057710598
sI3
F0.9122696917769508
sI4
F0.9190397508316367
sI5
F0.9192050700550133
sI6
F0.9166960733073424
sI7
F0.9168271069851042
sI8
F0.9120633910532485
sI9
F0.9152669738008734
sI10
F0.914733185921348
sI11
F0.9240748382582958
sI12
F0.919576493181946
sI13
F0.9091201746387741
sI14
F0.9131309463635855
ssg25
(dp266
I0
F0.0043593930432242025
sI1
Fnan
sI2
Fnan
sI3
Fnan
sI4
Fnan
sI5
Fnan
sI6
Fnan
sI7
Fnan
sI8
Fnan
sI9
Fnan
sI10
Fnan
sI11
Fnan
sI12
Fnan
sI13
Fnan
sI14
Fnan
ssg27
(dp267
I0
F0.9164121475917208
sI1
Fnan
sI2
Fnan
sI3
Fnan
sI4
Fnan
sI5
Fnan
sI6
Fnan
sI7
Fnan
sI8
Fnan
sI9
Fnan
sI10
Fnan
sI11
Fnan
sI12
Fnan
sI13
Fnan
sI14
Fnan
ssg29
(dp268
I0
F13.302
sI1
F13.303
sI2
F13.337
sI3
F13.372
sI4
F13.353
sI5
F13.305
sI6
F13.358
sI7
F13.344
sI8
F13.33
sI9
F13.33
sI10
F13.436
sI11
F13.294
sI12
F13.309
sI13
F13.338
sI14
F13.355
ssg31
(dp269
I0
F12.57901
sI1
F11.45987
sI2
F14.22843
sI3
F15.77885
sI4
F12.38608
sI5
F11.65608
sI6
F12.8631
sI7
F12.43014
sI8
F11.37575
sI9
F11.17471
sI10
F17.11329
sI11
F10.24777
sI12
F11.36161
sI13
F11.171
sI14
F15.85722
ssg33
(dp270
I0
F2458416.605173611
sI1
F2458416.585729167
sI2
F2458416.6254050927
sI3
F2458416.6231712964
sI4
F2458416.6066550924
sI5
F2458416.6044444446
sI6
F2458416.626134259
sI7
F2458416.6073842593
sI8
F2458416.587210648
sI9
F2458416.5886805556
sI10
F2458416.623912037
sI11
F2458416.5864699073
sI12
F2458416.5879398147
sI13
F2458416.605914352
sI14
F2458416.624664352
ssg35
(dp271
I0
F1.1580669333333333
sI1
Fnan
sI2
Fnan
sI3
Fnan
sI4
Fnan
sI5
Fnan
sI6
Fnan
sI7
Fnan
sI8
Fnan
sI9
Fnan
sI10
Fnan
sI11
Fnan
sI12
Fnan
sI13
Fnan
sI14
Fnan
ssg37
(dp272
I0
F0.5844041999999999
sI1
Fnan
sI2
Fnan
sI3
Fnan
sI4
Fnan
sI5
Fnan
sI6
Fnan
sI7
Fnan
sI8
Fnan
sI9
Fnan
sI10
Fnan
sI11
Fnan
sI12
Fnan
sI13
Fnan
sI14
Fnan
ssg39
(dp273
I0
F0.3746778276187247
sI1
F0.3683980288786124
sI2
F0.37038011942281096
sI3
F0.3699968416043773
sI4
F0.37246242250666617
sI5
F0.3782021954661165
sI6
F0.36789124613640645
sI7
F0.3690989944462816
sI8
F0.3738878649789365
sI9
F0.3701489736362353
sI10
F0.36458141700694896
sI11
F0.3751066191064541
sI12
F0.369036163603693
sI13
F0.3737172892915523
sI14
F0.3646972754862894
ssg41
(dp274
I0
F0.0024768645494483398
sI1
Fnan
sI2
Fnan
sI3
Fnan
sI4
Fnan
sI5
Fnan
sI6
Fnan
sI7
Fnan
sI8
Fnan
sI9
Fnan
sI10
Fnan
sI11
Fnan
sI12
Fnan
sI13
Fnan
sI14
Fnan
ssg43
(dp275
I0
F0.4191715333333334
sI1
Fnan
sI2
Fnan
sI3
Fnan
sI4
Fnan
sI5
Fnan
sI6
Fnan
sI7
Fnan
sI8
Fnan
sI9
Fnan
sI10
Fnan
sI11
Fnan
sI12
Fnan
sI13
Fnan
sI14
Fnan
ssg45
(dp276
I0
g249
sI1
g250
sI2
g251
sI3
g252
sI4
g253
sI5
g254
sI6
g255
sI7
g256
sI8
g257
sI9
g258
sI10
g259
sI11
g260
sI12
g261
sI13
g262
sI14
g263
ssg47
(dp277
I0
F0.002177316086226844
sI1
Fnan
sI2
Fnan
sI3
Fnan
sI4
Fnan
sI5
Fnan
sI6
Fnan
sI7
Fnan
sI8
Fnan
sI9
Fnan
sI10
Fnan
sI11
Fnan
sI12
Fnan
sI13
Fnan
sI14
Fnan
ssg49
(dp278
I0
F0.0321728960166043
sI1
Fnan
sI2
Fnan
sI3
Fnan
sI4
Fnan
sI5
Fnan
sI6
Fnan
sI7
Fnan
sI8
Fnan
sI9
Fnan
sI10
Fnan
sI11
Fnan
sI12
Fnan
sI13
Fnan
sI14
Fnan
ssg51
(dp279
I0
F0.8640905333333334
sI1
Fnan
sI2
Fnan
sI3
Fnan
sI4
Fnan
sI5
Fnan
sI6
Fnan
sI7
Fnan
sI8
Fnan
sI9
Fnan
sI10
Fnan
sI11
Fnan
sI12
Fnan
sI13
Fnan
sI14
Fnan
ssg53
(dp280
I0
F1.5008088725720994
sI1
F1.5017409649069495
sI2
F1.5073145988378844
sI3
F1.509270551025816
sI4
F1.5067899070094213
sI5
F1.5021051748102114
sI6
F1.5114942839954517
sI7
F1.5050625395600865
sI8
F1.511311492986839
sI9
F1.5138339046940439
sI10
F1.5083736166148636
sI11
F1.5025852597908578
sI12
F1.504579501508616
sI13
F1.516911186786848
sI14
F1.5133634621704284
ssg55
(dp281
I0
g249
sI1
g250
sI2
g251
sI3
g252
sI4
g253
sI5
g254
sI6
g255
sI7
g256
sI8
g257
sI9
g258
sI10
g259
sI11
g260
sI12
g261
sI13
g262
sI14
g263
ssg57
(dp282
I0
F13.4779
sI1
F11.83974
sI2
F14.88824
sI3
F15.21578
sI4
F13.12464
sI5
F13.72618
sI6
F15.23718
sI7
F13.08012
sI8
F13.48776
sI9
F12.71327
sI10
F17.06444
sI11
F12.37309
sI12
F11.76862
sI13
F13.80388
sI14
F15.10938
ssg59
(dp283
I0
F11.984533333333333
sI1
Fnan
sI2
Fnan
sI3
Fnan
sI4
Fnan
sI5
Fnan
sI6
Fnan
sI7
Fnan
sI8
Fnan
sI9
Fnan
sI10
Fnan
sI11
Fnan
sI12
Fnan
sI13
Fnan
sI14
Fnan
ssg61
(dp284
I0
F0.6879941835675559
sI1
Fnan
sI2
Fnan
sI3
Fnan
sI4
Fnan
sI5
Fnan
sI6
Fnan
sI7
Fnan
sI8
Fnan
sI9
Fnan
sI10
Fnan
sI11
Fnan
sI12
Fnan
sI13
Fnan
sI14
Fnan
ssg63
(dp285
I0
F-2.14495
sI1
F3.101899
sI2
F4.358323
sI3
F4.054369
sI4
F-2.917648
sI5
F3.847314
sI6
F-1.319241
sI7
F4.370088
sI8
F-3.641017
sI9
F-1.919884
sI10
F3.19082
sI11
F-1.729399
sI12
F4.552892
sI13
F-3.142388
sI14
F-1.895115
ssg65
(dp286
I0
F12.324666666666666
sI1
Fnan
sI2
Fnan
sI3
Fnan
sI4
Fnan
sI5
Fnan
sI6
Fnan
sI7
Fnan
sI8
Fnan
sI9
Fnan
sI10
Fnan
sI11
Fnan
sI12
Fnan
sI13
Fnan
sI14
Fnan
ssg67
(dp287
I0
g249
sI1
g250
sI2
g251
sI3
g252
sI4
g253
sI5
g254
sI6
g255
sI7
g256
sI8
g257
sI9
g258
sI10
g259
sI11
g260
sI12
g261
sI13
g262
sI14
g263
ssg69
(dp288
I0
F3027.6956666666665
sI1
F3082.9700000000003
sI2
F2947.3123333333333
sI3
F2858.374333333333
sI4
F2903.137666666667
sI5
F2989.0943333333335
sI6
F2921.1789999999996
sI7
F2950.002
sI8
F2938.6206666666667
sI9
F2976.778
sI10
F2737.978
sI11
F3056.2926666666667
sI12
F3051.7433333333333
sI13
F2911.5926666666664
sI14
F2947.368
ssg71
(dp289
I0
F1.025507
sI1
F1.01086
sI2
F1.050457
sI3
F1.047203
sI4
F1.026976
sI5
F1.024786
sI6
F1.051561
sI7
F1.0277319999999999
sI8
F1.011663
sI9
F1.012515
sI10
F1.0482770000000001
sI11
F1.011255
sI12
F1.012082
sI13
F1.0262360000000001
sI14
F1.0493700000000001
ssg73
(dp290
I0
F2461.2200000000003
sI1
F2495.067
sI2
F2421.631
sI3
F2342.0716666666663
sI4
F2355.7463333333335
sI5
F2432.0706666666665
sI6
F2372.5536666666667
sI7
F2405.2483333333334
sI8
F2405.5456666666664
sI9
F2419.8906666666667
sI10
F2235.4803333333334
sI11
F2465.976333333333
sI12
F2477.6066666666666
sI13
F2386.7443333333335
sI14
F2405.2743333333333
ssg75
(dp291
I0
F4118.906666666667
sI1
F4188.383333333333
sI2
F4046.3433333333332
sI3
F3924.44
sI4
F3962.016666666667
sI5
F4071.58
sI6
F4000.7233333333334
sI7
F4029.9933333333333
sI8
F4038.35
sI9
F4084.83
sI10
F3750.9166666666665
sI11
F4148.84
sI12
F4159.673333333333
sI13
F4018.5533333333337
sI14
F4050.2466666666664
ssg77
(dp292
I0
F12.95778
sI1
F11.99962
sI2
F13.84425
sI3
F14.38779
sI4
F13.31468
sI5
F11.83444
sI6
F14.07394
sI7
F11.93892
sI8
F12.52854
sI9
F11.79424
sI10
F17.36286
sI11
F12.02045
sI12
F10.79775
sI13
F12.66636
sI14
F15.72383
ssg79
(dp293
I0
F12.522
sI1
F12.507
sI2
F12.54
sI3
F12.576
sI4
F12.57
sI5
F12.535
sI6
F12.562
sI7
F12.547
sI8
F12.547
sI9
F12.541
sI10
F12.627
sI11
F12.52
sI12
F12.515
sI13
F12.555
sI14
F12.547
ssg81
(dp294
I0
F0.003
sI1
F0.003
sI2
F0.003
sI3
F0.003
sI4
F0.003
sI5
F0.003
sI6
F0.003
sI7
F0.003
sI8
F0.003
sI9
F0.003
sI10
F0.003
sI11
F0.003
sI12
F0.003
sI13
F0.003
sI14
F0.003
ssg83
(dp295
I0
F0.3708188852793403
sI1
Fnan
sI2
Fnan
sI3
Fnan
sI4
Fnan
sI5
Fnan
sI6
Fnan
sI7
Fnan
sI8
Fnan
sI9
Fnan
sI10
Fnan
sI11
Fnan
sI12
Fnan
sI13
Fnan
sI14
Fnan
ssg85
(dp296
I0
F12.5474
sI1
Fnan
sI2
Fnan
sI3
Fnan
sI4
Fnan
sI5
Fnan
sI6
Fnan
sI7
Fnan
sI8
Fnan
sI9
Fnan
sI10
Fnan
sI11
Fnan
sI12
Fnan
sI13
Fnan
sI14
Fnan
ssg87
(dp297
I0
F12.297
sI1
F12.278
sI2
F12.326
sI3
F12.36
sI4
F12.343
sI5
F12.311
sI6
F12.336
sI7
F12.325
sI8
F12.33
sI9
F12.316
sI10
F12.406
sI11
F12.287
sI12
F12.289
sI13
F12.34
sI14
F12.326
ssg89
(dp298
I0
F-2.57614
sI1
F3.779045
sI2
F2.263056
sI3
F2.248227
sI4
F-1.833915
sI5
F-2.562651
sI6
F-3.313746
sI7
F-3.435455
sI8
F3.991787
sI9
F1.672477
sI10
F2.433342
sI11
F3.480578
sI12
F3.781499
sI13
F2.960711
sI14
F4.482189
ssg91
(dp299
I0
F0.029563168848771082
sI1
Fnan
sI2
Fnan
sI3
Fnan
sI4
Fnan
sI5
Fnan
sI6
Fnan
sI7
Fnan
sI8
Fnan
sI9
Fnan
sI10
Fnan
sI11
Fnan
sI12
Fnan
sI13
Fnan
sI14
Fnan
ssg93
(dp300
I0
F0.6887804540404678
sI1
F0.6862730734214538
sI2
F0.6925222274073449
sI3
F0.6905899385029114
sI4
F0.6862908593023619
sI5
F0.6889060596336808
sI6
F0.6855207000657382
sI7
F0.6891833643059743
sI8
F0.6895673728884819
sI9
F0.6853653351096992
sI10
F0.6890172974503516
sI11
F0.6845054622635215
sI12
F0.6871345204941239
sI13
F0.6888005918874821
sI14
F0.6874554967397462
ssg95
(dp301
I0
F30.0
sI1
F30.0
sI2
F30.0
sI3
F30.0
sI4
F30.0
sI5
F30.0
sI6
F30.0
sI7
F30.0
sI8
F30.0
sI9
F30.0
sI10
F30.0
sI11
F30.0
sI12
F30.0
sI13
F30.0
sI14
F30.0
ssg97
(dp302
I0
F0.004
sI1
F0.004
sI2
F0.004
sI3
F0.005
sI4
F0.005
sI5
F0.004
sI6
F0.004
sI7
F0.004
sI8
F0.004
sI9
F0.004
sI10
F0.005
sI11
F0.004
sI12
F0.004
sI13
F0.004
sI14
F0.004
ssg99
(dp303
I0
F0.004
sI1
F0.004
sI2
F0.004
sI3
F0.004
sI4
F0.004
sI5
F0.004
sI6
F0.004
sI7
F0.004
sI8
F0.004
sI9
F0.004
sI10
F0.004
sI11
F0.004
sI12
F0.004
sI13
F0.004
sI14
F0.004
ssg101
(dp304
I0
F3.918135
sI1
F-2.823706
sI2
F4.087386
sI3
F2.239798
sI4
F2.732362
sI5
F-1.450089
sI6
F-2.678351
sI7
F2.894337
sI8
F-2.938577
sI9
F3.101811
sI10
F-3.025347
sI11
F3.517429
sI12
F2.352572
sI13
F3.439796
sI14
F-2.406198
ssg103
(dp305
I0
S"KIC8462852-20181025at023127_-25-1X1-030-z'_cal.fts.mag.1"
p306
sI1
S"KIC8462852-20181025at020326_-25-1X1-030-z'_cal.fts.mag.1"
p307
sI2
S"KIC8462852-20181025at030035_-25-1X1-030-z'_cal.fts.mag.1"
p308
sI3
S"KIC8462852-20181025at025721_-25-1X1-030-z'_cal.fts.mag.1"
p309
sI4
S"KIC8462852-20181025at023335_-25-1X1-030-z'_cal.fts.mag.1"
p310
sI5
S"KIC8462852-20181025at023022_-25-1X1-030-z'_cal.fts.mag.1"
p311
sI6
S"KIC8462852-20181025at030138_-25-1X1-030-z'_cal.fts.mag.1"
p312
sI7
S"KIC8462852-20181025at023438_-25-1X1-030-z'_cal.fts.mag.1"
p313
sI8
S"KIC8462852-20181025at020535_-25-1X1-030-z'_cal.fts.mag.1"
p314
sI9
S"KIC8462852-20181025at020742_-25-1X1-030-z'_cal.fts.mag.1"
p315
sI10
S"KIC8462852-20181025at025826_-25-1X1-030-z'_cal.fts.mag.1"
p316
sI11
S"KIC8462852-20181025at020431_-25-1X1-030-z'_cal.fts.mag.1"
p317
sI12
S"KIC8462852-20181025at020638_-25-1X1-030-z'_cal.fts.mag.1"
p318
sI13
S"KIC8462852-20181025at023231_-25-1X1-030-z'_cal.fts.mag.1"
p319
sI14
S"KIC8462852-20181025at025931_-25-1X1-030-z'_cal.fts.mag.1"
p320
ssg119
(dp321
I0
F0.004950008388572818
sI1
Fnan
sI2
Fnan
sI3
Fnan
sI4
Fnan
sI5
Fnan
sI6
Fnan
sI7
Fnan
sI8
Fnan
sI9
Fnan
sI10
Fnan
sI11
Fnan
sI12
Fnan
sI13
Fnan
sI14
Fnan
ssg121
(dp322
I0
F1199.946
sI1
F1199.3100000000002
sI2
F1162.4116666666666
sI3
F1125.393
sI4
F1144.8129999999999
sI5
F1196.7256666666665
sI6
F1139.783
sI7
F1154.6946666666665
sI8
F1169.3363333333332
sI9
F1169.8556666666666
sI10
F1060.2483333333334
sI11
F1209.2323333333334
sI12
F1191.8666666666666
sI13
F1160.6276666666668
sI14
F1143.0693333333334
ssg123
(dp323
I0
F0.029596814500405914
sI1
Fnan
sI2
Fnan
sI3
Fnan
sI4
Fnan
sI5
Fnan
sI6
Fnan
sI7
Fnan
sI8
Fnan
sI9
Fnan
sI10
Fnan
sI11
Fnan
sI12
Fnan
sI13
Fnan
sI14
Fnan
ssg125
(dp324
I0
S"z'"
p325
sI1
S"z'"
p326
sI2
S"z'"
p327
sI3
S"z'"
p328
sI4
S"z'"
p329
sI5
S"z'"
p330
sI6
S"z'"
p331
sI7
S"z'"
p332
sI8
S"z'"
p333
sI9
S"z'"
p334
sI10
S"z'"
p335
sI11
S"z'"
p336
sI12
S"z'"
p337
sI13
S"z'"
p338
sI14
S"z'"
p339
ssg141
(dp340
I0
F0.0038412690519191925
sI1
Fnan
sI2
Fnan
sI3
Fnan
sI4
Fnan
sI5
Fnan
sI6
Fnan
sI7
Fnan
sI8
Fnan
sI9
Fnan
sI10
Fnan
sI11
Fnan
sI12
Fnan
sI13
Fnan
sI14
Fnan
ssg143
(dp341
I0
F-3.841977
sI1
F-2.365353
sI2
F3.541374
sI3
F2.522396
sI4
F1.786534
sI5
F1.898664
sI6
F3.321081
sI7
F-1.514722
sI8
F3.678518
sI9
F-2.931097
sI10
F-3.826674
sI11
F1.504886
sI12
F3.297267
sI13
F3.718498
sI14
F-4.501822
ssg145
(dp342
I0
F1.5077030211513611
sI1
Fnan
sI2
Fnan
sI3
Fnan
sI4
Fnan
sI5
Fnan
sI6
Fnan
sI7
Fnan
sI8
Fnan
sI9
Fnan
sI10
Fnan
sI11
Fnan
sI12
Fnan
sI13
Fnan
sI14
Fnan
ssg147
(dp343
I0
F2458416.605914352
sI1
Fnan
sI2
Fnan
sI3
Fnan
sI4
Fnan
sI5
Fnan
sI6
Fnan
sI7
Fnan
sI8
Fnan
sI9
Fnan
sI10
Fnan
sI11
Fnan
sI12
Fnan
sI13
Fnan
sI14
Fnan
ssg149
(dp344
I0
F0.0038412690519191925
sI1
Fnan
sI2
Fnan
sI3
Fnan
sI4
Fnan
sI5
Fnan
sI6
Fnan
sI7
Fnan
sI8
Fnan
sI9
Fnan
sI10
Fnan
sI11
Fnan
sI12
Fnan
sI13
Fnan
sI14
Fnan
ssg151
(dp345
I0
F14.60162
sI1
F12.21253
sI2
F15.35882
sI3
F16.28327
sI4
F14.52948
sI5
F14.09136
sI6
F15.45051
sI7
F14.16687
sI8
F13.637
sI9
F12.81962
sI10
F17.71533
sI11
F11.96004
sI12
F12.64915
sI13
F14.00776
sI14
F15.47709
ssg153
(dp346
I0
F11.963
sI1
F11.945
sI2
F11.982
sI3
F12.016
sI4
F12.005
sI5
F11.976
sI6
F11.995
sI7
F11.987
sI8
F11.984
sI9
F11.972
sI10
F12.065
sI11
F11.955
sI12
F11.952
sI13
F11.99
sI14
F11.981
ssg155
(dp347
I0
F0.3708188852793403
sI1
Fnan
sI2
Fnan
sI3
Fnan
sI4
Fnan
sI5
Fnan
sI6
Fnan
sI7
Fnan
sI8
Fnan
sI9
Fnan
sI10
Fnan
sI11
Fnan
sI12
Fnan
sI13
Fnan
sI14
Fnan
sssS'g'
p348
(dp349
g3
(dp350
I0
F0.8714093814115417
sI1
Fnan
sI2
Fnan
sI3
Fnan
sI4
Fnan
sI5
Fnan
sI6
Fnan
sI7
Fnan
sI8
Fnan
sI9
Fnan
ssg5
(dp351
I0
S'NoError'
p352
sI1
S'NoError'
p353
sI2
S'NoError'
p354
sI3
S'NoError'
p355
sI4
S'NoError'
p356
sI5
S'NoError'
p357
sI6
S'NoError'
p358
sI7
S'NoError'
p359
sI8
S'NoError'
p360
sI9
S'NoError'
p361
ssg21
(dp362
I0
F0.002
sI1
F0.003
sI2
F0.002
sI3
F0.002
sI4
F0.002
sI5
F0.002
sI6
F0.002
sI7
F0.002
sI8
F0.002
sI9
F0.002
ssg23
(dp363
I0
F0.8800039394635764
sI1
F0.8780179696207384
sI2
F0.8823869793079483
sI3
F0.8823973705162356
sI4
F0.8812854204773978
sI5
F0.8808483302462942
sI6
F0.8822580119388784
sI7
F0.8791104381799505
sI8
F0.8809684089825682
sI9
F0.882751874990681
ssg25
(dp364
I0
F0.0015666129623357209
sI1
Fnan
sI2
Fnan
sI3
Fnan
sI4
Fnan
sI5
Fnan
sI6
Fnan
sI7
Fnan
sI8
Fnan
sI9
Fnan
ssg27
(dp365
I0
F0.8810028743724269
sI1
Fnan
sI2
Fnan
sI3
Fnan
sI4
Fnan
sI5
Fnan
sI6
Fnan
sI7
Fnan
sI8
Fnan
sI9
Fnan
ssg29
(dp366
I0
F11.426
sI1
F11.571
sI2
F11.438
sI3
F11.4
sI4
F11.403
sI5
F11.447
sI6
F11.397
sI7
F11.424
sI8
F11.402
sI9
F11.388
ssg31
(dp367
I0
F50.76052
sI1
F76.48009
sI2
F65.22175
sI3
F55.17557
sI4
F51.30946
sI5
F66.23988
sI6
F56.4333
sI7
F63.58665
sI8
F54.16699
sI9
F62.46584
ssg33
(dp368
I0
F2458416.5776041667
sI1
F2458416.612824074
sI2
F2458416.6150115742
sI3
F2458416.5753935184
sI4
F2458416.576863426
sI5
F2458416.612060185
sI6
F2458416.574652778
sI7
F2458416.613553241
sI8
F2458416.5761226853
sI9
F2458416.6142824073
ssg35
(dp369
I0
F-0.04951166999999992
sI1
Fnan
sI2
Fnan
sI3
Fnan
sI4
Fnan
sI5
Fnan
sI6
Fnan
sI7
Fnan
sI8
Fnan
sI9
Fnan
ssg37
(dp370
I0
F1.3305498999999998
sI1
Fnan
sI2
Fnan
sI3
Fnan
sI4
Fnan
sI5
Fnan
sI6
Fnan
sI7
Fnan
sI8
Fnan
sI9
Fnan
ssg39
(dp371
I0
F0.8663512307387167
sI1
F0.8725273748338845
sI2
F0.8712222584300742
sI3
F0.8738867404501641
sI4
F0.8712174761856676
sI5
F0.8768117337389533
sI6
F0.8721550325814335
sI7
F0.873082418411477
sI8
F0.8689520693477601
sI9
F0.8682316810518724
ssg41
(dp372
I0
F0.0018354246902801317
sI1
Fnan
sI2
Fnan
sI3
Fnan
sI4
Fnan
sI5
Fnan
sI6
Fnan
sI7
Fnan
sI8
Fnan
sI9
Fnan
ssg43
(dp373
I0
F2.3531212999999997
sI1
Fnan
sI2
Fnan
sI3
Fnan
sI4
Fnan
sI5
Fnan
sI6
Fnan
sI7
Fnan
sI8
Fnan
sI9
Fnan
ssg45
(dp374
I0
g352
sI1
g353
sI2
g354
sI3
g355
sI4
g356
sI5
g357
sI6
g358
sI7
g359
sI8
g360
sI9
g361
ssg47
(dp375
I0
F0.0015655076873524892
sI1
Fnan
sI2
Fnan
sI3
Fnan
sI4
Fnan
sI5
Fnan
sI6
Fnan
sI7
Fnan
sI8
Fnan
sI9
Fnan
ssg49
(dp376
I0
F0.05534347296655683
sI1
Fnan
sI2
Fnan
sI3
Fnan
sI4
Fnan
sI5
Fnan
sI6
Fnan
sI7
Fnan
sI8
Fnan
sI9
Fnan
ssg51
(dp377
I0
F2.1152283
sI1
Fnan
sI2
Fnan
sI3
Fnan
sI4
Fnan
sI5
Fnan
sI6
Fnan
sI7
Fnan
sI8
Fnan
sI9
Fnan
ssg53
(dp378
I0
F1.5074854036440601
sI1
F1.5087901649373523
sI2
F1.5065829301857552
sI3
F1.5045347870367185
sI4
F1.5065564494970072
sI5
F1.5109035111961255
sI6
F1.5079251452696356
sI7
F1.5065168286400292
sI8
F1.5112462280513008
sI9
F1.506894405100897
ssg55
(dp379
I0
g352
sI1
g353
sI2
g354
sI3
g355
sI4
g356
sI5
g357
sI6
g358
sI7
g359
sI8
g360
sI9
g361
ssg57
(dp380
I0
F51.33128
sI1
F77.95843
sI2
F65.47312
sI3
F54.87842
sI4
F50.93415
sI5
F66.54366
sI6
F57.93892
sI7
F61.95788
sI8
F52.93124
sI9
F62.2889
ssg59
(dp381
I0
F11.0039
sI1
Fnan
sI2
Fnan
sI3
Fnan
sI4
Fnan
sI5
Fnan
sI6
Fnan
sI7
Fnan
sI8
Fnan
sI9
Fnan
ssg61
(dp382
I0
F0.7187595357211004
sI1
Fnan
sI2
Fnan
sI3
Fnan
sI4
Fnan
sI5
Fnan
sI6
Fnan
sI7
Fnan
sI8
Fnan
sI9
Fnan
ssg63
(dp383
I0
F-3.87278
sI1
F4.611995
sI2
F3.677129
sI3
F4.819611
sI4
F-4.384152
sI5
F-2.662217
sI6
F3.281195
sI7
F4.227441
sI8
F4.141359
sI9
F-0.534082
ssg65
(dp384
I0
F11.373700000000001
sI1
Fnan
sI2
Fnan
sI3
Fnan
sI4
Fnan
sI5
Fnan
sI6
Fnan
sI7
Fnan
sI8
Fnan
sI9
Fnan
ssg67
(dp385
I0
g352
sI1
g353
sI2
g354
sI3
g355
sI4
g356
sI5
g357
sI6
g358
sI7
g359
sI8
g360
sI9
g361
ssg69
(dp386
I0
F7148.213333333333
sI1
F6199.84
sI2
F7042.546666666666
sI3
F7268.623333333334
sI4
F7269.5633333333335
sI5
F6933.703333333334
sI6
F7307.516666666666
sI7
F7102.89
sI8
F7293.666666666667
sI9
F7400.4400000000005
ssg71
(dp387
I0
F1.00731
sI1
F1.033726
sI2
F1.036354
sI3
F1.006602
sI4
F1.0070629999999998
sI5
F1.032857
sI6
F1.006391
sI7
F1.03459
sI8
F1.006825
sI9
F1.035457
ssg73
(dp388
I0
F6191.303333333333
sI1
F5383.75
sI2
F6078.509999999999
sI3
F6281.443333333333
sI4
F6286.3
sI5
F5984.306666666667
sI6
F6303.38
sI7
F6165.066666666667
sI8
F6292.37
sI9
F6382.233333333334
ssg75
(dp389
I0
F10054.563333333334
sI1
F8738.603333333333
sI2
F9883.980000000001
sI3
F10193.273333333334
sI4
F10211.336666666666
sI5
F9758.933333333332
sI6
F10262.106666666667
sI7
F9994.2
sI8
F10265.923333333334
sI9
F10384.516666666666
ssg77
(dp390
I0
F49.70732
sI1
F75.26467
sI2
F64.03516
sI3
F53.63284
sI4
F51.37551
sI5
F67.17813
sI6
F56.43718
sI7
F59.50394
sI8
F52.21091
sI9
F63.03897
ssg79
(dp391
I0
F11.521
sI1
F11.672
sI2
F11.541
sI3
F11.505
sI4
F11.504
sI5
F11.557
sI6
F11.501
sI7
F11.525
sI8
F11.503
sI9
F11.488
ssg81
(dp392
I0
F0.002
sI1
F0.002
sI2
F0.002
sI3
F0.002
sI4
F0.002
sI5
F0.002
sI6
F0.002
sI7
F0.002
sI8
F0.002
sI9
F0.002
ssg83
(dp393
I0
F0.8714438015770003
sI1
Fnan
sI2
Fnan
sI3
Fnan
sI4
Fnan
sI5
Fnan
sI6
Fnan
sI7
Fnan
sI8
Fnan
sI9
Fnan
ssg85
(dp394
I0
F11.5317
sI1
Fnan
sI2
Fnan
sI3
Fnan
sI4
Fnan
sI5
Fnan
sI6
Fnan
sI7
Fnan
sI8
Fnan
sI9
Fnan
ssg87
(dp395
I0
F11.365
sI1
F11.519
sI2
F11.381
sI3
F11.346
sI4
F11.346
sI5
F11.398
sI6
F11.341
sI7
F11.371
sI8
F11.343
sI9
F11.327
ssg89
(dp396
I0
F-0.2169687
sI1
F-2.361887
sI2
F4.427498
sI3
F-3.531301
sI4
F4.795267
sI5
F3.436881
sI6
F2.888122
sI7
F-3.224471
sI8
F-2.972277
sI9
F-3.73598
ssg91
(dp397
I0
F0.054021497778405404
sI1
Fnan
sI2
Fnan
sI3
Fnan
sI4
Fnan
sI5
Fnan
sI6
Fnan
sI7
Fnan
sI8
Fnan
sI9
Fnan
ssg93
(dp398
I0
F0.7198027915260967
sI1
F0.7207913006553784
sI2
F0.7182229549752084
sI3
F0.7194457112238093
sI4
F0.7192192621661355
sI5
F0.7169995712680503
sI6
F0.7175316033145844
sI7
F0.72118315650987
sI8
F0.716687576418356
sI9
F0.717711429153515
ssg95
(dp399
I0
F30.0
sI1
F30.0
sI2
F30.0
sI3
F30.0
sI4
F30.0
sI5
F30.0
sI6
F30.0
sI7
F30.0
sI8
F30.0
sI9
F30.0
ssg97
(dp400
I0
F0.003
sI1
F0.003
sI2
F0.003
sI3
F0.003
sI4
F0.003
sI5
F0.003
sI6
F0.003
sI7
F0.003
sI8
F0.003
sI9
F0.003
ssg99
(dp401
I0
F0.002
sI1
F0.003
sI2
F0.002
sI3
F0.002
sI4
F0.002
sI5
F0.002
sI6
F0.002
sI7
F0.002
sI8
F0.002
sI9
F0.002
ssg101
(dp402
I0
F2.426292
sI1
F2.716288
sI2
F4.660432
sI3
F-2.018883
sI4
F5.226664
sI5
F-4.578376
sI6
F-1.846245
sI7
F5.716662
sI8
F3.916244
sI9
F4.933205
ssg103
(dp403
I0
S"KIC8462852-20181025at015145_-25-1X1-030-g'_cal.fts.mag.1"
p404
sI1
S"KIC8462852-20181025at024228_-25-1X1-030-g'_cal.fts.mag.1"
p405
sI2
S"KIC8462852-20181025at024537_-25-1X1-030-g'_cal.fts.mag.1"
p406
sI3
S"KIC8462852-20181025at014834_-25-1X1-030-g'_cal.fts.mag.1"
p407
sI4
S"KIC8462852-20181025at015041_-25-1X1-030-g'_cal.fts.mag.1"
p408
sI5
S"KIC8462852-20181025at024117_-25-1X1-030-g'_cal.fts.mag.1"
p409
sI6
S"KIC8462852-20181025at014720_-25-1X1-030-g'_cal.fts.mag.1"
p410
sI7
S"KIC8462852-20181025at024331_-25-1X1-030-g'_cal.fts.mag.1"
p411
sI8
S"KIC8462852-20181025at014937_-25-1X1-030-g'_cal.fts.mag.1"
p412
sI9
S"KIC8462852-20181025at024434_-25-1X1-030-g'_cal.fts.mag.1"
p413
ssg119
(dp414
I0
F0.0020743787706294418
sI1
Fnan
sI2
Fnan
sI3
Fnan
sI4
Fnan
sI5
Fnan
sI6
Fnan
sI7
Fnan
sI8
Fnan
sI9
Fnan
ssg121
(dp415
I0
F6755.83
sI1
F5910.556666666667
sI2
F6680.833333333333
sI3
F6916.33
sI4
F6902.133333333333
sI5
F6627.803333333333
sI6
F6940.320000000001
sI7
F6769.926666666666
sI8
F6908.736666666667
sI9
F6994.240000000001
ssg123
(dp416
I0
F0.05346452614169119
sI1
Fnan
sI2
Fnan
sI3
Fnan
sI4
Fnan
sI5
Fnan
sI6
Fnan
sI7
Fnan
sI8
Fnan
sI9
Fnan
ssg125
(dp417
I0
S"g'"
p418
sI1
S"g'"
p419
sI2
S"g'"
p420
sI3
S"g'"
p421
sI4
S"g'"
p422
sI5
S"g'"
p423
sI6
S"g'"
p424
sI7
S"g'"
p425
sI8
S"g'"
p426
sI9
S"g'"
p427
ssg141
(dp428
I0
F0.003013095893486499
sI1
Fnan
sI2
Fnan
sI3
Fnan
sI4
Fnan
sI5
Fnan
sI6
Fnan
sI7
Fnan
sI8
Fnan
sI9
Fnan
ssg143
(dp429
I0
F4.533783
sI1
F-3.222218
sI2
F4.683943
sI3
F3.728989
sI4
F2.545723
sI5
F3.89223
sI6
F-1.372453
sI7
F1.7012
sI8
F4.187647
sI9
F2.852369
ssg145
(dp430
I0
F1.5077435853558883
sI1
Fnan
sI2
Fnan
sI3
Fnan
sI4
Fnan
sI5
Fnan
sI6
Fnan
sI7
Fnan
sI8
Fnan
sI9
Fnan
ssg147
(dp431
I0
F2458416.594832176
sI1
Fnan
sI2
Fnan
sI3
Fnan
sI4
Fnan
sI5
Fnan
sI6
Fnan
sI7
Fnan
sI8
Fnan
sI9
Fnan
ssg149
(dp432
I0
F0.003013095893486499
sI1
Fnan
sI2
Fnan
sI3
Fnan
sI4
Fnan
sI5
Fnan
sI6
Fnan
sI7
Fnan
sI8
Fnan
sI9
Fnan
ssg151
(dp433
I0
F52.79219
sI1
F78.03048
sI2
F66.80848
sI3
F56.42405
sI4
F53.26329
sI5
F68.47713
sI6
F59.57094
sI7
F65.2054
sI8
F54.71789
sI9
F65.39275
ssg153
(dp434
I0
F10.994
sI1
F11.146
sI2
F11.013
sI3
F10.979
sI4
F10.977
sI5
F11.026
sI6
F10.972
sI7
F11.001
sI8
F10.972
sI9
F10.959
ssg155
(dp435
I0
F0.8714438015770003
sI1
Fnan
sI2
Fnan
sI3
Fnan
sI4
Fnan
sI5
Fnan
sI6
Fnan
sI7
Fnan
sI8
Fnan
sI9
Fnan
sssS'V'
p436
(dp437
g3
(dp438
I0
F0.6959757961868902
sI1
Fnan
sI2
Fnan
sI3
Fnan
sI4
Fnan
sI5
Fnan
sI6
Fnan
sI7
Fnan
sI8
Fnan
sI9
Fnan
ssg5
(dp439
I0
S'NoError'
p440
sI1
S'NoError'
p441
sI2
S'NoError'
p442
sI3
S'NoError'
p443
sI4
S'NoError'
p444
sI5
S'NoError'
p445
sI6
S'NoError'
p446
sI7
S'NoError'
p447
sI8
S'NoError'
p448
sI9
S'NoError'
p449
ssg21
(dp450
I0
F0.003
sI1
F0.002
sI2
F0.002
sI3
F0.002
sI4
F0.002
sI5
F0.002
sI6
F0.002
sI7
F0.002
sI8
F0.002
sI9
F0.002
ssg23
(dp451
I0
F0.8841508549786806
sI1
F0.8856669490014114
sI2
F0.8883397347391322
sI3
F0.8869756192396789
sI4
F0.887280314762576
sI5
F0.8853531576772675
sI6
F0.886467732547742
sI7
F0.8856068626557967
sI8
F0.8892928620246753
sI9
F0.8847222589649099
ssg25
(dp452
I0
F0.0016116180613103591
sI1
Fnan
sI2
Fnan
sI3
Fnan
sI4
Fnan
sI5
Fnan
sI6
Fnan
sI7
Fnan
sI8
Fnan
sI9
Fnan
ssg27
(dp453
I0
F0.886385634659187
sI1
Fnan
sI2
Fnan
sI3
Fnan
sI4
Fnan
sI5
Fnan
sI6
Fnan
sI7
Fnan
sI8
Fnan
sI9
Fnan
ssg29
(dp454
I0
F11.549
sI1
F11.456
sI2
F11.434
sI3
F11.428
sI4
F11.426
sI5
F11.43
sI6
F11.408
sI7
F11.432
sI8
F11.433
sI9
F11.422
ssg31
(dp455
I0
F60.71002
sI1
F57.50223
sI2
F50.01319
sI3
F57.53896
sI4
F55.52584
sI5
F47.08613
sI6
F47.66982
sI7
F48.69745
sI8
F46.68974
sI9
F56.21124
ssg33
(dp456
I0
F2458416.629953704
sI1
F2458416.6269560186
sI2
F2458416.6111805555
sI3
F2458416.629201389
sI4
F2458416.6277083335
sI5
F2458416.6089467593
sI6
F2458416.6096875
sI7
F2458416.6104282406
sI8
F2458416.6082060183
sI9
F2458416.628460648
ssg35
(dp457
I0
F2.2948984
sI1
Fnan
sI2
Fnan
sI3
Fnan
sI4
Fnan
sI5
Fnan
sI6
Fnan
sI7
Fnan
sI8
Fnan
sI9
Fnan
ssg37
(dp458
I0
F1.4996595999999998
sI1
Fnan
sI2
Fnan
sI3
Fnan
sI4
Fnan
sI5
Fnan
sI6
Fnan
sI7
Fnan
sI8
Fnan
sI9
Fnan
ssg39
(dp459
I0
F0.6950019307945859
sI1
F0.6932932824938625
sI2
F0.6993604098420309
sI3
F0.6926747344888153
sI4
F0.6983614583560795
sI5
F0.6977432744021801
sI6
F0.6960364149476389
sI7
F0.695156395055533
sI8
F0.6970615870994312
sI9
F0.6951520263458107
ssg41
(dp460
I0
F0.0015609407519060331
sI1
Fnan
sI2
Fnan
sI3
Fnan
sI4
Fnan
sI5
Fnan
sI6
Fnan
sI7
Fnan
sI8
Fnan
sI9
Fnan
ssg43
(dp461
I0
F1.6255333000000003
sI1
Fnan
sI2
Fnan
sI3
Fnan
sI4
Fnan
sI5
Fnan
sI6
Fnan
sI7
Fnan
sI8
Fnan
sI9
Fnan
ssg45
(dp462
I0
g440
sI1
g441
sI2
g442
sI3
g443
sI4
g444
sI5
g445
sI6
g446
sI7
g447
sI8
g448
sI9
g449
ssg47
(dp463
I0
F0.0024533728026044275
sI1
Fnan
sI2
Fnan
sI3
Fnan
sI4
Fnan
sI5
Fnan
sI6
Fnan
sI7
Fnan
sI8
Fnan
sI9
Fnan
ssg49
(dp464
I0
F0.03946644144079856
sI1
Fnan
sI2
Fnan
sI3
Fnan
sI4
Fnan
sI5
Fnan
sI6
Fnan
sI7
Fnan
sI8
Fnan
sI9
Fnan
ssg51
(dp465
I0
F3.0486514
sI1
Fnan
sI2
Fnan
sI3
Fnan
sI4
Fnan
sI5
Fnan
sI6
Fnan
sI7
Fnan
sI8
Fnan
sI9
Fnan
ssg53
(dp466
I0
F1.5011566662460338
sI1
F1.499286395472325
sI2
F1.4993874544341934
sI3
F1.500972114081898
sI4
F1.4892103929268043
sI5
F1.497012918681194
sI6
F1.494590911676588
sI7
F1.4976624326266366
sI8
F1.4973084685655151
sI9
F1.50569904565946
ssg55
(dp467
I0
g440
sI1
g441
sI2
g442
sI3
g443
sI4
g444
sI5
g445
sI6
g446
sI7
g447
sI8
g448
sI9
g449
ssg57
(dp468
I0
F62.07907
sI1
F58.44639
sI2
F49.63612
sI3
F57.17228
sI4
F57.5552
sI5
F49.92881
sI6
F48.76095
sI7
F50.5192
sI8
F48.90078
sI9
F56.87173
ssg59
(dp469
I0
F10.7761
sI1
Fnan
sI2
Fnan
sI3
Fnan
sI4
Fnan
sI5
Fnan
sI6
Fnan
sI7
Fnan
sI8
Fnan
sI9
Fnan
ssg61
(dp470
I0
F0.7197102732226367
sI1
Fnan
sI2
Fnan
sI3
Fnan
sI4
Fnan
sI5
Fnan
sI6
Fnan
sI7
Fnan
sI8
Fnan
sI9
Fnan
ssg63
(dp471
I0
F4.299803
sI1
F-3.119351
sI2
F2.865453
sI3
F4.743485
sI4
F5.768527
sI5
F3.456602
sI6
F-2.046
sI7
F-1.935629
sI8
F5.27251
sI9
F-4.308804
ssg65
(dp472
I0
F11.137399999999998
sI1
Fnan
sI2
Fnan
sI3
Fnan
sI4
Fnan
sI5
Fnan
sI6
Fnan
sI7
Fnan
sI8
Fnan
sI9
Fnan
ssg67
(dp473
I0
g440
sI1
g441
sI2
g442
sI3
g443
sI4
g444
sI5
g445
sI6
g446
sI7
g447
sI8
g448
sI9
g449
ssg69
(dp474
I0
F7980.91
sI1
F8724.176666666666
sI2
F8846.753333333332
sI3
F8972.556666666667
sI4
F8912.946666666667
sI5
F8881.563333333334
sI6
F9087.446666666667
sI7
F8896.173333333334
sI8
F8893.519999999999
sI9
F8973.836666666666
ssg71
(dp475
I0
F1.057541
sI1
F1.0528110000000002
sI2
F1.0318530000000001
sI3
F1.056335
sI4
F1.053973
sI5
F1.0293809999999999
sI6
F1.030184
sI7
F1.0310139999999999
sI8
F1.0285870000000001
sI9
F1.055143
ssg73
(dp476
I0
F6890.8533333333335
sI1
F7521.983333333334
sI2
F7592.84
sI3
F7711.013333333333
sI4
F7711.693333333333
sI5
F7672.5
sI6
F7847.323333333334
sI7
F7678.75
sI8
F7630.53
sI9
F7719.016666666666
ssg75
(dp477
I0
F11162.423333333334
sI1
F12178.823333333334
sI2
F12324.66
sI3
F12520.786666666665
sI4
F12378.793333333333
sI5
F12390.823333333334
sI6
F12655.276666666667
sI7
F12411.82
sI8
F12370.8
sI9
F12567.206666666667
ssg77
(dp478
I0
F60.73279
sI1
F57.3405
sI2
F50.03916
sI3
F55.07844
sI4
F55.84415
sI5
F47.61414
sI6
F48.35549
sI7
F49.86342
sI8
F48.14091
sI9
F56.7164
ssg79
(dp479
I0
F11.404
sI1
F11.309
sI2
F11.299
sI3
F11.282
sI4
F11.282
sI5
F11.288
sI6
F11.263
sI7
F11.287
sI8
F11.294
sI9
F11.281
ssg81
(dp480
I0
F0.002
sI1
F0.002
sI2
F0.002
sI3
F0.002
sI4
F0.002
sI5
F0.002
sI6
F0.002
sI7
F0.002
sI8
F0.002
sI9
F0.002
ssg83
(dp481
I0
F0.6959841513825968
sI1
Fnan
sI2
Fnan
sI3
Fnan
sI4
Fnan
sI5
Fnan
sI6
Fnan
sI7
Fnan
sI8
Fnan
sI9
Fnan
ssg85
(dp482
I0
F11.2989
sI1
Fnan
sI2
Fnan
sI3
Fnan
sI4
Fnan
sI5
Fnan
sI6
Fnan
sI7
Fnan
sI8
Fnan
sI9
Fnan
ssg87
(dp483
I0
F11.245
sI1
F11.148
sI2
F11.133
sI3
F11.118
sI4
F11.125
sI5
F11.129
sI6
F11.104
sI7
F11.127
sI8
F11.127
sI9
F11.118
ssg89
(dp484
I0
F2.004586
sI1
F4.894961
sI2
F5.330303
sI3
F-3.160169
sI4
F1.803386
sI5
F2.872369
sI6
F5.742567
sI7
F4.776041
sI8
F-3.858641
sI9
F2.543581
ssg91
(dp485
I0
F0.03865646417123819
sI1
Fnan
sI2
Fnan
sI3
Fnan
sI4
Fnan
sI5
Fnan
sI6
Fnan
sI7
Fnan
sI8
Fnan
sI9
Fnan
ssg93
(dp486
I0
F0.7199219919902489
sI1
F0.7197037107911145
sI2
F0.7172728509386243
sI3
F0.7175257207541623
sI4
F0.7243835715947436
sI5
F0.7213577037900152
sI6
F0.7218344466815487
sI7
F0.7207389151927024
sI8
F0.7176838949000015
sI9
F0.7166799255932047
ssg95
(dp487
I0
F30.0
sI1
F30.0
sI2
F30.0
sI3
F30.0
sI4
F30.0
sI5
F30.0
sI6
F30.0
sI7
F30.0
sI8
F30.0
sI9
F30.0
ssg97
(dp488
I0
F0.002
sI1
F0.002
sI2
F0.002
sI3
F0.002
sI4
F0.002
sI5
F0.002
sI6
F0.002
sI7
F0.002
sI8
F0.002
sI9
F0.002
ssg99
(dp489
I0
F0.002
sI1
F0.002
sI2
F0.002
sI3
F0.002
sI4
F0.002
sI5
F0.002
sI6
F0.002
sI7
F0.002
sI8
F0.002
sI9
F0.002
ssg101
(dp490
I0
F2.055787
sI1
F-2.893754
sI2
F4.29006
sI3
F3.902277
sI4
F2.922021
sI5
F4.420033
sI6
F3.956428
sI7
F4.411363
sI8
F3.96386
sI9
F3.458439
ssg103
(dp491
I0
S'KIC8462852-20181025at030708_-25-1X1-030-V_cal.fts.mag.1'
p492
sI1
S'KIC8462852-20181025at030242_-25-1X1-030-V_cal.fts.mag.1'
p493
sI2
S'KIC8462852-20181025at024006_-25-1X1-030-V_cal.fts.mag.1'
p494
sI3
S'KIC8462852-20181025at030603_-25-1X1-030-V_cal.fts.mag.1'
p495
sI4
S'KIC8462852-20181025at030354_-25-1X1-030-V_cal.fts.mag.1'
p496
sI5
S'KIC8462852-20181025at023653_-25-1X1-030-V_cal.fts.mag.1'
p497
sI6
S'KIC8462852-20181025at023757_-25-1X1-030-V_cal.fts.mag.1'
p498
sI7
S'KIC8462852-20181025at023901_-25-1X1-030-V_cal.fts.mag.1'
p499
sI8
S'KIC8462852-20181025at023541_-25-1X1-030-V_cal.fts.mag.1'
p500
sI9
S'KIC8462852-20181025at030459_-25-1X1-030-V_cal.fts.mag.1'
p501
ssg119
(dp502
I0
F0.004366231252848327
sI1
Fnan
sI2
Fnan
sI3
Fnan
sI4
Fnan
sI5
Fnan
sI6
Fnan
sI7
Fnan
sI8
Fnan
sI9
Fnan
ssg121
(dp503
I0
F6031.27
sI1
F6568.95
sI2
F6705.526666666667
sI3
F6743.04
sI4
F6751.626666666666
sI5
F6732.033333333334
sI6
F6865.25
sI7
F6716.7733333333335
sI8
F6713.83
sI9
F6780.0633333333335
ssg123
(dp504
I0
F0.0388914443604816
sI1
Fnan
sI2
Fnan
sI3
Fnan
sI4
Fnan
sI5
Fnan
sI6
Fnan
sI7
Fnan
sI8
Fnan
sI9
Fnan
ssg125
(dp505
I0
g436
sI1
g436
sI2
g436
sI3
g436
sI4
g436
sI5
g436
sI6
g436
sI7
g436
sI8
g436
sI9
g436
ssg141
(dp506
I0
F0.002156236641409088
sI1
Fnan
sI2
Fnan
sI3
Fnan
sI4
Fnan
sI5
Fnan
sI6
Fnan
sI7
Fnan
sI8
Fnan
sI9
Fnan
ssg143
(dp507
I0
F5.175201
sI1
F3.704923
sI2
F-2.634619
sI3
F-5.684329
sI4
F4.421259
sI5
F4.409629
sI6
F3.344452
sI7
F4.016277
sI8
F3.254393
sI9
F-3.751853
ssg145
(dp508
I0
F1.4982286800370648
sI1
Fnan
sI2
Fnan
sI3
Fnan
sI4
Fnan
sI5
Fnan
sI6
Fnan
sI7
Fnan
sI8
Fnan
sI9
Fnan
ssg147
(dp509
I0
F2458416.6190682873
sI1
Fnan
sI2
Fnan
sI3
Fnan
sI4
Fnan
sI5
Fnan
sI6
Fnan
sI7
Fnan
sI8
Fnan
sI9
Fnan
ssg149
(dp510
I0
F0.002156236641409088
sI1
Fnan
sI2
Fnan
sI3
Fnan
sI4
Fnan
sI5
Fnan
sI6
Fnan
sI7
Fnan
sI8
Fnan
sI9
Fnan
ssg151
(dp511
I0
F64.5217
sI1
F59.36135
sI2
F53.15554
sI3
F59.20284
sI4
F59.43438
sI5
F51.59564
sI6
F50.35228
sI7
F50.99586
sI8
F52.03273
sI9
F58.57527
ssg153
(dp512
I0
F10.881
sI1
F10.786
sI2
F10.773
sI3
F10.756
sI4
F10.768
sI5
F10.767
sI6
F10.744
sI7
F10.765
sI8
F10.769
sI9
F10.752
ssg155
(dp513
I0
F0.6959841513825968
sI1
Fnan
sI2
Fnan
sI3
Fnan
sI4
Fnan
sI5
Fnan
sI6
Fnan
sI7
Fnan
sI8
Fnan
sI9
Fnan
sss.