(dp0
S'i'
p1
(dp2
S'sigmean'
p3
(dp4
I0
F0.4365069869298936
sI1
Fnan
sI2
Fnan
sI3
Fnan
sI4
Fnan
sI5
Fnan
sI6
Fnan
sI7
Fnan
sI8
Fnan
sI9
Fnan
sI10
Fnan
sI11
Fnan
sI12
Fnan
sI13
Fnan
sI14
Fnan
ssS'ref3flag'
p5
(dp6
I0
S'NoError'
p7
sI1
S'NoError'
p8
sI2
S'NoError'
p9
sI3
S'NoError'
p10
sI4
S'NoError'
p11
sI5
S'NoError'
p12
sI6
S'NoError'
p13
sI7
S'NoError'
p14
sI8
S'NoError'
p15
sI9
S'NoError'
p16
sI10
S'NoError'
p17
sI11
S'NoError'
p18
sI12
S'NoError'
p19
sI13
S'NoError'
p20
sI14
S'NoError'
p21
ssS'tabbyerr'
p22
(dp23
I0
F0.003
sI1
F0.004
sI2
F0.003
sI3
F0.004
sI4
F0.004
sI5
F0.003
sI6
F0.003
sI7
F0.004
sI8
F0.003
sI9
F0.003
sI10
F0.003
sI11
F0.003
sI12
F0.003
sI13
F0.003
sI14
F0.003
ssS'ref2rel'
p24
(dp25
I0
F0.9101097086666176
sI1
F0.913753384116094
sI2
F0.9115379574046902
sI3
F0.9172143037302466
sI4
F0.9053228781838802
sI5
F0.9142482051194687
sI6
F0.9141106684065664
sI7
F0.897834150596036
sI8
F0.9086688742481143
sI9
F0.9074214187520027
sI10
F0.9110093089907559
sI11
F0.9135344255186525
sI12
F0.9049721028018237
sI13
F0.9089387399376976
sI14
F0.911817604107637
ssS'ref2err'
p26
(dp27
I0
F0.004817860544897832
sI1
Fnan
sI2
Fnan
sI3
Fnan
sI4
Fnan
sI5
Fnan
sI6
Fnan
sI7
Fnan
sI8
Fnan
sI9
Fnan
sI10
Fnan
sI11
Fnan
sI12
Fnan
sI13
Fnan
sI14
Fnan
ssS'ref2mean'
p28
(dp29
I0
F0.9100329153720189
sI1
Fnan
sI2
Fnan
sI3
Fnan
sI4
Fnan
sI5
Fnan
sI6
Fnan
sI7
Fnan
sI8
Fnan
sI9
Fnan
sI10
Fnan
sI11
Fnan
sI12
Fnan
sI13
Fnan
sI14
Fnan
ssS'tabbymag'
p30
(dp31
I0
F12.038
sI1
F12.179
sI2
F12.023
sI3
F12.206
sI4
F12.111
sI5
F12.002
sI6
F12.021
sI7
F12.384
sI8
F11.971
sI9
F11.965
sI10
F12.013
sI11
F11.94
sI12
F12.065
sI13
F12.041
sI14
F12.023
ssS'tabbybkg'
p32
(dp33
I0
F36.98275
sI1
F40.02755
sI2
F35.20406
sI3
F40.72345
sI4
F37.34409
sI5
F35.06771
sI6
F35.65505
sI7
F45.40261
sI8
F35.31189
sI9
F34.07592
sI10
F35.32187
sI11
F35.07569
sI12
F37.25638
sI13
F38.06253
sI14
F37.25733
ssS'JD'
p34
(dp35
I0
F2458358.6860648147
sI1
F2458358.7066550925
sI2
F2458358.7259027776
sI3
F2458358.7073958335
sI4
F2458358.7244444443
sI5
F2458358.7273842595
sI6
F2458358.725173611
sI7
F2458358.7082291665
sI8
F2458358.688263889
sI9
F2458358.687534722
sI10
F2458358.7266435185
sI11
F2458358.68900463
sI12
F2458358.7059143516
sI13
F2458358.6867939816
sI14
F2458358.705173611
ssS'ref3rmsmean'
p36
(dp37
I0
F4.360787200000001
sI1
Fnan
sI2
Fnan
sI3
Fnan
sI4
Fnan
sI5
Fnan
sI6
Fnan
sI7
Fnan
sI8
Fnan
sI9
Fnan
sI10
Fnan
sI11
Fnan
sI12
Fnan
sI13
Fnan
sI14
Fnan
ssS'ref1rmsmean'
p38
(dp39
I0
F1.7334928666666665
sI1
Fnan
sI2
Fnan
sI3
Fnan
sI4
Fnan
sI5
Fnan
sI6
Fnan
sI7
Fnan
sI8
Fnan
sI9
Fnan
sI10
Fnan
sI11
Fnan
sI12
Fnan
sI13
Fnan
sI14
Fnan
ssS'relflux'
p40
(dp41
I0
F0.4362183943364023
sI1
F0.43275780772750966
sI2
F0.43735993109211435
sI3
F0.4323363418139898
sI4
F0.4336938742796731
sI5
F0.43541845462593254
sI6
F0.4367716723405208
sI7
F0.43035837199745614
sI8
F0.43969300210202833
sI9
F0.4383892026679057
sI10
F0.43862788911717643
sI11
F0.4402732708835538
sI12
F0.43685270362492445
sI13
F0.4366501868216234
sI14
F0.4360550855851559
ssS'sigerr'
p42
(dp43
I0
F0.002301409184238836
sI1
Fnan
sI2
Fnan
sI3
Fnan
sI4
Fnan
sI5
Fnan
sI6
Fnan
sI7
Fnan
sI8
Fnan
sI9
Fnan
sI10
Fnan
sI11
Fnan
sI12
Fnan
sI13
Fnan
sI14
Fnan
ssS'tabbyrmsmean'
p44
(dp45
I0
F-0.012044800000000085
sI1
Fnan
sI2
Fnan
sI3
Fnan
sI4
Fnan
sI5
Fnan
sI6
Fnan
sI7
Fnan
sI8
Fnan
sI9
Fnan
sI10
Fnan
sI11
Fnan
sI12
Fnan
sI13
Fnan
sI14
Fnan
ssS'tabbyflag'
p46
(dp47
I0
g7
sI1
g8
sI2
g9
sI3
g10
sI4
g11
sI5
g12
sI6
g13
sI7
g14
sI8
g15
sI9
g16
sI10
g17
sI11
g18
sI12
g19
sI13
g20
sI14
g21
ssS'ref1err'
p48
(dp49
I0
F0.0038151450474229174
sI1
Fnan
sI2
Fnan
sI3
Fnan
sI4
Fnan
sI5
Fnan
sI6
Fnan
sI7
Fnan
sI8
Fnan
sI9
Fnan
sI10
Fnan
sI11
Fnan
sI12
Fnan
sI13
Fnan
sI14
Fnan
ssS'ref2magmeanerr'
p50
(dp51
I0
F0.11029549056101647
sI1
Fnan
sI2
Fnan
sI3
Fnan
sI4
Fnan
sI5
Fnan
sI6
Fnan
sI7
Fnan
sI8
Fnan
sI9
Fnan
sI10
Fnan
sI11
Fnan
sI12
Fnan
sI13
Fnan
sI14
Fnan
ssS'ref2rmsmean'
p52
(dp53
I0
F2.138068
sI1
Fnan
sI2
Fnan
sI3
Fnan
sI4
Fnan
sI5
Fnan
sI6
Fnan
sI7
Fnan
sI8
Fnan
sI9
Fnan
sI10
Fnan
sI11
Fnan
sI12
Fnan
sI13
Fnan
sI14
Fnan
ssS'ref3rel'
p54
(dp55
I0
F1.4948224610891427
sI1
F1.50124241498232
sI2
F1.5036866212460367
sI3
F1.5066806466188418
sI4
F1.5072361580391207
sI5
F1.4900323068612022
sI6
F1.4938843101581791
sI7
F1.510249813984913
sI8
F1.5057011149726423
sI9
F1.511777429359457
sI10
F1.501622447611581
sI11
F1.491974115130663
sI12
F1.5040170047685355
sI13
F1.5084524191590238
sI14
F1.5038430401323193
ssS'ref1flag'
p56
(dp57
I0
g7
sI1
g8
sI2
g9
sI3
g10
sI4
g11
sI5
g12
sI6
g13
sI7
g14
sI8
g15
sI9
g16
sI10
g17
sI11
g18
sI12
g19
sI13
g20
sI14
g21
ssS'ref2bkg'
p58
(dp59
I0
F41.36334
sI1
F46.91428
sI2
F39.83525
sI3
F49.43664
sI4
F44.00766
sI5
F37.6412
sI6
F38.21169
sI7
F57.10196
sI8
F37.83394
sI9
F37.06115
sI10
F38.20094
sI11
F37.31528
sI12
F42.38332
sI13
F40.67831
sI14
F41.19337
ssS'ref3magmean'
p60
(dp61
I0
F10.890733333333335
sI1
Fnan
sI2
Fnan
sI3
Fnan
sI4
Fnan
sI5
Fnan
sI6
Fnan
sI7
Fnan
sI8
Fnan
sI9
Fnan
sI10
Fnan
sI11
Fnan
sI12
Fnan
sI13
Fnan
sI14
Fnan
ssS'ref1mean'
p62
(dp63
I0
F0.696609958279978
sI1
Fnan
sI2
Fnan
sI3
Fnan
sI4
Fnan
sI5
Fnan
sI6
Fnan
sI7
Fnan
sI8
Fnan
sI9
Fnan
sI10
Fnan
sI11
Fnan
sI12
Fnan
sI13
Fnan
sI14
Fnan
ssS'ref1rms'
p64
(dp65
I0
F-4.695641
sI1
F4.009683
sI2
F2.262339
sI3
F3.78251
sI4
F4.257695
sI5
F-3.392291
sI6
F-2.819309
sI7
F6.169154
sI8
F3.3659
sI9
F4.578706
sI10
F-2.660424
sI11
F4.426471
sI12
F5.513485
sI13
F4.901214
sI14
F-3.697099
ssS'ref2magmean'
p66
(dp67
I0
F11.233666666666668
sI1
Fnan
sI2
Fnan
sI3
Fnan
sI4
Fnan
sI5
Fnan
sI6
Fnan
sI7
Fnan
sI8
Fnan
sI9
Fnan
sI10
Fnan
sI11
Fnan
sI12
Fnan
sI13
Fnan
sI14
Fnan
ssS'ref2flag'
p68
(dp69
I0
g7
sI1
g8
sI2
g9
sI3
g10
sI4
g11
sI5
g12
sI6
g13
sI7
g14
sI8
g15
sI9
g16
sI10
g17
sI11
g18
sI12
g19
sI13
g20
sI14
g21
ssS'ref2'
p70
(dp71
I0
F8268.043333333333
sI1
F7335.9
sI2
F8368.383333333333
sI3
F7182.116666666667
sI4
F7749.903333333334
sI5
F8586.609999999999
sI6
F8409.603333333334
sI7
F6039.176666666666
sI8
F8717.96
sI9
F8779.03
sI10
F8419.186666666666
sI11
F8988.813333333334
sI12
F8025.0
sI13
F8232.173333333334
sI14
F8393.843333333332
ssS'airmass'
p72
(dp73
I0
F1.017879
sI1
F1.0067549999999998
sI2
F1.004964
sI3
F1.006532
sI4
F1.0048110000000001
sI5
F1.005166
sI6
F1.004881
sI7
F1.0063
sI8
F1.016222
sI9
F1.016761
sI10
F1.005059
sI11
F1.015698
sI12
F1.0069860000000002
sI13
F1.017311
sI14
F1.007233
ssS'ref1'
p74
(dp75
I0
F6861.41
sI1
F6026.516666666666
sI2
F6889.490000000001
sI3
F5846.0633333333335
sI4
F6432.576666666666
sI5
F7098.3966666666665
sI6
F6936.716666666666
sI7
F5066.553333333333
sI8
F7202.61
sI9
F7240.453333333334
sI10
F6946.486666666667
sI11
F7430.5599999999995
sI12
F6678.326666666666
sI13
F6786.406666666667
sI14
F6906.543333333333
ssS'ref3'
p76
(dp77
I0
F11307.923333333334
sI1
F10030.113333333335
sI2
F11471.53
sI3
F9814.653333333332
sI4
F10688.173333333334
sI5
F11685.583333333334
sI6
F11462.813333333334
sI7
F8386.213333333333
sI8
F11985.81
sI9
F12108.946666666667
sI10
F11536.72
sI11
F12248.640000000001
sI12
F11057.026666666667
sI13
F11327.406666666668
sI14
F11504.69
ssS'ref1bkg'
p78
(dp79
I0
F38.97922
sI1
F44.30925
sI2
F38.17923
sI3
F46.84286
sI4
F40.20872
sI5
F38.45303
sI6
F38.40522
sI7
F51.99336
sI8
F37.07719
sI9
F35.98256
sI10
F38.26465
sI11
F35.69626
sI12
F40.37533
sI13
F38.39795
sI14
F40.33244
ssS'ref1mag'
p80
(dp81
I0
F11.409
sI1
F11.55
sI2
F11.405
sI3
F11.583
sI4
F11.479
sI5
F11.372
sI6
F11.397
sI7
F11.738
sI8
F11.356
sI9
F11.351
sI10
F11.396
sI11
F11.322
sI12
F11.438
sI13
F11.421
sI14
F11.402
ssS'ref3magerr'
p82
(dp83
I0
F0.002
sI1
F0.002
sI2
F0.002
sI3
F0.002
sI4
F0.002
sI5
F0.002
sI6
F0.002
sI7
F0.002
sI8
F0.002
sI9
F0.002
sI10
F0.002
sI11
F0.002
sI12
F0.002
sI13
F0.002
sI14
F0.002
ssS'tabbymagmean'
p84
(dp85
I0
F0.43609707926773117
sI1
Fnan
sI2
Fnan
sI3
Fnan
sI4
Fnan
sI5
Fnan
sI6
Fnan
sI7
Fnan
sI8
Fnan
sI9
Fnan
sI10
Fnan
sI11
Fnan
sI12
Fnan
sI13
Fnan
sI14
Fnan
ssS'ref1magmean'
p86
(dp87
I0
F11.441266666666662
sI1
Fnan
sI2
Fnan
sI3
Fnan
sI4
Fnan
sI5
Fnan
sI6
Fnan
sI7
Fnan
sI8
Fnan
sI9
Fnan
sI10
Fnan
sI11
Fnan
sI12
Fnan
sI13
Fnan
sI14
Fnan
ssS'ref2mag'
p88
(dp89
I0
F11.206
sI1
F11.336
sI2
F11.193
sI3
F11.359
sI4
F11.277
sI5
F11.165
sI6
F11.188
sI7
F11.548
sI8
F11.149
sI9
F11.141
sI10
F11.187
sI11
F11.116
sI12
F11.239
sI13
F11.211
sI14
F11.19
ssS'ref3rms'
p90
(dp91
I0
F4.801931
sI1
F8.153057
sI2
F2.453035
sI3
F6.566577
sI4
F6.864481
sI5
F2.700576
sI6
F3.969643
sI7
F11.59015
sI8
F4.23362
sI9
F-2.192198
sI10
F6.559809
sI11
F3.664053
sI12
F-3.380069
sI13
F4.733726
sI14
F4.693417
ssS'ref3magmeanerr'
p92
(dp93
I0
F0.10725434834119897
sI1
Fnan
sI2
Fnan
sI3
Fnan
sI4
Fnan
sI5
Fnan
sI6
Fnan
sI7
Fnan
sI8
Fnan
sI9
Fnan
sI10
Fnan
sI11
Fnan
sI12
Fnan
sI13
Fnan
sI14
Fnan
ssS'ref1rel'
p94
(dp95
I0
F0.7010034412945124
sI1
F0.6940587400216974
sI2
F0.6945080741280121
sI3
F0.6879028584058423
sI4
F0.6977492048610275
sI5
F0.7003086987134101
sI6
F0.6981251231816294
sI7
F0.7024494080691521
sI8
F0.6957776289052671
sI9
F0.6932651686544397
sI10
F0.696183519265474
sI11
F0.699759983777088
sI12
F0.6999598924502778
sI13
F0.6939215122887777
sI14
F0.6941761201830621
ssS'exposure'
p96
(dp97
I0
F30.0
sI1
F30.0
sI2
F30.0
sI3
F30.0
sI4
F30.0
sI5
F30.0
sI6
F30.0
sI7
F30.0
sI8
F30.0
sI9
F30.0
sI10
F30.0
sI11
F30.0
sI12
F30.0
sI13
F30.0
sI14
F30.0
ssS'ref1magerr'
p98
(dp99
I0
F0.002
sI1
F0.003
sI2
F0.002
sI3
F0.003
sI4
F0.002
sI5
F0.002
sI6
F0.002
sI7
F0.003
sI8
F0.002
sI9
F0.002
sI10
F0.002
sI11
F0.002
sI12
F0.002
sI13
F0.002
sI14
F0.002
ssS'ref2magerr'
p100
(dp101
I0
F0.002
sI1
F0.002
sI2
F0.002
sI3
F0.002
sI4
F0.002
sI5
F0.002
sI6
F0.002
sI7
F0.003
sI8
F0.002
sI9
F0.002
sI10
F0.002
sI11
F0.002
sI12
F0.002
sI13
F0.002
sI14
F0.002
ssS'ref2rms'
p102
(dp103
I0
F4.517015
sI1
F3.742774
sI2
F2.260849
sI3
F5.07106
sI4
F-4.190704
sI5
F3.698172
sI6
F5.176145
sI7
F8.727388
sI8
F3.185782
sI9
F5.319826
sI10
F3.17769
sI11
F-2.727888
sI12
F2.545179
sI13
F-4.714755
sI14
F-3.717513
ssS'name'
p104
(dp105
I0
S"KIC8462852-20180828at042754_-25-1X1-030-i'_cal.fts.mag.1"
p106
sI1
S"KIC8462852-20180828at045735_-25-1X1-030-i'_cal.fts.mag.1"
p107
sI2
S"KIC8462852-20180828at052518_-25-1X1-030-i'_cal.fts.mag.1"
p108
sI3
S"KIC8462852-20180828at045839_-25-1X1-030-i'_cal.fts.mag.1"
p109
sI4
S"KIC8462852-20180828at052310_-25-1X1-030-i'_cal.fts.mag.1"
p110
sI5
S"KIC8462852-20180828at052726_-25-1X1-030-i'_cal.fts.mag.1"
p111
sI6
S"KIC8462852-20180828at052415_-25-1X1-030-i'_cal.fts.mag.1"
p112
sI7
S"KIC8462852-20180828at045951_-25-1X1-030-i'_cal.fts.mag.1"
p113
sI8
S"KIC8462852-20180828at043106_-25-1X1-030-i'_cal.fts.mag.1"
p114
sI9
S"KIC8462852-20180828at043003_-25-1X1-030-i'_cal.fts.mag.1"
p115
sI10
S"KIC8462852-20180828at052622_-25-1X1-030-i'_cal.fts.mag.1"
p116
sI11
S"KIC8462852-20180828at043209_-25-1X1-030-i'_cal.fts.mag.1"
p117
sI12
S"KIC8462852-20180828at045631_-25-1X1-030-i'_cal.fts.mag.1"
p118
sI13
S"KIC8462852-20180828at042859_-25-1X1-030-i'_cal.fts.mag.1"
p119
sI14
S"KIC8462852-20180828at045525_-25-1X1-030-i'_cal.fts.mag.1"
p120
ssS'ref3err'
p121
(dp122
I0
F0.006754093841275202
sI1
Fnan
sI2
Fnan
sI3
Fnan
sI4
Fnan
sI5
Fnan
sI6
Fnan
sI7
Fnan
sI8
Fnan
sI9
Fnan
sI10
Fnan
sI11
Fnan
sI12
Fnan
sI13
Fnan
sI14
Fnan
ssS'tabby'
p123
(dp124
I0
F3844.1566666666668
sI1
F3374.4333333333334
sI2
F3896.79
sI3
F3291.9289999999996
sI4
F3595.4166666666665
sI5
F3972.5533333333337
sI6
F3903.1566666666668
sI7
F2796.173666666667
sI8
F4090.08
sI9
F4110.4
sI10
F3933.3799999999997
sI11
F4207.253333333333
sI12
F3751.1600000000003
sI13
F3834.6600000000003
sI14
F3896.163333333333
ssS'ref1magmeanerr'
p125
(dp126
I0
F0.10828366627036776
sI1
Fnan
sI2
Fnan
sI3
Fnan
sI4
Fnan
sI5
Fnan
sI6
Fnan
sI7
Fnan
sI8
Fnan
sI9
Fnan
sI10
Fnan
sI11
Fnan
sI12
Fnan
sI13
Fnan
sI14
Fnan
ssS'filter'
p127
(dp128
I0
S"i'"
p129
sI1
S"i'"
p130
sI2
S"i'"
p131
sI3
S"i'"
p132
sI4
S"i'"
p133
sI5
S"i'"
p134
sI6
S"i'"
p135
sI7
S"i'"
p136
sI8
S"i'"
p137
sI9
S"i'"
p138
sI10
S"i'"
p139
sI11
S"i'"
p140
sI12
S"i'"
p141
sI13
S"i'"
p142
sI14
S"i'"
p143
ssS'tabbymagerr'
p144
(dp145
I0
F0.002795862765908179
sI1
Fnan
sI2
Fnan
sI3
Fnan
sI4
Fnan
sI5
Fnan
sI6
Fnan
sI7
Fnan
sI8
Fnan
sI9
Fnan
sI10
Fnan
sI11
Fnan
sI12
Fnan
sI13
Fnan
sI14
Fnan
ssS'tabbyrms'
p146
(dp147
I0
F-3.773307
sI1
F-3.49776
sI2
F2.966757
sI3
F3.644627
sI4
F4.036353
sI5
F-3.20833
sI6
F-3.077608
sI7
F-2.728696
sI8
F3.473057
sI9
F-2.679748
sI10
F-4.028421
sI11
F4.671299
sI12
F2.168289
sI13
F-2.731186
sI14
F4.584002
ssS'ref3mean'
p148
(dp149
I0
F1.5023481536075984
sI1
Fnan
sI2
Fnan
sI3
Fnan
sI4
Fnan
sI5
Fnan
sI6
Fnan
sI7
Fnan
sI8
Fnan
sI9
Fnan
sI10
Fnan
sI11
Fnan
sI12
Fnan
sI13
Fnan
sI14
Fnan
ssS'median_JD'
p150
(dp151
I0
F2458358.7066550925
sI1
Fnan
sI2
Fnan
sI3
Fnan
sI4
Fnan
sI5
Fnan
sI6
Fnan
sI7
Fnan
sI8
Fnan
sI9
Fnan
sI10
Fnan
sI11
Fnan
sI12
Fnan
sI13
Fnan
sI14
Fnan
ssS'error'
p152
(dp153
I0
F0.002795862765908179
sI1
Fnan
sI2
Fnan
sI3
Fnan
sI4
Fnan
sI5
Fnan
sI6
Fnan
sI7
Fnan
sI8
Fnan
sI9
Fnan
sI10
Fnan
sI11
Fnan
sI12
Fnan
sI13
Fnan
sI14
Fnan
ssS'ref3bkg'
p154
(dp155
I0
F43.72328
sI1
F50.39891
sI2
F42.22123
sI3
F54.78361
sI4
F46.23273
sI5
F40.58035
sI6
F41.50618
sI7
F64.85264
sI8
F39.85643
sI9
F40.49099
sI10
F40.58243
sI11
F39.53435
sI12
F45.67113
sI13
F42.44493
sI14
F44.14513
ssS'ref3mag'
p156
(dp157
I0
F10.867
sI1
F10.997
sI2
F10.851
sI3
F11.02
sI4
F10.928
sI5
F10.831
sI6
F10.852
sI7
F11.191
sI8
F10.803
sI9
F10.792
sI10
F10.845
sI11
F10.78
sI12
F10.891
sI13
F10.865
sI14
F10.848
ssS'mean'
p158
(dp159
I0
F0.43609707926773117
sI1
Fnan
sI2
Fnan
sI3
Fnan
sI4
Fnan
sI5
Fnan
sI6
Fnan
sI7
Fnan
sI8
Fnan
sI9
Fnan
sI10
Fnan
sI11
Fnan
sI12
Fnan
sI13
Fnan
sI14
Fnan
sssS'r'
p160
(dp161
g3
(dp162
I0
F0.5499557323378284
sI1
Fnan
sI2
Fnan
sI3
Fnan
sI4
Fnan
sI5
Fnan
sI6
Fnan
sI7
Fnan
sI8
Fnan
sI9
Fnan
sI10
Fnan
sI11
Fnan
sI12
Fnan
sI13
Fnan
sI14
Fnan
ssg5
(dp163
I0
S'NoError'
p164
sI1
S'NoError'
p165
sI2
S'NoError'
p166
sI3
S'NoError'
p167
sI4
S'NoError'
p168
sI5
S'NoError'
p169
sI6
S'NoError'
p170
sI7
S'NoError'
p171
sI8
S'NoError'
p172
sI9
S'NoError'
p173
sI10
S'NoError'
p174
sI11
S'NoError'
p175
sI12
S'NoError'
p176
sI13
S'NoError'
p177
sI14
S'NoError'
p178
ssg22
(dp179
I0
F0.002
sI1
F0.002
sI2
F0.002
sI3
F0.002
sI4
F0.002
sI5
F0.002
sI6
F0.002
sI7
F0.002
sI8
F0.003
sI9
F0.002
sI10
F0.002
sI11
F0.002
sI12
F0.002
sI13
F0.002
sI14
F0.002
ssg24
(dp180
I0
F0.8898394782751232
sI1
F0.889981446243932
sI2
F0.8842978177678494
sI3
F0.8920907419469715
sI4
F0.8944657907311516
sI5
F0.8960415509395525
sI6
F0.8944032118579244
sI7
F0.8894016205678651
sI8
F0.8926763648014326
sI9
F0.8948357435343093
sI10
F0.9041670856220713
sI11
F0.8898917355934374
sI12
F0.8950229857243708
sI13
F0.8960181138371244
sI14
F0.8947167878519837
ssg26
(dp181
I0
F0.0044354027684332395
sI1
Fnan
sI2
Fnan
sI3
Fnan
sI4
Fnan
sI5
Fnan
sI6
Fnan
sI7
Fnan
sI8
Fnan
sI9
Fnan
sI10
Fnan
sI11
Fnan
sI12
Fnan
sI13
Fnan
sI14
Fnan
ssg28
(dp182
I0
F0.8931900316863399
sI1
Fnan
sI2
Fnan
sI3
Fnan
sI4
Fnan
sI5
Fnan
sI6
Fnan
sI7
Fnan
sI8
Fnan
sI9
Fnan
sI10
Fnan
sI11
Fnan
sI12
Fnan
sI13
Fnan
sI14
Fnan
ssg30
(dp183
I0
F11.305
sI1
F11.32
sI2
F11.349
sI3
F11.29
sI4
F11.293
sI5
F11.288
sI6
F11.265
sI7
F11.27
sI8
F11.559
sI9
F11.365
sI10
F11.362
sI11
F11.375
sI12
F11.305
sI13
F11.327
sI14
F11.272
ssg32
(dp184
I0
F64.72491
sI1
F66.68905
sI2
F71.3859
sI3
F70.09257
sI4
F62.78106
sI5
F68.82118
sI6
F67.0409
sI7
F67.80492
sI8
F82.5091
sI9
F73.42796
sI10
F72.84702
sI11
F69.66987
sI12
F66.42756
sI13
F70.41873
sI14
F68.2796
ssg34
(dp185
I0
F2458358.6838310184
sI1
F2458358.683090278
sI2
F2458358.701365741
sI3
F2458358.7021180554
sI4
F2458358.682349537
sI5
F2458358.722928241
sI6
F2458358.7221875
sI7
F2458358.7207175926
sI8
F2458358.703587963
sI9
F2458358.7028472223
sI10
F2458358.7044212963
sI11
F2458358.6852893517
sI12
F2458358.6845601853
sI13
F2458358.7236689813
sI14
F2458358.7214583335
ssg36
(dp186
I0
F3.712733
sI1
Fnan
sI2
Fnan
sI3
Fnan
sI4
Fnan
sI5
Fnan
sI6
Fnan
sI7
Fnan
sI8
Fnan
sI9
Fnan
sI10
Fnan
sI11
Fnan
sI12
Fnan
sI13
Fnan
sI14
Fnan
ssg38
(dp187
I0
F2.471291733333333
sI1
Fnan
sI2
Fnan
sI3
Fnan
sI4
Fnan
sI5
Fnan
sI6
Fnan
sI7
Fnan
sI8
Fnan
sI9
Fnan
sI10
Fnan
sI11
Fnan
sI12
Fnan
sI13
Fnan
sI14
Fnan
ssg40
(dp188
I0
F0.5508352500604696
sI1
F0.550029899916556
sI2
F0.5477991752100374
sI3
F0.5504430685668507
sI4
F0.548090636308813
sI5
F0.5493212617845694
sI6
F0.5468812542069569
sI7
F0.5550746106304079
sI8
F0.5442537814809848
sI9
F0.5502443779135713
sI10
F0.5510537953782401
sI11
F0.5517341159828137
sI12
F0.5517493851102417
sI13
F0.5480166017229995
sI14
F0.5532256982296492
ssg42
(dp189
I0
F0.0017785612421759604
sI1
Fnan
sI2
Fnan
sI3
Fnan
sI4
Fnan
sI5
Fnan
sI6
Fnan
sI7
Fnan
sI8
Fnan
sI9
Fnan
sI10
Fnan
sI11
Fnan
sI12
Fnan
sI13
Fnan
sI14
Fnan
ssg44
(dp190
I0
F0.1269354666666666
sI1
Fnan
sI2
Fnan
sI3
Fnan
sI4
Fnan
sI5
Fnan
sI6
Fnan
sI7
Fnan
sI8
Fnan
sI9
Fnan
sI10
Fnan
sI11
Fnan
sI12
Fnan
sI13
Fnan
sI14
Fnan
ssg46
(dp191
I0
g164
sI1
g165
sI2
g166
sI3
g167
sI4
g168
sI5
g169
sI6
g170
sI7
g171
sI8
g172
sI9
g173
sI10
g174
sI11
g175
sI12
g176
sI13
g177
sI14
g178
ssg48
(dp192
I0
F0.004425535827174989
sI1
Fnan
sI2
Fnan
sI3
Fnan
sI4
Fnan
sI5
Fnan
sI6
Fnan
sI7
Fnan
sI8
Fnan
sI9
Fnan
sI10
Fnan
sI11
Fnan
sI12
Fnan
sI13
Fnan
sI14
Fnan
ssg50
(dp193
I0
F0.07012111970420458
sI1
Fnan
sI2
Fnan
sI3
Fnan
sI4
Fnan
sI5
Fnan
sI6
Fnan
sI7
Fnan
sI8
Fnan
sI9
Fnan
sI10
Fnan
sI11
Fnan
sI12
Fnan
sI13
Fnan
sI14
Fnan
ssg52
(dp194
I0
F4.1639648
sI1
Fnan
sI2
Fnan
sI3
Fnan
sI4
Fnan
sI5
Fnan
sI6
Fnan
sI7
Fnan
sI8
Fnan
sI9
Fnan
sI10
Fnan
sI11
Fnan
sI12
Fnan
sI13
Fnan
sI14
Fnan
ssg54
(dp195
I0
F1.5005869572524642
sI1
F1.504610350403894
sI2
F1.5060374892719748
sI3
F1.4913616199793287
sI4
F1.4970355117744532
sI5
F1.4964258891466529
sI6
F1.4897176534557253
sI7
F1.480154738090007
sI8
F1.5025826846138106
sI9
F1.4881190513383684
sI10
F1.4844399299693707
sI11
F1.498924752356767
sI12
F1.5008642132163657
sI13
F1.4948969899093183
sI14
F1.4988322596824675
ssg56
(dp196
I0
g164
sI1
g165
sI2
g166
sI3
g167
sI4
g168
sI5
g169
sI6
g170
sI7
g171
sI8
g172
sI9
g173
sI10
g174
sI11
g175
sI12
g176
sI13
g177
sI14
g178
ssg58
(dp197
I0
F68.60596
sI1
F69.13617
sI2
F76.37128
sI3
F73.87317
sI4
F64.32851
sI5
F73.24045
sI6
F69.39208
sI7
F70.08871
sI8
F92.48769
sI9
F78.88369
sI10
F78.03838
sI11
F76.56104
sI12
F69.28181
sI13
F75.22655
sI14
F72.1347
ssg60
(dp198
I0
F10.409266666666666
sI1
Fnan
sI2
Fnan
sI3
Fnan
sI4
Fnan
sI5
Fnan
sI6
Fnan
sI7
Fnan
sI8
Fnan
sI9
Fnan
sI10
Fnan
sI11
Fnan
sI12
Fnan
sI13
Fnan
sI14
Fnan
ssg62
(dp199
I0
F0.7152725089627961
sI1
Fnan
sI2
Fnan
sI3
Fnan
sI4
Fnan
sI5
Fnan
sI6
Fnan
sI7
Fnan
sI8
Fnan
sI9
Fnan
sI10
Fnan
sI11
Fnan
sI12
Fnan
sI13
Fnan
sI14
Fnan
ssg64
(dp200
I0
F4.446632
sI1
F2.547508
sI2
F-5.134938
sI3
F5.404127
sI4
F5.072661
sI5
F-4.635367
sI6
F2.757999
sI7
F6.0023
sI8
F1.975605
sI9
F-3.073814
sI10
F5.660656
sI11
F6.865252
sI12
F-1.463532
sI13
F6.395229
sI14
F4.249058
ssg66
(dp201
I0
F10.7636
sI1
Fnan
sI2
Fnan
sI3
Fnan
sI4
Fnan
sI5
Fnan
sI6
Fnan
sI7
Fnan
sI8
Fnan
sI9
Fnan
sI10
Fnan
sI11
Fnan
sI12
Fnan
sI13
Fnan
sI14
Fnan
ssg68
(dp202
I0
g164
sI1
g165
sI2
g166
sI3
g167
sI4
g168
sI5
g169
sI6
g170
sI7
g171
sI8
g172
sI9
g173
sI10
g174
sI11
g175
sI12
g176
sI13
g177
sI14
g178
ssg70
(dp203
I0
F12666.716666666667
sI1
F12503.586666666666
sI2
F12176.036666666665
sI3
F12871.693333333333
sI4
F12909.893333333333
sI5
F12963.663333333334
sI6
F13281.119999999999
sI7
F12969.92
sI8
F10169.57
sI9
F12044.623333333333
sI10
F12139.573333333334
sI11
F11854.876666666667
sI12
F12692.883333333333
sI13
F12531.373333333333
sI14
F13051.79
ssg72
(dp204
I0
F1.019675
sI1
F1.0202930000000001
sI2
F1.0086870000000001
sI3
F1.0083790000000001
sI4
F1.020921
sI5
F1.004705
sI6
F1.0046700000000002
sI7
F1.004638
sI8
F1.007798
sI9
F1.0080850000000001
sI10
F1.007498
sI11
F1.01847
sI12
F1.019073
sI13
F1.004751
sI14
F1.004648
ssg74
(dp205
I0
F10835.846666666668
sI1
F10667.103333333333
sI2
F10478.8
sI3
F11032.480000000001
sI4
F10982.369999999999
sI5
F11003.136666666665
sI6
F11350.903333333332
sI7
F11244.76
sI8
F8647.413333333334
sI9
F10296.886666666665
sI10
F10241.109999999999
sI11
F10150.906666666668
sI12
F10761.976666666666
sI13
F10646.776666666667
sI14
F11085.996666666668
ssg76
(dp206
I0
F17633.82
sI1
F17431.43
sI2
F17059.516666666666
sI3
F17824.883333333335
sI4
F17883.783333333333
sI5
F17932.27
sI6
F18347.38
sI7
F17920.736666666668
sI8
F14137.036666666665
sI9
F16623.413333333334
sI10
F16611.39
sI11
F16492.506666666668
sI12
F17601.280000000002
sI13
F17324.473333333335
sI14
F18089.246666666666
ssg78
(dp207
I0
F66.19035
sI1
F67.25629
sI2
F74.59943
sI3
F71.87935
sI4
F63.50108
sI5
F72.15405
sI6
F69.12778
sI7
F67.14267
sI8
F90.14851
sI9
F76.56226
sI10
F76.96239
sI11
F72.87231
sI12
F69.2838
sI13
F73.37372
sI14
F71.92653
ssg80
(dp208
I0
F10.913
sI1
F10.93
sI2
F10.949
sI3
F10.893
sI4
F10.898
sI5
F10.896
sI6
F10.862
sI7
F10.873
sI8
F11.158
sI9
F10.968
sI10
F10.974
sI11
F10.984
sI12
F10.92
sI13
F10.932
sI14
F10.888
ssg82
(dp209
I0
F0.001
sI1
F0.001
sI2
F0.001
sI3
F0.001
sI4
F0.001
sI5
F0.001
sI6
F0.001
sI7
F0.001
sI8
F0.002
sI9
F0.001
sI10
F0.001
sI11
F0.001
sI12
F0.001
sI13
F0.001
sI14
F0.001
ssg84
(dp210
I0
F0.5499168608335441
sI1
Fnan
sI2
Fnan
sI3
Fnan
sI4
Fnan
sI5
Fnan
sI6
Fnan
sI7
Fnan
sI8
Fnan
sI9
Fnan
sI10
Fnan
sI11
Fnan
sI12
Fnan
sI13
Fnan
sI14
Fnan
ssg86
(dp211
I0
F10.935866666666666
sI1
Fnan
sI2
Fnan
sI3
Fnan
sI4
Fnan
sI5
Fnan
sI6
Fnan
sI7
Fnan
sI8
Fnan
sI9
Fnan
sI10
Fnan
sI11
Fnan
sI12
Fnan
sI13
Fnan
sI14
Fnan
ssg88
(dp212
I0
F10.743
sI1
F10.757
sI2
F10.786
sI3
F10.726
sI4
F10.723
sI5
F10.718
sI6
F10.692
sI7
F10.718
sI8
F10.982
sI9
F10.798
sI10
F10.789
sI11
F10.815
sI12
F10.741
sI13
F10.755
sI14
F10.711
ssg90
(dp213
I0
F7.136353
sI1
F-4.383177
sI2
F6.685397
sI3
F-1.931238
sI4
F5.450603
sI5
F-2.59796
sI6
F-5.08031
sI7
F6.044998
sI8
F9.032341
sI9
F7.836529
sI10
F7.009779
sI11
F5.914002
sI12
F3.057673
sI13
F5.391644
sI14
F6.124361
ssg92
(dp214
I0
F0.06924023052972567
sI1
Fnan
sI2
Fnan
sI3
Fnan
sI4
Fnan
sI5
Fnan
sI6
Fnan
sI7
Fnan
sI8
Fnan
sI9
Fnan
sI10
Fnan
sI11
Fnan
sI12
Fnan
sI13
Fnan
sI14
Fnan
ssg94
(dp215
I0
F0.7152247358435126
sI1
F0.7126839748989616
sI2
F0.7168532013418366
sI3
F0.7188084925430882
sI4
F0.7132873491451653
sI5
F0.7122708706000141
sI6
F0.7177642527045754
sI7
F0.7280363199357907
sI8
F0.7115278123286646
sI9
F0.7183531112641012
sI10
F0.7124011728766421
sI11
F0.7161794474857468
sI12
F0.7104983589248048
sI13
F0.7132121748570966
sI14
F0.7119863596919436
ssg96
(dp216
I0
F30.0
sI1
F30.0
sI2
F30.0
sI3
F30.0
sI4
F30.0
sI5
F30.0
sI6
F30.0
sI7
F30.0
sI8
F30.0
sI9
F30.0
sI10
F30.0
sI11
F30.0
sI12
F30.0
sI13
F30.0
sI14
F30.0
ssg98
(dp217
I0
F0.002
sI1
F0.002
sI2
F0.002
sI3
F0.002
sI4
F0.002
sI5
F0.002
sI6
F0.002
sI7
F0.002
sI8
F0.002
sI9
F0.002
sI10
F0.002
sI11
F0.002
sI12
F0.002
sI13
F0.002
sI14
F0.002
ssg100
(dp218
I0
F0.002
sI1
F0.002
sI2
F0.002
sI3
F0.002
sI4
F0.002
sI5
F0.002
sI6
F0.002
sI7
F0.002
sI8
F0.002
sI9
F0.002
sI10
F0.002
sI11
F0.002
sI12
F0.002
sI13
F0.002
sI14
F0.002
ssg102
(dp219
I0
F5.232803
sI1
F3.56827
sI2
F2.966932
sI3
F4.617434
sI4
F5.253867
sI5
F-4.771816
sI6
F5.999
sI7
F6.562414
sI8
F9.528659
sI9
F-4.043643
sI10
F6.851132
sI11
F5.802757
sI12
F4.416788
sI13
F7.091569
sI14
F3.383306
ssg104
(dp220
I0
S"KIC8462852-20180828at042442_-25-1X1-030-r'_cal.fts.mag.1"
p221
sI1
S"KIC8462852-20180828at042339_-25-1X1-030-r'_cal.fts.mag.1"
p222
sI2
S"KIC8462852-20180828at044957_-25-1X1-030-r'_cal.fts.mag.1"
p223
sI3
S"KIC8462852-20180828at045103_-25-1X1-030-r'_cal.fts.mag.1"
p224
sI4
S"KIC8462852-20180828at042234_-25-1X1-030-r'_cal.fts.mag.1"
p225
sI5
S"KIC8462852-20180828at052101_-25-1X1-030-r'_cal.fts.mag.1"
p226
sI6
S"KIC8462852-20180828at051957_-25-1X1-030-r'_cal.fts.mag.1"
p227
sI7
S"KIC8462852-20180828at051748_-25-1X1-030-r'_cal.fts.mag.1"
p228
sI8
S"KIC8462852-20180828at045310_-25-1X1-030-r'_cal.fts.mag.1"
p229
sI9
S"KIC8462852-20180828at045206_-25-1X1-030-r'_cal.fts.mag.1"
p230
sI10
S"KIC8462852-20180828at045422_-25-1X1-030-r'_cal.fts.mag.1"
p231
sI11
S"KIC8462852-20180828at042649_-25-1X1-030-r'_cal.fts.mag.1"
p232
sI12
S"KIC8462852-20180828at042546_-25-1X1-030-r'_cal.fts.mag.1"
p233
sI13
S"KIC8462852-20180828at052205_-25-1X1-030-r'_cal.fts.mag.1"
p234
sI14
S"KIC8462852-20180828at051854_-25-1X1-030-r'_cal.fts.mag.1"
p235
ssg121
(dp236
I0
F0.007501505464505699
sI1
Fnan
sI2
Fnan
sI3
Fnan
sI4
Fnan
sI5
Fnan
sI6
Fnan
sI7
Fnan
sI8
Fnan
sI9
Fnan
sI10
Fnan
sI11
Fnan
sI12
Fnan
sI13
Fnan
sI14
Fnan
ssg123
(dp237
I0
F7553.123333333334
sI1
F7444.126666666666
sI2
F7251.83
sI3
F7656.490000000001
sI4
F7632.3533333333335
sI5
F7672.016666666666
sI6
F7834.876666666666
sI7
F7796.1
sI8
F5978.45
sI9
F7146.743333333333
sI10
F7162.243333333333
sI11
F7080.2733333333335
sI12
F7550.9
sI13
F7398.703333333334
sI14
F7787.026666666667
ssg125
(dp238
I0
F0.07156602013592218
sI1
Fnan
sI2
Fnan
sI3
Fnan
sI4
Fnan
sI5
Fnan
sI6
Fnan
sI7
Fnan
sI8
Fnan
sI9
Fnan
sI10
Fnan
sI11
Fnan
sI12
Fnan
sI13
Fnan
sI14
Fnan
ssg127
(dp239
I0
S"r'"
p240
sI1
S"r'"
p241
sI2
S"r'"
p242
sI3
S"r'"
p243
sI4
S"r'"
p244
sI5
S"r'"
p245
sI6
S"r'"
p246
sI7
S"r'"
p247
sI8
S"r'"
p248
sI9
S"r'"
p249
sI10
S"r'"
p250
sI11
S"r'"
p251
sI12
S"r'"
p252
sI13
S"r'"
p253
sI14
S"r'"
p254
ssg144
(dp255
I0
F0.002670140911726212
sI1
Fnan
sI2
Fnan
sI3
Fnan
sI4
Fnan
sI5
Fnan
sI6
Fnan
sI7
Fnan
sI8
Fnan
sI9
Fnan
sI10
Fnan
sI11
Fnan
sI12
Fnan
sI13
Fnan
sI14
Fnan
ssg146
(dp256
I0
F-2.498122
sI1
F-5.289329
sI2
F-5.201947
sI3
F-3.392533
sI4
F-2.016537
sI5
F-4.127377
sI6
F1.832988
sI7
F-4.454373
sI8
F5.719575
sI9
F6.60113
sI10
F5.16787
sI11
F5.643215
sI12
F-1.644823
sI13
F1.353255
sI14
F4.21104
ssg148
(dp257
I0
F1.4956393393640646
sI1
Fnan
sI2
Fnan
sI3
Fnan
sI4
Fnan
sI5
Fnan
sI6
Fnan
sI7
Fnan
sI8
Fnan
sI9
Fnan
sI10
Fnan
sI11
Fnan
sI12
Fnan
sI13
Fnan
sI14
Fnan
ssg150
(dp258
I0
F2458358.7028472223
sI1
Fnan
sI2
Fnan
sI3
Fnan
sI4
Fnan
sI5
Fnan
sI6
Fnan
sI7
Fnan
sI8
Fnan
sI9
Fnan
sI10
Fnan
sI11
Fnan
sI12
Fnan
sI13
Fnan
sI14
Fnan
ssg152
(dp259
I0
F0.002670140911726212
sI1
Fnan
sI2
Fnan
sI3
Fnan
sI4
Fnan
sI5
Fnan
sI6
Fnan
sI7
Fnan
sI8
Fnan
sI9
Fnan
sI10
Fnan
sI11
Fnan
sI12
Fnan
sI13
Fnan
sI14
Fnan
ssg154
(dp260
I0
F72.40393
sI1
F72.22987
sI2
F80.09962
sI3
F77.84606
sI4
F68.00729
sI5
F77.17165
sI6
F73.86
sI7
F75.14719
sI8
F102.5713
sI9
F83.78102
sI10
F84.78414
sI11
F80.04452
sI12
F73.79712
sI13
F80.09767
sI14
F75.42588
ssg156
(dp261
I0
F10.384
sI1
F10.397
sI2
F10.42
sI3
F10.372
sI4
F10.369
sI5
F10.366
sI6
F10.341
sI7
F10.367
sI8
F10.624
sI9
F10.448
sI10
F10.449
sI11
F10.457
sI12
F10.386
sI13
F10.403
sI14
F10.356
ssg158
(dp262
I0
F0.5499168608335441
sI1
Fnan
sI2
Fnan
sI3
Fnan
sI4
Fnan
sI5
Fnan
sI6
Fnan
sI7
Fnan
sI8
Fnan
sI9
Fnan
sI10
Fnan
sI11
Fnan
sI12
Fnan
sI13
Fnan
sI14
Fnan
sssS'z'
p263
(dp264
g3
(dp265
I0
F0.3681746432437816
sI1
Fnan
sI2
Fnan
sI3
Fnan
sI4
Fnan
sI5
Fnan
sI6
Fnan
sI7
Fnan
sI8
Fnan
sI9
Fnan
sI10
Fnan
sI11
Fnan
sI12
Fnan
sI13
Fnan
sI14
Fnan
ssg5
(dp266
I0
S'NoError'
p267
sI1
S'NoError'
p268
sI2
S'NoError'
p269
sI3
S'NoError'
p270
sI4
S'NoError'
p271
sI5
S'NoError'
p272
sI6
S'NoError'
p273
sI7
S'NoError'
p274
sI8
S'NoError'
p275
sI9
S'NoError'
p276
sI10
S'NoError'
p277
sI11
S'NoError'
p278
sI12
S'NoError'
p279
sI13
S'NoError'
p280
sI14
S'NoError'
p281
ssg22
(dp282
I0
F0.008
sI1
F0.007
sI2
F0.008
sI3
F0.008
sI4
F0.008
sI5
F0.008
sI6
F0.008
sI7
F0.008
sI8
F0.009
sI9
F0.008
sI10
F0.008
sI11
F0.008
sI12
F0.008
sI13
F0.007
sI14
F0.008
ssg24
(dp283
I0
F0.9109473375968544
sI1
F0.9246354694937265
sI2
F0.9108695452720913
sI3
F0.9135831905806683
sI4
F0.9185918280198426
sI5
F0.9146515329280716
sI6
F0.915675200296116
sI7
F0.9171575725021875
sI8
F0.9025412754867352
sI9
F0.9154039134052167
sI10
F0.9139172767015031
sI11
F0.9244728333904513
sI12
F0.9170365508403163
sI13
F0.9106384962020306
sI14
F0.9204245414486708
ssg26
(dp284
I0
F0.005627120511797263
sI1
Fnan
sI2
Fnan
sI3
Fnan
sI4
Fnan
sI5
Fnan
sI6
Fnan
sI7
Fnan
sI8
Fnan
sI9
Fnan
sI10
Fnan
sI11
Fnan
sI12
Fnan
sI13
Fnan
sI14
Fnan
ssg28
(dp285
I0
F0.9153697709442988
sI1
Fnan
sI2
Fnan
sI3
Fnan
sI4
Fnan
sI5
Fnan
sI6
Fnan
sI7
Fnan
sI8
Fnan
sI9
Fnan
sI10
Fnan
sI11
Fnan
sI12
Fnan
sI13
Fnan
sI14
Fnan
ssg30
(dp286
I0
F13.416
sI1
F13.334
sI2
F13.462
sI3
F13.361
sI4
F13.41
sI5
F13.498
sI6
F13.412
sI7
F13.4
sI8
F13.535
sI9
F13.398
sI10
F13.373
sI11
F13.348
sI12
F13.425
sI13
F13.344
sI14
F13.45
ssg32
(dp287
I0
F13.87599
sI1
F13.62373
sI2
F12.56963
sI3
F13.13506
sI4
F12.24871
sI5
F12.38444
sI6
F12.47966
sI7
F12.83182
sI8
F13.04117
sI9
F12.96506
sI10
F12.29288
sI11
F13.37039
sI12
F12.54294
sI13
F12.60101
sI14
F12.81975
ssg34
(dp288
I0
F2458358.6927199075
sI1
F2458358.690497685
sI2
F2458358.7097222223
sI3
F2458358.691238426
sI4
F2458358.731099537
sI5
F2458358.7296296298
sI6
F2458358.73037037
sI7
F2458358.728888889
sI8
F2458358.7089814814
sI9
F2458358.7112037037
sI10
F2458358.728136574
sI11
F2458358.6919675926
sI12
F2458358.7104629627
sI13
F2458358.6897569443
sI14
F2458358.7119328706
ssg36
(dp289
I0
F-0.3995461333333333
sI1
Fnan
sI2
Fnan
sI3
Fnan
sI4
Fnan
sI5
Fnan
sI6
Fnan
sI7
Fnan
sI8
Fnan
sI9
Fnan
sI10
Fnan
sI11
Fnan
sI12
Fnan
sI13
Fnan
sI14
Fnan
ssg38
(dp290
I0
F0.1491263733333333
sI1
Fnan
sI2
Fnan
sI3
Fnan
sI4
Fnan
sI5
Fnan
sI6
Fnan
sI7
Fnan
sI8
Fnan
sI9
Fnan
sI10
Fnan
sI11
Fnan
sI12
Fnan
sI13
Fnan
sI14
Fnan
ssg40
(dp291
I0
F0.3665280278278611
sI1
F0.36899035002725405
sI2
F0.3673843373122296
sI3
F0.37156245074789823
sI4
F0.36657604934643206
sI5
F0.3664528040382239
sI6
F0.3685654101246221
sI7
F0.36882143926402333
sI8
F0.36840197205048447
sI9
F0.3662524264807327
sI10
F0.37080203622161495
sI11
F0.37096350618371254
sI12
F0.36502120289528145
sI13
F0.3671407763875861
sI14
F0.36939122690438353
ssg42
(dp292
I0
F0.00154593965458831
sI1
Fnan
sI2
Fnan
sI3
Fnan
sI4
Fnan
sI5
Fnan
sI6
Fnan
sI7
Fnan
sI8
Fnan
sI9
Fnan
sI10
Fnan
sI11
Fnan
sI12
Fnan
sI13
Fnan
sI14
Fnan
ssg44
(dp293
I0
F1.1129566000000002
sI1
Fnan
sI2
Fnan
sI3
Fnan
sI4
Fnan
sI5
Fnan
sI6
Fnan
sI7
Fnan
sI8
Fnan
sI9
Fnan
sI10
Fnan
sI11
Fnan
sI12
Fnan
sI13
Fnan
sI14
Fnan
ssg46
(dp294
I0
g267
sI1
g268
sI2
g269
sI3
g270
sI4
g271
sI5
g272
sI6
g273
sI7
g274
sI8
g275
sI9
g276
sI10
g277
sI11
g278
sI12
g279
sI13
g280
sI14
g281
ssg48
(dp295
I0
F0.005997166145393753
sI1
Fnan
sI2
Fnan
sI3
Fnan
sI4
Fnan
sI5
Fnan
sI6
Fnan
sI7
Fnan
sI8
Fnan
sI9
Fnan
sI10
Fnan
sI11
Fnan
sI12
Fnan
sI13
Fnan
sI14
Fnan
ssg50
(dp296
I0
F0.057902627623574204
sI1
Fnan
sI2
Fnan
sI3
Fnan
sI4
Fnan
sI5
Fnan
sI6
Fnan
sI7
Fnan
sI8
Fnan
sI9
Fnan
sI10
Fnan
sI11
Fnan
sI12
Fnan
sI13
Fnan
sI14
Fnan
ssg52
(dp297
I0
F1.0545769999999999
sI1
Fnan
sI2
Fnan
sI3
Fnan
sI4
Fnan
sI5
Fnan
sI6
Fnan
sI7
Fnan
sI8
Fnan
sI9
Fnan
sI10
Fnan
sI11
Fnan
sI12
Fnan
sI13
Fnan
sI14
Fnan
ssg54
(dp298
I0
F1.505469731846242
sI1
F1.493444405198462
sI2
F1.5112716232632961
sI3
F1.5127504355602148
sI4
F1.521155573496903
sI5
F1.5116786187468785
sI6
F1.5030325797711834
sI7
F1.5085619453392205
sI8
F1.5095129644413454
sI9
F1.508106031242409
sI10
F1.517024372735963
sI11
F1.5036882615149112
sI12
F1.4957184893517934
sI13
F1.4951336301966653
sI14
F1.5111395941506245
ssg56
(dp299
I0
g267
sI1
g268
sI2
g269
sI3
g270
sI4
g271
sI5
g272
sI6
g273
sI7
g274
sI8
g275
sI9
g276
sI10
g277
sI11
g278
sI12
g279
sI13
g280
sI14
g281
ssg58
(dp300
I0
F16.62397
sI1
F13.89219
sI2
F15.18661
sI3
F14.61738
sI4
F14.28238
sI5
F15.88921
sI6
F13.52867
sI7
F14.47324
sI8
F16.38578
sI9
F13.92376
sI10
F13.78782
sI11
F14.48832
sI12
F13.65609
sI13
F14.39965
sI14
F14.45484
ssg60
(dp301
I0
F12.050400000000002
sI1
Fnan
sI2
Fnan
sI3
Fnan
sI4
Fnan
sI5
Fnan
sI6
Fnan
sI7
Fnan
sI8
Fnan
sI9
Fnan
sI10
Fnan
sI11
Fnan
sI12
Fnan
sI13
Fnan
sI14
Fnan
ssg62
(dp302
I0
F0.6892084780640424
sI1
Fnan
sI2
Fnan
sI3
Fnan
sI4
Fnan
sI5
Fnan
sI6
Fnan
sI7
Fnan
sI8
Fnan
sI9
Fnan
sI10
Fnan
sI11
Fnan
sI12
Fnan
sI13
Fnan
sI14
Fnan
ssg64
(dp303
I0
F0.6984706
sI1
F-2.05451
sI2
F4.411622
sI3
F-2.976015
sI4
F-3.620033
sI5
F-4.911389
sI6
F-2.738645
sI7
F3.766027
sI8
F-2.479579
sI9
F2.936754
sI10
F2.55496
sI11
F-3.198136
sI12
F3.331643
sI13
F3.402952
sI14
F3.112774
ssg66
(dp304
I0
F12.391
sI1
Fnan
sI2
Fnan
sI3
Fnan
sI4
Fnan
sI5
Fnan
sI6
Fnan
sI7
Fnan
sI8
Fnan
sI9
Fnan
sI10
Fnan
sI11
Fnan
sI12
Fnan
sI13
Fnan
sI14
Fnan
ssg68
(dp305
I0
g267
sI1
g268
sI2
g269
sI3
g270
sI4
g271
sI5
g272
sI6
g273
sI7
g274
sI8
g275
sI9
g276
sI10
g277
sI11
g278
sI12
g279
sI13
g280
sI14
g281
ssg70
(dp306
I0
F2766.575
sI1
F2995.576666666667
sI2
F2647.4423333333334
sI3
F2877.4933333333333
sI4
F2799.336333333333
sI5
F2574.843
sI6
F2772.337
sI7
F2804.546333333333
sI8
F2451.638
sI9
F2824.335666666667
sI10
F2851.5836666666664
sI11
F2939.8779999999997
sI12
F2768.6716666666666
sI13
F2950.308
sI14
F2681.0176666666666
ssg72
(dp307
I0
F1.013226
sI1
F1.014661
sI2
F1.005917
sI3
F1.014173
sI4
F1.00589
sI5
F1.005567
sI6
F1.005723
sI7
F1.005422
sI8
F1.0061
sI9
F1.005591
sI10
F1.00529
sI11
F1.0136889999999998
sI12
F1.005747
sI13
F1.015164
sI14
F1.0054459999999998
ssg74
(dp308
I0
F2277.3346666666666
sI1
F2428.8993333333333
sI2
F2171.576666666667
sI3
F2347.387
sI4
F2252.516
sI5
F2098.1696666666667
sI6
F2267.6513333333332
sI7
F2280.3183333333336
sI8
F2041.511
sI9
F2303.800666666667
sI10
F2318.660666666667
sI11
F2368.811
sI12
F2270.048333333333
sI13
F2445.7403333333336
sI14
F2164.491
ssg76
(dp309
I0
F3796.726666666667
sI1
F4050.576666666667
sI2
F3641.423333333333
sI3
F3951.9700000000003
sI4
F3842.326666666667
sI5
F3532.0466666666666
sI6
F3787.633333333333
sI7
F3835.4166666666665
sI8
F3391.233333333333
sI9
F3866.8866666666668
sI10
F3921.6933333333336
sI11
F3991.3066666666664
sI12
F3768.2533333333336
sI13
F4033.9066666666668
sI14
F3661.1200000000003
ssg78
(dp310
I0
F14.91278
sI1
F13.27157
sI2
F14.04158
sI3
F14.94748
sI4
F14.7993
sI5
F15.32627
sI6
F13.66595
sI7
F13.1148
sI8
F14.75602
sI9
F13.33085
sI10
F13.06932
sI11
F14.53642
sI12
F13.26196
sI13
F12.71008
sI14
F14.40665
ssg80
(dp311
I0
F12.606
sI1
F12.536
sI2
F12.658
sI3
F12.574
sI4
F12.618
sI5
F12.695
sI6
F12.611
sI7
F12.605
sI8
F12.725
sI9
F12.594
sI10
F12.587
sI11
F12.564
sI12
F12.61
sI13
F12.529
sI14
F12.662
ssg82
(dp312
I0
F0.003
sI1
F0.003
sI2
F0.003
sI3
F0.003
sI4
F0.003
sI5
F0.004
sI6
F0.003
sI7
F0.003
sI8
F0.004
sI9
F0.003
sI10
F0.003
sI11
F0.003
sI12
F0.003
sI13
F0.003
sI14
F0.003
ssg84
(dp313
I0
F0.3681902677208227
sI1
Fnan
sI2
Fnan
sI3
Fnan
sI4
Fnan
sI5
Fnan
sI6
Fnan
sI7
Fnan
sI8
Fnan
sI9
Fnan
sI10
Fnan
sI11
Fnan
sI12
Fnan
sI13
Fnan
sI14
Fnan
ssg86
(dp314
I0
F12.611599999999997
sI1
Fnan
sI2
Fnan
sI3
Fnan
sI4
Fnan
sI5
Fnan
sI6
Fnan
sI7
Fnan
sI8
Fnan
sI9
Fnan
sI10
Fnan
sI11
Fnan
sI12
Fnan
sI13
Fnan
sI14
Fnan
ssg88
(dp315
I0
F12.395
sI1
F12.309
sI2
F12.443
sI3
F12.352
sI4
F12.382
sI5
F12.473
sI6
F12.393
sI7
F12.38
sI8
F12.526
sI9
F12.373
sI10
F12.362
sI11
F12.329
sI12
F12.394
sI13
F12.325
sI14
F12.429
ssg90
(dp316
I0
F-3.623697
sI1
F-2.26387
sI2
F2.49327
sI3
F-1.934289
sI4
F-3.409631
sI5
F2.765448
sI6
F-3.150253
sI7
F3.286197
sI8
F1.367826
sI9
F2.796242
sI10
F3.694049
sI11
F-3.689886
sI12
F-3.022947
sI13
F-2.862829
sI14
F1.561178
ssg92
(dp317
I0
F0.0540579054612472
sI1
Fnan
sI2
Fnan
sI3
Fnan
sI4
Fnan
sI5
Fnan
sI6
Fnan
sI7
Fnan
sI8
Fnan
sI9
Fnan
sI10
Fnan
sI11
Fnan
sI12
Fnan
sI13
Fnan
sI14
Fnan
ssg94
(dp318
I0
F0.6939600775118011
sI1
F0.6894256251401474
sI2
F0.6906099706269234
sI3
F0.6874294173431881
sI4
F0.6782987935401118
sI5
F0.6871483786973064
sI6
F0.6913602403994612
sI7
F0.6868466987943559
sI8
F0.6988040240945463
sI9
F0.6886038310787961
sI10
F0.6846495918199321
sI11
F0.6835226916957055
sI12
F0.6945309402611574
sI13
F0.7003623027241813
sI14
F0.6825745872330217
ssg96
(dp319
I0
F30.0
sI1
F30.0
sI2
F30.0
sI3
F30.0
sI4
F30.0
sI5
F30.0
sI6
F30.0
sI7
F30.0
sI8
F30.0
sI9
F30.0
sI10
F30.0
sI11
F30.0
sI12
F30.0
sI13
F30.0
sI14
F30.0
ssg98
(dp320
I0
F0.005
sI1
F0.004
sI2
F0.005
sI3
F0.005
sI4
F0.005
sI5
F0.005
sI6
F0.005
sI7
F0.005
sI8
F0.005
sI9
F0.005
sI10
F0.005
sI11
F0.005
sI12
F0.005
sI13
F0.004
sI14
F0.005
ssg100
(dp321
I0
F0.004
sI1
F0.004
sI2
F0.004
sI3
F0.004
sI4
F0.004
sI5
F0.004
sI6
F0.004
sI7
F0.004
sI8
F0.004
sI9
F0.004
sI10
F0.004
sI11
F0.004
sI12
F0.004
sI13
F0.004
sI14
F0.004
ssg102
(dp322
I0
F-4.539812
sI1
F2.935284
sI2
F4.24158
sI3
F-2.043633
sI4
F-3.589687
sI5
F-2.131089
sI6
F4.720561
sI7
F2.39916
sI8
F-2.702273
sI9
F3.489597
sI10
F4.572997
sI11
F2.714938
sI12
F3.827572
sI13
F-2.397849
sI14
F4.321309
ssg104
(dp323
I0
S"KIC8462852-20180828at043731_-25-1X1-030-z'_cal.fts.mag.1"
p324
sI1
S"KIC8462852-20180828at043419_-25-1X1-030-z'_cal.fts.mag.1"
p325
sI2
S"KIC8462852-20180828at050200_-25-1X1-030-z'_cal.fts.mag.1"
p326
sI3
S"KIC8462852-20180828at043523_-25-1X1-030-z'_cal.fts.mag.1"
p327
sI4
S"KIC8462852-20180828at053247_-25-1X1-030-z'_cal.fts.mag.1"
p328
sI5
S"KIC8462852-20180828at053040_-25-1X1-030-z'_cal.fts.mag.1"
p329
sI6
S"KIC8462852-20180828at053143_-25-1X1-030-z'_cal.fts.mag.1"
p330
sI7
S"KIC8462852-20180828at052935_-25-1X1-030-z'_cal.fts.mag.1"
p331
sI8
S"KIC8462852-20180828at050055_-25-1X1-030-z'_cal.fts.mag.1"
p332
sI9
S"KIC8462852-20180828at050408_-25-1X1-030-z'_cal.fts.mag.1"
p333
sI10
S"KIC8462852-20180828at052829_-25-1X1-030-z'_cal.fts.mag.1"
p334
sI11
S"KIC8462852-20180828at043626_-25-1X1-030-z'_cal.fts.mag.1"
p335
sI12
S"KIC8462852-20180828at050304_-25-1X1-030-z'_cal.fts.mag.1"
p336
sI13
S"KIC8462852-20180828at043313_-25-1X1-030-z'_cal.fts.mag.1"
p337
sI14
S"KIC8462852-20180828at050511_-25-1X1-030-z'_cal.fts.mag.1"
p338
ssg121
(dp339
I0
F0.007935416116654022
sI1
Fnan
sI2
Fnan
sI3
Fnan
sI4
Fnan
sI5
Fnan
sI6
Fnan
sI7
Fnan
sI8
Fnan
sI9
Fnan
sI10
Fnan
sI11
Fnan
sI12
Fnan
sI13
Fnan
sI14
Fnan
ssg123
(dp340
I0
F1080.1136666666666
sI1
F1165.401
sI2
F1036.078
sI3
F1136.5910000000001
sI4
F1086.7976666666666
sI5
F1002.2556666666666
sI6
F1084.5186666666666
sI7
F1096.6636666666668
sI8
F968.2073333333334
sI9
F1098.1496666666667
sI10
F1123.7696666666666
sI11
F1149.9863333333333
sI12
F1071.5773333333334
sI13
F1154.0403333333334
sI14
F1047.4246666666668
ssg125
(dp341
I0
F0.054615277820666434
sI1
Fnan
sI2
Fnan
sI3
Fnan
sI4
Fnan
sI5
Fnan
sI6
Fnan
sI7
Fnan
sI8
Fnan
sI9
Fnan
sI10
Fnan
sI11
Fnan
sI12
Fnan
sI13
Fnan
sI14
Fnan
ssg127
(dp342
I0
S"z'"
p343
sI1
S"z'"
p344
sI2
S"z'"
p345
sI3
S"z'"
p346
sI4
S"z'"
p347
sI5
S"z'"
p348
sI6
S"z'"
p349
sI7
S"z'"
p350
sI8
S"z'"
p351
sI9
S"z'"
p352
sI10
S"z'"
p353
sI11
S"z'"
p354
sI12
S"z'"
p355
sI13
S"z'"
p356
sI14
S"z'"
p357
ssg144
(dp358
I0
F0.001936249066317726
sI1
Fnan
sI2
Fnan
sI3
Fnan
sI4
Fnan
sI5
Fnan
sI6
Fnan
sI7
Fnan
sI8
Fnan
sI9
Fnan
sI10
Fnan
sI11
Fnan
sI12
Fnan
sI13
Fnan
sI14
Fnan
ssg146
(dp359
I0
F-2.8582
sI1
F2.725237
sI2
F3.820368
sI3
F-3.618079
sI4
F2.350933
sI5
F3.8454
sI6
F3.501251
sI7
F-4.327211
sI8
F3.330522
sI9
F2.724337
sI10
F-2.515801
sI11
F2.41216
sI12
F4.321979
sI13
F-2.293298
sI14
F3.274751
ssg148
(dp360
I0
F1.5071792171237408
sI1
Fnan
sI2
Fnan
sI3
Fnan
sI4
Fnan
sI5
Fnan
sI6
Fnan
sI7
Fnan
sI8
Fnan
sI9
Fnan
sI10
Fnan
sI11
Fnan
sI12
Fnan
sI13
Fnan
sI14
Fnan
ssg150
(dp361
I0
F2458358.7104629627
sI1
Fnan
sI2
Fnan
sI3
Fnan
sI4
Fnan
sI5
Fnan
sI6
Fnan
sI7
Fnan
sI8
Fnan
sI9
Fnan
sI10
Fnan
sI11
Fnan
sI12
Fnan
sI13
Fnan
sI14
Fnan
ssg152
(dp362
I0
F0.001936249066317726
sI1
Fnan
sI2
Fnan
sI3
Fnan
sI4
Fnan
sI5
Fnan
sI6
Fnan
sI7
Fnan
sI8
Fnan
sI9
Fnan
sI10
Fnan
sI11
Fnan
sI12
Fnan
sI13
Fnan
sI14
Fnan
ssg154
(dp363
I0
F17.07922
sI1
F14.81354
sI2
F16.06723
sI3
F15.65927
sI4
F15.76171
sI5
F17.4576
sI6
F15.66047
sI7
F15.48889
sI8
F18.92341
sI9
F15.67097
sI10
F14.82296
sI11
F15.47367
sI12
F16.50747
sI13
F15.27908
sI14
F16.89582
ssg156
(dp364
I0
F12.051
sI1
F11.981
sI2
F12.097
sI3
F12.008
sI4
F12.039
sI5
F12.13
sI6
F12.054
sI7
F12.04
sI8
F12.174
sI9
F12.032
sI10
F12.016
sI11
F11.997
sI12
F12.06
sI13
F11.986
sI14
F12.091
ssg158
(dp365
I0
F0.3681902677208227
sI1
Fnan
sI2
Fnan
sI3
Fnan
sI4
Fnan
sI5
Fnan
sI6
Fnan
sI7
Fnan
sI8
Fnan
sI9
Fnan
sI10
Fnan
sI11
Fnan
sI12
Fnan
sI13
Fnan
sI14
Fnan
sssS'g'
p366
(dp367
g3
(dp368
I0
F0.8657359365916252
sI1
Fnan
sI2
Fnan
sI3
Fnan
sI4
Fnan
sI5
Fnan
sI6
Fnan
sI7
Fnan
sI8
Fnan
sI9
Fnan
sI10
Fnan
sI11
Fnan
sI12
Fnan
sI13
Fnan
sI14
Fnan
ssg5
(dp369
I0
S'NoError'
p370
sI1
S'NoError'
p371
sI2
S'NoError'
p372
sI3
S'NoError'
p373
sI4
S'NoError'
p374
sI5
S'NoError'
p375
sI6
S'NoError'
p376
sI7
S'NoError'
p377
sI8
S'NoError'
p378
sI9
S'NoError'
p379
sI10
S'NoError'
p380
sI11
S'NoError'
p381
sI12
S'NoError'
p382
sI13
S'NoError'
p383
sI14
S'NoError'
p384
ssg22
(dp385
I0
F0.003
sI1
F0.003
sI2
F0.003
sI3
F0.003
sI4
F0.003
sI5
F0.003
sI6
F0.003
sI7
F0.003
sI8
F0.003
sI9
F0.003
sI10
F0.003
sI11
F0.003
sI12
F0.003
sI13
F0.003
sI14
F0.003
ssg24
(dp386
I0
F0.8751006420446333
sI1
F0.8749954128895612
sI2
F0.8736079400130702
sI3
F0.8685961827137141
sI4
F0.8801857401126666
sI5
F0.8798792609419158
sI6
F0.8791501934204482
sI7
F0.8771347689295201
sI8
F0.8730412945038395
sI9
F0.8691324824499453
sI10
F0.8791425109533272
sI11
F0.8798346171894273
sI12
F0.8849114972897208
sI13
F0.8776403929195139
sI14
F0.8771293571838298
ssg26
(dp387
I0
F0.004342647866994356
sI1
Fnan
sI2
Fnan
sI3
Fnan
sI4
Fnan
sI5
Fnan
sI6
Fnan
sI7
Fnan
sI8
Fnan
sI9
Fnan
sI10
Fnan
sI11
Fnan
sI12
Fnan
sI13
Fnan
sI14
Fnan
ssg28
(dp388
I0
F0.8766321529036756
sI1
Fnan
sI2
Fnan
sI3
Fnan
sI4
Fnan
sI5
Fnan
sI6
Fnan
sI7
Fnan
sI8
Fnan
sI9
Fnan
sI10
Fnan
sI11
Fnan
sI12
Fnan
sI13
Fnan
sI14
Fnan
ssg30
(dp389
I0
F11.57
sI1
F11.56
sI2
F11.636
sI3
F11.641
sI4
F11.568
sI5
F11.612
sI6
F11.54
sI7
F11.524
sI8
F11.596
sI9
F11.574
sI10
F11.543
sI11
F11.552
sI12
F11.63
sI13
F11.506
sI14
F11.507
ssg32
(dp390
I0
F75.26711
sI1
F60.35793
sI2
F61.88754
sI3
F74.3007
sI4
F61.6461
sI5
F78.15853
sI6
F69.26424
sI7
F67.51989
sI8
F61.53263
sI9
F76.83131
sI10
F74.5985
sI11
F72.55946
sI12
F74.81271
sI13
F73.79341
sI14
F59.89507
ssg34
(dp391
I0
F2458358.718425926
sI1
F2458358.678576389
sI2
F2458358.68005787
sI3
F2458358.6997800926
sI4
F2458358.6808680557
sI5
F2458358.7168171294
sI6
F2458358.698171296
sI7
F2458358.6974305557
sI8
F2458358.67931713
sI9
F2458358.7191666667
sI10
F2458358.717592593
sI11
F2458358.700601852
sI12
F2458358.698935185
sI13
F2458358.7199537037
sI14
F2458358.681608796
ssg36
(dp392
I0
F0.5067196
sI1
Fnan
sI2
Fnan
sI3
Fnan
sI4
Fnan
sI5
Fnan
sI6
Fnan
sI7
Fnan
sI8
Fnan
sI9
Fnan
sI10
Fnan
sI11
Fnan
sI12
Fnan
sI13
Fnan
sI14
Fnan
ssg38
(dp393
I0
F2.6189961999999998
sI1
Fnan
sI2
Fnan
sI3
Fnan
sI4
Fnan
sI5
Fnan
sI6
Fnan
sI7
Fnan
sI8
Fnan
sI9
Fnan
sI10
Fnan
sI11
Fnan
sI12
Fnan
sI13
Fnan
sI14
Fnan
ssg40
(dp394
I0
F0.8688554098504051
sI1
F0.8629762474351275
sI2
F0.8653510797130853
sI3
F0.8625570775466196
sI4
F0.8670040820677277
sI5
F0.873040599846402
sI6
F0.8655088256259058
sI7
F0.8620316379342865
sI8
F0.8668005550074145
sI9
F0.8650579580754897
sI10
F0.8651972275782538
sI11
F0.8658160739843169
sI12
F0.8667219196531687
sI13
F0.8691684949546022
sI14
F0.8672565228563506
ssg42
(dp395
I0
F0.0020691329606438323
sI1
Fnan
sI2
Fnan
sI3
Fnan
sI4
Fnan
sI5
Fnan
sI6
Fnan
sI7
Fnan
sI8
Fnan
sI9
Fnan
sI10
Fnan
sI11
Fnan
sI12
Fnan
sI13
Fnan
sI14
Fnan
ssg44
(dp396
I0
F2.3262112333333334
sI1
Fnan
sI2
Fnan
sI3
Fnan
sI4
Fnan
sI5
Fnan
sI6
Fnan
sI7
Fnan
sI8
Fnan
sI9
Fnan
sI10
Fnan
sI11
Fnan
sI12
Fnan
sI13
Fnan
sI14
Fnan
ssg46
(dp397
I0
g370
sI1
g371
sI2
g372
sI3
g373
sI4
g374
sI5
g375
sI6
g376
sI7
g377
sI8
g378
sI9
g379
sI10
g380
sI11
g381
sI12
g382
sI13
g383
sI14
g384
ssg48
(dp398
I0
F0.004242351781873818
sI1
Fnan
sI2
Fnan
sI3
Fnan
sI4
Fnan
sI5
Fnan
sI6
Fnan
sI7
Fnan
sI8
Fnan
sI9
Fnan
sI10
Fnan
sI11
Fnan
sI12
Fnan
sI13
Fnan
sI14
Fnan
ssg50
(dp399
I0
F0.04532338826488516
sI1
Fnan
sI2
Fnan
sI3
Fnan
sI4
Fnan
sI5
Fnan
sI6
Fnan
sI7
Fnan
sI8
Fnan
sI9
Fnan
sI10
Fnan
sI11
Fnan
sI12
Fnan
sI13
Fnan
sI14
Fnan
ssg52
(dp400
I0
F2.315616733333333
sI1
Fnan
sI2
Fnan
sI3
Fnan
sI4
Fnan
sI5
Fnan
sI6
Fnan
sI7
Fnan
sI8
Fnan
sI9
Fnan
sI10
Fnan
sI11
Fnan
sI12
Fnan
sI13
Fnan
sI14
Fnan
ssg54
(dp401
I0
F1.5235501918108016
sI1
F1.5214690211049096
sI2
F1.520578165770492
sI3
F1.5195699045131548
sI4
F1.5233895161105642
sI5
F1.5127743228404265
sI6
F1.5178500277132867
sI7
F1.5218865491004294
sI8
F1.516762721724159
sI9
F1.5182800570637953
sI10
F1.5082723853030986
sI11
F1.510129084085058
sI12
F1.5194986902814496
sI13
F1.512995495233737
sI14
F1.5117746503516802
ssg56
(dp402
I0
g370
sI1
g371
sI2
g372
sI3
g373
sI4
g374
sI5
g375
sI6
g376
sI7
g377
sI8
g378
sI9
g379
sI10
g380
sI11
g381
sI12
g382
sI13
g383
sI14
g384
ssg58
(dp403
I0
F76.15183
sI1
F61.15269
sI2
F63.85757
sI3
F75.38831
sI4
F61.50444
sI5
F78.36948
sI6
F71.45076
sI7
F69.04618
sI8
F63.55219
sI9
F75.96699
sI10
F74.99185
sI11
F71.50177
sI12
F73.19115
sI13
F73.57602
sI14
F60.16949
ssg60
(dp404
I0
F11.134533333333334
sI1
Fnan
sI2
Fnan
sI3
Fnan
sI4
Fnan
sI5
Fnan
sI6
Fnan
sI7
Fnan
sI8
Fnan
sI9
Fnan
sI10
Fnan
sI11
Fnan
sI12
Fnan
sI13
Fnan
sI14
Fnan
ssg62
(dp405
I0
F0.7169756146174718
sI1
Fnan
sI2
Fnan
sI3
Fnan
sI4
Fnan
sI5
Fnan
sI6
Fnan
sI7
Fnan
sI8
Fnan
sI9
Fnan
sI10
Fnan
sI11
Fnan
sI12
Fnan
sI13
Fnan
sI14
Fnan
ssg64
(dp406
I0
F-1.256398
sI1
F5.464898
sI2
F2.475902
sI3
F4.85763
sI4
F-4.169582
sI5
F-3.628745
sI6
F3.676517
sI7
F2.098305
sI8
F3.074622
sI9
F5.952487
sI10
F7.020921
sI11
F2.752904
sI12
F3.057115
sI13
F4.503993
sI14
F3.404374
ssg66
(dp407
I0
F11.51193333333333
sI1
Fnan
sI2
Fnan
sI3
Fnan
sI4
Fnan
sI5
Fnan
sI6
Fnan
sI7
Fnan
sI8
Fnan
sI9
Fnan
sI10
Fnan
sI11
Fnan
sI12
Fnan
sI13
Fnan
sI14
Fnan
ssg68
(dp408
I0
g370
sI1
g371
sI2
g372
sI3
g373
sI4
g374
sI5
g375
sI6
g376
sI7
g377
sI8
g378
sI9
g379
sI10
g380
sI11
g381
sI12
g382
sI13
g383
sI14
g384
ssg70
(dp409
I0
F6217.053333333333
sI1
F6318.623333333334
sI2
F5866.293333333333
sI3
F5837.46
sI4
F6269.12
sI5
F5976.676666666666
sI6
F6434.223333333333
sI7
F6546.009999999999
sI8
F6074.47
sI9
F6194.509999999999
sI10
F6423.683333333333
sI11
F6365.543333333333
sI12
F5945.056666666667
sI13
F6606.806666666667
sI14
F6608.346666666666
ssg72
(dp410
I0
F1.004683
sI1
F1.024348
sI2
F1.022969
sI3
F1.009395
sI4
F1.022231
sI5
F1.004785
sI6
F1.010166
sI7
F1.010542
sI8
F1.023649
sI9
F1.004656
sI10
F1.004729
sI11
F1.009021
sI12
F1.009792
sI13
F1.00464
sI14
F1.021576
ssg74
(dp411
I0
F5376.836666666667
sI1
F5472.63
sI2
F5095.73
sI3
F5117.626666666666
sI4
F5375.413333333333
sI5
F5160.9
sI6
F5545.59
sI7
F5647.4
sI8
F5294.009999999999
sI9
F5429.906666666667
sI10
F5569.23
sI11
F5506.046666666666
sI12
F5068.759999999999
sI13
F5726.056666666667
sI14
F5736.676666666666
ssg76
(dp412
I0
F8831.936666666666
sI1
F8970.013333333334
sI2
F8334.306666666667
sI3
F8323.51
sI4
F8869.58
sI5
F8424.32
sI6
F9091.78
sI7
F9278.493333333334
sI8
F8621.643333333333
sI9
F8824.56
sI10
F9044.29
sI11
F8963.816666666668
sI12
F8367.74
sI13
F9329.783333333333
sI14
F9331.446666666667
ssg78
(dp413
I0
F75.11445
sI1
F60.05157
sI2
F62.93629
sI3
F72.77208
sI4
F61.3862
sI5
F77.77467
sI6
F68.51836
sI7
F67.78935
sI8
F60.8379
sI9
F73.72444
sI10
F73.32271
sI11
F70.4772
sI12
F73.41449
sI13
F72.56615
sI14
F61.08014
ssg80
(dp414
I0
F11.674
sI1
F11.655
sI2
F11.732
sI3
F11.727
sI4
F11.674
sI5
F11.718
sI6
F11.64
sI7
F11.62
sI8
F11.691
sI9
F11.663
sI10
F11.636
sI11
F11.648
sI12
F11.738
sI13
F11.605
sI14
F11.603
ssg82
(dp415
I0
F0.002
sI1
F0.002
sI2
F0.002
sI3
F0.002
sI4
F0.002
sI5
F0.002
sI6
F0.002
sI7
F0.002
sI8
F0.002
sI9
F0.002
sI10
F0.002
sI11
F0.002
sI12
F0.002
sI13
F0.002
sI14
F0.002
ssg84
(dp416
I0
F0.8662229141419436
sI1
Fnan
sI2
Fnan
sI3
Fnan
sI4
Fnan
sI5
Fnan
sI6
Fnan
sI7
Fnan
sI8
Fnan
sI9
Fnan
sI10
Fnan
sI11
Fnan
sI12
Fnan
sI13
Fnan
sI14
Fnan
ssg86
(dp417
I0
F11.668266666666666
sI1
Fnan
sI2
Fnan
sI3
Fnan
sI4
Fnan
sI5
Fnan
sI6
Fnan
sI7
Fnan
sI8
Fnan
sI9
Fnan
sI10
Fnan
sI11
Fnan
sI12
Fnan
sI13
Fnan
sI14
Fnan
ssg88
(dp418
I0
F11.516
sI1
F11.498
sI2
F11.579
sI3
F11.584
sI4
F11.507
sI5
F11.559
sI6
F11.479
sI7
F11.46
sI8
F11.541
sI9
F11.52
sI10
F11.481
sI11
F11.49
sI12
F11.565
sI13
F11.45
sI14
F11.45
ssg90
(dp419
I0
F5.92239
sI1
F4.595818
sI2
F6.29486
sI3
F2.623919
sI4
F-2.244453
sI5
F6.417247
sI6
F-3.313598
sI7
F-3.048083
sI8
F-3.00728
sI9
F-3.282459
sI10
F-5.050531
sI11
F4.57852
sI12
F5.954787
sI13
F-4.34044
sI14
F-4.499903
ssg92
(dp420
I0
F0.04398841838917336
sI1
Fnan
sI2
Fnan
sI3
Fnan
sI4
Fnan
sI5
Fnan
sI6
Fnan
sI7
Fnan
sI8
Fnan
sI9
Fnan
sI10
Fnan
sI11
Fnan
sI12
Fnan
sI13
Fnan
sI14
Fnan
ssg94
(dp421
I0
F0.7145777446415563
sI1
F0.7159081766828566
sI2
F0.7176781262763544
sI3
F0.7227791128244274
sI4
F0.7101552092760056
sI5
F0.7167420588250952
sI6
F0.7143615624626299
sI7
F0.7137538387197406
sI8
F0.7204639594051396
sI9
F0.7230682947301886
sI10
F0.7200982158403858
sI11
F0.7183661505329206
sI12
F0.708283659447874
sI13
F0.7186050047929535
sI14
F0.7197931048039519
ssg96
(dp422
I0
F30.0
sI1
F30.0
sI2
F30.0
sI3
F30.0
sI4
F30.0
sI5
F30.0
sI6
F30.0
sI7
F30.0
sI8
F30.0
sI9
F30.0
sI10
F30.0
sI11
F30.0
sI12
F30.0
sI13
F30.0
sI14
F30.0
ssg98
(dp423
I0
F0.003
sI1
F0.003
sI2
F0.003
sI3
F0.003
sI4
F0.003
sI5
F0.003
sI6
F0.003
sI7
F0.003
sI8
F0.003
sI9
F0.003
sI10
F0.003
sI11
F0.003
sI12
F0.003
sI13
F0.003
sI14
F0.003
ssg100
(dp424
I0
F0.003
sI1
F0.003
sI2
F0.003
sI3
F0.003
sI4
F0.003
sI5
F0.003
sI6
F0.003
sI7
F0.002
sI8
F0.003
sI9
F0.003
sI10
F0.003
sI11
F0.003
sI12
F0.003
sI13
F0.002
sI14
F0.002
ssg102
(dp425
I0
F5.072194
sI1
F1.407838
sI2
F-2.909053
sI3
F2.559766
sI4
F4.718349
sI5
F4.095087
sI6
F-4.305435
sI7
F5.139293
sI8
F-4.008698
sI9
F5.890641
sI10
F5.332357
sI11
F3.079607
sI12
F6.558347
sI13
F4.580385
sI14
F-2.476427
ssg104
(dp426
I0
S"KIC8462852-20180828at051432_-25-1X1-030-g'_cal.fts.mag.1"
p427
sI1
S"KIC8462852-20180828at041659_-25-1X1-030-g'_cal.fts.mag.1"
p428
sI2
S"KIC8462852-20180828at041917_-25-1X1-030-g'_cal.fts.mag.1"
p429
sI3
S"KIC8462852-20180828at044741_-25-1X1-030-g'_cal.fts.mag.1"
p430
sI4
S"KIC8462852-20180828at042027_-25-1X1-030-g'_cal.fts.mag.1"
p431
sI5
S"KIC8462852-20180828at051208_-25-1X1-030-g'_cal.fts.mag.1"
p432
sI6
S"KIC8462852-20180828at044522_-25-1X1-030-g'_cal.fts.mag.1"
p433
sI7
S"KIC8462852-20180828at044413_-25-1X1-030-g'_cal.fts.mag.1"
p434
sI8
S"KIC8462852-20180828at041813_-25-1X1-030-g'_cal.fts.mag.1"
p435
sI9
S"KIC8462852-20180828at051536_-25-1X1-030-g'_cal.fts.mag.1"
p436
sI10
S"KIC8462852-20180828at051320_-25-1X1-030-g'_cal.fts.mag.1"
p437
sI11
S"KIC8462852-20180828at044852_-25-1X1-030-g'_cal.fts.mag.1"
p438
sI12
S"KIC8462852-20180828at044628_-25-1X1-030-g'_cal.fts.mag.1"
p439
sI13
S"KIC8462852-20180828at051644_-25-1X1-030-g'_cal.fts.mag.1"
p440
sI14
S"KIC8462852-20180828at042130_-25-1X1-030-g'_cal.fts.mag.1"
p441
ssg121
(dp442
I0
F0.004922792771396374
sI1
Fnan
sI2
Fnan
sI3
Fnan
sI4
Fnan
sI5
Fnan
sI6
Fnan
sI7
Fnan
sI8
Fnan
sI9
Fnan
sI10
Fnan
sI11
Fnan
sI12
Fnan
sI13
Fnan
sI14
Fnan
ssg123
(dp443
I0
F5915.696666666667
sI1
F5972.16
sI2
F5566.033333333334
sI3
F5542.963333333333
sI4
F5928.6066666666675
sI5
F5692.776666666667
sI6
F6079.216666666666
sI7
F6169.820000000001
sI8
F5775.816666666667
sI9
F5896.516666666666
sI10
F6067.11
sI11
F6013.21
sI12
F5599.473333333333
sI13
F6276.163333333333
sI14
F6266.3533333333335
ssg125
(dp444
I0
F0.04510062822917954
sI1
Fnan
sI2
Fnan
sI3
Fnan
sI4
Fnan
sI5
Fnan
sI6
Fnan
sI7
Fnan
sI8
Fnan
sI9
Fnan
sI10
Fnan
sI11
Fnan
sI12
Fnan
sI13
Fnan
sI14
Fnan
ssg127
(dp445
I0
S"g'"
p446
sI1
S"g'"
p447
sI2
S"g'"
p448
sI3
S"g'"
p449
sI4
S"g'"
p450
sI5
S"g'"
p451
sI6
S"g'"
p452
sI7
S"g'"
p453
sI8
S"g'"
p454
sI9
S"g'"
p455
sI10
S"g'"
p456
sI11
S"g'"
p457
sI12
S"g'"
p458
sI13
S"g'"
p459
sI14
S"g'"
p460
ssg144
(dp461
I0
F0.0027997353850917925
sI1
Fnan
sI2
Fnan
sI3
Fnan
sI4
Fnan
sI5
Fnan
sI6
Fnan
sI7
Fnan
sI8
Fnan
sI9
Fnan
sI10
Fnan
sI11
Fnan
sI12
Fnan
sI13
Fnan
sI14
Fnan
ssg146
(dp462
I0
F3.967555
sI1
F4.53582
sI2
F4.51432
sI3
F-0.8980425
sI4
F-2.065007
sI5
F-3.409367
sI6
F-3.833933
sI7
F6.330583
sI8
F2.747563
sI9
F4.140882
sI10
F4.788851
sI11
F2.679977
sI12
F3.519406
sI13
F3.750137
sI14
F4.124424
ssg148
(dp463
I0
F1.5172520522004693
sI1
Fnan
sI2
Fnan
sI3
Fnan
sI4
Fnan
sI5
Fnan
sI6
Fnan
sI7
Fnan
sI8
Fnan
sI9
Fnan
sI10
Fnan
sI11
Fnan
sI12
Fnan
sI13
Fnan
sI14
Fnan
ssg150
(dp464
I0
F2458358.698935185
sI1
Fnan
sI2
Fnan
sI3
Fnan
sI4
Fnan
sI5
Fnan
sI6
Fnan
sI7
Fnan
sI8
Fnan
sI9
Fnan
sI10
Fnan
sI11
Fnan
sI12
Fnan
sI13
Fnan
sI14
Fnan
ssg152
(dp465
I0
F0.0027997353850917925
sI1
Fnan
sI2
Fnan
sI3
Fnan
sI4
Fnan
sI5
Fnan
sI6
Fnan
sI7
Fnan
sI8
Fnan
sI9
Fnan
sI10
Fnan
sI11
Fnan
sI12
Fnan
sI13
Fnan
sI14
Fnan
ssg154
(dp466
I0
F78.0658
sI1
F62.39163
sI2
F67.24488
sI3
F77.48993
sI4
F64.26103
sI5
F81.34045
sI6
F72.72767
sI7
F71.2871
sI8
F63.92944
sI9
F79.01012
sI10
F78.3179
sI11
F76.08253
sI12
F77.4768
sI13
F75.82906
sI14
F63.27926
ssg156
(dp467
I0
F11.135
sI1
F11.118
sI2
F11.198
sI3
F11.199
sI4
F11.13
sI5
F11.186
sI6
F11.103
sI7
F11.081
sI8
F11.161
sI9
F11.136
sI10
F11.109
sI11
F11.119
sI12
F11.193
sI13
F11.075
sI14
F11.075
ssg158
(dp468
I0
F0.8662229141419436
sI1
Fnan
sI2
Fnan
sI3
Fnan
sI4
Fnan
sI5
Fnan
sI6
Fnan
sI7
Fnan
sI8
Fnan
sI9
Fnan
sI10
Fnan
sI11
Fnan
sI12
Fnan
sI13
Fnan
sI14
Fnan
sssS'V'
p469
(dp470
g3
(dp471
I0
F0.6921980772773167
sI1
Fnan
sI2
Fnan
sI3
Fnan
sI4
Fnan
sI5
Fnan
sI6
Fnan
sI7
Fnan
sI8
Fnan
sI9
Fnan
sI10
Fnan
sI11
Fnan
sI12
Fnan
sI13
Fnan
sI14
Fnan
ssg5
(dp472
I0
S'NoError'
p473
sI1
S'NoError'
p474
sI2
S'NoError'
p475
sI3
S'NoError'
p476
sI4
S'NoError'
p477
sI5
S'NoError'
p478
sI6
S'NoError'
p479
sI7
S'NoError'
p480
sI8
S'NoError'
p481
sI9
S'NoError'
p482
sI10
S'NoError'
p483
sI11
S'NoError'
p484
sI12
S'NoError'
p485
sI13
S'NoError'
p486
sI14
S'NoError'
p487
ssg22
(dp488
I0
F0.003
sI1
F0.003
sI2
F0.003
sI3
F0.003
sI4
F0.003
sI5
F0.003
sI6
F0.003
sI7
F0.003
sI8
F0.003
sI9
F0.003
sI10
F0.003
sI11
F0.003
sI12
F0.003
sI13
F0.003
sI14
F0.003
ssg24
(dp489
I0
F0.890750567232017
sI1
F0.8824617443332723
sI2
F0.8840191156248012
sI3
F0.8791473244630692
sI4
F0.8827735837852186
sI5
F0.8854826041286983
sI6
F0.8819733381494734
sI7
F0.8843113089698769
sI8
F0.8831683570225287
sI9
F0.8867950376051651
sI10
F0.8901952030947077
sI11
F0.8932546086521895
sI12
F0.8866742133962259
sI13
F0.8837122692250382
sI14
F0.8841637274394428
ssg26
(dp490
I0
F0.0037360570389026876
sI1
Fnan
sI2
Fnan
sI3
Fnan
sI4
Fnan
sI5
Fnan
sI6
Fnan
sI7
Fnan
sI8
Fnan
sI9
Fnan
sI10
Fnan
sI11
Fnan
sI12
Fnan
sI13
Fnan
sI14
Fnan
ssg28
(dp491
I0
F0.8852588668747816
sI1
Fnan
sI2
Fnan
sI3
Fnan
sI4
Fnan
sI5
Fnan
sI6
Fnan
sI7
Fnan
sI8
Fnan
sI9
Fnan
sI10
Fnan
sI11
Fnan
sI12
Fnan
sI13
Fnan
sI14
Fnan
ssg30
(dp492
I0
F11.537
sI1
F11.729
sI2
F11.561
sI3
F11.579
sI4
F11.571
sI5
F11.516
sI6
F11.569
sI7
F11.636
sI8
F11.512
sI9
F11.575
sI10
F11.783
sI11
F11.54
sI12
F11.542
sI13
F11.536
sI14
F11.642
ssg32
(dp493
I0
F64.03416
sI1
F71.38055
sI2
F61.3067
sI3
F66.37209
sI4
F60.79882
sI5
F62.97082
sI6
F65.0296
sI7
F68.35303
sI8
F58.21595
sI9
F60.33471
sI10
F72.0761
sI11
F64.03014
sI12
F60.30699
sI13
F63.85993
sI14
F67.7645
ssg34
(dp494
I0
F2458358.733425926
sI1
F2458358.7134953705
sI2
F2458358.6965509257
sI3
F2458358.731921296
sI4
F2458358.6942824074
sI5
F2458358.735011574
sI6
F2458358.7158449073
sI7
F2458358.7142476854
sI8
F2458358.6935300925
sI9
F2458358.6950347223
sI10
F2458358.7127546296
sI11
F2458358.732673611
sI12
F2458358.6957870373
sI13
F2458358.7342476854
sI14
F2458358.715011574
ssg36
(dp495
I0
F1.3585243333333337
sI1
Fnan
sI2
Fnan
sI3
Fnan
sI4
Fnan
sI5
Fnan
sI6
Fnan
sI7
Fnan
sI8
Fnan
sI9
Fnan
sI10
Fnan
sI11
Fnan
sI12
Fnan
sI13
Fnan
sI14
Fnan
ssg38
(dp496
I0
F0.2576237333333333
sI1
Fnan
sI2
Fnan
sI3
Fnan
sI4
Fnan
sI5
Fnan
sI6
Fnan
sI7
Fnan
sI8
Fnan
sI9
Fnan
sI10
Fnan
sI11
Fnan
sI12
Fnan
sI13
Fnan
sI14
Fnan
ssg40
(dp497
I0
F0.691560353435901
sI1
F0.6862900858195462
sI2
F0.6912370078831397
sI3
F0.6927892304200488
sI4
F0.6914790474836369
sI5
F0.690796995844182
sI6
F0.6959911388552814
sI7
F0.6931718145820323
sI8
F0.6937556571592017
sI9
F0.6926621120253512
sI10
F0.6856910293241998
sI11
F0.6923979603451023
sI12
F0.6927122616772126
sI13
F0.6916164091946755
sI14
F0.6854670247687258
ssg42
(dp498
I0
F0.0008734500773395006
sI1
Fnan
sI2
Fnan
sI3
Fnan
sI4
Fnan
sI5
Fnan
sI6
Fnan
sI7
Fnan
sI8
Fnan
sI9
Fnan
sI10
Fnan
sI11
Fnan
sI12
Fnan
sI13
Fnan
sI14
Fnan
ssg44
(dp499
I0
F-0.13925826666666669
sI1
Fnan
sI2
Fnan
sI3
Fnan
sI4
Fnan
sI5
Fnan
sI6
Fnan
sI7
Fnan
sI8
Fnan
sI9
Fnan
sI10
Fnan
sI11
Fnan
sI12
Fnan
sI13
Fnan
sI14
Fnan
ssg46
(dp500
I0
g473
sI1
g474
sI2
g475
sI3
g476
sI4
g477
sI5
g478
sI6
g479
sI7
g480
sI8
g481
sI9
g482
sI10
g483
sI11
g484
sI12
g485
sI13
g486
sI14
g487
ssg48
(dp501
I0
F0.004178967125553328
sI1
Fnan
sI2
Fnan
sI3
Fnan
sI4
Fnan
sI5
Fnan
sI6
Fnan
sI7
Fnan
sI8
Fnan
sI9
Fnan
sI10
Fnan
sI11
Fnan
sI12
Fnan
sI13
Fnan
sI14
Fnan
ssg50
(dp502
I0
F0.0745853298482445
sI1
Fnan
sI2
Fnan
sI3
Fnan
sI4
Fnan
sI5
Fnan
sI6
Fnan
sI7
Fnan
sI8
Fnan
sI9
Fnan
sI10
Fnan
sI11
Fnan
sI12
Fnan
sI13
Fnan
sI14
Fnan
ssg52
(dp503
I0
F2.4911293999999997
sI1
Fnan
sI2
Fnan
sI3
Fnan
sI4
Fnan
sI5
Fnan
sI6
Fnan
sI7
Fnan
sI8
Fnan
sI9
Fnan
sI10
Fnan
sI11
Fnan
sI12
Fnan
sI13
Fnan
sI14
Fnan
ssg54
(dp504
I0
F1.4976100263662728
sI1
F1.496716433325952
sI2
F1.513792404586852
sI3
F1.5077245357006521
sI4
F1.5127701124105901
sI5
F1.4990682683957073
sI6
F1.494837140829329
sI7
F1.5035286621053259
sI8
F1.505375683067502
sI9
F1.502890935750979
sI10
F1.5077755199157714
sI11
F1.500495376924732
sI12
F1.500537640137167
sI13
F1.5035129177426216
sI14
F1.5029967911490079
ssg56
(dp505
I0
g473
sI1
g474
sI2
g475
sI3
g476
sI4
g477
sI5
g478
sI6
g479
sI7
g480
sI8
g481
sI9
g482
sI10
g483
sI11
g484
sI12
g485
sI13
g486
sI14
g487
ssg58
(dp506
I0
F66.57401
sI1
F74.01603
sI2
F62.6363
sI3
F67.76765
sI4
F61.71773
sI5
F64.54017
sI6
F67.08109
sI7
F69.92484
sI8
F58.87229
sI9
F62.0492
sI10
F74.87064
sI11
F64.9007
sI12
F61.37255
sI13
F65.61259
sI14
F68.78955
ssg60
(dp507
I0
F10.913066666666667
sI1
Fnan
sI2
Fnan
sI3
Fnan
sI4
Fnan
sI5
Fnan
sI6
Fnan
sI7
Fnan
sI8
Fnan
sI9
Fnan
sI10
Fnan
sI11
Fnan
sI12
Fnan
sI13
Fnan
sI14
Fnan
ssg62
(dp508
I0
F0.7176556550415195
sI1
Fnan
sI2
Fnan
sI3
Fnan
sI4
Fnan
sI5
Fnan
sI6
Fnan
sI7
Fnan
sI8
Fnan
sI9
Fnan
sI10
Fnan
sI11
Fnan
sI12
Fnan
sI13
Fnan
sI14
Fnan
ssg64
(dp509
I0
F-5.355873
sI1
F-3.636573
sI2
F-4.908757
sI3
F-3.172563
sI4
F-2.899301
sI5
F4.901121
sI6
F4.105001
sI7
F4.595572
sI8
F1.397327
sI9
F-5.049517
sI10
F4.144144
sI11
F4.07891
sI12
F3.884943
sI13
F-3.177754
sI14
F4.957676
ssg66
(dp510
I0
F11.277400000000002
sI1
Fnan
sI2
Fnan
sI3
Fnan
sI4
Fnan
sI5
Fnan
sI6
Fnan
sI7
Fnan
sI8
Fnan
sI9
Fnan
sI10
Fnan
sI11
Fnan
sI12
Fnan
sI13
Fnan
sI14
Fnan
ssg68
(dp511
I0
g473
sI1
g474
sI2
g475
sI3
g476
sI4
g477
sI5
g478
sI6
g479
sI7
g480
sI8
g481
sI9
g482
sI10
g483
sI11
g484
sI12
g485
sI13
g486
sI14
g487
ssg70
(dp512
I0
F8152.713333333333
sI1
F6840.756666666667
sI2
F7936.1033333333335
sI3
F7758.136666666667
sI4
F7854.0233333333335
sI5
F8288.056666666667
sI6
F7813.490000000001
sI7
F7383.46
sI8
F8267.583333333334
sI9
F7832.673333333334
sI10
F6553.836666666667
sI11
F8137.503333333333
sI12
F8072.95
sI13
F8115.216666666666
sI14
F7427.206666666667
ssg72
(dp513
I0
F1.006497
sI1
F1.005176
sI2
F1.011005
sI3
F1.006092
sI4
F1.012273
sI5
F1.00698
sI6
F1.004874
sI7
F1.005066
sI8
F1.012723
sI9
F1.011837
sI10
F1.005298
sI11
F1.0062879999999998
sI12
F1.011416
sI13
F1.006746
sI14
F1.004968
ssg74
(dp514
I0
F6976.463333333333
sI1
F5939.553333333333
sI2
F6800.509999999999
sI3
F6728.386666666667
sI4
F6748.693333333333
sI5
F7149.15
sI6
F6797.6
sI7
F6363.96
sI8
F7131.7
sI9
F6725.473333333333
sI10
F5578.256666666667
sI11
F6921.736666666667
sI12
F6943.29
sI13
F7001.846666666666
sI14
F6405.366666666667
ssg76
(dp515
I0
F11328.803333333333
sI1
F9564.25
sI2
F11154.086666666666
sI3
F10920.843333333332
sI4
F11045.276666666667
sI5
F11570.713333333335
sI6
F10920.6
sI7
F10334.82
sI8
F11590.853333333333
sI9
F10939.653333333332
sI10
F9146.236666666666
sI11
F11298.16
sI12
F11266.216666666667
sI13
F11364.35
sI14
F10395.156666666668
ssg78
(dp516
I0
F66.35371
sI1
F72.28622
sI2
F62.60449
sI3
F66.242
sI4
F60.5171
sI5
F63.29564
sI6
F65.58
sI7
F68.07072
sI8
F58.50223
sI9
F62.25182
sI10
F75.30901
sI11
F64.71636
sI12
F60.75672
sI13
F64.80585
sI14
F67.98908
ssg80
(dp517
I0
F11.391
sI1
F11.566
sI2
F11.419
sI3
F11.43
sI4
F11.427
sI5
F11.364
sI6
F11.419
sI7
F11.491
sI8
F11.367
sI9
F11.431
sI10
F11.634
sI11
F11.399
sI12
F11.396
sI13
F11.387
sI14
F11.484
ssg82
(dp518
I0
F0.002
sI1
F0.002
sI2
F0.002
sI3
F0.002
sI4
F0.002
sI5
F0.002
sI6
F0.002
sI7
F0.002
sI8
F0.002
sI9
F0.002
sI10
F0.002
sI11
F0.002
sI12
F0.002
sI13
F0.002
sI14
F0.002
ssg84
(dp519
I0
F0.691174541921216
sI1
Fnan
sI2
Fnan
sI3
Fnan
sI4
Fnan
sI5
Fnan
sI6
Fnan
sI7
Fnan
sI8
Fnan
sI9
Fnan
sI10
Fnan
sI11
Fnan
sI12
Fnan
sI13
Fnan
sI14
Fnan
ssg86
(dp520
I0
F11.440333333333333
sI1
Fnan
sI2
Fnan
sI3
Fnan
sI4
Fnan
sI5
Fnan
sI6
Fnan
sI7
Fnan
sI8
Fnan
sI9
Fnan
sI10
Fnan
sI11
Fnan
sI12
Fnan
sI13
Fnan
sI14
Fnan
ssg88
(dp521
I0
F11.222
sI1
F11.412
sI2
F11.251
sI3
F11.276
sI4
F11.262
sI5
F11.204
sI6
F11.268
sI7
F11.329
sI8
F11.207
sI9
F11.265
sI10
F11.459
sI11
F11.224
sI12
F11.232
sI13
F11.227
sI14
F11.323
ssg90
(dp522
I0
F-5.419197
sI1
F4.339731
sI2
F2.738733
sI3
F4.453482
sI4
F-4.395627
sI5
F-4.682372
sI6
F2.937168
sI7
F6.924928
sI8
F2.230942
sI9
F5.293957
sI10
F7.209713
sI11
F5.095134
sI12
F-1.440089
sI13
F-1.604771
sI14
F-3.303867
ssg92
(dp523
I0
F0.07450452207432637
sI1
Fnan
sI2
Fnan
sI3
Fnan
sI4
Fnan
sI5
Fnan
sI6
Fnan
sI7
Fnan
sI8
Fnan
sI9
Fnan
sI10
Fnan
sI11
Fnan
sI12
Fnan
sI13
Fnan
sI14
Fnan
ssg94
(dp524
I0
F0.7162135733785272
sI1
F0.7241147113218688
sI2
F0.7124612169915543
sI3
F0.7204233493120789
sI4
F0.7141738935657228
sI5
F0.7199992748795618
sI6
F0.725693108125348
sI7
F0.7183496366464466
sI8
F0.7182539209615526
sI9
F0.7165306094183317
sI10
F0.7106026256352943
sI11
F0.7122717190511806
sI12
F0.7180547248674968
sI13
F0.7188914195558765
sI14
F0.7188010419119499
ssg96
(dp525
I0
F30.0
sI1
F30.0
sI2
F30.0
sI3
F30.0
sI4
F30.0
sI5
F30.0
sI6
F30.0
sI7
F30.0
sI8
F30.0
sI9
F30.0
sI10
F30.0
sI11
F30.0
sI12
F30.0
sI13
F30.0
sI14
F30.0
ssg98
(dp526
I0
F0.002
sI1
F0.003
sI2
F0.002
sI3
F0.002
sI4
F0.002
sI5
F0.002
sI6
F0.002
sI7
F0.003
sI8
F0.002
sI9
F0.002
sI10
F0.003
sI11
F0.002
sI12
F0.002
sI13
F0.002
sI14
F0.003
ssg100
(dp527
I0
F0.002
sI1
F0.003
sI2
F0.002
sI3
F0.002
sI4
F0.002
sI5
F0.002
sI6
F0.002
sI7
F0.002
sI8
F0.002
sI9
F0.002
sI10
F0.003
sI11
F0.002
sI12
F0.002
sI13
F0.002
sI14
F0.002
ssg102
(dp528
I0
F4.947207
sI1
F5.743971
sI2
F4.515058
sI3
F2.914038
sI4
F3.232378
sI5
F-5.537683
sI6
F-3.148784
sI7
F3.75894
sI8
F3.051744
sI9
F4.02221
sI10
F7.019357
sI11
F-2.105786
sI12
F5.169607
sI13
F-3.161064
sI14
F6.945748
ssg104
(dp529
I0
S'KIC8462852-20180828at053607_-25-1X1-030-V_cal.fts.mag.1'
p530
sI1
S'KIC8462852-20180828at050726_-25-1X1-030-V_cal.fts.mag.1'
p531
sI2
S'KIC8462852-20180828at044302_-25-1X1-030-V_cal.fts.mag.1'
p532
sI3
S'KIC8462852-20180828at053351_-25-1X1-030-V_cal.fts.mag.1'
p533
sI4
S'KIC8462852-20180828at043946_-25-1X1-030-V_cal.fts.mag.1'
p534
sI5
S'KIC8462852-20180828at053825_-25-1X1-030-V_cal.fts.mag.1'
p535
sI6
S'KIC8462852-20180828at051049_-25-1X1-030-V_cal.fts.mag.1'
p536
sI7
S'KIC8462852-20180828at050831_-25-1X1-030-V_cal.fts.mag.1'
p537
sI8
S'KIC8462852-20180828at043834_-25-1X1-030-V_cal.fts.mag.1'
p538
sI9
S'KIC8462852-20180828at044051_-25-1X1-030-V_cal.fts.mag.1'
p539
sI10
S'KIC8462852-20180828at050615_-25-1X1-030-V_cal.fts.mag.1'
p540
sI11
S'KIC8462852-20180828at053503_-25-1X1-030-V_cal.fts.mag.1'
p541
sI12
S'KIC8462852-20180828at044156_-25-1X1-030-V_cal.fts.mag.1'
p542
sI13
S'KIC8462852-20180828at053719_-25-1X1-030-V_cal.fts.mag.1'
p543
sI14
S'KIC8462852-20180828at050937_-25-1X1-030-V_cal.fts.mag.1'
p544
ssg121
(dp545
I0
F0.005508355914763002
sI1
Fnan
sI2
Fnan
sI3
Fnan
sI4
Fnan
sI5
Fnan
sI6
Fnan
sI7
Fnan
sI8
Fnan
sI9
Fnan
sI10
Fnan
sI11
Fnan
sI12
Fnan
sI13
Fnan
sI14
Fnan
ssg123
(dp546
I0
F6099.096666666666
sI1
F5111.616666666667
sI2
F5965.536666666667
sI3
F5867.316666666667
sI4
F5911.683333333333
sI5
F6218.996666666667
sI6
F5923.276666666667
sI7
F5564.376666666666
sI8
F6241.52
sI9
F5887.12
sI10
F4863.453333333334
sI11
F6083.27
sI12
F6068.7266666666665
sI13
F6104.993333333333
sI14
F5535.77
ssg125
(dp547
I0
F0.07521936174252199
sI1
Fnan
sI2
Fnan
sI3
Fnan
sI4
Fnan
sI5
Fnan
sI6
Fnan
sI7
Fnan
sI8
Fnan
sI9
Fnan
sI10
Fnan
sI11
Fnan
sI12
Fnan
sI13
Fnan
sI14
Fnan
ssg127
(dp548
I0
g469
sI1
g469
sI2
g469
sI3
g469
sI4
g469
sI5
g469
sI6
g469
sI7
g469
sI8
g469
sI9
g469
sI10
g469
sI11
g469
sI12
g469
sI13
g469
sI14
g469
ssg144
(dp549
I0
F0.003042767961820193
sI1
Fnan
sI2
Fnan
sI3
Fnan
sI4
Fnan
sI5
Fnan
sI6
Fnan
sI7
Fnan
sI8
Fnan
sI9
Fnan
sI10
Fnan
sI11
Fnan
sI12
Fnan
sI13
Fnan
sI14
Fnan
ssg146
(dp550
I0
F2.540107
sI1
F4.937452
sI2
F-5.702871
sI3
F-3.662676
sI4
F-1.663199
sI5
F3.598554
sI6
F4.617824
sI7
F-2.810464
sI8
F4.631004
sI9
F-2.45322
sI10
F-4.531905
sI11
F-4.444993
sI12
F3.448566
sI13
F3.658163
sI14
F-4.251216
ssg148
(dp551
I0
F1.5033088298938977
sI1
Fnan
sI2
Fnan
sI3
Fnan
sI4
Fnan
sI5
Fnan
sI6
Fnan
sI7
Fnan
sI8
Fnan
sI9
Fnan
sI10
Fnan
sI11
Fnan
sI12
Fnan
sI13
Fnan
sI14
Fnan
ssg150
(dp552
I0
F2458358.7142476854
sI1
Fnan
sI2
Fnan
sI3
Fnan
sI4
Fnan
sI5
Fnan
sI6
Fnan
sI7
Fnan
sI8
Fnan
sI9
Fnan
sI10
Fnan
sI11
Fnan
sI12
Fnan
sI13
Fnan
sI14
Fnan
ssg152
(dp553
I0
F0.003042767961820193
sI1
Fnan
sI2
Fnan
sI3
Fnan
sI4
Fnan
sI5
Fnan
sI6
Fnan
sI7
Fnan
sI8
Fnan
sI9
Fnan
sI10
Fnan
sI11
Fnan
sI12
Fnan
sI13
Fnan
sI14
Fnan
ssg154
(dp554
I0
F69.98855
sI1
F81.43636
sI2
F65.38592
sI3
F70.77148
sI4
F64.88062
sI5
F67.85598
sI6
F70.67453
sI7
F73.40052
sI8
F62.12039
sI9
F65.2169
sI10
F83.16348
sI11
F68.52906
sI12
F64.46359
sI13
F68.95757
sI14
F74.05038
ssg156
(dp555
I0
F10.865
sI1
F11.048
sI2
F10.881
sI3
F10.904
sI4
F10.892
sI5
F10.842
sI6
F10.904
sI7
F10.964
sI8
F10.84
sI9
F10.902
sI10
F11.097
sI11
F10.867
sI12
F10.871
sI13
F10.861
sI14
F10.958
ssg158
(dp556
I0
F0.691174541921216
sI1
Fnan
sI2
Fnan
sI3
Fnan
sI4
Fnan
sI5
Fnan
sI6
Fnan
sI7
Fnan
sI8
Fnan
sI9
Fnan
sI10
Fnan
sI11
Fnan
sI12
Fnan
sI13
Fnan
sI14
Fnan
sss.