(dp0
S'r'
p1
(dp2
S'sigmean'
p3
(dp4
I0
F0.5498812446382267
sI1
Fnan
sI2
Fnan
sI3
Fnan
sI4
Fnan
sI5
Fnan
sI6
Fnan
sI7
Fnan
ssS'ref3flag'
p5
(dp6
I0
S'NoError'
p7
sI1
S'NoError'
p8
sI2
S'NoError'
p9
sI3
S'NoError'
p10
sI4
S'NoError'
p11
sI5
S'NoError'
p12
sI6
S'NoError'
p13
sI7
S'NoError'
p14
ssS'tabbyerr'
p15
(dp16
I0
F0.002
sI1
F0.002
sI2
F0.002
sI3
F0.002
sI4
F0.002
sI5
F0.002
sI6
F0.002
sI7
F0.002
ssS'ref2rel'
p17
(dp18
I0
F0.8934706337289603
sI1
F0.8934952870968824
sI2
F0.8959128765186611
sI3
F0.8956245173917141
sI4
F0.8929910766571567
sI5
F0.8939448197093983
sI6
F0.893724163632136
sI7
F0.8934953121689669
ssS'ref2err'
p19
(dp20
I0
F0.001077739050398806
sI1
Fnan
sI2
Fnan
sI3
Fnan
sI4
Fnan
sI5
Fnan
sI6
Fnan
sI7
Fnan
ssS'ref2mean'
p21
(dp22
I0
F0.8940823358629845
sI1
Fnan
sI2
Fnan
sI3
Fnan
sI4
Fnan
sI5
Fnan
sI6
Fnan
sI7
Fnan
ssS'tabbymag'
p23
(dp24
I0
F11.296
sI1
F11.287
sI2
F11.309
sI3
F11.333
sI4
F11.287
sI5
F11.328
sI6
F11.302
sI7
F11.315
ssS'tabbybkg'
p25
(dp26
I0
F53.17357
sI1
F50.18733
sI2
F53.43637
sI3
F54.61313
sI4
F50.81584
sI5
F55.48957
sI6
F51.41966
sI7
F53.65539
ssS'JD'
p27
(dp28
I0
F2458293.7869560183
sI1
F2458293.797025463
sI2
F2458293.7952430556
sI3
F2458293.786076389
sI4
F2458293.7979166666
sI5
F2458293.7851851853
sI6
F2458293.796134259
sI7
F2458293.7842824073
ssS'ref3rmsmean'
p29
(dp30
I0
F2.498313625
sI1
Fnan
sI2
Fnan
sI3
Fnan
sI4
Fnan
sI5
Fnan
sI6
Fnan
sI7
Fnan
ssS'ref1rmsmean'
p31
(dp32
I0
F1.127669625
sI1
Fnan
sI2
Fnan
sI3
Fnan
sI4
Fnan
sI5
Fnan
sI6
Fnan
sI7
Fnan
ssS'relflux'
p33
(dp34
I0
F0.5508545900637367
sI1
F0.5507300552093107
sI2
F0.5451653437580575
sI3
F0.5504841086956318
sI4
F0.5485468568416639
sI5
F0.548507018498613
sI6
F0.5489050308690134
sI7
F0.5511410522896175
ssS'sigerr'
p35
(dp36
I0
F0.0010849965563325009
sI1
Fnan
sI2
Fnan
sI3
Fnan
sI4
Fnan
sI5
Fnan
sI6
Fnan
sI7
Fnan
ssS'tabbyrmsmean'
p37
(dp38
I0
F-0.039331000000000005
sI1
Fnan
sI2
Fnan
sI3
Fnan
sI4
Fnan
sI5
Fnan
sI6
Fnan
sI7
Fnan
ssS'tabbyflag'
p39
(dp40
I0
g7
sI1
g8
sI2
g9
sI3
g10
sI4
g11
sI5
g12
sI6
g13
sI7
g14
ssS'ref1err'
p41
(dp42
I0
F0.0026787624898684816
sI1
Fnan
sI2
Fnan
sI3
Fnan
sI4
Fnan
sI5
Fnan
sI6
Fnan
sI7
Fnan
ssS'ref2magmeanerr'
p43
(dp44
I0
F0.01739817313890818
sI1
Fnan
sI2
Fnan
sI3
Fnan
sI4
Fnan
sI5
Fnan
sI6
Fnan
sI7
Fnan
ssS'ref2rmsmean'
p45
(dp46
I0
F1.5740094999999998
sI1
Fnan
sI2
Fnan
sI3
Fnan
sI4
Fnan
sI5
Fnan
sI6
Fnan
sI7
Fnan
ssS'ref3rel'
p47
(dp48
I0
F1.4989000233897956
sI1
F1.4972298693975734
sI2
F1.5037278358651884
sI3
F1.4944853331060635
sI4
F1.5019395112665115
sI5
F1.4996345571948766
sI6
F1.505535932576299
sI7
F1.4939554640440575
ssS'ref1flag'
p49
(dp50
I0
g7
sI1
g8
sI2
g9
sI3
g10
sI4
g11
sI5
g12
sI6
g13
sI7
g14
ssS'ref2bkg'
p51
(dp52
I0
F56.36242
sI1
F52.94172
sI2
F54.58777
sI3
F59.15294
sI4
F53.66491
sI5
F58.69725
sI6
F54.68541
sI7
F57.35559
ssS'ref3magmean'
p53
(dp54
I0
F10.384
sI1
Fnan
sI2
Fnan
sI3
Fnan
sI4
Fnan
sI5
Fnan
sI6
Fnan
sI7
Fnan
ssS'ref1mean'
p55
(dp56
I0
F0.712191913098865
sI1
Fnan
sI2
Fnan
sI3
Fnan
sI4
Fnan
sI5
Fnan
sI6
Fnan
sI7
Fnan
ssS'ref1rms'
p57
(dp58
I0
F2.714259
sI1
F-3.753427
sI2
F4.339893
sI3
F-4.603788
sI4
F-2.558933
sI5
F5.333087
sI6
F5.117568
sI7
F2.432698
ssS'ref2magmean'
p59
(dp60
I0
F10.739125
sI1
Fnan
sI2
Fnan
sI3
Fnan
sI4
Fnan
sI5
Fnan
sI6
Fnan
sI7
Fnan
ssS'ref2flag'
p61
(dp62
I0
g7
sI1
g8
sI2
g9
sI3
g10
sI4
g11
sI5
g12
sI6
g13
sI7
g14
ssS'ref2'
p63
(dp64
I0
F12805.435555555556
sI1
F12910.626666666665
sI2
F12806.444444444445
sI3
F12400.353333333334
sI4
F12961.755555555555
sI5
F12490.068888888889
sI6
F12782.357777777777
sI7
F12572.431111111111
ssS'airmass'
p65
(dp66
I0
F1.154739
sI1
F1.1265379999999998
sI2
F1.131258
sI3
F1.15741
sI4
F1.124195
sI5
F1.16011
sI6
F1.128881
sI7
F1.162847
ssS'ref1'
p67
(dp68
I0
F10899.10888888889
sI1
F10999.597777777779
sI2
F10822.695555555556
sI3
F10545.124444444444
sI4
F11020.231111111112
sI5
F10617.362222222222
sI6
F10830.044444444444
sI7
F10733.282222222222
ssS'ref3'
p69
(dp70
I0
F17765.37111111111
sI1
F17899.551111111112
sI2
F17765.89777777778
sI3
F17145.84
sI4
F18009.746666666666
sI5
F17326.35111111111
sI6
F17774.66
sI7
F17408.84888888889
ssS'ref1bkg'
p71
(dp72
I0
F54.73094
sI1
F51.31504
sI2
F53.62464
sI3
F58.0023
sI4
F52.20542
sI5
F56.31702
sI6
F53.65327
sI7
F56.78427
ssS'ref1mag'
p73
(dp74
I0
F10.907
sI1
F10.897
sI2
F10.914
sI3
F10.942
sI4
F10.895
sI5
F10.935
sI6
F10.913
sI7
F10.923
ssS'ref3magerr'
p75
(dp76
I0
F0.001
sI1
F0.001
sI2
F0.001
sI3
F0.001
sI4
F0.001
sI5
F0.001
sI6
F0.001
sI7
F0.001
ssS'tabbymagmean'
p77
(dp78
I0
F0.5492917570282057
sI1
Fnan
sI2
Fnan
sI3
Fnan
sI4
Fnan
sI5
Fnan
sI6
Fnan
sI7
Fnan
ssS'ref1magmean'
p79
(dp80
I0
F10.91575
sI1
Fnan
sI2
Fnan
sI3
Fnan
sI4
Fnan
sI5
Fnan
sI6
Fnan
sI7
Fnan
ssS'ref2mag'
p81
(dp82
I0
F10.732
sI1
F10.723
sI2
F10.731
sI3
F10.766
sI4
F10.718
sI5
F10.759
sI6
F10.733
sI7
F10.751
ssS'ref3rms'
p83
(dp84
I0
F3.30268
sI1
F5.502731
sI2
F5.924389
sI3
F5.630588
sI4
F3.377154
sI5
F-3.171194
sI6
F3.666699
sI7
F-4.246538
ssS'ref3magmeanerr'
p85
(dp86
I0
F0.018943525090572066
sI1
Fnan
sI2
Fnan
sI3
Fnan
sI4
Fnan
sI5
Fnan
sI6
Fnan
sI7
Fnan
ssS'ref1rel'
p87
(dp88
I0
F0.7130403203113966
sI1
F0.7140236487509901
sI2
F0.7080056527490278
sI3
F0.7138059597374716
sI4
F0.7116368480960563
sI5
F0.7121822285990218
sI6
F0.7088417150655626
sI7
F0.7159989314813926
ssS'exposure'
p89
(dp90
I0
F45.0
sI1
F45.0
sI2
F45.0
sI3
F45.0
sI4
F45.0
sI5
F45.0
sI6
F45.0
sI7
F45.0
ssS'ref1magerr'
p91
(dp92
I0
F0.002
sI1
F0.002
sI2
F0.002
sI3
F0.002
sI4
F0.002
sI5
F0.002
sI6
F0.002
sI7
F0.002
ssS'ref2magerr'
p93
(dp94
I0
F0.001
sI1
F0.001
sI2
F0.001
sI3
F0.001
sI4
F0.001
sI5
F0.001
sI6
F0.001
sI7
F0.001
ssS'ref2rms'
p95
(dp96
I0
F-3.935318
sI1
F5.730413
sI2
F2.800056
sI3
F4.694616
sI4
F-1.939364
sI5
F4.699436
sI6
F-3.320558
sI7
F3.862795
ssS'name'
p97
(dp98
I0
S"KIC8462852-20180624at065313_-25-1-045-r'_cal.fts.mag.1"
p99
sI1
S"KIC8462852-20180624at070743_-25-1-045-r'_cal.fts.mag.1"
p100
sI2
S"KIC8462852-20180624at070507_-25-1-045-r'_cal.fts.mag.1"
p101
sI3
S"KIC8462852-20180624at065156_-25-1-045-r'_cal.fts.mag.1"
p102
sI4
S"KIC8462852-20180624at070900_-25-1-045-r'_cal.fts.mag.1"
p103
sI5
S"KIC8462852-20180624at065040_-25-1-045-r'_cal.fts.mag.1"
p104
sI6
S"KIC8462852-20180624at070626_-25-1-045-r'_cal.fts.mag.1"
p105
sI7
S"KIC8462852-20180624at064921_-25-1-045-r'_cal.fts.mag.1"
p106
ssS'ref3err'
p107
(dp108
I0
F0.004168502589542481
sI1
Fnan
sI2
Fnan
sI3
Fnan
sI4
Fnan
sI5
Fnan
sI6
Fnan
sI7
Fnan
ssS'tabby'
p109
(dp110
I0
F7614.631111111112
sI1
F7675.3
sI2
F7522.379999999999
sI3
F7356.544444444445
sI4
F7678.144444444444
sI5
F7392.737777777778
sI6
F7572.522222222222
sI7
F7479.822222222222
ssS'ref1magmeanerr'
p111
(dp112
I0
F0.016824726701240463
sI1
Fnan
sI2
Fnan
sI3
Fnan
sI4
Fnan
sI5
Fnan
sI6
Fnan
sI7
Fnan
ssS'filter'
p113
(dp114
I0
S"r'"
p115
sI1
S"r'"
p116
sI2
S"r'"
p117
sI3
S"r'"
p118
sI4
S"r'"
p119
sI5
S"r'"
p120
sI6
S"r'"
p121
sI7
S"r'"
p122
ssS'tabbymagerr'
p123
(dp124
I0
F0.001989266866511641
sI1
Fnan
sI2
Fnan
sI3
Fnan
sI4
Fnan
sI5
Fnan
sI6
Fnan
sI7
Fnan
ssS'tabbyrms'
p125
(dp126
I0
F3.755224
sI1
F2.535946
sI2
F-4.277619
sI3
F4.189468
sI4
F-4.448256
sI5
F-2.650281
sI6
F3.063288
sI7
F-2.482418
ssS'ref3mean'
p127
(dp128
I0
F1.4994260658550456
sI1
Fnan
sI2
Fnan
sI3
Fnan
sI4
Fnan
sI5
Fnan
sI6
Fnan
sI7
Fnan
ssS'median_JD'
p129
(dp130
I0
F2458293.791099537
sI1
Fnan
sI2
Fnan
sI3
Fnan
sI4
Fnan
sI5
Fnan
sI6
Fnan
sI7
Fnan
ssS'error'
p131
(dp132
I0
F0.001989266866511641
sI1
Fnan
sI2
Fnan
sI3
Fnan
sI4
Fnan
sI5
Fnan
sI6
Fnan
sI7
Fnan
ssS'ref3bkg'
p133
(dp134
I0
F59.69862
sI1
F55.90338
sI2
F57.10378
sI3
F63.04592
sI4
F57.09144
sI5
F61.17883
sI6
F57.46394
sI7
F61.16259
ssS'ref3mag'
p135
(dp136
I0
F10.376
sI1
F10.368
sI2
F10.376
sI3
F10.415
sI4
F10.361
sI5
F10.403
sI6
F10.375
sI7
F10.398
ssS'mean'
p137
(dp138
I0
F0.5492917570282057
sI1
Fnan
sI2
Fnan
sI3
Fnan
sI4
Fnan
sI5
Fnan
sI6
Fnan
sI7
Fnan
sssS'z'
p139
(dp140
g3
(dp141
I0
F0.3684151407919593
sI1
Fnan
sI2
Fnan
sI3
Fnan
sI4
Fnan
sI5
Fnan
sI6
Fnan
sI7
Fnan
ssg5
(dp142
I0
S'NoError'
p143
sI1
S'NoError'
p144
sI2
S'NoError'
p145
sI3
S'NoError'
p146
sI4
S'NoError'
p147
sI5
S'NoError'
p148
sI6
S'NoError'
p149
sI7
S'NoError'
p150
ssg15
(dp151
I0
F0.007
sI1
F0.007
sI2
F0.008
sI3
F0.007
sI4
F0.008
sI5
F0.007
sI6
F0.008
sI7
F0.008
ssg17
(dp152
I0
F0.9133272923722544
sI1
F0.9113020534056253
sI2
F0.9097852228502084
sI3
F0.9237621952836849
sI4
F0.9290094059127441
sI5
F0.9206735203730689
sI6
F0.920852140645113
sI7
F0.920014506796001
ssg19
(dp153
I0
F0.006602353838449164
sI1
Fnan
sI2
Fnan
sI3
Fnan
sI4
Fnan
sI5
Fnan
sI6
Fnan
sI7
Fnan
ssg21
(dp154
I0
F0.9185907922048375
sI1
Fnan
sI2
Fnan
sI3
Fnan
sI4
Fnan
sI5
Fnan
sI6
Fnan
sI7
Fnan
ssg23
(dp155
I0
F13.419
sI1
F13.399
sI2
F13.424
sI3
F13.392
sI4
F13.434
sI5
F13.386
sI6
F13.4
sI7
F13.393
ssg25
(dp156
I0
F13.25494
sI1
F12.89978
sI2
F13.82041
sI3
F12.4772
sI4
F13.41607
sI5
F13.77746
sI6
F13.60682
sI7
F12.86413
ssg27
(dp157
I0
F2458293.7887731483
sI1
F2458293.800636574
sI2
F2458293.789664352
sI3
F2458293.799733796
sI4
F2458293.7905555554
sI5
F2458293.8015277777
sI6
F2458293.7878819443
sI7
F2458293.7988541666
ssg29
(dp158
I0
F0.8713353749999999
sI1
Fnan
sI2
Fnan
sI3
Fnan
sI4
Fnan
sI5
Fnan
sI6
Fnan
sI7
Fnan
ssg31
(dp159
I0
F0.8848305500000001
sI1
Fnan
sI2
Fnan
sI3
Fnan
sI4
Fnan
sI5
Fnan
sI6
Fnan
sI7
Fnan
ssg33
(dp160
I0
F0.37050426484675425
sI1
F0.3684016999917721
sI2
F0.3656602147410483
sI3
F0.3707704176790834
sI4
F0.36529575239227025
sI5
F0.3670350864179216
sI6
F0.3712781853047004
sI7
F0.36837550496212407
ssg35
(dp161
I0
F0.002160303673005273
sI1
Fnan
sI2
Fnan
sI3
Fnan
sI4
Fnan
sI5
Fnan
sI6
Fnan
sI7
Fnan
ssg37
(dp162
I0
F0.871369625
sI1
Fnan
sI2
Fnan
sI3
Fnan
sI4
Fnan
sI5
Fnan
sI6
Fnan
sI7
Fnan
ssg39
(dp163
I0
g143
sI1
g144
sI2
g145
sI3
g146
sI4
g147
sI5
g148
sI6
g149
sI7
g150
ssg41
(dp164
I0
F0.003925318046253307
sI1
Fnan
sI2
Fnan
sI3
Fnan
sI4
Fnan
sI5
Fnan
sI6
Fnan
sI7
Fnan
ssg43
(dp165
I0
F0.016527034130262405
sI1
Fnan
sI2
Fnan
sI3
Fnan
sI4
Fnan
sI5
Fnan
sI6
Fnan
sI7
Fnan
ssg45
(dp166
I0
F0.6405668999999999
sI1
Fnan
sI2
Fnan
sI3
Fnan
sI4
Fnan
sI5
Fnan
sI6
Fnan
sI7
Fnan
ssg47
(dp167
I0
F1.5048663304196184
sI1
F1.5128370256819104
sI2
F1.5247051914337006
sI3
F1.4924714456595143
sI4
F1.501499219417632
sI5
F1.5046979635437
sI6
F1.5054052271778078
sI7
F1.5102428587603416
ssg49
(dp168
I0
g143
sI1
g144
sI2
g145
sI3
g146
sI4
g147
sI5
g148
sI6
g149
sI7
g150
ssg51
(dp169
I0
F15.16883
sI1
F14.37438
sI2
F14.46691
sI3
F13.66967
sI4
F13.96903
sI5
F14.79953
sI6
F14.75352
sI7
F13.93544
ssg53
(dp170
I0
F12.04575
sI1
Fnan
sI2
Fnan
sI3
Fnan
sI4
Fnan
sI5
Fnan
sI6
Fnan
sI7
Fnan
ssg55
(dp171
I0
F0.6865235564379983
sI1
Fnan
sI2
Fnan
sI3
Fnan
sI4
Fnan
sI5
Fnan
sI6
Fnan
sI7
Fnan
ssg57
(dp172
I0
F3.591267
sI1
F3.63433
sI2
F-1.070778
sI3
F-2.566191
sI4
F0.9194894
sI5
F-2.881249
sI6
F3.131645
sI7
F2.320131
ssg59
(dp173
I0
F12.384
sI1
Fnan
sI2
Fnan
sI3
Fnan
sI4
Fnan
sI5
Fnan
sI6
Fnan
sI7
Fnan
ssg61
(dp174
I0
g143
sI1
g144
sI2
g145
sI3
g146
sI4
g147
sI5
g148
sI6
g149
sI7
g150
ssg63
(dp175
I0
F2735.9622222222224
sI1
F2798.3088888888888
sI2
F2752.237777777778
sI3
F2824.8555555555554
sI4
F2766.971111111111
sI5
F2861.3755555555554
sI6
F2793.1266666666666
sI7
F2832.7400000000002
ssg65
(dp176
I0
F1.1493959999999999
sI1
F1.117319
sI2
F1.146802
sI3
F1.1195469999999998
sI4
F1.144239
sI5
F1.115117
sI6
F1.1520139999999999
sI7
F1.12182
ssg67
(dp177
I0
F2244.0622222222223
sI1
F2291.395555555556
sI2
F2242.528888888889
sI3
F2295.206666666667
sI4
F2215.9182222222225
sI5
F2318.646666666667
sI6
F2261.6511111111113
sI7
F2289.853333333333
ssg69
(dp178
I0
F3747.1355555555556
sI1
F3849.9466666666667
sI2
F3807.773333333333
sI3
F3820.773333333333
sI4
F3740.9022222222225
sI5
F3897.184444444444
sI6
F3804.7444444444445
sI7
F3868.1800000000003
ssg71
(dp179
I0
F13.78254
sI1
F13.12555
sI2
F13.73131
sI3
F13.29257
sI4
F14.4456
sI5
F13.37453
sI6
F13.32574
sI7
F13.56921
ssg73
(dp180
I0
F12.622
sI1
F12.6
sI2
F12.623
sI3
F12.598
sI4
F12.636
sI5
F12.587
sI6
F12.614
sI7
F12.6
ssg75
(dp181
I0
F0.003
sI1
F0.003
sI2
F0.003
sI3
F0.003
sI4
F0.003
sI5
F0.003
sI6
F0.003
sI7
F0.003
ssg77
(dp182
I0
F0.3684151407919593
sI1
Fnan
sI2
Fnan
sI3
Fnan
sI4
Fnan
sI5
Fnan
sI6
Fnan
sI7
Fnan
ssg79
(dp183
I0
F12.61
sI1
Fnan
sI2
Fnan
sI3
Fnan
sI4
Fnan
sI5
Fnan
sI6
Fnan
sI7
Fnan
ssg81
(dp184
I0
F12.407
sI1
F12.383
sI2
F12.401
sI3
F12.373
sI4
F12.395
sI5
F12.359
sI6
F12.385
sI7
F12.369
ssg83
(dp185
I0
F3.382593
sI1
F3.156075
sI2
F3.47226
sI3
F-3.644556
sI4
F-3.420291
sI5
F3.299846
sI6
F-1.918448
sI7
F2.643204
ssg85
(dp186
I0
F0.01581816315866946
sI1
Fnan
sI2
Fnan
sI3
Fnan
sI4
Fnan
sI5
Fnan
sI6
Fnan
sI7
Fnan
ssg87
(dp187
I0
F0.6922808506495866
sI1
F0.6893223452100218
sI2
F0.683696673955498
sI3
F0.6907417507180159
sI4
F0.6809961130842198
sI5
F0.6861362972783158
sI6
F0.6855699582558954
sI7
F0.6834444623524331
ssg89
(dp188
I0
F45.0
sI1
F45.0
sI2
F45.0
sI3
F45.0
sI4
F45.0
sI5
F45.0
sI6
F45.0
sI7
F45.0
ssg91
(dp189
I0
F0.004
sI1
F0.004
sI2
F0.004
sI3
F0.004
sI4
F0.004
sI5
F0.004
sI6
F0.004
sI7
F0.004
ssg93
(dp190
I0
F0.004
sI1
F0.004
sI2
F0.004
sI3
F0.004
sI4
F0.004
sI5
F0.004
sI6
F0.004
sI7
F0.003
ssg95
(dp191
I0
F-1.843903
sI1
F-1.442267
sI2
F3.769171
sI3
F2.467275
sI4
F2.537661
sI5
F-2.615863
sI6
F-0.8104098
sI7
F3.062871
ssg97
(dp192
I0
S"KIC8462852-20180624at065549_-25-1-045-z'_cal.fts.mag.1"
p193
sI1
S"KIC8462852-20180624at071255_-25-1-045-z'_cal.fts.mag.1"
p194
sI2
S"KIC8462852-20180624at065707_-25-1-045-z'_cal.fts.mag.1"
p195
sI3
S"KIC8462852-20180624at071137_-25-1-045-z'_cal.fts.mag.1"
p196
sI4
S"KIC8462852-20180624at065824_-25-1-045-z'_cal.fts.mag.1"
p197
sI5
S"KIC8462852-20180624at071411_-25-1-045-z'_cal.fts.mag.1"
p198
sI6
S"KIC8462852-20180624at065431_-25-1-045-z'_cal.fts.mag.1"
p199
sI7
S"KIC8462852-20180624at071019_-25-1-045-z'_cal.fts.mag.1"
p200
ssg107
(dp201
I0
F0.00934824468729836
sI1
Fnan
sI2
Fnan
sI3
Fnan
sI4
Fnan
sI5
Fnan
sI6
Fnan
sI7
Fnan
ssg109
(dp202
I0
F1077.8166666666666
sI1
F1097.7942222222223
sI2
F1072.912888888889
sI3
F1104.999111111111
sI4
F1062.2546666666667
sI5
F1110.5511111111111
sI6
F1096.449111111111
sI7
F1103.9935555555555
ssg111
(dp203
I0
F0.01637942960806962
sI1
Fnan
sI2
Fnan
sI3
Fnan
sI4
Fnan
sI5
Fnan
sI6
Fnan
sI7
Fnan
ssg113
(dp204
I0
S"z'"
p205
sI1
S"z'"
p206
sI2
S"z'"
p207
sI3
S"z'"
p208
sI4
S"z'"
p209
sI5
S"z'"
p210
sI6
S"z'"
p211
sI7
S"z'"
p212
ssg123
(dp213
I0
F0.002309461770221445
sI1
Fnan
sI2
Fnan
sI3
Fnan
sI4
Fnan
sI5
Fnan
sI6
Fnan
sI7
Fnan
ssg125
(dp214
I0
F3.577842
sI1
F1.122025
sI2
F-3.846151
sI3
F3.57735
sI4
F4.563458
sI5
F2.728225
sI6
F-2.929022
sI7
F-1.82277
ssg127
(dp215
I0
F1.5070906577617782
sI1
Fnan
sI2
Fnan
sI3
Fnan
sI4
Fnan
sI5
Fnan
sI6
Fnan
sI7
Fnan
ssg129
(dp216
I0
F2458293.794704861
sI1
Fnan
sI2
Fnan
sI3
Fnan
sI4
Fnan
sI5
Fnan
sI6
Fnan
sI7
Fnan
ssg131
(dp217
I0
F0.002309461770221445
sI1
Fnan
sI2
Fnan
sI3
Fnan
sI4
Fnan
sI5
Fnan
sI6
Fnan
sI7
Fnan
ssg133
(dp218
I0
F15.61054
sI1
F14.60728
sI2
F14.79127
sI3
F16.44721
sI4
F16.43745
sI5
F14.91589
sI6
F16.44052
sI7
F14.1066
ssg135
(dp219
I0
F12.066
sI1
F12.036
sI2
F12.048
sI3
F12.045
sI4
F12.068
sI5
F12.023
sI6
F12.049
sI7
F12.031
ssg137
(dp220
I0
F0.3684151407919593
sI1
Fnan
sI2
Fnan
sI3
Fnan
sI4
Fnan
sI5
Fnan
sI6
Fnan
sI7
Fnan
sssS'g'
p221
(dp222
g3
(dp223
I0
F0.8650444525866977
sI1
Fnan
sI2
Fnan
sI3
Fnan
sI4
Fnan
sI5
Fnan
sI6
Fnan
sI7
Fnan
ssg5
(dp224
I0
S'NoError'
p225
sI1
S'NoError'
p226
sI2
S'NoError'
p227
sI3
S'NoError'
p228
sI4
S'NoError'
p229
sI5
S'NoError'
p230
sI6
S'NoError'
p231
sI7
S'NoError'
p232
ssg15
(dp233
I0
F0.002
sI1
F0.002
sI2
F0.002
sI3
F0.002
sI4
F0.002
sI5
F0.002
sI6
F0.002
sI7
F0.002
ssg17
(dp234
I0
F0.8773123536888271
sI1
F0.8811496426275386
sI2
F0.8827661778490871
sI3
F0.8802162717314763
sI4
F0.8808942132777022
sI5
F0.8742072518463627
sI6
F0.881412135701892
sI7
F0.8818447637707887
ssg19
(dp235
I0
F0.0028282150586296075
sI1
Fnan
sI2
Fnan
sI3
Fnan
sI4
Fnan
sI5
Fnan
sI6
Fnan
sI7
Fnan
ssg21
(dp236
I0
F0.8799753513117093
sI1
Fnan
sI2
Fnan
sI3
Fnan
sI4
Fnan
sI5
Fnan
sI6
Fnan
sI7
Fnan
ssg23
(dp237
I0
F11.533
sI1
F11.544
sI2
F11.542
sI3
F11.531
sI4
F11.537
sI5
F11.546
sI6
F11.545
sI7
F11.551
ssg25
(dp238
I0
F59.89083
sI1
F64.42585
sI2
F64.82491
sI3
F61.16313
sI4
F61.15061
sI5
F61.02999
sI6
F62.81296
sI7
F62.60683
ssg27
(dp239
I0
F2458293.793425926
sI1
F2458293.780648148
sI2
F2458293.7815393517
sI3
F2458293.7943171295
sI4
F2458293.792476852
sI5
F2458293.791585648
sI6
F2458293.7824652777
sI7
F2458293.7833564817
ssg29
(dp240
I0
F1.315282125
sI1
Fnan
sI2
Fnan
sI3
Fnan
sI4
Fnan
sI5
Fnan
sI6
Fnan
sI7
Fnan
ssg31
(dp241
I0
F2.675670375
sI1
Fnan
sI2
Fnan
sI3
Fnan
sI4
Fnan
sI5
Fnan
sI6
Fnan
sI7
Fnan
ssg33
(dp242
I0
F0.8637011155959773
sI1
F0.8586211893381273
sI2
F0.8644680778805088
sI3
F0.8633101878657494
sI4
F0.8671955706224879
sI5
F0.8622124509168783
sI6
F0.8680797413683207
sI7
F0.8663440238569613
ssg35
(dp243
I0
F0.002024628429084511
sI1
Fnan
sI2
Fnan
sI3
Fnan
sI4
Fnan
sI5
Fnan
sI6
Fnan
sI7
Fnan
ssg37
(dp244
I0
F3.258316
sI1
Fnan
sI2
Fnan
sI3
Fnan
sI4
Fnan
sI5
Fnan
sI6
Fnan
sI7
Fnan
ssg39
(dp245
I0
g225
sI1
g226
sI2
g227
sI3
g228
sI4
g229
sI5
g230
sI6
g231
sI7
g232
ssg41
(dp246
I0
F0.0028125518916182683
sI1
Fnan
sI2
Fnan
sI3
Fnan
sI4
Fnan
sI5
Fnan
sI6
Fnan
sI7
Fnan
ssg43
(dp247
I0
F0.007722878811871687
sI1
Fnan
sI2
Fnan
sI3
Fnan
sI4
Fnan
sI5
Fnan
sI6
Fnan
sI7
Fnan
ssg45
(dp248
I0
F2.65132575
sI1
Fnan
sI2
Fnan
sI3
Fnan
sI4
Fnan
sI5
Fnan
sI6
Fnan
sI7
Fnan
ssg47
(dp249
I0
F1.5126529010377363
sI1
F1.5068858771072042
sI2
F1.513624368477011
sI3
F1.5081865635793859
sI4
F1.5126482960774688
sI5
F1.5173282151423058
sI6
F1.5066839742755138
sI7
F1.5171242654956212
ssg49
(dp250
I0
g225
sI1
g226
sI2
g227
sI3
g228
sI4
g229
sI5
g230
sI6
g231
sI7
g232
ssg51
(dp251
I0
F60.66716
sI1
F64.35316
sI2
F63.09966
sI3
F60.70526
sI4
F60.82283
sI5
F61.83126
sI6
F62.96842
sI7
F62.63857
ssg53
(dp252
I0
F11.105
sI1
Fnan
sI2
Fnan
sI3
Fnan
sI4
Fnan
sI5
Fnan
sI6
Fnan
sI7
Fnan
ssg55
(dp253
I0
F0.7171920348910645
sI1
Fnan
sI2
Fnan
sI3
Fnan
sI4
Fnan
sI5
Fnan
sI6
Fnan
sI7
Fnan
ssg57
(dp254
I0
F4.990031
sI1
F3.508832
sI2
F3.729353
sI3
F4.504208
sI4
F1.867616
sI5
F3.508198
sI6
F3.668034
sI7
F-4.370909
ssg59
(dp255
I0
F11.47725
sI1
Fnan
sI2
Fnan
sI3
Fnan
sI4
Fnan
sI5
Fnan
sI6
Fnan
sI7
Fnan
ssg61
(dp256
I0
g225
sI1
g226
sI2
g227
sI3
g228
sI4
g229
sI5
g230
sI6
g231
sI7
g232
ssg63
(dp257
I0
F6482.984444444444
sI1
F6472.288888888889
sI2
F6451.955555555555
sI3
F6509.757777777777
sI4
F6450.644444444444
sI5
F6400.728888888889
sI6
F6398.820000000001
sI7
F6378.564444444445
ssg65
(dp258
I0
F1.136198
sI1
F1.174377
sI2
F1.171492
sI3
F1.133767
sI4
F1.138842
sI5
F1.141326
sI6
F1.16855
sI7
F1.16573
ssg67
(dp259
I0
F5623.066666666667
sI1
F5597.0199999999995
sI2
F5541.097777777778
sI3
F5633.8533333333335
sI4
F5560.986666666667
sI5
F5565.304444444445
sI6
F5531.706666666666
sI7
F5474.855555555556
ssg69
(dp260
I0
F9156.126666666667
sI1
F9093.535555555554
sI2
F9076.488888888889
sI3
F9157.415555555555
sI4
F9084.686666666666
sI5
F9078.2
sI6
F8987.766666666666
sI7
F8991.555555555555
ssg71
(dp261
I0
F59.59441
sI1
F62.76936
sI2
F62.96318
sI3
F58.74033
sI4
F61.19021
sI5
F59.7918
sI6
F62.12381
sI7
F64.33269
ssg73
(dp262
I0
F11.625
sI1
F11.63
sI2
F11.641
sI3
F11.623
sI4
F11.637
sI5
F11.636
sI6
F11.643
sI7
F11.654
ssg75
(dp263
I0
F0.002
sI1
F0.002
sI2
F0.002
sI3
F0.002
sI4
F0.002
sI5
F0.002
sI6
F0.002
sI7
F0.002
ssg77
(dp264
I0
F0.8642415446806263
sI1
Fnan
sI2
Fnan
sI3
Fnan
sI4
Fnan
sI5
Fnan
sI6
Fnan
sI7
Fnan
ssg79
(dp265
I0
F11.636125
sI1
Fnan
sI2
Fnan
sI3
Fnan
sI4
Fnan
sI5
Fnan
sI6
Fnan
sI7
Fnan
ssg81
(dp266
I0
F11.471
sI1
F11.472
sI2
F11.476
sI3
F11.466
sI4
F11.476
sI5
F11.484
sI6
F11.485
sI7
F11.488
ssg83
(dp267
I0
F-4.480452
sI1
F5.530865
sI2
F4.322021
sI3
F3.982201
sI4
F-3.621272
sI5
F4.803075
sI6
F-4.053198
sI7
F4.039017
ssg85
(dp268
I0
F0.007445036697597326
sI1
Fnan
sI2
Fnan
sI3
Fnan
sI4
Fnan
sI5
Fnan
sI6
Fnan
sI7
Fnan
ssg87
(dp269
I0
F0.719103103330681
sI1
F0.7191421206086668
sI2
F0.7136706831907038
sI3
F0.7191920601716711
sI4
F0.7159147915024949
sI5
F0.719081337525795
sI6
F0.7190297349899566
sI7
F0.7124024478085476
ssg89
(dp270
I0
F45.0
sI1
F45.0
sI2
F45.0
sI3
F45.0
sI4
F45.0
sI5
F45.0
sI6
F45.0
sI7
F45.0
ssg91
(dp271
I0
F0.002
sI1
F0.002
sI2
F0.003
sI3
F0.002
sI4
F0.002
sI5
F0.002
sI6
F0.002
sI7
F0.002
ssg93
(dp272
I0
F0.002
sI1
F0.002
sI2
F0.002
sI3
F0.002
sI4
F0.002
sI5
F0.002
sI6
F0.002
sI7
F0.002
ssg95
(dp273
I0
F-3.000311
sI1
F2.777162
sI2
F4.817393
sI3
F-2.200058
sI4
F5.220567
sI5
F2.309303
sI6
F5.15422
sI7
F6.13233
ssg97
(dp274
I0
S"KIC8462852-20180624at070232_-25-1-045-g'_cal.fts.mag.1"
p275
sI1
S"KIC8462852-20180624at064402_-25-1-045-g'_cal.fts.mag.1"
p276
sI2
S"KIC8462852-20180624at064525_-25-1-045-g'_cal.fts.mag.1"
p277
sI3
S"KIC8462852-20180624at070349_-25-1-045-g'_cal.fts.mag.1"
p278
sI4
S"KIC8462852-20180624at070110_-25-1-045-g'_cal.fts.mag.1"
p279
sI5
S"KIC8462852-20180624at065943_-25-1-045-g'_cal.fts.mag.1"
p280
sI6
S"KIC8462852-20180624at064645_-25-1-045-g'_cal.fts.mag.1"
p281
sI7
S"KIC8462852-20180624at064802_-25-1-045-g'_cal.fts.mag.1"
p282
ssg107
(dp283
I0
F0.004259378712444422
sI1
Fnan
sI2
Fnan
sI3
Fnan
sI4
Fnan
sI5
Fnan
sI6
Fnan
sI7
Fnan
ssg109
(dp284
I0
F6121.388888888889
sI1
F6056.955555555555
sI2
F6071.315555555556
sI3
F6129.797777777779
sI4
F6098.211111111111
sI5
F6048.2
sI6
F6052.915555555556
sI7
F6019.639999999999
ssg111
(dp285
I0
F0.010176127526155205
sI1
Fnan
sI2
Fnan
sI3
Fnan
sI4
Fnan
sI5
Fnan
sI6
Fnan
sI7
Fnan
ssg113
(dp286
I0
S"g'"
p287
sI1
S"g'"
p288
sI2
S"g'"
p289
sI3
S"g'"
p290
sI4
S"g'"
p291
sI5
S"g'"
p292
sI6
S"g'"
p293
sI7
S"g'"
p294
ssg123
(dp295
I0
F0.0030424347356864737
sI1
Fnan
sI2
Fnan
sI3
Fnan
sI4
Fnan
sI5
Fnan
sI6
Fnan
sI7
Fnan
ssg125
(dp296
I0
F3.374552
sI1
F4.150685
sI2
F-3.81785
sI3
F4.145391
sI4
F3.554981
sI5
F5.651832
sI6
F4.77794
sI7
F4.228997
ssg127
(dp297
I0
F1.5118918076490309
sI1
Fnan
sI2
Fnan
sI3
Fnan
sI4
Fnan
sI5
Fnan
sI6
Fnan
sI7
Fnan
ssg129
(dp298
I0
F2458293.787471065
sI1
Fnan
sI2
Fnan
sI3
Fnan
sI4
Fnan
sI5
Fnan
sI6
Fnan
sI7
Fnan
ssg131
(dp299
I0
F0.0030424347356864737
sI1
Fnan
sI2
Fnan
sI3
Fnan
sI4
Fnan
sI5
Fnan
sI6
Fnan
sI7
Fnan
ssg133
(dp300
I0
F62.14828
sI1
F65.35384
sI2
F65.51768
sI3
F62.64389
sI4
F62.5026
sI5
F63.0665
sI6
F65.72366
sI7
F64.75494
ssg135
(dp301
I0
F11.096
sI1
F11.103
sI2
F11.105
sI3
F11.096
sI4
F11.104
sI5
F11.105
sI6
F11.116
sI7
F11.115
ssg137
(dp302
I0
F0.8642415446806263
sI1
Fnan
sI2
Fnan
sI3
Fnan
sI4
Fnan
sI5
Fnan
sI6
Fnan
sI7
Fnan
sssS'V'
p303
(dp304
g3
(dp305
I0
F0.6929822084583198
sI1
Fnan
sI2
Fnan
sI3
Fnan
sI4
Fnan
sI5
Fnan
sI6
Fnan
sI7
Fnan
ssg5
(dp306
I0
S'NoError'
p307
sI1
S'NoError'
p308
sI2
S'NoError'
p309
sI3
S'NoError'
p310
sI4
S'NoError'
p311
sI5
S'NoError'
p312
sI6
S'NoError'
p313
sI7
S'NoError'
p314
ssg15
(dp315
I0
F0.002
sI1
F0.002
sI2
F0.002
sI3
F0.002
sI4
F0.002
sI5
F0.002
sI6
F0.002
sI7
F0.002
ssg17
(dp316
I0
F0.8830385063747721
sI1
F0.8849948707520876
sI2
F0.8851094087233435
sI3
F0.8880534576225766
sI4
F0.884667001918349
sI5
F0.8860121905191138
sI6
F0.8897663672274884
sI7
F0.885455941765433
ssg19
(dp317
I0
F0.0021026298581918157
sI1
Fnan
sI2
Fnan
sI3
Fnan
sI4
Fnan
sI5
Fnan
sI6
Fnan
sI7
Fnan
ssg21
(dp318
I0
F0.8858872181128955
sI1
Fnan
sI2
Fnan
sI3
Fnan
sI4
Fnan
sI5
Fnan
sI6
Fnan
sI7
Fnan
ssg23
(dp319
I0
F11.509
sI1
F11.516
sI2
F11.497
sI3
F11.516
sI4
F11.526
sI5
F11.53
sI6
F11.54
sI7
F11.523
ssg25
(dp320
I0
F44.88243
sI1
F44.58285
sI2
F43.32325
sI3
F46.46228
sI4
F42.71134
sI5
F46.33069
sI6
F47.50106
sI7
F47.61411
ssg27
(dp321
I0
F2458293.8314814814
sI1
F2458293.830590278
sI2
F2458293.829699074
sI3
F2458293.8161689816
sI4
F2458293.832361111
sI5
F2458293.8179513887
sI6
F2458293.817060185
sI7
F2458293.8152777776
ssg29
(dp322
I0
F1.622066875
sI1
Fnan
sI2
Fnan
sI3
Fnan
sI4
Fnan
sI5
Fnan
sI6
Fnan
sI7
Fnan
ssg31
(dp323
I0
F3.2761861249999997
sI1
Fnan
sI2
Fnan
sI3
Fnan
sI4
Fnan
sI5
Fnan
sI6
Fnan
sI7
Fnan
ssg33
(dp324
I0
F0.6914818969156834
sI1
F0.690574556021229
sI2
F0.6927337815303451
sI3
F0.6940123797499803
sI4
F0.6938656074037138
sI5
F0.6939446431138676
sI6
F0.6928994515650352
sI7
F0.6919376989296142
ssg35
(dp325
I0
F0.000939485161103679
sI1
Fnan
sI2
Fnan
sI3
Fnan
sI4
Fnan
sI5
Fnan
sI6
Fnan
sI7
Fnan
ssg37
(dp326
I0
F3.5594157500000003
sI1
Fnan
sI2
Fnan
sI3
Fnan
sI4
Fnan
sI5
Fnan
sI6
Fnan
sI7
Fnan
ssg39
(dp327
I0
g307
sI1
g308
sI2
g309
sI3
g310
sI4
g311
sI5
g312
sI6
g313
sI7
g314
ssg41
(dp328
I0
F0.0020764829318729167
sI1
Fnan
sI2
Fnan
sI3
Fnan
sI4
Fnan
sI5
Fnan
sI6
Fnan
sI7
Fnan
ssg43
(dp329
I0
F0.013068500843085102
sI1
Fnan
sI2
Fnan
sI3
Fnan
sI4
Fnan
sI5
Fnan
sI6
Fnan
sI7
Fnan
ssg45
(dp330
I0
F3.1031725000000003
sI1
Fnan
sI2
Fnan
sI3
Fnan
sI4
Fnan
sI5
Fnan
sI6
Fnan
sI7
Fnan
ssg47
(dp331
I0
F1.5047199018030886
sI1
F1.505679551754019
sI2
F1.498375022512015
sI3
F1.4945396382166223
sI4
F1.499434047889244
sI5
F1.504331650466282
sI6
F1.5000183074145619
sI7
F1.5008692984250356
ssg49
(dp332
I0
g307
sI1
g308
sI2
g309
sI3
g310
sI4
g311
sI5
g312
sI6
g313
sI7
g314
ssg51
(dp333
I0
F45.0031
sI1
F45.22092
sI2
F44.89303
sI3
F48.187
sI4
F46.12687
sI5
F47.68292
sI6
F48.05319
sI7
F47.57674
ssg53
(dp334
I0
F10.847624999999999
sI1
Fnan
sI2
Fnan
sI3
Fnan
sI4
Fnan
sI5
Fnan
sI6
Fnan
sI7
Fnan
ssg55
(dp335
I0
F0.7184811598581764
sI1
Fnan
sI2
Fnan
sI3
Fnan
sI4
Fnan
sI5
Fnan
sI6
Fnan
sI7
Fnan
ssg57
(dp336
I0
F3.43869
sI1
F2.680928
sI2
F4.067241
sI3
F4.034057
sI4
F3.75767
sI5
F1.533546
sI6
F3.436379
sI7
F3.260978
ssg59
(dp337
I0
F11.21025
sI1
Fnan
sI2
Fnan
sI3
Fnan
sI4
Fnan
sI5
Fnan
sI6
Fnan
sI7
Fnan
ssg61
(dp338
I0
g307
sI1
g308
sI2
g309
sI3
g310
sI4
g311
sI5
g312
sI6
g313
sI7
g314
ssg63
(dp339
I0
F8313.864444444445
sI1
F8288.577777777778
sI2
F8409.262222222222
sI3
F8262.435555555556
sI4
F8166.642222222223
sI5
F8143.115555555556
sI6
F8110.277777777777
sI7
F8216.91111111111
ssg65
(dp340
I0
F1.055023
sI1
F1.0564209999999998
sI2
F1.057851
sI3
F1.082358
sI4
F1.053636
sI5
F1.078856
sI6
F1.080589
sI7
F1.084167
ssg67
(dp341
I0
F7176.1
sI1
F7126.3711111111115
sI2
F7261.3822222222225
sI3
F7116.073333333333
sI4
F7052.548888888889
sI5
F6995.071111111111
sI6
F6941.304444444445
sI7
F7080.226666666667
ssg69
(dp342
I0
F11654.02888888889
sI1
F11604.986666666668
sI2
F11740.251111111113
sI3
F11491.895555555555
sI4
F11410.086666666668
sI5
F11386.426666666666
sI6
F11288.824444444444
sI7
F11479.502222222221
ssg71
(dp343
I0
F44.28953
sI1
F45.19262
sI2
F43.88277
sI3
F46.33014
sI4
F44.4891
sI5
F47.07996
sI6
F47.66468
sI7
F47.16537
ssg73
(dp344
I0
F11.36
sI1
F11.368
sI2
F11.347
sI3
F11.369
sI4
F11.379
sI5
F11.388
sI6
F11.396
sI7
F11.375
ssg75
(dp345
I0
F0.001
sI1
F0.001
sI2
F0.001
sI3
F0.002
sI4
F0.001
sI5
F0.001
sI6
F0.002
sI7
F0.001
ssg77
(dp346
I0
F0.6926812519036836
sI1
Fnan
sI2
Fnan
sI3
Fnan
sI4
Fnan
sI5
Fnan
sI6
Fnan
sI7
Fnan
ssg79
(dp347
I0
F11.37275
sI1
Fnan
sI2
Fnan
sI3
Fnan
sI4
Fnan
sI5
Fnan
sI6
Fnan
sI7
Fnan
ssg81
(dp348
I0
F11.2
sI1
F11.204
sI2
F11.188
sI3
F11.207
sI4
F11.22
sI5
F11.223
sI6
F11.227
sI7
F11.213
ssg83
(dp349
I0
F-3.302289
sI1
F5.054954
sI2
F2.865992
sI3
F3.207461
sI4
F1.588279
sI5
F5.229842
sI6
F-4.08674
sI7
F2.419036
ssg85
(dp350
I0
F0.014070612739221531
sI1
Fnan
sI2
Fnan
sI3
Fnan
sI4
Fnan
sI5
Fnan
sI6
Fnan
sI7
Fnan
ssg87
(dp351
I0
F0.7187638555761516
sI1
F0.7164498982585545
sI2
F0.7207501344669918
sI3
F0.7204570272015735
sI4
F0.7205033005173489
sI5
F0.716357918840676
sI6
F0.7156315137607743
sI7
F0.7189356302433406
ssg89
(dp352
I0
F45.0
sI1
F45.0
sI2
F45.0
sI3
F45.0
sI4
F45.0
sI5
F45.0
sI6
F45.0
sI7
F45.0
ssg91
(dp353
I0
F0.002
sI1
F0.002
sI2
F0.002
sI3
F0.002
sI4
F0.002
sI5
F0.002
sI6
F0.002
sI7
F0.002
ssg93
(dp354
I0
F0.002
sI1
F0.002
sI2
F0.002
sI3
F0.002
sI4
F0.002
sI5
F0.002
sI6
F0.002
sI7
F0.002
ssg95
(dp355
I0
F3.629191
sI1
F4.983715
sI2
F2.485263
sI3
F2.542398
sI4
F5.588281
sI5
F-2.109166
sI6
F2.871247
sI7
F4.834451
ssg97
(dp356
I0
S'KIC8462852-20180624at075720_-25-1-045-V_cal.fts.mag.1'
p357
sI1
S'KIC8462852-20180624at075603_-25-1-045-V_cal.fts.mag.1'
p358
sI2
S'KIC8462852-20180624at075444_-25-1-045-V_cal.fts.mag.1'
p359
sI3
S'KIC8462852-20180624at073517_-25-1-045-V_cal.fts.mag.1'
p360
sI4
S'KIC8462852-20180624at075836_-25-1-045-V_cal.fts.mag.1'
p361
sI5
S'KIC8462852-20180624at073751_-25-1-045-V_cal.fts.mag.1'
p362
sI6
S'KIC8462852-20180624at073634_-25-1-045-V_cal.fts.mag.1'
p363
sI7
S'KIC8462852-20180624at073359_-25-1-045-V_cal.fts.mag.1'
p364
ssg107
(dp365
I0
F0.0037587122910827508
sI1
Fnan
sI2
Fnan
sI3
Fnan
sI4
Fnan
sI5
Fnan
sI6
Fnan
sI7
Fnan
ssg109
(dp366
I0
F6256.526666666667
sI1
F6219.76
sI2
F6329.484444444444
sI3
F6216.131111111112
sI4
F6159.046666666666
sI5
F6135.537777777778
sI6
F6083.751111111111
sI7
F6175.922222222222
ssg111
(dp367
I0
F0.015489627866045744
sI1
Fnan
sI2
Fnan
sI3
Fnan
sI4
Fnan
sI5
Fnan
sI6
Fnan
sI7
Fnan
ssg113
(dp368
I0
g303
sI1
g303
sI2
g303
sI3
g303
sI4
g303
sI5
g303
sI6
g303
sI7
g303
ssg123
(dp369
I0
F0.0012677662048511853
sI1
Fnan
sI2
Fnan
sI3
Fnan
sI4
Fnan
sI5
Fnan
sI6
Fnan
sI7
Fnan
ssg125
(dp370
I0
F4.185682
sI1
F4.86904
sI2
F5.115038
sI3
F3.095572
sI4
F4.93858
sI5
F4.356199
sI6
F-2.610668
sI7
F4.525883
ssg127
(dp371
I0
F1.5009959273101086
sI1
Fnan
sI2
Fnan
sI3
Fnan
sI4
Fnan
sI5
Fnan
sI6
Fnan
sI7
Fnan
ssg129
(dp372
I0
F2458293.8238252313
sI1
Fnan
sI2
Fnan
sI3
Fnan
sI4
Fnan
sI5
Fnan
sI6
Fnan
sI7
Fnan
ssg131
(dp373
I0
F0.0012677662048511853
sI1
Fnan
sI2
Fnan
sI3
Fnan
sI4
Fnan
sI5
Fnan
sI6
Fnan
sI7
Fnan
ssg133
(dp374
I0
F46.45986
sI1
F46.65589
sI2
F46.80481
sI3
F50.22662
sI4
F47.62037
sI5
F49.52416
sI6
F51.63616
sI7
F50.87421
ssg135
(dp375
I0
F10.834
sI1
F10.838
sI2
F10.826
sI3
F10.849
sI4
F10.857
sI5
F10.859
sI6
F10.868
sI7
F10.85
ssg137
(dp376
I0
F0.6926812519036836
sI1
Fnan
sI2
Fnan
sI3
Fnan
sI4
Fnan
sI5
Fnan
sI6
Fnan
sI7
Fnan
sss.