(dp0
S'V'
p1
(dp2
S'sigmean'
p3
(dp4
I0
F0.6920093744832295
sI1
Fnan
sI2
Fnan
sI3
Fnan
sI4
Fnan
ssS'ref3flag'
p5
(dp6
I0
S'NoError'
p7
sI1
S'NoError'
p8
sI2
S'NoError'
p9
sI3
S'NoError'
p10
sI4
S'NoError'
p11
ssS'tabbyerr'
p12
(dp13
I0
F0.003
sI1
F0.003
sI2
F0.003
sI3
F0.003
sI4
F0.003
ssS'ref2rel'
p14
(dp15
I0
F0.8837371941080047
sI1
F0.8821943081729887
sI2
F0.8822712547875182
sI3
F0.881364813771127
sI4
F0.8821843024356381
ssS'ref2err'
p16
(dp17
I0
F0.0008591849529254845
sI1
Fnan
sI2
Fnan
sI3
Fnan
sI4
Fnan
ssS'ref2mean'
p18
(dp19
I0
F0.8823503746550554
sI1
Fnan
sI2
Fnan
sI3
Fnan
sI4
Fnan
ssS'tabbymag'
p20
(dp21
I0
F11.983
sI1
F12.062
sI2
F12.023
sI3
F12.177
sI4
F11.986
ssS'tabbybkg'
p22
(dp23
I0
F9.240642
sI1
F9.279578
sI2
F10.21933
sI3
F9.143714
sI4
F9.800128
ssS'JD'
p24
(dp25
I0
F2458607.9516550926
sI1
F2458607.9509837963
sI2
F2458607.949675926
sI3
F2458607.950324074
sI4
F2458607.952314815
ssS'ref3rmsmean'
p26
(dp27
I0
F1.9185916000000003
sI1
Fnan
sI2
Fnan
sI3
Fnan
sI4
Fnan
ssS'ref1rmsmean'
p28
(dp29
I0
F0.6851771999999998
sI1
Fnan
sI2
Fnan
sI3
Fnan
sI4
Fnan
ssS'relflux'
p30
(dp31
I0
F0.6940304568605342
sI1
F0.6917611424156769
sI2
F0.6929745217795396
sI3
F0.6914048238770835
sI4
F0.6898759274833134
ssS'sigerr'
p32
(dp33
I0
F0.001413858548485692
sI1
Fnan
sI2
Fnan
sI3
Fnan
sI4
Fnan
ssS'tabbyrmsmean'
p34
(dp35
I0
F1.7032782000000002
sI1
Fnan
sI2
Fnan
sI3
Fnan
sI4
Fnan
ssS'tabbyflag'
p36
(dp37
I0
g7
sI1
g8
sI2
g9
sI3
g10
sI4
g11
ssS'ref1err'
p38
(dp39
I0
F0.001688959945207988
sI1
Fnan
sI2
Fnan
sI3
Fnan
sI4
Fnan
ssS'ref2magmeanerr'
p40
(dp41
I0
F0.07952798249672845
sI1
Fnan
sI2
Fnan
sI3
Fnan
sI4
Fnan
ssS'ref2rmsmean'
p42
(dp43
I0
F1.3722525600000002
sI1
Fnan
sI2
Fnan
sI3
Fnan
sI4
Fnan
ssS'ref3rel'
p44
(dp45
I0
F1.5095068444663315
sI1
F1.505534367962927
sI2
F1.506690320522214
sI3
F1.5128923259385456
sI4
F1.5091499880259336
ssS'ref1flag'
p46
(dp47
I0
g7
sI1
g8
sI2
g9
sI3
g10
sI4
g11
ssS'ref2bkg'
p48
(dp49
I0
F8.680009
sI1
F8.443499
sI2
F9.47802
sI3
F9.197205
sI4
F9.240887
ssS'ref3magmean'
p50
(dp51
I0
F11.3698
sI1
Fnan
sI2
Fnan
sI3
Fnan
sI4
Fnan
ssS'ref1mean'
p52
(dp53
I0
F0.7169539858238672
sI1
Fnan
sI2
Fnan
sI3
Fnan
sI4
Fnan
ssS'ref1rms'
p54
(dp55
I0
F1.488063
sI1
F4.128025
sI2
F-2.577433
sI3
F2.964933
sI4
F-2.577702
ssS'ref2magmean'
p56
(dp57
I0
F11.738800000000001
sI1
Fnan
sI2
Fnan
sI3
Fnan
sI4
Fnan
ssS'ref2flag'
p58
(dp59
I0
g7
sI1
g8
sI2
g9
sI3
g10
sI4
g11
ssS'ref2'
p60
(dp61
I0
F5357.923333333334
sI1
F4992.02
sI2
F5164.223333333333
sI3
F4490.816666666667
sI4
F5367.116666666667
ssS'airmass'
p62
(dp63
I0
F1.091913
sI1
F1.093331
sI2
F1.096236
sI3
F1.09479
sI4
F1.090495
ssS'ref1'
p64
(dp65
I0
F4605.6
sI1
F4312.866666666667
sI2
F4457.886666666667
sI3
F3867.773333333333
sI4
F4626.703333333334
ssS'ref3'
p66
(dp67
I0
F7520.003333333333
sI1
F7004.413333333333
sI2
F7248.77
sI3
F6322.823333333334
sI4
F7541.086666666667
ssS'ref1bkg'
p68
(dp69
I0
F9.988341
sI1
F8.756236
sI2
F10.14693
sI3
F9.584872
sI4
F9.083956
ssS'ref1mag'
p70
(dp71
I0
F11.842
sI1
F11.913
sI2
F11.877
sI3
F12.031
sI4
F11.837
ssS'ref3magerr'
p72
(dp73
I0
F0.002
sI1
F0.002
sI2
F0.002
sI3
F0.002
sI4
F0.002
ssS'tabbymagmean'
p74
(dp75
I0
F12.046199999999999
sI1
Fnan
sI2
Fnan
sI3
Fnan
sI4
Fnan
ssS'ref1magmean'
p76
(dp77
I0
F11.9
sI1
Fnan
sI2
Fnan
sI3
Fnan
sI4
Fnan
ssS'ref2mag'
p78
(dp79
I0
F11.678
sI1
F11.754
sI2
F11.717
sI3
F11.869
sI4
F11.676
ssS'ref3rms'
p80
(dp81
I0
F3.07922
sI1
F2.804295
sI2
F4.255089
sI3
F-3.195184
sI4
F2.649538
ssS'ref3magmeanerr'
p82
(dp83
I0
F0.07894745087714998
sI1
Fnan
sI2
Fnan
sI3
Fnan
sI4
Fnan
ssS'ref1rel'
p84
(dp85
I0
F0.7152704187889459
sI1
F0.7190248212663208
sI2
F0.7182613487265227
sI3
F0.7153508593467756
sI4
F0.7168624809907704
ssS'exposure'
p86
(dp87
I0
F30.0
sI1
F30.0
sI2
F30.0
sI3
F30.0
sI4
F30.0
ssS'ref1magerr'
p88
(dp89
I0
F0.003
sI1
F0.003
sI2
F0.003
sI3
F0.003
sI4
F0.003
ssS'ref2magerr'
p90
(dp91
I0
F0.003
sI1
F0.003
sI2
F0.003
sI3
F0.003
sI4
F0.003
ssS'ref2rms'
p92
(dp93
I0
F3.687171
sI1
F-2.21418
sI2
F0.9870148
sI3
F2.702534
sI4
F1.698723
ssS'name'
p94
(dp95
I0
S'KIC8462852-20190504at105023_-25-1X1-030-V.fts.mag.1'
p96
sI1
S'KIC8462852-20190504at104925_-25-1X1-030-V.fts.mag.1'
p97
sI2
S'KIC8462852-20190504at104723_-25-1X1-030-V.fts.mag.1'
p98
sI3
S'KIC8462852-20190504at104828_-25-1X1-030-V.fts.mag.1'
p99
sI4
S'KIC8462852-20190504at105120_-25-1X1-030-V.fts.mag.1'
p100
ssS'ref3err'
p101
(dp102
I0
F0.002849303571148492
sI1
Fnan
sI2
Fnan
sI3
Fnan
sI4
Fnan
ssS'tabby'
p103
(dp104
I0
F4044.7
sI1
F3760.713333333333
sI2
F3897.0299999999997
sI3
F3383.6
sI4
F4032.3033333333337
ssS'ref1magmeanerr'
p105
(dp106
I0
F0.07935993951610613
sI1
Fnan
sI2
Fnan
sI3
Fnan
sI4
Fnan
ssS'filter'
p107
(dp108
I0
g1
sI1
g1
sI2
g1
sI3
g1
sI4
g1
ssS'tabbymagerr'
p109
(dp110
I0
F0.07986676405113667
sI1
Fnan
sI2
Fnan
sI3
Fnan
sI4
Fnan
ssS'tabbyrms'
p111
(dp112
I0
F2.885949
sI1
F2.922306
sI2
F-1.258566
sI3
F2.423566
sI4
F1.543136
ssS'ref3mean'
p113
(dp114
I0
F1.5087547693831902
sI1
Fnan
sI2
Fnan
sI3
Fnan
sI4
Fnan
ssS'median_JD'
p115
(dp116
I0
F2458607.9509837963
sI1
Fnan
sI2
Fnan
sI3
Fnan
sI4
Fnan
ssS'error'
p117
(dp118
I0
F0.0015807419124915947
sI1
Fnan
sI2
Fnan
sI3
Fnan
sI4
Fnan
ssS'ref3bkg'
p119
(dp120
I0
F9.272678
sI1
F9.565445
sI2
F9.096421
sI3
F10.16527
sI4
F10.50723
ssS'ref3mag'
p121
(dp122
I0
F11.309
sI1
F11.387
sI2
F11.349
sI3
F11.498
sI4
F11.306
ssS'mean'
p123
(dp124
I0
F0.6920093744832295
sI1
Fnan
sI2
Fnan
sI3
Fnan
sI4
Fnan
sss.