(dp0
S'i'
p1
(dp2
S'sigmean'
p3
(dp4
I0
F0.439316807415953
sI1
Fnan
sI2
Fnan
sI3
Fnan
sI4
Fnan
sI5
Fnan
sI6
Fnan
sI7
Fnan
sI8
Fnan
sI9
Fnan
sI10
Fnan
sI11
Fnan
sI12
Fnan
sI13
Fnan
sI14
Fnan
ssS'ref3flag'
p5
(dp6
I0
S'NoError'
p7
sI1
S'NoError'
p8
sI2
S'NoError'
p9
sI3
S'NoError'
p10
sI4
S'NoError'
p11
sI5
S'NoError'
p12
sI6
S'NoError'
p13
sI7
S'NoError'
p14
sI8
S'NoError'
p15
sI9
S'NoError'
p16
sI10
S'NoError'
p17
sI11
S'NoError'
p18
sI12
S'NoError'
p19
sI13
S'NoError'
p20
sI14
S'NoError'
p21
ssS'tabbyerr'
p22
(dp23
I0
F0.003
sI1
F0.003
sI2
F0.003
sI3
F0.003
sI4
F0.003
sI5
F0.003
sI6
F0.003
sI7
F0.003
sI8
F0.003
sI9
F0.003
sI10
F0.003
sI11
F0.003
sI12
F0.003
sI13
F0.003
sI14
F0.003
ssS'ref2rel'
p24
(dp25
I0
F0.9097359086840922
sI1
F0.909217541390943
sI2
F0.911660726895497
sI3
F0.9124798008079837
sI4
F0.9132338381093211
sI5
F0.9081227109572341
sI6
F0.9088889805403049
sI7
F0.9119406760424712
sI8
F0.9109850534177402
sI9
F0.9070548476180058
sI10
F0.9115541447600036
sI11
F0.9086888405903615
sI12
F0.9090682675189089
sI13
F0.9111306059464647
sI14
F0.9057801399586901
ssS'ref2err'
p26
(dp27
I0
F0.002109338334033791
sI1
Fnan
sI2
Fnan
sI3
Fnan
sI4
Fnan
sI5
Fnan
sI6
Fnan
sI7
Fnan
sI8
Fnan
sI9
Fnan
sI10
Fnan
sI11
Fnan
sI12
Fnan
sI13
Fnan
sI14
Fnan
ssS'ref2mean'
p28
(dp29
I0
F0.9099694722158682
sI1
Fnan
sI2
Fnan
sI3
Fnan
sI4
Fnan
sI5
Fnan
sI6
Fnan
sI7
Fnan
sI8
Fnan
sI9
Fnan
sI10
Fnan
sI11
Fnan
sI12
Fnan
sI13
Fnan
sI14
Fnan
ssS'tabbymag'
p30
(dp31
I0
F11.931
sI1
F11.916
sI2
F11.892
sI3
F11.873
sI4
F11.913
sI5
F11.95
sI6
F11.906
sI7
F11.9
sI8
F11.891
sI9
F11.875
sI10
F11.897
sI11
F11.874
sI12
F11.904
sI13
F11.898
sI14
F11.875
ssS'tabbybkg'
p32
(dp33
I0
F10.64583
sI1
F10.04356
sI2
F10.18635
sI3
F9.377811
sI4
F10.45817
sI5
F11.13157
sI6
F10.3963
sI7
F11.16598
sI8
F10.49541
sI9
F9.880913
sI10
F11.69988
sI11
F10.7187
sI12
F11.1611
sI13
F11.51
sI14
F10.36046
ssS'JD'
p34
(dp35
I0
F2458364.7409837963
sI1
F2458364.7043287037
sI2
F2458364.705810185
sI3
F2458364.7035995373
sI4
F2458364.7431944446
sI5
F2458364.7424652777
sI6
F2458364.7050810186
sI7
F2458364.724513889
sI8
F2458364.7252546297
sI9
F2458364.7230555555
sI10
F2458364.743935185
sI11
F2458364.741724537
sI12
F2458364.722326389
sI13
F2458364.706550926
sI14
F2458364.7237847224
ssS'ref3rmsmean'
p36
(dp37
I0
F0.20221906666666675
sI1
Fnan
sI2
Fnan
sI3
Fnan
sI4
Fnan
sI5
Fnan
sI6
Fnan
sI7
Fnan
sI8
Fnan
sI9
Fnan
sI10
Fnan
sI11
Fnan
sI12
Fnan
sI13
Fnan
sI14
Fnan
ssS'ref1rmsmean'
p38
(dp39
I0
F0.7923641333333331
sI1
Fnan
sI2
Fnan
sI3
Fnan
sI4
Fnan
sI5
Fnan
sI6
Fnan
sI7
Fnan
sI8
Fnan
sI9
Fnan
sI10
Fnan
sI11
Fnan
sI12
Fnan
sI13
Fnan
sI14
Fnan
ssS'relflux'
p40
(dp41
I0
F0.43513586929274684
sI1
F0.43981073473789606
sI2
F0.44141601941531006
sI3
F0.4403724854775646
sI4
F0.4382244132455881
sI5
F0.43640782316861476
sI6
F0.4414153819665647
sI7
F0.43773344872368924
sI8
F0.43903155667210475
sI9
F0.44144486867446747
sI10
F0.4362919382437054
sI11
F0.44102083350918125
sI12
F0.4399237247935543
sI13
F0.4380569121381886
sI14
F0.43928516305691245
ssS'sigerr'
p42
(dp43
I0
F0.001710302875788496
sI1
Fnan
sI2
Fnan
sI3
Fnan
sI4
Fnan
sI5
Fnan
sI6
Fnan
sI7
Fnan
sI8
Fnan
sI9
Fnan
sI10
Fnan
sI11
Fnan
sI12
Fnan
sI13
Fnan
sI14
Fnan
ssS'tabbyrmsmean'
p44
(dp45
I0
F1.6478278666666668
sI1
Fnan
sI2
Fnan
sI3
Fnan
sI4
Fnan
sI5
Fnan
sI6
Fnan
sI7
Fnan
sI8
Fnan
sI9
Fnan
sI10
Fnan
sI11
Fnan
sI12
Fnan
sI13
Fnan
sI14
Fnan
ssS'tabbyflag'
p46
(dp47
I0
g7
sI1
g8
sI2
g9
sI3
g10
sI4
g11
sI5
g12
sI6
g13
sI7
g14
sI8
g15
sI9
g16
sI10
g17
sI11
g18
sI12
g19
sI13
g20
sI14
g21
ssS'ref1err'
p48
(dp49
I0
F0.0023156137730622806
sI1
Fnan
sI2
Fnan
sI3
Fnan
sI4
Fnan
sI5
Fnan
sI6
Fnan
sI7
Fnan
sI8
Fnan
sI9
Fnan
sI10
Fnan
sI11
Fnan
sI12
Fnan
sI13
Fnan
sI14
Fnan
ssS'ref2magmeanerr'
p50
(dp51
I0
F0.01929791501197795
sI1
Fnan
sI2
Fnan
sI3
Fnan
sI4
Fnan
sI5
Fnan
sI6
Fnan
sI7
Fnan
sI8
Fnan
sI9
Fnan
sI10
Fnan
sI11
Fnan
sI12
Fnan
sI13
Fnan
sI14
Fnan
ssS'ref2rmsmean'
p52
(dp53
I0
F1.0846845333333333
sI1
Fnan
sI2
Fnan
sI3
Fnan
sI4
Fnan
sI5
Fnan
sI6
Fnan
sI7
Fnan
sI8
Fnan
sI9
Fnan
sI10
Fnan
sI11
Fnan
sI12
Fnan
sI13
Fnan
sI14
Fnan
ssS'ref3rel'
p54
(dp55
I0
F1.5014361616711698
sI1
F1.4968659012397993
sI2
F1.4977697432532489
sI3
F1.496954032327442
sI4
F1.4992807573968239
sI5
F1.5124100556675935
sI6
F1.5018990031024961
sI7
F1.5014696764370659
sI8
F1.4990293746226289
sI9
F1.5011134452650308
sI10
F1.4921836165199418
sI11
F1.5035993396425875
sI12
F1.5047258502809362
sI13
F1.502718874462385
sI14
F1.503768661514721
ssS'ref1flag'
p56
(dp57
I0
g7
sI1
g8
sI2
g9
sI3
g10
sI4
g11
sI5
g12
sI6
g13
sI7
g14
sI8
g15
sI9
g16
sI10
g17
sI11
g18
sI12
g19
sI13
g20
sI14
g21
ssS'ref2bkg'
p58
(dp59
I0
F14.36501
sI1
F11.89716
sI2
F12.36139
sI3
F11.84125
sI4
F12.7637
sI5
F13.98705
sI6
F14.07451
sI7
F12.17899
sI8
F12.25273
sI9
F11.89991
sI10
F12.78701
sI11
F12.59713
sI12
F13.39793
sI13
F13.4288
sI14
F12.29937
ssS'ref3magmean'
p60
(dp61
I0
F10.732533333333333
sI1
Fnan
sI2
Fnan
sI3
Fnan
sI4
Fnan
sI5
Fnan
sI6
Fnan
sI7
Fnan
sI8
Fnan
sI9
Fnan
sI10
Fnan
sI11
Fnan
sI12
Fnan
sI13
Fnan
sI14
Fnan
ssS'ref1mean'
p62
(dp63
I0
F0.6974430365719685
sI1
Fnan
sI2
Fnan
sI3
Fnan
sI4
Fnan
sI5
Fnan
sI6
Fnan
sI7
Fnan
sI8
Fnan
sI9
Fnan
sI10
Fnan
sI11
Fnan
sI12
Fnan
sI13
Fnan
sI14
Fnan
ssS'ref1rms'
p64
(dp65
I0
F3.367786
sI1
F2.984436
sI2
F3.044687
sI3
F-2.835728
sI4
F-2.926776
sI5
F2.698153
sI6
F-3.348566
sI7
F2.045824
sI8
F-2.588795
sI9
F3.876475
sI10
F2.902037
sI11
F2.163965
sI12
F1.700691
sI13
F1.837931
sI14
F-3.036658
ssS'ref2magmean'
p66
(dp67
I0
F11.075133333333332
sI1
Fnan
sI2
Fnan
sI3
Fnan
sI4
Fnan
sI5
Fnan
sI6
Fnan
sI7
Fnan
sI8
Fnan
sI9
Fnan
sI10
Fnan
sI11
Fnan
sI12
Fnan
sI13
Fnan
sI14
Fnan
ssS'ref2flag'
p68
(dp69
I0
g7
sI1
g8
sI2
g9
sI3
g10
sI4
g11
sI5
g12
sI6
g13
sI7
g14
sI8
g15
sI9
g16
sI10
g17
sI11
g18
sI12
g19
sI13
g20
sI14
g21
ssS'ref2'
p70
(dp71
I0
F9146.516666666666
sI1
F9172.97
sI2
F9357.843333333332
sI3
F9551.493333333334
sI4
F9257.606666666667
sI5
F8949.476666666666
sI6
F9218.953333333333
sI7
F9367.623333333333
sI8
F9415.359999999999
sI9
F9467.71
sI10
F9424.85
sI11
F9499.68
sI12
F9271.093333333332
sI13
F9373.369999999999
sI14
F9512.42
ssS'airmass'
p72
(dp73
I0
F1.019882
sI1
F1.004638
sI2
F1.0046709999999999
sI3
F1.00464
sI4
F1.021787
sI5
F1.0211370000000002
sI6
F1.004648
sI7
F1.0092780000000001
sI8
F1.00962
sI9
F1.008634
sI10
F1.022446
sI11
F1.020506
sI12
F1.008332
sI13
F1.004705
sI14
F1.0089489999999999
ssS'ref1'
p74
(dp75
I0
F7563.533333333334
sI1
F7613.886666666667
sI2
F7731.37
sI3
F7884.673333333334
sI4
F7621.259999999999
sI5
F7369.413333333333
sI6
F7631.993333333333
sI7
F7717.77
sI8
F7781.456666666667
sI9
F7865.876666666666
sI10
F7815.6466666666665
sI11
F7858.596666666666
sI12
F7659.193333333333
sI13
F7726.843333333333
sI14
F7906.673333333334
ssS'ref3'
p76
(dp77
I0
F12544.536666666665
sI1
F12563.836666666666
sI2
F12797.853333333333
sI3
F13050.57
sI4
F12653.08
sI5
F12340.426666666666
sI6
F12654.21
sI7
F12826.6
sI8
F12889.266666666666
sI9
F13009.84
sI10
F12862.993333333334
sI11
F13049.946666666667
sI12
F12737.72
sI13
F12848.406666666668
sI14
F13097.143333333333
ssS'ref1bkg'
p78
(dp79
I0
F12.77624
sI1
F11.00292
sI2
F12.47429
sI3
F11.50379
sI4
F13.36028
sI5
F13.69221
sI6
F12.77049
sI7
F11.99727
sI8
F11.74583
sI9
F10.36093
sI10
F11.76365
sI11
F12.23311
sI12
F12.09258
sI13
F12.61785
sI14
F11.88869
ssS'ref1mag'
p80
(dp81
I0
F11.303
sI1
F11.296
sI2
F11.279
sI3
F11.258
sI4
F11.295
sI5
F11.331
sI6
F11.293
sI7
F11.281
sI8
F11.272
sI9
F11.261
sI10
F11.268
sI11
F11.262
sI12
F11.29
sI13
F11.28
sI14
F11.255
ssS'ref3magerr'
p82
(dp83
I0
F0.002
sI1
F0.002
sI2
F0.002
sI3
F0.002
sI4
F0.002
sI5
F0.002
sI6
F0.002
sI7
F0.002
sI8
F0.002
sI9
F0.002
sI10
F0.002
sI11
F0.002
sI12
F0.002
sI13
F0.002
sI14
F0.002
ssS'tabbymagmean'
p84
(dp85
I0
F0.43903807820773927
sI1
Fnan
sI2
Fnan
sI3
Fnan
sI4
Fnan
sI5
Fnan
sI6
Fnan
sI7
Fnan
sI8
Fnan
sI9
Fnan
sI10
Fnan
sI11
Fnan
sI12
Fnan
sI13
Fnan
sI14
Fnan
ssS'ref1magmean'
p86
(dp87
I0
F11.2816
sI1
Fnan
sI2
Fnan
sI3
Fnan
sI4
Fnan
sI5
Fnan
sI6
Fnan
sI7
Fnan
sI8
Fnan
sI9
Fnan
sI10
Fnan
sI11
Fnan
sI12
Fnan
sI13
Fnan
sI14
Fnan
ssS'ref2mag'
p88
(dp89
I0
F11.097
sI1
F11.094
sI2
F11.072
sI3
F11.05
sI4
F11.084
sI5
F11.121
sI6
F11.088
sI7
F11.071
sI8
F11.065
sI9
F11.059
sI10
F11.064
sI11
F11.056
sI12
F11.082
sI13
F11.07
sI14
F11.054
ssS'ref3rms'
p90
(dp91
I0
F-2.124797
sI1
F-2.619203
sI2
F3.236809
sI3
F1.119794
sI4
F4.044646
sI5
F4.398389
sI6
F-1.367345
sI7
F1.020155
sI8
F-2.607415
sI9
F-1.887834
sI10
F2.189569
sI11
F2.650694
sI12
F-3.859808
sI13
F-3.665699
sI14
F2.505331
ssS'ref3magmeanerr'
p92
(dp93
I0
F0.018434698132545845
sI1
Fnan
sI2
Fnan
sI3
Fnan
sI4
Fnan
sI5
Fnan
sI6
Fnan
sI7
Fnan
sI8
Fnan
sI9
Fnan
sI10
Fnan
sI11
Fnan
sI12
Fnan
sI13
Fnan
sI14
Fnan
ssS'ref1rel'
p94
(dp95
I0
F0.6973873713832248
sI1
F0.7005524577207141
sI2
F0.6979126060731711
sI3
F0.6976950039517043
sI4
F0.6956660113801392
sI5
F0.6922918547774838
sI6
F0.6978408396651666
sI7
F0.6954755644374129
sI8
F0.6977437267126044
sI9
F0.6998873691008732
sI10
F0.7013371863555513
sI11
F0.697004591945942
sI12
F0.6960114766145199
sI13
F0.6954298433683596
sI14
F0.6994096450926592
ssS'exposure'
p96
(dp97
I0
F30.0
sI1
F30.0
sI2
F30.0
sI3
F30.0
sI4
F30.0
sI5
F30.0
sI6
F30.0
sI7
F30.0
sI8
F30.0
sI9
F30.0
sI10
F30.0
sI11
F30.0
sI12
F30.0
sI13
F30.0
sI14
F30.0
ssS'ref1magerr'
p98
(dp99
I0
F0.002
sI1
F0.002
sI2
F0.002
sI3
F0.002
sI4
F0.002
sI5
F0.002
sI6
F0.002
sI7
F0.002
sI8
F0.002
sI9
F0.002
sI10
F0.002
sI11
F0.002
sI12
F0.002
sI13
F0.002
sI14
F0.002
ssS'ref2magerr'
p100
(dp101
I0
F0.002
sI1
F0.002
sI2
F0.002
sI3
F0.002
sI4
F0.002
sI5
F0.002
sI6
F0.002
sI7
F0.002
sI8
F0.002
sI9
F0.002
sI10
F0.002
sI11
F0.002
sI12
F0.002
sI13
F0.002
sI14
F0.002
ssS'ref2rms'
p102
(dp103
I0
F-3.847527
sI1
F2.278158
sI2
F3.383831
sI3
F-2.667812
sI4
F4.382855
sI5
F2.698166
sI6
F2.73753
sI7
F3.02239
sI8
F3.618763
sI9
F-3.496442
sI10
F-2.316181
sI11
F3.319304
sI12
F-2.079044
sI13
F1.974386
sI14
F3.261891
ssS'name'
p104
(dp105
I0
S"KIC8462852-20180903at054659_-25-1X1-030-i'_cal.fts.mag.1"
p106
sI1
S"KIC8462852-20180903at045414_-25-1X1-030-i'_cal.fts.mag.1"
p107
sI2
S"KIC8462852-20180903at045622_-25-1X1-030-i'_cal.fts.mag.1"
p108
sI3
S"KIC8462852-20180903at045309_-25-1X1-030-i'_cal.fts.mag.1"
p109
sI4
S"KIC8462852-20180903at055012_-25-1X1-030-i'_cal.fts.mag.1"
p110
sI5
S"KIC8462852-20180903at054909_-25-1X1-030-i'_cal.fts.mag.1"
p111
sI6
S"KIC8462852-20180903at045519_-25-1X1-030-i'_cal.fts.mag.1"
p112
sI7
S"KIC8462852-20180903at052318_-25-1X1-030-i'_cal.fts.mag.1"
p113
sI8
S"KIC8462852-20180903at052422_-25-1X1-030-i'_cal.fts.mag.1"
p114
sI9
S"KIC8462852-20180903at052112_-25-1X1-030-i'_cal.fts.mag.1"
p115
sI10
S"KIC8462852-20180903at055116_-25-1X1-030-i'_cal.fts.mag.1"
p116
sI11
S"KIC8462852-20180903at054805_-25-1X1-030-i'_cal.fts.mag.1"
p117
sI12
S"KIC8462852-20180903at052007_-25-1X1-030-i'_cal.fts.mag.1"
p118
sI13
S"KIC8462852-20180903at045726_-25-1X1-030-i'_cal.fts.mag.1"
p119
sI14
S"KIC8462852-20180903at052215_-25-1X1-030-i'_cal.fts.mag.1"
p120
ssS'ref3err'
p121
(dp122
I0
F0.004560227324911137
sI1
Fnan
sI2
Fnan
sI3
Fnan
sI4
Fnan
sI5
Fnan
sI6
Fnan
sI7
Fnan
sI8
Fnan
sI9
Fnan
sI10
Fnan
sI11
Fnan
sI12
Fnan
sI13
Fnan
sI14
Fnan
ssS'tabby'
p123
(dp124
I0
F4243.24
sI1
F4302.916666666667
sI2
F4397.543333333333
sI3
F4475.173333333334
sI4
F4313.873333333333
sI5
F4169.05
sI6
F4341.343333333333
sI7
F4364.493333333334
sI8
F4402.913333333333
sI9
F4464.983333333334
sI10
F4377.97
sI11
F4470.22
sI12
F4350.553333333333
sI13
F4373.066666666667
sI14
F4468.443333333333
ssS'ref1magmeanerr'
p125
(dp126
I0
F0.020433865447899283
sI1
Fnan
sI2
Fnan
sI3
Fnan
sI4
Fnan
sI5
Fnan
sI6
Fnan
sI7
Fnan
sI8
Fnan
sI9
Fnan
sI10
Fnan
sI11
Fnan
sI12
Fnan
sI13
Fnan
sI14
Fnan
ssS'filter'
p127
(dp128
I0
S"i'"
p129
sI1
S"i'"
p130
sI2
S"i'"
p131
sI3
S"i'"
p132
sI4
S"i'"
p133
sI5
S"i'"
p134
sI6
S"i'"
p135
sI7
S"i'"
p136
sI8
S"i'"
p137
sI9
S"i'"
p138
sI10
S"i'"
p139
sI11
S"i'"
p140
sI12
S"i'"
p141
sI13
S"i'"
p142
sI14
S"i'"
p143
ssS'tabbymagerr'
p144
(dp145
I0
F0.002022494870105311
sI1
Fnan
sI2
Fnan
sI3
Fnan
sI4
Fnan
sI5
Fnan
sI6
Fnan
sI7
Fnan
sI8
Fnan
sI9
Fnan
sI10
Fnan
sI11
Fnan
sI12
Fnan
sI13
Fnan
sI14
Fnan
ssS'tabbyrms'
p146
(dp147
I0
F3.8499
sI1
F-1.30042
sI2
F3.838439
sI3
F3.066335
sI4
F2.8812
sI5
F3.889252
sI6
F3.769591
sI7
F-4.154822
sI8
F-2.707461
sI9
F4.286832
sI10
F-2.560966
sI11
F1.944216
sI12
F2.88717
sI13
F3.36139
sI14
F1.666762
ssS'ref3mean'
p148
(dp149
I0
F1.5010149662269248
sI1
Fnan
sI2
Fnan
sI3
Fnan
sI4
Fnan
sI5
Fnan
sI6
Fnan
sI7
Fnan
sI8
Fnan
sI9
Fnan
sI10
Fnan
sI11
Fnan
sI12
Fnan
sI13
Fnan
sI14
Fnan
ssS'median_JD'
p150
(dp151
I0
F2458364.7237847224
sI1
Fnan
sI2
Fnan
sI3
Fnan
sI4
Fnan
sI5
Fnan
sI6
Fnan
sI7
Fnan
sI8
Fnan
sI9
Fnan
sI10
Fnan
sI11
Fnan
sI12
Fnan
sI13
Fnan
sI14
Fnan
ssS'error'
p152
(dp153
I0
F0.002022494870105311
sI1
Fnan
sI2
Fnan
sI3
Fnan
sI4
Fnan
sI5
Fnan
sI6
Fnan
sI7
Fnan
sI8
Fnan
sI9
Fnan
sI10
Fnan
sI11
Fnan
sI12
Fnan
sI13
Fnan
sI14
Fnan
ssS'ref3bkg'
p154
(dp155
I0
F15.41794
sI1
F13.91599
sI2
F14.02358
sI3
F13.04367
sI4
F15.30575
sI5
F16.62095
sI6
F15.27081
sI7
F15.32666
sI8
F13.99269
sI9
F13.4663
sI10
F15.63104
sI11
F13.763
sI12
F16.04046
sI13
F14.99278
sI14
F12.79987
ssS'ref3mag'
p156
(dp157
I0
F10.754
sI1
F10.752
sI2
F10.732
sI3
F10.711
sI4
F10.745
sI5
F10.772
sI6
F10.744
sI7
F10.73
sI8
F10.724
sI9
F10.714
sI10
F10.727
sI11
F10.711
sI12
F10.737
sI13
F10.728
sI14
F10.707
ssS'mean'
p158
(dp159
I0
F0.43903807820773927
sI1
Fnan
sI2
Fnan
sI3
Fnan
sI4
Fnan
sI5
Fnan
sI6
Fnan
sI7
Fnan
sI8
Fnan
sI9
Fnan
sI10
Fnan
sI11
Fnan
sI12
Fnan
sI13
Fnan
sI14
Fnan
sssS'r'
p160
(dp161
g3
(dp162
I0
F0.5486147956151352
sI1
Fnan
sI2
Fnan
sI3
Fnan
sI4
Fnan
sI5
Fnan
sI6
Fnan
sI7
Fnan
sI8
Fnan
sI9
Fnan
sI10
Fnan
sI11
Fnan
sI12
Fnan
sI13
Fnan
sI14
Fnan
ssg5
(dp163
I0
S'NoError'
p164
sI1
S'NoError'
p165
sI2
S'NoError'
p166
sI3
S'NoError'
p167
sI4
S'NoError'
p168
sI5
S'NoError'
p169
sI6
S'NoError'
p170
sI7
S'NoError'
p171
sI8
S'NoError'
p172
sI9
S'NoError'
p173
sI10
S'NoError'
p174
sI11
S'NoError'
p175
sI12
S'NoError'
p176
sI13
S'NoError'
p177
sI14
S'NoError'
p178
ssg22
(dp179
I0
F0.002
sI1
F0.002
sI2
F0.002
sI3
F0.002
sI4
F0.002
sI5
F0.002
sI6
F0.002
sI7
F0.002
sI8
F0.002
sI9
F0.002
sI10
F0.002
sI11
F0.002
sI12
F0.002
sI13
F0.002
sI14
F0.002
ssg24
(dp180
I0
F0.8979116894965564
sI1
F0.897400859620812
sI2
F0.8936866871568059
sI3
F0.8957913304486371
sI4
F0.8950965182808428
sI5
F0.8942453996834966
sI6
F0.8930085820497546
sI7
F0.8963066996952126
sI8
F0.8961198945245745
sI9
F0.8954570248692609
sI10
F0.8938510748335672
sI11
F0.8958179666281616
sI12
F0.894712491365519
sI13
F0.8923543252537568
sI14
F0.8933313847341982
ssg26
(dp181
I0
F0.0016071960414697174
sI1
Fnan
sI2
Fnan
sI3
Fnan
sI4
Fnan
sI5
Fnan
sI6
Fnan
sI7
Fnan
sI8
Fnan
sI9
Fnan
sI10
Fnan
sI11
Fnan
sI12
Fnan
sI13
Fnan
sI14
Fnan
ssg28
(dp182
I0
F0.8950061285760771
sI1
Fnan
sI2
Fnan
sI3
Fnan
sI4
Fnan
sI5
Fnan
sI6
Fnan
sI7
Fnan
sI8
Fnan
sI9
Fnan
sI10
Fnan
sI11
Fnan
sI12
Fnan
sI13
Fnan
sI14
Fnan
ssg30
(dp183
I0
F11.212
sI1
F11.19
sI2
F11.17
sI3
F11.259
sI4
F11.178
sI5
F11.18
sI6
F11.227
sI7
F11.191
sI8
F11.209
sI9
F11.194
sI10
F11.205
sI11
F11.182
sI12
F11.181
sI13
F11.177
sI14
F11.179
ssg32
(dp184
I0
F12.62985
sI1
F11.92691
sI2
F10.70714
sI3
F14.9257
sI4
F11.83677
sI5
F11.3842
sI6
F13.45393
sI7
F12.86309
sI8
F12.69679
sI9
F11.81432
sI10
F12.39266
sI11
F11.66823
sI12
F11.35768
sI13
F11.05168
sI14
F10.55171
ssg34
(dp185
I0
F2458364.7021064814
sI1
F2458364.739490741
sI2
F2458364.700648148
sI3
F2458364.738761574
sI4
F2458364.7028472223
sI5
F2458364.6999189816
sI6
F2458364.720844907
sI7
F2458364.701377315
sI8
F2458364.721574074
sI9
F2458364.7373032407
sI10
F2458364.7380324076
sI11
F2458364.7402314814
sI12
F2458364.7186574074
sI13
F2458364.720115741
sI14
F2458364.719386574
ssg36
(dp186
I0
F2.7395472
sI1
Fnan
sI2
Fnan
sI3
Fnan
sI4
Fnan
sI5
Fnan
sI6
Fnan
sI7
Fnan
sI8
Fnan
sI9
Fnan
sI10
Fnan
sI11
Fnan
sI12
Fnan
sI13
Fnan
sI14
Fnan
ssg38
(dp187
I0
F0.8106478666666667
sI1
Fnan
sI2
Fnan
sI3
Fnan
sI4
Fnan
sI5
Fnan
sI6
Fnan
sI7
Fnan
sI8
Fnan
sI9
Fnan
sI10
Fnan
sI11
Fnan
sI12
Fnan
sI13
Fnan
sI14
Fnan
ssg40
(dp188
I0
F0.5453852845449606
sI1
F0.5480957530826788
sI2
F0.5503936181619498
sI3
F0.5455275475795388
sI4
F0.5478292326634588
sI5
F0.5499400463272479
sI6
F0.5471011747896029
sI7
F0.5448529671298802
sI8
F0.5508383493921135
sI9
F0.5469259163725826
sI10
F0.5501830114426987
sI11
F0.5489084948118401
sI12
F0.5498332059738454
sI13
F0.5500253112987652
sI14
F0.5496201921706074
ssg42
(dp189
I0
F0.0017502217965253701
sI1
Fnan
sI2
Fnan
sI3
Fnan
sI4
Fnan
sI5
Fnan
sI6
Fnan
sI7
Fnan
sI8
Fnan
sI9
Fnan
sI10
Fnan
sI11
Fnan
sI12
Fnan
sI13
Fnan
sI14
Fnan
ssg44
(dp190
I0
F1.5099704666666667
sI1
Fnan
sI2
Fnan
sI3
Fnan
sI4
Fnan
sI5
Fnan
sI6
Fnan
sI7
Fnan
sI8
Fnan
sI9
Fnan
sI10
Fnan
sI11
Fnan
sI12
Fnan
sI13
Fnan
sI14
Fnan
ssg46
(dp191
I0
g164
sI1
g165
sI2
g166
sI3
g167
sI4
g168
sI5
g169
sI6
g170
sI7
g171
sI8
g172
sI9
g173
sI10
g174
sI11
g175
sI12
g176
sI13
g177
sI14
g178
ssg48
(dp192
I0
F0.0017676470183608155
sI1
Fnan
sI2
Fnan
sI3
Fnan
sI4
Fnan
sI5
Fnan
sI6
Fnan
sI7
Fnan
sI8
Fnan
sI9
Fnan
sI10
Fnan
sI11
Fnan
sI12
Fnan
sI13
Fnan
sI14
Fnan
ssg50
(dp193
I0
F0.021679483388678877
sI1
Fnan
sI2
Fnan
sI3
Fnan
sI4
Fnan
sI5
Fnan
sI6
Fnan
sI7
Fnan
sI8
Fnan
sI9
Fnan
sI10
Fnan
sI11
Fnan
sI12
Fnan
sI13
Fnan
sI14
Fnan
ssg52
(dp194
I0
F0.9013712666666667
sI1
Fnan
sI2
Fnan
sI3
Fnan
sI4
Fnan
sI5
Fnan
sI6
Fnan
sI7
Fnan
sI8
Fnan
sI9
Fnan
sI10
Fnan
sI11
Fnan
sI12
Fnan
sI13
Fnan
sI14
Fnan
ssg54
(dp195
I0
F1.4917818253309303
sI1
F1.493347815864836
sI2
F1.494536542201381
sI3
F1.499120853737038
sI4
F1.4967566705228756
sI5
F1.491648422379055
sI6
F1.49723132738001
sI7
F1.4980296140517968
sI8
F1.491447381879869
sI9
F1.495628418214361
sI10
F1.4950760546580826
sI11
F1.4922815191025858
sI12
F1.4907666688748844
sI13
F1.5002877068061824
sI14
F1.4969082444297284
ssg56
(dp196
I0
g164
sI1
g165
sI2
g166
sI3
g167
sI4
g168
sI5
g169
sI6
g170
sI7
g171
sI8
g172
sI9
g173
sI10
g174
sI11
g175
sI12
g176
sI13
g177
sI14
g178
ssg58
(dp197
I0
F15.27425
sI1
F15.14972
sI2
F13.32959
sI3
F20.13901
sI4
F13.59103
sI5
F13.59258
sI6
F17.47605
sI7
F12.8556
sI8
F16.24685
sI9
F14.67486
sI10
F16.23988
sI11
F14.19878
sI12
F13.68772
sI13
F14.29205
sI14
F14.55368
ssg60
(dp198
I0
F10.272333333333332
sI1
Fnan
sI2
Fnan
sI3
Fnan
sI4
Fnan
sI5
Fnan
sI6
Fnan
sI7
Fnan
sI8
Fnan
sI9
Fnan
sI10
Fnan
sI11
Fnan
sI12
Fnan
sI13
Fnan
sI14
Fnan
ssg62
(dp199
I0
F0.7140482677772848
sI1
Fnan
sI2
Fnan
sI3
Fnan
sI4
Fnan
sI5
Fnan
sI6
Fnan
sI7
Fnan
sI8
Fnan
sI9
Fnan
sI10
Fnan
sI11
Fnan
sI12
Fnan
sI13
Fnan
sI14
Fnan
ssg64
(dp200
I0
F2.383653
sI1
F4.233329
sI2
F-3.004822
sI3
F5.720665
sI4
F-2.600895
sI5
F2.970097
sI6
F-2.516545
sI7
F-3.238163
sI8
F-3.669469
sI9
F-2.364109
sI10
F3.132922
sI11
F2.714107
sI12
F2.094047
sI13
F3.991323
sI14
F2.313578
ssg66
(dp201
I0
F10.625
sI1
Fnan
sI2
Fnan
sI3
Fnan
sI4
Fnan
sI5
Fnan
sI6
Fnan
sI7
Fnan
sI8
Fnan
sI9
Fnan
sI10
Fnan
sI11
Fnan
sI12
Fnan
sI13
Fnan
sI14
Fnan
ssg68
(dp202
I0
g164
sI1
g165
sI2
g166
sI3
g167
sI4
g168
sI5
g169
sI6
g170
sI7
g171
sI8
g172
sI9
g173
sI10
g174
sI11
g175
sI12
g176
sI13
g177
sI14
g178
ssg70
(dp203
I0
F14014.67
sI1
F14227.99
sI2
F14392.130000000001
sI3
F13401.883333333333
sI4
F14366.746666666668
sI5
F14280.456666666667
sI6
F13731.15
sI7
F14291.123333333333
sI8
F13906.263333333334
sI9
F14191.813333333334
sI10
F13950.463333333335
sI11
F14302.769999999999
sI12
F14278.093333333332
sI13
F14297.806666666667
sI14
F14293.390000000001
ssg72
(dp204
I0
F1.004681
sI1
F1.018667
sI2
F1.004769
sI3
F1.018082
sI4
F1.0046549999999999
sI5
F1.004831
sI6
F1.0077530000000001
sI7
F1.0047190000000001
sI8
F1.008032
sI9
F1.016965
sI10
F1.017518
sI11
F1.019255
sI12
F1.006991
sI13
F1.007488
sI14
F1.007231
ssg74
(dp205
I0
F11892.34
sI1
F12071.893333333333
sI2
F12278.403333333332
sI3
F11360.776666666667
sI4
F12210.880000000001
sI5
F12193.583333333334
sI6
F11708.236666666666
sI7
F12112.333333333334
sI8
F11838.29
sI9
F12063.366666666667
sI10
F11894.326666666666
sI11
F12175.67
sI12
F12188.7
sI13
F12181.696666666667
sI14
F12183.476666666666
ssg76
(dp206
I0
F19323.803333333333
sI1
F19637.436666666665
sI2
F19930.043333333335
sI3
F18561.11
sI4
F19890.12
sI5
F19744.98
sI6
F19044.32333333333
sI7
F19776.58
sI8
F19198.32333333333
sI9
F19633.996666666666
sI10
F19319.963333333333
sI11
F19756.643333333333
sI12
F19727.906666666666
sI13
F19863.436666666665
sI14
F19816.719999999998
ssg78
(dp207
I0
F14.5077
sI1
F13.83535
sI2
F12.67502
sI3
F17.30107
sI4
F12.32069
sI5
F11.66754
sI6
F16.31854
sI7
F12.58722
sI8
F16.01338
sI9
F14.34832
sI10
F14.22754
sI11
F13.56955
sI12
F13.17502
sI13
F13.3692
sI14
F13.76603
ssg80
(dp208
I0
F10.812
sI1
F10.796
sI2
F10.777
sI3
F10.861
sI4
F10.783
sI5
F10.785
sI6
F10.829
sI7
F10.792
sI8
F10.817
sI9
F10.796
sI10
F10.812
sI11
F10.786
sI12
F10.785
sI13
F10.786
sI14
F10.786
ssg82
(dp209
I0
F0.001
sI1
F0.001
sI2
F0.001
sI3
F0.001
sI4
F0.001
sI5
F0.001
sI6
F0.001
sI7
F0.001
sI8
F0.001
sI9
F0.001
sI10
F0.001
sI11
F0.001
sI12
F0.001
sI13
F0.001
sI14
F0.001
ssg84
(dp210
I0
F0.5483640070494514
sI1
Fnan
sI2
Fnan
sI3
Fnan
sI4
Fnan
sI5
Fnan
sI6
Fnan
sI7
Fnan
sI8
Fnan
sI9
Fnan
sI10
Fnan
sI11
Fnan
sI12
Fnan
sI13
Fnan
sI14
Fnan
ssg86
(dp211
I0
F10.800199999999998
sI1
Fnan
sI2
Fnan
sI3
Fnan
sI4
Fnan
sI5
Fnan
sI6
Fnan
sI7
Fnan
sI8
Fnan
sI9
Fnan
sI10
Fnan
sI11
Fnan
sI12
Fnan
sI13
Fnan
sI14
Fnan
ssg88
(dp212
I0
F10.634
sI1
F10.617
sI2
F10.605
sI3
F10.682
sI4
F10.607
sI5
F10.613
sI6
F10.656
sI7
F10.612
sI8
F10.642
sI9
F10.62
sI10
F10.639
sI11
F10.611
sI12
F10.613
sI13
F10.612
sI14
F10.612
ssg90
(dp213
I0
F3.71029
sI1
F3.885641
sI2
F3.724771
sI3
F5.524865
sI4
F2.928157
sI5
F2.967518
sI6
F5.592112
sI7
F3.91024
sI8
F4.291417
sI9
F1.816149
sI10
F-3.780479
sI11
F4.077918
sI12
F1.336704
sI13
F-2.20469
sI14
F3.312595
ssg92
(dp214
I0
F0.021655308378140913
sI1
Fnan
sI2
Fnan
sI3
Fnan
sI4
Fnan
sI5
Fnan
sI6
Fnan
sI7
Fnan
sI8
Fnan
sI9
Fnan
sI10
Fnan
sI11
Fnan
sI12
Fnan
sI13
Fnan
sI14
Fnan
ssg94
(dp215
I0
F0.7134303890340109
sI1
F0.7129331900734949
sI2
F0.7154793616410459
sI3
F0.710870633935203
sI4
F0.7129011604486108
sI5
F0.7167333928900839
sI6
F0.7144511109018309
sI7
F0.7110742520457547
sI8
F0.7152054257134158
sI9
F0.7132640233399684
sI10
F0.7150089649185943
sI11
F0.7149665134181212
sI12
F0.7168558489678293
sI13
F0.7131881323991623
sI14
F0.7143616169321451
ssg96
(dp216
I0
F30.0
sI1
F30.0
sI2
F30.0
sI3
F30.0
sI4
F30.0
sI5
F30.0
sI6
F30.0
sI7
F30.0
sI8
F30.0
sI9
F30.0
sI10
F30.0
sI11
F30.0
sI12
F30.0
sI13
F30.0
sI14
F30.0
ssg98
(dp217
I0
F0.002
sI1
F0.002
sI2
F0.002
sI3
F0.002
sI4
F0.002
sI5
F0.002
sI6
F0.002
sI7
F0.002
sI8
F0.002
sI9
F0.002
sI10
F0.002
sI11
F0.002
sI12
F0.002
sI13
F0.002
sI14
F0.002
ssg100
(dp218
I0
F0.002
sI1
F0.002
sI2
F0.002
sI3
F0.002
sI4
F0.002
sI5
F0.002
sI6
F0.002
sI7
F0.002
sI8
F0.002
sI9
F0.002
sI10
F0.002
sI11
F0.002
sI12
F0.002
sI13
F0.002
sI14
F0.002
ssg102
(dp219
I0
F3.305567
sI1
F1.457136
sI2
F-2.640539
sI3
F-4.841613
sI4
F1.519556
sI5
F-3.371041
sI6
F4.219638
sI7
F3.877428
sI8
F2.576005
sI9
F3.633649
sI10
F-2.025944
sI11
F-2.678639
sI12
F3.187254
sI13
F3.151017
sI14
F2.151095
ssg104
(dp220
I0
S"KIC8462852-20180903at045102_-25-1X1-030-r'_cal.fts.mag.1"
p221
sI1
S"KIC8462852-20180903at054452_-25-1X1-030-r'_cal.fts.mag.1"
p222
sI2
S"KIC8462852-20180903at044856_-25-1X1-030-r'_cal.fts.mag.1"
p223
sI3
S"KIC8462852-20180903at054349_-25-1X1-030-r'_cal.fts.mag.1"
p224
sI4
S"KIC8462852-20180903at045206_-25-1X1-030-r'_cal.fts.mag.1"
p225
sI5
S"KIC8462852-20180903at044751_-25-1X1-030-r'_cal.fts.mag.1"
p226
sI6
S"KIC8462852-20180903at051801_-25-1X1-030-r'_cal.fts.mag.1"
p227
sI7
S"KIC8462852-20180903at044959_-25-1X1-030-r'_cal.fts.mag.1"
p228
sI8
S"KIC8462852-20180903at051904_-25-1X1-030-r'_cal.fts.mag.1"
p229
sI9
S"KIC8462852-20180903at054141_-25-1X1-030-r'_cal.fts.mag.1"
p230
sI10
S"KIC8462852-20180903at054246_-25-1X1-030-r'_cal.fts.mag.1"
p231
sI11
S"KIC8462852-20180903at054556_-25-1X1-030-r'_cal.fts.mag.1"
p232
sI12
S"KIC8462852-20180903at051450_-25-1X1-030-r'_cal.fts.mag.1"
p233
sI13
S"KIC8462852-20180903at051657_-25-1X1-030-r'_cal.fts.mag.1"
p234
sI14
S"KIC8462852-20180903at051555_-25-1X1-030-r'_cal.fts.mag.1"
p235
ssg121
(dp236
I0
F0.0030318744522911095
sI1
Fnan
sI2
Fnan
sI3
Fnan
sI4
Fnan
sI5
Fnan
sI6
Fnan
sI7
Fnan
sI8
Fnan
sI9
Fnan
sI10
Fnan
sI11
Fnan
sI12
Fnan
sI13
Fnan
sI14
Fnan
ssg123
(dp237
I0
F8222.74
sI1
F8392.683333333332
sI2
F8549.553333333333
sI3
F7878.1033333333335
sI4
F8485.463333333333
sI5
F8472.563333333334
sI6
F8112.363333333333
sI7
F8387.109999999999
sI8
F8252.086666666666
sI9
F8365.993333333334
sI10
F8282.96
sI11
F8459.609999999999
sI12
F8466.46
sI13
F8496.596666666666
sI14
F8481.296666666667
ssg125
(dp238
I0
F0.0225046027038283
sI1
Fnan
sI2
Fnan
sI3
Fnan
sI4
Fnan
sI5
Fnan
sI6
Fnan
sI7
Fnan
sI8
Fnan
sI9
Fnan
sI10
Fnan
sI11
Fnan
sI12
Fnan
sI13
Fnan
sI14
Fnan
ssg127
(dp239
I0
S"r'"
p240
sI1
S"r'"
p241
sI2
S"r'"
p242
sI3
S"r'"
p243
sI4
S"r'"
p244
sI5
S"r'"
p245
sI6
S"r'"
p246
sI7
S"r'"
p247
sI8
S"r'"
p248
sI9
S"r'"
p249
sI10
S"r'"
p250
sI11
S"r'"
p251
sI12
S"r'"
p252
sI13
S"r'"
p253
sI14
S"r'"
p254
ssg144
(dp255
I0
F0.0020016742759993394
sI1
Fnan
sI2
Fnan
sI3
Fnan
sI4
Fnan
sI5
Fnan
sI6
Fnan
sI7
Fnan
sI8
Fnan
sI9
Fnan
sI10
Fnan
sI11
Fnan
sI12
Fnan
sI13
Fnan
sI14
Fnan
ssg146
(dp256
I0
F2.581985
sI1
F3.74456
sI2
F-1.531024
sI3
F3.910139
sI4
F-2.283348
sI5
F-2.071892
sI6
F3.54674
sI7
F-4.766792
sI8
F2.409441
sI9
F1.872759
sI10
F3.562065
sI11
F2.630024
sI12
F3.022754
sI13
F2.637214
sI14
F3.384932
ssg148
(dp257
I0
F1.4949899376955746
sI1
Fnan
sI2
Fnan
sI3
Fnan
sI4
Fnan
sI5
Fnan
sI6
Fnan
sI7
Fnan
sI8
Fnan
sI9
Fnan
sI10
Fnan
sI11
Fnan
sI12
Fnan
sI13
Fnan
sI14
Fnan
ssg150
(dp258
I0
F2458364.720115741
sI1
Fnan
sI2
Fnan
sI3
Fnan
sI4
Fnan
sI5
Fnan
sI6
Fnan
sI7
Fnan
sI8
Fnan
sI9
Fnan
sI10
Fnan
sI11
Fnan
sI12
Fnan
sI13
Fnan
sI14
Fnan
ssg152
(dp259
I0
F0.0020016742759993394
sI1
Fnan
sI2
Fnan
sI3
Fnan
sI4
Fnan
sI5
Fnan
sI6
Fnan
sI7
Fnan
sI8
Fnan
sI9
Fnan
sI10
Fnan
sI11
Fnan
sI12
Fnan
sI13
Fnan
sI14
Fnan
ssg154
(dp260
I0
F18.17895
sI1
F18.2037
sI2
F14.87226
sI3
F22.25974
sI4
F16.92724
sI5
F15.78549
sI6
F21.13651
sI7
F15.5366
sI8
F20.55542
sI9
F16.86368
sI10
F18.99853
sI11
F16.88078
sI12
F16.51657
sI13
F17.46652
sI14
F15.93294
ssg156
(dp261
I0
F10.285
sI1
F10.267
sI2
F10.251
sI3
F10.328
sI4
F10.253
sI5
F10.261
sI6
F10.301
sI7
F10.26
sI8
F10.292
sI9
F10.267
sI10
F10.285
sI11
F10.261
sI12
F10.262
sI13
F10.255
sI14
F10.257
ssg158
(dp262
I0
F0.5483640070494514
sI1
Fnan
sI2
Fnan
sI3
Fnan
sI4
Fnan
sI5
Fnan
sI6
Fnan
sI7
Fnan
sI8
Fnan
sI9
Fnan
sI10
Fnan
sI11
Fnan
sI12
Fnan
sI13
Fnan
sI14
Fnan
sssS'z'
p263
(dp264
g3
(dp265
I0
F0.371460186948223
sI1
Fnan
sI2
Fnan
sI3
Fnan
sI4
Fnan
sI5
Fnan
sI6
Fnan
sI7
Fnan
sI8
Fnan
sI9
Fnan
sI10
Fnan
sI11
Fnan
sI12
Fnan
sI13
Fnan
sI14
Fnan
ssg5
(dp266
I0
S'NoError'
p267
sI1
S'NoError'
p268
sI2
S'NoError'
p269
sI3
S'NoError'
p270
sI4
S'NoError'
p271
sI5
S'NoError'
p272
sI6
S'NoError'
p273
sI7
S'NoError'
p274
sI8
S'NoError'
p275
sI9
S'NoError'
p276
sI10
S'NoError'
p277
sI11
S'NoError'
p278
sI12
S'NoError'
p279
sI13
S'NoError'
p280
sI14
S'NoError'
p281
ssg22
(dp282
I0
F0.007
sI1
F0.007
sI2
F0.007
sI3
F0.007
sI4
F0.007
sI5
F0.007
sI6
F0.007
sI7
F0.007
sI8
F0.007
sI9
F0.007
sI10
F0.007
sI11
F0.007
sI12
F0.007
sI13
F0.007
sI14
F0.007
ssg24
(dp283
I0
F0.9216963005144941
sI1
F0.9074265062515944
sI2
F0.9159755979935476
sI3
F0.9129443730617931
sI4
F0.9171444752773746
sI5
F0.915371705288421
sI6
F0.9132097230889054
sI7
F0.9177069894398474
sI8
F0.9164810706852391
sI9
F0.9180127967921975
sI10
F0.9173291235748153
sI11
F0.9138168136149809
sI12
F0.9091326384951547
sI13
F0.9172606710409067
sI14
F0.9269623571743151
ssg26
(dp284
I0
F0.004685983631559967
sI1
Fnan
sI2
Fnan
sI3
Fnan
sI4
Fnan
sI5
Fnan
sI6
Fnan
sI7
Fnan
sI8
Fnan
sI9
Fnan
sI10
Fnan
sI11
Fnan
sI12
Fnan
sI13
Fnan
sI14
Fnan
ssg28
(dp285
I0
F0.9160314094862391
sI1
Fnan
sI2
Fnan
sI3
Fnan
sI4
Fnan
sI5
Fnan
sI6
Fnan
sI7
Fnan
sI8
Fnan
sI9
Fnan
sI10
Fnan
sI11
Fnan
sI12
Fnan
sI13
Fnan
sI14
Fnan
ssg30
(dp286
I0
F13.255
sI1
F13.281
sI2
F13.264
sI3
F13.296
sI4
F13.232
sI5
F13.275
sI6
F13.241
sI7
F13.255
sI8
F13.244
sI9
F13.25
sI10
F13.262
sI11
F13.381
sI12
F13.286
sI13
F13.249
sI14
F13.256
ssg32
(dp287
I0
F6.727145
sI1
F7.035828
sI2
F7.925125
sI3
F7.317242
sI4
F6.898823
sI5
F7.225042
sI6
F7.090301
sI7
F7.29971
sI8
F7.823349
sI9
F6.97824
sI10
F7.006297
sI11
F8.707431
sI12
F8.232512
sI13
F7.652666
sI14
F7.18733
ssg34
(dp288
I0
F2458364.7102546296
sI1
F2458364.7087847223
sI2
F2458364.7289583334
sI3
F2458364.7461574073
sI4
F2458364.7446875
sI5
F2458364.726736111
sI6
F2458364.727488426
sI7
F2458364.709525463
sI8
F2458364.7282175925
sI9
F2458364.7476273146
sI10
F2458364.7260069447
sI11
F2458364.746898148
sI12
F2458364.7080555554
sI13
F2458364.707314815
sI14
F2458364.745416667
ssg36
(dp289
I0
F0.6174299000000001
sI1
Fnan
sI2
Fnan
sI3
Fnan
sI4
Fnan
sI5
Fnan
sI6
Fnan
sI7
Fnan
sI8
Fnan
sI9
Fnan
sI10
Fnan
sI11
Fnan
sI12
Fnan
sI13
Fnan
sI14
Fnan
ssg38
(dp290
I0
F0.28073771333333336
sI1
Fnan
sI2
Fnan
sI3
Fnan
sI4
Fnan
sI5
Fnan
sI6
Fnan
sI7
Fnan
sI8
Fnan
sI9
Fnan
sI10
Fnan
sI11
Fnan
sI12
Fnan
sI13
Fnan
sI14
Fnan
ssg40
(dp291
I0
F0.3753538954821023
sI1
F0.370618748646835
sI2
F0.3708372680422007
sI3
F0.3682612671525692
sI4
F0.37309344383429094
sI5
F0.3691614026395254
sI6
F0.3730579946472993
sI7
F0.37392241232848905
sI8
F0.3718860073496586
sI9
F0.3727459090129564
sI10
F0.3679223108306278
sI11
F0.3614294422706541
sI12
F0.36887327869976483
sI13
F0.372224392832623
sI14
F0.37248428577617987
ssg42
(dp292
I0
F0.0021668515012602967
sI1
Fnan
sI2
Fnan
sI3
Fnan
sI4
Fnan
sI5
Fnan
sI6
Fnan
sI7
Fnan
sI8
Fnan
sI9
Fnan
sI10
Fnan
sI11
Fnan
sI12
Fnan
sI13
Fnan
sI14
Fnan
ssg44
(dp293
I0
F0.5753187999999999
sI1
Fnan
sI2
Fnan
sI3
Fnan
sI4
Fnan
sI5
Fnan
sI6
Fnan
sI7
Fnan
sI8
Fnan
sI9
Fnan
sI10
Fnan
sI11
Fnan
sI12
Fnan
sI13
Fnan
sI14
Fnan
ssg46
(dp294
I0
g267
sI1
g268
sI2
g269
sI3
g270
sI4
g271
sI5
g272
sI6
g273
sI7
g274
sI8
g275
sI9
g276
sI10
g277
sI11
g278
sI12
g279
sI13
g280
sI14
g281
ssg48
(dp295
I0
F0.0032372290436105135
sI1
Fnan
sI2
Fnan
sI3
Fnan
sI4
Fnan
sI5
Fnan
sI6
Fnan
sI7
Fnan
sI8
Fnan
sI9
Fnan
sI10
Fnan
sI11
Fnan
sI12
Fnan
sI13
Fnan
sI14
Fnan
ssg50
(dp296
I0
F0.028825088278888494
sI1
Fnan
sI2
Fnan
sI3
Fnan
sI4
Fnan
sI5
Fnan
sI6
Fnan
sI7
Fnan
sI8
Fnan
sI9
Fnan
sI10
Fnan
sI11
Fnan
sI12
Fnan
sI13
Fnan
sI14
Fnan
ssg52
(dp297
I0
F0.3607137333333333
sI1
Fnan
sI2
Fnan
sI3
Fnan
sI4
Fnan
sI5
Fnan
sI6
Fnan
sI7
Fnan
sI8
Fnan
sI9
Fnan
sI10
Fnan
sI11
Fnan
sI12
Fnan
sI13
Fnan
sI14
Fnan
ssg54
(dp298
I0
F1.491832519747328
sI1
F1.5165076327522378
sI2
F1.5089310022839946
sI3
F1.5070054489468747
sI4
F1.5053039555190892
sI5
F1.4998157288961762
sI6
F1.5110298243771847
sI7
F1.5021998140907336
sI8
F1.504151061600074
sI9
F1.5098528064803847
sI10
F1.4985448215971844
sI11
F1.5208979226000052
sI12
F1.5058644746742047
sI13
F1.5031489126458202
sI14
F1.4921184534646486
ssg56
(dp299
I0
g267
sI1
g268
sI2
g269
sI3
g270
sI4
g271
sI5
g272
sI6
g273
sI7
g274
sI8
g275
sI9
g276
sI10
g277
sI11
g278
sI12
g279
sI13
g280
sI14
g281
ssg58
(dp300
I0
F7.590972
sI1
F9.721534
sI2
F8.802195
sI3
F8.173831
sI4
F8.181424
sI5
F8.772251
sI6
F8.230025
sI7
F7.901142
sI8
F7.725447
sI9
F8.08112
sI10
F7.95248
sI11
F9.917142
sI12
F8.981704
sI13
F8.852368
sI14
F7.572575
ssg60
(dp301
I0
F11.916066666666664
sI1
Fnan
sI2
Fnan
sI3
Fnan
sI4
Fnan
sI5
Fnan
sI6
Fnan
sI7
Fnan
sI8
Fnan
sI9
Fnan
sI10
Fnan
sI11
Fnan
sI12
Fnan
sI13
Fnan
sI14
Fnan
ssg62
(dp302
I0
F0.6898298723628874
sI1
Fnan
sI2
Fnan
sI3
Fnan
sI4
Fnan
sI5
Fnan
sI6
Fnan
sI7
Fnan
sI8
Fnan
sI9
Fnan
sI10
Fnan
sI11
Fnan
sI12
Fnan
sI13
Fnan
sI14
Fnan
ssg64
(dp303
I0
F2.610211
sI1
F1.008543
sI2
F-3.002624
sI3
F0.9258277
sI4
F-2.678924
sI5
F3.753965
sI6
F1.509942
sI7
F3.235724
sI8
F-1.479728
sI9
F-3.695483
sI10
F2.940318
sI11
F1.665424
sI12
F1.716537
sI13
F-2.621976
sI14
F-1.676691
ssg66
(dp304
I0
F12.255799999999999
sI1
Fnan
sI2
Fnan
sI3
Fnan
sI4
Fnan
sI5
Fnan
sI6
Fnan
sI7
Fnan
sI8
Fnan
sI9
Fnan
sI10
Fnan
sI11
Fnan
sI12
Fnan
sI13
Fnan
sI14
Fnan
ssg68
(dp305
I0
g267
sI1
g268
sI2
g269
sI3
g270
sI4
g271
sI5
g272
sI6
g273
sI7
g274
sI8
g275
sI9
g276
sI10
g277
sI11
g278
sI12
g279
sI13
g280
sI14
g281
ssg70
(dp306
I0
F3160.496
sI1
F3091.6603333333333
sI2
F3159.2053333333333
sI3
F3079.7690000000002
sI4
F3236.3779999999997
sI5
F3140.2093333333332
sI6
F3198.612333333333
sI7
F3162.6686666666665
sI8
F3209.5226666666663
sI9
F3188.2876666666666
sI10
F3191.8783333333336
sI11
F2903.3216666666663
sI12
F3096.3066666666664
sI13
F3191.9226666666664
sI14
F3194.324333333333
ssg72
(dp307
I0
F1.005059
sI1
F1.004882
sI2
F1.011525
sI3
F1.024517
sI4
F1.0231290000000002
sI5
F1.010351
sI6
F1.010728
sI7
F1.004964
sI8
F1.011117
sI9
F1.025962
sI10
F1.0099790000000002
sI11
F1.025228
sI12
F1.004812
sI13
F1.004753
sI14
F1.023817
ssg74
(dp308
I0
F2577.748666666667
sI1
F2542.2183333333332
sI2
F2573.148666666667
sI3
F2524.249666666667
sI4
F2636.9429999999998
sI5
F2575.101666666667
sI6
F2613.825333333333
sI7
F2579.559
sI8
F2619.8696666666665
sI9
F2586.5136666666667
sI10
F2611.0756666666666
sI11
F2355.335
sI12
F2555.862
sI13
F2603.7816666666668
sI14
F2582.3126666666667
ssg76
(dp309
I0
F4280.25
sI1
F4271.91
sI2
F4324.863333333333
sI3
F4222.643333333333
sI4
F4420.566666666667
sI5
F4285.956666666667
sI6
F4391.383333333333
sI7
F4312.986666666667
sI8
F4384.1433333333325
sI9
F4359.55
sI10
F4347.993333333334
sI11
F3998.94
sI12
F4255.7
sI13
F4355.903333333334
sI14
F4309.713333333333
ssg78
(dp310
I0
F8.237585
sI1
F8.942275
sI2
F8.003919
sI3
F7.63321
sI4
F7.731778
sI5
F7.481823
sI6
F7.093502
sI7
F8.034867
sI8
F7.322063
sI9
F8.889976
sI10
F7.774354
sI11
F8.986279
sI12
F8.70834
sI13
F8.349434
sI14
F8.043694
ssg80
(dp311
I0
F12.472
sI1
F12.487
sI2
F12.474
sI3
F12.495
sI4
F12.447
sI5
F12.473
sI6
F12.457
sI7
F12.471
sI8
F12.454
sI9
F12.468
sI10
F12.458
sI11
F12.57
sI12
F12.481
sI13
F12.461
sI14
F12.47
ssg82
(dp312
I0
F0.003
sI1
F0.003
sI2
F0.003
sI3
F0.003
sI4
F0.003
sI5
F0.003
sI6
F0.003
sI7
F0.003
sI8
F0.003
sI9
F0.003
sI10
F0.003
sI11
F0.003
sI12
F0.003
sI13
F0.003
sI14
F0.003
ssg84
(dp313
I0
F0.370791470636385
sI1
Fnan
sI2
Fnan
sI3
Fnan
sI4
Fnan
sI5
Fnan
sI6
Fnan
sI7
Fnan
sI8
Fnan
sI9
Fnan
sI10
Fnan
sI11
Fnan
sI12
Fnan
sI13
Fnan
sI14
Fnan
ssg86
(dp314
I0
F12.475866666666667
sI1
Fnan
sI2
Fnan
sI3
Fnan
sI4
Fnan
sI5
Fnan
sI6
Fnan
sI7
Fnan
sI8
Fnan
sI9
Fnan
sI10
Fnan
sI11
Fnan
sI12
Fnan
sI13
Fnan
sI14
Fnan
ssg88
(dp315
I0
F12.251
sI1
F12.275
sI2
F12.251
sI3
F12.279
sI4
F12.225
sI5
F12.258
sI6
F12.238
sI7
F12.25
sI8
F12.234
sI9
F12.241
sI10
F12.24
sI11
F12.343
sI12
F12.273
sI13
F12.24
sI14
F12.239
ssg90
(dp316
I0
F-3.719476
sI1
F4.302492
sI2
F3.419304
sI3
F3.041832
sI4
F0.9475185
sI5
F-2.072559
sI6
F2.604043
sI7
F-2.223631
sI8
F2.622521
sI9
F3.635162
sI10
F-2.157151
sI11
F2.045871
sI12
F-2.181593
sI13
F-2.199646
sI14
F1.196761
ssg92
(dp317
I0
F0.025855274860175716
sI1
Fnan
sI2
Fnan
sI3
Fnan
sI4
Fnan
sI5
Fnan
sI6
Fnan
sI7
Fnan
sI8
Fnan
sI9
Fnan
sI10
Fnan
sI11
Fnan
sI12
Fnan
sI13
Fnan
sI14
Fnan
ssg94
(dp318
I0
F0.6928737163361488
sI1
F0.690485245133124
sI2
F0.6876336338620803
sI3
F0.6913467910170508
sI4
F0.6887715961901949
sI5
F0.6935211700537443
sI6
F0.688755421775164
sI7
F0.6901225069855638
sI8
F0.6900144585412807
sI9
F0.6853654731048138
sI10
F0.6926048033974052
sI11
F0.6824820946370961
sI12
F0.6952828298124504
sI13
F0.689942154646031
sI14
F0.688246189951161
ssg96
(dp319
I0
F30.0
sI1
F30.0
sI2
F30.0
sI3
F30.0
sI4
F30.0
sI5
F30.0
sI6
F30.0
sI7
F30.0
sI8
F30.0
sI9
F30.0
sI10
F30.0
sI11
F30.0
sI12
F30.0
sI13
F30.0
sI14
F30.0
ssg98
(dp320
I0
F0.004
sI1
F0.004
sI2
F0.004
sI3
F0.004
sI4
F0.004
sI5
F0.004
sI6
F0.004
sI7
F0.004
sI8
F0.004
sI9
F0.004
sI10
F0.004
sI11
F0.004
sI12
F0.004
sI13
F0.004
sI14
F0.004
ssg100
(dp321
I0
F0.004
sI1
F0.004
sI2
F0.004
sI3
F0.004
sI4
F0.004
sI5
F0.004
sI6
F0.004
sI7
F0.004
sI8
F0.004
sI9
F0.004
sI10
F0.004
sI11
F0.004
sI12
F0.004
sI13
F0.004
sI14
F0.004
ssg102
(dp322
I0
F4.017774
sI1
F-4.322787
sI2
F1.479256
sI3
F-3.047767
sI4
F3.639358
sI5
F2.587378
sI6
F-2.971331
sI7
F2.684656
sI8
F3.192547
sI9
F3.346184
sI10
F-3.394416
sI11
F-2.627219
sI12
F-1.197958
sI13
F-1.874018
sI14
F3.899049
ssg104
(dp323
I0
S"KIC8462852-20180903at050246_-25-1X1-030-z'_cal.fts.mag.1"
p324
sI1
S"KIC8462852-20180903at050039_-25-1X1-030-z'_cal.fts.mag.1"
p325
sI2
S"KIC8462852-20180903at052942_-25-1X1-030-z'_cal.fts.mag.1"
p326
sI3
S"KIC8462852-20180903at055428_-25-1X1-030-z'_cal.fts.mag.1"
p327
sI4
S"KIC8462852-20180903at055219_-25-1X1-030-z'_cal.fts.mag.1"
p328
sI5
S"KIC8462852-20180903at052630_-25-1X1-030-z'_cal.fts.mag.1"
p329
sI6
S"KIC8462852-20180903at052735_-25-1X1-030-z'_cal.fts.mag.1"
p330
sI7
S"KIC8462852-20180903at050143_-25-1X1-030-z'_cal.fts.mag.1"
p331
sI8
S"KIC8462852-20180903at052838_-25-1X1-030-z'_cal.fts.mag.1"
p332
sI9
S"KIC8462852-20180903at055635_-25-1X1-030-z'_cal.fts.mag.1"
p333
sI10
S"KIC8462852-20180903at052525_-25-1X1-030-z'_cal.fts.mag.1"
p334
sI11
S"KIC8462852-20180903at055532_-25-1X1-030-z'_cal.fts.mag.1"
p335
sI12
S"KIC8462852-20180903at045936_-25-1X1-030-z'_cal.fts.mag.1"
p336
sI13
S"KIC8462852-20180903at045830_-25-1X1-030-z'_cal.fts.mag.1"
p337
sI14
S"KIC8462852-20180903at055324_-25-1X1-030-z'_cal.fts.mag.1"
p338
ssg121
(dp339
I0
F0.007950379410892047
sI1
Fnan
sI2
Fnan
sI3
Fnan
sI4
Fnan
sI5
Fnan
sI6
Fnan
sI7
Fnan
sI8
Fnan
sI9
Fnan
sI10
Fnan
sI11
Fnan
sI12
Fnan
sI13
Fnan
sI14
Fnan
ssg123
(dp340
I0
F1253.4936666666665
sI1
F1223.757
sI2
F1243.1970000000001
sI3
F1206.2596666666666
sI4
F1280.194
sI5
F1230.694
sI6
F1268.8723333333332
sI7
F1253.29
sI8
F1266.0903333333333
sI9
F1259.1793333333333
sI10
F1244.9199999999998
sI11
F1115.3226666666667
sI12
F1218.2493333333334
sI13
F1259.5586666666668
sI14
F1252.3356666666666
ssg125
(dp341
I0
F0.02894790065584984
sI1
Fnan
sI2
Fnan
sI3
Fnan
sI4
Fnan
sI5
Fnan
sI6
Fnan
sI7
Fnan
sI8
Fnan
sI9
Fnan
sI10
Fnan
sI11
Fnan
sI12
Fnan
sI13
Fnan
sI14
Fnan
ssg127
(dp342
I0
S"z'"
p343
sI1
S"z'"
p344
sI2
S"z'"
p345
sI3
S"z'"
p346
sI4
S"z'"
p347
sI5
S"z'"
p348
sI6
S"z'"
p349
sI7
S"z'"
p350
sI8
S"z'"
p351
sI9
S"z'"
p352
sI10
S"z'"
p353
sI11
S"z'"
p354
sI12
S"z'"
p355
sI13
S"z'"
p356
sI14
S"z'"
p357
ssg144
(dp358
I0
F0.003376828099605578
sI1
Fnan
sI2
Fnan
sI3
Fnan
sI4
Fnan
sI5
Fnan
sI6
Fnan
sI7
Fnan
sI8
Fnan
sI9
Fnan
sI10
Fnan
sI11
Fnan
sI12
Fnan
sI13
Fnan
sI14
Fnan
ssg146
(dp359
I0
F2.448657
sI1
F4.431786
sI2
F-2.413447
sI3
F-1.200583
sI4
F-2.938581
sI5
F-2.178649
sI6
F-2.005904
sI7
F1.654928
sI8
F2.765343
sI9
F4.102665
sI10
F-2.173405
sI11
F2.160357
sI12
F-2.768352
sI13
F3.568974
sI14
F3.175993
ssg148
(dp360
I0
F1.505146958645063
sI1
Fnan
sI2
Fnan
sI3
Fnan
sI4
Fnan
sI5
Fnan
sI6
Fnan
sI7
Fnan
sI8
Fnan
sI9
Fnan
sI10
Fnan
sI11
Fnan
sI12
Fnan
sI13
Fnan
sI14
Fnan
ssg150
(dp361
I0
F2458364.727488426
sI1
Fnan
sI2
Fnan
sI3
Fnan
sI4
Fnan
sI5
Fnan
sI6
Fnan
sI7
Fnan
sI8
Fnan
sI9
Fnan
sI10
Fnan
sI11
Fnan
sI12
Fnan
sI13
Fnan
sI14
Fnan
ssg152
(dp362
I0
F0.003376828099605578
sI1
Fnan
sI2
Fnan
sI3
Fnan
sI4
Fnan
sI5
Fnan
sI6
Fnan
sI7
Fnan
sI8
Fnan
sI9
Fnan
sI10
Fnan
sI11
Fnan
sI12
Fnan
sI13
Fnan
sI14
Fnan
ssg154
(dp363
I0
F9.391196
sI1
F9.183635
sI2
F8.246195
sI3
F9.004303
sI4
F8.272108
sI5
F9.851903
sI6
F8.401614
sI7
F8.765748
sI8
F8.678818
sI9
F9.195505
sI10
F8.599518
sI11
F10.22871
sI12
F10.33897
sI13
F9.736712
sI14
F8.433064
ssg156
(dp364
I0
F11.921
sI1
F11.923
sI2
F11.91
sI3
F11.936
sI4
F11.886
sI5
F11.92
sI6
F11.893
sI7
F11.913
sI8
F11.895
sI9
F11.901
sI10
F11.904
sI11
F11.995
sI12
F11.928
sI13
F11.902
sI14
F11.914
ssg158
(dp365
I0
F0.370791470636385
sI1
Fnan
sI2
Fnan
sI3
Fnan
sI4
Fnan
sI5
Fnan
sI6
Fnan
sI7
Fnan
sI8
Fnan
sI9
Fnan
sI10
Fnan
sI11
Fnan
sI12
Fnan
sI13
Fnan
sI14
Fnan
sssS'g'
p366
(dp367
g3
(dp368
I0
F0.8687828427338625
sI1
Fnan
sI2
Fnan
sI3
Fnan
sI4
Fnan
sI5
Fnan
sI6
Fnan
sI7
Fnan
sI8
Fnan
sI9
Fnan
sI10
Fnan
sI11
Fnan
sI12
Fnan
sI13
Fnan
sI14
Fnan
ssg5
(dp369
I0
S'NoError'
p370
sI1
S'NoError'
p371
sI2
S'NoError'
p372
sI3
S'NoError'
p373
sI4
S'NoError'
p374
sI5
S'NoError'
p375
sI6
S'NoError'
p376
sI7
S'NoError'
p377
sI8
S'NoError'
p378
sI9
S'NoError'
p379
sI10
S'NoError'
p380
sI11
S'NoError'
p381
sI12
S'NoError'
p382
sI13
S'NoError'
p383
sI14
S'NoError'
p384
ssg22
(dp385
I0
F0.002
sI1
F0.002
sI2
F0.002
sI3
F0.002
sI4
F0.002
sI5
F0.002
sI6
F0.002
sI7
F0.002
sI8
F0.002
sI9
F0.002
sI10
F0.002
sI11
F0.002
sI12
F0.002
sI13
F0.002
sI14
F0.002
ssg24
(dp386
I0
F0.875573237339331
sI1
F0.8816780512123635
sI2
F0.8784559653148787
sI3
F0.8805379884597241
sI4
F0.8779037826147333
sI5
F0.8812051782983953
sI6
F0.8779617319393078
sI7
F0.8807718101601494
sI8
F0.8797525571580711
sI9
F0.8782285722819569
sI10
F0.8799931773381567
sI11
F0.8822471313281302
sI12
F0.8788357916105991
sI13
F0.8789354409381377
sI14
F0.8769671610326025
ssg26
(dp387
I0
F0.0018443144138356178
sI1
Fnan
sI2
Fnan
sI3
Fnan
sI4
Fnan
sI5
Fnan
sI6
Fnan
sI7
Fnan
sI8
Fnan
sI9
Fnan
sI10
Fnan
sI11
Fnan
sI12
Fnan
sI13
Fnan
sI14
Fnan
ssg28
(dp388
I0
F0.879269838468436
sI1
Fnan
sI2
Fnan
sI3
Fnan
sI4
Fnan
sI5
Fnan
sI6
Fnan
sI7
Fnan
sI8
Fnan
sI9
Fnan
sI10
Fnan
sI11
Fnan
sI12
Fnan
sI13
Fnan
sI14
Fnan
ssg30
(dp389
I0
F11.41
sI1
F11.401
sI2
F11.371
sI3
F11.395
sI4
F11.407
sI5
F11.411
sI6
F11.389
sI7
F11.415
sI8
F11.407
sI9
F11.408
sI10
F11.382
sI11
F11.398
sI12
F11.408
sI13
F11.392
sI14
F11.424
ssg32
(dp390
I0
F8.160184
sI1
F7.856086
sI2
F7.096092
sI3
F8.509041
sI4
F8.070029
sI5
F8.959145
sI6
F7.43338
sI7
F7.654624
sI8
F7.51067
sI9
F8.840493
sI10
F8.864618
sI11
F8.461348
sI12
F7.977931
sI13
F8.418993
sI14
F8.492875
ssg34
(dp391
I0
F2458364.716423611
sI1
F2458364.734351852
sI2
F2458364.7350810184
sI3
F2458364.696238426
sI4
F2458364.6991666667
sI5
F2458364.733622685
sI6
F2458364.6976967594
sI7
F2458364.717164352
sI8
F2458364.7178935185
sI9
F2458364.7156828702
sI10
F2458364.7365509258
sI11
F2458364.6984375
sI12
F2458364.6969675925
sI13
F2458364.7358217593
sI14
F2458364.71494213
ssg36
(dp392
I0
F1.8830868
sI1
Fnan
sI2
Fnan
sI3
Fnan
sI4
Fnan
sI5
Fnan
sI6
Fnan
sI7
Fnan
sI8
Fnan
sI9
Fnan
sI10
Fnan
sI11
Fnan
sI12
Fnan
sI13
Fnan
sI14
Fnan
ssg38
(dp393
I0
F1.5186996
sI1
Fnan
sI2
Fnan
sI3
Fnan
sI4
Fnan
sI5
Fnan
sI6
Fnan
sI7
Fnan
sI8
Fnan
sI9
Fnan
sI10
Fnan
sI11
Fnan
sI12
Fnan
sI13
Fnan
sI14
Fnan
ssg40
(dp394
I0
F0.8662638711297594
sI1
F0.8679101659153893
sI2
F0.8718071219370876
sI3
F0.8690665599767423
sI4
F0.8705719977930503
sI5
F0.8699263363995089
sI6
F0.8682910775382972
sI7
F0.8680833230589642
sI8
F0.868519444562638
sI9
F0.8665629208363782
sI10
F0.869675846118732
sI11
F0.8710958556981273
sI12
F0.8684788101079542
sI13
F0.8669426520448331
sI14
F0.8690519654895973
ssg42
(dp395
I0
F0.0012642405804635154
sI1
Fnan
sI2
Fnan
sI3
Fnan
sI4
Fnan
sI5
Fnan
sI6
Fnan
sI7
Fnan
sI8
Fnan
sI9
Fnan
sI10
Fnan
sI11
Fnan
sI12
Fnan
sI13
Fnan
sI14
Fnan
ssg44
(dp396
I0
F1.4218044666666667
sI1
Fnan
sI2
Fnan
sI3
Fnan
sI4
Fnan
sI5
Fnan
sI6
Fnan
sI7
Fnan
sI8
Fnan
sI9
Fnan
sI10
Fnan
sI11
Fnan
sI12
Fnan
sI13
Fnan
sI14
Fnan
ssg46
(dp397
I0
g370
sI1
g371
sI2
g372
sI3
g373
sI4
g374
sI5
g375
sI6
g376
sI7
g377
sI8
g378
sI9
g379
sI10
g380
sI11
g381
sI12
g382
sI13
g383
sI14
g384
ssg48
(dp398
I0
F0.00195484613860513
sI1
Fnan
sI2
Fnan
sI3
Fnan
sI4
Fnan
sI5
Fnan
sI6
Fnan
sI7
Fnan
sI8
Fnan
sI9
Fnan
sI10
Fnan
sI11
Fnan
sI12
Fnan
sI13
Fnan
sI14
Fnan
ssg50
(dp399
I0
F0.013394384039944784
sI1
Fnan
sI2
Fnan
sI3
Fnan
sI4
Fnan
sI5
Fnan
sI6
Fnan
sI7
Fnan
sI8
Fnan
sI9
Fnan
sI10
Fnan
sI11
Fnan
sI12
Fnan
sI13
Fnan
sI14
Fnan
ssg52
(dp400
I0
F1.8237073733333333
sI1
Fnan
sI2
Fnan
sI3
Fnan
sI4
Fnan
sI5
Fnan
sI6
Fnan
sI7
Fnan
sI8
Fnan
sI9
Fnan
sI10
Fnan
sI11
Fnan
sI12
Fnan
sI13
Fnan
sI14
Fnan
ssg54
(dp401
I0
F1.5228490858313442
sI1
F1.5097919436910905
sI2
F1.5103707723624975
sI3
F1.5141838429990595
sI4
F1.5207386144836847
sI5
F1.5149169244724399
sI6
F1.5179039958446903
sI7
F1.5105632841556447
sI8
F1.514760472702343
sI9
F1.5139848276871426
sI10
F1.5075753340145366
sI11
F1.5049485328120145
sI12
F1.5157119017699145
sI13
F1.5175915441348997
sI14
F1.5155861118384029
ssg56
(dp402
I0
g370
sI1
g371
sI2
g372
sI3
g373
sI4
g374
sI5
g375
sI6
g376
sI7
g377
sI8
g378
sI9
g379
sI10
g380
sI11
g381
sI12
g382
sI13
g383
sI14
g384
ssg58
(dp403
I0
F7.855696
sI1
F8.676369
sI2
F8.522473
sI3
F7.145837
sI4
F7.744397
sI5
F8.586083
sI6
F7.354463
sI7
F7.676598
sI8
F8.17596
sI9
F8.855884
sI10
F8.254652
sI11
F7.948793
sI12
F8.342262
sI13
F8.362166
sI14
F9.423847
ssg60
(dp404
I0
F10.9698
sI1
Fnan
sI2
Fnan
sI3
Fnan
sI4
Fnan
sI5
Fnan
sI6
Fnan
sI7
Fnan
sI8
Fnan
sI9
Fnan
sI10
Fnan
sI11
Fnan
sI12
Fnan
sI13
Fnan
sI14
Fnan
ssg62
(dp405
I0
F0.716498783290654
sI1
Fnan
sI2
Fnan
sI3
Fnan
sI4
Fnan
sI5
Fnan
sI6
Fnan
sI7
Fnan
sI8
Fnan
sI9
Fnan
sI10
Fnan
sI11
Fnan
sI12
Fnan
sI13
Fnan
sI14
Fnan
ssg64
(dp406
I0
F1.936259
sI1
F4.230033
sI2
F4.130372
sI3
F2.468687
sI4
F-2.286327
sI5
F4.073817
sI6
F1.8754
sI7
F2.474808
sI8
F-3.070205
sI9
F-3.99881
sI10
F4.272149
sI11
F2.47963
sI12
F4.103896
sI13
F2.445245
sI14
F-2.35446
ssg66
(dp407
I0
F11.343533333333333
sI1
Fnan
sI2
Fnan
sI3
Fnan
sI4
Fnan
sI5
Fnan
sI6
Fnan
sI7
Fnan
sI8
Fnan
sI9
Fnan
sI10
Fnan
sI11
Fnan
sI12
Fnan
sI13
Fnan
sI14
Fnan
ssg68
(dp408
I0
g370
sI1
g371
sI2
g372
sI3
g373
sI4
g374
sI5
g375
sI6
g376
sI7
g377
sI8
g378
sI9
g379
sI10
g380
sI11
g381
sI12
g382
sI13
g383
sI14
g384
ssg70
(dp409
I0
F7230.416666666667
sI1
F7309.963333333333
sI2
F7465.266666666666
sI3
F7332.3
sI4
F7228.1066666666675
sI5
F7221.45
sI6
F7369.256666666667
sI7
F7207.9766666666665
sI8
F7251.546666666666
sI9
F7252.783333333334
sI10
F7412.1033333333335
sI11
F7308.05
sI12
F7239.6866666666665
sI13
F7361.236666666667
sI14
F7121.71
ssg72
(dp410
I0
F1.006325
sI1
F1.014857
sI2
F1.015368
sI3
F1.005321
sI4
F1.0049059999999999
sI5
F1.014362
sI6
F1.005089
sI7
F1.006534
sI8
F1.0067549999999998
sI9
F1.006129
sI10
F1.0164090000000001
sI11
F1.004992
sI12
F1.0052
sI13
F1.015883
sI14
F1.005943
ssg74
(dp411
I0
F6250.866666666667
sI1
F6304.46
sI2
F6471.496666666667
sI3
F6318.913333333333
sI4
F6232.05
sI5
F6213.513333333333
sI6
F6364.176666666666
sI7
F6223.136666666667
sI8
F6255.473333333333
sI9
F6275.806666666667
sI10
F6419.63
sI11
F6315.516666666666
sI12
F6251.36
sI13
F6347.906666666667
sI14
F6169.61
ssg76
(dp412
I0
F10264.980000000001
sI1
F10277.473333333333
sI2
F10524.84
sI3
F10335.223333333333
sI4
F10234.69
sI5
F10176.426666666666
sI6
F10423.016666666666
sI7
F10144.273333333334
sI8
F10229.95
sI9
F10241.04
sI10
F10426.19
sI11
F10251.383333333333
sI12
F10224.269999999999
sI13
F10402.44
sI14
F10072.07
ssg78
(dp413
I0
F8.206041
sI1
F8.776505
sI2
F7.476943
sI3
F7.838549
sI4
F7.934757
sI5
F8.28771
sI6
F7.425963
sI7
F8.400519
sI8
F8.497494
sI9
F9.029443
sI10
F6.658437
sI11
F6.958553
sI12
F7.796731
sI13
F8.35364
sI14
F7.996992
ssg80
(dp414
I0
F11.51
sI1
F11.501
sI2
F11.472
sI3
F11.498
sI4
F11.513
sI5
F11.517
sI6
F11.491
sI7
F11.515
sI8
F11.509
sI9
F11.506
sI10
F11.481
sI11
F11.499
sI12
F11.51
sI13
F11.493
sI14
F11.524
ssg82
(dp415
I0
F0.002
sI1
F0.002
sI2
F0.002
sI3
F0.002
sI4
F0.002
sI5
F0.002
sI6
F0.002
sI7
F0.002
sI8
F0.002
sI9
F0.002
sI10
F0.002
sI11
F0.002
sI12
F0.002
sI13
F0.002
sI14
F0.002
ssg84
(dp416
I0
F0.8688165299071372
sI1
Fnan
sI2
Fnan
sI3
Fnan
sI4
Fnan
sI5
Fnan
sI6
Fnan
sI7
Fnan
sI8
Fnan
sI9
Fnan
sI10
Fnan
sI11
Fnan
sI12
Fnan
sI13
Fnan
sI14
Fnan
ssg86
(dp417
I0
F11.5026
sI1
Fnan
sI2
Fnan
sI3
Fnan
sI4
Fnan
sI5
Fnan
sI6
Fnan
sI7
Fnan
sI8
Fnan
sI9
Fnan
sI10
Fnan
sI11
Fnan
sI12
Fnan
sI13
Fnan
sI14
Fnan
ssg88
(dp418
I0
F11.352
sI1
F11.34
sI2
F11.317
sI3
F11.337
sI4
F11.352
sI5
F11.353
sI6
F11.331
sI7
F11.355
sI8
F11.349
sI9
F11.349
sI10
F11.325
sI11
F11.34
sI12
F11.351
sI13
F11.333
sI14
F11.369
ssg90
(dp419
I0
F4.047297
sI1
F3.245453
sI2
F2.131329
sI3
F-1.670484
sI4
F2.325814
sI5
F3.486016
sI6
F4.178184
sI7
F3.095912
sI8
F2.19389
sI9
F2.14956
sI10
F-2.409198
sI11
F-3.113842
sI12
F2.455388
sI13
F3.128951
sI14
F3.002032
ssg92
(dp420
I0
F0.012667167909881866
sI1
Fnan
sI2
Fnan
sI3
Fnan
sI4
Fnan
sI5
Fnan
sI6
Fnan
sI7
Fnan
sI8
Fnan
sI9
Fnan
sI10
Fnan
sI11
Fnan
sI12
Fnan
sI13
Fnan
sI14
Fnan
ssg94
(dp421
I0
F0.7145727285596458
sI1
F0.7169276705284511
sI2
F0.7194506165611025
sI3
F0.7153139932648548
sI4
F0.7137516537538183
sI5
F0.7142840994197951
sI6
F0.7153865666781947
sI7
F0.7172714393426406
sI8
F0.7156679376613254
sI9
F0.7174882868181855
sI10
F0.7197583176865948
sI11
F0.7193303504479073
sI12
F0.7159156563795108
sI13
F0.7147063961796197
sI14
F0.7176560360781632
ssg96
(dp422
I0
F30.0
sI1
F30.0
sI2
F30.0
sI3
F30.0
sI4
F30.0
sI5
F30.0
sI6
F30.0
sI7
F30.0
sI8
F30.0
sI9
F30.0
sI10
F30.0
sI11
F30.0
sI12
F30.0
sI13
F30.0
sI14
F30.0
ssg98
(dp423
I0
F0.002
sI1
F0.002
sI2
F0.002
sI3
F0.002
sI4
F0.002
sI5
F0.002
sI6
F0.002
sI7
F0.002
sI8
F0.002
sI9
F0.002
sI10
F0.002
sI11
F0.002
sI12
F0.002
sI13
F0.002
sI14
F0.002
ssg100
(dp424
I0
F0.002
sI1
F0.002
sI2
F0.002
sI3
F0.002
sI4
F0.002
sI5
F0.002
sI6
F0.002
sI7
F0.002
sI8
F0.002
sI9
F0.002
sI10
F0.002
sI11
F0.002
sI12
F0.002
sI13
F0.002
sI14
F0.002
ssg102
(dp425
I0
F2.209277
sI1
F-1.361967
sI2
F-2.177357
sI3
F3.286028
sI4
F-1.292149
sI5
F2.748542
sI6
F4.086988
sI7
F3.890132
sI8
F3.808227
sI9
F4.764048
sI10
F2.459996
sI11
F0.7903746
sI12
F3.028853
sI13
F-1.619938
sI14
F2.734556
ssg104
(dp426
I0
S"KIC8462852-20180903at051139_-25-1X1-030-g'_cal.fts.mag.1"
p427
sI1
S"KIC8462852-20180903at053728_-25-1X1-030-g'_cal.fts.mag.1"
p428
sI2
S"KIC8462852-20180903at053831_-25-1X1-030-g'_cal.fts.mag.1"
p429
sI3
S"KIC8462852-20180903at044224_-25-1X1-030-g'_cal.fts.mag.1"
p430
sI4
S"KIC8462852-20180903at044648_-25-1X1-030-g'_cal.fts.mag.1"
p431
sI5
S"KIC8462852-20180903at053620_-25-1X1-030-g'_cal.fts.mag.1"
p432
sI6
S"KIC8462852-20180903at044441_-25-1X1-030-g'_cal.fts.mag.1"
p433
sI7
S"KIC8462852-20180903at051243_-25-1X1-030-g'_cal.fts.mag.1"
p434
sI8
S"KIC8462852-20180903at051346_-25-1X1-030-g'_cal.fts.mag.1"
p435
sI9
S"KIC8462852-20180903at051035_-25-1X1-030-g'_cal.fts.mag.1"
p436
sI10
S"KIC8462852-20180903at054038_-25-1X1-030-g'_cal.fts.mag.1"
p437
sI11
S"KIC8462852-20180903at044545_-25-1X1-030-g'_cal.fts.mag.1"
p438
sI12
S"KIC8462852-20180903at044338_-25-1X1-030-g'_cal.fts.mag.1"
p439
sI13
S"KIC8462852-20180903at053935_-25-1X1-030-g'_cal.fts.mag.1"
p440
sI14
S"KIC8462852-20180903at050926_-25-1X1-030-g'_cal.fts.mag.1"
p441
ssg121
(dp442
I0
F0.004814450272041
sI1
Fnan
sI2
Fnan
sI3
Fnan
sI4
Fnan
sI5
Fnan
sI6
Fnan
sI7
Fnan
sI8
Fnan
sI9
Fnan
sI10
Fnan
sI11
Fnan
sI12
Fnan
sI13
Fnan
sI14
Fnan
ssg123
(dp443
I0
F6856.843333333333
sI1
F6912.006666666667
sI2
F7108.6
sI3
F6948.6033333333335
sI4
F6876.0233333333335
sI5
F6846.723333333333
sI6
F6991.61
sI7
F6821.8
sI8
F6872.006666666667
sI9
F6865.96
sI10
F7032.176666666666
sI11
F6932.456666666667
sI12
F6865.416666666667
sI13
F6967.786666666667
sI14
F6768.0
ssg125
(dp444
I0
F0.014029560628493374
sI1
Fnan
sI2
Fnan
sI3
Fnan
sI4
Fnan
sI5
Fnan
sI6
Fnan
sI7
Fnan
sI8
Fnan
sI9
Fnan
sI10
Fnan
sI11
Fnan
sI12
Fnan
sI13
Fnan
sI14
Fnan
ssg127
(dp445
I0
S"g'"
p446
sI1
S"g'"
p447
sI2
S"g'"
p448
sI3
S"g'"
p449
sI4
S"g'"
p450
sI5
S"g'"
p451
sI6
S"g'"
p452
sI7
S"g'"
p453
sI8
S"g'"
p454
sI9
S"g'"
p455
sI10
S"g'"
p456
sI11
S"g'"
p457
sI12
S"g'"
p458
sI13
S"g'"
p459
sI14
S"g'"
p460
ssg144
(dp461
I0
F0.0016091793703950118
sI1
Fnan
sI2
Fnan
sI3
Fnan
sI4
Fnan
sI5
Fnan
sI6
Fnan
sI7
Fnan
sI8
Fnan
sI9
Fnan
sI10
Fnan
sI11
Fnan
sI12
Fnan
sI13
Fnan
sI14
Fnan
ssg146
(dp462
I0
F-3.221823
sI1
F3.985799
sI2
F3.397563
sI3
F-2.121079
sI4
F-2.825417
sI5
F2.344087
sI6
F3.763831
sI7
F2.935294
sI8
F4.144339
sI9
F2.34782
sI10
F2.781009
sI11
F-2.55721
sI12
F4.319762
sI13
F3.468295
sI14
F-1.435203
ssg148
(dp463
I0
F1.5140984792533136
sI1
Fnan
sI2
Fnan
sI3
Fnan
sI4
Fnan
sI5
Fnan
sI6
Fnan
sI7
Fnan
sI8
Fnan
sI9
Fnan
sI10
Fnan
sI11
Fnan
sI12
Fnan
sI13
Fnan
sI14
Fnan
ssg150
(dp464
I0
F2458364.716423611
sI1
Fnan
sI2
Fnan
sI3
Fnan
sI4
Fnan
sI5
Fnan
sI6
Fnan
sI7
Fnan
sI8
Fnan
sI9
Fnan
sI10
Fnan
sI11
Fnan
sI12
Fnan
sI13
Fnan
sI14
Fnan
ssg152
(dp465
I0
F0.0016091793703950118
sI1
Fnan
sI2
Fnan
sI3
Fnan
sI4
Fnan
sI5
Fnan
sI6
Fnan
sI7
Fnan
sI8
Fnan
sI9
Fnan
sI10
Fnan
sI11
Fnan
sI12
Fnan
sI13
Fnan
sI14
Fnan
ssg154
(dp466
I0
F9.30879
sI1
F9.573784
sI2
F9.46611
sI3
F10.32964
sI4
F9.204539
sI5
F10.58266
sI6
F8.360204
sI7
F9.921562
sI8
F9.940919
sI9
F9.902343
sI10
F9.865095
sI11
F9.488598
sI12
F9.251188
sI13
F9.629361
sI14
F11.12997
ssg156
(dp467
I0
F10.972
sI1
F10.97
sI2
F10.944
sI3
F10.964
sI4
F10.975
sI5
F10.981
sI6
F10.955
sI7
F10.984
sI8
F10.975
sI9
F10.974
sI10
F10.955
sI11
F10.973
sI12
F10.976
sI13
F10.957
sI14
F10.992
ssg158
(dp468
I0
F0.8688165299071372
sI1
Fnan
sI2
Fnan
sI3
Fnan
sI4
Fnan
sI5
Fnan
sI6
Fnan
sI7
Fnan
sI8
Fnan
sI9
Fnan
sI10
Fnan
sI11
Fnan
sI12
Fnan
sI13
Fnan
sI14
Fnan
sssS'V'
p469
(dp470
g3
(dp471
I0
F0.6913644750334306
sI1
Fnan
sI2
Fnan
sI3
Fnan
sI4
Fnan
sI5
Fnan
sI6
Fnan
sI7
Fnan
sI8
Fnan
sI9
Fnan
sI10
Fnan
sI11
Fnan
sI12
Fnan
sI13
Fnan
sI14
Fnan
ssg5
(dp472
I0
S'NoError'
p473
sI1
S'NoError'
p474
sI2
S'NoError'
p475
sI3
S'NoError'
p476
sI4
S'NoError'
p477
sI5
S'NoError'
p478
sI6
S'NoError'
p479
sI7
S'NoError'
p480
sI8
S'NoError'
p481
sI9
S'NoError'
p482
sI10
S'NoError'
p483
sI11
S'NoError'
p484
sI12
S'NoError'
p485
sI13
S'NoError'
p486
sI14
S'NoError'
p487
ssg22
(dp488
I0
F0.002
sI1
F0.002
sI2
F0.002
sI3
F0.002
sI4
F0.002
sI5
F0.002
sI6
F0.002
sI7
F0.002
sI8
F0.002
sI9
F0.002
sI10
F0.002
sI11
F0.002
sI12
F0.002
sI13
F0.002
sI14
F0.002
ssg24
(dp489
I0
F0.8853099681412653
sI1
F0.8877059512205101
sI2
F0.8894786067633503
sI3
F0.8837121443630935
sI4
F0.8833115471277171
sI5
F0.8813606446321196
sI6
F0.8829111335845805
sI7
F0.8859608415007114
sI8
F0.8882366659861008
sI9
F0.880517810422316
sI10
F0.8869803211411034
sI11
F0.885752418104078
sI12
F0.8889551837896599
sI13
F0.8843241639533322
sI14
F0.8837322997163196
ssg26
(dp490
I0
F0.0027067930165408697
sI1
Fnan
sI2
Fnan
sI3
Fnan
sI4
Fnan
sI5
Fnan
sI6
Fnan
sI7
Fnan
sI8
Fnan
sI9
Fnan
sI10
Fnan
sI11
Fnan
sI12
Fnan
sI13
Fnan
sI14
Fnan
ssg28
(dp491
I0
F0.8852166466964171
sI1
Fnan
sI2
Fnan
sI3
Fnan
sI4
Fnan
sI5
Fnan
sI6
Fnan
sI7
Fnan
sI8
Fnan
sI9
Fnan
sI10
Fnan
sI11
Fnan
sI12
Fnan
sI13
Fnan
sI14
Fnan
ssg30
(dp492
I0
F11.512
sI1
F11.433
sI2
F11.438
sI3
F11.487
sI4
F11.427
sI5
F11.419
sI6
F11.42
sI7
F11.419
sI8
F11.443
sI9
F11.429
sI10
F11.418
sI11
F11.447
sI12
F11.426
sI13
F11.428
sI14
F11.432
ssg32
(dp493
I0
F11.21857
sI1
F10.03299
sI2
F9.823614
sI3
F10.66007
sI4
F9.608107
sI5
F8.965931
sI6
F9.194485
sI7
F8.475724
sI8
F10.24561
sI9
F10.00241
sI10
F9.668032
sI11
F10.09266
sI12
F8.800389
sI13
F8.759294
sI14
F9.489623
ssg34
(dp494
I0
F2458364.749212963
sI1
F2458364.7515625
sI2
F2458364.7500462965
sI3
F2458364.748460648
sI4
F2458364.731273148
sI5
F2458364.7305208333
sI6
F2458364.7297800924
sI7
F2458364.711076389
sI8
F2458364.7133217594
sI9
F2458364.7125810185
sI10
F2458364.7327546296
sI11
F2458364.7140625
sI12
F2458364.7118171295
sI13
F2458364.750810185
sI14
F2458364.7320138887
ssg36
(dp495
I0
F0.7867689333333333
sI1
Fnan
sI2
Fnan
sI3
Fnan
sI4
Fnan
sI5
Fnan
sI6
Fnan
sI7
Fnan
sI8
Fnan
sI9
Fnan
sI10
Fnan
sI11
Fnan
sI12
Fnan
sI13
Fnan
sI14
Fnan
ssg38
(dp496
I0
F2.277349
sI1
Fnan
sI2
Fnan
sI3
Fnan
sI4
Fnan
sI5
Fnan
sI6
Fnan
sI7
Fnan
sI8
Fnan
sI9
Fnan
sI10
Fnan
sI11
Fnan
sI12
Fnan
sI13
Fnan
sI14
Fnan
ssg40
(dp497
I0
F0.6876731273954354
sI1
F0.6898258105647047
sI2
F0.6898399162957426
sI3
F0.6898559488855764
sI4
F0.6932296219148404
sI5
F0.693552516638652
sI6
F0.6884156680801222
sI7
F0.6949344970923255
sI8
F0.6918060277220837
sI9
F0.6922895115434677
sI10
F0.692997203443305
sI11
F0.6908401470192115
sI12
F0.6912745033406155
sI13
F0.6907397436469278
sI14
F0.6930715563393479
ssg42
(dp498
I0
F0.001550014250021316
sI1
Fnan
sI2
Fnan
sI3
Fnan
sI4
Fnan
sI5
Fnan
sI6
Fnan
sI7
Fnan
sI8
Fnan
sI9
Fnan
sI10
Fnan
sI11
Fnan
sI12
Fnan
sI13
Fnan
sI14
Fnan
ssg44
(dp499
I0
F0.9327679533333332
sI1
Fnan
sI2
Fnan
sI3
Fnan
sI4
Fnan
sI5
Fnan
sI6
Fnan
sI7
Fnan
sI8
Fnan
sI9
Fnan
sI10
Fnan
sI11
Fnan
sI12
Fnan
sI13
Fnan
sI14
Fnan
ssg46
(dp500
I0
g473
sI1
g474
sI2
g475
sI3
g476
sI4
g477
sI5
g478
sI6
g479
sI7
g480
sI8
g481
sI9
g482
sI10
g483
sI11
g484
sI12
g485
sI13
g486
sI14
g487
ssg48
(dp501
I0
F0.0024902205146563614
sI1
Fnan
sI2
Fnan
sI3
Fnan
sI4
Fnan
sI5
Fnan
sI6
Fnan
sI7
Fnan
sI8
Fnan
sI9
Fnan
sI10
Fnan
sI11
Fnan
sI12
Fnan
sI13
Fnan
sI14
Fnan
ssg50
(dp502
I0
F0.024961303384772735
sI1
Fnan
sI2
Fnan
sI3
Fnan
sI4
Fnan
sI5
Fnan
sI6
Fnan
sI7
Fnan
sI8
Fnan
sI9
Fnan
sI10
Fnan
sI11
Fnan
sI12
Fnan
sI13
Fnan
sI14
Fnan
ssg52
(dp503
I0
F1.3005779333333332
sI1
Fnan
sI2
Fnan
sI3
Fnan
sI4
Fnan
sI5
Fnan
sI6
Fnan
sI7
Fnan
sI8
Fnan
sI9
Fnan
sI10
Fnan
sI11
Fnan
sI12
Fnan
sI13
Fnan
sI14
Fnan
ssg54
(dp504
I0
F1.5068096963050008
sI1
F1.503638122771082
sI2
F1.4981699267729964
sI3
F1.512026892871331
sI4
F1.5082014863748967
sI5
F1.5076259793978444
sI6
F1.4996257178337964
sI7
F1.4996316591083567
sI8
F1.5059116242320558
sI9
F1.5035792056641637
sI10
F1.4976125576381536
sI11
F1.5017266182380542
sI12
F1.4975808920286715
sI13
F1.5050525817471332
sI14
F1.5053523739073604
ssg56
(dp505
I0
g473
sI1
g474
sI2
g475
sI3
g476
sI4
g477
sI5
g478
sI6
g479
sI7
g480
sI8
g481
sI9
g482
sI10
g483
sI11
g484
sI12
g485
sI13
g486
sI14
g487
ssg58
(dp506
I0
F13.47563
sI1
F10.33946
sI2
F10.06842
sI3
F12.67784
sI4
F10.29117
sI5
F10.06673
sI6
F10.84975
sI7
F9.824358
sI8
F9.586275
sI9
F10.03577
sI10
F11.03739
sI11
F10.56782
sI12
F9.158113
sI13
F10.34214
sI14
F9.89515
ssg60
(dp507
I0
F10.763466666666666
sI1
Fnan
sI2
Fnan
sI3
Fnan
sI4
Fnan
sI5
Fnan
sI6
Fnan
sI7
Fnan
sI8
Fnan
sI9
Fnan
sI10
Fnan
sI11
Fnan
sI12
Fnan
sI13
Fnan
sI14
Fnan
ssg62
(dp508
I0
F0.717568676837366
sI1
Fnan
sI2
Fnan
sI3
Fnan
sI4
Fnan
sI5
Fnan
sI6
Fnan
sI7
Fnan
sI8
Fnan
sI9
Fnan
sI10
Fnan
sI11
Fnan
sI12
Fnan
sI13
Fnan
sI14
Fnan
ssg64
(dp509
I0
F-1.616786
sI1
F3.81476
sI2
F2.160647
sI3
F3.209525
sI4
F-2.220046
sI5
F-2.170545
sI6
F4.06243
sI7
F3.12896
sI8
F4.390353
sI9
F2.964657
sI10
F2.30173
sI11
F4.505021
sI12
F2.238763
sI13
F3.742387
sI14
F3.648379
ssg66
(dp510
I0
F11.127733333333332
sI1
Fnan
sI2
Fnan
sI3
Fnan
sI4
Fnan
sI5
Fnan
sI6
Fnan
sI7
Fnan
sI8
Fnan
sI9
Fnan
sI10
Fnan
sI11
Fnan
sI12
Fnan
sI13
Fnan
sI14
Fnan
ssg68
(dp511
I0
g473
sI1
g474
sI2
g475
sI3
g476
sI4
g477
sI5
g478
sI6
g479
sI7
g480
sI8
g481
sI9
g482
sI10
g483
sI11
g484
sI12
g485
sI13
g486
sI14
g487
ssg70
(dp512
I0
F8352.33
sI1
F8968.69
sI2
F8945.966666666667
sI3
F8506.7
sI4
F8947.953333333333
sI5
F8992.183333333332
sI6
F9067.980000000001
sI7
F9007.84
sI8
F8867.730000000001
sI9
F8924.033333333333
sI10
F9051.51
sI11
F8831.196666666667
sI12
F9023.83
sI13
F8981.753333333332
sI14
F8911.656666666668
ssg72
(dp513
I0
F1.027571
sI1
F1.030043
sI2
F1.028437
sI3
F1.026799
sI4
F1.012869
sI5
F1.012422
sI6
F1.0119879999999999
sI7
F1.005179
sI8
F1.005583
sI9
F1.0054370000000001
sI10
F1.013795
sI11
F1.005741
sI12
F1.0053020000000001
sI13
F1.029241
sI14
F1.013326
ssg74
(dp514
I0
F7172.346666666666
sI1
F7685.503333333333
sI2
F7669.033333333334
sI3
F7301.206666666667
sI4
F7703.296666666666
sI5
F7769.816666666667
sI6
F7853.3
sI7
F7761.046666666666
sI8
F7581.5
sI9
F7741.21
sI10
F7794.97
sI11
F7601.696666666667
sI12
F7745.4366666666665
sI13
F7734.123333333334
sI14
F7680.046666666666
ssg76
(dp515
I0
F11696.366666666667
sI1
F12520.94
sI2
F12446.046666666667
sI3
F11950.99
sI4
F12556.72
sI5
F12635.413333333334
sI6
F12687.793333333333
sI7
F12573.576666666666
sI8
F12385.543333333333
sI9
F12528.756666666666
sI10
F12614.75
sI11
F12338.856666666667
sI12
F12556.666666666666
sI13
F12579.136666666665
sI14
F12488.18
ssg78
(dp516
I0
F12.45268
sI1
F10.36449
sI2
F9.726097
sI3
F10.9897
sI4
F10.19333
sI5
F9.043535
sI6
F8.491643
sI7
F9.729367
sI8
F9.466156
sI9
F8.625377
sI10
F9.037733
sI11
F9.542057
sI12
F9.184067
sI13
F9.241409
sI14
F9.744411
ssg80
(dp517
I0
F11.361
sI1
F11.286
sI2
F11.288
sI3
F11.342
sI4
F11.283
sI5
F11.274
sI6
F11.262
sI7
F11.275
sI8
F11.301
sI9
F11.278
sI10
F11.27
sI11
F11.298
sI12
F11.277
sI13
F11.279
sI14
F11.287
ssg82
(dp518
I0
F0.002
sI1
F0.002
sI2
F0.002
sI3
F0.002
sI4
F0.002
sI5
F0.002
sI6
F0.002
sI7
F0.002
sI8
F0.002
sI9
F0.002
sI10
F0.002
sI11
F0.002
sI12
F0.002
sI13
F0.002
sI14
F0.002
ssg84
(dp519
I0
F0.6913563866614906
sI1
Fnan
sI2
Fnan
sI3
Fnan
sI4
Fnan
sI5
Fnan
sI6
Fnan
sI7
Fnan
sI8
Fnan
sI9
Fnan
sI10
Fnan
sI11
Fnan
sI12
Fnan
sI13
Fnan
sI14
Fnan
ssg86
(dp520
I0
F11.290733333333332
sI1
Fnan
sI2
Fnan
sI3
Fnan
sI4
Fnan
sI5
Fnan
sI6
Fnan
sI7
Fnan
sI8
Fnan
sI9
Fnan
sI10
Fnan
sI11
Fnan
sI12
Fnan
sI13
Fnan
sI14
Fnan
ssg88
(dp521
I0
F11.195
sI1
F11.118
sI2
F11.121
sI3
F11.176
sI4
F11.121
sI5
F11.115
sI6
F11.106
sI7
F11.113
sI8
F11.13
sI9
F11.124
sI10
F11.108
sI11
F11.135
sI12
F11.112
sI13
F11.117
sI14
F11.125
ssg90
(dp522
I0
F3.445112
sI1
F3.645885
sI2
F2.976197
sI3
F3.285668
sI4
F-2.080041
sI5
F-2.11934
sI6
F4.139651
sI7
F4.316895
sI8
F3.695857
sI9
F-1.228037
sI10
F-2.843796
sI11
F-3.338609
sI12
F2.992147
sI13
F-3.69841
sI14
F-1.387645
ssg92
(dp523
I0
F0.02392508147968399
sI1
Fnan
sI2
Fnan
sI3
Fnan
sI4
Fnan
sI5
Fnan
sI6
Fnan
sI7
Fnan
sI8
Fnan
sI9
Fnan
sI10
Fnan
sI11
Fnan
sI12
Fnan
sI13
Fnan
sI14
Fnan
ssg94
(dp524
I0
F0.7154925615281059
sI1
F0.7152755383255396
sI2
F0.7169996777613576
sI3
F0.7137860302572447
sI4
F0.7164300100970301
sI5
F0.7185094845643969
sI6
F0.721950893647847
sI7
F0.719234217710453
sI8
F0.7134430429696946
sI9
F0.7216972710775614
sI10
F0.7195491976926336
sI11
F0.7181556462776979
sI12
F0.7178182028248037
sI13
F0.7174215288268094
sI14
F0.7177668489993146
ssg96
(dp525
I0
F30.0
sI1
F30.0
sI2
F30.0
sI3
F30.0
sI4
F30.0
sI5
F30.0
sI6
F30.0
sI7
F30.0
sI8
F30.0
sI9
F30.0
sI10
F30.0
sI11
F30.0
sI12
F30.0
sI13
F30.0
sI14
F30.0
ssg98
(dp526
I0
F0.002
sI1
F0.002
sI2
F0.002
sI3
F0.002
sI4
F0.002
sI5
F0.002
sI6
F0.002
sI7
F0.002
sI8
F0.002
sI9
F0.002
sI10
F0.002
sI11
F0.002
sI12
F0.002
sI13
F0.002
sI14
F0.002
ssg100
(dp527
I0
F0.002
sI1
F0.002
sI2
F0.002
sI3
F0.002
sI4
F0.002
sI5
F0.002
sI6
F0.002
sI7
F0.002
sI8
F0.002
sI9
F0.002
sI10
F0.002
sI11
F0.002
sI12
F0.002
sI13
F0.002
sI14
F0.002
ssg102
(dp528
I0
F4.049978
sI1
F2.591258
sI2
F-2.071384
sI3
F3.547135
sI4
F2.566497
sI5
F3.606672
sI6
F-3.229044
sI7
F2.637334
sI8
F3.333575
sI9
F-1.448107
sI10
F2.874681
sI11
F-2.004055
sI12
F3.098382
sI13
F-1.230871
sI14
F1.186618
ssg104
(dp529
I0
S'KIC8462852-20180903at055852_-25-1X1-030-V_cal.fts.mag.1'
p530
sI1
S'KIC8462852-20180903at060215_-25-1X1-030-V_cal.fts.mag.1'
p531
sI2
S'KIC8462852-20180903at060004_-25-1X1-030-V_cal.fts.mag.1'
p532
sI3
S'KIC8462852-20180903at055740_-25-1X1-030-V_cal.fts.mag.1'
p533
sI4
S'KIC8462852-20180903at053301_-25-1X1-030-V_cal.fts.mag.1'
p534
sI5
S'KIC8462852-20180903at053157_-25-1X1-030-V_cal.fts.mag.1'
p535
sI6
S'KIC8462852-20180903at053046_-25-1X1-030-V_cal.fts.mag.1'
p536
sI7
S'KIC8462852-20180903at050349_-25-1X1-030-V_cal.fts.mag.1'
p537
sI8
S'KIC8462852-20180903at050711_-25-1X1-030-V_cal.fts.mag.1'
p538
sI9
S'KIC8462852-20180903at050606_-25-1X1-030-V_cal.fts.mag.1'
p539
sI10
S'KIC8462852-20180903at053510_-25-1X1-030-V_cal.fts.mag.1'
p540
sI11
S'KIC8462852-20180903at050815_-25-1X1-030-V_cal.fts.mag.1'
p541
sI12
S'KIC8462852-20180903at050501_-25-1X1-030-V_cal.fts.mag.1'
p542
sI13
S'KIC8462852-20180903at060110_-25-1X1-030-V_cal.fts.mag.1'
p543
sI14
S'KIC8462852-20180903at053406_-25-1X1-030-V_cal.fts.mag.1'
p544
ssg121
(dp545
I0
F0.004356433015035387
sI1
Fnan
sI2
Fnan
sI3
Fnan
sI4
Fnan
sI5
Fnan
sI6
Fnan
sI7
Fnan
sI8
Fnan
sI9
Fnan
sI10
Fnan
sI11
Fnan
sI12
Fnan
sI13
Fnan
sI14
Fnan
ssg123
(dp546
I0
F6239.7266666666665
sI1
F6708.586666666667
sI2
F6682.490000000001
sI3
F6383.213333333333
sI4
F6749.276666666667
sI5
F6796.216666666666
sI6
F6794.45
sI7
F6797.03
sI8
F6649.3566666666675
sI9
F6736.9
sI10
F6805.516666666666
sI11
F6625.5599999999995
sI12
F6757.423333333334
sI13
F6745.076666666666
sI14
F6718.1466666666665
ssg125
(dp547
I0
F0.02685800403887812
sI1
Fnan
sI2
Fnan
sI3
Fnan
sI4
Fnan
sI5
Fnan
sI6
Fnan
sI7
Fnan
sI8
Fnan
sI9
Fnan
sI10
Fnan
sI11
Fnan
sI12
Fnan
sI13
Fnan
sI14
Fnan
ssg127
(dp548
I0
g469
sI1
g469
sI2
g469
sI3
g469
sI4
g469
sI5
g469
sI6
g469
sI7
g469
sI8
g469
sI9
g469
sI10
g469
sI11
g469
sI12
g469
sI13
g469
sI14
g469
ssg144
(dp549
I0
F0.002028426516110067
sI1
Fnan
sI2
Fnan
sI3
Fnan
sI4
Fnan
sI5
Fnan
sI6
Fnan
sI7
Fnan
sI8
Fnan
sI9
Fnan
sI10
Fnan
sI11
Fnan
sI12
Fnan
sI13
Fnan
sI14
Fnan
ssg146
(dp550
I0
F3.751933
sI1
F2.431024
sI2
F0.6113703
sI3
F2.807999
sI4
F-3.301188
sI5
F1.185633
sI6
F2.132513
sI7
F2.619985
sI8
F-3.843755
sI9
F-3.098449
sI10
F-1.5864
sI11
F1.820733
sI12
F3.170945
sI13
F3.286358
sI14
F2.002818
ssg148
(dp551
I0
F1.5035030223260597
sI1
Fnan
sI2
Fnan
sI3
Fnan
sI4
Fnan
sI5
Fnan
sI6
Fnan
sI7
Fnan
sI8
Fnan
sI9
Fnan
sI10
Fnan
sI11
Fnan
sI12
Fnan
sI13
Fnan
sI14
Fnan
ssg150
(dp552
I0
F2458364.731273148
sI1
Fnan
sI2
Fnan
sI3
Fnan
sI4
Fnan
sI5
Fnan
sI6
Fnan
sI7
Fnan
sI8
Fnan
sI9
Fnan
sI10
Fnan
sI11
Fnan
sI12
Fnan
sI13
Fnan
sI14
Fnan
ssg152
(dp553
I0
F0.002028426516110067
sI1
Fnan
sI2
Fnan
sI3
Fnan
sI4
Fnan
sI5
Fnan
sI6
Fnan
sI7
Fnan
sI8
Fnan
sI9
Fnan
sI10
Fnan
sI11
Fnan
sI12
Fnan
sI13
Fnan
sI14
Fnan
ssg154
(dp554
I0
F17.73665
sI1
F12.05537
sI2
F12.50405
sI3
F15.17058
sI4
F12.27077
sI5
F11.8504
sI6
F11.29828
sI7
F10.68379
sI8
F12.18081
sI9
F11.76916
sI10
F12.55974
sI11
F13.41313
sI12
F11.19894
sI13
F12.49449
sI14
F12.19427
ssg156
(dp555
I0
F10.83
sI1
F10.756
sI2
F10.762
sI3
F10.806
sI4
F10.753
sI5
F10.746
sI6
F10.742
sI7
F10.751
sI8
F10.768
sI9
F10.755
sI10
F10.748
sI11
F10.772
sI12
F10.753
sI13
F10.751
sI14
F10.759
ssg158
(dp556
I0
F0.6913563866614906
sI1
Fnan
sI2
Fnan
sI3
Fnan
sI4
Fnan
sI5
Fnan
sI6
Fnan
sI7
Fnan
sI8
Fnan
sI9
Fnan
sI10
Fnan
sI11
Fnan
sI12
Fnan
sI13
Fnan
sI14
Fnan
sss.