(dp0
S'i'
p1
(dp2
S'sigmean'
p3
(dp4
I0
F0.4388933546209977
sI1
Fnan
sI2
Fnan
sI3
Fnan
sI4
Fnan
sI5
Fnan
sI6
Fnan
sI7
Fnan
sI8
Fnan
sI9
Fnan
sI10
Fnan
sI11
Fnan
sI12
Fnan
sI13
Fnan
sI14
Fnan
ssS'ref3flag'
p5
(dp6
I0
S'NoError'
p7
sI1
S'NoError'
p8
sI2
S'NoError'
p9
sI3
S'NoError'
p10
sI4
S'NoError'
p11
sI5
S'NoError'
p12
sI6
S'NoError'
p13
sI7
S'NoError'
p14
sI8
S'NoError'
p15
sI9
S'NoError'
p16
sI10
S'NoError'
p17
sI11
S'NoError'
p18
sI12
S'NoError'
p19
sI13
S'NoError'
p20
sI14
S'NoError'
p21
ssS'tabbyerr'
p22
(dp23
I0
F0.003
sI1
F0.003
sI2
F0.003
sI3
F0.003
sI4
F0.003
sI5
F0.003
sI6
F0.003
sI7
F0.003
sI8
F0.003
sI9
F0.003
sI10
F0.003
sI11
F0.003
sI12
F0.003
sI13
F0.003
sI14
F0.003
ssS'ref2rel'
p24
(dp25
I0
F0.9123125546883095
sI1
F0.9080381784157807
sI2
F0.9145078034857594
sI3
F0.9105103968534721
sI4
F0.9071691240266926
sI5
F0.9113803031159361
sI6
F0.9093529056896178
sI7
F0.9059170304580004
sI8
F0.9070939334247002
sI9
F0.9122719705652187
sI10
F0.9094286992979413
sI11
F0.9113611534325976
sI12
F0.91134635626277
sI13
F0.910739333863069
sI14
F0.9078368759731665
ssS'ref2err'
p26
(dp27
I0
F0.0023840939027114944
sI1
Fnan
sI2
Fnan
sI3
Fnan
sI4
Fnan
sI5
Fnan
sI6
Fnan
sI7
Fnan
sI8
Fnan
sI9
Fnan
sI10
Fnan
sI11
Fnan
sI12
Fnan
sI13
Fnan
sI14
Fnan
ssS'ref2mean'
p28
(dp29
I0
F0.9099511079702022
sI1
Fnan
sI2
Fnan
sI3
Fnan
sI4
Fnan
sI5
Fnan
sI6
Fnan
sI7
Fnan
sI8
Fnan
sI9
Fnan
sI10
Fnan
sI11
Fnan
sI12
Fnan
sI13
Fnan
sI14
Fnan
ssS'tabbymag'
p30
(dp31
I0
F11.845
sI1
F11.852
sI2
F11.835
sI3
F11.848
sI4
F11.841
sI5
F11.84
sI6
F11.836
sI7
F11.866
sI8
F11.886
sI9
F11.827
sI10
F11.833
sI11
F11.836
sI12
F11.848
sI13
F11.845
sI14
F11.838
ssS'tabbybkg'
p32
(dp33
I0
F11.46229
sI1
F14.07074
sI2
F13.15485
sI3
F12.12302
sI4
F13.13158
sI5
F15.06917
sI6
F14.34651
sI7
F13.7011
sI8
F11.65453
sI9
F14.64646
sI10
F12.94792
sI11
F11.79585
sI12
F12.64074
sI13
F14.59999
sI14
F13.43072
ssS'JD'
p34
(dp35
I0
F2458361.6849189815
sI1
F2458361.724641204
sI2
F2458361.7055092594
sI3
F2458361.6857175925
sI4
F2458361.7070717593
sI5
F2458361.7270486113
sI6
F2458361.725439815
sI7
F2458361.7062962963
sI8
F2458361.684108796
sI9
F2458361.727835648
sI10
F2458361.7047222224
sI11
F2458361.686527778
sI12
F2458361.683321759
sI13
F2458361.726238426
sI14
F2458361.703912037
ssS'ref3rmsmean'
p36
(dp37
I0
F1.8069196000000003
sI1
Fnan
sI2
Fnan
sI3
Fnan
sI4
Fnan
sI5
Fnan
sI6
Fnan
sI7
Fnan
sI8
Fnan
sI9
Fnan
sI10
Fnan
sI11
Fnan
sI12
Fnan
sI13
Fnan
sI14
Fnan
ssS'ref1rmsmean'
p38
(dp39
I0
F1.4240755999999999
sI1
Fnan
sI2
Fnan
sI3
Fnan
sI4
Fnan
sI5
Fnan
sI6
Fnan
sI7
Fnan
sI8
Fnan
sI9
Fnan
sI10
Fnan
sI11
Fnan
sI12
Fnan
sI13
Fnan
sI14
Fnan
ssS'relflux'
p40
(dp41
I0
F0.43695748096170756
sI1
F0.4380259036221054
sI2
F0.44007405268488986
sI3
F0.43513752029342223
sI4
F0.44034696662063444
sI5
F0.43703329283846964
sI6
F0.44016335999817513
sI7
F0.43800314544914704
sI8
F0.43750355293680665
sI9
F0.43906517390812483
sI10
F0.43976776060097716
sI11
F0.44071296321170395
sI12
F0.43819404266016015
sI13
F0.43916950176992053
sI14
F0.43948976743114626
ssS'sigerr'
p42
(dp43
I0
F0.001219776449742512
sI1
Fnan
sI2
Fnan
sI3
Fnan
sI4
Fnan
sI5
Fnan
sI6
Fnan
sI7
Fnan
sI8
Fnan
sI9
Fnan
sI10
Fnan
sI11
Fnan
sI12
Fnan
sI13
Fnan
sI14
Fnan
ssS'tabbyrmsmean'
p44
(dp45
I0
F1.8791617333333335
sI1
Fnan
sI2
Fnan
sI3
Fnan
sI4
Fnan
sI5
Fnan
sI6
Fnan
sI7
Fnan
sI8
Fnan
sI9
Fnan
sI10
Fnan
sI11
Fnan
sI12
Fnan
sI13
Fnan
sI14
Fnan
ssS'tabbyflag'
p46
(dp47
I0
g7
sI1
g8
sI2
g9
sI3
g10
sI4
g11
sI5
g12
sI6
g13
sI7
g14
sI8
g15
sI9
g16
sI10
g17
sI11
g18
sI12
g19
sI13
g20
sI14
g21
ssS'ref1err'
p48
(dp49
I0
F0.004116481739568898
sI1
Fnan
sI2
Fnan
sI3
Fnan
sI4
Fnan
sI5
Fnan
sI6
Fnan
sI7
Fnan
sI8
Fnan
sI9
Fnan
sI10
Fnan
sI11
Fnan
sI12
Fnan
sI13
Fnan
sI14
Fnan
ssS'ref2magmeanerr'
p50
(dp51
I0
F0.014646631337062156
sI1
Fnan
sI2
Fnan
sI3
Fnan
sI4
Fnan
sI5
Fnan
sI6
Fnan
sI7
Fnan
sI8
Fnan
sI9
Fnan
sI10
Fnan
sI11
Fnan
sI12
Fnan
sI13
Fnan
sI14
Fnan
ssS'ref2rmsmean'
p52
(dp53
I0
F1.7678323466666668
sI1
Fnan
sI2
Fnan
sI3
Fnan
sI4
Fnan
sI5
Fnan
sI6
Fnan
sI7
Fnan
sI8
Fnan
sI9
Fnan
sI10
Fnan
sI11
Fnan
sI12
Fnan
sI13
Fnan
sI14
Fnan
ssS'ref3rel'
p54
(dp55
I0
F1.4954614821968653
sI1
F1.496173742220906
sI2
F1.4952256491513105
sI3
F1.5058618959371928
sI4
F1.5005771552033955
sI5
F1.4970130870041551
sI6
F1.4987441075774024
sI7
F1.4937547457307532
sI8
F1.5119463704064116
sI9
F1.4908843680791797
sI10
F1.5026102600306348
sI11
F1.510222598922284
sI12
F1.5084320242137048
sI13
F1.4920930960912726
sI14
F1.5071714896297137
ssS'ref1flag'
p56
(dp57
I0
g7
sI1
g8
sI2
g9
sI3
g10
sI4
g11
sI5
g12
sI6
g13
sI7
g14
sI8
g15
sI9
g16
sI10
g17
sI11
g18
sI12
g19
sI13
g20
sI14
g21
ssS'ref2bkg'
p58
(dp59
I0
F14.46555
sI1
F17.24879
sI2
F15.56194
sI3
F13.57559
sI4
F15.94649
sI5
F16.16659
sI6
F16.23226
sI7
F16.30553
sI8
F14.95596
sI9
F15.49981
sI10
F14.8101
sI11
F13.84381
sI12
F14.01769
sI13
F16.16577
sI14
F15.53656
ssS'ref3magmean'
p60
(dp61
I0
F10.677199999999997
sI1
Fnan
sI2
Fnan
sI3
Fnan
sI4
Fnan
sI5
Fnan
sI6
Fnan
sI7
Fnan
sI8
Fnan
sI9
Fnan
sI10
Fnan
sI11
Fnan
sI12
Fnan
sI13
Fnan
sI14
Fnan
ssS'ref1mean'
p62
(dp63
I0
F0.6978257238536306
sI1
Fnan
sI2
Fnan
sI3
Fnan
sI4
Fnan
sI5
Fnan
sI6
Fnan
sI7
Fnan
sI8
Fnan
sI9
Fnan
sI10
Fnan
sI11
Fnan
sI12
Fnan
sI13
Fnan
sI14
Fnan
ssS'ref1rms'
p64
(dp65
I0
F1.940407
sI1
F-3.348232
sI2
F-1.859561
sI3
F3.881339
sI4
F-1.268308
sI5
F2.443848
sI6
F-2.519451
sI7
F3.433196
sI8
F5.147477
sI9
F3.217677
sI10
F2.405186
sI11
F3.709214
sI12
F3.587314
sI13
F3.792951
sI14
F-3.201923
ssS'ref2magmean'
p66
(dp67
I0
F11.019666666666666
sI1
Fnan
sI2
Fnan
sI3
Fnan
sI4
Fnan
sI5
Fnan
sI6
Fnan
sI7
Fnan
sI8
Fnan
sI9
Fnan
sI10
Fnan
sI11
Fnan
sI12
Fnan
sI13
Fnan
sI14
Fnan
ssS'ref2flag'
p68
(dp69
I0
g7
sI1
g8
sI2
g9
sI3
g10
sI4
g11
sI5
g12
sI6
g13
sI7
g14
sI8
g15
sI9
g16
sI10
g17
sI11
g18
sI12
g19
sI13
g20
sI14
g21
ssS'ref2'
p70
(dp71
I0
F9875.42
sI1
F9756.543333333333
sI2
F9913.973333333333
sI3
F9879.473333333333
sI4
F9802.230000000001
sI5
F9917.216666666667
sI6
F9865.65
sI7
F9617.746666666668
sI8
F9459.213333333335
sI9
F9996.273333333334
sI10
F9899.463333333335
sI11
F9865.873333333333
sI12
F9812.769999999999
sI13
F9814.913333333334
sI14
F9848.57
ssS'airmass'
p72
(dp73
I0
F1.012968
sI1
F1.0063389999999999
sI2
F1.0051450000000002
sI3
F1.012493
sI4
F1.0049350000000001
sI5
F1.0070620000000001
sI6
F1.006565
sI7
F1.005034
sI8
F1.013465
sI9
F1.007332
sI10
F1.00527
sI11
F1.012009
sI12
F1.013978
sI13
F1.006807
sI14
F1.005408
ssS'ref1'
p74
(dp75
I0
F8162.04
sI1
F8117.753333333333
sI2
F8165.2733333333335
sI3
F8136.3133333333335
sI4
F8144.993333333333
sI5
F8201.266666666666
sI6
F8177.296666666666
sI7
F8042.863333333333
sI8
F7804.886666666667
sI9
F8286.423333333334
sI10
F8184.303333333333
sI11
F8091.236666666667
sI12
F8057.0
sI13
F8150.61
sI14
F8140.486666666667
ssS'ref3'
p76
(dp77
I0
F13487.163333333334
sI1
F13371.526666666667
sI2
F13516.276666666667
sI3
F13564.643333333333
sI4
F13465.596666666668
sI5
F13561.803333333333
sI6
F13520.880000000001
sI7
F13190.31
sI8
F13051.196666666667
sI9
F13628.693333333333
sI10
F13586.426666666666
sI11
F13559.616666666667
sI12
F13477.666666666666
sI13
F13403.116666666667
sI14
F13556.296666666667
ssS'ref1bkg'
p78
(dp79
I0
F12.99162
sI1
F16.69455
sI2
F14.32817
sI3
F12.20279
sI4
F14.50798
sI5
F15.79628
sI6
F16.33621
sI7
F14.61296
sI8
F14.40588
sI9
F15.20488
sI10
F13.87641
sI11
F13.51935
sI12
F13.50509
sI13
F14.8719
sI14
F14.29836
ssS'ref1mag'
p80
(dp81
I0
F11.221
sI1
F11.226
sI2
F11.22
sI3
F11.224
sI4
F11.223
sI5
F11.215
sI6
F11.218
sI7
F11.236
sI8
F11.269
sI9
F11.204
sI10
F11.218
sI11
F11.23
sI12
F11.235
sI13
F11.222
sI14
F11.223
ssS'ref3magerr'
p82
(dp83
I0
F0.002
sI1
F0.002
sI2
F0.002
sI3
F0.002
sI4
F0.002
sI5
F0.002
sI6
F0.002
sI7
F0.002
sI8
F0.002
sI9
F0.002
sI10
F0.002
sI11
F0.002
sI12
F0.002
sI13
F0.002
sI14
F0.002
ssS'tabbymagmean'
p84
(dp85
I0
F0.43864296566582606
sI1
Fnan
sI2
Fnan
sI3
Fnan
sI4
Fnan
sI5
Fnan
sI6
Fnan
sI7
Fnan
sI8
Fnan
sI9
Fnan
sI10
Fnan
sI11
Fnan
sI12
Fnan
sI13
Fnan
sI14
Fnan
ssS'ref1magmean'
p86
(dp87
I0
F11.225600000000004
sI1
Fnan
sI2
Fnan
sI3
Fnan
sI4
Fnan
sI5
Fnan
sI6
Fnan
sI7
Fnan
sI8
Fnan
sI9
Fnan
sI10
Fnan
sI11
Fnan
sI12
Fnan
sI13
Fnan
sI14
Fnan
ssS'ref2mag'
p88
(dp89
I0
F11.014
sI1
F11.027
sI2
F11.009
sI3
F11.013
sI4
F11.022
sI5
F11.009
sI6
F11.015
sI7
F11.042
sI8
F11.06
sI9
F11.0
sI10
F11.011
sI11
F11.015
sI12
F11.021
sI13
F11.02
sI14
F11.017
ssS'ref3rms'
p90
(dp91
I0
F3.18566
sI1
F3.523905
sI2
F1.546564
sI3
F3.077993
sI4
F1.987051
sI5
F-4.007737
sI6
F2.079833
sI7
F3.316977
sI8
F1.086421
sI9
F4.640662
sI10
F1.701621
sI11
F4.31859
sI12
F1.349899
sI13
F-2.316356
sI14
F1.612711
ssS'ref3magmeanerr'
p92
(dp93
I0
F0.012773857231526773
sI1
Fnan
sI2
Fnan
sI3
Fnan
sI4
Fnan
sI5
Fnan
sI6
Fnan
sI7
Fnan
sI8
Fnan
sI9
Fnan
sI10
Fnan
sI11
Fnan
sI12
Fnan
sI13
Fnan
sI14
Fnan
ssS'ref1rel'
p94
(dp95
I0
F0.6987275237113475
sI1
F0.7019827710079858
sI2
F0.6969855919875659
sI3
F0.6941027848493616
sI4
F0.7001077883223014
sI5
F0.6986038315625326
sI6
F0.6993168004545066
sI7
F0.7052651131902659
sI8
F0.693446868952335
sI9
F0.7014971449695168
sI10
F0.6969549234313311
sI11
F0.6908061830652564
sI12
F0.6918719571738386
sI13
F0.7020931577743676
sI14
F0.6956234173519467
ssS'exposure'
p96
(dp97
I0
F30.0
sI1
F30.0
sI2
F30.0
sI3
F30.0
sI4
F30.0
sI5
F30.0
sI6
F30.0
sI7
F30.0
sI8
F30.0
sI9
F30.0
sI10
F30.0
sI11
F30.0
sI12
F30.0
sI13
F30.0
sI14
F30.0
ssS'ref1magerr'
p98
(dp99
I0
F0.002
sI1
F0.002
sI2
F0.002
sI3
F0.002
sI4
F0.002
sI5
F0.002
sI6
F0.002
sI7
F0.002
sI8
F0.002
sI9
F0.002
sI10
F0.002
sI11
F0.002
sI12
F0.002
sI13
F0.002
sI14
F0.002
ssS'ref2magerr'
p100
(dp101
I0
F0.002
sI1
F0.002
sI2
F0.002
sI3
F0.002
sI4
F0.002
sI5
F0.002
sI6
F0.002
sI7
F0.002
sI8
F0.002
sI9
F0.002
sI10
F0.002
sI11
F0.002
sI12
F0.002
sI13
F0.002
sI14
F0.002
ssS'ref2rms'
p102
(dp103
I0
F-3.513147
sI1
F0.7926982
sI2
F2.023762
sI3
F3.987467
sI4
F-1.943503
sI5
F2.543211
sI6
F2.92949
sI7
F3.769026
sI8
F2.096527
sI9
F4.469076
sI10
F2.941388
sI11
F1.809066
sI12
F3.851581
sI13
F3.709945
sI14
F-2.949102
ssS'name'
p104
(dp105
I0
S"KIC8462852-20180831at042617_-25-1X1-030-i'_cal.fts.mag.1"
p106
sI1
S"KIC8462852-20180831at052325_-25-1X1-030-i'_cal.fts.mag.1"
p107
sI2
S"KIC8462852-20180831at045556_-25-1X1-030-i'_cal.fts.mag.1"
p108
sI3
S"KIC8462852-20180831at042726_-25-1X1-030-i'_cal.fts.mag.1"
p109
sI4
S"KIC8462852-20180831at045811_-25-1X1-030-i'_cal.fts.mag.1"
p110
sI5
S"KIC8462852-20180831at052657_-25-1X1-030-i'_cal.fts.mag.1"
p111
sI6
S"KIC8462852-20180831at052438_-25-1X1-030-i'_cal.fts.mag.1"
p112
sI7
S"KIC8462852-20180831at045704_-25-1X1-030-i'_cal.fts.mag.1"
p113
sI8
S"KIC8462852-20180831at042507_-25-1X1-030-i'_cal.fts.mag.1"
p114
sI9
S"KIC8462852-20180831at052805_-25-1X1-030-i'_cal.fts.mag.1"
p115
sI10
S"KIC8462852-20180831at045447_-25-1X1-030-i'_cal.fts.mag.1"
p116
sI11
S"KIC8462852-20180831at042836_-25-1X1-030-i'_cal.fts.mag.1"
p117
sI12
S"KIC8462852-20180831at042355_-25-1X1-030-i'_cal.fts.mag.1"
p118
sI13
S"KIC8462852-20180831at052547_-25-1X1-030-i'_cal.fts.mag.1"
p119
sI14
S"KIC8462852-20180831at045334_-25-1X1-030-i'_cal.fts.mag.1"
p120
ssS'ref3err'
p121
(dp122
I0
F0.006875755320944948
sI1
Fnan
sI2
Fnan
sI3
Fnan
sI4
Fnan
sI5
Fnan
sI6
Fnan
sI7
Fnan
sI8
Fnan
sI9
Fnan
sI10
Fnan
sI11
Fnan
sI12
Fnan
sI13
Fnan
sI14
Fnan
ssS'tabby'
p123
(dp124
I0
F4591.64
sI1
F4562.16
sI2
F4634.79
sI3
F4580.61
sI4
F4610.846666666666
sI5
F4615.113333333333
sI6
F4631.08
sI7
F4504.266666666666
sI8
F4421.016666666666
sI9
F4670.3933333333325
sI10
F4642.509999999999
sI11
F4629.943333333333
sI12
F4578.753333333333
sI13
F4592.05
sI14
F4621.286666666667
ssS'ref1magmeanerr'
p125
(dp126
I0
F0.01433178286187726
sI1
Fnan
sI2
Fnan
sI3
Fnan
sI4
Fnan
sI5
Fnan
sI6
Fnan
sI7
Fnan
sI8
Fnan
sI9
Fnan
sI10
Fnan
sI11
Fnan
sI12
Fnan
sI13
Fnan
sI14
Fnan
ssS'filter'
p127
(dp128
I0
S"i'"
p129
sI1
S"i'"
p130
sI2
S"i'"
p131
sI3
S"i'"
p132
sI4
S"i'"
p133
sI5
S"i'"
p134
sI6
S"i'"
p135
sI7
S"i'"
p136
sI8
S"i'"
p137
sI9
S"i'"
p138
sI10
S"i'"
p139
sI11
S"i'"
p140
sI12
S"i'"
p141
sI13
S"i'"
p142
sI14
S"i'"
p143
ssS'tabbymagerr'
p144
(dp145
I0
F0.0015582920202664504
sI1
Fnan
sI2
Fnan
sI3
Fnan
sI4
Fnan
sI5
Fnan
sI6
Fnan
sI7
Fnan
sI8
Fnan
sI9
Fnan
sI10
Fnan
sI11
Fnan
sI12
Fnan
sI13
Fnan
sI14
Fnan
ssS'tabbyrms'
p146
(dp147
I0
F3.108009
sI1
F3.652988
sI2
F3.237095
sI3
F2.045626
sI4
F-1.750979
sI5
F-3.00083
sI6
F2.544268
sI7
F5.096859
sI8
F3.696663
sI9
F-2.605949
sI10
F3.797287
sI11
F4.009516
sI12
F3.163742
sI13
F-2.49496
sI14
F3.688091
ssS'ref3mean'
p148
(dp149
I0
F1.5004114714930121
sI1
Fnan
sI2
Fnan
sI3
Fnan
sI4
Fnan
sI5
Fnan
sI6
Fnan
sI7
Fnan
sI8
Fnan
sI9
Fnan
sI10
Fnan
sI11
Fnan
sI12
Fnan
sI13
Fnan
sI14
Fnan
ssS'median_JD'
p150
(dp151
I0
F2458361.7055092594
sI1
Fnan
sI2
Fnan
sI3
Fnan
sI4
Fnan
sI5
Fnan
sI6
Fnan
sI7
Fnan
sI8
Fnan
sI9
Fnan
sI10
Fnan
sI11
Fnan
sI12
Fnan
sI13
Fnan
sI14
Fnan
ssS'error'
p152
(dp153
I0
F0.0015582920202664504
sI1
Fnan
sI2
Fnan
sI3
Fnan
sI4
Fnan
sI5
Fnan
sI6
Fnan
sI7
Fnan
sI8
Fnan
sI9
Fnan
sI10
Fnan
sI11
Fnan
sI12
Fnan
sI13
Fnan
sI14
Fnan
ssS'ref3bkg'
p154
(dp155
I0
F15.77858
sI1
F17.56702
sI2
F17.29925
sI3
F15.26744
sI4
F17.48599
sI5
F18.67155
sI6
F17.6416
sI7
F18.19747
sI8
F17.37124
sI9
F17.17092
sI10
F16.41021
sI11
F15.24672
sI12
F16.64866
sI13
F18.14282
sI14
F16.37477
ssS'ref3mag'
p156
(dp157
I0
F10.675
sI1
F10.685
sI2
F10.673
sI3
F10.669
sI4
F10.677
sI5
F10.669
sI6
F10.672
sI7
F10.699
sI8
F10.711
sI9
F10.664
sI10
F10.667
sI11
F10.669
sI12
F10.676
sI13
F10.682
sI14
F10.67
ssS'mean'
p158
(dp159
I0
F0.43864296566582606
sI1
Fnan
sI2
Fnan
sI3
Fnan
sI4
Fnan
sI5
Fnan
sI6
Fnan
sI7
Fnan
sI8
Fnan
sI9
Fnan
sI10
Fnan
sI11
Fnan
sI12
Fnan
sI13
Fnan
sI14
Fnan
sssS'r'
p160
(dp161
g3
(dp162
I0
F0.5497763563844076
sI1
Fnan
sI2
Fnan
sI3
Fnan
sI4
Fnan
sI5
Fnan
sI6
Fnan
sI7
Fnan
sI8
Fnan
sI9
Fnan
sI10
Fnan
sI11
Fnan
sI12
Fnan
sI13
Fnan
sI14
Fnan
ssg5
(dp163
I0
S'NoError'
p164
sI1
S'NoError'
p165
sI2
S'NoError'
p166
sI3
S'NoError'
p167
sI4
S'NoError'
p168
sI5
S'NoError'
p169
sI6
S'NoError'
p170
sI7
S'NoError'
p171
sI8
S'NoError'
p172
sI9
S'NoError'
p173
sI10
S'NoError'
p174
sI11
S'NoError'
p175
sI12
S'NoError'
p176
sI13
S'NoError'
p177
sI14
S'NoError'
p178
ssg22
(dp179
I0
F0.002
sI1
F0.002
sI2
F0.002
sI3
F0.002
sI4
F0.002
sI5
F0.002
sI6
F0.002
sI7
F0.002
sI8
F0.002
sI9
F0.002
sI10
F0.002
sI11
F0.002
sI12
F0.002
sI13
F0.002
sI14
F0.002
ssg24
(dp180
I0
F0.8921650471289103
sI1
F0.8924442503428447
sI2
F0.8943022183027264
sI3
F0.8911670259488179
sI4
F0.8969956854843573
sI5
F0.8925258531476687
sI6
F0.897247334625832
sI7
F0.89512820407224
sI8
F0.8967000142823388
sI9
F0.8936682003988377
sI10
F0.8904580268010063
sI11
F0.8923836046137663
sI12
F0.8964644796905391
sI13
F0.8883486263556309
sI14
F0.8952634841532653
ssg26
(dp181
I0
F0.0026395314164923203
sI1
Fnan
sI2
Fnan
sI3
Fnan
sI4
Fnan
sI5
Fnan
sI6
Fnan
sI7
Fnan
sI8
Fnan
sI9
Fnan
sI10
Fnan
sI11
Fnan
sI12
Fnan
sI13
Fnan
sI14
Fnan
ssg28
(dp182
I0
F0.893684137023252
sI1
Fnan
sI2
Fnan
sI3
Fnan
sI4
Fnan
sI5
Fnan
sI6
Fnan
sI7
Fnan
sI8
Fnan
sI9
Fnan
sI10
Fnan
sI11
Fnan
sI12
Fnan
sI13
Fnan
sI14
Fnan
ssg30
(dp183
I0
F11.125
sI1
F11.117
sI2
F11.113
sI3
F11.13
sI4
F11.129
sI5
F11.125
sI6
F11.109
sI7
F11.142
sI8
F11.141
sI9
F11.165
sI10
F11.107
sI11
F11.111
sI12
F11.117
sI13
F11.134
sI14
F11.108
ssg32
(dp184
I0
F14.17438
sI1
F12.39452
sI2
F13.35736
sI3
F15.85677
sI4
F19.82313
sI5
F19.12678
sI6
F18.79132
sI7
F13.69773
sI8
F15.86935
sI9
F13.7942
sI10
F19.21529
sI11
F18.4726
sI12
F14.47859
sI13
F12.40411
sI14
F14.13225
ssg34
(dp185
I0
F2458361.7014699075
sI1
F2458361.6816782407
sI2
F2458361.6824768516
sI3
F2458361.700671296
sI4
F2458361.7237962964
sI5
F2458361.720625
sI6
F2458361.722997685
sI7
F2458361.68005787
sI8
F2458361.699861111
sI9
F2458361.6792592593
sI10
F2458361.722199074
sI11
F2458361.721412037
sI12
F2458361.7022685185
sI13
F2458361.6808796297
sI14
F2458361.7030671295
ssg36
(dp186
I0
F1.883894533333333
sI1
Fnan
sI2
Fnan
sI3
Fnan
sI4
Fnan
sI5
Fnan
sI6
Fnan
sI7
Fnan
sI8
Fnan
sI9
Fnan
sI10
Fnan
sI11
Fnan
sI12
Fnan
sI13
Fnan
sI14
Fnan
ssg38
(dp187
I0
F1.387170433333334
sI1
Fnan
sI2
Fnan
sI3
Fnan
sI4
Fnan
sI5
Fnan
sI6
Fnan
sI7
Fnan
sI8
Fnan
sI9
Fnan
sI10
Fnan
sI11
Fnan
sI12
Fnan
sI13
Fnan
sI14
Fnan
ssg40
(dp188
I0
F0.549666217915502
sI1
F0.5507557956003333
sI2
F0.5495665839543536
sI3
F0.5490697157820681
sI4
F0.5496658098676876
sI5
F0.5505085881192964
sI6
F0.550913212468543
sI7
F0.548153366737807
sI8
F0.5496142483998298
sI9
F0.5444538404400285
sI10
F0.5501932654313714
sI11
F0.5499891210999618
sI12
F0.5489395998113117
sI13
F0.5482646680998863
sI14
F0.5515687960937553
ssg42
(dp189
I0
F0.000942385354466095
sI1
Fnan
sI2
Fnan
sI3
Fnan
sI4
Fnan
sI5
Fnan
sI6
Fnan
sI7
Fnan
sI8
Fnan
sI9
Fnan
sI10
Fnan
sI11
Fnan
sI12
Fnan
sI13
Fnan
sI14
Fnan
ssg44
(dp190
I0
F2.6570362666666663
sI1
Fnan
sI2
Fnan
sI3
Fnan
sI4
Fnan
sI5
Fnan
sI6
Fnan
sI7
Fnan
sI8
Fnan
sI9
Fnan
sI10
Fnan
sI11
Fnan
sI12
Fnan
sI13
Fnan
sI14
Fnan
ssg46
(dp191
I0
g164
sI1
g165
sI2
g166
sI3
g167
sI4
g168
sI5
g169
sI6
g170
sI7
g171
sI8
g172
sI9
g173
sI10
g174
sI11
g175
sI12
g176
sI13
g177
sI14
g178
ssg48
(dp192
I0
F0.002569809529424667
sI1
Fnan
sI2
Fnan
sI3
Fnan
sI4
Fnan
sI5
Fnan
sI6
Fnan
sI7
Fnan
sI8
Fnan
sI9
Fnan
sI10
Fnan
sI11
Fnan
sI12
Fnan
sI13
Fnan
sI14
Fnan
ssg50
(dp193
I0
F0.013339879345495477
sI1
Fnan
sI2
Fnan
sI3
Fnan
sI4
Fnan
sI5
Fnan
sI6
Fnan
sI7
Fnan
sI8
Fnan
sI9
Fnan
sI10
Fnan
sI11
Fnan
sI12
Fnan
sI13
Fnan
sI14
Fnan
ssg52
(dp194
I0
F1.8068489999999997
sI1
Fnan
sI2
Fnan
sI3
Fnan
sI4
Fnan
sI5
Fnan
sI6
Fnan
sI7
Fnan
sI8
Fnan
sI9
Fnan
sI10
Fnan
sI11
Fnan
sI12
Fnan
sI13
Fnan
sI14
Fnan
ssg54
(dp195
I0
F1.4987387444824192
sI1
F1.49860100260586
sI2
F1.4955740606008046
sI3
F1.5028532641580388
sI4
F1.4995414267755236
sI5
F1.4949467011365516
sI6
F1.4868038678074402
sI7
F1.4907090673897354
sI8
F1.4932332470939766
sI9
F1.5047596734601574
sI10
F1.5031886354407742
sI11
F1.4961420277211657
sI12
F1.4942991653721152
sI13
F1.4965549505097255
sI14
F1.4938875719266638
ssg56
(dp196
I0
g164
sI1
g165
sI2
g166
sI3
g167
sI4
g168
sI5
g169
sI6
g170
sI7
g171
sI8
g172
sI9
g173
sI10
g174
sI11
g175
sI12
g176
sI13
g177
sI14
g178
ssg58
(dp197
I0
F16.58462
sI1
F15.86766
sI2
F14.58369
sI3
F17.5541
sI4
F21.86159
sI5
F21.20825
sI6
F20.65301
sI7
F15.76743
sI8
F18.0197
sI9
F15.79612
sI10
F20.46989
sI11
F20.93097
sI12
F16.47042
sI13
F16.05777
sI14
F17.17833
ssg60
(dp198
I0
F10.203200000000002
sI1
Fnan
sI2
Fnan
sI3
Fnan
sI4
Fnan
sI5
Fnan
sI6
Fnan
sI7
Fnan
sI8
Fnan
sI9
Fnan
sI10
Fnan
sI11
Fnan
sI12
Fnan
sI13
Fnan
sI14
Fnan
ssg62
(dp199
I0
F0.7142114405751768
sI1
Fnan
sI2
Fnan
sI3
Fnan
sI4
Fnan
sI5
Fnan
sI6
Fnan
sI7
Fnan
sI8
Fnan
sI9
Fnan
sI10
Fnan
sI11
Fnan
sI12
Fnan
sI13
Fnan
sI14
Fnan
ssg64
(dp200
I0
F3.992635
sI1
F4.27635
sI2
F3.924208
sI3
F4.038923
sI4
F-2.932077
sI5
F-4.121505
sI6
F2.135842
sI7
F3.347153
sI8
F3.897656
sI9
F-2.246625
sI10
F1.863554
sI11
F0.9499181
sI12
F-0.8709533
sI13
F-0.8611023
sI14
F3.41358
ssg66
(dp201
I0
F10.557666666666668
sI1
Fnan
sI2
Fnan
sI3
Fnan
sI4
Fnan
sI5
Fnan
sI6
Fnan
sI7
Fnan
sI8
Fnan
sI9
Fnan
sI10
Fnan
sI11
Fnan
sI12
Fnan
sI13
Fnan
sI14
Fnan
ssg68
(dp202
I0
g164
sI1
g165
sI2
g166
sI3
g167
sI4
g168
sI5
g169
sI6
g170
sI7
g171
sI8
g172
sI9
g173
sI10
g174
sI11
g175
sI12
g176
sI13
g177
sI14
g178
ssg70
(dp203
I0
F15010.003333333332
sI1
F15094.473333333333
sI2
F15194.276666666667
sI3
F14944.47
sI4
F15000.463333333335
sI5
F14985.1
sI6
F15254.57
sI7
F14852.640000000001
sI8
F14837.913333333334
sI9
F14614.473333333333
sI10
F15224.71
sI11
F15191.663333333334
sI12
F15180.306666666667
sI13
F14872.913333333334
sI14
F15219.743333333334
ssg72
(dp204
I0
F1.005929
sI1
F1.015072
sI2
F1.0145309999999998
sI3
F1.006127
sI4
F1.006114
sI5
F1.005412
sI6
F1.005916
sI7
F1.016204
sI8
F1.006338
sI9
F1.0168059999999999
sI10
F1.005735
sI11
F1.005566
sI12
F1.0057450000000001
sI13
F1.015631
sI14
F1.005574
ssg74
(dp205
I0
F12804.873333333333
sI1
F12871.983333333334
sI2
F12940.993333333334
sI3
F12737.859999999999
sI4
F12686.863333333335
sI5
F12805.986666666666
sI6
F12999.163333333334
sI7
F12670.79
sI8
F12605.086666666666
sI9
F12389.480000000001
sI10
F12989.553333333333
sI11
F12975.983333333334
sI12
F12892.483333333334
sI13
F12787.066666666668
sI14
F12955.366666666667
ssg76
(dp206
I0
F20843.616666666665
sI1
F20955.280000000002
sI2
F21039.19
sI3
F20801.239999999998
sI4
F20759.146666666667
sI5
F20773.096666666668
sI6
F21003.88
sI7
F20514.713333333333
sI8
F20489.4
sI9
F20317.23
sI10
F21205.68
sI11
F21071.4
sI12
F20974.57333333333
sI13
F20697.34
sI14
F21045.22333333333
ssg78
(dp207
I0
F15.15844
sI1
F13.41898
sI2
F13.36393
sI3
F16.401
sI4
F21.73759
sI5
F21.6024
sI6
F21.09937
sI7
F15.19272
sI8
F17.65214
sI9
F15.48168
sI10
F20.12457
sI11
F20.0922
sI12
F16.96168
sI13
F14.53246
sI14
F15.33701
ssg80
(dp208
I0
F10.732
sI1
F10.726
sI2
F10.72
sI3
F10.737
sI4
F10.742
sI5
F10.731
sI6
F10.715
sI7
F10.743
sI8
F10.749
sI9
F10.767
sI10
F10.716
sI11
F10.717
sI12
F10.724
sI13
F10.733
sI14
F10.719
ssg82
(dp209
I0
F0.001
sI1
F0.001
sI2
F0.001
sI3
F0.001
sI4
F0.001
sI5
F0.001
sI6
F0.001
sI7
F0.001
sI8
F0.001
sI9
F0.001
sI10
F0.001
sI11
F0.001
sI12
F0.001
sI13
F0.001
sI14
F0.001
ssg84
(dp210
I0
F0.5494215219881157
sI1
Fnan
sI2
Fnan
sI3
Fnan
sI4
Fnan
sI5
Fnan
sI6
Fnan
sI7
Fnan
sI8
Fnan
sI9
Fnan
sI10
Fnan
sI11
Fnan
sI12
Fnan
sI13
Fnan
sI14
Fnan
ssg86
(dp211
I0
F10.731399999999999
sI1
Fnan
sI2
Fnan
sI3
Fnan
sI4
Fnan
sI5
Fnan
sI6
Fnan
sI7
Fnan
sI8
Fnan
sI9
Fnan
sI10
Fnan
sI11
Fnan
sI12
Fnan
sI13
Fnan
sI14
Fnan
ssg88
(dp212
I0
F10.559
sI1
F10.553
sI2
F10.546
sI3
F10.564
sI4
F10.56
sI5
F10.561
sI6
F10.542
sI7
F10.57
sI8
F10.572
sI9
F10.588
sI10
F10.544
sI11
F10.546
sI12
F10.547
sI13
F10.569
sI14
F10.544
ssg90
(dp213
I0
F3.194808
sI1
F2.52226
sI2
F4.097631
sI3
F4.818266
sI4
F2.616379
sI5
F4.917217
sI6
F2.801438
sI7
F-1.311948
sI8
F3.731153
sI9
F-3.541564
sI10
F4.00565
sI11
F-3.701135
sI12
F1.442161
sI13
F-1.81247
sI14
F4.478572
ssg92
(dp214
I0
F0.01290736224021022
sI1
Fnan
sI2
Fnan
sI3
Fnan
sI4
Fnan
sI5
Fnan
sI6
Fnan
sI7
Fnan
sI8
Fnan
sI9
Fnan
sI10
Fnan
sI11
Fnan
sI12
Fnan
sI13
Fnan
sI14
Fnan
ssg94
(dp215
I0
F0.7142862189833737
sI1
F0.7141232404179187
sI2
F0.7143116308679637
sI3
F0.7126930756166264
sI4
F0.7095638533716299
sI5
F0.7162546135109907
sI6
F0.7170280766736215
sI7
F0.7165246367506909
sI8
F0.7136170558870689
sI9
F0.7093544727420966
sI10
F0.713116347825721
sI11
F0.715658421576629
sI12
F0.7131808117373553
sI13
F0.718975293588013
sI14
F0.7144838590779531
ssg96
(dp216
I0
F30.0
sI1
F30.0
sI2
F30.0
sI3
F30.0
sI4
F30.0
sI5
F30.0
sI6
F30.0
sI7
F30.0
sI8
F30.0
sI9
F30.0
sI10
F30.0
sI11
F30.0
sI12
F30.0
sI13
F30.0
sI14
F30.0
ssg98
(dp217
I0
F0.002
sI1
F0.002
sI2
F0.002
sI3
F0.002
sI4
F0.002
sI5
F0.002
sI6
F0.002
sI7
F0.002
sI8
F0.002
sI9
F0.002
sI10
F0.002
sI11
F0.002
sI12
F0.002
sI13
F0.002
sI14
F0.002
ssg100
(dp218
I0
F0.001
sI1
F0.001
sI2
F0.001
sI3
F0.001
sI4
F0.001
sI5
F0.001
sI6
F0.001
sI7
F0.001
sI8
F0.001
sI9
F0.002
sI10
F0.001
sI11
F0.001
sI12
F0.001
sI13
F0.001
sI14
F0.001
ssg102
(dp219
I0
F4.525639
sI1
F-3.632253
sI2
F3.856708
sI3
F3.736149
sI4
F3.70344
sI5
F-2.530147
sI6
F3.075302
sI7
F3.20327
sI8
F4.098857
sI9
F5.128549
sI10
F-3.867432
sI11
F2.658841
sI12
F3.26606
sI13
F-3.767262
sI14
F3.647014
ssg104
(dp220
I0
S"KIC8462852-20180831at045007_-25-1X1-030-r'_cal.fts.mag.1"
p221
sI1
S"KIC8462852-20180831at042137_-25-1X1-030-r'_cal.fts.mag.1"
p222
sI2
S"KIC8462852-20180831at042246_-25-1X1-030-r'_cal.fts.mag.1"
p223
sI3
S"KIC8462852-20180831at044858_-25-1X1-030-r'_cal.fts.mag.1"
p224
sI4
S"KIC8462852-20180831at052216_-25-1X1-030-r'_cal.fts.mag.1"
p225
sI5
S"KIC8462852-20180831at051738_-25-1X1-030-r'_cal.fts.mag.1"
p226
sI6
S"KIC8462852-20180831at052107_-25-1X1-030-r'_cal.fts.mag.1"
p227
sI7
S"KIC8462852-20180831at041917_-25-1X1-030-r'_cal.fts.mag.1"
p228
sI8
S"KIC8462852-20180831at044745_-25-1X1-030-r'_cal.fts.mag.1"
p229
sI9
S"KIC8462852-20180831at041806_-25-1X1-030-r'_cal.fts.mag.1"
p230
sI10
S"KIC8462852-20180831at051958_-25-1X1-030-r'_cal.fts.mag.1"
p231
sI11
S"KIC8462852-20180831at051850_-25-1X1-030-r'_cal.fts.mag.1"
p232
sI12
S"KIC8462852-20180831at045116_-25-1X1-030-r'_cal.fts.mag.1"
p233
sI13
S"KIC8462852-20180831at042028_-25-1X1-030-r'_cal.fts.mag.1"
p234
sI14
S"KIC8462852-20180831at045225_-25-1X1-030-r'_cal.fts.mag.1"
p235
ssg121
(dp236
I0
F0.004817592522558239
sI1
Fnan
sI2
Fnan
sI3
Fnan
sI4
Fnan
sI5
Fnan
sI6
Fnan
sI7
Fnan
sI8
Fnan
sI9
Fnan
sI10
Fnan
sI11
Fnan
sI12
Fnan
sI13
Fnan
sI14
Fnan
ssg123
(dp237
I0
F8915.31
sI1
F8981.31
sI2
F9008.213333333335
sI3
F8873.619999999999
sI4
F8876.456666666667
sI5
F8911.666666666666
sI6
F9045.556666666667
sI7
F8777.423333333334
sI8
F8781.443333333333
sI9
F8588.066666666668
sI10
F9063.506666666666
sI11
F9026.980000000001
sI12
F8974.68
sI13
F8837.536666666665
sI14
F9049.466666666667
ssg125
(dp238
I0
F0.014490390904714377
sI1
Fnan
sI2
Fnan
sI3
Fnan
sI4
Fnan
sI5
Fnan
sI6
Fnan
sI7
Fnan
sI8
Fnan
sI9
Fnan
sI10
Fnan
sI11
Fnan
sI12
Fnan
sI13
Fnan
sI14
Fnan
ssg127
(dp239
I0
S"r'"
p240
sI1
S"r'"
p241
sI2
S"r'"
p242
sI3
S"r'"
p243
sI4
S"r'"
p244
sI5
S"r'"
p245
sI6
S"r'"
p246
sI7
S"r'"
p247
sI8
S"r'"
p248
sI9
S"r'"
p249
sI10
S"r'"
p250
sI11
S"r'"
p251
sI12
S"r'"
p252
sI13
S"r'"
p253
sI14
S"r'"
p254
ssg144
(dp255
I0
F0.0016663438685307974
sI1
Fnan
sI2
Fnan
sI3
Fnan
sI4
Fnan
sI5
Fnan
sI6
Fnan
sI7
Fnan
sI8
Fnan
sI9
Fnan
sI10
Fnan
sI11
Fnan
sI12
Fnan
sI13
Fnan
sI14
Fnan
ssg146
(dp256
I0
F4.646568
sI1
F3.314424
sI2
F3.089919
sI3
F3.121942
sI4
F2.864869
sI5
F2.9716
sI6
F4.076636
sI7
F-3.704008
sI8
F1.846892
sI9
F3.119319
sI10
F2.205557
sI11
F2.032206
sI12
F4.140234
sI13
F2.697132
sI14
F3.432254
ssg148
(dp257
I0
F1.4966555604320635
sI1
Fnan
sI2
Fnan
sI3
Fnan
sI4
Fnan
sI5
Fnan
sI6
Fnan
sI7
Fnan
sI8
Fnan
sI9
Fnan
sI10
Fnan
sI11
Fnan
sI12
Fnan
sI13
Fnan
sI14
Fnan
ssg150
(dp258
I0
F2458361.7014699075
sI1
Fnan
sI2
Fnan
sI3
Fnan
sI4
Fnan
sI5
Fnan
sI6
Fnan
sI7
Fnan
sI8
Fnan
sI9
Fnan
sI10
Fnan
sI11
Fnan
sI12
Fnan
sI13
Fnan
sI14
Fnan
ssg152
(dp259
I0
F0.0016663438685307974
sI1
Fnan
sI2
Fnan
sI3
Fnan
sI4
Fnan
sI5
Fnan
sI6
Fnan
sI7
Fnan
sI8
Fnan
sI9
Fnan
sI10
Fnan
sI11
Fnan
sI12
Fnan
sI13
Fnan
sI14
Fnan
ssg154
(dp260
I0
F20.18761
sI1
F17.62087
sI2
F16.28032
sI3
F20.25813
sI4
F25.97152
sI5
F23.55875
sI6
F23.88256
sI7
F19.32893
sI8
F21.8175
sI9
F19.51059
sI10
F23.54228
sI11
F24.17172
sI12
F19.3735
sI13
F17.52543
sI14
F19.07585
ssg156
(dp261
I0
F10.203
sI1
F10.197
sI2
F10.192
sI3
F10.205
sI4
F10.207
sI5
F10.206
sI6
F10.194
sI7
F10.22
sI8
F10.221
sI9
F10.23
sI10
F10.184
sI11
F10.191
sI12
F10.196
sI13
F10.21
sI14
F10.192
ssg158
(dp262
I0
F0.5494215219881157
sI1
Fnan
sI2
Fnan
sI3
Fnan
sI4
Fnan
sI5
Fnan
sI6
Fnan
sI7
Fnan
sI8
Fnan
sI9
Fnan
sI10
Fnan
sI11
Fnan
sI12
Fnan
sI13
Fnan
sI14
Fnan
sssS'z'
p263
(dp264
g3
(dp265
I0
F0.3692442069852129
sI1
Fnan
sI2
Fnan
sI3
Fnan
sI4
Fnan
sI5
Fnan
sI6
Fnan
sI7
Fnan
sI8
Fnan
sI9
Fnan
sI10
Fnan
sI11
Fnan
sI12
Fnan
sI13
Fnan
sI14
Fnan
ssg5
(dp266
I0
S'NoError'
p267
sI1
S'NoError'
p268
sI2
S'NoError'
p269
sI3
S'NoError'
p270
sI4
S'NoError'
p271
sI5
S'NoError'
p272
sI6
S'NoError'
p273
sI7
S'NoError'
p274
sI8
S'NoError'
p275
sI9
S'NoError'
p276
sI10
S'NoError'
p277
sI11
S'NoError'
p278
sI12
S'NoError'
p279
sI13
S'NoError'
p280
sI14
S'NoError'
p281
ssg22
(dp282
I0
F0.007
sI1
F0.007
sI2
F0.007
sI3
F0.007
sI4
F0.007
sI5
F0.007
sI6
F0.007
sI7
F0.007
sI8
F0.007
sI9
F0.007
sI10
F0.007
sI11
F0.007
sI12
F0.007
sI13
F0.007
sI14
F0.007
ssg24
(dp283
I0
F0.9126807135196959
sI1
F0.9183847060901068
sI2
F0.9137347828188449
sI3
F0.9198916211636576
sI4
F0.9237604841374121
sI5
F0.9096343220735472
sI6
F0.9216373645588694
sI7
F0.9175285299086174
sI8
F0.9150115421972361
sI9
F0.9172547496810878
sI10
F0.9185325345235384
sI11
F0.9162948682291319
sI12
F0.9224015353849271
sI13
F0.9205971242530181
sI14
F0.9179061552883345
ssg26
(dp284
I0
F0.003818514798638263
sI1
Fnan
sI2
Fnan
sI3
Fnan
sI4
Fnan
sI5
Fnan
sI6
Fnan
sI7
Fnan
sI8
Fnan
sI9
Fnan
sI10
Fnan
sI11
Fnan
sI12
Fnan
sI13
Fnan
sI14
Fnan
ssg28
(dp285
I0
F0.9176834022552017
sI1
Fnan
sI2
Fnan
sI3
Fnan
sI4
Fnan
sI5
Fnan
sI6
Fnan
sI7
Fnan
sI8
Fnan
sI9
Fnan
sI10
Fnan
sI11
Fnan
sI12
Fnan
sI13
Fnan
sI14
Fnan
ssg30
(dp286
I0
F13.211
sI1
F13.189
sI2
F13.251
sI3
F13.227
sI4
F13.252
sI5
F13.25
sI6
F13.219
sI7
F13.228
sI8
F13.206
sI9
F13.222
sI10
F13.207
sI11
F13.208
sI12
F13.234
sI13
F13.231
sI14
F13.224
ssg32
(dp287
I0
F9.304888
sI1
F8.795339
sI2
F9.245122
sI3
F9.405688
sI4
F8.230234
sI5
F9.238268
sI6
F8.882874
sI7
F8.861245
sI8
F8.176504
sI9
F8.518783
sI10
F7.757788
sI11
F9.425021
sI12
F9.20181
sI13
F9.220317
sI14
F8.673484
ssg34
(dp288
I0
F2458361.689791667
sI1
F2458361.7087037037
sI2
F2458361.710300926
sI3
F2458361.7095023147
sI4
F2458361.690590278
sI5
F2458361.711145833
sI6
F2458361.731898148
sI7
F2458361.6873726854
sI8
F2458361.730300926
sI9
F2458361.731099537
sI10
F2458361.7294907407
sI11
F2458361.7286805557
sI12
F2458361.6889930554
sI13
F2458361.6881828704
sI14
F2458361.7079166668
ssg36
(dp289
I0
F0.9446608666666666
sI1
Fnan
sI2
Fnan
sI3
Fnan
sI4
Fnan
sI5
Fnan
sI6
Fnan
sI7
Fnan
sI8
Fnan
sI9
Fnan
sI10
Fnan
sI11
Fnan
sI12
Fnan
sI13
Fnan
sI14
Fnan
ssg38
(dp290
I0
F0.25049087999999997
sI1
Fnan
sI2
Fnan
sI3
Fnan
sI4
Fnan
sI5
Fnan
sI6
Fnan
sI7
Fnan
sI8
Fnan
sI9
Fnan
sI10
Fnan
sI11
Fnan
sI12
Fnan
sI13
Fnan
sI14
Fnan
ssg40
(dp291
I0
F0.3734942472636841
sI1
F0.37442860397559546
sI2
F0.36922987337155483
sI3
F0.3687544023937993
sI4
F0.36764888672596446
sI5
F0.36426562348952063
sI6
F0.37038655659618747
sI7
F0.367953961070298
sI8
F0.37277490298441174
sI9
F0.36795831207691443
sI10
F0.3725843509710385
sI11
F0.36542279701357594
sI12
F0.3655200913174929
sI13
F0.37006499598705184
sI14
F0.36838131303579386
ssg42
(dp292
I0
F0.002464893417487561
sI1
Fnan
sI2
Fnan
sI3
Fnan
sI4
Fnan
sI5
Fnan
sI6
Fnan
sI7
Fnan
sI8
Fnan
sI9
Fnan
sI10
Fnan
sI11
Fnan
sI12
Fnan
sI13
Fnan
sI14
Fnan
ssg44
(dp293
I0
F1.1210183999999999
sI1
Fnan
sI2
Fnan
sI3
Fnan
sI4
Fnan
sI5
Fnan
sI6
Fnan
sI7
Fnan
sI8
Fnan
sI9
Fnan
sI10
Fnan
sI11
Fnan
sI12
Fnan
sI13
Fnan
sI14
Fnan
ssg46
(dp294
I0
g267
sI1
g268
sI2
g269
sI3
g270
sI4
g271
sI5
g272
sI6
g273
sI7
g274
sI8
g275
sI9
g276
sI10
g277
sI11
g278
sI12
g279
sI13
g280
sI14
g281
ssg48
(dp295
I0
F0.004290740973659902
sI1
Fnan
sI2
Fnan
sI3
Fnan
sI4
Fnan
sI5
Fnan
sI6
Fnan
sI7
Fnan
sI8
Fnan
sI9
Fnan
sI10
Fnan
sI11
Fnan
sI12
Fnan
sI13
Fnan
sI14
Fnan
ssg50
(dp296
I0
F0.01453010012091495
sI1
Fnan
sI2
Fnan
sI3
Fnan
sI4
Fnan
sI5
Fnan
sI6
Fnan
sI7
Fnan
sI8
Fnan
sI9
Fnan
sI10
Fnan
sI11
Fnan
sI12
Fnan
sI13
Fnan
sI14
Fnan
ssg52
(dp297
I0
F2.107634266666667
sI1
Fnan
sI2
Fnan
sI3
Fnan
sI4
Fnan
sI5
Fnan
sI6
Fnan
sI7
Fnan
sI8
Fnan
sI9
Fnan
sI10
Fnan
sI11
Fnan
sI12
Fnan
sI13
Fnan
sI14
Fnan
ssg54
(dp298
I0
F1.5220800497566596
sI1
F1.4999009423998502
sI2
F1.5077947071002167
sI3
F1.5067523001147967
sI4
F1.496676189679503
sI5
F1.5095753206982163
sI6
F1.4921697720747251
sI7
F1.4900077056740282
sI8
F1.5013877269650653
sI9
F1.508208447759033
sI10
F1.5078002129074413
sI11
F1.510052956788996
sI12
F1.511531660270331
sI13
F1.5014439782473321
sI14
F1.5046082085755286
ssg56
(dp299
I0
g267
sI1
g268
sI2
g269
sI3
g270
sI4
g271
sI5
g272
sI6
g273
sI7
g274
sI8
g275
sI9
g276
sI10
g277
sI11
g278
sI12
g279
sI13
g280
sI14
g281
ssg58
(dp300
I0
F9.10182
sI1
F8.701342
sI2
F9.431207
sI3
F9.612067
sI4
F9.168977
sI5
F10.00923
sI6
F9.291198
sI7
F9.428642
sI8
F9.812338
sI9
F9.320104
sI10
F9.512252
sI11
F9.938771
sI12
F9.878838
sI13
F9.719698
sI14
F9.386733
ssg60
(dp301
I0
F11.867600000000001
sI1
Fnan
sI2
Fnan
sI3
Fnan
sI4
Fnan
sI5
Fnan
sI6
Fnan
sI7
Fnan
sI8
Fnan
sI9
Fnan
sI10
Fnan
sI11
Fnan
sI12
Fnan
sI13
Fnan
sI14
Fnan
ssg62
(dp302
I0
F0.6887098930396629
sI1
Fnan
sI2
Fnan
sI3
Fnan
sI4
Fnan
sI5
Fnan
sI6
Fnan
sI7
Fnan
sI8
Fnan
sI9
Fnan
sI10
Fnan
sI11
Fnan
sI12
Fnan
sI13
Fnan
sI14
Fnan
ssg64
(dp303
I0
F2.444666
sI1
F-3.310611
sI2
F0.9928582
sI3
F-1.56862
sI4
F3.760834
sI5
F3.32505
sI6
F2.039747
sI7
F-1.269203
sI8
F-3.465677
sI9
F2.265297
sI10
F2.090751
sI11
F-3.072628
sI12
F-2.782255
sI13
F3.75673
sI14
F-1.449576
ssg66
(dp304
I0
F12.205466666666666
sI1
Fnan
sI2
Fnan
sI3
Fnan
sI4
Fnan
sI5
Fnan
sI6
Fnan
sI7
Fnan
sI8
Fnan
sI9
Fnan
sI10
Fnan
sI11
Fnan
sI12
Fnan
sI13
Fnan
sI14
Fnan
ssg68
(dp305
I0
g267
sI1
g268
sI2
g269
sI3
g270
sI4
g271
sI5
g272
sI6
g273
sI7
g274
sI8
g275
sI9
g276
sI10
g277
sI11
g278
sI12
g279
sI13
g280
sI14
g281
ssg70
(dp306
I0
F3283.3256666666666
sI1
F3358.7433333333333
sI2
F3204.3059999999996
sI3
F3294.375666666667
sI4
F3240.0543333333335
sI5
F3240.4206666666664
sI6
F3308.307333333333
sI7
F3292.8863333333334
sI8
F3311.9913333333334
sI9
F3311.343
sI10
F3319.2843333333335
sI11
F3375.226666666667
sI12
F3308.759
sI13
F3272.697
sI14
F3304.4266666666667
ssg72
(dp307
I0
F1.010254
sI1
F1.0047780000000002
sI2
F1.00468
sI3
F1.004722
sI4
F1.009857
sI5
F1.004651
sI6
F1.0089219999999999
sI7
F1.011528
sI8
F1.008251
sI9
F1.00858
sI10
F1.007938
sI11
F1.007635
sI12
F1.010661
sI13
F1.0110860000000002
sI14
F1.0048469999999998
ssg74
(dp308
I0
F2666.6986666666667
sI1
F2740.4016666666666
sI2
F2621.549
sI3
F2669.4933333333333
sI4
F2625.5029999999997
sI5
F2666.326666666667
sI6
F2697.9886666666666
sI7
F2707.4539999999997
sI8
F2714.8906666666667
sI9
F2692.553
sI10
F2693.970333333333
sI11
F2745.675666666667
sI12
F2661.847
sI13
F2657.7940000000003
sI14
F2690.1659999999997
ssg76
(dp309
I0
F4528.206666666667
sI1
F4574.056666666667
sI2
F4392.096666666666
sI3
F4493.036666666667
sI4
F4389.42
sI5
F4458.34
sI6
F4481.206666666667
sI7
F4470.276666666667
sI8
F4524.343333333333
sI9
F4527.5633333333335
sI10
F4533.3933333333325
sI11
F4621.443333333333
sI12
F4512.38
sI13
F4452.15
sI14
F4509.756666666667
ssg78
(dp310
I0
F10.66959
sI1
F10.31503
sI2
F10.39087
sI3
F9.958433
sI4
F9.932683
sI5
F8.995129
sI6
F8.763488
sI7
F8.683213
sI8
F9.605389
sI9
F9.200048
sI10
F9.736488
sI11
F9.378268
sI12
F10.31611
sI13
F9.850088
sI14
F9.070641
ssg80
(dp311
I0
F12.435
sI1
F12.405
sI2
F12.454
sI3
F12.434
sI4
F12.452
sI5
F12.435
sI6
F12.422
sI7
F12.419
sI8
F12.416
sI9
F12.425
sI10
F12.424
sI11
F12.403
sI12
F12.437
sI13
F12.439
sI14
F12.426
ssg82
(dp312
I0
F0.003
sI1
F0.003
sI2
F0.003
sI3
F0.003
sI4
F0.003
sI5
F0.003
sI6
F0.003
sI7
F0.003
sI8
F0.003
sI9
F0.003
sI10
F0.003
sI11
F0.003
sI12
F0.003
sI13
F0.003
sI14
F0.003
ssg84
(dp313
I0
F0.3692579278848589
sI1
Fnan
sI2
Fnan
sI3
Fnan
sI4
Fnan
sI5
Fnan
sI6
Fnan
sI7
Fnan
sI8
Fnan
sI9
Fnan
sI10
Fnan
sI11
Fnan
sI12
Fnan
sI13
Fnan
sI14
Fnan
ssg86
(dp314
I0
F12.428399999999998
sI1
Fnan
sI2
Fnan
sI3
Fnan
sI4
Fnan
sI5
Fnan
sI6
Fnan
sI7
Fnan
sI8
Fnan
sI9
Fnan
sI10
Fnan
sI11
Fnan
sI12
Fnan
sI13
Fnan
sI14
Fnan
ssg88
(dp315
I0
F12.209
sI1
F12.185
sI2
F12.236
sI3
F12.206
sI4
F12.224
sI5
F12.223
sI6
F12.201
sI7
F12.206
sI8
F12.2
sI9
F12.2
sI10
F12.197
sI11
F12.179
sI12
F12.201
sI13
F12.213
sI14
F12.202
ssg90
(dp316
I0
F-1.076059
sI1
F-2.3554
sI2
F2.477822
sI3
F4.250099
sI4
F2.976372
sI5
F2.062352
sI6
F-2.760519
sI7
F-3.474239
sI8
F3.424687
sI9
F-2.530622
sI10
F2.954312
sI11
F4.730124
sI12
F-2.371178
sI13
F2.866149
sI14
F2.996013
ssg92
(dp317
I0
F0.014874714883222112
sI1
Fnan
sI2
Fnan
sI3
Fnan
sI4
Fnan
sI5
Fnan
sI6
Fnan
sI7
Fnan
sI8
Fnan
sI9
Fnan
sI10
Fnan
sI11
Fnan
sI12
Fnan
sI13
Fnan
sI14
Fnan
ssg94
(dp318
I0
F0.6827594261595367
sI1
F0.6909040103536371
sI2
F0.6902080142495519
sI3
F0.6855918806062964
sI4
F0.6882526594339854
sI5
F0.6926638668509503
sI6
F0.692723234509025
sI7
F0.6975131141778164
sI8
F0.6928980913015286
sI9
F0.6869715966755396
sI10
F0.6861278273954367
sI11
F0.6867047575219852
sI12
F0.6806801413451418
sI13
F0.688115635170509
sI14
F0.6885341398440015
ssg96
(dp319
I0
F30.0
sI1
F30.0
sI2
F30.0
sI3
F30.0
sI4
F30.0
sI5
F30.0
sI6
F30.0
sI7
F30.0
sI8
F30.0
sI9
F30.0
sI10
F30.0
sI11
F30.0
sI12
F30.0
sI13
F30.0
sI14
F30.0
ssg98
(dp320
I0
F0.004
sI1
F0.004
sI2
F0.004
sI3
F0.004
sI4
F0.004
sI5
F0.004
sI6
F0.004
sI7
F0.004
sI8
F0.004
sI9
F0.004
sI10
F0.004
sI11
F0.004
sI12
F0.004
sI13
F0.004
sI14
F0.004
ssg100
(dp321
I0
F0.004
sI1
F0.004
sI2
F0.004
sI3
F0.003
sI4
F0.004
sI5
F0.004
sI6
F0.004
sI7
F0.004
sI8
F0.004
sI9
F0.004
sI10
F0.004
sI11
F0.003
sI12
F0.004
sI13
F0.004
sI14
F0.004
ssg102
(dp322
I0
F3.62731
sI1
F1.469803
sI2
F4.037746
sI3
F2.796923
sI4
F2.228611
sI5
F-1.59144
sI6
F3.052434
sI7
F3.320993
sI8
F-3.278548
sI9
F2.73382
sI10
F-2.767261
sI11
F3.74917
sI12
F4.780425
sI13
F3.634372
sI14
F3.820156
ssg104
(dp323
I0
S"KIC8462852-20180831at043318_-25-1X1-030-z'_cal.fts.mag.1"
p324
sI1
S"KIC8462852-20180831at050032_-25-1X1-030-z'_cal.fts.mag.1"
p325
sI2
S"KIC8462852-20180831at050250_-25-1X1-030-z'_cal.fts.mag.1"
p326
sI3
S"KIC8462852-20180831at050141_-25-1X1-030-z'_cal.fts.mag.1"
p327
sI4
S"KIC8462852-20180831at043427_-25-1X1-030-z'_cal.fts.mag.1"
p328
sI5
S"KIC8462852-20180831at050402_-25-1X1-030-z'_cal.fts.mag.1"
p329
sI6
S"KIC8462852-20180831at053356_-25-1X1-030-z'_cal.fts.mag.1"
p330
sI7
S"KIC8462852-20180831at042945_-25-1X1-030-z'_cal.fts.mag.1"
p331
sI8
S"KIC8462852-20180831at053138_-25-1X1-030-z'_cal.fts.mag.1"
p332
sI9
S"KIC8462852-20180831at053247_-25-1X1-030-z'_cal.fts.mag.1"
p333
sI10
S"KIC8462852-20180831at053028_-25-1X1-030-z'_cal.fts.mag.1"
p334
sI11
S"KIC8462852-20180831at052914_-25-1X1-030-z'_cal.fts.mag.1"
p335
sI12
S"KIC8462852-20180831at043209_-25-1X1-030-z'_cal.fts.mag.1"
p336
sI13
S"KIC8462852-20180831at043059_-25-1X1-030-z'_cal.fts.mag.1"
p337
sI14
S"KIC8462852-20180831at045920_-25-1X1-030-z'_cal.fts.mag.1"
p338
ssg121
(dp339
I0
F0.008100779600544675
sI1
Fnan
sI2
Fnan
sI3
Fnan
sI4
Fnan
sI5
Fnan
sI6
Fnan
sI7
Fnan
sI8
Fnan
sI9
Fnan
sI10
Fnan
sI11
Fnan
sI12
Fnan
sI13
Fnan
sI14
Fnan
ssg123
(dp340
I0
F1304.5196666666666
sI1
F1332.1173333333331
sI2
F1257.5910000000001
sI3
F1285.3433333333335
sI4
F1256.7436666666665
sI5
F1258.5483333333332
sI6
F1294.8100000000002
sI7
F1284.2350000000001
sI8
F1311.0773333333334
sI9
F1291.7126666666666
sI10
F1309.8386666666668
sI11
F1308.4993333333334
sI12
F1277.2473333333332
sI13
F1280.7506666666666
sI14
F1289.8686666666665
ssg125
(dp341
I0
F0.014710540438746644
sI1
Fnan
sI2
Fnan
sI3
Fnan
sI4
Fnan
sI5
Fnan
sI6
Fnan
sI7
Fnan
sI8
Fnan
sI9
Fnan
sI10
Fnan
sI11
Fnan
sI12
Fnan
sI13
Fnan
sI14
Fnan
ssg127
(dp342
I0
S"z'"
p343
sI1
S"z'"
p344
sI2
S"z'"
p345
sI3
S"z'"
p346
sI4
S"z'"
p347
sI5
S"z'"
p348
sI6
S"z'"
p349
sI7
S"z'"
p350
sI8
S"z'"
p351
sI9
S"z'"
p352
sI10
S"z'"
p353
sI11
S"z'"
p354
sI12
S"z'"
p355
sI13
S"z'"
p356
sI14
S"z'"
p357
ssg144
(dp358
I0
F0.003054803431899347
sI1
Fnan
sI2
Fnan
sI3
Fnan
sI4
Fnan
sI5
Fnan
sI6
Fnan
sI7
Fnan
sI8
Fnan
sI9
Fnan
sI10
Fnan
sI11
Fnan
sI12
Fnan
sI13
Fnan
sI14
Fnan
ssg146
(dp359
I0
F-2.088955
sI1
F-2.547836
sI2
F-1.426702
sI3
F-2.536123
sI4
F3.005493
sI5
F1.347376
sI6
F2.863803
sI7
F-2.884371
sI8
F3.171888
sI9
F2.779446
sI10
F3.865164
sI11
F2.516833
sI12
F3.393446
sI13
F2.489452
sI14
F2.866362
ssg148
(dp360
I0
F1.5046660119341153
sI1
Fnan
sI2
Fnan
sI3
Fnan
sI4
Fnan
sI5
Fnan
sI6
Fnan
sI7
Fnan
sI8
Fnan
sI9
Fnan
sI10
Fnan
sI11
Fnan
sI12
Fnan
sI13
Fnan
sI14
Fnan
ssg150
(dp361
I0
F2458361.7095023147
sI1
Fnan
sI2
Fnan
sI3
Fnan
sI4
Fnan
sI5
Fnan
sI6
Fnan
sI7
Fnan
sI8
Fnan
sI9
Fnan
sI10
Fnan
sI11
Fnan
sI12
Fnan
sI13
Fnan
sI14
Fnan
ssg152
(dp362
I0
F0.003054803431899347
sI1
Fnan
sI2
Fnan
sI3
Fnan
sI4
Fnan
sI5
Fnan
sI6
Fnan
sI7
Fnan
sI8
Fnan
sI9
Fnan
sI10
Fnan
sI11
Fnan
sI12
Fnan
sI13
Fnan
sI14
Fnan
ssg154
(dp363
I0
F10.79424
sI1
F10.61912
sI2
F11.29677
sI3
F9.988001
sI4
F11.14402
sI5
F10.53521
sI6
F10.62499
sI7
F11.563
sI8
F10.26239
sI9
F10.1965
sI10
F10.09483
sI11
F9.052025
sI12
F10.41772
sI13
F10.91651
sI14
F10.26842
ssg156
(dp364
I0
F11.86
sI1
F11.849
sI2
F11.893
sI3
F11.869
sI4
F11.894
sI5
F11.877
sI6
F11.872
sI7
F11.874
sI8
F11.861
sI9
F11.86
sI10
F11.859
sI11
F11.838
sI12
F11.864
sI13
F11.879
sI14
F11.865
ssg158
(dp365
I0
F0.3692579278848589
sI1
Fnan
sI2
Fnan
sI3
Fnan
sI4
Fnan
sI5
Fnan
sI6
Fnan
sI7
Fnan
sI8
Fnan
sI9
Fnan
sI10
Fnan
sI11
Fnan
sI12
Fnan
sI13
Fnan
sI14
Fnan
sssS'g'
p366
(dp367
g3
(dp368
I0
F0.8693082549577238
sI1
Fnan
sI2
Fnan
sI3
Fnan
sI4
Fnan
sI5
Fnan
sI6
Fnan
sI7
Fnan
sI8
Fnan
sI9
Fnan
sI10
Fnan
sI11
Fnan
sI12
Fnan
sI13
Fnan
sI14
Fnan
ssg5
(dp369
I0
S'NoError'
p370
sI1
S'NoError'
p371
sI2
S'NoError'
p372
sI3
S'NoError'
p373
sI4
S'NoError'
p374
sI5
S'NoError'
p375
sI6
S'NoError'
p376
sI7
S'NoError'
p377
sI8
S'NoError'
p378
sI9
S'NoError'
p379
sI10
S'NoError'
p380
sI11
S'NoError'
p381
sI12
S'NoError'
p382
sI13
S'NoError'
p383
sI14
S'NoError'
p384
ssg22
(dp385
I0
F0.002
sI1
F0.002
sI2
F0.002
sI3
F0.002
sI4
F0.002
sI5
F0.002
sI6
F0.003
sI7
F0.002
sI8
F0.005
sI9
F0.002
sI10
F0.006
sI11
F0.002
sI12
F0.005
sI13
F0.002
sI14
F0.002
ssg24
(dp386
I0
F0.8806766916053008
sI1
F0.8786149064065116
sI2
F0.874374710925091
sI3
F0.8804382567385017
sI4
F0.8754272016493104
sI5
F0.877263361930762
sI6
F0.8817994435757366
sI7
F0.8783402753921078
sI8
F0.8702895775921053
sI9
F0.8829617473262438
sI10
F0.8901394409320269
sI11
F0.8831837611043563
sI12
F0.8647651385823139
sI13
F0.879586166762181
sI14
F0.8826565574409686
ssg26
(dp387
I0
F0.0059679974029111255
sI1
Fnan
sI2
Fnan
sI3
Fnan
sI4
Fnan
sI5
Fnan
sI6
Fnan
sI7
Fnan
sI8
Fnan
sI9
Fnan
sI10
Fnan
sI11
Fnan
sI12
Fnan
sI13
Fnan
sI14
Fnan
ssg28
(dp388
I0
F0.8787011491975677
sI1
Fnan
sI2
Fnan
sI3
Fnan
sI4
Fnan
sI5
Fnan
sI6
Fnan
sI7
Fnan
sI8
Fnan
sI9
Fnan
sI10
Fnan
sI11
Fnan
sI12
Fnan
sI13
Fnan
sI14
Fnan
ssg30
(dp389
I0
F11.296
sI1
F11.32
sI2
F11.332
sI3
F11.292
sI4
F11.327
sI5
F11.287
sI6
F11.668
sI7
F11.36
sI8
F12.892
sI9
F11.32
sI10
F13.074
sI11
F11.336
sI12
F12.625
sI13
F11.303
sI14
F11.328
ssg32
(dp390
I0
F17.30592
sI1
F17.09618
sI2
F11.66711
sI3
F15.73179
sI4
F11.76491
sI5
F17.50887
sI6
F10.3642
sI7
F11.6203
sI8
F8.196585
sI9
F11.72085
sI10
F8.681218
sI11
F10.85635
sI12
F8.984255
sI13
F10.65922
sI14
F17.10176
ssg34
(dp391
I0
F2458361.7197800926
sI1
F2458361.717372685
sI2
F2458361.6958680553
sI3
F2458361.71818287
sI4
F2458361.6990277776
sI5
F2458361.7189814816
sI6
F2458361.6760069444
sI7
F2458361.6752199074
sI8
F2458361.6768055554
sI9
F2458361.6982407407
sI10
F2458361.6784027778
sI11
F2458361.6974537037
sI12
F2458361.677604167
sI13
F2458361.696666667
sI14
F2458361.7165740742
ssg36
(dp392
I0
F1.7786521333333332
sI1
Fnan
sI2
Fnan
sI3
Fnan
sI4
Fnan
sI5
Fnan
sI6
Fnan
sI7
Fnan
sI8
Fnan
sI9
Fnan
sI10
Fnan
sI11
Fnan
sI12
Fnan
sI13
Fnan
sI14
Fnan
ssg38
(dp393
I0
F1.7896360666666666
sI1
Fnan
sI2
Fnan
sI3
Fnan
sI4
Fnan
sI5
Fnan
sI6
Fnan
sI7
Fnan
sI8
Fnan
sI9
Fnan
sI10
Fnan
sI11
Fnan
sI12
Fnan
sI13
Fnan
sI14
Fnan
ssg40
(dp394
I0
F0.8720531625583869
sI1
F0.8695759832462983
sI2
F0.875058616805813
sI3
F0.8709924773536977
sI4
F0.8691372064263979
sI5
F0.8738341675795022
sI6
F0.8570657702201666
sI7
F0.8651240172022674
sI8
F0.8406563986250482
sI9
F0.8677280042949718
sI10
F0.8775930555175835
sI11
F0.8669219926613579
sI12
F0.8624108610440551
sI13
F0.8733773136672526
sI14
F0.8694429408303835
ssg42
(dp395
I0
F0.005157433370017129
sI1
Fnan
sI2
Fnan
sI3
Fnan
sI4
Fnan
sI5
Fnan
sI6
Fnan
sI7
Fnan
sI8
Fnan
sI9
Fnan
sI10
Fnan
sI11
Fnan
sI12
Fnan
sI13
Fnan
sI14
Fnan
ssg44
(dp396
I0
F1.496699
sI1
Fnan
sI2
Fnan
sI3
Fnan
sI4
Fnan
sI5
Fnan
sI6
Fnan
sI7
Fnan
sI8
Fnan
sI9
Fnan
sI10
Fnan
sI11
Fnan
sI12
Fnan
sI13
Fnan
sI14
Fnan
ssg46
(dp397
I0
g370
sI1
g371
sI2
g372
sI3
g373
sI4
g374
sI5
g375
sI6
g376
sI7
g377
sI8
g378
sI9
g379
sI10
g380
sI11
g381
sI12
g382
sI13
g383
sI14
g384
ssg48
(dp398
I0
F0.011310458086990473
sI1
Fnan
sI2
Fnan
sI3
Fnan
sI4
Fnan
sI5
Fnan
sI6
Fnan
sI7
Fnan
sI8
Fnan
sI9
Fnan
sI10
Fnan
sI11
Fnan
sI12
Fnan
sI13
Fnan
sI14
Fnan
ssg50
(dp399
I0
F0.6362338593705334
sI1
Fnan
sI2
Fnan
sI3
Fnan
sI4
Fnan
sI5
Fnan
sI6
Fnan
sI7
Fnan
sI8
Fnan
sI9
Fnan
sI10
Fnan
sI11
Fnan
sI12
Fnan
sI13
Fnan
sI14
Fnan
ssg52
(dp400
I0
F1.85681598
sI1
Fnan
sI2
Fnan
sI3
Fnan
sI4
Fnan
sI5
Fnan
sI6
Fnan
sI7
Fnan
sI8
Fnan
sI9
Fnan
sI10
Fnan
sI11
Fnan
sI12
Fnan
sI13
Fnan
sI14
Fnan
ssg54
(dp401
I0
F1.5109174987792502
sI1
F1.518481050459278
sI2
F1.5186902132383366
sI3
F1.5145159704372613
sI4
F1.514789704852658
sI5
F1.5141535313526078
sI6
F1.5218913837925705
sI7
F1.5166802531250225
sI8
F1.6005784175873057
sI9
F1.5099367667528336
sI10
F1.4881496973224706
sI11
F1.5151786464241639
sI12
F1.556136301101347
sI13
F1.5199385052727983
sI14
F1.5069438270015003
ssg56
(dp402
I0
g370
sI1
g371
sI2
g372
sI3
g373
sI4
g374
sI5
g375
sI6
g376
sI7
g377
sI8
g378
sI9
g379
sI10
g380
sI11
g381
sI12
g382
sI13
g383
sI14
g384
ssg58
(dp403
I0
F17.66398
sI1
F17.57146
sI2
F12.30461
sI3
F17.6018
sI4
F11.90908
sI5
F18.16947
sI6
F9.556423
sI7
F10.5548
sI8
F8.2944
sI9
F11.58349
sI10
F7.046652
sI11
F11.85892
sI12
F8.895773
sI13
F11.49391
sI14
F16.06735
ssg60
(dp404
I0
F11.214533333333332
sI1
Fnan
sI2
Fnan
sI3
Fnan
sI4
Fnan
sI5
Fnan
sI6
Fnan
sI7
Fnan
sI8
Fnan
sI9
Fnan
sI10
Fnan
sI11
Fnan
sI12
Fnan
sI13
Fnan
sI14
Fnan
ssg62
(dp405
I0
F0.7125709878956299
sI1
Fnan
sI2
Fnan
sI3
Fnan
sI4
Fnan
sI5
Fnan
sI6
Fnan
sI7
Fnan
sI8
Fnan
sI9
Fnan
sI10
Fnan
sI11
Fnan
sI12
Fnan
sI13
Fnan
sI14
Fnan
ssg64
(dp406
I0
F3.843957
sI1
F4.398948
sI2
F2.174626
sI3
F3.382454
sI4
F3.15822
sI5
F3.691684
sI6
F3.362174
sI7
F2.717123
sI8
F1.333464
sI9
F-2.669657
sI10
F3.764672
sI11
F-2.978208
sI12
F-3.721828
sI13
F1.31155
sI14
F3.075362
ssg66
(dp407
I0
F11.591666666666667
sI1
Fnan
sI2
Fnan
sI3
Fnan
sI4
Fnan
sI5
Fnan
sI6
Fnan
sI7
Fnan
sI8
Fnan
sI9
Fnan
sI10
Fnan
sI11
Fnan
sI12
Fnan
sI13
Fnan
sI14
Fnan
ssg68
(dp408
I0
g370
sI1
g371
sI2
g372
sI3
g373
sI4
g374
sI5
g375
sI6
g376
sI7
g377
sI8
g378
sI9
g379
sI10
g380
sI11
g381
sI12
g382
sI13
g383
sI14
g384
ssg70
(dp409
I0
F8008.570000000001
sI1
F7839.633333333333
sI2
F7678.413333333333
sI3
F8048.1433333333325
sI4
F7776.336666666667
sI5
F8039.406666666667
sI6
F5789.66
sI7
F7593.576666666666
sI8
F1894.7193333333335
sI9
F7883.8933333333325
sI10
F1558.3613333333333
sI11
F7777.1866666666665
sI12
F2351.1956666666665
sI13
F7940.153333333334
sI14
F7809.96
ssg72
(dp410
I0
F1.005266
sI1
F1.004928
sI2
F1.0076209999999999
sI3
F1.005026
sI4
F1.00658
sI5
F1.005139
sI6
F1.0193459999999999
sI7
F1.0200049999999998
sI8
F1.018708
sI9
F1.00682
sI10
F1.017448
sI11
F1.007072
sI12
F1.018073
sI13
F1.007342
sI14
F1.004844
ssg74
(dp411
I0
F6913.956666666667
sI1
F6760.456666666667
sI2
F6668.756666666667
sI3
F6935.583333333333
sI4
F6757.759999999999
sI5
F6967.213333333333
sI6
F4955.206666666667
sI7
F6558.586666666667
sI8
F1576.3600000000001
sI9
F6784.0233333333335
sI10
F1342.7459999999999
sI11
F6668.1066666666675
sI12
F2029.3803333333335
sI13
F6829.676666666666
sI14
F6736.293333333333
ssg76
(dp412
I0
F11273.353333333333
sI1
F11084.980000000001
sI2
F10894.453333333333
sI3
F11346.546666666667
sI4
F11008.05
sI5
F11361.163333333334
sI6
F8176.259999999999
sI7
F10732.153333333332
sI8
F2777.8673333333336
sI9
F11073.813333333334
sI10
F2158.641
sI11
F10943.6
sI12
F3408.3866666666668
sI13
F11224.616666666667
sI14
F10960.193333333333
ssg78
(dp413
I0
F17.44034
sI1
F17.22091
sI2
F11.10889
sI3
F15.88065
sI4
F11.32724
sI5
F16.30413
sI6
F8.88037
sI7
F9.873177
sI8
F7.886107
sI9
F10.80226
sI10
F7.747265
sI11
F11.3259
sI12
F8.898129
sI13
F10.10848
sI14
F16.64928
ssg80
(dp414
I0
F11.401
sI1
F11.425
sI2
F11.44
sI3
F11.397
sI4
F11.425
sI5
F11.392
sI6
F11.762
sI7
F11.458
sI8
F13.006
sI9
F11.421
sI10
F13.18
sI11
F11.44
sI12
F12.732
sI13
F11.414
sI14
F11.429
ssg82
(dp415
I0
F0.002
sI1
F0.002
sI2
F0.002
sI3
F0.002
sI4
F0.002
sI5
F0.002
sI6
F0.002
sI7
F0.002
sI8
F0.004
sI9
F0.002
sI10
F0.005
sI11
F0.002
sI12
F0.003
sI13
F0.002
sI14
F0.002
ssg84
(dp416
I0
F0.867398131202212
sI1
Fnan
sI2
Fnan
sI3
Fnan
sI4
Fnan
sI5
Fnan
sI6
Fnan
sI7
Fnan
sI8
Fnan
sI9
Fnan
sI10
Fnan
sI11
Fnan
sI12
Fnan
sI13
Fnan
sI14
Fnan
ssg86
(dp417
I0
F11.754799999999998
sI1
Fnan
sI2
Fnan
sI3
Fnan
sI4
Fnan
sI5
Fnan
sI6
Fnan
sI7
Fnan
sI8
Fnan
sI9
Fnan
sI10
Fnan
sI11
Fnan
sI12
Fnan
sI13
Fnan
sI14
Fnan
ssg88
(dp418
I0
F11.241
sI1
F11.264
sI2
F11.287
sI3
F11.236
sI4
F11.273
sI5
F11.237
sI6
F11.593
sI7
F11.299
sI8
F12.806
sI9
F11.258
sI10
F13.018
sI11
F11.273
sI12
F12.572
sI13
F11.25
sI14
F11.268
ssg90
(dp419
I0
F-2.232419
sI1
F3.99589
sI2
F-2.91866
sI3
F4.051314
sI4
F2.131231
sI5
F1.818374
sI6
F3.265396
sI7
F2.377843
sI8
F2.787547
sI9
F2.414672
sI10
F-2.188987
sI11
F3.413863
sI12
F1.878925
sI13
F2.962162
sI14
F2.922631
ssg92
(dp420
I0
F0.630857564483986
sI1
Fnan
sI2
Fnan
sI3
Fnan
sI4
Fnan
sI5
Fnan
sI6
Fnan
sI7
Fnan
sI8
Fnan
sI9
Fnan
sI10
Fnan
sI11
Fnan
sI12
Fnan
sI13
Fnan
sI14
Fnan
ssg94
(dp421
I0
F0.7171438810478278
sI1
F0.714461801421218
sI2
F0.7181181867455393
sI3
F0.7152043506066179
sI4
F0.7195081872959741
sI5
F0.7182483126354878
sI6
F0.7096140700600702
sI7
F0.7157790349052036
sI8
F0.674726917852781
sI9
F0.7157008442652698
sI10
F0.7224886505765802
sI11
F0.7123746224339577
sI12
F0.704697047766253
sI13
F0.7127324425669253
sI14
F0.7177664682547434
ssg96
(dp422
I0
F30.0
sI1
F30.0
sI2
F30.0
sI3
F30.0
sI4
F30.0
sI5
F30.0
sI6
F30.0
sI7
F30.0
sI8
F30.0
sI9
F30.0
sI10
F30.0
sI11
F30.0
sI12
F30.0
sI13
F30.0
sI14
F30.0
ssg98
(dp423
I0
F0.002
sI1
F0.002
sI2
F0.002
sI3
F0.002
sI4
F0.002
sI5
F0.002
sI6
F0.003
sI7
F0.002
sI8
F0.006
sI9
F0.002
sI10
F0.007
sI11
F0.002
sI12
F0.005
sI13
F0.002
sI14
F0.002
ssg100
(dp424
I0
F0.002
sI1
F0.002
sI2
F0.002
sI3
F0.002
sI4
F0.002
sI5
F0.002
sI6
F0.003
sI7
F0.002
sI8
F0.005
sI9
F0.002
sI10
F0.006
sI11
F0.002
sI12
F0.004
sI13
F0.002
sI14
F0.002
ssg102
(dp425
I0
F-0.5306123
sI1
F3.684577
sI2
F2.540951
sI3
F2.361072
sI4
F4.430648
sI5
F-2.552548
sI6
F3.421596
sI7
F3.789213
sI8
F2.531586
sI9
F-3.72089
sI10
F4.486462
sI11
F4.121664
sI12
F3.10548
sI13
F-2.440608
sI14
F2.623649
ssg104
(dp426
I0
S"KIC8462852-20180831at051629_-25-1X1-030-g'_cal.fts.mag.1"
p427
sI1
S"KIC8462852-20180831at051301_-25-1X1-030-g'_cal.fts.mag.1"
p428
sI2
S"KIC8462852-20180831at044155_-25-1X1-030-g'_cal.fts.mag.1"
p429
sI3
S"KIC8462852-20180831at051411_-25-1X1-030-g'_cal.fts.mag.1"
p430
sI4
S"KIC8462852-20180831at044636_-25-1X1-030-g'_cal.fts.mag.1"
p431
sI5
S"KIC8462852-20180831at051520_-25-1X1-030-g'_cal.fts.mag.1"
p432
sI6
S"KIC8462852-20180831at041327_-25-1X1-030-g'_cal.fts.mag.1"
p433
sI7
S"KIC8462852-20180831at041206_-25-1X1-030-g'_cal.fts.mag.1"
p434
sI8
S"KIC8462852-20180831at041436_-25-1X1-030-g'_cal.fts.mag.1"
p435
sI9
S"KIC8462852-20180831at044528_-25-1X1-030-g'_cal.fts.mag.1"
p436
sI10
S"KIC8462852-20180831at041654_-25-1X1-030-g'_cal.fts.mag.1"
p437
sI11
S"KIC8462852-20180831at044420_-25-1X1-030-g'_cal.fts.mag.1"
p438
sI12
S"KIC8462852-20180831at041545_-25-1X1-030-g'_cal.fts.mag.1"
p439
sI13
S"KIC8462852-20180831at044312_-25-1X1-030-g'_cal.fts.mag.1"
p440
sI14
S"KIC8462852-20180831at051145_-25-1X1-030-g'_cal.fts.mag.1"
p441
ssg121
(dp442
I0
F0.025707306025415093
sI1
Fnan
sI2
Fnan
sI3
Fnan
sI4
Fnan
sI5
Fnan
sI6
Fnan
sI7
Fnan
sI8
Fnan
sI9
Fnan
sI10
Fnan
sI11
Fnan
sI12
Fnan
sI13
Fnan
sI14
Fnan
ssg123
(dp443
I0
F7614.733333333334
sI1
F7445.04
sI2
F7362.633333333333
sI3
F7644.490000000001
sI4
F7399.876666666666
sI5
F7680.3566666666675
sI6
F5405.55
sI7
F7176.006666666667
sI8
F1751.0723333333333
sI9
F7445.6066666666675
sI10
F1480.1333333333334
sI11
F7336.73
sI12
F2239.095333333333
sI13
F7567.653333333334
sI14
F7392.133333333333
ssg125
(dp444
I0
F0.6422073763868758
sI1
Fnan
sI2
Fnan
sI3
Fnan
sI4
Fnan
sI5
Fnan
sI6
Fnan
sI7
Fnan
sI8
Fnan
sI9
Fnan
sI10
Fnan
sI11
Fnan
sI12
Fnan
sI13
Fnan
sI14
Fnan
ssg127
(dp445
I0
S"g'"
p446
sI1
S"g'"
p447
sI2
S"g'"
p448
sI3
S"g'"
p449
sI4
S"g'"
p450
sI5
S"g'"
p451
sI6
S"g'"
p452
sI7
S"g'"
p453
sI8
S"g'"
p454
sI9
S"g'"
p455
sI10
S"g'"
p456
sI11
S"g'"
p457
sI12
S"g'"
p458
sI13
S"g'"
p459
sI14
S"g'"
p460
ssg144
(dp461
I0
F0.009018187755126798
sI1
Fnan
sI2
Fnan
sI3
Fnan
sI4
Fnan
sI5
Fnan
sI6
Fnan
sI7
Fnan
sI8
Fnan
sI9
Fnan
sI10
Fnan
sI11
Fnan
sI12
Fnan
sI13
Fnan
sI14
Fnan
ssg146
(dp462
I0
F-1.824086
sI1
F1.055913
sI2
F2.339987
sI3
F4.788058
sI4
F1.68828
sI5
F3.616226
sI6
F-2.456235
sI7
F-3.550578
sI8
F3.682448
sI9
F2.740444
sI10
F2.715979
sI11
F3.926213
sI12
F-2.450824
sI13
F2.066458
sI14
F4.112202
ssg148
(dp463
I0
F1.5217987844999603
sI1
Fnan
sI2
Fnan
sI3
Fnan
sI4
Fnan
sI5
Fnan
sI6
Fnan
sI7
Fnan
sI8
Fnan
sI9
Fnan
sI10
Fnan
sI11
Fnan
sI12
Fnan
sI13
Fnan
sI14
Fnan
ssg150
(dp464
I0
F2458361.6974537037
sI1
Fnan
sI2
Fnan
sI3
Fnan
sI4
Fnan
sI5
Fnan
sI6
Fnan
sI7
Fnan
sI8
Fnan
sI9
Fnan
sI10
Fnan
sI11
Fnan
sI12
Fnan
sI13
Fnan
sI14
Fnan
ssg152
(dp465
I0
F0.009018187755126798
sI1
Fnan
sI2
Fnan
sI3
Fnan
sI4
Fnan
sI5
Fnan
sI6
Fnan
sI7
Fnan
sI8
Fnan
sI9
Fnan
sI10
Fnan
sI11
Fnan
sI12
Fnan
sI13
Fnan
sI14
Fnan
ssg154
(dp466
I0
F18.84503
sI1
F17.65888
sI2
F13.65699
sI3
F18.53483
sI4
F13.94537
sI5
F17.58792
sI6
F11.58526
sI7
F11.69989
sI8
F8.816236
sI9
F12.92209
sI10
F9.641212
sI11
F13.32168
sI12
F9.147897
sI13
F12.23172
sI14
F19.18316
ssg156
(dp467
I0
F10.87
sI1
F10.888
sI2
F10.907
sI3
F10.863
sI4
F10.896
sI5
F10.861
sI6
F11.219
sI7
F10.923
sI8
F12.391
sI9
F10.889
sI10
F12.665
sI11
F10.902
sI12
F12.169
sI13
F10.875
sI14
F10.9
ssg158
(dp468
I0
F0.867398131202212
sI1
Fnan
sI2
Fnan
sI3
Fnan
sI4
Fnan
sI5
Fnan
sI6
Fnan
sI7
Fnan
sI8
Fnan
sI9
Fnan
sI10
Fnan
sI11
Fnan
sI12
Fnan
sI13
Fnan
sI14
Fnan
sssS'V'
p469
(dp470
g3
(dp471
I0
F0.6923175483780197
sI1
Fnan
sI2
Fnan
sI3
Fnan
sI4
Fnan
sI5
Fnan
sI6
Fnan
sI7
Fnan
sI8
Fnan
sI9
Fnan
sI10
Fnan
sI11
Fnan
sI12
Fnan
sI13
Fnan
sI14
Fnan
ssg5
(dp472
I0
S'NoError'
p473
sI1
S'NoError'
p474
sI2
S'NoError'
p475
sI3
S'NoError'
p476
sI4
S'NoError'
p477
sI5
S'NoError'
p478
sI6
S'NoError'
p479
sI7
S'NoError'
p480
sI8
S'NoError'
p481
sI9
S'NoError'
p482
sI10
S'NoError'
p483
sI11
S'NoError'
p484
sI12
S'NoError'
p485
sI13
S'NoError'
p486
sI14
S'NoError'
p487
ssg22
(dp488
I0
F0.002
sI1
F0.002
sI2
F0.002
sI3
F0.002
sI4
F0.002
sI5
F0.002
sI6
F0.003
sI7
F0.002
sI8
F0.002
sI9
F0.002
sI10
F0.002
sI11
F0.002
sI12
F0.002
sI13
F0.002
sI14
F0.002
ssg24
(dp489
I0
F0.888864084999862
sI1
F0.8907100995730798
sI2
F0.8868137919885926
sI3
F0.888443700007085
sI4
F0.8820485314575881
sI5
F0.8860754125425037
sI6
F0.8819415105105953
sI7
F0.8827098718524272
sI8
F0.8881891800171564
sI9
F0.8867167441814293
sI10
F0.8861728766285272
sI11
F0.8909542545294282
sI12
F0.8893064018274163
sI13
F0.8780652407163283
sI14
F0.881817898889394
ssg26
(dp490
I0
F0.003790119859355276
sI1
Fnan
sI2
Fnan
sI3
Fnan
sI4
Fnan
sI5
Fnan
sI6
Fnan
sI7
Fnan
sI8
Fnan
sI9
Fnan
sI10
Fnan
sI11
Fnan
sI12
Fnan
sI13
Fnan
sI14
Fnan
ssg28
(dp491
I0
F0.8859219733147609
sI1
Fnan
sI2
Fnan
sI3
Fnan
sI4
Fnan
sI5
Fnan
sI6
Fnan
sI7
Fnan
sI8
Fnan
sI9
Fnan
sI10
Fnan
sI11
Fnan
sI12
Fnan
sI13
Fnan
sI14
Fnan
ssg30
(dp492
I0
F11.375
sI1
F11.367
sI2
F11.337
sI3
F11.331
sI4
F11.372
sI5
F11.337
sI6
F11.638
sI7
F11.347
sI8
F11.338
sI9
F11.326
sI10
F11.343
sI11
F11.351
sI12
F11.34
sI13
F11.342
sI14
F11.343
ssg32
(dp493
I0
F19.41761
sI1
F11.65872
sI2
F17.80129
sI3
F9.347211
sI4
F14.3375
sI5
F14.55248
sI6
F14.26745
sI7
F17.25183
sI8
F10.14969
sI9
F14.31681
sI10
F10.38986
sI11
F17.62118
sI12
F14.57744
sI13
F10.03675
sI14
F16.99825
ssg34
(dp494
I0
F2458361.7361458335
sI1
F2458361.6931944443
sI2
F2458361.732800926
sI3
F2458361.6923611113
sI4
F2458361.712048611
sI5
F2458361.714722222
sI6
F2458361.7128935186
sI7
F2458361.7344791666
sI8
F2458361.69150463
sI9
F2458361.7138773147
sI10
F2458361.694039352
sI11
F2458361.735300926
sI12
F2458361.7155671297
sI13
F2458361.694861111
sI14
F2458361.733634259
ssg36
(dp495
I0
F1.1943443333333335
sI1
Fnan
sI2
Fnan
sI3
Fnan
sI4
Fnan
sI5
Fnan
sI6
Fnan
sI7
Fnan
sI8
Fnan
sI9
Fnan
sI10
Fnan
sI11
Fnan
sI12
Fnan
sI13
Fnan
sI14
Fnan
ssg38
(dp496
I0
F1.770314
sI1
Fnan
sI2
Fnan
sI3
Fnan
sI4
Fnan
sI5
Fnan
sI6
Fnan
sI7
Fnan
sI8
Fnan
sI9
Fnan
sI10
Fnan
sI11
Fnan
sI12
Fnan
sI13
Fnan
sI14
Fnan
ssg40
(dp497
I0
F0.6915444748428684
sI1
F0.6924734064851241
sI2
F0.6896042905713742
sI3
F0.6952276876195985
sI4
F0.6899732078983535
sI5
F0.6924207342161168
sI6
F0.6911101451526124
sI7
F0.6917674830333432
sI8
F0.6930488364980489
sI9
F0.6945446966815507
sI10
F0.6932966698213996
sI11
F0.6936716547377447
sI12
F0.6910196860658036
sI13
F0.6937005022144779
sI14
F0.6915566312668129
ssg42
(dp498
I0
F0.0012512198950301028
sI1
Fnan
sI2
Fnan
sI3
Fnan
sI4
Fnan
sI5
Fnan
sI6
Fnan
sI7
Fnan
sI8
Fnan
sI9
Fnan
sI10
Fnan
sI11
Fnan
sI12
Fnan
sI13
Fnan
sI14
Fnan
ssg44
(dp499
I0
F1.528116753333333
sI1
Fnan
sI2
Fnan
sI3
Fnan
sI4
Fnan
sI5
Fnan
sI6
Fnan
sI7
Fnan
sI8
Fnan
sI9
Fnan
sI10
Fnan
sI11
Fnan
sI12
Fnan
sI13
Fnan
sI14
Fnan
ssg46
(dp500
I0
g473
sI1
g474
sI2
g475
sI3
g476
sI4
g477
sI5
g478
sI6
g479
sI7
g480
sI8
g481
sI9
g482
sI10
g483
sI11
g484
sI12
g485
sI13
g486
sI14
g487
ssg48
(dp501
I0
F0.0024203026841149405
sI1
Fnan
sI2
Fnan
sI3
Fnan
sI4
Fnan
sI5
Fnan
sI6
Fnan
sI7
Fnan
sI8
Fnan
sI9
Fnan
sI10
Fnan
sI11
Fnan
sI12
Fnan
sI13
Fnan
sI14
Fnan
ssg50
(dp502
I0
F0.07674621132265086
sI1
Fnan
sI2
Fnan
sI3
Fnan
sI4
Fnan
sI5
Fnan
sI6
Fnan
sI7
Fnan
sI8
Fnan
sI9
Fnan
sI10
Fnan
sI11
Fnan
sI12
Fnan
sI13
Fnan
sI14
Fnan
ssg52
(dp503
I0
F2.6158842666666664
sI1
Fnan
sI2
Fnan
sI3
Fnan
sI4
Fnan
sI5
Fnan
sI6
Fnan
sI7
Fnan
sI8
Fnan
sI9
Fnan
sI10
Fnan
sI11
Fnan
sI12
Fnan
sI13
Fnan
sI14
Fnan
ssg54
(dp504
I0
F1.4956119559664784
sI1
F1.5015355807578328
sI2
F1.50303454608435
sI3
F1.5006021655944375
sI4
F1.507997326461405
sI5
F1.5031145835459025
sI6
F1.5136318255312753
sI7
F1.5111202872971425
sI8
F1.500248038819501
sI9
F1.5027099751687507
sI10
F1.4982991968290855
sI11
F1.4909583574360181
sI12
F1.5051925476994128
sI13
F1.5080050770364883
sI14
F1.5056493356351746
ssg56
(dp505
I0
g473
sI1
g474
sI2
g475
sI3
g476
sI4
g477
sI5
g478
sI6
g479
sI7
g480
sI8
g481
sI9
g482
sI10
g483
sI11
g484
sI12
g485
sI13
g486
sI14
g487
ssg58
(dp506
I0
F19.55196
sI1
F12.30246
sI2
F17.91385
sI3
F11.91359
sI4
F15.78977
sI5
F14.22572
sI6
F14.70868
sI7
F18.73449
sI8
F11.77275
sI9
F15.29249
sI10
F11.64622
sI11
F19.33355
sI12
F15.27439
sI13
F10.87879
sI14
F17.73624
ssg60
(dp507
I0
F10.692333333333334
sI1
Fnan
sI2
Fnan
sI3
Fnan
sI4
Fnan
sI5
Fnan
sI6
Fnan
sI7
Fnan
sI8
Fnan
sI9
Fnan
sI10
Fnan
sI11
Fnan
sI12
Fnan
sI13
Fnan
sI14
Fnan
ssg62
(dp508
I0
F0.7171414250747294
sI1
Fnan
sI2
Fnan
sI3
Fnan
sI4
Fnan
sI5
Fnan
sI6
Fnan
sI7
Fnan
sI8
Fnan
sI9
Fnan
sI10
Fnan
sI11
Fnan
sI12
Fnan
sI13
Fnan
sI14
Fnan
ssg64
(dp509
I0
F3.890759
sI1
F-2.392033
sI2
F-2.117659
sI3
F3.350263
sI4
F2.278019
sI5
F3.558776
sI6
F4.729318
sI7
F2.579721
sI8
F2.714792
sI9
F4.114825
sI10
F1.899532
sI11
F-1.501521
sI12
F3.363442
sI13
F1.820712
sI14
F-1.734236
ssg66
(dp510
I0
F11.055866666666667
sI1
Fnan
sI2
Fnan
sI3
Fnan
sI4
Fnan
sI5
Fnan
sI6
Fnan
sI7
Fnan
sI8
Fnan
sI9
Fnan
sI10
Fnan
sI11
Fnan
sI12
Fnan
sI13
Fnan
sI14
Fnan
ssg68
(dp511
I0
g473
sI1
g474
sI2
g475
sI3
g476
sI4
g477
sI5
g478
sI6
g479
sI7
g480
sI8
g481
sI9
g482
sI10
g483
sI11
g484
sI12
g485
sI13
g486
sI14
g487
ssg70
(dp512
I0
F9450.0
sI1
F9518.683333333332
sI2
F9801.426666666666
sI3
F9780.93
sI4
F9450.34
sI5
F9750.3
sI6
F7382.8
sI7
F9650.983333333334
sI8
F9753.46
sI9
F9825.746666666668
sI10
F9686.203333333333
sI11
F9649.616666666667
sI12
F9771.22
sI13
F9628.06
sI14
F9680.81
ssg72
(dp513
I0
F1.010985
sI1
F1.0086709999999999
sI2
F1.009328
sI3
F1.0090370000000002
sI4
F1.004637
sI5
F1.004705
sI6
F1.004642
sI7
F1.010122
sI8
F1.009415
sI9
F1.004667
sI10
F1.0083280000000001
sI11
F1.010546
sI12
F1.004759
sI13
F1.008
sI14
F1.0097200000000002
ssg74
(dp514
I0
F8122.37
sI1
F8126.1066666666675
sI2
F8414.916666666666
sI3
F8386.83
sI4
F8154.293333333333
sI5
F8381.07
sI6
F6349.403333333334
sI7
F8302.09
sI8
F8368.703333333333
sI9
F8438.873333333333
sI10
F8349.393333333333
sI11
F8288.68
sI12
F8342.56
sI13
F8364.063333333334
sI14
F8368.51
ssg76
(dp515
I0
F13140.723333333333
sI1
F13247.140000000001
sI2
F13689.896666666667
sI3
F13631.29
sI4
F13273.869999999999
sI5
F13626.763333333334
sI6
F10392.75
sI7
F13564.626666666667
sI8
F13593.869999999999
sI9
F13723.213333333335
sI10
F13511.359999999999
sI11
F13372.626666666667
sI12
F13632.363333333335
sI13
F13566.106666666667
sI14
F13587.973333333333
ssg78
(dp516
I0
F19.26466
sI1
F11.98538
sI2
F18.1451
sI3
F10.10612
sI4
F14.96249
sI5
F14.98966
sI6
F14.69075
sI7
F18.28043
sI8
F10.58518
sI9
F14.36356
sI10
F11.00304
sI11
F18.68176
sI12
F15.4437
sI13
F10.07567
sI14
F18.17837
ssg80
(dp517
I0
F11.226
sI1
F11.225
sI2
F11.187
sI3
F11.191
sI4
F11.222
sI5
F11.192
sI6
F11.493
sI7
F11.202
sI8
F11.193
sI9
F11.184
sI10
F11.196
sI11
F11.204
sI12
F11.197
sI13
F11.194
sI14
F11.193
ssg82
(dp518
I0
F0.002
sI1
F0.002
sI2
F0.002
sI3
F0.002
sI4
F0.002
sI5
F0.002
sI6
F0.002
sI7
F0.002
sI8
F0.002
sI9
F0.002
sI10
F0.002
sI11
F0.002
sI12
F0.002
sI13
F0.002
sI14
F0.002
ssg84
(dp519
I0
F0.6923306738070153
sI1
Fnan
sI2
Fnan
sI3
Fnan
sI4
Fnan
sI5
Fnan
sI6
Fnan
sI7
Fnan
sI8
Fnan
sI9
Fnan
sI10
Fnan
sI11
Fnan
sI12
Fnan
sI13
Fnan
sI14
Fnan
ssg86
(dp520
I0
F11.219933333333334
sI1
Fnan
sI2
Fnan
sI3
Fnan
sI4
Fnan
sI5
Fnan
sI6
Fnan
sI7
Fnan
sI8
Fnan
sI9
Fnan
sI10
Fnan
sI11
Fnan
sI12
Fnan
sI13
Fnan
sI14
Fnan
ssg88
(dp521
I0
F11.061
sI1
F11.054
sI2
F11.022
sI3
F11.024
sI4
F11.061
sI5
F11.027
sI6
F11.329
sI7
F11.039
sI8
F11.027
sI9
F11.019
sI10
F11.035
sI11
F11.039
sI12
F11.025
sI13
F11.041
sI14
F11.035
ssg90
(dp522
I0
F2.690068
sI1
F2.653005
sI2
F3.700229
sI3
F-2.880905
sI4
F-3.986077
sI5
F-2.855153
sI6
F4.421175
sI7
F4.033932
sI8
F2.477606
sI9
F2.960149
sI10
F2.400584
sI11
F-3.021148
sI12
F-3.167587
sI13
F3.898867
sI14
F4.59042
ssg92
(dp523
I0
F0.07481182743262943
sI1
Fnan
sI2
Fnan
sI3
Fnan
sI4
Fnan
sI5
Fnan
sI6
Fnan
sI7
Fnan
sI8
Fnan
sI9
Fnan
sI10
Fnan
sI11
Fnan
sI12
Fnan
sI13
Fnan
sI14
Fnan
ssg94
(dp524
I0
F0.7190889711809434
sI1
F0.713886473393524
sI2
F0.716427639878951
sI3
F0.7164489313700281
sI4
F0.7176745271526124
sI5
F0.7170336051619829
sI6
F0.7143973979239274
sI7
F0.7152161842829028
sI8
F0.7168873985447872
sI9
F0.7167087916692144
sI10
F0.7198508923853928
sI11
F0.7200584130738491
sI12
F0.7129301424639388
sI13
F0.7212212840872346
sI14
F0.719290723551654
ssg96
(dp525
I0
F30.0
sI1
F30.0
sI2
F30.0
sI3
F30.0
sI4
F30.0
sI5
F30.0
sI6
F30.0
sI7
F30.0
sI8
F30.0
sI9
F30.0
sI10
F30.0
sI11
F30.0
sI12
F30.0
sI13
F30.0
sI14
F30.0
ssg98
(dp526
I0
F0.002
sI1
F0.002
sI2
F0.002
sI3
F0.002
sI4
F0.002
sI5
F0.002
sI6
F0.002
sI7
F0.002
sI8
F0.002
sI9
F0.002
sI10
F0.002
sI11
F0.002
sI12
F0.002
sI13
F0.002
sI14
F0.002
ssg100
(dp527
I0
F0.002
sI1
F0.002
sI2
F0.002
sI3
F0.002
sI4
F0.002
sI5
F0.002
sI6
F0.002
sI7
F0.002
sI8
F0.002
sI9
F0.002
sI10
F0.002
sI11
F0.002
sI12
F0.002
sI13
F0.002
sI14
F0.002
ssg102
(dp528
I0
F4.682356
sI1
F-3.406733
sI2
F3.437971
sI3
F2.921765
sI4
F2.780353
sI5
F4.744048
sI6
F3.996696
sI7
F2.031242
sI8
F-3.073397
sI9
F3.529076
sI10
F4.384471
sI11
F4.124277
sI12
F3.779289
sI13
F3.11532
sI14
F2.19153
ssg104
(dp529
I0
S'KIC8462852-20180831at054003_-25-1X1-030-V_cal.fts.mag.1'
p530
sI1
S'KIC8462852-20180831at043812_-25-1X1-030-V_cal.fts.mag.1'
p531
sI2
S'KIC8462852-20180831at053505_-25-1X1-030-V_cal.fts.mag.1'
p532
sI3
S'KIC8462852-20180831at043700_-25-1X1-030-V_cal.fts.mag.1'
p533
sI4
S'KIC8462852-20180831at050511_-25-1X1-030-V_cal.fts.mag.1'
p534
sI5
S'KIC8462852-20180831at050912_-25-1X1-030-V_cal.fts.mag.1'
p535
sI6
S'KIC8462852-20180831at050634_-25-1X1-030-V_cal.fts.mag.1'
p536
sI7
S'KIC8462852-20180831at053739_-25-1X1-030-V_cal.fts.mag.1'
p537
sI8
S'KIC8462852-20180831at043537_-25-1X1-030-V_cal.fts.mag.1'
p538
sI9
S'KIC8462852-20180831at050759_-25-1X1-030-V_cal.fts.mag.1'
p539
sI10
S'KIC8462852-20180831at043925_-25-1X1-030-V_cal.fts.mag.1'
p540
sI11
S'KIC8462852-20180831at053850_-25-1X1-030-V_cal.fts.mag.1'
p541
sI12
S'KIC8462852-20180831at051025_-25-1X1-030-V_cal.fts.mag.1'
p542
sI13
S'KIC8462852-20180831at044036_-25-1X1-030-V_cal.fts.mag.1'
p543
sI14
S'KIC8462852-20180831at053626_-25-1X1-030-V_cal.fts.mag.1'
p544
ssg121
(dp545
I0
F0.005840639389299387
sI1
Fnan
sI2
Fnan
sI3
Fnan
sI4
Fnan
sI5
Fnan
sI6
Fnan
sI7
Fnan
sI8
Fnan
sI9
Fnan
sI10
Fnan
sI11
Fnan
sI12
Fnan
sI13
Fnan
sI14
Fnan
ssg123
(dp546
I0
F7079.823333333334
sI1
F7130.613333333333
sI2
F7334.2266666666665
sI3
F7369.193333333333
sI4
F7101.78
sI5
F7329.996666666667
sI6
F5557.666666666667
sI7
F7267.64
sI8
F7326.92
sI9
F7405.66
sI10
F7290.466666666666
sI11
F7239.833333333333
sI12
F7312.403333333334
sI13
F7297.320000000001
sI14
F7292.993333333333
ssg125
(dp547
I0
F0.07672908432238977
sI1
Fnan
sI2
Fnan
sI3
Fnan
sI4
Fnan
sI5
Fnan
sI6
Fnan
sI7
Fnan
sI8
Fnan
sI9
Fnan
sI10
Fnan
sI11
Fnan
sI12
Fnan
sI13
Fnan
sI14
Fnan
ssg127
(dp548
I0
g469
sI1
g469
sI2
g469
sI3
g469
sI4
g469
sI5
g469
sI6
g469
sI7
g469
sI8
g469
sI9
g469
sI10
g469
sI11
g469
sI12
g469
sI13
g469
sI14
g469
ssg144
(dp549
I0
F0.0016075771501538288
sI1
Fnan
sI2
Fnan
sI3
Fnan
sI4
Fnan
sI5
Fnan
sI6
Fnan
sI7
Fnan
sI8
Fnan
sI9
Fnan
sI10
Fnan
sI11
Fnan
sI12
Fnan
sI13
Fnan
sI14
Fnan
ssg146
(dp550
I0
F-0.8997447
sI1
F-4.061306
sI2
F4.575562
sI3
F2.600784
sI4
F2.135229
sI5
F-3.321083
sI6
F4.238842
sI7
F3.602273
sI8
F2.338097
sI9
F-1.391284
sI10
F3.347224
sI11
F3.496173
sI12
F-2.432624
sI13
F4.20595
sI14
F4.487659
ssg148
(dp551
I0
F1.5031807199908835
sI1
Fnan
sI2
Fnan
sI3
Fnan
sI4
Fnan
sI5
Fnan
sI6
Fnan
sI7
Fnan
sI8
Fnan
sI9
Fnan
sI10
Fnan
sI11
Fnan
sI12
Fnan
sI13
Fnan
sI14
Fnan
ssg150
(dp552
I0
F2458361.7138773147
sI1
Fnan
sI2
Fnan
sI3
Fnan
sI4
Fnan
sI5
Fnan
sI6
Fnan
sI7
Fnan
sI8
Fnan
sI9
Fnan
sI10
Fnan
sI11
Fnan
sI12
Fnan
sI13
Fnan
sI14
Fnan
ssg152
(dp553
I0
F0.0016075771501538288
sI1
Fnan
sI2
Fnan
sI3
Fnan
sI4
Fnan
sI5
Fnan
sI6
Fnan
sI7
Fnan
sI8
Fnan
sI9
Fnan
sI10
Fnan
sI11
Fnan
sI12
Fnan
sI13
Fnan
sI14
Fnan
ssg154
(dp554
I0
F21.93461
sI1
F14.09476
sI2
F19.5295
sI3
F12.30329
sI4
F18.68211
sI5
F17.71178
sI6
F15.41261
sI7
F20.65236
sI8
F13.12043
sI9
F16.43447
sI10
F14.21005
sI11
F21.33171
sI12
F17.42386
sI13
F12.78188
sI14
F20.44491
ssg156
(dp555
I0
F10.703
sI1
F10.695
sI2
F10.659
sI3
F10.664
sI4
F10.693
sI5
F10.664
sI6
F10.958
sI7
F10.669
sI8
F10.667
sI9
F10.656
sI10
F10.673
sI11
F10.684
sI12
F10.664
sI13
F10.669
sI14
F10.667
ssg158
(dp556
I0
F0.6923306738070153
sI1
Fnan
sI2
Fnan
sI3
Fnan
sI4
Fnan
sI5
Fnan
sI6
Fnan
sI7
Fnan
sI8
Fnan
sI9
Fnan
sI10
Fnan
sI11
Fnan
sI12
Fnan
sI13
Fnan
sI14
Fnan
sss.