(dp0
S'i'
p1
(dp2
S'sigmean'
p3
(dp4
I0
F0.44024356584785274
sI1
Fnan
sI2
Fnan
sI3
Fnan
sI4
Fnan
sI5
Fnan
sI6
Fnan
sI7
Fnan
sI8
Fnan
sI9
Fnan
sI10
Fnan
sI11
Fnan
sI12
Fnan
sI13
Fnan
sI14
Fnan
ssS'ref3flag'
p5
(dp6
I0
S'NoError'
p7
sI1
S'NoError'
p8
sI2
S'NoError'
p9
sI3
S'NoError'
p10
sI4
S'NoError'
p11
sI5
S'NoError'
p12
sI6
S'NoError'
p13
sI7
S'NoError'
p14
sI8
S'NoError'
p15
sI9
S'NoError'
p16
sI10
S'NoError'
p17
sI11
S'NoError'
p18
sI12
S'NoError'
p19
sI13
S'NoError'
p20
sI14
S'NoError'
p21
ssS'tabbyerr'
p22
(dp23
I0
F0.003
sI1
F0.003
sI2
F0.003
sI3
F0.003
sI4
F0.003
sI5
F0.003
sI6
F0.003
sI7
F0.003
sI8
F0.003
sI9
F0.003
sI10
F0.003
sI11
F0.003
sI12
F0.003
sI13
F0.003
sI14
F0.003
ssS'ref2rel'
p24
(dp25
I0
F0.9053608959904821
sI1
F0.9129646058423695
sI2
F0.915801216964715
sI3
F0.9086963867713351
sI4
F0.9126063412806035
sI5
F0.9095575027719015
sI6
F0.9136547038632433
sI7
F0.9121102447811368
sI8
F0.9184590893218993
sI9
F0.9088836654625899
sI10
F0.9138058914201396
sI11
F0.9211664322385605
sI12
F0.9099793636799277
sI13
F0.9115860902566542
sI14
F0.9092143448750444
ssS'ref2err'
p26
(dp27
I0
F0.004046150488753453
sI1
Fnan
sI2
Fnan
sI3
Fnan
sI4
Fnan
sI5
Fnan
sI6
Fnan
sI7
Fnan
sI8
Fnan
sI9
Fnan
sI10
Fnan
sI11
Fnan
sI12
Fnan
sI13
Fnan
sI14
Fnan
ssS'ref2mean'
p28
(dp29
I0
F0.9122564517013735
sI1
Fnan
sI2
Fnan
sI3
Fnan
sI4
Fnan
sI5
Fnan
sI6
Fnan
sI7
Fnan
sI8
Fnan
sI9
Fnan
sI10
Fnan
sI11
Fnan
sI12
Fnan
sI13
Fnan
sI14
Fnan
ssS'tabbymag'
p30
(dp31
I0
F12.03
sI1
F12.013
sI2
F11.966
sI3
F12.005
sI4
F12.017
sI5
F11.963
sI6
F11.977
sI7
F12.015
sI8
F12.024
sI9
F11.965
sI10
F11.968
sI11
F12.016
sI12
F12.05
sI13
F12.013
sI14
F11.972
ssS'tabbybkg'
p32
(dp33
I0
F10.90717
sI1
F10.48523
sI2
F10.984
sI3
F10.67208
sI4
F9.999187
sI5
F10.40486
sI6
F9.584811
sI7
F8.650682
sI8
F9.339193
sI9
F10.35082
sI10
F10.50618
sI11
F9.587419
sI12
F11.0815
sI13
F9.670337
sI14
F10.10114
ssS'JD'
p34
(dp35
I0
F2458466.6401157407
sI1
F2458466.6423958335
sI2
F2458466.620925926
sI3
F2458466.6408796296
sI4
F2458466.662337963
sI5
F2458466.6186689814
sI6
F2458466.639363426
sI7
F2458466.663854167
sI8
F2458466.663101852
sI9
F2458466.6179166664
sI10
F2458466.6194097223
sI11
F2458466.6608449076
sI12
F2458466.6416435186
sI13
F2458466.661585648
sI14
F2458466.620162037
ssS'ref3rmsmean'
p36
(dp37
I0
F1.4495581133333333
sI1
Fnan
sI2
Fnan
sI3
Fnan
sI4
Fnan
sI5
Fnan
sI6
Fnan
sI7
Fnan
sI8
Fnan
sI9
Fnan
sI10
Fnan
sI11
Fnan
sI12
Fnan
sI13
Fnan
sI14
Fnan
ssS'ref1rmsmean'
p38
(dp39
I0
F0.7540971333333332
sI1
Fnan
sI2
Fnan
sI3
Fnan
sI4
Fnan
sI5
Fnan
sI6
Fnan
sI7
Fnan
sI8
Fnan
sI9
Fnan
sI10
Fnan
sI11
Fnan
sI12
Fnan
sI13
Fnan
sI14
Fnan
ssS'relflux'
p40
(dp41
I0
F0.4371519645056959
sI1
F0.4414390800488932
sI2
F0.43932221451232123
sI3
F0.44042614736612856
sI4
F0.4384132724074812
sI5
F0.4400225166313058
sI6
F0.4414509778142578
sI7
F0.4417171795068251
sI8
F0.44030847960929437
sI9
F0.439517875572398
sI10
F0.441345757473816
sI11
F0.4425823886568631
sI12
F0.43808034371445326
sI13
F0.43999272565269
sI14
F0.4411297857122209
ssS'sigerr'
p42
(dp43
I0
F0.0011304593759352596
sI1
Fnan
sI2
Fnan
sI3
Fnan
sI4
Fnan
sI5
Fnan
sI6
Fnan
sI7
Fnan
sI8
Fnan
sI9
Fnan
sI10
Fnan
sI11
Fnan
sI12
Fnan
sI13
Fnan
sI14
Fnan
ssS'tabbyrmsmean'
p44
(dp45
I0
F1.6717682666666667
sI1
Fnan
sI2
Fnan
sI3
Fnan
sI4
Fnan
sI5
Fnan
sI6
Fnan
sI7
Fnan
sI8
Fnan
sI9
Fnan
sI10
Fnan
sI11
Fnan
sI12
Fnan
sI13
Fnan
sI14
Fnan
ssS'tabbyflag'
p46
(dp47
I0
g7
sI1
g8
sI2
g9
sI3
g10
sI4
g11
sI5
g12
sI6
g13
sI7
g14
sI8
g15
sI9
g16
sI10
g17
sI11
g18
sI12
g19
sI13
g20
sI14
g21
ssS'ref1err'
p48
(dp49
I0
F0.002577449733346576
sI1
Fnan
sI2
Fnan
sI3
Fnan
sI4
Fnan
sI5
Fnan
sI6
Fnan
sI7
Fnan
sI8
Fnan
sI9
Fnan
sI10
Fnan
sI11
Fnan
sI12
Fnan
sI13
Fnan
sI14
Fnan
ssS'ref2magmeanerr'
p50
(dp51
I0
F0.02711931309707432
sI1
Fnan
sI2
Fnan
sI3
Fnan
sI4
Fnan
sI5
Fnan
sI6
Fnan
sI7
Fnan
sI8
Fnan
sI9
Fnan
sI10
Fnan
sI11
Fnan
sI12
Fnan
sI13
Fnan
sI14
Fnan
ssS'ref2rmsmean'
p52
(dp53
I0
F0.5374535333333331
sI1
Fnan
sI2
Fnan
sI3
Fnan
sI4
Fnan
sI5
Fnan
sI6
Fnan
sI7
Fnan
sI8
Fnan
sI9
Fnan
sI10
Fnan
sI11
Fnan
sI12
Fnan
sI13
Fnan
sI14
Fnan
ssS'ref3rel'
p54
(dp55
I0
F1.5020562516641138
sI1
F1.4965290564324132
sI2
F1.4962413874437213
sI3
F1.508177706959058
sI4
F1.4986174289419367
sI5
F1.498877185417182
sI6
F1.4908470731097296
sI7
F1.4986119501504587
sI8
F1.4939542501947005
sI9
F1.5051396744379972
sI10
F1.5001747598255832
sI11
F1.4816572395894476
sI12
F1.5044667037938373
sI13
F1.4970749785744761
sI14
F1.493422548192429
ssS'ref1flag'
p56
(dp57
I0
g7
sI1
g8
sI2
g9
sI3
g10
sI4
g11
sI5
g12
sI6
g13
sI7
g14
sI8
g15
sI9
g16
sI10
g17
sI11
g18
sI12
g19
sI13
g20
sI14
g21
ssS'ref2bkg'
p58
(dp59
I0
F12.2512
sI1
F12.1158
sI2
F10.78156
sI3
F11.58576
sI4
F10.85617
sI5
F11.64666
sI6
F11.66965
sI7
F10.62349
sI8
F10.5122
sI9
F10.3599
sI10
F10.53569
sI11
F11.15151
sI12
F11.83052
sI13
F10.44942
sI14
F10.2359
ssS'ref3magmean'
p60
(dp61
I0
F10.836799999999998
sI1
Fnan
sI2
Fnan
sI3
Fnan
sI4
Fnan
sI5
Fnan
sI6
Fnan
sI7
Fnan
sI8
Fnan
sI9
Fnan
sI10
Fnan
sI11
Fnan
sI12
Fnan
sI13
Fnan
sI14
Fnan
ssS'ref1mean'
p62
(dp63
I0
F0.6974423853506739
sI1
Fnan
sI2
Fnan
sI3
Fnan
sI4
Fnan
sI5
Fnan
sI6
Fnan
sI7
Fnan
sI8
Fnan
sI9
Fnan
sI10
Fnan
sI11
Fnan
sI12
Fnan
sI13
Fnan
sI14
Fnan
ssS'ref1rms'
p64
(dp65
I0
F-2.786002
sI1
F-2.482955
sI2
F2.763521
sI3
F3.981205
sI4
F2.679248
sI5
F3.310596
sI6
F-2.602936
sI7
F4.215151
sI8
F-3.793202
sI9
F-3.074818
sI10
F3.25672
sI11
F-2.902035
sI12
F3.285379
sI13
F1.655452
sI14
F3.806133
ssS'ref2magmean'
p66
(dp67
I0
F11.1762
sI1
Fnan
sI2
Fnan
sI3
Fnan
sI4
Fnan
sI5
Fnan
sI6
Fnan
sI7
Fnan
sI8
Fnan
sI9
Fnan
sI10
Fnan
sI11
Fnan
sI12
Fnan
sI13
Fnan
sI14
Fnan
ssS'ref2flag'
p68
(dp69
I0
g7
sI1
g8
sI2
g9
sI3
g10
sI4
g11
sI5
g12
sI6
g13
sI7
g14
sI8
g15
sI9
g16
sI10
g17
sI11
g18
sI12
g19
sI13
g20
sI14
g21
ssS'ref2'
p70
(dp71
I0
F8279.29
sI1
F8381.96
sI2
F8806.846666666668
sI3
F8434.9
sI4
F8401.286666666667
sI5
F8776.24
sI6
F8665.890000000001
sI7
F8353.146666666666
sI8
F8351.25
sI9
F8764.516666666666
sI10
F8741.313333333334
sI11
F8386.036666666667
sI12
F8140.123333333334
sI13
F8395.703333333333
sI14
F8685.053333333333
ssS'airmass'
p72
(dp73
I0
F1.776331
sI1
F1.801036
sI2
F1.594603
sI3
F1.784558
sI4
F2.054868
sI5
F1.575941
sI6
F1.768182
sI7
F2.077269
sI8
F2.066031
sI9
F1.569963
sI10
F1.582086
sI11
F2.033068
sI12
F1.7927419999999998
sI13
F2.043878
sI14
F1.588343
ssS'ref1'
p74
(dp75
I0
F6893.95
sI1
F6915.513333333333
sI2
F7233.203333333334
sI3
F6957.556666666667
sI4
F6926.4366666666665
sI5
F7271.23
sI6
F7167.296666666666
sI7
F6892.463333333333
sI8
F6838.759999999999
sI9
F7241.036666666667
sI10
F7185.306666666667
sI11
F6890.29
sI12
F6715.723333333333
sI13
F6940.366666666667
sI14
F7224.6033333333335
ssS'ref3'
p76
(dp77
I0
F11395.53
sI1
F11446.556666666667
sI2
F11999.893333333333
sI3
F11607.28
sI4
F11485.196666666667
sI5
F12026.593333333332
sI6
F11802.43
sI7
F11423.626666666667
sI8
F11346.59
sI9
F12045.296666666667
sI10
F11946.356666666667
sI11
F11317.140000000001
sI12
F11175.063333333334
sI13
F11479.623333333333
sI14
F11879.92
ssS'ref1bkg'
p78
(dp79
I0
F11.76815
sI1
F10.83479
sI2
F11.83523
sI3
F10.30865
sI4
F10.36121
sI5
F10.35034
sI6
F10.6989
sI7
F10.17539
sI8
F11.33517
sI9
F10.83295
sI10
F10.87218
sI11
F11.06401
sI12
F11.3393
sI13
F9.882378
sI14
F10.62356
ssS'ref1mag'
p80
(dp81
I0
F11.404
sI1
F11.4
sI2
F11.352
sI3
F11.394
sI4
F11.399
sI5
F11.346
sI6
F11.362
sI7
F11.404
sI8
F11.413
sI9
F11.35
sI10
F11.359
sI11
F11.404
sI12
F11.432
sI13
F11.397
sI14
F11.353
ssS'ref3magerr'
p82
(dp83
I0
F0.002
sI1
F0.002
sI2
F0.002
sI3
F0.002
sI4
F0.002
sI5
F0.002
sI6
F0.002
sI7
F0.002
sI8
F0.002
sI9
F0.002
sI10
F0.002
sI11
F0.002
sI12
F0.002
sI13
F0.002
sI14
F0.002
ssS'tabbymagmean'
p84
(dp85
I0
F0.44019338061230967
sI1
Fnan
sI2
Fnan
sI3
Fnan
sI4
Fnan
sI5
Fnan
sI6
Fnan
sI7
Fnan
sI8
Fnan
sI9
Fnan
sI10
Fnan
sI11
Fnan
sI12
Fnan
sI13
Fnan
sI14
Fnan
ssS'ref1magmean'
p86
(dp87
I0
F11.384599999999999
sI1
Fnan
sI2
Fnan
sI3
Fnan
sI4
Fnan
sI5
Fnan
sI6
Fnan
sI7
Fnan
sI8
Fnan
sI9
Fnan
sI10
Fnan
sI11
Fnan
sI12
Fnan
sI13
Fnan
sI14
Fnan
ssS'ref2mag'
p88
(dp89
I0
F11.205
sI1
F11.192
sI2
F11.138
sI3
F11.185
sI4
F11.189
sI5
F11.142
sI6
F11.155
sI7
F11.195
sI8
F11.196
sI9
F11.143
sI10
F11.146
sI11
F11.191
sI12
F11.223
sI13
F11.19
sI14
F11.153
ssS'ref3rms'
p90
(dp91
I0
F3.700566
sI1
F4.321812
sI2
F-2.753008
sI3
F-1.984758
sI4
F4.493933
sI5
F-2.221717
sI6
F-0.6968483
sI7
F3.201655
sI8
F3.846334
sI9
F-3.576465
sI10
F-2.530812
sI11
F3.943211
sI12
F3.947473
sI13
F3.36712
sI14
F4.684876
ssS'ref3magmeanerr'
p92
(dp93
I0
F0.027412718633093133
sI1
Fnan
sI2
Fnan
sI3
Fnan
sI4
Fnan
sI5
Fnan
sI6
Fnan
sI7
Fnan
sI8
Fnan
sI9
Fnan
sI10
Fnan
sI11
Fnan
sI12
Fnan
sI13
Fnan
sI14
Fnan
ssS'ref1rel'
p94
(dp95
I0
F0.7007891304723499
sI1
F0.6975320897259922
sI2
F0.6952750246634825
sI3
F0.6942914060912203
sI4
F0.696597437623042
sI5
F0.6990615060448496
sI6
F0.7003307224693249
sI7
F0.6970260736837423
sI8
F0.6943664889145205
sI9
F0.6959251917044267
sI10
F0.6946462957565224
sI11
F0.6994090462231725
sI12
F0.695382700590002
sI13
F0.6983901983665509
sI14
F0.702612467930909
ssS'exposure'
p96
(dp97
I0
F30.0
sI1
F30.0
sI2
F30.0
sI3
F30.0
sI4
F30.0
sI5
F30.0
sI6
F30.0
sI7
F30.0
sI8
F30.0
sI9
F30.0
sI10
F30.0
sI11
F30.0
sI12
F30.0
sI13
F30.0
sI14
F30.0
ssS'ref1magerr'
p98
(dp99
I0
F0.002
sI1
F0.002
sI2
F0.002
sI3
F0.002
sI4
F0.002
sI5
F0.002
sI6
F0.002
sI7
F0.002
sI8
F0.002
sI9
F0.002
sI10
F0.002
sI11
F0.002
sI12
F0.002
sI13
F0.002
sI14
F0.002
ssS'ref2magerr'
p100
(dp101
I0
F0.002
sI1
F0.002
sI2
F0.002
sI3
F0.002
sI4
F0.002
sI5
F0.002
sI6
F0.002
sI7
F0.002
sI8
F0.002
sI9
F0.002
sI10
F0.002
sI11
F0.002
sI12
F0.002
sI13
F0.002
sI14
F0.002
ssS'ref2rms'
p102
(dp103
I0
F-2.038137
sI1
F2.789514
sI2
F3.993108
sI3
F1.80274
sI4
F3.365512
sI5
F-4.028145
sI6
F-2.949934
sI7
F-2.329106
sI8
F-1.09284
sI9
F3.48734
sI10
F4.135711
sI11
F-3.8497
sI12
F3.073102
sI13
F-2.706071
sI14
F4.408709
ssS'name'
p104
(dp105
I0
S"KIC8462852-20181214at032146_-35-1X1-030-i'_cal.fts.mag.1"
p106
sI1
S"KIC8462852-20181214at032503_-35-1X1-030-i'_cal.fts.mag.1"
p107
sI2
S"KIC8462852-20181214at025408_-35-1X1-030-i'_cal.fts.mag.1"
p108
sI3
S"KIC8462852-20181214at032252_-35-1X1-030-i'_cal.fts.mag.1"
p109
sI4
S"KIC8462852-20181214at035346_-35-1X1-030-i'_cal.fts.mag.1"
p110
sI5
S"KIC8462852-20181214at025053_-35-1X1-030-i'_cal.fts.mag.1"
p111
sI6
S"KIC8462852-20181214at032039_-35-1X1-030-i'_cal.fts.mag.1"
p112
sI7
S"KIC8462852-20181214at035557_-35-1X1-030-i'_cal.fts.mag.1"
p113
sI8
S"KIC8462852-20181214at035452_-35-1X1-030-i'_cal.fts.mag.1"
p114
sI9
S"KIC8462852-20181214at024947_-35-1X1-030-i'_cal.fts.mag.1"
p115
sI10
S"KIC8462852-20181214at025157_-35-1X1-030-i'_cal.fts.mag.1"
p116
sI11
S"KIC8462852-20181214at035135_-35-1X1-030-i'_cal.fts.mag.1"
p117
sI12
S"KIC8462852-20181214at032358_-35-1X1-030-i'_cal.fts.mag.1"
p118
sI13
S"KIC8462852-20181214at035241_-35-1X1-030-i'_cal.fts.mag.1"
p119
sI14
S"KIC8462852-20181214at025302_-35-1X1-030-i'_cal.fts.mag.1"
p120
ssS'ref3err'
p121
(dp122
I0
F0.006434400132963657
sI1
Fnan
sI2
Fnan
sI3
Fnan
sI4
Fnan
sI5
Fnan
sI6
Fnan
sI7
Fnan
sI8
Fnan
sI9
Fnan
sI10
Fnan
sI11
Fnan
sI12
Fnan
sI13
Fnan
sI14
Fnan
ssS'tabby'
p123
(dp124
I0
F3871.5299999999997
sI1
F3935.286666666667
sI2
F4106.19
sI3
F3963.7966666666666
sI4
F3918.3799999999997
sI5
F4117.74
sI6
F4066.5899999999997
sI7
F3926.7533333333336
sI8
F3894.7633333333333
sI9
F4109.616666666667
sI10
F4100.54
sI11
F3923.266666666667
sI12
F3801.21
sI13
F3932.9033333333336
sI14
F4086.27
ssS'ref1magmeanerr'
p125
(dp126
I0
F0.02775350685692073
sI1
Fnan
sI2
Fnan
sI3
Fnan
sI4
Fnan
sI5
Fnan
sI6
Fnan
sI7
Fnan
sI8
Fnan
sI9
Fnan
sI10
Fnan
sI11
Fnan
sI12
Fnan
sI13
Fnan
sI14
Fnan
ssS'filter'
p127
(dp128
I0
S"i'"
p129
sI1
S"i'"
p130
sI2
S"i'"
p131
sI3
S"i'"
p132
sI4
S"i'"
p133
sI5
S"i'"
p134
sI6
S"i'"
p135
sI7
S"i'"
p136
sI8
S"i'"
p137
sI9
S"i'"
p138
sI10
S"i'"
p139
sI11
S"i'"
p140
sI12
S"i'"
p141
sI13
S"i'"
p142
sI14
S"i'"
p143
ssS'tabbymagerr'
p144
(dp145
I0
F0.0015024625460293673
sI1
Fnan
sI2
Fnan
sI3
Fnan
sI4
Fnan
sI5
Fnan
sI6
Fnan
sI7
Fnan
sI8
Fnan
sI9
Fnan
sI10
Fnan
sI11
Fnan
sI12
Fnan
sI13
Fnan
sI14
Fnan
ssS'tabbyrms'
p146
(dp147
I0
F3.578341
sI1
F-3.635516
sI2
F3.30867
sI3
F4.246074
sI4
F2.570823
sI5
F4.015619
sI6
F5.012627
sI7
F3.51144
sI8
F-2.71519
sI9
F-2.014897
sI10
F-1.909243
sI11
F3.895602
sI12
F2.69677
sI13
F-1.290464
sI14
F3.805868
ssS'ref3mean'
p148
(dp149
I0
F1.4977232129818059
sI1
Fnan
sI2
Fnan
sI3
Fnan
sI4
Fnan
sI5
Fnan
sI6
Fnan
sI7
Fnan
sI8
Fnan
sI9
Fnan
sI10
Fnan
sI11
Fnan
sI12
Fnan
sI13
Fnan
sI14
Fnan
ssS'median_JD'
p150
(dp151
I0
F2458466.6408796296
sI1
Fnan
sI2
Fnan
sI3
Fnan
sI4
Fnan
sI5
Fnan
sI6
Fnan
sI7
Fnan
sI8
Fnan
sI9
Fnan
sI10
Fnan
sI11
Fnan
sI12
Fnan
sI13
Fnan
sI14
Fnan
ssS'error'
p152
(dp153
I0
F0.0015024625460293673
sI1
Fnan
sI2
Fnan
sI3
Fnan
sI4
Fnan
sI5
Fnan
sI6
Fnan
sI7
Fnan
sI8
Fnan
sI9
Fnan
sI10
Fnan
sI11
Fnan
sI12
Fnan
sI13
Fnan
sI14
Fnan
ssS'ref3bkg'
p154
(dp155
I0
F12.22222
sI1
F12.16371
sI2
F12.24496
sI3
F11.80985
sI4
F10.25875
sI5
F12.00245
sI6
F12.0896
sI7
F10.84206
sI8
F11.82569
sI9
F12.59138
sI10
F12.62031
sI11
F11.00458
sI12
F12.49679
sI13
F11.41473
sI14
F10.76296
ssS'ref3mag'
p156
(dp157
I0
F10.858
sI1
F10.853
sI2
F10.802
sI3
F10.838
sI4
F10.85
sI5
F10.8
sI6
F10.82
sI7
F10.855
sI8
F10.863
sI9
F10.798
sI10
F10.807
sI11
F10.866
sI12
F10.879
sI13
F10.85
sI14
F10.813
ssS'mean'
p158
(dp159
I0
F0.44019338061230967
sI1
Fnan
sI2
Fnan
sI3
Fnan
sI4
Fnan
sI5
Fnan
sI6
Fnan
sI7
Fnan
sI8
Fnan
sI9
Fnan
sI10
Fnan
sI11
Fnan
sI12
Fnan
sI13
Fnan
sI14
Fnan
sssS'r'
p160
(dp161
g3
(dp162
I0
F0.5505382072611994
sI1
Fnan
sI2
Fnan
sI3
Fnan
sI4
Fnan
sI5
Fnan
sI6
Fnan
sI7
Fnan
sI8
Fnan
sI9
Fnan
sI10
Fnan
sI11
Fnan
sI12
Fnan
sI13
Fnan
sI14
Fnan
ssg5
(dp163
I0
S'NoError'
p164
sI1
S'NoError'
p165
sI2
S'NoError'
p166
sI3
S'NoError'
p167
sI4
S'NoError'
p168
sI5
S'NoError'
p169
sI6
S'NoError'
p170
sI7
S'NoError'
p171
sI8
S'NoError'
p172
sI9
S'NoError'
p173
sI10
S'NoError'
p174
sI11
S'NoError'
p175
sI12
S'NoError'
p176
sI13
S'NoError'
p177
sI14
S'NoError'
p178
ssg22
(dp179
I0
F0.002
sI1
F0.002
sI2
F0.002
sI3
F0.002
sI4
F0.002
sI5
F0.002
sI6
F0.002
sI7
F0.002
sI8
F0.002
sI9
F0.002
sI10
F0.002
sI11
F0.002
sI12
F0.002
sI13
F0.002
sI14
F0.002
ssg24
(dp180
I0
F0.8993682200782671
sI1
F0.8925814326039933
sI2
F0.8926638903078525
sI3
F0.8966638358460371
sI4
F0.8937907246580234
sI5
F0.9017484408355416
sI6
F0.8976159519180954
sI7
F0.892917262621108
sI8
F0.8931237283133658
sI9
F0.8944173135603144
sI10
F0.892097726836062
sI11
F0.890063517909403
sI12
F0.8901564492403244
sI13
F0.9022880957111804
sI14
F0.8945069632956746
ssg26
(dp181
I0
F0.003824232430526408
sI1
Fnan
sI2
Fnan
sI3
Fnan
sI4
Fnan
sI5
Fnan
sI6
Fnan
sI7
Fnan
sI8
Fnan
sI9
Fnan
sI10
Fnan
sI11
Fnan
sI12
Fnan
sI13
Fnan
sI14
Fnan
ssg28
(dp182
I0
F0.8949335702490161
sI1
Fnan
sI2
Fnan
sI3
Fnan
sI4
Fnan
sI5
Fnan
sI6
Fnan
sI7
Fnan
sI8
Fnan
sI9
Fnan
sI10
Fnan
sI11
Fnan
sI12
Fnan
sI13
Fnan
sI14
Fnan
ssg30
(dp183
I0
F11.33
sI1
F11.285
sI2
F11.294
sI3
F11.344
sI4
F11.286
sI5
F11.323
sI6
F11.349
sI7
F11.264
sI8
F11.261
sI9
F11.286
sI10
F11.284
sI11
F11.268
sI12
F11.266
sI13
F11.343
sI14
F11.274
ssg32
(dp184
I0
F11.49229
sI1
F12.24001
sI2
F13.53505
sI3
F11.44776
sI4
F12.83324
sI5
F11.59792
sI6
F11.2831
sI7
F12.52909
sI8
F12.2727
sI9
F12.63546
sI10
F14.04832
sI11
F12.42529
sI12
F12.11728
sI13
F11.80712
sI14
F12.39092
ssg34
(dp185
I0
F2458466.657824074
sI1
F2458466.637060185
sI2
F2458466.6362962965
sI3
F2458466.6593171298
sI4
F2458466.638576389
sI5
F2458466.658576389
sI6
F2458466.6600810187
sI7
F2458466.617164352
sI8
F2458466.614895833
sI9
F2458466.6378125
sI10
F2458466.6355439816
sI11
F2458466.6141319443
sI12
F2458466.616400463
sI13
F2458466.657060185
sI14
F2458466.615648148
ssg36
(dp186
I0
F1.0298097999999998
sI1
Fnan
sI2
Fnan
sI3
Fnan
sI4
Fnan
sI5
Fnan
sI6
Fnan
sI7
Fnan
sI8
Fnan
sI9
Fnan
sI10
Fnan
sI11
Fnan
sI12
Fnan
sI13
Fnan
sI14
Fnan
ssg38
(dp187
I0
F1.6093576666666667
sI1
Fnan
sI2
Fnan
sI3
Fnan
sI4
Fnan
sI5
Fnan
sI6
Fnan
sI7
Fnan
sI8
Fnan
sI9
Fnan
sI10
Fnan
sI11
Fnan
sI12
Fnan
sI13
Fnan
sI14
Fnan
ssg40
(dp188
I0
F0.5458366849805574
sI1
F0.5504912600617268
sI2
F0.5479692214908728
sI3
F0.5518596387191488
sI4
F0.5501400279578819
sI5
F0.5546443550890466
sI6
F0.550489539783529
sI7
F0.551573391586481
sI8
F0.5513301942635366
sI9
F0.5484414622630733
sI10
F0.5517640275201875
sI11
F0.5515169343938795
sI12
F0.5531321535061589
sI13
F0.5506920137229114
sI14
F0.5475968291262049
ssg42
(dp189
I0
F0.0015803757801201314
sI1
Fnan
sI2
Fnan
sI3
Fnan
sI4
Fnan
sI5
Fnan
sI6
Fnan
sI7
Fnan
sI8
Fnan
sI9
Fnan
sI10
Fnan
sI11
Fnan
sI12
Fnan
sI13
Fnan
sI14
Fnan
ssg44
(dp190
I0
F2.5270888
sI1
Fnan
sI2
Fnan
sI3
Fnan
sI4
Fnan
sI5
Fnan
sI6
Fnan
sI7
Fnan
sI8
Fnan
sI9
Fnan
sI10
Fnan
sI11
Fnan
sI12
Fnan
sI13
Fnan
sI14
Fnan
ssg46
(dp191
I0
g164
sI1
g165
sI2
g166
sI3
g167
sI4
g168
sI5
g169
sI6
g170
sI7
g171
sI8
g172
sI9
g173
sI10
g174
sI11
g175
sI12
g176
sI13
g177
sI14
g178
ssg48
(dp192
I0
F0.0024488708593011364
sI1
Fnan
sI2
Fnan
sI3
Fnan
sI4
Fnan
sI5
Fnan
sI6
Fnan
sI7
Fnan
sI8
Fnan
sI9
Fnan
sI10
Fnan
sI11
Fnan
sI12
Fnan
sI13
Fnan
sI14
Fnan
ssg50
(dp193
I0
F0.0289141586671405
sI1
Fnan
sI2
Fnan
sI3
Fnan
sI4
Fnan
sI5
Fnan
sI6
Fnan
sI7
Fnan
sI8
Fnan
sI9
Fnan
sI10
Fnan
sI11
Fnan
sI12
Fnan
sI13
Fnan
sI14
Fnan
ssg52
(dp194
I0
F1.2845476400000002
sI1
Fnan
sI2
Fnan
sI3
Fnan
sI4
Fnan
sI5
Fnan
sI6
Fnan
sI7
Fnan
sI8
Fnan
sI9
Fnan
sI10
Fnan
sI11
Fnan
sI12
Fnan
sI13
Fnan
sI14
Fnan
ssg54
(dp195
I0
F1.4942815039976198
sI1
F1.5004757888919331
sI2
F1.4941053711019072
sI3
F1.5032455067457582
sI4
F1.499132316152442
sI5
F1.4869450426084887
sI6
F1.494789202537511
sI7
F1.4987575046486734
sI8
F1.4945827079750016
sI9
F1.4991054770948427
sI10
F1.5059741463162757
sI11
F1.500007479871939
sI12
F1.4989648380132914
sI13
F1.4873298475916312
sI14
F1.495452596439291
ssg56
(dp196
I0
g164
sI1
g165
sI2
g166
sI3
g167
sI4
g168
sI5
g169
sI6
g170
sI7
g171
sI8
g172
sI9
g173
sI10
g174
sI11
g175
sI12
g176
sI13
g177
sI14
g178
ssg58
(dp197
I0
F12.57794
sI1
F13.54289
sI2
F13.69175
sI3
F12.00423
sI4
F13.0592
sI5
F13.30161
sI6
F12.41324
sI7
F12.81028
sI8
F13.64797
sI9
F14.0076
sI10
F14.90516
sI11
F13.93333
sI12
F13.88766
sI13
F11.84025
sI14
F13.34817
ssg60
(dp198
I0
F10.377399999999998
sI1
Fnan
sI2
Fnan
sI3
Fnan
sI4
Fnan
sI5
Fnan
sI6
Fnan
sI7
Fnan
sI8
Fnan
sI9
Fnan
sI10
Fnan
sI11
Fnan
sI12
Fnan
sI13
Fnan
sI14
Fnan
ssg62
(dp199
I0
F0.712982618681435
sI1
Fnan
sI2
Fnan
sI3
Fnan
sI4
Fnan
sI5
Fnan
sI6
Fnan
sI7
Fnan
sI8
Fnan
sI9
Fnan
sI10
Fnan
sI11
Fnan
sI12
Fnan
sI13
Fnan
sI14
Fnan
ssg64
(dp200
I0
F3.681307
sI1
F-2.978683
sI2
F-2.692193
sI3
F3.969134
sI4
F2.580308
sI5
F2.710551
sI6
F3.148701
sI7
F3.111861
sI8
F4.522507
sI9
F3.131141
sI10
F2.294367
sI11
F2.332199
sI12
F3.381298
sI13
F-2.568296
sI14
F-2.483837
ssg66
(dp201
I0
F10.7308
sI1
Fnan
sI2
Fnan
sI3
Fnan
sI4
Fnan
sI5
Fnan
sI6
Fnan
sI7
Fnan
sI8
Fnan
sI9
Fnan
sI10
Fnan
sI11
Fnan
sI12
Fnan
sI13
Fnan
sI14
Fnan
ssg68
(dp202
I0
g164
sI1
g165
sI2
g166
sI3
g167
sI4
g168
sI5
g169
sI6
g170
sI7
g171
sI8
g172
sI9
g173
sI10
g174
sI11
g175
sI12
g176
sI13
g177
sI14
g178
ssg70
(dp203
I0
F12580.356666666667
sI1
F12938.573333333334
sI2
F12887.723333333333
sI3
F12263.523333333334
sI4
F12947.683333333332
sI5
F12483.763333333334
sI6
F12246.023333333334
sI7
F13161.09
sI8
F13210.093333333332
sI9
F12985.24
sI10
F12915.646666666667
sI11
F13089.82
sI12
F13073.993333333334
sI13
F12344.096666666668
sI14
F13150.586666666666
ssg72
(dp204
I0
F1.9908099999999997
sI1
F1.7441369999999998
sI2
F1.736361
sI3
F2.0116099999999997
sI4
F1.760013
sI5
F2.001144
sI6
F2.0222130000000003
sI7
F1.563862
sI8
F1.546039
sI9
F1.751955
sI10
F1.728716
sI11
F1.540232
sI12
F1.557907
sI13
F1.9805409999999999
sI14
F1.5519209999999999
ssg74
(dp205
I0
F10632.623333333333
sI1
F11018.130000000001
sI2
F11016.806666666667
sI3
F10353.9
sI4
F11012.656666666668
sI5
F10557.42
sI6
F10377.193333333333
sI7
F11213.246666666668
sI8
F11280.31
sI9
F11033.15
sI10
F10970.053333333333
sI11
F11197.583333333334
sI12
F11189.519999999999
sI13
F10427.4
sI14
F11197.373333333333
ssg76
(dp206
I0
F17343.363333333335
sI1
F17973.22666666667
sI2
F17857.943333333336
sI3
F16999.77
sI4
F17959.86
sI5
F17130.486666666668
sI6
F16908.469999999998
sI7
F18265.61
sI8
F18301.466666666667
sI9
F18003.05
sI10
F17985.623333333333
sI11
F18215.643333333333
sI12
F18185.076666666668
sI13
F16934.363333333335
sI14
F18205.61
ssg78
(dp207
I0
F12.07442
sI1
F13.1287
sI2
F13.95081
sI3
F12.04063
sI4
F12.96344
sI5
F12.04565
sI6
F11.29287
sI7
F13.214
sI8
F12.5195
sI9
F12.82444
sI10
F13.58152
sI11
F13.30252
sI12
F12.98871
sI13
F12.55802
sI14
F13.45172
ssg80
(dp208
I0
F10.933
sI1
F10.895
sI2
F10.895
sI3
F10.962
sI4
F10.895
sI5
F10.941
sI6
F10.96
sI7
F10.876
sI8
F10.869
sI9
F10.893
sI10
F10.899
sI11
F10.877
sI12
F10.878
sI13
F10.955
sI14
F10.877
ssg82
(dp209
I0
F0.001
sI1
F0.001
sI2
F0.001
sI3
F0.001
sI4
F0.001
sI5
F0.001
sI6
F0.001
sI7
F0.001
sI8
F0.001
sI9
F0.001
sI10
F0.001
sI11
F0.001
sI12
F0.001
sI13
F0.001
sI14
F0.001
ssg84
(dp210
I0
F0.5504985156310132
sI1
Fnan
sI2
Fnan
sI3
Fnan
sI4
Fnan
sI5
Fnan
sI6
Fnan
sI7
Fnan
sI8
Fnan
sI9
Fnan
sI10
Fnan
sI11
Fnan
sI12
Fnan
sI13
Fnan
sI14
Fnan
ssg86
(dp211
I0
F10.907000000000004
sI1
Fnan
sI2
Fnan
sI3
Fnan
sI4
Fnan
sI5
Fnan
sI6
Fnan
sI7
Fnan
sI8
Fnan
sI9
Fnan
sI10
Fnan
sI11
Fnan
sI12
Fnan
sI13
Fnan
sI14
Fnan
ssg88
(dp212
I0
F10.751
sI1
F10.72
sI2
F10.725
sI3
F10.778
sI4
F10.72
sI5
F10.759
sI6
F10.78
sI7
F10.702
sI8
F10.698
sI9
F10.716
sI10
F10.722
sI11
F10.708
sI12
F10.709
sI13
F10.771
sI14
F10.703
ssg90
(dp213
I0
F4.508794
sI1
F-1.92081
sI2
F2.464292
sI3
F-2.558126
sI4
F-1.779556
sI5
F3.498284
sI6
F-2.61017
sI7
F-4.128569
sI8
F4.628106
sI9
F4.317127
sI10
F2.959079
sI11
F2.285051
sI12
F4.037077
sI13
F-3.772846
sI14
F3.519414
ssg92
(dp214
I0
F0.032614194981414345
sI1
Fnan
sI2
Fnan
sI3
Fnan
sI4
Fnan
sI5
Fnan
sI6
Fnan
sI7
Fnan
sI8
Fnan
sI9
Fnan
sI10
Fnan
sI11
Fnan
sI12
Fnan
sI13
Fnan
sI14
Fnan
ssg94
(dp215
I0
F0.7106484978026351
sI1
F0.7128753421023687
sI2
F0.716641261099125
sI3
F0.7076373723258307
sI4
F0.712619346539243
sI5
F0.7129959394548233
sI6
F0.7118760881684562
sI7
F0.7136127348189067
sI8
F0.7159474173922206
sI9
F0.7120851134412386
sI10
F0.7100066329528419
sI11
F0.7153756655254744
sI12
F0.7159214909464676
sI13
F0.7122915617829625
sI14
F0.7142048158689314
ssg96
(dp216
I0
F30.0
sI1
F30.0
sI2
F30.0
sI3
F30.0
sI4
F30.0
sI5
F30.0
sI6
F30.0
sI7
F30.0
sI8
F30.0
sI9
F30.0
sI10
F30.0
sI11
F30.0
sI12
F30.0
sI13
F30.0
sI14
F30.0
ssg98
(dp217
I0
F0.002
sI1
F0.002
sI2
F0.002
sI3
F0.002
sI4
F0.002
sI5
F0.002
sI6
F0.002
sI7
F0.002
sI8
F0.002
sI9
F0.002
sI10
F0.002
sI11
F0.002
sI12
F0.002
sI13
F0.002
sI14
F0.002
ssg100
(dp218
I0
F0.002
sI1
F0.002
sI2
F0.002
sI3
F0.002
sI4
F0.002
sI5
F0.002
sI6
F0.002
sI7
F0.002
sI8
F0.002
sI9
F0.002
sI10
F0.002
sI11
F0.002
sI12
F0.002
sI13
F0.002
sI14
F0.002
ssg102
(dp219
I0
F2.489272
sI1
F-3.068153
sI2
F2.697268
sI3
F3.586239
sI4
F4.29717
sI5
F2.980366
sI6
F2.692935
sI7
F3.729807
sI8
F0.7050446
sI9
F1.76195
sI10
F-2.934911
sI11
F1.75982
sI12
F-2.756107
sI13
F3.473634
sI14
F-2.14612
ssg104
(dp220
I0
S"KIC8462852-20181214at034716_-35-1X1-030-r'_cal.fts.mag.1"
p221
sI1
S"KIC8462852-20181214at031722_-35-1X1-030-r'_cal.fts.mag.1"
p222
sI2
S"KIC8462852-20181214at031616_-35-1X1-030-r'_cal.fts.mag.1"
p223
sI3
S"KIC8462852-20181214at034925_-35-1X1-030-r'_cal.fts.mag.1"
p224
sI4
S"KIC8462852-20181214at031933_-35-1X1-030-r'_cal.fts.mag.1"
p225
sI5
S"KIC8462852-20181214at034821_-35-1X1-030-r'_cal.fts.mag.1"
p226
sI6
S"KIC8462852-20181214at035031_-35-1X1-030-r'_cal.fts.mag.1"
p227
sI7
S"KIC8462852-20181214at024843_-35-1X1-030-r'_cal.fts.mag.1"
p228
sI8
S"KIC8462852-20181214at024526_-35-1X1-030-r'_cal.fts.mag.1"
p229
sI9
S"KIC8462852-20181214at031827_-35-1X1-030-r'_cal.fts.mag.1"
p230
sI10
S"KIC8462852-20181214at031510_-35-1X1-030-r'_cal.fts.mag.1"
p231
sI11
S"KIC8462852-20181214at024420_-35-1X1-030-r'_cal.fts.mag.1"
p232
sI12
S"KIC8462852-20181214at024737_-35-1X1-030-r'_cal.fts.mag.1"
p233
sI13
S"KIC8462852-20181214at034609_-35-1X1-030-r'_cal.fts.mag.1"
p234
sI14
S"KIC8462852-20181214at024632_-35-1X1-030-r'_cal.fts.mag.1"
p235
ssg121
(dp236
I0
F0.005209038037627567
sI1
Fnan
sI2
Fnan
sI3
Fnan
sI4
Fnan
sI5
Fnan
sI6
Fnan
sI7
Fnan
sI8
Fnan
sI9
Fnan
sI10
Fnan
sI11
Fnan
sI12
Fnan
sI13
Fnan
sI14
Fnan
ssg123
(dp237
I0
F7379.046666666666
sI1
F7694.02
sI2
F7628.183333333333
sI3
F7287.71
sI4
F7687.326666666666
sI5
F7426.996666666667
sI6
F7253.926666666666
sI7
F7839.6866666666665
sI8
F7864.15
sI9
F7682.1
sI10
F7701.03
sI11
F7813.716666666666
sI12
F7826.5599999999995
sI13
F7288.566666666667
sI14
F7767.4
ssg125
(dp238
I0
F0.03349626844888856
sI1
Fnan
sI2
Fnan
sI3
Fnan
sI4
Fnan
sI5
Fnan
sI6
Fnan
sI7
Fnan
sI8
Fnan
sI9
Fnan
sI10
Fnan
sI11
Fnan
sI12
Fnan
sI13
Fnan
sI14
Fnan
ssg127
(dp239
I0
S"r'"
p240
sI1
S"r'"
p241
sI2
S"r'"
p242
sI3
S"r'"
p243
sI4
S"r'"
p244
sI5
S"r'"
p245
sI6
S"r'"
p246
sI7
S"r'"
p247
sI8
S"r'"
p248
sI9
S"r'"
p249
sI10
S"r'"
p250
sI11
S"r'"
p251
sI12
S"r'"
p252
sI13
S"r'"
p253
sI14
S"r'"
p254
ssg144
(dp255
I0
F0.002258472448991944
sI1
Fnan
sI2
Fnan
sI3
Fnan
sI4
Fnan
sI5
Fnan
sI6
Fnan
sI7
Fnan
sI8
Fnan
sI9
Fnan
sI10
Fnan
sI11
Fnan
sI12
Fnan
sI13
Fnan
sI14
Fnan
ssg146
(dp256
I0
F3.975147
sI1
F4.196396
sI2
F2.735036
sI3
F3.571215
sI4
F-2.648163
sI5
F2.9626
sI6
F1.388796
sI7
F2.777807
sI8
F3.35086
sI9
F3.715387
sI10
F-3.602275
sI11
F3.640312
sI12
F3.636314
sI13
F3.659724
sI14
F4.547176
ssg148
(dp257
I0
F1.4968766219991068
sI1
Fnan
sI2
Fnan
sI3
Fnan
sI4
Fnan
sI5
Fnan
sI6
Fnan
sI7
Fnan
sI8
Fnan
sI9
Fnan
sI10
Fnan
sI11
Fnan
sI12
Fnan
sI13
Fnan
sI14
Fnan
ssg150
(dp258
I0
F2458466.637060185
sI1
Fnan
sI2
Fnan
sI3
Fnan
sI4
Fnan
sI5
Fnan
sI6
Fnan
sI7
Fnan
sI8
Fnan
sI9
Fnan
sI10
Fnan
sI11
Fnan
sI12
Fnan
sI13
Fnan
sI14
Fnan
ssg152
(dp259
I0
F0.002258472448991944
sI1
Fnan
sI2
Fnan
sI3
Fnan
sI4
Fnan
sI5
Fnan
sI6
Fnan
sI7
Fnan
sI8
Fnan
sI9
Fnan
sI10
Fnan
sI11
Fnan
sI12
Fnan
sI13
Fnan
sI14
Fnan
ssg154
(dp260
I0
F13.74517
sI1
F13.99659
sI2
F14.34901
sI3
F14.71659
sI4
F13.26312
sI5
F13.25892
sI6
F14.04528
sI7
F14.91298
sI8
F14.47275
sI9
F13.89692
sI10
F14.70694
sI11
F14.71191
sI12
F15.0524
sI13
F14.38806
sI14
F14.95809
ssg156
(dp261
I0
F10.402
sI1
F10.363
sI2
F10.37
sI3
F10.424
sI4
F10.364
sI5
F10.416
sI6
F10.43
sI7
F10.346
sI8
F10.344
sI9
F10.362
sI10
F10.363
sI11
F10.349
sI12
F10.351
sI13
F10.428
sI14
F10.349
ssg158
(dp262
I0
F0.5504985156310132
sI1
Fnan
sI2
Fnan
sI3
Fnan
sI4
Fnan
sI5
Fnan
sI6
Fnan
sI7
Fnan
sI8
Fnan
sI9
Fnan
sI10
Fnan
sI11
Fnan
sI12
Fnan
sI13
Fnan
sI14
Fnan
sssS'z'
p263
(dp264
g3
(dp265
I0
F0.3690253408481117
sI1
Fnan
sI2
Fnan
sI3
Fnan
sI4
Fnan
sI5
Fnan
sI6
Fnan
sI7
Fnan
sI8
Fnan
sI9
Fnan
sI10
Fnan
sI11
Fnan
sI12
Fnan
sI13
Fnan
sI14
Fnan
ssg5
(dp266
I0
S'NoError'
p267
sI1
S'NoError'
p268
sI2
S'NoError'
p269
sI3
S'NoError'
p270
sI4
S'NoError'
p271
sI5
S'NoError'
p272
sI6
S'NoError'
p273
sI7
S'NoError'
p274
sI8
S'NoError'
p275
sI9
S'NoError'
p276
sI10
S'NoError'
p277
sI11
S'NoError'
p278
sI12
S'NoError'
p279
sI13
S'NoError'
p280
sI14
S'NoError'
p281
ssg22
(dp282
I0
F0.008
sI1
F0.008
sI2
F0.008
sI3
F0.008
sI4
F0.007
sI5
F0.008
sI6
F0.008
sI7
F0.007
sI8
F0.008
sI9
F0.007
sI10
F0.008
sI11
F0.008
sI12
F0.008
sI13
F0.007
sI14
F0.007
ssg24
(dp283
I0
F0.9109964250349412
sI1
F0.9119966496144053
sI2
F0.9123890117783228
sI3
F0.9219565043879132
sI4
F0.9231732652264426
sI5
F0.9148165842434579
sI6
F0.9117828763335772
sI7
F0.9163071891632557
sI8
F0.905069183575366
sI9
F0.9233600439293291
sI10
F0.9115628269976844
sI11
F0.9109802079823364
sI12
F0.9121127439448994
sI13
F0.9124370304392714
sI14
F0.9102915717834144
ssg26
(dp284
I0
F0.005183332381329598
sI1
Fnan
sI2
Fnan
sI3
Fnan
sI4
Fnan
sI5
Fnan
sI6
Fnan
sI7
Fnan
sI8
Fnan
sI9
Fnan
sI10
Fnan
sI11
Fnan
sI12
Fnan
sI13
Fnan
sI14
Fnan
ssg28
(dp285
I0
F0.9139488076289743
sI1
Fnan
sI2
Fnan
sI3
Fnan
sI4
Fnan
sI5
Fnan
sI6
Fnan
sI7
Fnan
sI8
Fnan
sI9
Fnan
sI10
Fnan
sI11
Fnan
sI12
Fnan
sI13
Fnan
sI14
Fnan
ssg30
(dp286
I0
F13.395
sI1
F13.438
sI2
F13.348
sI3
F13.401
sI4
F13.354
sI5
F13.39
sI6
F13.451
sI7
F13.35
sI8
F13.474
sI9
F13.358
sI10
F13.384
sI11
F13.477
sI12
F13.395
sI13
F13.355
sI14
F13.359
ssg32
(dp287
I0
F3.328395
sI1
F3.564385
sI2
F4.556998
sI3
F3.381387
sI4
F4.618461
sI5
F4.934923
sI6
F4.646519
sI7
F4.635136
sI8
F5.476669
sI9
F5.046905
sI10
F3.569317
sI11
F4.791299
sI12
F5.928057
sI13
F4.90308
sI14
F4.398755
ssg34
(dp288
I0
F2458466.666122685
sI1
F2458466.667627315
sI2
F2458466.6246875
sI3
F2458466.666886574
sI4
F2458466.6224305555
sI5
F2458466.66462963
sI6
F2458466.644675926
sI7
F2458466.6239351854
sI8
F2458466.6431597224
sI9
F2458466.621701389
sI10
F2458466.6653819443
sI11
F2458466.643912037
sI12
F2458466.6454166668
sI13
F2458466.6231828704
sI14
F2458466.6461805557
ssg36
(dp289
I0
F2.0543202666666662
sI1
Fnan
sI2
Fnan
sI3
Fnan
sI4
Fnan
sI5
Fnan
sI6
Fnan
sI7
Fnan
sI8
Fnan
sI9
Fnan
sI10
Fnan
sI11
Fnan
sI12
Fnan
sI13
Fnan
sI14
Fnan
ssg38
(dp290
I0
F2.459085866666667
sI1
Fnan
sI2
Fnan
sI3
Fnan
sI4
Fnan
sI5
Fnan
sI6
Fnan
sI7
Fnan
sI8
Fnan
sI9
Fnan
sI10
Fnan
sI11
Fnan
sI12
Fnan
sI13
Fnan
sI14
Fnan
ssg40
(dp291
I0
F0.36935582307934633
sI1
F0.3638854436815266
sI2
F0.37050721563800476
sI3
F0.3696009754948904
sI4
F0.36985545486677446
sI5
F0.3678247029020071
sI6
F0.3640453484389677
sI7
F0.37201404270521615
sI8
F0.3674504308012334
sI9
F0.3681487047036746
sI10
F0.3713063151062181
sI11
F0.36760706123395714
sI12
F0.36660165665829225
sI13
F0.3680317069877267
sI14
F0.37590128624758407
ssg42
(dp292
I0
F0.0016079032079328055
sI1
Fnan
sI2
Fnan
sI3
Fnan
sI4
Fnan
sI5
Fnan
sI6
Fnan
sI7
Fnan
sI8
Fnan
sI9
Fnan
sI10
Fnan
sI11
Fnan
sI12
Fnan
sI13
Fnan
sI14
Fnan
ssg44
(dp293
I0
F2.0840329333333334
sI1
Fnan
sI2
Fnan
sI3
Fnan
sI4
Fnan
sI5
Fnan
sI6
Fnan
sI7
Fnan
sI8
Fnan
sI9
Fnan
sI10
Fnan
sI11
Fnan
sI12
Fnan
sI13
Fnan
sI14
Fnan
ssg46
(dp294
I0
g267
sI1
g268
sI2
g269
sI3
g270
sI4
g271
sI5
g272
sI6
g273
sI7
g274
sI8
g275
sI9
g276
sI10
g277
sI11
g278
sI12
g279
sI13
g280
sI14
g281
ssg48
(dp295
I0
F0.005075588126167989
sI1
Fnan
sI2
Fnan
sI3
Fnan
sI4
Fnan
sI5
Fnan
sI6
Fnan
sI7
Fnan
sI8
Fnan
sI9
Fnan
sI10
Fnan
sI11
Fnan
sI12
Fnan
sI13
Fnan
sI14
Fnan
ssg50
(dp296
I0
F0.042533796086451255
sI1
Fnan
sI2
Fnan
sI3
Fnan
sI4
Fnan
sI5
Fnan
sI6
Fnan
sI7
Fnan
sI8
Fnan
sI9
Fnan
sI10
Fnan
sI11
Fnan
sI12
Fnan
sI13
Fnan
sI14
Fnan
ssg52
(dp297
I0
F-0.2522385333333334
sI1
Fnan
sI2
Fnan
sI3
Fnan
sI4
Fnan
sI5
Fnan
sI6
Fnan
sI7
Fnan
sI8
Fnan
sI9
Fnan
sI10
Fnan
sI11
Fnan
sI12
Fnan
sI13
Fnan
sI14
Fnan
ssg54
(dp298
I0
F1.5022423134060234
sI1
F1.5096261786423937
sI2
F1.519369693179192
sI3
F1.4994344648410334
sI4
F1.5035426612974052
sI5
F1.5174132149371466
sI6
F1.5237465042221694
sI7
F1.5173156454252217
sI8
F1.5367273375525672
sI9
F1.5095430637229061
sI10
F1.503331761931292
sI11
F1.5129848244028217
sI12
F1.525408022572881
sI13
F1.5061958572849026
sI14
F1.52410834804991
ssg56
(dp299
I0
g267
sI1
g268
sI2
g269
sI3
g270
sI4
g271
sI5
g272
sI6
g273
sI7
g274
sI8
g275
sI9
g276
sI10
g277
sI11
g278
sI12
g279
sI13
g280
sI14
g281
ssg58
(dp300
I0
F4.419313
sI1
F3.693695
sI2
F7.120821
sI3
F3.938784
sI4
F4.663224
sI5
F4.203122
sI6
F4.418458
sI7
F5.906676
sI8
F5.446549
sI9
F4.883667
sI10
F4.127987
sI11
F5.994757
sI12
F4.539888
sI13
F5.999901
sI14
F5.386426
ssg60
(dp301
I0
F12.033799999999998
sI1
Fnan
sI2
Fnan
sI3
Fnan
sI4
Fnan
sI5
Fnan
sI6
Fnan
sI7
Fnan
sI8
Fnan
sI9
Fnan
sI10
Fnan
sI11
Fnan
sI12
Fnan
sI13
Fnan
sI14
Fnan
ssg62
(dp302
I0
F0.6863827465327382
sI1
Fnan
sI2
Fnan
sI3
Fnan
sI4
Fnan
sI5
Fnan
sI6
Fnan
sI7
Fnan
sI8
Fnan
sI9
Fnan
sI10
Fnan
sI11
Fnan
sI12
Fnan
sI13
Fnan
sI14
Fnan
ssg64
(dp303
I0
F3.356053
sI1
F2.777185
sI2
F2.207266
sI3
F4.347528
sI4
F3.641427
sI5
F-1.179208
sI6
F4.234367
sI7
F2.409862
sI8
F3.440279
sI9
F3.247378
sI10
F1.851525
sI11
F2.429182
sI12
F1.25178
sI13
F4.119852
sI14
F-1.248188
ssg66
(dp304
I0
F12.378466666666665
sI1
Fnan
sI2
Fnan
sI3
Fnan
sI4
Fnan
sI5
Fnan
sI6
Fnan
sI7
Fnan
sI8
Fnan
sI9
Fnan
sI10
Fnan
sI11
Fnan
sI12
Fnan
sI13
Fnan
sI14
Fnan
ssg68
(dp305
I0
g267
sI1
g268
sI2
g269
sI3
g270
sI4
g271
sI5
g272
sI6
g273
sI7
g274
sI8
g275
sI9
g276
sI10
g277
sI11
g278
sI12
g279
sI13
g280
sI14
g281
ssg70
(dp306
I0
F2799.398333333333
sI1
F2732.953
sI2
F2916.923333333333
sI3
F2804.987666666667
sI4
F2929.216
sI5
F2831.76
sI6
F2700.8340000000003
sI7
F2908.4413333333337
sI8
F2604.2070000000003
sI9
F2933.722
sI10
F2815.26
sI11
F2608.9243333333334
sI12
F2822.0733333333333
sI13
F2918.7043333333336
sI14
F2841.9653333333335
ssg72
(dp307
I0
F2.111792
sI1
F2.135309
sI2
F1.626732
sI3
F2.123454
sI4
F1.6072629999999999
sI5
F2.0887759999999997
sI6
F1.826469
sI7
F1.6201969999999999
sI8
F1.8095169999999998
sI9
F1.600929
sI10
F2.1002009999999998
sI11
F1.8179720000000001
sI12
F1.8350990000000003
sI13
F1.613701
sI14
F1.843784
ssg74
(dp308
I0
F2308.8676666666665
sI1
F2239.8233333333333
sI2
F2374.341
sI3
F2275.7456666666667
sI4
F2365.5323333333336
sI5
F2298.510333333333
sI6
F2194.595333333333
sI7
F2355.0163333333335
sI8
F2122.717
sI9
F2359.3720000000003
sI10
F2318.1600000000003
sI11
F2137.27
sI12
F2289.4289999999996
sI13
F2395.491666666667
sI14
F2314.5403333333334
ssg76
(dp309
I0
F3836.9266666666667
sI1
F3753.516666666667
sI2
F4019.6933333333336
sI3
F3809.1133333333332
sI4
F3980.44
sI5
F3892.3700000000003
sI6
F3729.6966666666663
sI7
F3993.163333333333
sI8
F3631.9966666666664
sI9
F3995.076666666667
sI10
F3858.616666666667
sI11
F3590.46
sI12
F3898.563333333333
sI13
F4002.11
sI14
F3929.536666666667
ssg78
(dp310
I0
F3.255381
sI1
F3.997909
sI2
F5.191555
sI3
F3.79431
sI4
F4.81829
sI5
F5.029251
sI6
F5.256832
sI7
F4.737198
sI8
F4.997552
sI9
F4.422084
sI10
F4.238852
sI11
F5.045927
sI12
F4.898666
sI13
F4.508392
sI14
F4.360286
ssg80
(dp311
I0
F12.592
sI1
F12.624
sI2
F12.561
sI3
F12.607
sI4
F12.565
sI5
F12.596
sI6
F12.647
sI7
F12.57
sI8
F12.683
sI9
F12.568
sI10
F12.587
sI11
F12.675
sI12
F12.601
sI13
F12.552
sI14
F12.589
ssg82
(dp312
I0
F0.003
sI1
F0.003
sI2
F0.003
sI3
F0.003
sI4
F0.003
sI5
F0.003
sI6
F0.003
sI7
F0.003
sI8
F0.003
sI9
F0.003
sI10
F0.003
sI11
F0.003
sI12
F0.003
sI13
F0.003
sI14
F0.003
ssg84
(dp313
I0
F0.3688090779030279
sI1
Fnan
sI2
Fnan
sI3
Fnan
sI4
Fnan
sI5
Fnan
sI6
Fnan
sI7
Fnan
sI8
Fnan
sI9
Fnan
sI10
Fnan
sI11
Fnan
sI12
Fnan
sI13
Fnan
sI14
Fnan
ssg86
(dp314
I0
F12.601133333333333
sI1
Fnan
sI2
Fnan
sI3
Fnan
sI4
Fnan
sI5
Fnan
sI6
Fnan
sI7
Fnan
sI8
Fnan
sI9
Fnan
sI10
Fnan
sI11
Fnan
sI12
Fnan
sI13
Fnan
sI14
Fnan
ssg88
(dp315
I0
F12.382
sI1
F12.408
sI2
F12.338
sI3
F12.38
sI4
F12.333
sI5
F12.37
sI6
F12.421
sI7
F12.341
sI8
F12.461
sI9
F12.331
sI10
F12.376
sI11
F12.459
sI12
F12.374
sI13
F12.337
sI14
F12.366
ssg90
(dp316
I0
F2.270578
sI1
F3.781678
sI2
F-3.023706
sI3
F2.77733
sI4
F-1.982514
sI5
F3.62659
sI6
F-3.338879
sI7
F3.30044
sI8
F3.394504
sI9
F2.691441
sI10
F3.387482
sI11
F3.350187
sI12
F3.328812
sI13
F3.101657
sI14
F4.149204
ssg92
(dp317
I0
F0.038791015159993614
sI1
Fnan
sI2
Fnan
sI3
Fnan
sI4
Fnan
sI5
Fnan
sI6
Fnan
sI7
Fnan
sI8
Fnan
sI9
Fnan
sI10
Fnan
sI11
Fnan
sI12
Fnan
sI13
Fnan
sI14
Fnan
ssg94
(dp318
I0
F0.6958271834687622
sI1
F0.6906139852448756
sI2
F0.6845818686823787
sI3
F0.6881496568215897
sI4
F0.6847033581218323
sI5
F0.6836602901292309
sI6
F0.6825549700615687
sI7
F0.6824547180187178
sI8
F0.6807721855994547
sI9
F0.6810334990250354
sI10
F0.6946966855345944
sI11
F0.6895104046084576
sI12
F0.6813131295596497
sI13
F0.6922571683881323
sI14
F0.6836120947267927
ssg96
(dp319
I0
F30.0
sI1
F30.0
sI2
F30.0
sI3
F30.0
sI4
F30.0
sI5
F30.0
sI6
F30.0
sI7
F30.0
sI8
F30.0
sI9
F30.0
sI10
F30.0
sI11
F30.0
sI12
F30.0
sI13
F30.0
sI14
F30.0
ssg98
(dp320
I0
F0.004
sI1
F0.004
sI2
F0.004
sI3
F0.005
sI4
F0.004
sI5
F0.005
sI6
F0.005
sI7
F0.004
sI8
F0.005
sI9
F0.004
sI10
F0.004
sI11
F0.005
sI12
F0.004
sI13
F0.004
sI14
F0.004
ssg100
(dp321
I0
F0.004
sI1
F0.004
sI2
F0.004
sI3
F0.004
sI4
F0.004
sI5
F0.004
sI6
F0.004
sI7
F0.004
sI8
F0.004
sI9
F0.004
sI10
F0.004
sI11
F0.004
sI12
F0.004
sI13
F0.004
sI14
F0.004
ssg102
(dp322
I0
F2.708941
sI1
F-2.653625
sI2
F-2.909868
sI3
F-2.041772
sI4
F-2.836112
sI5
F3.729599
sI6
F1.824263
sI7
F2.419522
sI8
F4.144647
sI9
F-0.700276
sI10
F-2.25991
sI11
F-1.619183
sI12
F3.731364
sI13
F-3.051723
sI14
F-4.269445
ssg104
(dp323
I0
S"KIC8462852-20181214at035913_-35-1X1-030-z'_cal.fts.mag.1"
p324
sI1
S"KIC8462852-20181214at040123_-35-1X1-030-z'_cal.fts.mag.1"
p325
sI2
S"KIC8462852-20181214at025933_-35-1X1-030-z'_cal.fts.mag.1"
p326
sI3
S"KIC8462852-20181214at040019_-35-1X1-030-z'_cal.fts.mag.1"
p327
sI4
S"KIC8462852-20181214at025618_-35-1X1-030-z'_cal.fts.mag.1"
p328
sI5
S"KIC8462852-20181214at035702_-35-1X1-030-z'_cal.fts.mag.1"
p329
sI6
S"KIC8462852-20181214at032820_-35-1X1-030-z'_cal.fts.mag.1"
p330
sI7
S"KIC8462852-20181214at025828_-35-1X1-030-z'_cal.fts.mag.1"
p331
sI8
S"KIC8462852-20181214at032608_-35-1X1-030-z'_cal.fts.mag.1"
p332
sI9
S"KIC8462852-20181214at025513_-35-1X1-030-z'_cal.fts.mag.1"
p333
sI10
S"KIC8462852-20181214at035809_-35-1X1-030-z'_cal.fts.mag.1"
p334
sI11
S"KIC8462852-20181214at032714_-35-1X1-030-z'_cal.fts.mag.1"
p335
sI12
S"KIC8462852-20181214at032924_-35-1X1-030-z'_cal.fts.mag.1"
p336
sI13
S"KIC8462852-20181214at025723_-35-1X1-030-z'_cal.fts.mag.1"
p337
sI14
S"KIC8462852-20181214at033029_-35-1X1-030-z'_cal.fts.mag.1"
p338
ssg121
(dp339
I0
F0.010588925414444565
sI1
Fnan
sI2
Fnan
sI3
Fnan
sI4
Fnan
sI5
Fnan
sI6
Fnan
sI7
Fnan
sI8
Fnan
sI9
Fnan
sI10
Fnan
sI11
Fnan
sI12
Fnan
sI13
Fnan
sI14
Fnan
ssg123
(dp340
I0
F1101.3196666666665
sI1
F1058.4569999999999
sI2
F1149.9256666666665
sI3
F1095.232
sI4
F1143.493
sI5
F1106.25
sI6
F1046.6456666666666
sI7
F1147.8643333333334
sI8
F1023.8296666666666
sI9
F1139.8093333333334
sI10
F1112.9333333333334
sI11
F1021.5376666666667
sI12
F1101.035
sI13
F1142.8986666666667
sI14
F1138.4850000000001
ssg125
(dp341
I0
F0.0402436626185092
sI1
Fnan
sI2
Fnan
sI3
Fnan
sI4
Fnan
sI5
Fnan
sI6
Fnan
sI7
Fnan
sI8
Fnan
sI9
Fnan
sI10
Fnan
sI11
Fnan
sI12
Fnan
sI13
Fnan
sI14
Fnan
ssg127
(dp342
I0
S"z'"
p343
sI1
S"z'"
p344
sI2
S"z'"
p345
sI3
S"z'"
p346
sI4
S"z'"
p347
sI5
S"z'"
p348
sI6
S"z'"
p349
sI7
S"z'"
p350
sI8
S"z'"
p351
sI9
S"z'"
p352
sI10
S"z'"
p353
sI11
S"z'"
p354
sI12
S"z'"
p355
sI13
S"z'"
p356
sI14
S"z'"
p357
ssg144
(dp358
I0
F0.00303338778320838
sI1
Fnan
sI2
Fnan
sI3
Fnan
sI4
Fnan
sI5
Fnan
sI6
Fnan
sI7
Fnan
sI8
Fnan
sI9
Fnan
sI10
Fnan
sI11
Fnan
sI12
Fnan
sI13
Fnan
sI14
Fnan
ssg146
(dp359
I0
F4.491295
sI1
F2.199636
sI2
F3.96632
sI3
F2.105146
sI4
F-1.455272
sI5
F2.937782
sI6
F3.602883
sI7
F3.303379
sI8
F1.881903
sI9
F-2.540206
sI10
F-2.412235
sI11
F2.867977
sI12
F2.811226
sI13
F3.01567
sI14
F4.48499
ssg148
(dp360
I0
F1.5140659927645244
sI1
Fnan
sI2
Fnan
sI3
Fnan
sI4
Fnan
sI5
Fnan
sI6
Fnan
sI7
Fnan
sI8
Fnan
sI9
Fnan
sI10
Fnan
sI11
Fnan
sI12
Fnan
sI13
Fnan
sI14
Fnan
ssg150
(dp361
I0
F2458466.644675926
sI1
Fnan
sI2
Fnan
sI3
Fnan
sI4
Fnan
sI5
Fnan
sI6
Fnan
sI7
Fnan
sI8
Fnan
sI9
Fnan
sI10
Fnan
sI11
Fnan
sI12
Fnan
sI13
Fnan
sI14
Fnan
ssg152
(dp362
I0
F0.00303338778320838
sI1
Fnan
sI2
Fnan
sI3
Fnan
sI4
Fnan
sI5
Fnan
sI6
Fnan
sI7
Fnan
sI8
Fnan
sI9
Fnan
sI10
Fnan
sI11
Fnan
sI12
Fnan
sI13
Fnan
sI14
Fnan
ssg154
(dp363
I0
F4.425116
sI1
F3.694231
sI2
F6.287972
sI3
F3.918407
sI4
F5.723897
sI5
F4.808757
sI6
F5.558883
sI7
F5.227835
sI8
F4.971115
sI9
F5.003733
sI10
F4.90519
sI11
F5.243728
sI12
F4.365589
sI13
F5.695484
sI14
F4.174726
ssg156
(dp364
I0
F12.04
sI1
F12.064
sI2
F11.99
sI3
F12.048
sI4
F12.0
sI5
F12.024
sI6
F12.071
sI7
F11.997
sI8
F12.1
sI9
F11.996
sI10
F12.034
sI11
F12.112
sI12
F12.023
sI13
F11.994
sI14
F12.014
ssg158
(dp365
I0
F0.3688090779030279
sI1
Fnan
sI2
Fnan
sI3
Fnan
sI4
Fnan
sI5
Fnan
sI6
Fnan
sI7
Fnan
sI8
Fnan
sI9
Fnan
sI10
Fnan
sI11
Fnan
sI12
Fnan
sI13
Fnan
sI14
Fnan
sssS'g'
p366
(dp367
g3
(dp368
I0
F0.8660042102183317
sI1
Fnan
sI2
Fnan
sI3
Fnan
sI4
Fnan
sI5
Fnan
sI6
Fnan
sI7
Fnan
sI8
Fnan
sI9
Fnan
sI10
Fnan
sI11
Fnan
sI12
Fnan
sI13
Fnan
sI14
Fnan
ssg5
(dp369
I0
S'NoError'
p370
sI1
S'NoError'
p371
sI2
S'NoError'
p372
sI3
S'NoError'
p373
sI4
S'NoError'
p374
sI5
S'NoError'
p375
sI6
S'NoError'
p376
sI7
S'NoError'
p377
sI8
S'NoError'
p378
sI9
S'NoError'
p379
sI10
S'NoError'
p380
sI11
S'NoError'
p381
sI12
S'NoError'
p382
sI13
S'NoError'
p383
sI14
S'NoError'
p384
ssg22
(dp385
I0
F0.002
sI1
F0.002
sI2
F0.003
sI3
F0.002
sI4
F0.002
sI5
F0.003
sI6
F0.003
sI7
F0.002
sI8
F0.002
sI9
F0.002
sI10
F0.002
sI11
F0.003
sI12
F0.003
sI13
F0.002
sI14
F0.002
ssg24
(dp386
I0
F0.8767546901322081
sI1
F0.8765024269463186
sI2
F0.8714504938600339
sI3
F0.8763793746141818
sI4
F0.8741999462743515
sI5
F0.8765843754829589
sI6
F0.8803755355556653
sI7
F0.8793184061740802
sI8
F0.8798165385864269
sI9
F0.88040238829046
sI10
F0.8782262543930255
sI11
F0.8706196282221003
sI12
F0.8776122252461349
sI13
F0.8760381665268036
sI14
F0.8763193961322204
ssg26
(dp387
I0
F0.002908934881413574
sI1
Fnan
sI2
Fnan
sI3
Fnan
sI4
Fnan
sI5
Fnan
sI6
Fnan
sI7
Fnan
sI8
Fnan
sI9
Fnan
sI10
Fnan
sI11
Fnan
sI12
Fnan
sI13
Fnan
sI14
Fnan
ssg28
(dp388
I0
F0.8767066564291315
sI1
Fnan
sI2
Fnan
sI3
Fnan
sI4
Fnan
sI5
Fnan
sI6
Fnan
sI7
Fnan
sI8
Fnan
sI9
Fnan
sI10
Fnan
sI11
Fnan
sI12
Fnan
sI13
Fnan
sI14
Fnan
ssg30
(dp389
I0
F11.559
sI1
F11.556
sI2
F11.611
sI3
F11.545
sI4
F11.553
sI5
F11.602
sI6
F11.612
sI7
F11.511
sI8
F11.526
sI9
F11.552
sI10
F11.562
sI11
F11.608
sI12
F11.622
sI13
F11.544
sI14
F11.538
ssg32
(dp390
I0
F10.38714
sI1
F10.10056
sI2
F7.278277
sI3
F10.99242
sI4
F9.477975
sI5
F8.286099
sI6
F8.364551
sI7
F9.253241
sI8
F9.459817
sI9
F9.423999
sI10
F9.565677
sI11
F7.988109
sI12
F8.451454
sI13
F10.59912
sI14
F9.647359
ssg34
(dp391
I0
F2458466.6317824074
sI1
F2458466.6340162037
sI2
F2458466.655462963
sI3
F2458466.611076389
sI4
F2458466.6347685186
sI5
F2458466.6532175927
sI6
F2458466.654699074
sI7
F2458466.611828704
sI8
F2458466.6133564813
sI9
F2458466.633263889
sI10
F2458466.6325347223
sI11
F2458466.6562962965
sI12
F2458466.653958333
sI13
F2458466.6102430555
sI14
F2458466.6125925924
ssg36
(dp392
I0
F1.0004486
sI1
Fnan
sI2
Fnan
sI3
Fnan
sI4
Fnan
sI5
Fnan
sI6
Fnan
sI7
Fnan
sI8
Fnan
sI9
Fnan
sI10
Fnan
sI11
Fnan
sI12
Fnan
sI13
Fnan
sI14
Fnan
ssg38
(dp393
I0
F1.0401139333333334
sI1
Fnan
sI2
Fnan
sI3
Fnan
sI4
Fnan
sI5
Fnan
sI6
Fnan
sI7
Fnan
sI8
Fnan
sI9
Fnan
sI10
Fnan
sI11
Fnan
sI12
Fnan
sI13
Fnan
sI14
Fnan
ssg40
(dp394
I0
F0.8626243126355723
sI1
F0.866001229876661
sI2
F0.8595494510967415
sI3
F0.8657513121915381
sI4
F0.8648147295344782
sI5
F0.86347042356329
sI6
F0.8609683325239682
sI7
F0.8683400715637305
sI8
F0.8679544098509301
sI9
F0.8689031525291726
sI10
F0.8673643357957268
sI11
F0.8657398279725516
sI12
F0.8679349943042556
sI13
F0.8646745286468118
sI14
F0.864481404373594
ssg42
(dp395
I0
F0.001895759719750987
sI1
Fnan
sI2
Fnan
sI3
Fnan
sI4
Fnan
sI5
Fnan
sI6
Fnan
sI7
Fnan
sI8
Fnan
sI9
Fnan
sI10
Fnan
sI11
Fnan
sI12
Fnan
sI13
Fnan
sI14
Fnan
ssg44
(dp396
I0
F1.340575866666667
sI1
Fnan
sI2
Fnan
sI3
Fnan
sI4
Fnan
sI5
Fnan
sI6
Fnan
sI7
Fnan
sI8
Fnan
sI9
Fnan
sI10
Fnan
sI11
Fnan
sI12
Fnan
sI13
Fnan
sI14
Fnan
ssg46
(dp397
I0
g370
sI1
g371
sI2
g372
sI3
g373
sI4
g374
sI5
g375
sI6
g376
sI7
g377
sI8
g378
sI9
g379
sI10
g380
sI11
g381
sI12
g382
sI13
g383
sI14
g384
ssg48
(dp398
I0
F0.0037913264554795736
sI1
Fnan
sI2
Fnan
sI3
Fnan
sI4
Fnan
sI5
Fnan
sI6
Fnan
sI7
Fnan
sI8
Fnan
sI9
Fnan
sI10
Fnan
sI11
Fnan
sI12
Fnan
sI13
Fnan
sI14
Fnan
ssg50
(dp399
I0
F0.03457800016250356
sI1
Fnan
sI2
Fnan
sI3
Fnan
sI4
Fnan
sI5
Fnan
sI6
Fnan
sI7
Fnan
sI8
Fnan
sI9
Fnan
sI10
Fnan
sI11
Fnan
sI12
Fnan
sI13
Fnan
sI14
Fnan
ssg52
(dp400
I0
F1.0048650000000001
sI1
Fnan
sI2
Fnan
sI3
Fnan
sI4
Fnan
sI5
Fnan
sI6
Fnan
sI7
Fnan
sI8
Fnan
sI9
Fnan
sI10
Fnan
sI11
Fnan
sI12
Fnan
sI13
Fnan
sI14
Fnan
ssg54
(dp401
I0
F1.5212296858943462
sI1
F1.514257525604316
sI2
F1.5319619727431646
sI3
F1.5209950097876652
sI4
F1.524203425934144
sI5
F1.5350267618975324
sI6
F1.522825915041759
sI7
F1.5128565016312492
sI8
F1.5087625790016805
sI9
F1.5185432849847567
sI10
F1.5143066906238527
sI11
F1.5240639521913104
sI12
F1.51036818125477
sI13
F1.527202547233308
sI14
F1.5171156103294519
ssg56
(dp402
I0
g370
sI1
g371
sI2
g372
sI3
g373
sI4
g374
sI5
g375
sI6
g376
sI7
g377
sI8
g378
sI9
g379
sI10
g380
sI11
g381
sI12
g382
sI13
g383
sI14
g384
ssg58
(dp403
I0
F11.29466
sI1
F10.22913
sI2
F8.323535
sI3
F10.30444
sI4
F9.457194
sI5
F7.800072
sI6
F8.171488
sI7
F9.810098
sI8
F9.238405
sI9
F10.2407
sI10
F9.94292
sI11
F8.038751
sI12
F7.542338
sI13
F10.17869
sI14
F10.39639
ssg60
(dp404
I0
F11.1286
sI1
Fnan
sI2
Fnan
sI3
Fnan
sI4
Fnan
sI5
Fnan
sI6
Fnan
sI7
Fnan
sI8
Fnan
sI9
Fnan
sI10
Fnan
sI11
Fnan
sI12
Fnan
sI13
Fnan
sI14
Fnan
ssg62
(dp405
I0
F0.7151252855104507
sI1
Fnan
sI2
Fnan
sI3
Fnan
sI4
Fnan
sI5
Fnan
sI6
Fnan
sI7
Fnan
sI8
Fnan
sI9
Fnan
sI10
Fnan
sI11
Fnan
sI12
Fnan
sI13
Fnan
sI14
Fnan
ssg64
(dp406
I0
F2.633516
sI1
F3.396689
sI2
F-1.178081
sI3
F3.139778
sI4
F3.929434
sI5
F-2.314662
sI6
F-2.489772
sI7
F-2.396556
sI8
F-2.469383
sI9
F-2.626609
sI10
F3.500951
sI11
F4.612211
sI12
F3.674691
sI13
F2.16294
sI14
F2.026562
ssg66
(dp407
I0
F11.507066666666669
sI1
Fnan
sI2
Fnan
sI3
Fnan
sI4
Fnan
sI5
Fnan
sI6
Fnan
sI7
Fnan
sI8
Fnan
sI9
Fnan
sI10
Fnan
sI11
Fnan
sI12
Fnan
sI13
Fnan
sI14
Fnan
ssg68
(dp408
I0
g370
sI1
g371
sI2
g372
sI3
g373
sI4
g374
sI5
g375
sI6
g376
sI7
g377
sI8
g378
sI9
g379
sI10
g380
sI11
g381
sI12
g382
sI13
g383
sI14
g384
ssg70
(dp409
I0
F6333.86
sI1
F6327.7266666666665
sI2
F6032.77
sI3
F6390.913333333333
sI4
F6340.483333333334
sI5
F6078.456666666667
sI6
F6058.973333333333
sI7
F6588.583333333333
sI8
F6502.9
sI9
F6347.366666666667
sI10
F6290.203333333334
sI11
F6004.463333333333
sI12
F5945.293333333333
sI13
F6400.993333333333
sI14
F6440.906666666667
ssg72
(dp410
I0
F1.6917209999999998
sI1
F1.7134909999999999
sI2
F1.9591310000000002
sI3
F1.517287
sI4
F1.7210299999999998
sI5
F1.9297389999999999
sI6
F1.949097
sI7
F1.522934
sI8
F1.534342
sI9
F1.7060970000000002
sI10
F1.6987880000000002
sI11
F1.9701110000000002
sI12
F1.939318
sI13
F1.511144
sI14
F1.528548
ssg74
(dp411
I0
F5470.13
sI1
F5490.593333333333
sI2
F5223.366666666667
sI3
F5523.743333333333
sI4
F5489.866666666667
sI5
F5206.866666666667
sI6
F5195.34
sI7
F5694.4366666666665
sI8
F5629.753333333333
sI9
F5456.7266666666665
sI10
F5441.836666666667
sI11
F5231.429999999999
sI12
F5161.283333333334
sI13
F5514.679999999999
sI14
F5580.77
ssg76
(dp412
I0
F8978.29
sI1
F8947.99
sI2
F8621.986666666668
sI3
F9061.066666666668
sI4
F9015.93
sI5
F8661.636666666667
sI6
F8569.18
sI7
F9291.223333333333
sI8
F9152.646666666667
sI9
F8962.513333333334
sI10
F8882.953333333333
sI11
F8562.109999999999
sI12
F8387.51
sI13
F9098.823333333334
sI14
F9119.136666666665
ssg78
(dp413
I0
F9.540726
sI1
F8.372846
sI2
F7.892898
sI3
F9.828457
sI4
F7.726892
sI5
F7.923015
sI6
F8.043221
sI7
F9.616375
sI8
F8.802267
sI9
F9.094421
sI10
F8.196465
sI11
F7.67743
sI12
F7.870479
sI13
F9.074123
sI14
F9.222208
ssg80
(dp414
I0
F11.655
sI1
F11.651
sI2
F11.705
sI3
F11.644
sI4
F11.651
sI5
F11.709
sI6
F11.711
sI7
F11.611
sI8
F11.624
sI9
F11.658
sI10
F11.661
sI11
F11.703
sI12
F11.718
sI13
F11.646
sI14
F11.633
ssg82
(dp415
I0
F0.002
sI1
F0.002
sI2
F0.002
sI3
F0.002
sI4
F0.002
sI5
F0.002
sI6
F0.002
sI7
F0.002
sI8
F0.002
sI9
F0.002
sI10
F0.002
sI11
F0.002
sI12
F0.002
sI13
F0.002
sI14
F0.002
ssg84
(dp416
I0
F0.8652381677639348
sI1
Fnan
sI2
Fnan
sI3
Fnan
sI4
Fnan
sI5
Fnan
sI6
Fnan
sI7
Fnan
sI8
Fnan
sI9
Fnan
sI10
Fnan
sI11
Fnan
sI12
Fnan
sI13
Fnan
sI14
Fnan
ssg86
(dp417
I0
F11.665333333333333
sI1
Fnan
sI2
Fnan
sI3
Fnan
sI4
Fnan
sI5
Fnan
sI6
Fnan
sI7
Fnan
sI8
Fnan
sI9
Fnan
sI10
Fnan
sI11
Fnan
sI12
Fnan
sI13
Fnan
sI14
Fnan
ssg88
(dp418
I0
F11.496
sI1
F11.497
sI2
F11.549
sI3
F11.486
sI4
F11.495
sI5
F11.541
sI6
F11.544
sI7
F11.453
sI8
F11.467
sI9
F11.494
sI10
F11.503
sI11
F11.554
sI12
F11.565
sI13
F11.484
sI14
F11.478
ssg90
(dp419
I0
F-2.966158
sI1
F1.902298
sI2
F4.937546
sI3
F2.974088
sI4
F-2.990934
sI5
F-1.984678
sI6
F4.009208
sI7
F-2.683446
sI8
F2.74867
sI9
F3.857018
sI10
F1.013421
sI11
F-1.993506
sI12
F1.96373
sI13
F2.836844
sI14
F1.382628
ssg92
(dp420
I0
F0.03251768749465446
sI1
Fnan
sI2
Fnan
sI3
Fnan
sI4
Fnan
sI5
Fnan
sI6
Fnan
sI7
Fnan
sI8
Fnan
sI9
Fnan
sI10
Fnan
sI11
Fnan
sI12
Fnan
sI13
Fnan
sI14
Fnan
ssg94
(dp421
I0
F0.7144822902074496
sI1
F0.7188655633178148
sI2
F0.7128561443190117
sI3
F0.7149560552541918
sI4
F0.7149933448001313
sI5
F0.706490325253481
sI6
F0.7103206921083226
sI7
F0.7171921908369161
sI8
F0.7192023955726873
sI9
F0.7128372876425767
sI10
F0.7172978947250486
sI11
F0.7182787441200996
sI12
F0.7202057006293954
sI13
F0.7115800294412085
sI14
F0.7173206244284239
ssg96
(dp422
I0
F30.0
sI1
F30.0
sI2
F30.0
sI3
F30.0
sI4
F30.0
sI5
F30.0
sI6
F30.0
sI7
F30.0
sI8
F30.0
sI9
F30.0
sI10
F30.0
sI11
F30.0
sI12
F30.0
sI13
F30.0
sI14
F30.0
ssg98
(dp423
I0
F0.003
sI1
F0.003
sI2
F0.003
sI3
F0.003
sI4
F0.003
sI5
F0.003
sI6
F0.003
sI7
F0.003
sI8
F0.003
sI9
F0.003
sI10
F0.003
sI11
F0.003
sI12
F0.003
sI13
F0.003
sI14
F0.003
ssg100
(dp424
I0
F0.002
sI1
F0.002
sI2
F0.002
sI3
F0.002
sI4
F0.002
sI5
F0.002
sI6
F0.002
sI7
F0.002
sI8
F0.002
sI9
F0.002
sI10
F0.002
sI11
F0.002
sI12
F0.002
sI13
F0.002
sI14
F0.002
ssg102
(dp425
I0
F-2.298491
sI1
F1.942169
sI2
F-3.347448
sI3
F-3.417891
sI4
F3.211703
sI5
F3.466545
sI6
F-2.477983
sI7
F3.128743
sI8
F1.800617
sI9
F2.96577
sI10
F4.673337
sI11
F2.162443
sI12
F3.262978
sI13
F1.833973
sI14
F-1.83349
ssg104
(dp426
I0
S"KIC8462852-20181214at030935_-35-1X1-030-g'_cal.fts.mag.1"
p427
sI1
S"KIC8462852-20181214at031259_-35-1X1-030-g'_cal.fts.mag.1"
p428
sI2
S"KIC8462852-20181214at034352_-35-1X1-030-g'_cal.fts.mag.1"
p429
sI3
S"KIC8462852-20181214at023957_-35-1X1-030-g'_cal.fts.mag.1"
p430
sI4
S"KIC8462852-20181214at031404_-35-1X1-030-g'_cal.fts.mag.1"
p431
sI5
S"KIC8462852-20181214at034027_-35-1X1-030-g'_cal.fts.mag.1"
p432
sI6
S"KIC8462852-20181214at034246_-35-1X1-030-g'_cal.fts.mag.1"
p433
sI7
S"KIC8462852-20181214at024102_-35-1X1-030-g'_cal.fts.mag.1"
p434
sI8
S"KIC8462852-20181214at024313_-35-1X1-030-g'_cal.fts.mag.1"
p435
sI9
S"KIC8462852-20181214at031154_-35-1X1-030-g'_cal.fts.mag.1"
p436
sI10
S"KIC8462852-20181214at031051_-35-1X1-030-g'_cal.fts.mag.1"
p437
sI11
S"KIC8462852-20181214at034504_-35-1X1-030-g'_cal.fts.mag.1"
p438
sI12
S"KIC8462852-20181214at034142_-35-1X1-030-g'_cal.fts.mag.1"
p439
sI13
S"KIC8462852-20181214at023833_-35-1X1-030-g'_cal.fts.mag.1"
p440
sI14
S"KIC8462852-20181214at024208_-35-1X1-030-g'_cal.fts.mag.1"
p441
ssg121
(dp442
I0
F0.007608415317890358
sI1
Fnan
sI2
Fnan
sI3
Fnan
sI4
Fnan
sI5
Fnan
sI6
Fnan
sI7
Fnan
sI8
Fnan
sI9
Fnan
sI10
Fnan
sI11
Fnan
sI12
Fnan
sI13
Fnan
sI14
Fnan
ssg123
(dp443
I0
F5975.766666666666
sI1
F5994.55
sI2
F5695.41
sI3
F6053.253333333333
sI4
F6009.39
sI5
F5741.203333333334
sI6
F5689.133333333333
sI7
F6244.593333333333
sI8
F6158.223333333333
sI9
F6014.723333333333
sI10
F5960.236666666667
sI11
F5713.306666666667
sI12
F5639.866666666667
sI13
F6056.9
sI14
F6091.946666666667
ssg125
(dp444
I0
F0.03472682509174101
sI1
Fnan
sI2
Fnan
sI3
Fnan
sI4
Fnan
sI5
Fnan
sI6
Fnan
sI7
Fnan
sI8
Fnan
sI9
Fnan
sI10
Fnan
sI11
Fnan
sI12
Fnan
sI13
Fnan
sI14
Fnan
ssg127
(dp445
I0
S"g'"
p446
sI1
S"g'"
p447
sI2
S"g'"
p448
sI3
S"g'"
p449
sI4
S"g'"
p450
sI5
S"g'"
p451
sI6
S"g'"
p452
sI7
S"g'"
p453
sI8
S"g'"
p454
sI9
S"g'"
p455
sI10
S"g'"
p456
sI11
S"g'"
p457
sI12
S"g'"
p458
sI13
S"g'"
p459
sI14
S"g'"
p460
ssg144
(dp461
I0
F0.002737861883929785
sI1
Fnan
sI2
Fnan
sI3
Fnan
sI4
Fnan
sI5
Fnan
sI6
Fnan
sI7
Fnan
sI8
Fnan
sI9
Fnan
sI10
Fnan
sI11
Fnan
sI12
Fnan
sI13
Fnan
sI14
Fnan
ssg146
(dp462
I0
F3.505152
sI1
F3.806605
sI2
F1.831959
sI3
F-2.367209
sI4
F3.075082
sI5
F3.701003
sI6
F-2.695625
sI7
F2.999899
sI8
F2.978624
sI9
F-1.567253
sI10
F3.435738
sI11
F4.01246
sI12
F3.838001
sI13
F-2.97872
sI14
F-3.467078
ssg148
(dp463
I0
F1.520247976276887
sI1
Fnan
sI2
Fnan
sI3
Fnan
sI4
Fnan
sI5
Fnan
sI6
Fnan
sI7
Fnan
sI8
Fnan
sI9
Fnan
sI10
Fnan
sI11
Fnan
sI12
Fnan
sI13
Fnan
sI14
Fnan
ssg150
(dp464
I0
F2458466.633263889
sI1
Fnan
sI2
Fnan
sI3
Fnan
sI4
Fnan
sI5
Fnan
sI6
Fnan
sI7
Fnan
sI8
Fnan
sI9
Fnan
sI10
Fnan
sI11
Fnan
sI12
Fnan
sI13
Fnan
sI14
Fnan
ssg152
(dp465
I0
F0.002737861883929785
sI1
Fnan
sI2
Fnan
sI3
Fnan
sI4
Fnan
sI5
Fnan
sI6
Fnan
sI7
Fnan
sI8
Fnan
sI9
Fnan
sI10
Fnan
sI11
Fnan
sI12
Fnan
sI13
Fnan
sI14
Fnan
ssg154
(dp466
I0
F10.30463
sI1
F9.387075
sI2
F7.657235
sI3
F9.769935
sI4
F9.348379
sI5
F8.875576
sI6
F8.065928
sI7
F10.57508
sI8
F10.08623
sI9
F9.24028
sI10
F9.422107
sI11
F8.536346
sI12
F8.797406
sI13
F11.05693
sI14
F11.02359
ssg156
(dp467
I0
F11.117
sI1
F11.121
sI2
F11.161
sI3
F11.107
sI4
F11.112
sI5
F11.156
sI6
F11.168
sI7
F11.08
sI8
F11.096
sI9
F11.119
sI10
F11.129
sI11
F11.169
sI12
F11.191
sI13
F11.103
sI14
F11.1
ssg158
(dp468
I0
F0.8652381677639348
sI1
Fnan
sI2
Fnan
sI3
Fnan
sI4
Fnan
sI5
Fnan
sI6
Fnan
sI7
Fnan
sI8
Fnan
sI9
Fnan
sI10
Fnan
sI11
Fnan
sI12
Fnan
sI13
Fnan
sI14
Fnan
sssS'V'
p469
(dp470
g3
(dp471
I0
F0.6936007452168357
sI1
Fnan
sI2
Fnan
sI3
Fnan
sI4
Fnan
sI5
Fnan
sI6
Fnan
sI7
Fnan
sI8
Fnan
sI9
Fnan
sI10
Fnan
sI11
Fnan
sI12
Fnan
sI13
Fnan
sI14
Fnan
ssg5
(dp472
I0
S'NoError'
p473
sI1
S'NoError'
p474
sI2
S'NoError'
p475
sI3
S'NoError'
p476
sI4
S'NoError'
p477
sI5
S'NoError'
p478
sI6
S'NoError'
p479
sI7
S'NoError'
p480
sI8
S'NoError'
p481
sI9
S'NoError'
p482
sI10
S'NoError'
p483
sI11
S'NoError'
p484
sI12
S'NoError'
p485
sI13
S'NoError'
p486
sI14
S'NoError'
p487
ssg22
(dp488
I0
F0.003
sI1
F0.002
sI2
F0.002
sI3
F0.002
sI4
F0.003
sI5
F0.003
sI6
F0.002
sI7
F0.003
sI8
F0.002
sI9
F0.003
sI10
F0.003
sI11
F0.003
sI12
F0.003
sI13
F0.002
sI14
F0.002
ssg24
(dp489
I0
F0.8814000439098568
sI1
F0.8894708449418656
sI2
F0.8804509356698333
sI3
F0.889778131308584
sI4
F0.8824671928437897
sI5
F0.881466722769594
sI6
F0.8834290897234626
sI7
F0.8882743096065063
sI8
F0.8826301139713212
sI9
F0.8773828667982285
sI10
F0.8820048602256549
sI11
F0.8843444262057336
sI12
F0.8840692425986165
sI13
F0.8840949752394587
sI14
F0.8873610445489284
ssg26
(dp490
I0
F0.003494708614907401
sI1
Fnan
sI2
Fnan
sI3
Fnan
sI4
Fnan
sI5
Fnan
sI6
Fnan
sI7
Fnan
sI8
Fnan
sI9
Fnan
sI10
Fnan
sI11
Fnan
sI12
Fnan
sI13
Fnan
sI14
Fnan
ssg28
(dp491
I0
F0.8839083200240956
sI1
Fnan
sI2
Fnan
sI3
Fnan
sI4
Fnan
sI5
Fnan
sI6
Fnan
sI7
Fnan
sI8
Fnan
sI9
Fnan
sI10
Fnan
sI11
Fnan
sI12
Fnan
sI13
Fnan
sI14
Fnan
ssg30
(dp492
I0
F11.653
sI1
F11.521
sI2
F11.509
sI3
F11.561
sI4
F11.632
sI5
F11.641
sI6
F11.576
sI7
F11.643
sI8
F11.521
sI9
F11.634
sI10
F11.588
sI11
F11.599
sI12
F11.588
sI13
F11.538
sI14
F11.513
ssg32
(dp493
I0
F6.913898
sI1
F10.0805
sI2
F9.582293
sI3
F8.477116
sI4
F6.139963
sI5
F7.413623
sI6
F7.089891
sI7
F7.481155
sI8
F10.27872
sI9
F7.975862
sI10
F8.086028
sI11
F7.94031
sI12
F7.192866
sI13
F9.77424
sI14
F9.85158
ssg34
(dp494
I0
F2458466.671527778
sI1
F2458466.627824074
sI2
F2458466.6255324073
sI3
F2458466.6470138887
sI4
F2458466.668472222
sI5
F2458466.670763889
sI6
F2458466.6477777776
sI7
F2458466.669236111
sI8
F2458466.6262847222
sI9
F2458466.67
sI10
F2458466.6493055555
sI11
F2458466.6500694444
sI12
F2458466.6485532406
sI13
F2458466.628587963
sI14
F2458466.627060185
ssg36
(dp495
I0
F2.306649806666667
sI1
Fnan
sI2
Fnan
sI3
Fnan
sI4
Fnan
sI5
Fnan
sI6
Fnan
sI7
Fnan
sI8
Fnan
sI9
Fnan
sI10
Fnan
sI11
Fnan
sI12
Fnan
sI13
Fnan
sI14
Fnan
ssg38
(dp496
I0
F1.5080640333333333
sI1
Fnan
sI2
Fnan
sI3
Fnan
sI4
Fnan
sI5
Fnan
sI6
Fnan
sI7
Fnan
sI8
Fnan
sI9
Fnan
sI10
Fnan
sI11
Fnan
sI12
Fnan
sI13
Fnan
sI14
Fnan
ssg40
(dp497
I0
F0.6933183566828031
sI1
F0.6923123694646386
sI2
F0.6946855573186139
sI3
F0.6913964596854733
sI4
F0.6941586974769559
sI5
F0.6913392471382658
sI6
F0.6968170865754819
sI7
F0.698261221971908
sI8
F0.6867221566616655
sI9
F0.6943441829639787
sI10
F0.6919411865476798
sI11
F0.692341992779766
sI12
F0.6968773958599539
sI13
F0.6920816270910997
sI14
F0.6951955282341556
ssg42
(dp498
I0
F0.001840248058731025
sI1
Fnan
sI2
Fnan
sI3
Fnan
sI4
Fnan
sI5
Fnan
sI6
Fnan
sI7
Fnan
sI8
Fnan
sI9
Fnan
sI10
Fnan
sI11
Fnan
sI12
Fnan
sI13
Fnan
sI14
Fnan
ssg44
(dp499
I0
F1.21329772
sI1
Fnan
sI2
Fnan
sI3
Fnan
sI4
Fnan
sI5
Fnan
sI6
Fnan
sI7
Fnan
sI8
Fnan
sI9
Fnan
sI10
Fnan
sI11
Fnan
sI12
Fnan
sI13
Fnan
sI14
Fnan
ssg46
(dp500
I0
g473
sI1
g474
sI2
g475
sI3
g476
sI4
g477
sI5
g478
sI6
g479
sI7
g480
sI8
g481
sI9
g482
sI10
g483
sI11
g484
sI12
g485
sI13
g486
sI14
g487
ssg48
(dp501
I0
F0.0030293511246895217
sI1
Fnan
sI2
Fnan
sI3
Fnan
sI4
Fnan
sI5
Fnan
sI6
Fnan
sI7
Fnan
sI8
Fnan
sI9
Fnan
sI10
Fnan
sI11
Fnan
sI12
Fnan
sI13
Fnan
sI14
Fnan
ssg50
(dp502
I0
F0.05425890315357064
sI1
Fnan
sI2
Fnan
sI3
Fnan
sI4
Fnan
sI5
Fnan
sI6
Fnan
sI7
Fnan
sI8
Fnan
sI9
Fnan
sI10
Fnan
sI11
Fnan
sI12
Fnan
sI13
Fnan
sI14
Fnan
ssg52
(dp503
I0
F0.87978916
sI1
Fnan
sI2
Fnan
sI3
Fnan
sI4
Fnan
sI5
Fnan
sI6
Fnan
sI7
Fnan
sI8
Fnan
sI9
Fnan
sI10
Fnan
sI11
Fnan
sI12
Fnan
sI13
Fnan
sI14
Fnan
ssg54
(dp504
I0
F1.517817826827478
sI1
F1.5014597105308356
sI2
F1.5067158548957338
sI3
F1.505603793392615
sI4
F1.5149371643246976
sI5
F1.5175257832488418
sI6
F1.5106901844103573
sI7
F1.5107856038238459
sI8
F1.5097867932806006
sI9
F1.5137762095201672
sI10
F1.5075856118296735
sI11
F1.5011360504252562
sI12
F1.5051968213718767
sI13
F1.5031602480815187
sI14
F1.501318929237711
ssg56
(dp505
I0
g473
sI1
g474
sI2
g475
sI3
g476
sI4
g477
sI5
g478
sI6
g479
sI7
g480
sI8
g481
sI9
g482
sI10
g483
sI11
g484
sI12
g485
sI13
g486
sI14
g487
ssg58
(dp506
I0
F6.812986
sI1
F9.728196
sI2
F10.44158
sI3
F7.216558
sI4
F7.258412
sI5
F6.914426
sI6
F7.083482
sI7
F7.17961
sI8
F10.84293
sI9
F6.924513
sI10
F7.085832
sI11
F7.568121
sI12
F7.801716
sI13
F11.33706
sI14
F10.76146
ssg60
(dp507
I0
F10.907333333333332
sI1
Fnan
sI2
Fnan
sI3
Fnan
sI4
Fnan
sI5
Fnan
sI6
Fnan
sI7
Fnan
sI8
Fnan
sI9
Fnan
sI10
Fnan
sI11
Fnan
sI12
Fnan
sI13
Fnan
sI14
Fnan
ssg62
(dp508
I0
F0.7157336425085316
sI1
Fnan
sI2
Fnan
sI3
Fnan
sI4
Fnan
sI5
Fnan
sI6
Fnan
sI7
Fnan
sI8
Fnan
sI9
Fnan
sI10
Fnan
sI11
Fnan
sI12
Fnan
sI13
Fnan
sI14
Fnan
ssg64
(dp509
I0
F1.159592
sI1
F4.36513
sI2
F3.675725
sI3
F-2.528996
sI4
F3.011487
sI5
F3.903243
sI6
F1.852045
sI7
F-2.900524
sI8
F-1.826862
sI9
F2.546013
sI10
F4.712801
sI11
F4.645713
sI12
F-3.347285
sI13
F3.824546
sI14
F-0.4716675
ssg66
(dp510
I0
F11.2748
sI1
Fnan
sI2
Fnan
sI3
Fnan
sI4
Fnan
sI5
Fnan
sI6
Fnan
sI7
Fnan
sI8
Fnan
sI9
Fnan
sI10
Fnan
sI11
Fnan
sI12
Fnan
sI13
Fnan
sI14
Fnan
ssg68
(dp511
I0
g473
sI1
g474
sI2
g475
sI3
g476
sI4
g477
sI5
g478
sI6
g479
sI7
g480
sI8
g481
sI9
g482
sI10
g483
sI11
g484
sI12
g485
sI13
g486
sI14
g487
ssg70
(dp512
I0
F7253.0233333333335
sI1
F8252.313333333334
sI2
F8256.983333333334
sI3
F7971.836666666667
sI4
F7392.973333333333
sI5
F7356.52
sI6
F7762.740000000001
sI7
F7305.376666666666
sI8
F8279.45
sI9
F7349.213333333333
sI10
F7717.486666666667
sI11
F7652.9
sI12
F7676.626666666666
sI13
F8098.373333333334
sI14
F8267.263333333332
ssg72
(dp513
I0
F2.198676
sI1
F1.654668
sI2
F1.634061
sI3
F1.853546
sI4
F2.1485990000000004
sI5
F2.1859349999999997
sI6
F1.862627
sI7
F2.1608709999999998
sI8
F1.6408669999999999
sI9
F2.17334
sI10
F1.88105
sI11
F1.8903150000000002
sI12
F1.871836
sI13
F1.661647
sI14
F1.6477259999999998
ssg74
(dp514
I0
F6227.483333333334
sI1
F7060.083333333333
sI2
F7149.593333333333
sI3
F6799.11
sI4
F6347.363333333333
sI5
F6316.763333333333
sI6
F6671.373333333334
sI7
F6226.55
sI8
F7129.070000000001
sI9
F6369.243333333333
sI10
F6661.27
sI11
F6605.5633333333335
sI12
F6612.556666666667
sI13
F6984.303333333333
sI14
F7098.736666666667
ssg76
(dp515
I0
F10230.476666666666
sI1
F11495.473333333333
sI2
F11606.666666666666
sI3
F11119.596666666668
sI4
F10407.873333333333
sI5
F10374.78
sI6
F10902.736666666666
sI7
F10221.92
sI8
F11631.79
sI9
F10383.336666666666
sI10
F10838.603333333333
sI11
F10701.946666666667
sI12
F10754.016666666666
sI13
F11335.84
sI14
F11534.633333333333
ssg78
(dp516
I0
F7.392212
sI1
F7.745078
sI2
F8.760209
sI3
F7.998462
sI4
F7.829483
sI5
F6.961527
sI6
F7.557765
sI7
F7.651569
sI8
F8.253765
sI9
F6.851017
sI10
F7.14434
sI11
F7.007559
sI12
F8.370572
sI13
F8.616695
sI14
F8.949642
ssg80
(dp517
I0
F11.514
sI1
F11.378
sI2
F11.364
sI3
F11.419
sI4
F11.494
sI5
F11.499
sI6
F11.439
sI7
F11.514
sI8
F11.367
sI9
F11.49
sI10
F11.441
sI11
F11.45
sI12
F11.449
sI13
F11.39
sI14
F11.372
ssg82
(dp518
I0
F0.002
sI1
F0.002
sI2
F0.002
sI3
F0.002
sI4
F0.002
sI5
F0.002
sI6
F0.002
sI7
F0.002
sI8
F0.002
sI9
F0.002
sI10
F0.002
sI11
F0.002
sI12
F0.002
sI13
F0.002
sI14
F0.002
ssg84
(dp519
I0
F0.6934528710968292
sI1
Fnan
sI2
Fnan
sI3
Fnan
sI4
Fnan
sI5
Fnan
sI6
Fnan
sI7
Fnan
sI8
Fnan
sI9
Fnan
sI10
Fnan
sI11
Fnan
sI12
Fnan
sI13
Fnan
sI14
Fnan
ssg86
(dp520
I0
F11.43866666666667
sI1
Fnan
sI2
Fnan
sI3
Fnan
sI4
Fnan
sI5
Fnan
sI6
Fnan
sI7
Fnan
sI8
Fnan
sI9
Fnan
sI10
Fnan
sI11
Fnan
sI12
Fnan
sI13
Fnan
sI14
Fnan
ssg88
(dp521
I0
F11.349
sI1
F11.209
sI2
F11.208
sI3
F11.246
sI4
F11.328
sI5
F11.333
sI6
F11.275
sI7
F11.341
sI8
F11.205
sI9
F11.334
sI10
F11.281
sI11
F11.29
sI12
F11.287
sI13
F11.229
sI14
F11.207
ssg90
(dp522
I0
F3.255136
sI1
F4.118086
sI2
F-1.430062
sI3
F3.796375
sI4
F-0.8840029
sI5
F-1.60486
sI6
F-2.49402
sI7
F3.372814
sI8
F2.551662
sI9
F4.148635
sI10
F4.192704
sI11
F4.085572
sI12
F3.776044
sI13
F3.985412
sI14
F3.730252
ssg92
(dp523
I0
F0.051639777949432294
sI1
Fnan
sI2
Fnan
sI3
Fnan
sI4
Fnan
sI5
Fnan
sI6
Fnan
sI7
Fnan
sI8
Fnan
sI9
Fnan
sI10
Fnan
sI11
Fnan
sI12
Fnan
sI13
Fnan
sI14
Fnan
ssg94
(dp524
I0
F0.7123840573493103
sI1
F0.7150252787822973
sI2
F0.7198670267884636
sI3
F0.7122681551760562
sI4
F0.7131529698774628
sI5
F0.7124986135628332
sI6
F0.7148355707676365
sI7
F0.7104974735598132
sI8
F0.7160849851641585
sI9
F0.7183674466823252
sI10
F0.7179605186221882
sI11
F0.7197623007474503
sI12
F0.7175611341474245
sI13
F0.7187636786258735
sI14
F0.7169754277746795
ssg96
(dp525
I0
F30.0
sI1
F30.0
sI2
F30.0
sI3
F30.0
sI4
F30.0
sI5
F30.0
sI6
F30.0
sI7
F30.0
sI8
F30.0
sI9
F30.0
sI10
F30.0
sI11
F30.0
sI12
F30.0
sI13
F30.0
sI14
F30.0
ssg98
(dp526
I0
F0.002
sI1
F0.002
sI2
F0.002
sI3
F0.002
sI4
F0.002
sI5
F0.002
sI6
F0.002
sI7
F0.002
sI8
F0.002
sI9
F0.002
sI10
F0.002
sI11
F0.002
sI12
F0.002
sI13
F0.002
sI14
F0.002
ssg100
(dp527
I0
F0.002
sI1
F0.002
sI2
F0.002
sI3
F0.002
sI4
F0.002
sI5
F0.002
sI6
F0.002
sI7
F0.002
sI8
F0.002
sI9
F0.002
sI10
F0.002
sI11
F0.002
sI12
F0.002
sI13
F0.002
sI14
F0.002
ssg102
(dp528
I0
F3.257666
sI1
F3.348844
sI2
F-4.269555
sI3
F3.186451
sI4
F3.097368
sI5
F-3.325643
sI6
F3.866728
sI7
F-2.012583
sI8
F-0.8422656
sI9
F-2.975758
sI10
F2.633411
sI11
F2.95244
sI12
F3.589689
sI13
F4.270683
sI14
F-3.580638
ssg104
(dp529
I0
S'KIC8462852-20181214at040700_-35-1X1-030-V_cal.fts.mag.1'
p530
sI1
S'KIC8462852-20181214at030404_-35-1X1-030-V_cal.fts.mag.1'
p531
sI2
S'KIC8462852-20181214at030038_-35-1X1-030-V_cal.fts.mag.1'
p532
sI3
S'KIC8462852-20181214at033134_-35-1X1-030-V_cal.fts.mag.1'
p533
sI4
S'KIC8462852-20181214at040229_-35-1X1-030-V_cal.fts.mag.1'
p534
sI5
S'KIC8462852-20181214at040554_-35-1X1-030-V_cal.fts.mag.1'
p535
sI6
S'KIC8462852-20181214at033248_-35-1X1-030-V_cal.fts.mag.1'
p536
sI7
S'KIC8462852-20181214at040342_-35-1X1-030-V_cal.fts.mag.1'
p537
sI8
S'KIC8462852-20181214at030151_-35-1X1-030-V_cal.fts.mag.1'
p538
sI9
S'KIC8462852-20181214at040448_-35-1X1-030-V_cal.fts.mag.1'
p539
sI10
S'KIC8462852-20181214at033500_-35-1X1-030-V_cal.fts.mag.1'
p540
sI11
S'KIC8462852-20181214at033606_-35-1X1-030-V_cal.fts.mag.1'
p541
sI12
S'KIC8462852-20181214at033355_-35-1X1-030-V_cal.fts.mag.1'
p542
sI13
S'KIC8462852-20181214at030510_-35-1X1-030-V_cal.fts.mag.1'
p543
sI14
S'KIC8462852-20181214at030258_-35-1X1-030-V_cal.fts.mag.1'
p544
ssg121
(dp545
I0
F0.005709836740725541
sI1
Fnan
sI2
Fnan
sI3
Fnan
sI4
Fnan
sI5
Fnan
sI6
Fnan
sI7
Fnan
sI8
Fnan
sI9
Fnan
sI10
Fnan
sI11
Fnan
sI12
Fnan
sI13
Fnan
sI14
Fnan
ssg123
(dp546
I0
F5479.753333333333
sI1
F6186.473333333333
sI2
F6255.236666666667
sI3
F5966.876666666666
sI4
F5587.5633333333335
sI5
F5541.79
sI6
F5885.05
sI7
F5528.796666666666
sI8
F6189.7266666666665
sI9
F5578.3133333333335
sI10
F5816.3099999999995
sI11
F5760.38
sI12
F5817.346666666666
sI13
F6094.59
sI14
F6233.733333333334
ssg125
(dp547
I0
F0.05510984701571221
sI1
Fnan
sI2
Fnan
sI3
Fnan
sI4
Fnan
sI5
Fnan
sI6
Fnan
sI7
Fnan
sI8
Fnan
sI9
Fnan
sI10
Fnan
sI11
Fnan
sI12
Fnan
sI13
Fnan
sI14
Fnan
ssg127
(dp548
I0
g469
sI1
g469
sI2
g469
sI3
g469
sI4
g469
sI5
g469
sI6
g469
sI7
g469
sI8
g469
sI9
g469
sI10
g469
sI11
g469
sI12
g469
sI13
g469
sI14
g469
ssg144
(dp549
I0
F0.0028376510745810766
sI1
Fnan
sI2
Fnan
sI3
Fnan
sI4
Fnan
sI5
Fnan
sI6
Fnan
sI7
Fnan
sI8
Fnan
sI9
Fnan
sI10
Fnan
sI11
Fnan
sI12
Fnan
sI13
Fnan
sI14
Fnan
ssg146
(dp550
I0
F3.073007
sI1
F-2.420218
sI2
F3.07463
sI3
F-3.715129
sI4
F4.367669
sI5
F3.449958
sI6
F2.906111
sI7
F3.137741
sI8
F-1.986431
sI9
F-2.17908
sI10
F0.9458678
sI11
F2.066927
sI12
F5.118805
sI13
F2.221147
sI14
F-1.861539
ssg148
(dp551
I0
F1.5084997723467468
sI1
Fnan
sI2
Fnan
sI3
Fnan
sI4
Fnan
sI5
Fnan
sI6
Fnan
sI7
Fnan
sI8
Fnan
sI9
Fnan
sI10
Fnan
sI11
Fnan
sI12
Fnan
sI13
Fnan
sI14
Fnan
ssg150
(dp552
I0
F2458466.6485532406
sI1
Fnan
sI2
Fnan
sI3
Fnan
sI4
Fnan
sI5
Fnan
sI6
Fnan
sI7
Fnan
sI8
Fnan
sI9
Fnan
sI10
Fnan
sI11
Fnan
sI12
Fnan
sI13
Fnan
sI14
Fnan
ssg152
(dp553
I0
F0.0028376510745810766
sI1
Fnan
sI2
Fnan
sI3
Fnan
sI4
Fnan
sI5
Fnan
sI6
Fnan
sI7
Fnan
sI8
Fnan
sI9
Fnan
sI10
Fnan
sI11
Fnan
sI12
Fnan
sI13
Fnan
sI14
Fnan
ssg154
(dp554
I0
F7.472462
sI1
F9.690504
sI2
F10.5506
sI3
F8.109997
sI4
F8.506954
sI5
F7.876298
sI6
F8.285702
sI7
F7.114489
sI8
F9.891163
sI9
F7.002442
sI10
F8.81094
sI11
F7.946948
sI12
F9.04314
sI13
F10.26289
sI14
F10.84832
ssg156
(dp555
I0
F10.975
sI1
F10.849
sI2
F10.838
sI3
F10.885
sI4
F10.957
sI5
F10.96
sI6
F10.906
sI7
F10.976
sI8
F10.836
sI9
F10.959
sI10
F10.913
sI11
F10.926
sI12
F10.921
sI13
F10.864
sI14
F10.845
ssg158
(dp556
I0
F0.6934528710968292
sI1
Fnan
sI2
Fnan
sI3
Fnan
sI4
Fnan
sI5
Fnan
sI6
Fnan
sI7
Fnan
sI8
Fnan
sI9
Fnan
sI10
Fnan
sI11
Fnan
sI12
Fnan
sI13
Fnan
sI14
Fnan
sss.