(dp0
S'r'
p1
(dp2
S'sigmean'
p3
(dp4
I0
F0.5459627979644898
sI1
Fnan
sI2
Fnan
sI3
Fnan
sI4
Fnan
sI5
Fnan
sI6
Fnan
sI7
Fnan
ssS'ref3flag'
p5
(dp6
I0
S'NoError'
p7
sI1
S'NoError'
p8
sI2
S'NoError'
p9
sI3
S'NoError'
p10
sI4
S'NoError'
p11
sI5
S'NoError'
p12
sI6
S'NoError'
p13
sI7
S'NoError'
p14
ssS'tabbyerr'
p15
(dp16
I0
F0.002
sI1
F0.002
sI2
F0.002
sI3
F0.002
sI4
F0.002
sI5
F0.002
sI6
F0.002
sI7
F0.002
ssS'ref2rel'
p17
(dp18
I0
F0.8954015257587776
sI1
F0.8951257524972683
sI2
F0.8914202618940995
sI3
F0.8884951429962922
sI4
F0.8961695253787552
sI5
F0.8932792453127814
sI6
F0.8951487885602125
sI7
F0.8928437186909792
ssS'ref2err'
p19
(dp20
I0
F0.002562236738654279
sI1
Fnan
sI2
Fnan
sI3
Fnan
sI4
Fnan
sI5
Fnan
sI6
Fnan
sI7
Fnan
ssS'ref2mean'
p21
(dp22
I0
F0.8934854951361457
sI1
Fnan
sI2
Fnan
sI3
Fnan
sI4
Fnan
sI5
Fnan
sI6
Fnan
sI7
Fnan
ssS'tabbymag'
p23
(dp24
I0
F11.228
sI1
F11.251
sI2
F11.228
sI3
F11.249
sI4
F11.215
sI5
F11.229
sI6
F11.255
sI7
F11.265
ssS'tabbybkg'
p25
(dp26
I0
F19.15672
sI1
F17.70409
sI2
F18.54068
sI3
F17.91733
sI4
F17.40662
sI5
F17.51185
sI6
F18.49818
sI7
F18.7359
ssS'JD'
p27
(dp28
I0
F2458288.7724305554
sI1
F2458288.7842939813
sI2
F2458288.77494213
sI3
F2458288.782638889
sI4
F2458288.773263889
sI5
F2458288.7740972224
sI6
F2458288.7851157407
sI7
F2458288.7834606483
ssS'ref3rmsmean'
p29
(dp30
I0
F6.499988625
sI1
Fnan
sI2
Fnan
sI3
Fnan
sI4
Fnan
sI5
Fnan
sI6
Fnan
sI7
Fnan
ssS'ref1rmsmean'
p31
(dp32
I0
F4.3962963749999995
sI1
Fnan
sI2
Fnan
sI3
Fnan
sI4
Fnan
sI5
Fnan
sI6
Fnan
sI7
Fnan
ssS'relflux'
p33
(dp34
I0
F0.5453050987925349
sI1
F0.5456411540057219
sI2
F0.544331340244086
sI3
F0.5445892400755902
sI4
F0.5473247825025321
sI5
F0.5470544869754077
sI6
F0.5430654783188277
sI7
F0.5474934831555559
ssS'sigerr'
p35
(dp36
I0
F0.0012232347360993294
sI1
Fnan
sI2
Fnan
sI3
Fnan
sI4
Fnan
sI5
Fnan
sI6
Fnan
sI7
Fnan
ssS'tabbyrmsmean'
p37
(dp38
I0
F3.676548125
sI1
Fnan
sI2
Fnan
sI3
Fnan
sI4
Fnan
sI5
Fnan
sI6
Fnan
sI7
Fnan
ssS'tabbyflag'
p39
(dp40
I0
g7
sI1
g8
sI2
g9
sI3
g10
sI4
g11
sI5
g12
sI6
g13
sI7
g14
ssS'ref1err'
p41
(dp42
I0
F0.0026192752012336026
sI1
Fnan
sI2
Fnan
sI3
Fnan
sI4
Fnan
sI5
Fnan
sI6
Fnan
sI7
Fnan
ssS'ref2magmeanerr'
p43
(dp44
I0
F0.017517338349679567
sI1
Fnan
sI2
Fnan
sI3
Fnan
sI4
Fnan
sI5
Fnan
sI6
Fnan
sI7
Fnan
ssS'ref2rmsmean'
p45
(dp46
I0
F5.021121625
sI1
Fnan
sI2
Fnan
sI3
Fnan
sI4
Fnan
sI5
Fnan
sI6
Fnan
sI7
Fnan
ssS'ref3rel'
p47
(dp48
I0
F1.5023238216924062
sI1
F1.5028779450412066
sI2
F1.5041983658841065
sI3
F1.507922433257407
sI4
F1.4949549620474063
sI5
F1.5015956361483704
sI6
F1.508969159486502
sI7
F1.5097814207898383
ssS'ref1flag'
p49
(dp50
I0
g7
sI1
g8
sI2
g9
sI3
g10
sI4
g11
sI5
g12
sI6
g13
sI7
g14
ssS'ref2bkg'
p51
(dp52
I0
F20.32999
sI1
F20.6314
sI2
F21.57812
sI3
F20.72516
sI4
F20.75286
sI5
F21.76049
sI6
F20.81818
sI7
F22.54017
ssS'ref3magmean'
p53
(dp54
I0
F10.307500000000001
sI1
Fnan
sI2
Fnan
sI3
Fnan
sI4
Fnan
sI5
Fnan
sI6
Fnan
sI7
Fnan
ssS'ref1mean'
p55
(dp56
I0
F0.7099297291790305
sI1
Fnan
sI2
Fnan
sI3
Fnan
sI4
Fnan
sI5
Fnan
sI6
Fnan
sI7
Fnan
ssS'ref1rms'
p57
(dp58
I0
F2.171829
sI1
F5.556275
sI2
F5.502831
sI3
F5.458007
sI4
F2.83913
sI5
F4.346411
sI6
F4.359877
sI7
F4.936011
ssS'ref2magmean'
p59
(dp60
I0
F10.665
sI1
Fnan
sI2
Fnan
sI3
Fnan
sI4
Fnan
sI5
Fnan
sI6
Fnan
sI7
Fnan
ssS'ref2flag'
p61
(dp62
I0
g7
sI1
g8
sI2
g9
sI3
g10
sI4
g11
sI5
g12
sI6
g13
sI7
g14
ssS'ref2'
p63
(dp64
I0
F13789.042222222222
sI1
F13493.846666666666
sI2
F13779.10888888889
sI3
F13477.826666666666
sI4
F13920.048888888889
sI5
F13716.986666666668
sI6
F13499.122222222222
sI7
F13254.52888888889
ssS'airmass'
p65
(dp66
I0
F1.2553809999999999
sI1
F1.208797
sI2
F1.244975
sI3
F1.21492
sI4
F1.251886
sI5
F1.24842
sI6
F1.205784
sI7
F1.2118440000000001
ssS'ref1'
p67
(dp68
I0
F11673.324444444444
sI1
F11424.782222222222
sI2
F11729.757777777777
sI3
F11503.555555555555
sI4
F11823.177777777777
sI5
F11659.168888888888
sI6
F11385.533333333333
sI7
F11217.148888888889
ssS'ref3'
p69
(dp70
I0
F19126.36
sI1
F18724.82888888889
sI2
F19185.19777777778
sI3
F18834.993333333332
sI4
F19242.48222222222
sI5
F19052.362222222222
sI6
F18775.088888888888
sI7
F18473.442222222224
ssS'ref1bkg'
p71
(dp72
I0
F20.81735
sI1
F19.04418
sI2
F19.56812
sI3
F18.81238
sI4
F19.6465
sI5
F19.84471
sI6
F19.51612
sI7
F21.09451
ssS'ref1mag'
p73
(dp74
I0
F10.832
sI1
F10.855
sI2
F10.827
sI3
F10.848
sI4
F10.818
sI5
F10.833
sI6
F10.859
sI7
F10.875
ssS'ref3magerr'
p75
(dp76
I0
F0.001
sI1
F0.001
sI2
F0.001
sI3
F0.001
sI4
F0.001
sI5
F0.001
sI6
F0.001
sI7
F0.001
ssS'tabbymagmean'
p77
(dp78
I0
F0.5456006330087821
sI1
Fnan
sI2
Fnan
sI3
Fnan
sI4
Fnan
sI5
Fnan
sI6
Fnan
sI7
Fnan
ssS'ref1magmean'
p79
(dp80
I0
F10.843375000000002
sI1
Fnan
sI2
Fnan
sI3
Fnan
sI4
Fnan
sI5
Fnan
sI6
Fnan
sI7
Fnan
ssS'ref2mag'
p81
(dp82
I0
F10.651
sI1
F10.675
sI2
F10.652
sI3
F10.676
sI4
F10.641
sI5
F10.657
sI6
F10.674
sI7
F10.694
ssS'ref3rms'
p83
(dp84
I0
F5.559879
sI1
F6.338143
sI2
F6.699033
sI3
F7.012095
sI4
F5.56488
sI5
F5.803824
sI6
F7.423257
sI7
F7.598798
ssS'ref3magmeanerr'
p85
(dp86
I0
F0.015482709249814567
sI1
Fnan
sI2
Fnan
sI3
Fnan
sI4
Fnan
sI5
Fnan
sI6
Fnan
sI7
Fnan
ssS'ref1rel'
p87
(dp88
I0
F0.7092925291104852
sI1
F0.7092024749758663
sI2
F0.7116641582295947
sI3
F0.712011861270886
sI4
F0.713044353470138
sI5
F0.711589902406768
sI6
F0.7055499075801491
sI7
F0.7070826463883567
ssS'exposure'
p89
(dp90
I0
F45.0
sI1
F45.0
sI2
F45.0
sI3
F45.0
sI4
F45.0
sI5
F45.0
sI6
F45.0
sI7
F45.0
ssS'ref1magerr'
p91
(dp92
I0
F0.001
sI1
F0.001
sI2
F0.001
sI3
F0.001
sI4
F0.001
sI5
F0.001
sI6
F0.001
sI7
F0.002
ssS'ref2magerr'
p93
(dp94
I0
F0.001
sI1
F0.001
sI2
F0.001
sI3
F0.001
sI4
F0.001
sI5
F0.001
sI6
F0.001
sI7
F0.001
ssS'ref2rms'
p95
(dp96
I0
F4.680871
sI1
F5.841665
sI2
F4.839966
sI3
F5.855544
sI4
F2.590662
sI5
F3.815118
sI6
F5.442451
sI7
F7.102696
ssS'name'
p97
(dp98
I0
S"KIC8462852-20180619at063217_-25-1-045-r'_cal.fts.mag.1"
p99
sI1
S"KIC8462852-20180619at064923_-25-1-045-r'_cal.fts.mag.1"
p100
sI2
S"KIC8462852-20180619at063554_-25-1-045-r'_cal.fts.mag.1"
p101
sI3
S"KIC8462852-20180619at064658_-25-1-045-r'_cal.fts.mag.1"
p102
sI4
S"KIC8462852-20180619at063330_-25-1-045-r'_cal.fts.mag.1"
p103
sI5
S"KIC8462852-20180619at063442_-25-1-045-r'_cal.fts.mag.1"
p104
sI6
S"KIC8462852-20180619at065034_-25-1-045-r'_cal.fts.mag.1"
p105
sI7
S"KIC8462852-20180619at064811_-25-1-045-r'_cal.fts.mag.1"
p106
ssS'ref3err'
p107
(dp108
I0
F0.0048573336314749384
sI1
Fnan
sI2
Fnan
sI3
Fnan
sI4
Fnan
sI5
Fnan
sI6
Fnan
sI7
Fnan
ssS'tabby'
p109
(dp110
I0
F8104.820000000001
sI1
F7937.888888888889
sI2
F8109.46
sI3
F7953.975555555556
sI4
F8207.264444444445
sI5
F8101.606666666667
sI6
F7903.366666666667
sI7
F7837.39111111111
ssS'ref1magmeanerr'
p111
(dp112
I0
F0.01908580250193477
sI1
Fnan
sI2
Fnan
sI3
Fnan
sI4
Fnan
sI5
Fnan
sI6
Fnan
sI7
Fnan
ssS'filter'
p113
(dp114
I0
S"r'"
p115
sI1
S"r'"
p116
sI2
S"r'"
p117
sI3
S"r'"
p118
sI4
S"r'"
p119
sI5
S"r'"
p120
sI6
S"r'"
p121
sI7
S"r'"
p122
ssS'tabbymagerr'
p123
(dp124
I0
F0.0015954970575787555
sI1
Fnan
sI2
Fnan
sI3
Fnan
sI4
Fnan
sI5
Fnan
sI6
Fnan
sI7
Fnan
ssS'tabbyrms'
p125
(dp126
I0
F3.026692
sI1
F4.49548
sI2
F2.416857
sI3
F3.089568
sI4
F3.330791
sI5
F3.782381
sI6
F3.890999
sI7
F5.379617
ssS'ref3mean'
p127
(dp128
I0
F1.5040779680434055
sI1
Fnan
sI2
Fnan
sI3
Fnan
sI4
Fnan
sI5
Fnan
sI6
Fnan
sI7
Fnan
ssS'median_JD'
p129
(dp130
I0
F2458288.7787905093
sI1
Fnan
sI2
Fnan
sI3
Fnan
sI4
Fnan
sI5
Fnan
sI6
Fnan
sI7
Fnan
ssS'error'
p131
(dp132
I0
F0.0015954970575787555
sI1
Fnan
sI2
Fnan
sI3
Fnan
sI4
Fnan
sI5
Fnan
sI6
Fnan
sI7
Fnan
ssS'ref3bkg'
p133
(dp134
I0
F23.90579
sI1
F24.9269
sI2
F22.0253
sI3
F23.64036
sI4
F22.85926
sI5
F24.88354
sI6
F24.41638
sI7
F24.12449
ssS'ref3mag'
p135
(dp136
I0
F10.296
sI1
F10.319
sI2
F10.293
sI3
F10.313
sI4
F10.289
sI5
F10.3
sI6
F10.316
sI7
F10.334
ssS'mean'
p137
(dp138
I0
F0.5456006330087821
sI1
Fnan
sI2
Fnan
sI3
Fnan
sI4
Fnan
sI5
Fnan
sI6
Fnan
sI7
Fnan
sssS'z'
p139
(dp140
g3
(dp141
I0
F0.3677295822392565
sI1
Fnan
sI2
Fnan
sI3
Fnan
sI4
Fnan
sI5
Fnan
sI6
Fnan
sI7
Fnan
ssg5
(dp142
I0
S'NoError'
p143
sI1
S'NoError'
p144
sI2
S'NoError'
p145
sI3
S'NoError'
p146
sI4
S'NoError'
p147
sI5
S'NoError'
p148
sI6
S'NoError'
p149
sI7
S'NoError'
p150
ssg15
(dp151
I0
F0.007
sI1
F0.007
sI2
F0.007
sI3
F0.007
sI4
F0.007
sI5
F0.007
sI6
F0.007
sI7
F0.007
ssg17
(dp152
I0
F0.9158801870640599
sI1
F0.9070069469825539
sI2
F0.9071571993004729
sI3
F0.9114135100018754
sI4
F0.9139701797091545
sI5
F0.913887711838923
sI6
F0.914225051028186
sI7
F0.908913930077857
ssg19
(dp153
I0
F0.0034668168419331106
sI1
Fnan
sI2
Fnan
sI3
Fnan
sI4
Fnan
sI5
Fnan
sI6
Fnan
sI7
Fnan
ssg21
(dp154
I0
F0.9115568395003854
sI1
Fnan
sI2
Fnan
sI3
Fnan
sI4
Fnan
sI5
Fnan
sI6
Fnan
sI7
Fnan
ssg23
(dp155
I0
F13.358
sI1
F13.326
sI2
F13.329
sI3
F13.328
sI4
F13.363
sI5
F13.346
sI6
F13.351
sI7
F13.342
ssg25
(dp156
I0
F16.12476
sI1
F15.1894
sI2
F13.8657
sI3
F14.93951
sI4
F15.38333
sI5
F16.49019
sI6
F14.59257
sI7
F14.62159
ssg27
(dp157
I0
F2458288.7766435184
sI1
F2458288.7782986113
sI2
F2458288.785983796
sI3
F2458288.7858796297
sI4
F2458288.777465278
sI5
F2458288.7757986113
sI6
F2458288.786724537
sI7
F2458288.78505787
ssg29
(dp158
I0
F1.773794875
sI1
Fnan
sI2
Fnan
sI3
Fnan
sI4
Fnan
sI5
Fnan
sI6
Fnan
sI7
Fnan
ssg31
(dp159
I0
F0.56065375
sI1
Fnan
sI2
Fnan
sI3
Fnan
sI4
Fnan
sI5
Fnan
sI6
Fnan
sI7
Fnan
ssg33
(dp160
I0
F0.36415312203518857
sI1
F0.3701425623968769
sI2
F0.3706060026144821
sI3
F0.3684991450665599
sI4
F0.3621894670945407
sI5
F0.36703932594871014
sI6
F0.36639017497017556
sI7
F0.36727674264280236
ssg35
(dp161
I0
F0.0020686465979943085
sI1
Fnan
sI2
Fnan
sI3
Fnan
sI4
Fnan
sI5
Fnan
sI6
Fnan
sI7
Fnan
ssg37
(dp162
I0
F-0.629420375
sI1
Fnan
sI2
Fnan
sI3
Fnan
sI4
Fnan
sI5
Fnan
sI6
Fnan
sI7
Fnan
ssg39
(dp163
I0
g143
sI1
g144
sI2
g145
sI3
g146
sI4
g147
sI5
g148
sI6
g149
sI7
g150
ssg41
(dp164
I0
F0.004765287190443079
sI1
Fnan
sI2
Fnan
sI3
Fnan
sI4
Fnan
sI5
Fnan
sI6
Fnan
sI7
Fnan
ssg43
(dp165
I0
F0.005125217765408602
sI1
Fnan
sI2
Fnan
sI3
Fnan
sI4
Fnan
sI5
Fnan
sI6
Fnan
sI7
Fnan
ssg45
(dp166
I0
F0.8002981250000001
sI1
Fnan
sI2
Fnan
sI3
Fnan
sI4
Fnan
sI5
Fnan
sI6
Fnan
sI7
Fnan
ssg47
(dp167
I0
F1.509408288398452
sI1
F1.5210497283441944
sI2
F1.5110340934776139
sI3
F1.5034030901862772
sI4
F1.5058396734772361
sI5
F1.5256171164709236
sI6
F1.5073014818812005
sI7
F1.5209290205837283
ssg49
(dp168
I0
g143
sI1
g144
sI2
g145
sI3
g146
sI4
g147
sI5
g148
sI6
g149
sI7
g150
ssg51
(dp169
I0
F16.74389
sI1
F16.81694
sI2
F15.26711
sI3
F15.53238
sI4
F16.12235
sI5
F17.57158
sI6
F16.04347
sI7
F15.41498
ssg53
(dp170
I0
F11.976500000000001
sI1
Fnan
sI2
Fnan
sI3
Fnan
sI4
Fnan
sI5
Fnan
sI6
Fnan
sI7
Fnan
ssg55
(dp171
I0
F0.6889872784930785
sI1
Fnan
sI2
Fnan
sI3
Fnan
sI4
Fnan
sI5
Fnan
sI6
Fnan
sI7
Fnan
ssg57
(dp172
I0
F-1.86186
sI1
F1.605214
sI2
F3.437134
sI3
F2.757595
sI4
F3.217306
sI5
F1.406062
sI6
F-2.023857
sI7
F-4.052364
ssg59
(dp173
I0
F12.322624999999999
sI1
Fnan
sI2
Fnan
sI3
Fnan
sI4
Fnan
sI5
Fnan
sI6
Fnan
sI7
Fnan
ssg61
(dp174
I0
g143
sI1
g144
sI2
g145
sI3
g146
sI4
g147
sI5
g148
sI6
g149
sI7
g150
ssg63
(dp175
I0
F2948.7444444444445
sI1
F2969.688888888889
sI2
F2956.737777777778
sI3
F2985.8888888888887
sI4
F2948.2555555555555
sI5
F2954.7177777777774
sI6
F2945.2044444444446
sI7
F2950.702222222222
ssg65
(dp176
I0
F1.238118
sI1
F1.2314889999999998
sI2
F1.209056
sI3
F1.203019
sI4
F1.234788
sI5
F1.241468
sI6
F1.200029
sI7
F1.206012
ssg67
(dp177
I0
F2401.3844444444444
sI1
F2436.662222222222
sI2
F2440.7755555555555
sI3
F2459.162222222222
sI4
F2414.1066666666666
sI5
F2389.5822222222223
sI6
F2408.351111111111
sI7
F2413.5133333333333
ssg69
(dp178
I0
F4037.7644444444445
sI1
F4111.664444444445
sI2
F4077.9133333333334
sI3
F4093.0533333333333
sI4
F4037.4288888888887
sI5
F4076.677777777778
sI6
F4034.711111111111
sI7
F4079.2955555555554
ssg71
(dp179
I0
F16.20317
sI1
F16.29725
sI2
F14.02487
sI3
F13.91885
sI4
F14.56201
sI5
F16.72441
sI6
F15.50301
sI7
F15.34356
ssg73
(dp180
I0
F12.549
sI1
F12.533
sI2
F12.531
sI3
F12.523
sI4
F12.543
sI5
F12.554
sI6
F12.546
sI7
F12.543
ssg75
(dp181
I0
F0.003
sI1
F0.003
sI2
F0.003
sI3
F0.003
sI4
F0.003
sI5
F0.003
sI6
F0.003
sI7
F0.003
ssg77
(dp182
I0
F0.367037067846167
sI1
Fnan
sI2
Fnan
sI3
Fnan
sI4
Fnan
sI5
Fnan
sI6
Fnan
sI7
Fnan
ssg79
(dp183
I0
F12.54025
sI1
Fnan
sI2
Fnan
sI3
Fnan
sI4
Fnan
sI5
Fnan
sI6
Fnan
sI7
Fnan
ssg81
(dp184
I0
F12.326
sI1
F12.318
sI2
F12.323
sI3
F12.312
sI4
F12.326
sI5
F12.324
sI6
F12.327
sI7
F12.325
ssg83
(dp185
I0
F-1.392297
sI1
F3.784341
sI2
F2.932877
sI3
F-1.654812
sI4
F3.856087
sI5
F2.37901
sI6
F1.255895
sI7
F3.029258
ssg85
(dp186
I0
F0.007653197277701868
sI1
Fnan
sI2
Fnan
sI3
Fnan
sI4
Fnan
sI5
Fnan
sI6
Fnan
sI7
Fnan
ssg87
(dp187
I0
F0.687434735326402
sI1
F0.6881911147555285
sI2
F0.6939293838468811
sI3
F0.6947823968678308
sI4
F0.6911582353498806
sI5
F0.6796893172463314
sI6
F0.6900803002392261
sI7
F0.6866327443125476
ssg89
(dp188
I0
F45.0
sI1
F45.0
sI2
F45.0
sI3
F45.0
sI4
F45.0
sI5
F45.0
sI6
F45.0
sI7
F45.0
ssg91
(dp189
I0
F0.004
sI1
F0.004
sI2
F0.004
sI3
F0.004
sI4
F0.004
sI5
F0.004
sI6
F0.004
sI7
F0.004
ssg93
(dp190
I0
F0.003
sI1
F0.003
sI2
F0.003
sI3
F0.004
sI4
F0.003
sI5
F0.003
sI6
F0.003
sI7
F0.004
ssg95
(dp191
I0
F2.018498
sI1
F-1.893891
sI2
F3.945255
sI3
F2.064056
sI4
F3.974602
sI5
F-3.606501
sI6
F-3.338892
sI7
F3.239258
ssg97
(dp192
I0
S"KIC8462852-20180619at063821_-25-1-045-z'_cal.fts.mag.1"
p193
sI1
S"KIC8462852-20180619at064045_-25-1-045-z'_cal.fts.mag.1"
p194
sI2
S"KIC8462852-20180619at065147_-25-1-045-z'_cal.fts.mag.1"
p195
sI3
S"KIC8462852-20180619at065140_-25-1-045-z'_cal.fts.mag.1"
p196
sI4
S"KIC8462852-20180619at063933_-25-1-045-z'_cal.fts.mag.1"
p197
sI5
S"KIC8462852-20180619at063708_-25-1-045-z'_cal.fts.mag.1"
p198
sI6
S"KIC8462852-20180619at065253_-25-1-045-z'_cal.fts.mag.1"
p199
sI7
S"KIC8462852-20180619at065028_-25-1-045-z'_cal.fts.mag.1"
p200
ssg107
(dp201
I0
F0.008275833604596796
sI1
Fnan
sI2
Fnan
sI3
Fnan
sI4
Fnan
sI5
Fnan
sI6
Fnan
sI7
Fnan
ssg109
(dp202
I0
F1139.5435555555555
sI1
F1174.340888888889
sI2
F1170.55
sI3
F1171.5944444444444
sI4
F1134.8351111111112
sI5
F1152.623111111111
sI6
F1146.5895555555555
sI7
F1156.1273333333334
ssg111
(dp203
I0
F0.01034753248709214
sI1
Fnan
sI2
Fnan
sI3
Fnan
sI4
Fnan
sI5
Fnan
sI6
Fnan
sI7
Fnan
ssg113
(dp204
I0
S"z'"
p205
sI1
S"z'"
p206
sI2
S"z'"
p207
sI3
S"z'"
p208
sI4
S"z'"
p209
sI5
S"z'"
p210
sI6
S"z'"
p211
sI7
S"z'"
p212
ssg123
(dp213
I0
F0.002848843313431279
sI1
Fnan
sI2
Fnan
sI3
Fnan
sI4
Fnan
sI5
Fnan
sI6
Fnan
sI7
Fnan
ssg125
(dp214
I0
F2.105988
sI1
F2.44327
sI2
F-1.565332
sI3
F-2.556865
sI4
F-3.889056
sI5
F-1.698086
sI6
F-1.069539
sI7
F1.194257
ssg127
(dp215
I0
F1.5130728116024534
sI1
Fnan
sI2
Fnan
sI3
Fnan
sI4
Fnan
sI5
Fnan
sI6
Fnan
sI7
Fnan
ssg129
(dp216
I0
F2458288.7816782407
sI1
Fnan
sI2
Fnan
sI3
Fnan
sI4
Fnan
sI5
Fnan
sI6
Fnan
sI7
Fnan
ssg131
(dp217
I0
F0.002848843313431279
sI1
Fnan
sI2
Fnan
sI3
Fnan
sI4
Fnan
sI5
Fnan
sI6
Fnan
sI7
Fnan
ssg133
(dp218
I0
F18.0924
sI1
F16.6369
sI2
F16.40469
sI3
F16.74874
sI4
F17.22141
sI5
F17.89746
sI6
F16.71996
sI7
F16.20242
ssg135
(dp219
I0
F11.985
sI1
F11.965
sI2
F11.974
sI3
F11.97
sI4
F11.985
sI5
F11.974
sI6
F11.985
sI7
F11.974
ssg137
(dp220
I0
F0.367037067846167
sI1
Fnan
sI2
Fnan
sI3
Fnan
sI4
Fnan
sI5
Fnan
sI6
Fnan
sI7
Fnan
sssS'g'
p221
(dp222
g3
(dp223
I0
F0.8660505422977175
sI1
Fnan
sI2
Fnan
sI3
Fnan
sI4
Fnan
sI5
Fnan
sI6
Fnan
sI7
Fnan
ssg5
(dp224
I0
S'NoError'
p225
sI1
S'NoError'
p226
sI2
S'NoError'
p227
sI3
S'NoError'
p228
sI4
S'NoError'
p229
sI5
S'NoError'
p230
sI6
S'NoError'
p231
sI7
S'NoError'
p232
ssg15
(dp233
I0
F0.002
sI1
F0.002
sI2
F0.002
sI3
F0.002
sI4
F0.002
sI5
F0.002
sI6
F0.002
sI7
F0.002
ssg17
(dp234
I0
F0.86869934632206
sI1
F0.8755636505004493
sI2
F0.8784322098394619
sI3
F0.8762829256534221
sI4
F0.8771316324175856
sI5
F0.8751723900151703
sI6
F0.8800759737266812
sI7
F0.8780330371040375
ssg19
(dp235
I0
F0.0034216965473190765
sI1
Fnan
sI2
Fnan
sI3
Fnan
sI4
Fnan
sI5
Fnan
sI6
Fnan
sI7
Fnan
ssg21
(dp236
I0
F0.8761738956973585
sI1
Fnan
sI2
Fnan
sI3
Fnan
sI4
Fnan
sI5
Fnan
sI6
Fnan
sI7
Fnan
ssg23
(dp237
I0
F11.451
sI1
F11.434
sI2
F11.436
sI3
F11.464
sI4
F11.453
sI5
F11.474
sI6
F11.447
sI7
F11.443
ssg25
(dp238
I0
F14.789
sI1
F13.9617
sI2
F12.99193
sI3
F13.231
sI4
F12.64799
sI5
F13.50676
sI6
F14.7905
sI7
F14.53506
ssg27
(dp239
I0
F2458288.7699074075
sI1
F2458288.7715625
sI2
F2458288.7792824074
sI3
F2458288.780104167
sI4
F2458288.7809375
sI5
F2458288.7817708333
sI6
F2458288.7690625
sI7
F2458288.7707291665
ssg29
(dp240
I0
F4.135968625
sI1
Fnan
sI2
Fnan
sI3
Fnan
sI4
Fnan
sI5
Fnan
sI6
Fnan
sI7
Fnan
ssg31
(dp241
I0
F2.204015
sI1
Fnan
sI2
Fnan
sI3
Fnan
sI4
Fnan
sI5
Fnan
sI6
Fnan
sI7
Fnan
ssg33
(dp242
I0
F0.8691285986432864
sI1
F0.8643944582960097
sI2
F0.8644683035294699
sI3
F0.8609808691584133
sI4
F0.8703996129717079
sI5
F0.8575263646302749
sI6
F0.864876886712723
sI7
F0.8681050667724122
ssg35
(dp243
I0
F0.0030457245050118727
sI1
Fnan
sI2
Fnan
sI3
Fnan
sI4
Fnan
sI5
Fnan
sI6
Fnan
sI7
Fnan
ssg37
(dp244
I0
F4.006642625
sI1
Fnan
sI2
Fnan
sI3
Fnan
sI4
Fnan
sI5
Fnan
sI6
Fnan
sI7
Fnan
ssg39
(dp245
I0
g225
sI1
g226
sI2
g227
sI3
g228
sI4
g229
sI5
g230
sI6
g231
sI7
g232
ssg41
(dp246
I0
F0.002386295303021699
sI1
Fnan
sI2
Fnan
sI3
Fnan
sI4
Fnan
sI5
Fnan
sI6
Fnan
sI7
Fnan
ssg43
(dp247
I0
F0.012727220547202487
sI1
Fnan
sI2
Fnan
sI3
Fnan
sI4
Fnan
sI5
Fnan
sI6
Fnan
sI7
Fnan
ssg45
(dp248
I0
F3.538972375
sI1
Fnan
sI2
Fnan
sI3
Fnan
sI4
Fnan
sI5
Fnan
sI6
Fnan
sI7
Fnan
ssg47
(dp249
I0
F1.5344521513212528
sI1
F1.5240944011838335
sI2
F1.526721463480661
sI3
F1.5276520468451549
sI4
F1.5234311430262126
sI5
F1.521208037152483
sI6
F1.5184936817691113
sI7
F1.5291219548225503
ssg49
(dp250
I0
g225
sI1
g226
sI2
g227
sI3
g228
sI4
g229
sI5
g230
sI6
g231
sI7
g232
ssg51
(dp251
I0
F14.89454
sI1
F14.01732
sI2
F13.75411
sI3
F13.4495
sI4
F12.66141
sI5
F13.92037
sI6
F14.65202
sI7
F14.8341
ssg53
(dp252
I0
F11.009125000000001
sI1
Fnan
sI2
Fnan
sI3
Fnan
sI4
Fnan
sI5
Fnan
sI6
Fnan
sI7
Fnan
ssg55
(dp253
I0
F0.7123880678370421
sI1
Fnan
sI2
Fnan
sI3
Fnan
sI4
Fnan
sI5
Fnan
sI6
Fnan
sI7
Fnan
ssg57
(dp254
I0
F-1.766519
sI1
F4.185359
sI2
F3.891714
sI3
F4.843851
sI4
F4.016439
sI5
F-2.942579
sI6
F3.713334
sI7
F1.690521
ssg59
(dp255
I0
F11.390374999999999
sI1
Fnan
sI2
Fnan
sI3
Fnan
sI4
Fnan
sI5
Fnan
sI6
Fnan
sI7
Fnan
ssg61
(dp256
I0
g225
sI1
g226
sI2
g227
sI3
g228
sI4
g229
sI5
g230
sI6
g231
sI7
g232
ssg63
(dp257
I0
F6902.666666666667
sI1
F7086.866666666667
sI2
F7085.673333333333
sI3
F6923.222222222223
sI4
F6926.182222222223
sI5
F6881.748888888889
sI6
F7022.448888888889
sI7
F7013.0088888888895
ssg65
(dp258
I0
F1.266222
sI1
F1.259059
sI2
F1.227698
sI3
F1.224478
sI4
F1.221288
sI5
F1.218143
sI6
F1.269847
sI7
F1.262638
ssg67
(dp259
I0
F5995.866666666667
sI1
F6122.195555555555
sI2
F6081.3533333333335
sI3
F5960.453333333334
sI4
F5969.76
sI5
F5959.504444444445
sI6
F6040.631111111112
sI7
F6014.237777777778
ssg69
(dp260
I0
F9896.09111111111
sI1
F10065.928888888888
sI2
F10051.191111111111
sI3
F9840.886666666667
sI4
F9823.039999999999
sI5
F9767.10888888889
sI6
F9918.102222222222
sI7
F9960.124444444444
ssg71
(dp261
I0
F14.77333
sI1
F11.93213
sI2
F13.43771
sI3
F13.34696
sI4
F12.55918
sI5
F13.04542
sI6
F14.55252
sI7
F14.16706
ssg73
(dp262
I0
F11.555
sI1
F11.533
sI2
F11.54
sI3
F11.562
sI4
F11.56
sI5
F11.562
sI6
F11.547
sI7
F11.552
ssg75
(dp263
I0
F0.002
sI1
F0.002
sI2
F0.002
sI3
F0.002
sI4
F0.002
sI5
F0.002
sI6
F0.002
sI7
F0.002
ssg77
(dp264
I0
F0.8649850200892872
sI1
Fnan
sI2
Fnan
sI3
Fnan
sI4
Fnan
sI5
Fnan
sI6
Fnan
sI7
Fnan
ssg79
(dp265
I0
F11.551375
sI1
Fnan
sI2
Fnan
sI3
Fnan
sI4
Fnan
sI5
Fnan
sI6
Fnan
sI7
Fnan
ssg81
(dp266
I0
F11.402
sI1
F11.374
sI2
F11.374
sI3
F11.399
sI4
F11.399
sI5
F11.406
sI6
F11.384
sI7
F11.385
ssg83
(dp267
I0
F3.899414
sI1
F3.334332
sI2
F3.994848
sI3
F3.744718
sI4
F5.16444
sI5
F4.611065
sI6
F4.168939
sI7
F4.169993
ssg85
(dp268
I0
F0.011728323470495232
sI1
Fnan
sI2
Fnan
sI3
Fnan
sI4
Fnan
sI5
Fnan
sI6
Fnan
sI7
Fnan
ssg87
(dp269
I0
F0.7138464338831404
sI1
F0.71384230468166
sI2
F0.7097393286908833
sI3
F0.7110969479903428
sI4
F0.7128402645562315
sI5
F0.7159055022259785
sI6
F0.7131563868839109
sI7
F0.7086773737841898
ssg89
(dp270
I0
F45.0
sI1
F45.0
sI2
F45.0
sI3
F45.0
sI4
F45.0
sI5
F45.0
sI6
F45.0
sI7
F45.0
ssg91
(dp271
I0
F0.002
sI1
F0.002
sI2
F0.002
sI3
F0.002
sI4
F0.002
sI5
F0.002
sI6
F0.002
sI7
F0.002
ssg93
(dp272
I0
F0.002
sI1
F0.002
sI2
F0.002
sI3
F0.002
sI4
F0.002
sI5
F0.002
sI6
F0.002
sI7
F0.002
ssg95
(dp273
I0
F3.244649
sI1
F3.548571
sI2
F2.760665
sI3
F4.432225
sI4
F3.104076
sI5
F3.821469
sI6
F4.484745
sI7
F2.915379
ssg97
(dp274
I0
S"KIC8462852-20180619at062840_-25-1-045-g'_cal.fts.mag.1"
p275
sI1
S"KIC8462852-20180619at063103_-25-1-045-g'_cal.fts.mag.1"
p276
sI2
S"KIC8462852-20180619at064200_-25-1-045-g'_cal.fts.mag.1"
p277
sI3
S"KIC8462852-20180619at064321_-25-1-045-g'_cal.fts.mag.1"
p278
sI4
S"KIC8462852-20180619at064433_-25-1-045-g'_cal.fts.mag.1"
p279
sI5
S"KIC8462852-20180619at064545_-25-1-045-g'_cal.fts.mag.1"
p280
sI6
S"KIC8462852-20180619at062722_-25-1-045-g'_cal.fts.mag.1"
p281
sI7
S"KIC8462852-20180619at062951_-25-1-045-g'_cal.fts.mag.1"
p282
ssg107
(dp283
I0
F0.004970996211752422
sI1
Fnan
sI2
Fnan
sI3
Fnan
sI4
Fnan
sI5
Fnan
sI6
Fnan
sI7
Fnan
ssg109
(dp284
I0
F6603.820000000001
sI1
F6706.257777777777
sI2
F6690.471111111111
sI3
F6521.804444444445
sI4
F6591.531111111111
sI5
F6462.422222222222
sI6
F6625.297777777779
sI7
F6651.817777777777
ssg111
(dp285
I0
F0.010689614452488878
sI1
Fnan
sI2
Fnan
sI3
Fnan
sI4
Fnan
sI5
Fnan
sI6
Fnan
sI7
Fnan
ssg113
(dp286
I0
S"g'"
p287
sI1
S"g'"
p288
sI2
S"g'"
p289
sI3
S"g'"
p290
sI4
S"g'"
p291
sI5
S"g'"
p292
sI6
S"g'"
p293
sI7
S"g'"
p294
ssg123
(dp295
I0
F0.004284756512766592
sI1
Fnan
sI2
Fnan
sI3
Fnan
sI4
Fnan
sI5
Fnan
sI6
Fnan
sI7
Fnan
ssg125
(dp296
I0
F3.669484
sI1
F4.416153
sI2
F3.378026
sI3
F4.491518
sI4
F4.07589
sI5
F4.171485
sI6
F3.94382
sI7
F3.906765
ssg127
(dp297
I0
F1.5256468599501574
sI1
Fnan
sI2
Fnan
sI3
Fnan
sI4
Fnan
sI5
Fnan
sI6
Fnan
sI7
Fnan
ssg129
(dp298
I0
F2458288.775422454
sI1
Fnan
sI2
Fnan
sI3
Fnan
sI4
Fnan
sI5
Fnan
sI6
Fnan
sI7
Fnan
ssg131
(dp299
I0
F0.004284756512766592
sI1
Fnan
sI2
Fnan
sI3
Fnan
sI4
Fnan
sI5
Fnan
sI6
Fnan
sI7
Fnan
ssg133
(dp300
I0
F16.86193
sI1
F16.48001
sI2
F15.6683
sI3
F15.85833
sI4
F15.62992
sI5
F15.93822
sI6
F16.45843
sI7
F16.54305
ssg135
(dp301
I0
F11.011
sI1
F10.993
sI2
F10.994
sI3
F11.017
sI4
F11.019
sI5
F11.026
sI6
F11.009
sI7
F11.004
ssg137
(dp302
I0
F0.8649850200892872
sI1
Fnan
sI2
Fnan
sI3
Fnan
sI4
Fnan
sI5
Fnan
sI6
Fnan
sI7
Fnan
sssS'V'
p303
(dp304
g3
(dp305
I0
F0.6941254369738079
sI1
Fnan
sI2
Fnan
sI3
Fnan
sI4
Fnan
sI5
Fnan
sI6
Fnan
sI7
Fnan
ssg5
(dp306
I0
S'NoError'
p307
sI1
S'NoError'
p308
sI2
S'NoError'
p309
sI3
S'NoError'
p310
sI4
S'NoError'
p311
sI5
S'NoError'
p312
sI6
S'NoError'
p313
sI7
S'NoError'
p314
ssg15
(dp315
I0
F0.002
sI1
F0.002
sI2
F0.002
sI3
F0.002
sI4
F0.002
sI5
F0.002
sI6
F0.002
sI7
F0.002
ssg17
(dp316
I0
F0.8850778221800896
sI1
F0.8873173399847021
sI2
F0.8835049294849442
sI3
F0.885130575500306
sI4
F0.8885607692076944
sI5
F0.8837425443630531
sI6
F0.8853693844080519
sI7
F0.8861586938812457
ssg19
(dp317
I0
F0.001707661009191427
sI1
Fnan
sI2
Fnan
sI3
Fnan
sI4
Fnan
sI5
Fnan
sI6
Fnan
sI7
Fnan
ssg21
(dp318
I0
F0.8856077573762609
sI1
Fnan
sI2
Fnan
sI3
Fnan
sI4
Fnan
sI5
Fnan
sI6
Fnan
sI7
Fnan
ssg23
(dp319
I0
F11.409
sI1
F11.409
sI2
F11.391
sI3
F11.379
sI4
F11.384
sI5
F11.409
sI6
F11.392
sI7
F11.416
ssg25
(dp320
I0
F9.522583
sI1
F10.77053
sI2
F8.909904
sI3
F8.258854
sI4
F8.99151
sI5
F9.991571
sI6
F8.942736
sI7
F10.74854
ssg27
(dp321
I0
F2458288.803935185
sI1
F2458288.8047685185
sI2
F2458288.8175347224
sI3
F2458288.819212963
sI4
F2458288.8183680554
sI5
F2458288.805601852
sI6
F2458288.816701389
sI7
F2458288.803101852
ssg29
(dp322
I0
F2.18337875
sI1
Fnan
sI2
Fnan
sI3
Fnan
sI4
Fnan
sI5
Fnan
sI6
Fnan
sI7
Fnan
ssg31
(dp323
I0
F3.295137
sI1
Fnan
sI2
Fnan
sI3
Fnan
sI4
Fnan
sI5
Fnan
sI6
Fnan
sI7
Fnan
ssg33
(dp324
I0
F0.6971736826715436
sI1
F0.6924456020485346
sI2
F0.6932458515966229
sI3
F0.6959005035877504
sI4
F0.6957623878871563
sI5
F0.694519361482181
sI6
F0.6934238072293134
sI7
F0.6935805449850969
ssg35
(dp325
I0
F0.001217160259702229
sI1
Fnan
sI2
Fnan
sI3
Fnan
sI4
Fnan
sI5
Fnan
sI6
Fnan
sI7
Fnan
ssg37
(dp326
I0
F2.50222925
sI1
Fnan
sI2
Fnan
sI3
Fnan
sI4
Fnan
sI5
Fnan
sI6
Fnan
sI7
Fnan
ssg39
(dp327
I0
g307
sI1
g308
sI2
g309
sI3
g310
sI4
g311
sI5
g312
sI6
g313
sI7
g314
ssg41
(dp328
I0
F0.0025701646020966653
sI1
Fnan
sI2
Fnan
sI3
Fnan
sI4
Fnan
sI5
Fnan
sI6
Fnan
sI7
Fnan
ssg43
(dp329
I0
F0.013543580450847243
sI1
Fnan
sI2
Fnan
sI3
Fnan
sI4
Fnan
sI5
Fnan
sI6
Fnan
sI7
Fnan
ssg45
(dp330
I0
F2.16353325
sI1
Fnan
sI2
Fnan
sI3
Fnan
sI4
Fnan
sI5
Fnan
sI6
Fnan
sI7
Fnan
ssg47
(dp331
I0
F1.5144181077277883
sI1
F1.5043426978620926
sI2
F1.5049656243864722
sI3
F1.4999747974005246
sI4
F1.4988759209295435
sI5
F1.50965014872593
sI6
F1.504270091693078
sI7
F1.5046507382130436
ssg49
(dp332
I0
g307
sI1
g308
sI2
g309
sI3
g310
sI4
g311
sI5
g312
sI6
g313
sI7
g314
ssg51
(dp333
I0
F11.12417
sI1
F11.75152
sI2
F10.43983
sI3
F8.555493
sI4
F9.130872
sI5
F10.43202
sI6
F11.23902
sI7
F12.28154
ssg53
(dp334
I0
F10.727875000000001
sI1
Fnan
sI2
Fnan
sI3
Fnan
sI4
Fnan
sI5
Fnan
sI6
Fnan
sI7
Fnan
ssg55
(dp335
I0
F0.7162351991075631
sI1
Fnan
sI2
Fnan
sI3
Fnan
sI4
Fnan
sI5
Fnan
sI6
Fnan
sI7
Fnan
ssg57
(dp336
I0
F4.273554
sI1
F3.891621
sI2
F3.096985
sI3
F2.700495
sI4
F3.50415
sI5
F2.55248
sI6
F2.834962
sI7
F3.506849
ssg59
(dp337
I0
F11.092500000000001
sI1
Fnan
sI2
Fnan
sI3
Fnan
sI4
Fnan
sI5
Fnan
sI6
Fnan
sI7
Fnan
ssg61
(dp338
I0
g307
sI1
g308
sI2
g309
sI3
g310
sI4
g311
sI5
g312
sI6
g313
sI7
g314
ssg63
(dp339
I0
F9055.308888888889
sI1
F9138.648888888889
sI2
F9250.388888888889
sI3
F9325.779999999999
sI4
F9314.315555555555
sI5
F9083.944444444445
sI6
F9252.282222222222
sI7
F9050.571111111112
ssg65
(dp340
I0
F1.1450280000000002
sI1
F1.142662
sI2
F1.1093540000000002
sI3
F1.105394
sI4
F1.1073680000000001
sI5
F1.140327
sI6
F1.111359
sI7
F1.147445
ssg67
(dp341
I0
F7742.626666666667
sI1
F7832.879999999999
sI2
F7976.94
sI3
F8044.562222222222
sI4
F7993.679999999999
sI5
F7807.677777777778
sI6
F7956.820000000001
sI7
F7771.131111111112
ssg69
(dp342
I0
F12719.548888888889
sI1
F12765.497777777779
sI2
F12963.268888888888
sI3
F13027.537777777778
sI4
F12971.268888888888
sI5
F12750.220000000001
sI6
F12943.568888888889
sI7
F12655.393333333332
ssg71
(dp343
I0
F10.84663
sI1
F10.85145
sI2
F9.527225
sI3
F8.724669
sI4
F9.398463
sI5
F9.876509
sI6
F9.859776
sI7
F11.46385
ssg73
(dp344
I0
F11.278
sI1
F11.265
sI2
F11.245
sI3
F11.236
sI4
F11.243
sI5
F11.269
sI6
F11.248
sI7
F11.274
ssg75
(dp345
I0
F0.001
sI1
F0.001
sI2
F0.001
sI3
F0.001
sI4
F0.001
sI5
F0.001
sI6
F0.001
sI7
F0.001
ssg77
(dp346
I0
F0.6945064676860249
sI1
Fnan
sI2
Fnan
sI3
Fnan
sI4
Fnan
sI5
Fnan
sI6
Fnan
sI7
Fnan
ssg79
(dp347
I0
F11.257249999999999
sI1
Fnan
sI2
Fnan
sI3
Fnan
sI4
Fnan
sI5
Fnan
sI6
Fnan
sI7
Fnan
ssg81
(dp348
I0
F11.108
sI1
F11.098
sI2
F11.085
sI3
F11.076
sI4
F11.077
sI5
F11.104
sI6
F11.084
sI7
F11.108
ssg83
(dp349
I0
F-1.604403
sI1
F3.882092
sI2
F4.069295
sI3
F3.816859
sI4
F3.75442
sI5
F2.780029
sI6
F2.789379
sI7
F-2.020641
ssg85
(dp350
I0
F0.011825366197893815
sI1
Fnan
sI2
Fnan
sI3
Fnan
sI4
Fnan
sI5
Fnan
sI6
Fnan
sI7
Fnan
ssg87
(dp351
I0
F0.7111529035627839
sI1
F0.7151960876814192
sI2
F0.7182013948175626
sI3
F0.7197644933245306
sI4
F0.7173857181019758
sI5
F0.7151799005310128
sI6
F0.7169646219168287
sI7
F0.7160364729243904
ssg89
(dp352
I0
F45.0
sI1
F45.0
sI2
F45.0
sI3
F45.0
sI4
F45.0
sI5
F45.0
sI6
F45.0
sI7
F45.0
ssg91
(dp353
I0
F0.002
sI1
F0.002
sI2
F0.002
sI3
F0.002
sI4
F0.002
sI5
F0.002
sI6
F0.002
sI7
F0.002
ssg93
(dp354
I0
F0.002
sI1
F0.002
sI2
F0.002
sI3
F0.002
sI4
F0.002
sI5
F0.002
sI6
F0.002
sI7
F0.002
ssg95
(dp355
I0
F3.368212
sI1
F-3.214536
sI2
F2.902222
sI3
F3.794384
sI4
F3.976123
sI5
F3.419897
sI6
F1.633432
sI7
F1.428532
ssg97
(dp356
I0
S'KIC8462852-20180619at071740_-25-1-045-V_cal.fts.mag.1'
p357
sI1
S'KIC8462852-20180619at071852_-25-1-045-V_cal.fts.mag.1'
p358
sI2
S'KIC8462852-20180619at073715_-25-1-045-V_cal.fts.mag.1'
p359
sI3
S'KIC8462852-20180619at073940_-25-1-045-V_cal.fts.mag.1'
p360
sI4
S'KIC8462852-20180619at073827_-25-1-045-V_cal.fts.mag.1'
p361
sI5
S'KIC8462852-20180619at072004_-25-1-045-V_cal.fts.mag.1'
p362
sI6
S'KIC8462852-20180619at073601_-25-1-045-V_cal.fts.mag.1'
p363
sI7
S'KIC8462852-20180619at071626_-25-1-045-V_cal.fts.mag.1'
p364
ssg107
(dp365
I0
F0.0049857632350919215
sI1
Fnan
sI2
Fnan
sI3
Fnan
sI4
Fnan
sI5
Fnan
sI6
Fnan
sI7
Fnan
ssg109
(dp366
I0
F6859.604444444445
sI1
F6863.757777777777
sI2
F6976.5022222222215
sI3
F7051.3
sI4
F7022.39111111111
sI5
F6862.277777777777
sI6
F6969.526666666667
sI7
F6814.913333333333
ssg111
(dp367
I0
F0.016033447183042955
sI1
Fnan
sI2
Fnan
sI3
Fnan
sI4
Fnan
sI5
Fnan
sI6
Fnan
sI7
Fnan
ssg113
(dp368
I0
g303
sI1
g303
sI2
g303
sI3
g303
sI4
g303
sI5
g303
sI6
g303
sI7
g303
ssg123
(dp369
I0
F0.0016257165580195359
sI1
Fnan
sI2
Fnan
sI3
Fnan
sI4
Fnan
sI5
Fnan
sI6
Fnan
sI7
Fnan
ssg125
(dp370
I0
F2.759704
sI1
F3.364012
sI2
F2.76719
sI3
F-2.009221
sI4
F2.606632
sI5
F3.818363
sI6
F3.822969
sI7
F2.888185
ssg127
(dp371
I0
F1.505143515867309
sI1
Fnan
sI2
Fnan
sI3
Fnan
sI4
Fnan
sI5
Fnan
sI6
Fnan
sI7
Fnan
ssg129
(dp372
I0
F2458288.8111516205
sI1
Fnan
sI2
Fnan
sI3
Fnan
sI4
Fnan
sI5
Fnan
sI6
Fnan
sI7
Fnan
ssg131
(dp373
I0
F0.0016257165580195359
sI1
Fnan
sI2
Fnan
sI3
Fnan
sI4
Fnan
sI5
Fnan
sI6
Fnan
sI7
Fnan
ssg133
(dp374
I0
F13.0463
sI1
F12.65064
sI2
F12.2056
sI3
F11.37103
sI4
F11.31856
sI5
F12.73516
sI6
F11.78409
sI7
F13.95744
ssg135
(dp375
I0
F10.739
sI1
F10.735
sI2
F10.718
sI3
F10.713
sI4
F10.718
sI5
F10.736
sI6
F10.72
sI7
F10.744
ssg137
(dp376
I0
F0.6945064676860249
sI1
Fnan
sI2
Fnan
sI3
Fnan
sI4
Fnan
sI5
Fnan
sI6
Fnan
sI7
Fnan
sss.