(dp0
S'V'
p1
(dp2
S'sigmean'
p3
(dp4
I0
F0.6930386062558104
sI1
Fnan
sI2
Fnan
sI3
Fnan
sI4
Fnan
sI5
Fnan
sI6
Fnan
sI7
Fnan
sI8
Fnan
sI9
Fnan
sI10
Fnan
sI11
Fnan
sI12
Fnan
sI13
Fnan
sI14
Fnan
ssS'ref3flag'
p5
(dp6
I0
S'NoError'
p7
sI1
S'NoError'
p8
sI2
S'NoError'
p9
sI3
S'NoError'
p10
sI4
S'NoError'
p11
sI5
S'NoError'
p12
sI6
S'NoError'
p13
sI7
S'NoError'
p14
sI8
S'NoError'
p15
sI9
S'NoError'
p16
sI10
S'NoError'
p17
sI11
S'NoError'
p18
sI12
S'NoError'
p19
sI13
S'NoError'
p20
sI14
S'NoError'
p21
ssS'tabbyerr'
p22
(dp23
I0
F0.002
sI1
F0.002
sI2
F0.002
sI3
F0.002
sI4
F0.002
sI5
F0.002
sI6
F0.002
sI7
F0.002
sI8
F0.002
sI9
F0.002
sI10
F0.002
sI11
F0.002
sI12
F0.002
sI13
F0.002
sI14
F0.002
ssS'ref2rel'
p24
(dp25
I0
F0.8840374182465053
sI1
F0.8861967652501075
sI2
F0.8823662507840039
sI3
F0.8862088363429446
sI4
F0.8872192544938869
sI5
F0.8857410731121751
sI6
F0.883365090394046
sI7
F0.8825991446144495
sI8
F0.8881243673706547
sI9
F0.8870440968129688
sI10
F0.8810703627528674
sI11
F0.88559705895841
sI12
F0.887200697247796
sI13
F0.8877770425484315
sI14
F0.8854802259216389
ssS'ref2err'
p26
(dp27
I0
F0.002163117040619986
sI1
Fnan
sI2
Fnan
sI3
Fnan
sI4
Fnan
sI5
Fnan
sI6
Fnan
sI7
Fnan
sI8
Fnan
sI9
Fnan
sI10
Fnan
sI11
Fnan
sI12
Fnan
sI13
Fnan
sI14
Fnan
ssS'ref2mean'
p28
(dp29
I0
F0.8853351789900591
sI1
Fnan
sI2
Fnan
sI3
Fnan
sI4
Fnan
sI5
Fnan
sI6
Fnan
sI7
Fnan
sI8
Fnan
sI9
Fnan
sI10
Fnan
sI11
Fnan
sI12
Fnan
sI13
Fnan
sI14
Fnan
ssS'tabbymag'
p30
(dp31
I0
F11.397
sI1
F11.416
sI2
F11.418
sI3
F11.411
sI4
F11.417
sI5
F11.426
sI6
F11.401
sI7
F11.385
sI8
F11.377
sI9
F11.396
sI10
F11.408
sI11
F11.42
sI12
F11.439
sI13
F11.402
sI14
F11.414
ssS'tabbybkg'
p32
(dp33
I0
F16.07806
sI1
F18.34316
sI2
F18.04588
sI3
F19.06745
sI4
F17.89935
sI5
F20.64032
sI6
F13.47023
sI7
F10.63412
sI8
F12.04629
sI9
F13.14137
sI10
F18.59637
sI11
F13.62201
sI12
F18.32502
sI13
F16.17177
sI14
F18.96588
ssS'JD'
p34
(dp35
I0
F2458304.819525463
sI1
F2458304.8213773146
sI2
F2458304.8232175927
sI3
F2458304.8409953704
sI4
F2458304.8419328704
sI5
F2458304.838240741
sI6
F2458304.804479167
sI7
F2458304.8007986112
sI8
F2458304.801701389
sI9
F2458304.802638889
sI10
F2458304.8400694444
sI11
F2458304.803564815
sI12
F2458304.820451389
sI13
F2458304.8222916666
sI14
F2458304.8391550924
ssS'ref3rmsmean'
p36
(dp37
I0
F0.7929111333333334
sI1
Fnan
sI2
Fnan
sI3
Fnan
sI4
Fnan
sI5
Fnan
sI6
Fnan
sI7
Fnan
sI8
Fnan
sI9
Fnan
sI10
Fnan
sI11
Fnan
sI12
Fnan
sI13
Fnan
sI14
Fnan
ssS'ref1rmsmean'
p38
(dp39
I0
F2.905022466666667
sI1
Fnan
sI2
Fnan
sI3
Fnan
sI4
Fnan
sI5
Fnan
sI6
Fnan
sI7
Fnan
sI8
Fnan
sI9
Fnan
sI10
Fnan
sI11
Fnan
sI12
Fnan
sI13
Fnan
sI14
Fnan
ssS'relflux'
p40
(dp41
I0
F0.6933979965166666
sI1
F0.6895500337989275
sI2
F0.693491479499599
sI3
F0.6925319099628572
sI4
F0.6951436466322705
sI5
F0.6921455623750609
sI6
F0.6917395282484452
sI7
F0.6925809761089295
sI8
F0.694506032452877
sI9
F0.6901475460529223
sI10
F0.6930193809990074
sI11
F0.6956617321756609
sI12
F0.6939958093861988
sI13
F0.6937634068348885
sI14
F0.6898751962131415
ssS'sigerr'
p42
(dp43
I0
F0.0012803079092928201
sI1
Fnan
sI2
Fnan
sI3
Fnan
sI4
Fnan
sI5
Fnan
sI6
Fnan
sI7
Fnan
sI8
Fnan
sI9
Fnan
sI10
Fnan
sI11
Fnan
sI12
Fnan
sI13
Fnan
sI14
Fnan
ssS'tabbyrmsmean'
p44
(dp45
I0
F1.9377718266666666
sI1
Fnan
sI2
Fnan
sI3
Fnan
sI4
Fnan
sI5
Fnan
sI6
Fnan
sI7
Fnan
sI8
Fnan
sI9
Fnan
sI10
Fnan
sI11
Fnan
sI12
Fnan
sI13
Fnan
sI14
Fnan
ssS'tabbyflag'
p46
(dp47
I0
g7
sI1
g8
sI2
g9
sI3
g10
sI4
g11
sI5
g12
sI6
g13
sI7
g14
sI8
g15
sI9
g16
sI10
g17
sI11
g18
sI12
g19
sI13
g20
sI14
g21
ssS'ref1err'
p48
(dp49
I0
F0.0019954154219907565
sI1
Fnan
sI2
Fnan
sI3
Fnan
sI4
Fnan
sI5
Fnan
sI6
Fnan
sI7
Fnan
sI8
Fnan
sI9
Fnan
sI10
Fnan
sI11
Fnan
sI12
Fnan
sI13
Fnan
sI14
Fnan
ssS'ref2magmeanerr'
p50
(dp51
I0
F0.016196119464683082
sI1
Fnan
sI2
Fnan
sI3
Fnan
sI4
Fnan
sI5
Fnan
sI6
Fnan
sI7
Fnan
sI8
Fnan
sI9
Fnan
sI10
Fnan
sI11
Fnan
sI12
Fnan
sI13
Fnan
sI14
Fnan
ssS'ref2rmsmean'
p52
(dp53
I0
F2.0027601333333336
sI1
Fnan
sI2
Fnan
sI3
Fnan
sI4
Fnan
sI5
Fnan
sI6
Fnan
sI7
Fnan
sI8
Fnan
sI9
Fnan
sI10
Fnan
sI11
Fnan
sI12
Fnan
sI13
Fnan
sI14
Fnan
ssS'ref3rel'
p54
(dp55
I0
F1.5066593655537144
sI1
F1.5047512032412853
sI2
F1.5056636665614347
sI3
F1.5024356790594544
sI4
F1.4938188120081393
sI5
F1.5029508186255687
sI6
F1.5052505621703778
sI7
F1.5066291337303783
sI8
F1.4967946530524516
sI9
F1.4974508537110105
sI10
F1.5069324486336924
sI11
F1.5044539699722563
sI12
F1.5049472970557185
sI13
F1.5065754278320895
sI14
F1.5037947435585142
ssS'ref1flag'
p56
(dp57
I0
g7
sI1
g8
sI2
g9
sI3
g10
sI4
g11
sI5
g12
sI6
g13
sI7
g14
sI8
g15
sI9
g16
sI10
g17
sI11
g18
sI12
g19
sI13
g20
sI14
g21
ssS'ref2bkg'
p58
(dp59
I0
F17.53471
sI1
F17.2228
sI2
F18.9542
sI3
F19.19213
sI4
F20.09621
sI5
F21.07224
sI6
F14.50273
sI7
F12.75776
sI8
F12.77186
sI9
F13.79975
sI10
F19.37416
sI11
F14.81899
sI12
F18.47593
sI13
F18.16123
sI14
F19.18726
ssS'ref3magmean'
p60
(dp61
I0
F10.735666666666665
sI1
Fnan
sI2
Fnan
sI3
Fnan
sI4
Fnan
sI5
Fnan
sI6
Fnan
sI7
Fnan
sI8
Fnan
sI9
Fnan
sI10
Fnan
sI11
Fnan
sI12
Fnan
sI13
Fnan
sI14
Fnan
ssS'ref1mean'
p62
(dp63
I0
F0.7175994499600314
sI1
Fnan
sI2
Fnan
sI3
Fnan
sI4
Fnan
sI5
Fnan
sI6
Fnan
sI7
Fnan
sI8
Fnan
sI9
Fnan
sI10
Fnan
sI11
Fnan
sI12
Fnan
sI13
Fnan
sI14
Fnan
ssS'ref1rms'
p64
(dp65
I0
F2.209778
sI1
F4.122558
sI2
F3.002916
sI3
F3.530284
sI4
F2.467232
sI5
F3.087687
sI6
F-3.690804
sI7
F2.568629
sI8
F4.718768
sI9
F3.538783
sI10
F4.343728
sI11
F3.307115
sI12
F3.594102
sI13
F3.081999
sI14
F3.692562
ssS'ref2magmean'
p66
(dp67
I0
F11.099799999999998
sI1
Fnan
sI2
Fnan
sI3
Fnan
sI4
Fnan
sI5
Fnan
sI6
Fnan
sI7
Fnan
sI8
Fnan
sI9
Fnan
sI10
Fnan
sI11
Fnan
sI12
Fnan
sI13
Fnan
sI14
Fnan
ssS'ref2flag'
p68
(dp69
I0
g7
sI1
g8
sI2
g9
sI3
g10
sI4
g11
sI5
g12
sI6
g13
sI7
g14
sI8
g15
sI9
g16
sI10
g17
sI11
g18
sI12
g19
sI13
g20
sI14
g21
ssS'ref2'
p70
(dp71
I0
F9197.59111111111
sI1
F9108.731111111112
sI2
F9008.38
sI3
F9112.65111111111
sI4
F9033.813333333334
sI5
F8982.293333333333
sI6
F9181.966666666667
sI7
F9306.048888888889
sI8
F9383.453333333335
sI9
F9273.622222222222
sI10
F9095.564444444444
sI11
F8990.41111111111
sI12
F8869.702222222222
sI13
F9179.853333333334
sI14
F9117.6
ssS'airmass'
p72
(dp73
I0
F1.030857
sI1
F1.02885
sI2
F1.026935
sI3
F1.012592
sI4
F1.012057
sI5
F1.01434
sI6
F1.050389
sI7
F1.056074
sI8
F1.054604
sI9
F1.053174
sI10
F1.01316
sI11
F1.051764
sI12
F1.0298450000000001
sI13
F1.0278770000000002
sI14
F1.013742
ssS'ref1'
p74
(dp75
I0
F7915.984444444444
sI1
F7820.08
sI2
F7779.92
sI3
F7834.482222222223
sI4
F7794.846666666666
sI5
F7726.064444444445
sI6
F7918.424444444444
sI7
F8029.046666666666
sI8
F8069.328888888888
sI9
F7986.186666666667
sI10
F7866.375555555556
sI11
F7727.757777777777
sI12
F7601.02
sI13
F7851.231111111111
sI14
F7841.8244444444435
ssS'ref3'
p76
(dp77
I0
F12892.164444444445
sI1
F12736.824444444444
sI2
F12638.766666666666
sI3
F12730.988888888889
sI4
F12569.484444444446
sI5
F12555.92
sI6
F12870.186666666666
sI7
F13058.779999999999
sI8
F13061.615555555554
sI9
F12922.857777777777
sI10
F12780.248888888887
sI11
F12575.857777777777
sI12
F12393.784444444445
sI13
F12829.306666666667
sI14
F12751.746666666666
ssS'ref1bkg'
p78
(dp79
I0
F16.95417
sI1
F17.77011
sI2
F17.72302
sI3
F18.91277
sI4
F19.68522
sI5
F20.28279
sI6
F14.40716
sI7
F11.78374
sI8
F11.67856
sI9
F12.72366
sI10
F19.31403
sI11
F14.38565
sI12
F19.12913
sI13
F17.25878
sI14
F18.52213
ssS'ref1mag'
p80
(dp81
I0
F11.254
sI1
F11.267
sI2
F11.273
sI3
F11.265
sI4
F11.27
sI5
F11.28
sI6
F11.253
sI7
F11.238
sI8
F11.233
sI9
F11.244
sI10
F11.261
sI11
F11.28
sI12
F11.298
sI13
F11.263
sI14
F11.264
ssS'ref3magerr'
p82
(dp83
I0
F0.001
sI1
F0.001
sI2
F0.001
sI3
F0.001
sI4
F0.001
sI5
F0.001
sI6
F0.001
sI7
F0.001
sI8
F0.001
sI9
F0.001
sI10
F0.001
sI11
F0.001
sI12
F0.001
sI13
F0.001
sI14
F0.001
ssS'tabbymagmean'
p84
(dp85
I0
F0.6927700158171635
sI1
Fnan
sI2
Fnan
sI3
Fnan
sI4
Fnan
sI5
Fnan
sI6
Fnan
sI7
Fnan
sI8
Fnan
sI9
Fnan
sI10
Fnan
sI11
Fnan
sI12
Fnan
sI13
Fnan
sI14
Fnan
ssS'ref1magmean'
p86
(dp87
I0
F11.262866666666667
sI1
Fnan
sI2
Fnan
sI3
Fnan
sI4
Fnan
sI5
Fnan
sI6
Fnan
sI7
Fnan
sI8
Fnan
sI9
Fnan
sI10
Fnan
sI11
Fnan
sI12
Fnan
sI13
Fnan
sI14
Fnan
ssS'ref2mag'
p88
(dp89
I0
F11.091
sI1
F11.101
sI2
F11.113
sI3
F11.101
sI4
F11.11
sI5
F11.117
sI6
F11.093
sI7
F11.078
sI8
F11.069
sI9
F11.082
sI10
F11.103
sI11
F11.116
sI12
F11.13
sI13
F11.093
sI14
F11.1
ssS'ref3rms'
p90
(dp91
I0
F-3.76544
sI1
F-2.009381
sI2
F-2.467216
sI3
F1.692229
sI4
F2.635496
sI5
F-4.545001
sI6
F3.593737
sI7
F3.482649
sI8
F3.528781
sI9
F-2.775769
sI10
F4.881635
sI11
F-3.646902
sI12
F4.194683
sI13
F4.080702
sI14
F3.013464
ssS'ref3magmeanerr'
p92
(dp93
I0
F0.01621140104400346
sI1
Fnan
sI2
Fnan
sI3
Fnan
sI4
Fnan
sI5
Fnan
sI6
Fnan
sI7
Fnan
sI8
Fnan
sI9
Fnan
sI10
Fnan
sI11
Fnan
sI12
Fnan
sI13
Fnan
sI14
Fnan
ssS'ref1rel'
p94
(dp95
I0
F0.7167109137569049
sI1
F0.7159424240882967
sI2
F0.7187940396763607
sI3
F0.7173238729645995
sI4
F0.7216348861963873
sI5
F0.7174285373510813
sI6
F0.7181543067247954
sI7
F0.718006536652341
sI8
F0.7190291042397731
sI9
F0.7195903734886493
sI10
F0.719184739391531
sI11
F0.7166522700418688
sI12
F0.7149363713633669
sI13
F0.7134512276807574
sI14
F0.7171521457837586
ssS'exposure'
p96
(dp97
I0
F45.0
sI1
F45.0
sI2
F45.0
sI3
F45.0
sI4
F45.0
sI5
F45.0
sI6
F45.0
sI7
F45.0
sI8
F45.0
sI9
F45.0
sI10
F45.0
sI11
F45.0
sI12
F45.0
sI13
F45.0
sI14
F45.0
ssS'ref1magerr'
p98
(dp99
I0
F0.002
sI1
F0.002
sI2
F0.002
sI3
F0.002
sI4
F0.002
sI5
F0.002
sI6
F0.002
sI7
F0.002
sI8
F0.002
sI9
F0.002
sI10
F0.002
sI11
F0.002
sI12
F0.002
sI13
F0.002
sI14
F0.002
ssS'ref2magerr'
p100
(dp101
I0
F0.002
sI1
F0.002
sI2
F0.002
sI3
F0.002
sI4
F0.002
sI5
F0.002
sI6
F0.002
sI7
F0.002
sI8
F0.002
sI9
F0.002
sI10
F0.002
sI11
F0.002
sI12
F0.002
sI13
F0.002
sI14
F0.002
ssS'ref2rms'
p102
(dp103
I0
F4.571683
sI1
F3.899166
sI2
F-3.242651
sI3
F1.165489
sI4
F4.831256
sI5
F-4.059807
sI6
F2.788393
sI7
F-3.158963
sI8
F2.308142
sI9
F3.059723
sI10
F4.388827
sI11
F3.057901
sI12
F4.173831
sI13
F2.943983
sI14
F3.314429
ssS'name'
p104
(dp105
I0
S'KIC8462852-20180705at074006_-25-1X1-045-V_cal.fts.mag.1'
p106
sI1
S'KIC8462852-20180705at074247_-25-1X1-045-V_cal.fts.mag.1'
p107
sI2
S'KIC8462852-20180705at074526_-25-1X1-045-V_cal.fts.mag.1'
p108
sI3
S'KIC8462852-20180705at081102_-25-1X1-045-V_cal.fts.mag.1'
p109
sI4
S'KIC8462852-20180705at081222_-25-1X1-045-V_cal.fts.mag.1'
p110
sI5
S'KIC8462852-20180705at080702_-25-1X1-045-V_cal.fts.mag.1'
p111
sI6
S'KIC8462852-20180705at071827_-25-1X1-045-V_cal.fts.mag.1'
p112
sI7
S'KIC8462852-20180705at071307_-25-1X1-045-V_cal.fts.mag.1'
p113
sI8
S'KIC8462852-20180705at071427_-25-1X1-045-V_cal.fts.mag.1'
p114
sI9
S'KIC8462852-20180705at071548_-25-1X1-045-V_cal.fts.mag.1'
p115
sI10
S'KIC8462852-20180705at080942_-25-1X1-045-V_cal.fts.mag.1'
p116
sI11
S'KIC8462852-20180705at071707_-25-1X1-045-V_cal.fts.mag.1'
p117
sI12
S'KIC8462852-20180705at074127_-25-1X1-045-V_cal.fts.mag.1'
p118
sI13
S'KIC8462852-20180705at074406_-25-1X1-045-V_cal.fts.mag.1'
p119
sI14
S'KIC8462852-20180705at080823_-25-1X1-045-V_cal.fts.mag.1'
p120
ssS'ref3err'
p121
(dp122
I0
F0.004047600098064728
sI1
Fnan
sI2
Fnan
sI3
Fnan
sI4
Fnan
sI5
Fnan
sI6
Fnan
sI7
Fnan
sI8
Fnan
sI9
Fnan
sI10
Fnan
sI11
Fnan
sI12
Fnan
sI13
Fnan
sI14
Fnan
ssS'tabby'
p123
(dp124
I0
F6935.306666666666
sI1
F6818.6466666666665
sI2
F6802.473333333333
sI3
F6851.015555555556
sI4
F6811.977777777778
sI5
F6751.713333333333
sI6
F6910.611111111111
sI7
F7016.74
sI8
F7064.144444444444
sI9
F6943.4977777777785
sI10
F6870.637777777778
sI11
F6792.9111111111115
sI12
F6677.282222222222
sI13
F6905.348888888889
sI14
F6832.333333333333
ssS'ref1magmeanerr'
p125
(dp126
I0
F0.01699523742811767
sI1
Fnan
sI2
Fnan
sI3
Fnan
sI4
Fnan
sI5
Fnan
sI6
Fnan
sI7
Fnan
sI8
Fnan
sI9
Fnan
sI10
Fnan
sI11
Fnan
sI12
Fnan
sI13
Fnan
sI14
Fnan
ssS'filter'
p127
(dp128
I0
g1
sI1
g1
sI2
g1
sI3
g1
sI4
g1
sI5
g1
sI6
g1
sI7
g1
sI8
g1
sI9
g1
sI10
g1
sI11
g1
sI12
g1
sI13
g1
sI14
g1
ssS'tabbymagerr'
p129
(dp130
I0
F0.0018448042527123175
sI1
Fnan
sI2
Fnan
sI3
Fnan
sI4
Fnan
sI5
Fnan
sI6
Fnan
sI7
Fnan
sI8
Fnan
sI9
Fnan
sI10
Fnan
sI11
Fnan
sI12
Fnan
sI13
Fnan
sI14
Fnan
ssS'tabbyrms'
p131
(dp132
I0
F3.348895
sI1
F-3.638699
sI2
F3.58798
sI3
F-3.508761
sI4
F2.483467
sI5
F-2.936075
sI6
F-0.9911946
sI7
F4.018636
sI8
F3.893015
sI9
F3.516875
sI10
F3.706682
sI11
F3.710253
sI12
F4.548114
sI13
F3.212143
sI14
F4.115247
ssS'ref3mean'
p133
(dp134
I0
F1.5032739089844056
sI1
Fnan
sI2
Fnan
sI3
Fnan
sI4
Fnan
sI5
Fnan
sI6
Fnan
sI7
Fnan
sI8
Fnan
sI9
Fnan
sI10
Fnan
sI11
Fnan
sI12
Fnan
sI13
Fnan
sI14
Fnan
ssS'median_JD'
p135
(dp136
I0
F2458304.8213773146
sI1
Fnan
sI2
Fnan
sI3
Fnan
sI4
Fnan
sI5
Fnan
sI6
Fnan
sI7
Fnan
sI8
Fnan
sI9
Fnan
sI10
Fnan
sI11
Fnan
sI12
Fnan
sI13
Fnan
sI14
Fnan
ssS'error'
p137
(dp138
I0
F0.0018448042527123175
sI1
Fnan
sI2
Fnan
sI3
Fnan
sI4
Fnan
sI5
Fnan
sI6
Fnan
sI7
Fnan
sI8
Fnan
sI9
Fnan
sI10
Fnan
sI11
Fnan
sI12
Fnan
sI13
Fnan
sI14
Fnan
ssS'ref3bkg'
p139
(dp140
I0
F20.35381
sI1
F19.44018
sI2
F20.13782
sI3
F21.05377
sI4
F21.21734
sI5
F23.35262
sI6
F15.86554
sI7
F13.51263
sI8
F13.38831
sI9
F15.61785
sI10
F20.83596
sI11
F18.37362
sI12
F21.92025
sI13
F19.09813
sI14
F20.78559
ssS'ref3mag'
p141
(dp142
I0
F10.724
sI1
F10.737
sI2
F10.746
sI3
F10.738
sI4
F10.752
sI5
F10.753
sI6
F10.726
sI7
F10.71
sI8
F10.71
sI9
F10.722
sI10
F10.734
sI11
F10.751
sI12
F10.767
sI13
F10.729
sI14
F10.736
ssS'mean'
p143
(dp144
I0
F0.6927700158171635
sI1
Fnan
sI2
Fnan
sI3
Fnan
sI4
Fnan
sI5
Fnan
sI6
Fnan
sI7
Fnan
sI8
Fnan
sI9
Fnan
sI10
Fnan
sI11
Fnan
sI12
Fnan
sI13
Fnan
sI14
Fnan
sss.