(dp0
S'i'
p1
(dp2
S'sigmean'
p3
(dp4
I0
F0.441890513666815
sI1
Fnan
sI2
Fnan
sI3
Fnan
sI4
Fnan
sI5
Fnan
sI6
Fnan
sI7
Fnan
sI8
Fnan
sI9
Fnan
sI10
Fnan
sI11
Fnan
sI12
Fnan
sI13
Fnan
sI14
Fnan
ssS'ref3flag'
p5
(dp6
I0
S'NoError'
p7
sI1
S'NoError'
p8
sI2
S'NoError'
p9
sI3
S'NoError'
p10
sI4
S'NoError'
p11
sI5
S'NoError'
p12
sI6
S'NoError'
p13
sI7
S'NoError'
p14
sI8
S'NoError'
p15
sI9
S'NoError'
p16
sI10
S'NoError'
p17
sI11
S'NoError'
p18
sI12
S'NoError'
p19
sI13
S'NoError'
p20
sI14
S'NoError'
p21
ssS'tabbyerr'
p22
(dp23
I0
F0.004
sI1
F0.003
sI2
F0.003
sI3
F0.003
sI4
F0.003
sI5
F0.003
sI6
F0.003
sI7
F0.003
sI8
F0.003
sI9
F0.003
sI10
F0.003
sI11
F0.003
sI12
F0.004
sI13
F0.003
sI14
F0.003
ssS'ref2rel'
p24
(dp25
I0
F0.9081842517917577
sI1
F0.9140731306291712
sI2
F0.9133518447020523
sI3
F0.9180197325798187
sI4
F0.9154008058816218
sI5
F0.9128077397172303
sI6
F0.9088109416564571
sI7
F0.9094296973948127
sI8
F0.9115347718922586
sI9
F0.9093631696290473
sI10
F0.9115817723688682
sI11
F0.9098942900384452
sI12
F0.9145017642307528
sI13
F0.9082383267042108
sI14
F0.9065024325126273
ssS'ref2err'
p26
(dp27
I0
F0.003204114273220691
sI1
Fnan
sI2
Fnan
sI3
Fnan
sI4
Fnan
sI5
Fnan
sI6
Fnan
sI7
Fnan
sI8
Fnan
sI9
Fnan
sI10
Fnan
sI11
Fnan
sI12
Fnan
sI13
Fnan
sI14
Fnan
ssS'ref2mean'
p28
(dp29
I0
F0.9114463114486088
sI1
Fnan
sI2
Fnan
sI3
Fnan
sI4
Fnan
sI5
Fnan
sI6
Fnan
sI7
Fnan
sI8
Fnan
sI9
Fnan
sI10
Fnan
sI11
Fnan
sI12
Fnan
sI13
Fnan
sI14
Fnan
ssS'tabbymag'
p30
(dp31
I0
F11.984
sI1
F11.932
sI2
F11.925
sI3
F11.931
sI4
F11.969
sI5
F11.897
sI6
F11.89
sI7
F11.9
sI8
F11.905
sI9
F11.971
sI10
F11.903
sI11
F11.991
sI12
F11.993
sI13
F11.943
sI14
F11.911
ssS'tabbybkg'
p32
(dp33
I0
F75.59471
sI1
F78.74733
sI2
F60.05515
sI3
F74.12772
sI4
F76.08359
sI5
F77.04641
sI6
F59.59909
sI7
F76.83857
sI8
F60.40176
sI9
F61.07028
sI10
F73.93545
sI11
F62.65105
sI12
F76.02782
sI13
F76.50727
sI14
F74.57993
ssS'JD'
p34
(dp35
I0
F2458412.787152778
sI1
F2458412.7849537036
sI2
F2458412.7482060185
sI3
F2458412.766226852
sI4
F2458412.786412037
sI5
F2458412.7684375
sI6
F2458412.7496875
sI7
F2458412.7691666665
sI8
F2458412.7504166667
sI9
F2458412.7474652776
sI10
F2458412.767696759
sI11
F2458412.7489467594
sI12
F2458412.7878935183
sI13
F2458412.7856828705
sI14
F2458412.7669675928
ssS'ref3rmsmean'
p36
(dp37
I0
F3.204356273333333
sI1
Fnan
sI2
Fnan
sI3
Fnan
sI4
Fnan
sI5
Fnan
sI6
Fnan
sI7
Fnan
sI8
Fnan
sI9
Fnan
sI10
Fnan
sI11
Fnan
sI12
Fnan
sI13
Fnan
sI14
Fnan
ssS'ref1rmsmean'
p38
(dp39
I0
F1.0987286
sI1
Fnan
sI2
Fnan
sI3
Fnan
sI4
Fnan
sI5
Fnan
sI6
Fnan
sI7
Fnan
sI8
Fnan
sI9
Fnan
sI10
Fnan
sI11
Fnan
sI12
Fnan
sI13
Fnan
sI14
Fnan
ssS'relflux'
p40
(dp41
I0
F0.44248509231678934
sI1
F0.4417821152673572
sI2
F0.4395907400855233
sI3
F0.4410156724577815
sI4
F0.4383971339522221
sI5
F0.44128941383709536
sI6
F0.44177197970690046
sI7
F0.44360706464534655
sI8
F0.4449537025025637
sI9
F0.4359134081299799
sI10
F0.44449409565978654
sI11
F0.4364639983188466
sI12
F0.4384557853169934
sI13
F0.4424337140564447
sI14
F0.4443001678637905
ssS'sigerr'
p42
(dp43
I0
F0.0020756060085292357
sI1
Fnan
sI2
Fnan
sI3
Fnan
sI4
Fnan
sI5
Fnan
sI6
Fnan
sI7
Fnan
sI8
Fnan
sI9
Fnan
sI10
Fnan
sI11
Fnan
sI12
Fnan
sI13
Fnan
sI14
Fnan
ssS'tabbyrmsmean'
p44
(dp45
I0
F1.8896969999999997
sI1
Fnan
sI2
Fnan
sI3
Fnan
sI4
Fnan
sI5
Fnan
sI6
Fnan
sI7
Fnan
sI8
Fnan
sI9
Fnan
sI10
Fnan
sI11
Fnan
sI12
Fnan
sI13
Fnan
sI14
Fnan
ssS'tabbyflag'
p46
(dp47
I0
g7
sI1
g8
sI2
g9
sI3
g10
sI4
g11
sI5
g12
sI6
g13
sI7
g14
sI8
g15
sI9
g16
sI10
g17
sI11
g18
sI12
g19
sI13
g20
sI14
g21
ssS'ref1err'
p48
(dp49
I0
F0.0021085418339635035
sI1
Fnan
sI2
Fnan
sI3
Fnan
sI4
Fnan
sI5
Fnan
sI6
Fnan
sI7
Fnan
sI8
Fnan
sI9
Fnan
sI10
Fnan
sI11
Fnan
sI12
Fnan
sI13
Fnan
sI14
Fnan
ssS'ref2magmeanerr'
p50
(dp51
I0
F0.03194295510675831
sI1
Fnan
sI2
Fnan
sI3
Fnan
sI4
Fnan
sI5
Fnan
sI6
Fnan
sI7
Fnan
sI8
Fnan
sI9
Fnan
sI10
Fnan
sI11
Fnan
sI12
Fnan
sI13
Fnan
sI14
Fnan
ssS'ref2rmsmean'
p52
(dp53
I0
F2.5593639333333327
sI1
Fnan
sI2
Fnan
sI3
Fnan
sI4
Fnan
sI5
Fnan
sI6
Fnan
sI7
Fnan
sI8
Fnan
sI9
Fnan
sI10
Fnan
sI11
Fnan
sI12
Fnan
sI13
Fnan
sI14
Fnan
ssS'ref3rel'
p54
(dp55
I0
F1.5014461382248117
sI1
F1.4974897270192054
sI2
F1.4990966185317443
sI3
F1.4967872125750092
sI4
F1.495289461979407
sI5
F1.4968086527847926
sI6
F1.5018354103699807
sI7
F1.4958574312896138
sI8
F1.4998094368770107
sI9
F1.5044975306189343
sI10
F1.49455726716163
sI11
F1.502406309384448
sI12
F1.4984647592018236
sI13
F1.4992808870542653
sI14
F1.5042872706427755
ssS'ref1flag'
p56
(dp57
I0
g7
sI1
g8
sI2
g9
sI3
g10
sI4
g11
sI5
g12
sI6
g13
sI7
g14
sI8
g15
sI9
g16
sI10
g17
sI11
g18
sI12
g19
sI13
g20
sI14
g21
ssS'ref2bkg'
p58
(dp59
I0
F94.58859
sI1
F97.99447
sI2
F72.4515
sI3
F90.79159
sI4
F95.7215
sI5
F93.78258
sI6
F73.3429
sI7
F93.99817
sI8
F74.49338
sI9
F74.61916
sI10
F92.52287
sI11
F77.40381
sI12
F92.14418
sI13
F96.23349
sI14
F92.19161
ssS'ref3magmean'
p60
(dp61
I0
F10.7752
sI1
Fnan
sI2
Fnan
sI3
Fnan
sI4
Fnan
sI5
Fnan
sI6
Fnan
sI7
Fnan
sI8
Fnan
sI9
Fnan
sI10
Fnan
sI11
Fnan
sI12
Fnan
sI13
Fnan
sI14
Fnan
ssS'ref1mean'
p62
(dp63
I0
F0.6972556490253669
sI1
Fnan
sI2
Fnan
sI3
Fnan
sI4
Fnan
sI5
Fnan
sI6
Fnan
sI7
Fnan
sI8
Fnan
sI9
Fnan
sI10
Fnan
sI11
Fnan
sI12
Fnan
sI13
Fnan
sI14
Fnan
ssS'ref1rms'
p64
(dp65
I0
F-4.492732
sI1
F5.039577
sI2
F-4.739901
sI3
F5.110664
sI4
F-3.849472
sI5
F3.551194
sI6
F4.763338
sI7
F2.976422
sI8
F3.991323
sI9
F2.915551
sI10
F4.670998
sI11
F-1.901891
sI12
F-3.260607
sI13
F4.598826
sI14
F-2.892361
ssS'ref2magmean'
p66
(dp67
I0
F11.115933333333333
sI1
Fnan
sI2
Fnan
sI3
Fnan
sI4
Fnan
sI5
Fnan
sI6
Fnan
sI7
Fnan
sI8
Fnan
sI9
Fnan
sI10
Fnan
sI11
Fnan
sI12
Fnan
sI13
Fnan
sI14
Fnan
ssS'ref2flag'
p68
(dp69
I0
g7
sI1
g8
sI2
g9
sI3
g10
sI4
g11
sI5
g12
sI6
g13
sI7
g14
sI8
g15
sI9
g16
sI10
g17
sI11
g18
sI12
g19
sI13
g20
sI14
g21
ssS'ref2'
p70
(dp71
I0
F8550.436666666666
sI1
F9028.41
sI2
F9123.523333333334
sI3
F9080.523333333334
sI4
F8800.573333333334
sI5
F9321.986666666666
sI6
F9347.873333333333
sI7
F9226.876666666667
sI8
F9171.016666666666
sI9
F8794.446666666667
sI10
F9197.053333333333
sI11
F8630.27
sI12
F8604.73
sI13
F8883.783333333333
sI14
F9104.106666666667
ssS'airmass'
p72
(dp73
I0
F1.772498
sI1
F1.749309
sI2
F1.446282
sI3
F1.577465
sI4
F1.7646580000000003
sI5
F1.595569
sI6
F1.45594
sI7
F1.6016920000000001
sI8
F1.4608700000000001
sI9
F1.4414850000000001
sI10
F1.589486
sI11
F1.451123
sI12
F1.780362
sI13
F1.7569139999999999
sI14
F1.583369
ssS'ref1'
p74
(dp75
I0
F7088.916666666667
sI1
F7430.623333333334
sI2
F7510.276666666667
sI3
F7427.986666666667
sI4
F7237.2266666666665
sI5
F7691.7266666666665
sI6
F7740.04
sI7
F7660.793333333333
sI8
F7568.843333333333
sI9
F7262.883333333333
sI10
F7614.966666666666
sI11
F7130.38
sI12
F7072.506666666667
sI13
F7374.673333333334
sI14
F7555.676666666666
ssS'ref3'
p76
(dp77
I0
F11740.823333333334
sI1
F12323.616666666667
sI2
F12467.836666666666
sI3
F12354.863333333335
sI4
F11990.576666666666
sI5
F12733.136666666665
sI6
F12831.616666666667
sI7
F12630.773333333334
sI8
F12553.3
sI9
F12079.106666666667
sI10
F12563.263333333334
sI11
F11839.45
sI12
F11745.893333333333
sI13
F12187.996666666668
sI14
F12530.55
ssS'ref1bkg'
p78
(dp79
I0
F73.78867
sI1
F73.5248
sI2
F58.22622
sI3
F72.29668
sI4
F72.95461
sI5
F71.39235
sI6
F56.90933
sI7
F72.36349
sI8
F59.25105
sI9
F58.96367
sI10
F70.75708
sI11
F61.38973
sI12
F71.96714
sI13
F73.43222
sI14
F71.39376
ssS'ref1mag'
p80
(dp81
I0
F11.374
sI1
F11.322
sI2
F11.311
sI3
F11.323
sI4
F11.351
sI5
F11.285
sI6
F11.278
sI7
F11.289
sI8
F11.302
sI9
F11.347
sI10
F11.296
sI11
F11.367
sI12
F11.376
sI13
F11.331
sI14
F11.304
ssS'ref3magerr'
p82
(dp83
I0
F0.002
sI1
F0.002
sI2
F0.002
sI3
F0.002
sI4
F0.002
sI5
F0.002
sI6
F0.002
sI7
F0.002
sI8
F0.002
sI9
F0.002
sI10
F0.002
sI11
F0.002
sI12
F0.002
sI13
F0.002
sI14
F0.002
ssS'tabbymagmean'
p84
(dp85
I0
F0.44113027227449475
sI1
Fnan
sI2
Fnan
sI3
Fnan
sI4
Fnan
sI5
Fnan
sI6
Fnan
sI7
Fnan
sI8
Fnan
sI9
Fnan
sI10
Fnan
sI11
Fnan
sI12
Fnan
sI13
Fnan
sI14
Fnan
ssS'ref1magmean'
p86
(dp87
I0
F11.323733333333333
sI1
Fnan
sI2
Fnan
sI3
Fnan
sI4
Fnan
sI5
Fnan
sI6
Fnan
sI7
Fnan
sI8
Fnan
sI9
Fnan
sI10
Fnan
sI11
Fnan
sI12
Fnan
sI13
Fnan
sI14
Fnan
ssS'ref2mag'
p88
(dp89
I0
F11.17
sI1
F11.111
sI2
F11.1
sI3
F11.105
sI4
F11.139
sI5
F11.076
sI6
F11.073
sI7
F11.087
sI8
F11.094
sI9
F11.139
sI10
F11.091
sI11
F11.16
sI12
F11.163
sI13
F11.129
sI14
F11.102
ssS'ref3rms'
p90
(dp91
I0
F6.008529
sI1
F5.517246
sI2
F-3.502784
sI3
F5.468279
sI4
F1.95404
sI5
F6.311771
sI6
F4.795624
sI7
F-4.138144
sI8
F-0.7528279
sI9
F4.742023
sI10
F2.413849
sI11
F4.918242
sI12
F6.160867
sI13
F1.554744
sI14
F6.613886
ssS'ref3magmeanerr'
p92
(dp93
I0
F0.03174946568729271
sI1
Fnan
sI2
Fnan
sI3
Fnan
sI4
Fnan
sI5
Fnan
sI6
Fnan
sI7
Fnan
sI8
Fnan
sI9
Fnan
sI10
Fnan
sI11
Fnan
sI12
Fnan
sI13
Fnan
sI14
Fnan
ssS'ref1rel'
p94
(dp95
I0
F0.6987162617468473
sI1
F0.6960110578105936
sI2
F0.6956742573572638
sI3
F0.6930583322033222
sI4
F0.6961833921323896
sI5
F0.6975002180143481
sI6
F0.6979457147121058
sI7
F0.7009713609041532
sI8
F0.6968084151476955
sI9
F0.6958933361609412
sI10
F0.6998948391529228
sI11
F0.6966758705053122
sI12
F0.6950653599963441
sI13
F0.6999573204858189
sI14
F0.6984789990504433
ssS'exposure'
p96
(dp97
I0
F30.0
sI1
F30.0
sI2
F30.0
sI3
F30.0
sI4
F30.0
sI5
F30.0
sI6
F30.0
sI7
F30.0
sI8
F30.0
sI9
F30.0
sI10
F30.0
sI11
F30.0
sI12
F30.0
sI13
F30.0
sI14
F30.0
ssS'ref1magerr'
p98
(dp99
I0
F0.002
sI1
F0.002
sI2
F0.002
sI3
F0.002
sI4
F0.002
sI5
F0.002
sI6
F0.002
sI7
F0.002
sI8
F0.002
sI9
F0.002
sI10
F0.002
sI11
F0.002
sI12
F0.002
sI13
F0.002
sI14
F0.002
ssS'ref2magerr'
p100
(dp101
I0
F0.002
sI1
F0.002
sI2
F0.002
sI3
F0.002
sI4
F0.002
sI5
F0.002
sI6
F0.002
sI7
F0.002
sI8
F0.002
sI9
F0.002
sI10
F0.002
sI11
F0.002
sI12
F0.002
sI13
F0.002
sI14
F0.002
ssS'ref2rms'
p102
(dp103
I0
F3.500653
sI1
F4.942538
sI2
F6.897402
sI3
F2.542203
sI4
F-3.647465
sI5
F5.064119
sI6
F5.633696
sI7
F6.149774
sI8
F3.315933
sI9
F-3.594764
sI10
F3.872154
sI11
F3.993677
sI12
F2.633384
sI13
F2.379496
sI14
F-5.292341
ssS'name'
p104
(dp105
I0
S"KIC8462852-20181021at065330_-25-1X1-030-i'_cal.fts.mag.1"
p106
sI1
S"KIC8462852-20181021at065018_-25-1X1-030-i'_cal.fts.mag.1"
p107
sI2
S"KIC8462852-20181021at055724_-25-1X1-030-i'_cal.fts.mag.1"
p108
sI3
S"KIC8462852-20181021at062321_-25-1X1-030-i'_cal.fts.mag.1"
p109
sI4
S"KIC8462852-20181021at065226_-25-1X1-030-i'_cal.fts.mag.1"
p110
sI5
S"KIC8462852-20181021at062633_-25-1X1-030-i'_cal.fts.mag.1"
p111
sI6
S"KIC8462852-20181021at055933_-25-1X1-030-i'_cal.fts.mag.1"
p112
sI7
S"KIC8462852-20181021at062736_-25-1X1-030-i'_cal.fts.mag.1"
p113
sI8
S"KIC8462852-20181021at060036_-25-1X1-030-i'_cal.fts.mag.1"
p114
sI9
S"KIC8462852-20181021at055619_-25-1X1-030-i'_cal.fts.mag.1"
p115
sI10
S"KIC8462852-20181021at062528_-25-1X1-030-i'_cal.fts.mag.1"
p116
sI11
S"KIC8462852-20181021at055829_-25-1X1-030-i'_cal.fts.mag.1"
p117
sI12
S"KIC8462852-20181021at065434_-25-1X1-030-i'_cal.fts.mag.1"
p118
sI13
S"KIC8462852-20181021at065123_-25-1X1-030-i'_cal.fts.mag.1"
p119
sI14
S"KIC8462852-20181021at062426_-25-1X1-030-i'_cal.fts.mag.1"
p120
ssS'ref3err'
p121
(dp122
I0
F0.0031580847339464156
sI1
Fnan
sI2
Fnan
sI3
Fnan
sI4
Fnan
sI5
Fnan
sI6
Fnan
sI7
Fnan
sI8
Fnan
sI9
Fnan
sI10
Fnan
sI11
Fnan
sI12
Fnan
sI13
Fnan
sI14
Fnan
ssS'tabby'
p123
(dp124
I0
F4038.44
sI1
F4238.553333333333
sI2
F4264.27
sI3
F4243.066666666667
sI4
F4095.8533333333335
sI5
F4375.656666666667
sI6
F4405.87
sI7
F4364.863333333333
sI8
F4344.7
sI9
F4088.35
sI10
F4352.38
sI11
F4015.483333333333
sI12
F4007.9433333333336
sI13
F4195.223333333333
sI14
F4323.09
ssS'ref1magmeanerr'
p125
(dp126
I0
F0.03280127755932407
sI1
Fnan
sI2
Fnan
sI3
Fnan
sI4
Fnan
sI5
Fnan
sI6
Fnan
sI7
Fnan
sI8
Fnan
sI9
Fnan
sI10
Fnan
sI11
Fnan
sI12
Fnan
sI13
Fnan
sI14
Fnan
ssS'filter'
p127
(dp128
I0
S"i'"
p129
sI1
S"i'"
p130
sI2
S"i'"
p131
sI3
S"i'"
p132
sI4
S"i'"
p133
sI5
S"i'"
p134
sI6
S"i'"
p135
sI7
S"i'"
p136
sI8
S"i'"
p137
sI9
S"i'"
p138
sI10
S"i'"
p139
sI11
S"i'"
p140
sI12
S"i'"
p141
sI13
S"i'"
p142
sI14
S"i'"
p143
ssS'tabbymagerr'
p144
(dp145
I0
F0.0028348491864093497
sI1
Fnan
sI2
Fnan
sI3
Fnan
sI4
Fnan
sI5
Fnan
sI6
Fnan
sI7
Fnan
sI8
Fnan
sI9
Fnan
sI10
Fnan
sI11
Fnan
sI12
Fnan
sI13
Fnan
sI14
Fnan
ssS'tabbyrms'
p146
(dp147
I0
F5.942107
sI1
F2.752301
sI2
F4.03034
sI3
F-4.993141
sI4
F3.778086
sI5
F4.409247
sI6
F5.402401
sI7
F2.270432
sI8
F5.456377
sI9
F-4.147538
sI10
F4.344779
sI11
F-4.402081
sI12
F-5.169049
sI13
F4.646949
sI14
F4.024245
ssS'ref3mean'
p148
(dp149
I0
F1.4991942742476965
sI1
Fnan
sI2
Fnan
sI3
Fnan
sI4
Fnan
sI5
Fnan
sI6
Fnan
sI7
Fnan
sI8
Fnan
sI9
Fnan
sI10
Fnan
sI11
Fnan
sI12
Fnan
sI13
Fnan
sI14
Fnan
ssS'median_JD'
p150
(dp151
I0
F2458412.767696759
sI1
Fnan
sI2
Fnan
sI3
Fnan
sI4
Fnan
sI5
Fnan
sI6
Fnan
sI7
Fnan
sI8
Fnan
sI9
Fnan
sI10
Fnan
sI11
Fnan
sI12
Fnan
sI13
Fnan
sI14
Fnan
ssS'error'
p152
(dp153
I0
F0.0028348491864093497
sI1
Fnan
sI2
Fnan
sI3
Fnan
sI4
Fnan
sI5
Fnan
sI6
Fnan
sI7
Fnan
sI8
Fnan
sI9
Fnan
sI10
Fnan
sI11
Fnan
sI12
Fnan
sI13
Fnan
sI14
Fnan
ssS'ref3bkg'
p154
(dp155
I0
F88.94184
sI1
F91.9817
sI2
F72.36443
sI3
F88.03791
sI4
F90.66363
sI5
F89.19011
sI6
F71.65161
sI7
F91.12997
sI8
F73.05032
sI9
F72.35043
sI10
F89.24634
sI11
F76.63907
sI12
F87.19992
sI13
F91.59306
sI14
F86.57894
ssS'ref3mag'
p156
(dp157
I0
F10.826
sI1
F10.773
sI2
F10.761
sI3
F10.77
sI4
F10.803
sI5
F10.738
sI6
F10.729
sI7
F10.746
sI8
F10.753
sI9
F10.795
sI10
F10.752
sI11
F10.817
sI12
F10.825
sI13
F10.785
sI14
F10.755
ssS'mean'
p158
(dp159
I0
F0.44113027227449475
sI1
Fnan
sI2
Fnan
sI3
Fnan
sI4
Fnan
sI5
Fnan
sI6
Fnan
sI7
Fnan
sI8
Fnan
sI9
Fnan
sI10
Fnan
sI11
Fnan
sI12
Fnan
sI13
Fnan
sI14
Fnan
sssS'r'
p160
(dp161
g3
(dp162
I0
F0.5512438804280009
sI1
Fnan
sI2
Fnan
sI3
Fnan
sI4
Fnan
sI5
Fnan
sI6
Fnan
sI7
Fnan
sI8
Fnan
sI9
Fnan
sI10
Fnan
sI11
Fnan
sI12
Fnan
sI13
Fnan
sI14
Fnan
ssg5
(dp163
I0
S'NoError'
p164
sI1
S'NoError'
p165
sI2
S'NoError'
p166
sI3
S'NoError'
p167
sI4
S'NoError'
p168
sI5
S'NoError'
p169
sI6
S'NoError'
p170
sI7
S'NoError'
p171
sI8
S'NoError'
p172
sI9
S'NoError'
p173
sI10
S'NoError'
p174
sI11
S'NoError'
p175
sI12
S'NoError'
p176
sI13
S'NoError'
p177
sI14
S'NoError'
p178
ssg22
(dp179
I0
F0.002
sI1
F0.002
sI2
F0.002
sI3
F0.002
sI4
F0.002
sI5
F0.002
sI6
F0.002
sI7
F0.002
sI8
F0.002
sI9
F0.002
sI10
F0.002
sI11
F0.002
sI12
F0.002
sI13
F0.002
sI14
F0.002
ssg24
(dp180
I0
F0.8959258998480101
sI1
F0.8901468939890866
sI2
F0.8971002668490287
sI3
F0.891786585530358
sI4
F0.8949222671938181
sI5
F0.8979166776923075
sI6
F0.8947804163091619
sI7
F0.8948980518460433
sI8
F0.8967717535204168
sI9
F0.8957468271892081
sI10
F0.897773606553492
sI11
F0.8989355088335395
sI12
F0.8984359949673368
sI13
F0.8957587137359247
sI14
F0.8941839022565128
ssg26
(dp181
I0
F0.002403363213732624
sI1
Fnan
sI2
Fnan
sI3
Fnan
sI4
Fnan
sI5
Fnan
sI6
Fnan
sI7
Fnan
sI8
Fnan
sI9
Fnan
sI10
Fnan
sI11
Fnan
sI12
Fnan
sI13
Fnan
sI14
Fnan
ssg28
(dp182
I0
F0.8956722244209497
sI1
Fnan
sI2
Fnan
sI3
Fnan
sI4
Fnan
sI5
Fnan
sI6
Fnan
sI7
Fnan
sI8
Fnan
sI9
Fnan
sI10
Fnan
sI11
Fnan
sI12
Fnan
sI13
Fnan
sI14
Fnan
ssg30
(dp183
I0
F11.28
sI1
F11.258
sI2
F11.227
sI3
F11.266
sI4
F11.228
sI5
F11.213
sI6
F11.26
sI7
F11.24
sI8
F11.223
sI9
F11.21
sI10
F11.246
sI11
F11.243
sI12
F11.238
sI13
F11.242
sI14
F11.251
ssg32
(dp184
I0
F101.7558
sI1
F91.82265
sI2
F75.74709
sI3
F99.24033
sI4
F76.52299
sI5
F73.96822
sI6
F100.4602
sI7
F89.12132
sI8
F75.33562
sI9
F72.67013
sI10
F89.73668
sI11
F96.61491
sI12
F90.91928
sI13
F99.47184
sI14
F90.91488
ssg34
(dp185
I0
F2458412.7827314814
sI1
F2458412.765474537
sI2
F2458412.7452314813
sI3
F2458412.7834722223
sI4
F2458412.746701389
sI5
F2458412.744502315
sI6
F2458412.782002315
sI7
F2458412.7625578702
sI8
F2458412.745972222
sI9
F2458412.743761574
sI10
F2458412.763287037
sI11
F2458412.7842013887
sI12
F2458412.7640162036
sI13
F2458412.781261574
sI14
F2458412.7647453705
ssg36
(dp186
I0
F3.8085063333333324
sI1
Fnan
sI2
Fnan
sI3
Fnan
sI4
Fnan
sI5
Fnan
sI6
Fnan
sI7
Fnan
sI8
Fnan
sI9
Fnan
sI10
Fnan
sI11
Fnan
sI12
Fnan
sI13
Fnan
sI14
Fnan
ssg38
(dp187
I0
F2.901769666666667
sI1
Fnan
sI2
Fnan
sI3
Fnan
sI4
Fnan
sI5
Fnan
sI6
Fnan
sI7
Fnan
sI8
Fnan
sI9
Fnan
sI10
Fnan
sI11
Fnan
sI12
Fnan
sI13
Fnan
sI14
Fnan
ssg40
(dp188
I0
F0.5509871161698879
sI1
F0.5531375056067596
sI2
F0.5522474416181598
sI3
F0.5500554183552995
sI4
F0.5509509651355334
sI5
F0.5511589168380666
sI6
F0.5497263687807895
sI7
F0.5507471927323583
sI8
F0.5504307599484606
sI9
F0.5535359568522252
sI10
F0.5537413168955286
sI11
F0.5518732668417463
sI12
F0.5522683200682434
sI13
F0.5490512166164819
sI14
F0.5485857766587763
ssg42
(dp189
I0
F0.0012674030833073914
sI1
Fnan
sI2
Fnan
sI3
Fnan
sI4
Fnan
sI5
Fnan
sI6
Fnan
sI7
Fnan
sI8
Fnan
sI9
Fnan
sI10
Fnan
sI11
Fnan
sI12
Fnan
sI13
Fnan
sI14
Fnan
ssg44
(dp190
I0
F2.4609557666666664
sI1
Fnan
sI2
Fnan
sI3
Fnan
sI4
Fnan
sI5
Fnan
sI6
Fnan
sI7
Fnan
sI8
Fnan
sI9
Fnan
sI10
Fnan
sI11
Fnan
sI12
Fnan
sI13
Fnan
sI14
Fnan
ssg46
(dp191
I0
g164
sI1
g165
sI2
g166
sI3
g167
sI4
g168
sI5
g169
sI6
g170
sI7
g171
sI8
g172
sI9
g173
sI10
g174
sI11
g175
sI12
g176
sI13
g177
sI14
g178
ssg48
(dp192
I0
F0.002361474119176509
sI1
Fnan
sI2
Fnan
sI3
Fnan
sI4
Fnan
sI5
Fnan
sI6
Fnan
sI7
Fnan
sI8
Fnan
sI9
Fnan
sI10
Fnan
sI11
Fnan
sI12
Fnan
sI13
Fnan
sI14
Fnan
ssg50
(dp193
I0
F0.019682721453333715
sI1
Fnan
sI2
Fnan
sI3
Fnan
sI4
Fnan
sI5
Fnan
sI6
Fnan
sI7
Fnan
sI8
Fnan
sI9
Fnan
sI10
Fnan
sI11
Fnan
sI12
Fnan
sI13
Fnan
sI14
Fnan
ssg52
(dp194
I0
F5.252509066666666
sI1
Fnan
sI2
Fnan
sI3
Fnan
sI4
Fnan
sI5
Fnan
sI6
Fnan
sI7
Fnan
sI8
Fnan
sI9
Fnan
sI10
Fnan
sI11
Fnan
sI12
Fnan
sI13
Fnan
sI14
Fnan
ssg54
(dp195
I0
F1.4914744698642195
sI1
F1.5020713420563296
sI2
F1.4905524617059382
sI3
F1.4936547108807636
sI4
F1.5008247740002885
sI5
F1.4933439505497421
sI6
F1.4924406647504704
sI7
F1.4948734178734588
sI8
F1.4926751845466337
sI9
F1.4890397434661762
sI10
F1.4955534508220507
sI11
F1.4935034892342234
sI12
F1.4959334893417677
sI13
F1.49182635377576
sI14
F1.4915333219137796
ssg56
(dp196
I0
g164
sI1
g165
sI2
g166
sI3
g167
sI4
g168
sI5
g169
sI6
g170
sI7
g171
sI8
g172
sI9
g173
sI10
g174
sI11
g175
sI12
g176
sI13
g177
sI14
g178
ssg58
(dp197
I0
F115.0542
sI1
F104.357
sI2
F84.62439
sI3
F112.7633
sI4
F84.54445
sI5
F81.71257
sI6
F114.1488
sI7
F101.3583
sI8
F84.02129
sI9
F80.96924
sI10
F102.759
sI11
F110.4219
sI12
F101.3702
sI13
F113.1737
sI14
F103.5558
ssg60
(dp198
I0
F10.324733333333334
sI1
Fnan
sI2
Fnan
sI3
Fnan
sI4
Fnan
sI5
Fnan
sI6
Fnan
sI7
Fnan
sI8
Fnan
sI9
Fnan
sI10
Fnan
sI11
Fnan
sI12
Fnan
sI13
Fnan
sI14
Fnan
ssg62
(dp199
I0
F0.7140905445705024
sI1
Fnan
sI2
Fnan
sI3
Fnan
sI4
Fnan
sI5
Fnan
sI6
Fnan
sI7
Fnan
sI8
Fnan
sI9
Fnan
sI10
Fnan
sI11
Fnan
sI12
Fnan
sI13
Fnan
sI14
Fnan
ssg64
(dp200
I0
F3.771655
sI1
F6.532447
sI2
F3.50665
sI3
F3.65874
sI4
F5.66499
sI5
F5.453804
sI6
F5.671904
sI7
F-4.367316
sI8
F3.820456
sI9
F-2.794102
sI10
F4.134242
sI11
F4.100801
sI12
F-3.781772
sI13
F5.347581
sI14
F2.806465
ssg66
(dp201
I0
F10.67613333333333
sI1
Fnan
sI2
Fnan
sI3
Fnan
sI4
Fnan
sI5
Fnan
sI6
Fnan
sI7
Fnan
sI8
Fnan
sI9
Fnan
sI10
Fnan
sI11
Fnan
sI12
Fnan
sI13
Fnan
sI14
Fnan
ssg68
(dp202
I0
g164
sI1
g165
sI2
g166
sI3
g167
sI4
g168
sI5
g169
sI6
g170
sI7
g171
sI8
g172
sI9
g173
sI10
g174
sI11
g175
sI12
g176
sI13
g177
sI14
g178
ssg70
(dp203
I0
F13021.246666666668
sI1
F13172.369999999999
sI2
F13647.336666666666
sI3
F13166.986666666666
sI4
F13641.996666666668
sI5
F13855.933333333332
sI6
F13277.263333333334
sI7
F13500.96
sI8
F13740.7
sI9
F13810.606666666667
sI10
F13385.726666666666
sI11
F13471.336666666666
sI12
F13524.75
sI13
F13519.883333333333
sI14
F13403.436666666666
ssg72
(dp204
I0
F1.7267169999999998
sI1
F1.571383
sI2
F1.4272719999999999
sI3
F1.7341520000000001
sI4
F1.4366
sI5
F1.422709
sI6
F1.7193990000000001
sI7
F1.548253
sI8
F1.431916
sI9
F1.418164
sI10
F1.553955
sI11
F1.7415599999999998
sI12
F1.559719
sI13
F1.7120810000000002
sI14
F1.5654700000000001
ssg74
(dp205
I0
F11088.3
sI1
F11252.213333333335
sI2
F11605.273333333334
sI3
F11275.293333333333
sI4
F11568.95
sI5
F11746.09
sI6
F11321.24
sI7
F11492.3
sI8
F11675.640000000001
sI9
F11781.859999999999
sI10
F11334.566666666668
sI11
F11399.45
sI12
F11436.863333333335
sI13
F11513.619999999999
sI14
F11446.726666666666
ssg76
(dp206
I0
F17979.386666666665
sI1
F18343.733333333334
sI2
F18820.17
sI3
F18254.163333333334
sI4
F18918.606666666667
sI5
F19116.313333333335
sI6
F18355.903333333332
sI7
F18680.88
sI8
F18969.17
sI9
F19054.1
sI10
F18485.260000000002
sI11
F18572.303333333333
sI12
F18670.456666666665
sI13
F18672.82
sI14
F18532.423333333332
ssg78
(dp207
I0
F98.41134
sI1
F90.76022
sI2
F74.48234
sI3
F94.7679
sI4
F74.1404
sI5
F72.8418
sI6
F97.91736
sI7
F87.06628
sI8
F74.0099
sI9
F72.06961
sI10
F87.59226
sI11
F92.48346
sI12
F89.07501
sI13
F94.72628
sI14
F89.15984
ssg80
(dp208
I0
F10.888
sI1
F10.872
sI2
F10.838
sI3
F10.87
sI4
F10.842
sI5
F10.825
sI6
F10.865
sI7
F10.849
sI8
F10.832
sI9
F10.822
sI10
F10.864
sI11
F10.858
sI12
F10.854
sI13
F10.847
sI14
F10.853
ssg82
(dp209
I0
F0.001
sI1
F0.001
sI2
F0.001
sI3
F0.001
sI4
F0.001
sI5
F0.001
sI6
F0.001
sI7
F0.001
sI8
F0.001
sI9
F0.001
sI10
F0.001
sI11
F0.001
sI12
F0.001
sI13
F0.001
sI14
F0.001
ssg84
(dp210
I0
F0.5512331692745545
sI1
Fnan
sI2
Fnan
sI3
Fnan
sI4
Fnan
sI5
Fnan
sI6
Fnan
sI7
Fnan
sI8
Fnan
sI9
Fnan
sI10
Fnan
sI11
Fnan
sI12
Fnan
sI13
Fnan
sI14
Fnan
ssg86
(dp211
I0
F10.851933333333335
sI1
Fnan
sI2
Fnan
sI3
Fnan
sI4
Fnan
sI5
Fnan
sI6
Fnan
sI7
Fnan
sI8
Fnan
sI9
Fnan
sI10
Fnan
sI11
Fnan
sI12
Fnan
sI13
Fnan
sI14
Fnan
ssg88
(dp212
I0
F10.713
sI1
F10.701
sI2
F10.662
sI3
F10.701
sI4
F10.663
sI5
F10.646
sI6
F10.692
sI7
F10.674
sI8
F10.655
sI9
F10.649
sI10
F10.683
sI11
F10.676
sI12
F10.672
sI13
F10.673
sI14
F10.682
ssg90
(dp213
I0
F6.374889
sI1
F4.68429
sI2
F6.175945
sI3
F7.019949
sI4
F6.783064
sI5
F-4.204306
sI6
F5.975731
sI7
F-3.996882
sI8
F4.989194
sI9
F6.508677
sI10
F4.607921
sI11
F-4.868853
sI12
F5.837233
sI13
F6.872992
sI14
F4.367751
ssg92
(dp214
I0
F0.018637392010481906
sI1
Fnan
sI2
Fnan
sI3
Fnan
sI4
Fnan
sI5
Fnan
sI6
Fnan
sI7
Fnan
sI8
Fnan
sI9
Fnan
sI10
Fnan
sI11
Fnan
sI12
Fnan
sI13
Fnan
sI14
Fnan
ssg94
(dp215
I0
F0.7153595786752743
sI1
F0.7140612032092378
sI2
F0.7148854054289356
sI3
F0.7176881389340194
sI4
F0.7106102968403227
sI5
F0.712483448200982
sI6
F0.7157829071807544
sI7
F0.7142102502529376
sI8
F0.7138909448432539
sI9
F0.7169916420979263
sI10
F0.7112780526823979
sI11
F0.7114953232529139
sI12
F0.7104699436624211
sI13
F0.7152937658440406
sI14
F0.7168572674521159
ssg96
(dp216
I0
F30.0
sI1
F30.0
sI2
F30.0
sI3
F30.0
sI4
F30.0
sI5
F30.0
sI6
F30.0
sI7
F30.0
sI8
F30.0
sI9
F30.0
sI10
F30.0
sI11
F30.0
sI12
F30.0
sI13
F30.0
sI14
F30.0
ssg98
(dp217
I0
F0.002
sI1
F0.002
sI2
F0.002
sI3
F0.002
sI4
F0.002
sI5
F0.002
sI6
F0.002
sI7
F0.002
sI8
F0.002
sI9
F0.002
sI10
F0.002
sI11
F0.002
sI12
F0.002
sI13
F0.002
sI14
F0.002
ssg100
(dp218
I0
F0.002
sI1
F0.002
sI2
F0.002
sI3
F0.002
sI4
F0.002
sI5
F0.002
sI6
F0.002
sI7
F0.002
sI8
F0.002
sI9
F0.002
sI10
F0.002
sI11
F0.002
sI12
F0.002
sI13
F0.002
sI14
F0.002
ssg102
(dp219
I0
F7.733781
sI1
F5.945823
sI2
F6.000697
sI3
F5.931364
sI4
F5.112571
sI5
F4.392077
sI6
F6.382241
sI7
F4.597826
sI8
F4.576867
sI9
F4.803809
sI10
F3.360957
sI11
F6.727854
sI12
F3.755917
sI13
F4.899339
sI14
F4.566513
ssg104
(dp220
I0
S"KIC8462852-20181021at064708_-25-1X1-030-r'_cal.fts.mag.1"
p221
sI1
S"KIC8462852-20181021at062217_-25-1X1-030-r'_cal.fts.mag.1"
p222
sI2
S"KIC8462852-20181021at055308_-25-1X1-030-r'_cal.fts.mag.1"
p223
sI3
S"KIC8462852-20181021at064812_-25-1X1-030-r'_cal.fts.mag.1"
p224
sI4
S"KIC8462852-20181021at055515_-25-1X1-030-r'_cal.fts.mag.1"
p225
sI5
S"KIC8462852-20181021at055205_-25-1X1-030-r'_cal.fts.mag.1"
p226
sI6
S"KIC8462852-20181021at064605_-25-1X1-030-r'_cal.fts.mag.1"
p227
sI7
S"KIC8462852-20181021at061803_-25-1X1-030-r'_cal.fts.mag.1"
p228
sI8
S"KIC8462852-20181021at055412_-25-1X1-030-r'_cal.fts.mag.1"
p229
sI9
S"KIC8462852-20181021at055059_-25-1X1-030-r'_cal.fts.mag.1"
p230
sI10
S"KIC8462852-20181021at061908_-25-1X1-030-r'_cal.fts.mag.1"
p231
sI11
S"KIC8462852-20181021at064915_-25-1X1-030-r'_cal.fts.mag.1"
p232
sI12
S"KIC8462852-20181021at062011_-25-1X1-030-r'_cal.fts.mag.1"
p233
sI13
S"KIC8462852-20181021at064500_-25-1X1-030-r'_cal.fts.mag.1"
p234
sI14
S"KIC8462852-20181021at062114_-25-1X1-030-r'_cal.fts.mag.1"
p235
ssg121
(dp236
I0
F0.0035583501334948485
sI1
Fnan
sI2
Fnan
sI3
Fnan
sI4
Fnan
sI5
Fnan
sI6
Fnan
sI7
Fnan
sI8
Fnan
sI9
Fnan
sI10
Fnan
sI11
Fnan
sI12
Fnan
sI13
Fnan
sI14
Fnan
ssg123
(dp237
I0
F7730.153333333334
sI1
F7885.586666666667
sI2
F8113.026666666667
sI3
F7828.47
sI4
F8104.406666666667
sI5
F8215.636666666667
sI6
F7871.056666666667
sI7
F8017.803333333333
sI8
F8143.716666666666
sI9
F8237.826666666666
sI10
F7974.9
sI11
F7991.693333333333
sI12
F8032.203333333334
sI13
F7999.003333333333
sI14
F7933.0233333333335
ssg125
(dp238
I0
F0.01838658931576683
sI1
Fnan
sI2
Fnan
sI3
Fnan
sI4
Fnan
sI5
Fnan
sI6
Fnan
sI7
Fnan
sI8
Fnan
sI9
Fnan
sI10
Fnan
sI11
Fnan
sI12
Fnan
sI13
Fnan
sI14
Fnan
ssg127
(dp239
I0
S"r'"
p240
sI1
S"r'"
p241
sI2
S"r'"
p242
sI3
S"r'"
p243
sI4
S"r'"
p244
sI5
S"r'"
p245
sI6
S"r'"
p246
sI7
S"r'"
p247
sI8
S"r'"
p248
sI9
S"r'"
p249
sI10
S"r'"
p250
sI11
S"r'"
p251
sI12
S"r'"
p252
sI13
S"r'"
p253
sI14
S"r'"
p254
ssg144
(dp255
I0
F0.0015625761948892358
sI1
Fnan
sI2
Fnan
sI3
Fnan
sI4
Fnan
sI5
Fnan
sI6
Fnan
sI7
Fnan
sI8
Fnan
sI9
Fnan
sI10
Fnan
sI11
Fnan
sI12
Fnan
sI13
Fnan
sI14
Fnan
ssg146
(dp256
I0
F3.138173
sI1
F2.117247
sI2
F3.627943
sI3
F-4.665923
sI4
F3.209288
sI5
F3.663578
sI6
F5.605602
sI7
F-2.170976
sI8
F4.804822
sI9
F5.129948
sI10
F0.8483055
sI11
F5.267476
sI12
F-3.894552
sI13
F4.480631
sI14
F5.752774
ssg148
(dp257
I0
F1.4939533883187734
sI1
Fnan
sI2
Fnan
sI3
Fnan
sI4
Fnan
sI5
Fnan
sI6
Fnan
sI7
Fnan
sI8
Fnan
sI9
Fnan
sI10
Fnan
sI11
Fnan
sI12
Fnan
sI13
Fnan
sI14
Fnan
ssg150
(dp258
I0
F2458412.7640162036
sI1
Fnan
sI2
Fnan
sI3
Fnan
sI4
Fnan
sI5
Fnan
sI6
Fnan
sI7
Fnan
sI8
Fnan
sI9
Fnan
sI10
Fnan
sI11
Fnan
sI12
Fnan
sI13
Fnan
sI14
Fnan
ssg152
(dp259
I0
F0.0015625761948892358
sI1
Fnan
sI2
Fnan
sI3
Fnan
sI4
Fnan
sI5
Fnan
sI6
Fnan
sI7
Fnan
sI8
Fnan
sI9
Fnan
sI10
Fnan
sI11
Fnan
sI12
Fnan
sI13
Fnan
sI14
Fnan
ssg154
(dp260
I0
F114.1537
sI1
F105.1848
sI2
F85.96784
sI3
F109.7651
sI4
F86.23758
sI5
F83.91438
sI6
F111.8041
sI7
F100.8225
sI8
F86.04853
sI9
F82.7612
sI10
F101.5774
sI11
F109.1975
sI12
F100.6703
sI13
F109.6244
sI14
F103.1959
ssg156
(dp261
I0
F10.363
sI1
F10.341
sI2
F10.313
sI3
F10.347
sI4
F10.308
sI5
F10.296
sI6
F10.341
sI7
F10.322
sI8
F10.305
sI9
F10.3
sI10
F10.333
sI11
F10.328
sI12
F10.322
sI13
F10.322
sI14
F10.33
ssg158
(dp262
I0
F0.5512331692745545
sI1
Fnan
sI2
Fnan
sI3
Fnan
sI4
Fnan
sI5
Fnan
sI6
Fnan
sI7
Fnan
sI8
Fnan
sI9
Fnan
sI10
Fnan
sI11
Fnan
sI12
Fnan
sI13
Fnan
sI14
Fnan
sssS'z'
p263
(dp264
g3
(dp265
I0
F0.37432022295539447
sI1
Fnan
sI2
Fnan
sI3
Fnan
sI4
Fnan
sI5
Fnan
sI6
Fnan
sI7
Fnan
sI8
Fnan
sI9
Fnan
sI10
Fnan
sI11
Fnan
sI12
Fnan
sI13
Fnan
sI14
Fnan
ssg5
(dp266
I0
S'NoError'
p267
sI1
S'NoError'
p268
sI2
S'NoError'
p269
sI3
S'NoError'
p270
sI4
S'NoError'
p271
sI5
S'NoError'
p272
sI6
S'NoError'
p273
sI7
S'NoError'
p274
sI8
S'NoError'
p275
sI9
S'NoError'
p276
sI10
S'NoError'
p277
sI11
S'NoError'
p278
sI12
S'NoError'
p279
sI13
S'NoError'
p280
sI14
S'NoError'
p281
ssg22
(dp282
I0
F0.008
sI1
F0.008
sI2
F0.008
sI3
F0.008
sI4
F0.008
sI5
F0.008
sI6
F0.008
sI7
F0.007
sI8
F0.008
sI9
F0.008
sI10
F0.008
sI11
F0.008
sI12
F0.008
sI13
F0.008
sI14
F0.008
ssg24
(dp283
I0
F0.9167923891752392
sI1
F0.9208032270915676
sI2
F0.9166755915355592
sI3
F0.911211272156492
sI4
F0.9156402872151683
sI5
F0.9175852052514503
sI6
F0.9238526754561215
sI7
F0.9168626847958766
sI8
F0.9124447133444193
sI9
F0.9195882546909646
sI10
F0.9103888425031965
sI11
F0.9112391031291974
sI12
F0.9279921742302856
sI13
F0.9115421724532864
sI14
F0.9139360822190747
ssg26
(dp284
I0
F0.005048939437932479
sI1
Fnan
sI2
Fnan
sI3
Fnan
sI4
Fnan
sI5
Fnan
sI6
Fnan
sI7
Fnan
sI8
Fnan
sI9
Fnan
sI10
Fnan
sI11
Fnan
sI12
Fnan
sI13
Fnan
sI14
Fnan
ssg28
(dp285
I0
F0.91643697834986
sI1
Fnan
sI2
Fnan
sI3
Fnan
sI4
Fnan
sI5
Fnan
sI6
Fnan
sI7
Fnan
sI8
Fnan
sI9
Fnan
sI10
Fnan
sI11
Fnan
sI12
Fnan
sI13
Fnan
sI14
Fnan
ssg30
(dp286
I0
F13.357
sI1
F13.317
sI2
F13.322
sI3
F13.291
sI4
F13.351
sI5
F13.287
sI6
F13.293
sI7
F13.252
sI8
F13.287
sI9
F13.307
sI10
F13.289
sI11
F13.287
sI12
F13.352
sI13
F13.339
sI14
F13.356
ssg32
(dp287
I0
F37.74275
sI1
F38.61762
sI2
F41.93083
sI3
F31.66325
sI4
F38.53476
sI5
F31.52276
sI6
F40.8163
sI7
F31.41938
sI8
F40.38024
sI9
F32.91884
sI10
F32.48026
sI11
F40.88689
sI12
F42.97483
sI13
F38.42049
sI14
F36.42653
ssg34
(dp288
I0
F2458412.7908680555
sI1
F2458412.789386574
sI2
F2458412.771388889
sI3
F2458412.753391204
sI4
F2458412.7886458333
sI5
F2458412.7511805557
sI6
F2458412.7721296297
sI7
F2458412.752638889
sI8
F2458412.7699074075
sI9
F2458412.7541203704
sI10
F2458412.751909722
sI11
F2458412.7706481484
sI12
F2458412.77287037
sI13
F2458412.7901273146
sI14
F2458412.7916087965
ssg36
(dp289
I0
F2.3515546
sI1
Fnan
sI2
Fnan
sI3
Fnan
sI4
Fnan
sI5
Fnan
sI6
Fnan
sI7
Fnan
sI8
Fnan
sI9
Fnan
sI10
Fnan
sI11
Fnan
sI12
Fnan
sI13
Fnan
sI14
Fnan
ssg38
(dp290
I0
F1.963839333333333
sI1
Fnan
sI2
Fnan
sI3
Fnan
sI4
Fnan
sI5
Fnan
sI6
Fnan
sI7
Fnan
sI8
Fnan
sI9
Fnan
sI10
Fnan
sI11
Fnan
sI12
Fnan
sI13
Fnan
sI14
Fnan
ssg40
(dp291
I0
F0.3715837070796699
sI1
F0.3768189291086597
sI2
F0.3701610827544509
sI3
F0.3759686761534478
sI4
F0.37714591545839204
sI5
F0.3731430092140575
sI6
F0.3773392357586099
sI7
F0.3806709229145591
sI8
F0.3715877216543132
sI9
F0.36914730351486097
sI10
F0.37358543721383414
sI11
F0.3832169828172567
sI12
F0.37657575434602747
sI13
F0.37105865427139234
sI14
F0.3756967719332473
ssg42
(dp292
I0
F0.0032176944223090117
sI1
Fnan
sI2
Fnan
sI3
Fnan
sI4
Fnan
sI5
Fnan
sI6
Fnan
sI7
Fnan
sI8
Fnan
sI9
Fnan
sI10
Fnan
sI11
Fnan
sI12
Fnan
sI13
Fnan
sI14
Fnan
ssg44
(dp293
I0
F3.3479452666666663
sI1
Fnan
sI2
Fnan
sI3
Fnan
sI4
Fnan
sI5
Fnan
sI6
Fnan
sI7
Fnan
sI8
Fnan
sI9
Fnan
sI10
Fnan
sI11
Fnan
sI12
Fnan
sI13
Fnan
sI14
Fnan
ssg46
(dp294
I0
g267
sI1
g268
sI2
g269
sI3
g270
sI4
g271
sI5
g272
sI6
g273
sI7
g274
sI8
g275
sI9
g276
sI10
g277
sI11
g278
sI12
g279
sI13
g280
sI14
g281
ssg48
(dp295
I0
F0.005697855687764067
sI1
Fnan
sI2
Fnan
sI3
Fnan
sI4
Fnan
sI5
Fnan
sI6
Fnan
sI7
Fnan
sI8
Fnan
sI9
Fnan
sI10
Fnan
sI11
Fnan
sI12
Fnan
sI13
Fnan
sI14
Fnan
ssg50
(dp296
I0
F0.03028829728428048
sI1
Fnan
sI2
Fnan
sI3
Fnan
sI4
Fnan
sI5
Fnan
sI6
Fnan
sI7
Fnan
sI8
Fnan
sI9
Fnan
sI10
Fnan
sI11
Fnan
sI12
Fnan
sI13
Fnan
sI14
Fnan
ssg52
(dp297
I0
F1.0211432666666664
sI1
Fnan
sI2
Fnan
sI3
Fnan
sI4
Fnan
sI5
Fnan
sI6
Fnan
sI7
Fnan
sI8
Fnan
sI9
Fnan
sI10
Fnan
sI11
Fnan
sI12
Fnan
sI13
Fnan
sI14
Fnan
ssg54
(dp298
I0
F1.5100157097465852
sI1
F1.496493873725035
sI2
F1.5191890242584212
sI3
F1.504373095437457
sI4
F1.5078327919738304
sI5
F1.506394670493675
sI6
F1.512836144340888
sI7
F1.5073384036927864
sI8
F1.496953539384362
sI9
F1.5106732961867195
sI10
F1.5067991471346176
sI11
F1.5152656728947074
sI12
F1.504327981673533
sI13
F1.5086614888472587
sI14
F1.4993547637575548
ssg56
(dp299
I0
g267
sI1
g268
sI2
g269
sI3
g270
sI4
g271
sI5
g272
sI6
g273
sI7
g274
sI8
g275
sI9
g276
sI10
g277
sI11
g278
sI12
g279
sI13
g280
sI14
g281
ssg58
(dp300
I0
F44.16524
sI1
F46.19002
sI2
F49.84338
sI3
F39.75278
sI4
F47.53646
sI5
F39.08071
sI6
F50.06133
sI7
F39.42063
sI8
F48.92068
sI9
F40.09258
sI10
F39.20333
sI11
F49.77752
sI12
F52.53034
sI13
F45.9432
sI14
F43.63189
ssg60
(dp301
I0
F11.971533333333332
sI1
Fnan
sI2
Fnan
sI3
Fnan
sI4
Fnan
sI5
Fnan
sI6
Fnan
sI7
Fnan
sI8
Fnan
sI9
Fnan
sI10
Fnan
sI11
Fnan
sI12
Fnan
sI13
Fnan
sI14
Fnan
ssg62
(dp302
I0
F0.6883407551941657
sI1
Fnan
sI2
Fnan
sI3
Fnan
sI4
Fnan
sI5
Fnan
sI6
Fnan
sI7
Fnan
sI8
Fnan
sI9
Fnan
sI10
Fnan
sI11
Fnan
sI12
Fnan
sI13
Fnan
sI14
Fnan
ssg64
(dp303
I0
F-3.409534
sI1
F4.65858
sI2
F-5.441688
sI3
F1.437782
sI4
F4.206808
sI5
F1.761458
sI6
F4.335092
sI7
F5.175838
sI8
F4.376991
sI9
F2.959464
sI10
F1.333043
sI11
F3.341341
sI12
F-3.312549
sI13
F4.878658
sI14
F3.156306
ssg66
(dp304
I0
F12.311333333333332
sI1
Fnan
sI2
Fnan
sI3
Fnan
sI4
Fnan
sI5
Fnan
sI6
Fnan
sI7
Fnan
sI8
Fnan
sI9
Fnan
sI10
Fnan
sI11
Fnan
sI12
Fnan
sI13
Fnan
sI14
Fnan
ssg68
(dp305
I0
g267
sI1
g268
sI2
g269
sI3
g270
sI4
g271
sI5
g272
sI6
g273
sI7
g274
sI8
g275
sI9
g276
sI10
g277
sI11
g278
sI12
g279
sI13
g280
sI14
g281
ssg70
(dp306
I0
F2894.999333333333
sI1
F2970.8353333333334
sI2
F3001.422
sI3
F3026.927666666667
sI4
F2866.389333333333
sI5
F3076.9696666666664
sI6
F3039.665
sI7
F3112.4453333333336
sI8
F3077.803
sI9
F3056.961333333333
sI10
F3051.1940000000004
sI11
F2980.618
sI12
F2893.3906666666667
sI13
F2934.588333333333
sI14
F2859.385666666667
ssg72
(dp307
I0
F1.813087
sI1
F1.796644
sI2
F1.620833
sI3
F1.481021
sI4
F1.788646
sI5
F1.465912
sI6
F1.627233
sI7
F1.4759520000000002
sI8
F1.60806
sI9
F1.486126
sI10
F1.4708860000000001
sI11
F1.614355
sI12
F1.6336190000000002
sI13
F1.804827
sI14
F1.821339
ssg74
(dp308
I0
F2353.1226666666666
sI1
F2419.4440000000004
sI2
F2425.9166666666665
sI3
F2492.275
sI4
F2337.5873333333334
sI5
F2503.4846666666663
sI6
F2437.434
sI7
F2533.8779999999997
sI8
F2540.8483333333334
sI9
F2472.1803333333332
sI10
F2511.8566666666666
sI11
F2437.191
sI12
F2316.851666666667
sI13
F2408.373
sI14
F2351.109
ssg76
(dp309
I0
F3962.3733333333334
sI1
F4033.26
sI2
F4122.576666666667
sI3
F4151.47
sI4
F3923.3633333333332
sI5
F4203.183333333333
sI6
F4142.9766666666665
sI7
F4255.46
sI8
F4205.429999999999
sI9
F4176.363333333333
sI10
F4191.2
sI11
F4104.71
sI12
F3918.9566666666665
sI13
F4030.36
sI14
F3906.19
ssg78
(dp310
I0
F36.129
sI1
F36.91388
sI2
F40.99327
sI3
F30.18618
sI4
F38.0125
sI5
F30.54711
sI6
F39.78658
sI7
F30.54536
sI8
F37.55845
sI9
F31.93295
sI10
F30.6724
sI11
F39.4889
sI12
F42.17498
sI13
F36.35915
sI14
F36.00033
ssg80
(dp311
I0
F12.571
sI1
F12.541
sI2
F12.538
sI3
F12.509
sI4
F12.578
sI5
F12.504
sI6
F12.533
sI7
F12.491
sI8
F12.488
sI9
F12.517
sI10
F12.5
sI11
F12.533
sI12
F12.588
sI13
F12.546
sI14
F12.572
ssg82
(dp312
I0
F0.003
sI1
F0.003
sI2
F0.003
sI3
F0.003
sI4
F0.003
sI5
F0.003
sI6
F0.003
sI7
F0.003
sI8
F0.003
sI9
F0.003
sI10
F0.003
sI11
F0.003
sI12
F0.003
sI13
F0.003
sI14
F0.003
ssg84
(dp313
I0
F0.3749133402795186
sI1
Fnan
sI2
Fnan
sI3
Fnan
sI4
Fnan
sI5
Fnan
sI6
Fnan
sI7
Fnan
sI8
Fnan
sI9
Fnan
sI10
Fnan
sI11
Fnan
sI12
Fnan
sI13
Fnan
sI14
Fnan
ssg86
(dp314
I0
F12.533933333333332
sI1
Fnan
sI2
Fnan
sI3
Fnan
sI4
Fnan
sI5
Fnan
sI6
Fnan
sI7
Fnan
sI8
Fnan
sI9
Fnan
sI10
Fnan
sI11
Fnan
sI12
Fnan
sI13
Fnan
sI14
Fnan
ssg88
(dp315
I0
F12.346
sI1
F12.318
sI2
F12.307
sI3
F12.297
sI4
F12.357
sI5
F12.28
sI6
F12.293
sI7
F12.267
sI8
F12.279
sI9
F12.287
sI10
F12.289
sI11
F12.314
sI12
F12.346
sI13
F12.331
sI14
F12.359
ssg90
(dp316
I0
F3.996845
sI1
F3.108153
sI2
F4.275731
sI3
F4.89313
sI4
F3.854162
sI5
F-2.305299
sI6
F-1.759882
sI7
F4.519778
sI8
F2.354991
sI9
F5.011716
sI10
F3.700845
sI11
F4.857791
sI12
F4.062056
sI13
F-1.657354
sI14
F-3.639344
ssg92
(dp317
I0
F0.03142307311211807
sI1
Fnan
sI2
Fnan
sI3
Fnan
sI4
Fnan
sI5
Fnan
sI6
Fnan
sI7
Fnan
sI8
Fnan
sI9
Fnan
sI10
Fnan
sI11
Fnan
sI12
Fnan
sI13
Fnan
sI14
Fnan
ssg94
(dp318
I0
F0.6863044437135739
sI1
F0.6908655250551987
sI2
F0.6810547784118993
sI3
F0.6943819820885747
sI4
F0.6885633242015984
sI5
F0.6877560586066436
sI6
F0.6787012670593573
sI7
F0.6878150262155014
sI8
F0.6977254011599886
sI9
F0.683552984902194
sI10
F0.6936536914911469
sI11
F0.6879543191225586
sI12
F0.6801918790400294
sI13
F0.691569523487731
sI14
F0.6950211233564898
ssg96
(dp319
I0
F30.0
sI1
F30.0
sI2
F30.0
sI3
F30.0
sI4
F30.0
sI5
F30.0
sI6
F30.0
sI7
F30.0
sI8
F30.0
sI9
F30.0
sI10
F30.0
sI11
F30.0
sI12
F30.0
sI13
F30.0
sI14
F30.0
ssg98
(dp320
I0
F0.005
sI1
F0.005
sI2
F0.005
sI3
F0.005
sI4
F0.005
sI5
F0.004
sI6
F0.005
sI7
F0.004
sI8
F0.005
sI9
F0.005
sI10
F0.004
sI11
F0.005
sI12
F0.005
sI13
F0.005
sI14
F0.005
ssg100
(dp321
I0
F0.004
sI1
F0.004
sI2
F0.004
sI3
F0.004
sI4
F0.004
sI5
F0.004
sI6
F0.004
sI7
F0.004
sI8
F0.004
sI9
F0.004
sI10
F0.004
sI11
F0.004
sI12
F0.004
sI13
F0.004
sI14
F0.004
ssg102
(dp322
I0
F4.017848
sI1
F4.439956
sI2
F-2.66855
sI3
F4.714977
sI4
F2.447245
sI5
F4.332018
sI6
F5.022736
sI7
F-4.39628
sI8
F4.346649
sI9
F-4.377182
sI10
F-3.279567
sI11
F2.647585
sI12
F-3.681365
sI13
F4.398361
sI14
F-2.647282
ssg104
(dp323
I0
S"KIC8462852-20181021at065851_-25-1X1-030-z'_cal.fts.mag.1"
p324
sI1
S"KIC8462852-20181021at065643_-25-1X1-030-z'_cal.fts.mag.1"
p325
sI2
S"KIC8462852-20181021at063048_-25-1X1-030-z'_cal.fts.mag.1"
p326
sI3
S"KIC8462852-20181021at060452_-25-1X1-030-z'_cal.fts.mag.1"
p327
sI4
S"KIC8462852-20181021at065537_-25-1X1-030-z'_cal.fts.mag.1"
p328
sI5
S"KIC8462852-20181021at060140_-25-1X1-030-z'_cal.fts.mag.1"
p329
sI6
S"KIC8462852-20181021at063152_-25-1X1-030-z'_cal.fts.mag.1"
p330
sI7
S"KIC8462852-20181021at060348_-25-1X1-030-z'_cal.fts.mag.1"
p331
sI8
S"KIC8462852-20181021at062839_-25-1X1-030-z'_cal.fts.mag.1"
p332
sI9
S"KIC8462852-20181021at060556_-25-1X1-030-z'_cal.fts.mag.1"
p333
sI10
S"KIC8462852-20181021at060245_-25-1X1-030-z'_cal.fts.mag.1"
p334
sI11
S"KIC8462852-20181021at062944_-25-1X1-030-z'_cal.fts.mag.1"
p335
sI12
S"KIC8462852-20181021at063256_-25-1X1-030-z'_cal.fts.mag.1"
p336
sI13
S"KIC8462852-20181021at065747_-25-1X1-030-z'_cal.fts.mag.1"
p337
sI14
S"KIC8462852-20181021at065955_-25-1X1-030-z'_cal.fts.mag.1"
p338
ssg121
(dp339
I0
F0.006331132273863562
sI1
Fnan
sI2
Fnan
sI3
Fnan
sI4
Fnan
sI5
Fnan
sI6
Fnan
sI7
Fnan
sI8
Fnan
sI9
Fnan
sI10
Fnan
sI11
Fnan
sI12
Fnan
sI13
Fnan
sI14
Fnan
ssg123
(dp340
I0
F1140.8233333333333
sI1
F1183.656
sI2
F1178.3356666666666
sI3
F1211.9566666666665
sI4
F1147.4463333333333
sI5
F1216.8986666666667
sI6
F1210.0106666666666
sI7
F1256.4403333333332
sI8
F1216.836
sI9
F1194.2536666666667
sI10
F1214.682
sI11
F1216.3970000000002
sI12
F1145.945
sI13
F1159.3506666666665
sI14
F1141.703
ssg125
(dp341
I0
F0.03252574072213883
sI1
Fnan
sI2
Fnan
sI3
Fnan
sI4
Fnan
sI5
Fnan
sI6
Fnan
sI7
Fnan
sI8
Fnan
sI9
Fnan
sI10
Fnan
sI11
Fnan
sI12
Fnan
sI13
Fnan
sI14
Fnan
ssg127
(dp342
I0
S"z'"
p343
sI1
S"z'"
p344
sI2
S"z'"
p345
sI3
S"z'"
p346
sI4
S"z'"
p347
sI5
S"z'"
p348
sI6
S"z'"
p349
sI7
S"z'"
p350
sI8
S"z'"
p351
sI9
S"z'"
p352
sI10
S"z'"
p353
sI11
S"z'"
p354
sI12
S"z'"
p355
sI13
S"z'"
p356
sI14
S"z'"
p357
ssg144
(dp358
I0
F0.003953527513247048
sI1
Fnan
sI2
Fnan
sI3
Fnan
sI4
Fnan
sI5
Fnan
sI6
Fnan
sI7
Fnan
sI8
Fnan
sI9
Fnan
sI10
Fnan
sI11
Fnan
sI12
Fnan
sI13
Fnan
sI14
Fnan
ssg146
(dp359
I0
F4.597762
sI1
F2.258011
sI2
F4.654422
sI3
F5.551128
sI4
F4.376725
sI5
F3.524822
sI6
F4.414518
sI7
F2.823899
sI8
F4.168486
sI9
F3.546028
sI10
F3.873549
sI11
F3.08886
sI12
F3.547505
sI13
F-3.489655
sI14
F3.283119
ssg148
(dp360
I0
F1.5071006402364955
sI1
Fnan
sI2
Fnan
sI3
Fnan
sI4
Fnan
sI5
Fnan
sI6
Fnan
sI7
Fnan
sI8
Fnan
sI9
Fnan
sI10
Fnan
sI11
Fnan
sI12
Fnan
sI13
Fnan
sI14
Fnan
ssg150
(dp361
I0
F2458412.771388889
sI1
Fnan
sI2
Fnan
sI3
Fnan
sI4
Fnan
sI5
Fnan
sI6
Fnan
sI7
Fnan
sI8
Fnan
sI9
Fnan
sI10
Fnan
sI11
Fnan
sI12
Fnan
sI13
Fnan
sI14
Fnan
ssg152
(dp362
I0
F0.003953527513247048
sI1
Fnan
sI2
Fnan
sI3
Fnan
sI4
Fnan
sI5
Fnan
sI6
Fnan
sI7
Fnan
sI8
Fnan
sI9
Fnan
sI10
Fnan
sI11
Fnan
sI12
Fnan
sI13
Fnan
sI14
Fnan
ssg154
(dp363
I0
F42.4329
sI1
F44.41079
sI2
F47.74498
sI3
F38.72963
sI4
F45.21054
sI5
F37.07065
sI6
F47.62307
sI7
F37.68467
sI8
F46.70955
sI9
F38.56521
sI10
F36.82889
sI11
F48.57463
sI12
F49.53804
sI13
F42.65177
sI14
F41.34502
ssg156
(dp364
I0
F12.005
sI1
F11.986
sI2
F11.962
sI3
F11.954
sI4
F12.016
sI5
F11.941
sI6
F11.957
sI7
F11.928
sI8
F11.94
sI9
F11.948
sI10
F11.944
sI11
F11.967
sI12
F12.017
sI13
F11.987
sI14
F12.021
ssg158
(dp365
I0
F0.3749133402795186
sI1
Fnan
sI2
Fnan
sI3
Fnan
sI4
Fnan
sI5
Fnan
sI6
Fnan
sI7
Fnan
sI8
Fnan
sI9
Fnan
sI10
Fnan
sI11
Fnan
sI12
Fnan
sI13
Fnan
sI14
Fnan
sssS'g'
p366
(dp367
g3
(dp368
I0
F0.8677510640724329
sI1
Fnan
sI2
Fnan
sI3
Fnan
sI4
Fnan
sI5
Fnan
sI6
Fnan
sI7
Fnan
sI8
Fnan
sI9
Fnan
sI10
Fnan
sI11
Fnan
sI12
Fnan
sI13
Fnan
sI14
Fnan
ssg5
(dp369
I0
S'NoError'
p370
sI1
S'NoError'
p371
sI2
S'NoError'
p372
sI3
S'NoError'
p373
sI4
S'NoError'
p374
sI5
S'NoError'
p375
sI6
S'NoError'
p376
sI7
S'NoError'
p377
sI8
S'NoError'
p378
sI9
S'NoError'
p379
sI10
S'NoError'
p380
sI11
S'NoError'
p381
sI12
S'NoError'
p382
sI13
S'NoError'
p383
sI14
S'NoError'
p384
ssg22
(dp385
I0
F0.003
sI1
F0.003
sI2
F0.003
sI3
F0.003
sI4
F0.002
sI5
F0.003
sI6
F0.002
sI7
F0.003
sI8
F0.003
sI9
F0.003
sI10
F0.003
sI11
F0.003
sI12
F0.003
sI13
F0.003
sI14
F0.002
ssg24
(dp386
I0
F0.8814435909899008
sI1
F0.8747501088017949
sI2
F0.8782326977948658
sI3
F0.8808481709176258
sI4
F0.8838227693936543
sI5
F0.88355714095079
sI6
F0.8817816472682338
sI7
F0.8787658360685913
sI8
F0.8769173747475124
sI9
F0.8744519499624124
sI10
F0.8820202394970736
sI11
F0.8770533142621167
sI12
F0.8824577782312638
sI13
F0.8820158877103735
sI14
F0.8825304393184041
ssg26
(dp387
I0
F0.003105060336316555
sI1
Fnan
sI2
Fnan
sI3
Fnan
sI4
Fnan
sI5
Fnan
sI6
Fnan
sI7
Fnan
sI8
Fnan
sI9
Fnan
sI10
Fnan
sI11
Fnan
sI12
Fnan
sI13
Fnan
sI14
Fnan
ssg28
(dp388
I0
F0.8800432630609742
sI1
Fnan
sI2
Fnan
sI3
Fnan
sI4
Fnan
sI5
Fnan
sI6
Fnan
sI7
Fnan
sI8
Fnan
sI9
Fnan
sI10
Fnan
sI11
Fnan
sI12
Fnan
sI13
Fnan
sI14
Fnan
ssg30
(dp389
I0
F11.502
sI1
F11.507
sI2
F11.524
sI3
F11.512
sI4
F11.441
sI5
F11.52
sI6
F11.442
sI7
F11.481
sI8
F11.451
sI9
F11.486
sI10
F11.469
sI11
F11.488
sI12
F11.519
sI13
F11.484
sI14
F11.46
ssg32
(dp390
I0
F91.74052
sI1
F79.86716
sI2
F93.38168
sI3
F82.39491
sI4
F70.42932
sI5
F92.58897
sI6
F67.77628
sI7
F80.99061
sI8
F70.33128
sI9
F90.31223
sI10
F70.21373
sI11
F81.85729
sI12
F90.8469
sI13
F80.77731
sI14
F68.70952
ssg34
(dp391
I0
F2458412.7775810184
sI1
F2458412.7588425926
sI2
F2458412.7805208336
sI3
F2458412.760324074
sI4
F2458412.7422685185
sI5
F2458412.7797916667
sI6
F2458412.7400462963
sI7
F2458412.7595833335
sI8
F2458412.7415393516
sI9
F2458412.7783217593
sI10
F2458412.7430092595
sI11
F2458412.761064815
sI12
F2458412.7790625
sI13
F2458412.7617939813
sI14
F2458412.740787037
ssg36
(dp392
I0
F2.120755066666667
sI1
Fnan
sI2
Fnan
sI3
Fnan
sI4
Fnan
sI5
Fnan
sI6
Fnan
sI7
Fnan
sI8
Fnan
sI9
Fnan
sI10
Fnan
sI11
Fnan
sI12
Fnan
sI13
Fnan
sI14
Fnan
ssg38
(dp393
I0
F1.7623840666666668
sI1
Fnan
sI2
Fnan
sI3
Fnan
sI4
Fnan
sI5
Fnan
sI6
Fnan
sI7
Fnan
sI8
Fnan
sI9
Fnan
sI10
Fnan
sI11
Fnan
sI12
Fnan
sI13
Fnan
sI14
Fnan
ssg40
(dp394
I0
F0.8672925849446679
sI1
F0.865556241186526
sI2
F0.8614914202546606
sI3
F0.8639999335429399
sI4
F0.8703608498950874
sI5
F0.8617994880855899
sI6
F0.8711413664362185
sI7
F0.8674627184674691
sI8
F0.8694570058284237
sI9
F0.8657062053433877
sI10
F0.8682917685086879
sI11
F0.8684821770636885
sI12
F0.8704854194521455
sI13
F0.8638958734136801
sI14
F0.8686316888587048
ssg42
(dp395
I0
F0.002295815132070332
sI1
Fnan
sI2
Fnan
sI3
Fnan
sI4
Fnan
sI5
Fnan
sI6
Fnan
sI7
Fnan
sI8
Fnan
sI9
Fnan
sI10
Fnan
sI11
Fnan
sI12
Fnan
sI13
Fnan
sI14
Fnan
ssg44
(dp396
I0
F2.3182652666666668
sI1
Fnan
sI2
Fnan
sI3
Fnan
sI4
Fnan
sI5
Fnan
sI6
Fnan
sI7
Fnan
sI8
Fnan
sI9
Fnan
sI10
Fnan
sI11
Fnan
sI12
Fnan
sI13
Fnan
sI14
Fnan
ssg46
(dp397
I0
g370
sI1
g371
sI2
g372
sI3
g373
sI4
g374
sI5
g375
sI6
g376
sI7
g377
sI8
g378
sI9
g379
sI10
g380
sI11
g381
sI12
g382
sI13
g383
sI14
g384
ssg48
(dp398
I0
F0.0027423651408678943
sI1
Fnan
sI2
Fnan
sI3
Fnan
sI4
Fnan
sI5
Fnan
sI6
Fnan
sI7
Fnan
sI8
Fnan
sI9
Fnan
sI10
Fnan
sI11
Fnan
sI12
Fnan
sI13
Fnan
sI14
Fnan
ssg50
(dp399
I0
F0.02611567673694424
sI1
Fnan
sI2
Fnan
sI3
Fnan
sI4
Fnan
sI5
Fnan
sI6
Fnan
sI7
Fnan
sI8
Fnan
sI9
Fnan
sI10
Fnan
sI11
Fnan
sI12
Fnan
sI13
Fnan
sI14
Fnan
ssg52
(dp400
I0
F2.015178533333333
sI1
Fnan
sI2
Fnan
sI3
Fnan
sI4
Fnan
sI5
Fnan
sI6
Fnan
sI7
Fnan
sI8
Fnan
sI9
Fnan
sI10
Fnan
sI11
Fnan
sI12
Fnan
sI13
Fnan
sI14
Fnan
ssg54
(dp401
I0
F1.5019923061858342
sI1
F1.525775360156521
sI2
F1.5188322180895346
sI3
F1.506824765254132
sI4
F1.5077013360936835
sI5
F1.513767372945427
sI6
F1.5035714695075748
sI7
F1.5127070768740851
sI8
F1.516414413288046
sI9
F1.5134874425435452
sI10
F1.5097866372467972
sI11
F1.5118517182740696
sI12
F1.5077782460731337
sI13
F1.510962061688568
sI14
F1.5112016050710217
ssg56
(dp402
I0
g370
sI1
g371
sI2
g372
sI3
g373
sI4
g374
sI5
g375
sI6
g376
sI7
g377
sI8
g378
sI9
g379
sI10
g380
sI11
g381
sI12
g382
sI13
g383
sI14
g384
ssg58
(dp403
I0
F99.04667
sI1
F86.76488
sI2
F98.42254
sI3
F87.67036
sI4
F72.81088
sI5
F97.67371
sI6
F70.49508
sI7
F84.98222
sI8
F73.31129
sI9
F97.28324
sI10
F73.32133
sI11
F87.62903
sI12
F98.95451
sI13
F86.70522
sI14
F72.61636
ssg60
(dp404
I0
F11.053133333333335
sI1
Fnan
sI2
Fnan
sI3
Fnan
sI4
Fnan
sI5
Fnan
sI6
Fnan
sI7
Fnan
sI8
Fnan
sI9
Fnan
sI10
Fnan
sI11
Fnan
sI12
Fnan
sI13
Fnan
sI14
Fnan
ssg62
(dp405
I0
F0.7173636327623716
sI1
Fnan
sI2
Fnan
sI3
Fnan
sI4
Fnan
sI5
Fnan
sI6
Fnan
sI7
Fnan
sI8
Fnan
sI9
Fnan
sI10
Fnan
sI11
Fnan
sI12
Fnan
sI13
Fnan
sI14
Fnan
ssg64
(dp406
I0
F4.845212
sI1
F-3.553304
sI2
F-3.025873
sI3
F4.980351
sI4
F2.720891
sI5
F-5.638779
sI6
F-1.859052
sI7
F5.182245
sI8
F3.124515
sI9
F3.001658
sI10
F-1.844959
sI11
F4.499858
sI12
F4.255278
sI13
F4.275079
sI14
F5.472641
ssg66
(dp407
I0
F11.4252
sI1
Fnan
sI2
Fnan
sI3
Fnan
sI4
Fnan
sI5
Fnan
sI6
Fnan
sI7
Fnan
sI8
Fnan
sI9
Fnan
sI10
Fnan
sI11
Fnan
sI12
Fnan
sI13
Fnan
sI14
Fnan
ssg68
(dp408
I0
g370
sI1
g371
sI2
g372
sI3
g373
sI4
g374
sI5
g375
sI6
g376
sI7
g377
sI8
g378
sI9
g379
sI10
g380
sI11
g381
sI12
g382
sI13
g383
sI14
g384
ssg70
(dp409
I0
F6664.3966666666665
sI1
F6609.426666666666
sI2
F6560.59
sI3
F6625.246666666667
sI4
F7034.386666666667
sI5
F6610.113333333333
sI6
F7014.67
sI7
F6779.316666666667
sI8
F6944.05
sI9
F6736.96
sI10
F6862.41
sI11
F6718.383333333333
sI12
F6544.133333333333
sI13
F6805.843333333333
sI14
F6919.929999999999
ssg72
(dp410
I0
F1.676695
sI1
F1.520199
sI2
F1.704753
sI3
F1.531203
sI4
F1.409025
sI5
F1.697673
sI6
F1.395729
sI7
F1.5256379999999998
sI8
F1.404606
sI9
F1.6837259999999998
sI10
F1.413497
sI11
F1.536773
sI12
F1.690659
sI13
F1.542392
sI14
F1.40019
ssg74
(dp411
I0
F5777.633333333333
sI1
F5711.836666666667
sI2
F5659.956666666667
sI3
F5732.443333333333
sI4
F6052.52
sI5
F5668.796666666666
sI6
F6071.913333333333
sI7
F5865.343333333333
sI8
F6013.16
sI9
F5868.963333333333
sI10
F5915.046666666666
sI11
F5832.679999999999
sI12
F5643.490000000001
sI13
F5862.09
sI14
F5954.266666666666
ssg76
(dp412
I0
F9343.916666666666
sI1
F9399.74
sI2
F9280.480000000001
sI3
F9310.436666666666
sI4
F9865.573333333334
sI5
F9293.706666666667
sI6
F9838.306666666667
sI7
F9563.833333333334
sI8
F9824.25
sI9
F9539.453333333333
sI10
F9645.616666666667
sI11
F9487.673333333334
sI12
F9188.116666666667
sI13
F9570.383333333333
sI14
F9727.753333333332
ssg78
(dp413
I0
F87.68816
sI1
F77.96131
sI2
F88.11434
sI3
F77.86905
sI4
F67.96303
sI5
F88.33851
sI6
F65.49818
sI7
F77.61155
sI8
F66.48647
sI9
F87.7984
sI10
F68.45326
sI11
F78.29295
sI12
F88.09354
sI13
F78.49139
sI14
F66.41367
ssg80
(dp414
I0
F11.596
sI1
F11.608
sI2
F11.618
sI3
F11.604
sI4
F11.545
sI5
F11.616
sI6
F11.542
sI7
F11.579
sI8
F11.552
sI9
F11.579
sI10
F11.57
sI11
F11.585
sI12
F11.621
sI13
F11.58
sI14
F11.563
ssg82
(dp415
I0
F0.002
sI1
F0.002
sI2
F0.002
sI3
F0.002
sI4
F0.002
sI5
F0.002
sI6
F0.002
sI7
F0.002
sI8
F0.002
sI9
F0.002
sI10
F0.002
sI11
F0.002
sI12
F0.002
sI13
F0.002
sI14
F0.002
ssg84
(dp416
I0
F0.8669369827521252
sI1
Fnan
sI2
Fnan
sI3
Fnan
sI4
Fnan
sI5
Fnan
sI6
Fnan
sI7
Fnan
sI8
Fnan
sI9
Fnan
sI10
Fnan
sI11
Fnan
sI12
Fnan
sI13
Fnan
sI14
Fnan
ssg86
(dp417
I0
F11.583866666666667
sI1
Fnan
sI2
Fnan
sI3
Fnan
sI4
Fnan
sI5
Fnan
sI6
Fnan
sI7
Fnan
sI8
Fnan
sI9
Fnan
sI10
Fnan
sI11
Fnan
sI12
Fnan
sI13
Fnan
sI14
Fnan
ssg88
(dp418
I0
F11.441
sI1
F11.45
sI2
F11.458
sI3
F11.447
sI4
F11.382
sI5
F11.449
sI6
F11.385
sI7
F11.422
sI8
F11.396
sI9
F11.429
sI10
F11.409
sI11
F11.432
sI12
F11.46
sI13
F11.418
sI14
F11.4
ssg90
(dp419
I0
F3.436731
sI1
F6.84534
sI2
F4.48034
sI3
F-4.594129
sI4
F-1.059668
sI5
F-3.68745
sI6
F1.914383
sI7
F2.442342
sI8
F4.920998
sI9
F3.14887
sI10
F4.063259
sI11
F5.219008
sI12
F-3.075647
sI13
F2.134589
sI14
F5.62236
ssg92
(dp420
I0
F0.025235651274300212
sI1
Fnan
sI2
Fnan
sI3
Fnan
sI4
Fnan
sI5
Fnan
sI6
Fnan
sI7
Fnan
sI8
Fnan
sI9
Fnan
sI10
Fnan
sI11
Fnan
sI12
Fnan
sI13
Fnan
sI14
Fnan
ssg94
(dp421
I0
F0.7218291162883286
sI1
F0.7135707667482173
sI2
F0.7145927221667054
sI3
F0.7194474455127433
sI4
F0.7162762515414238
sI5
F0.7128849127651931
sI6
F0.7205745849447366
sI7
F0.7177739093544797
sI8
F0.7172056797647943
sI9
F0.7211617465272857
sI10
F0.716626739961651
sI11
F0.7198148346595521
sI12
F0.7174421967614296
sI13
F0.7159268272626091
sI14
F0.715326757176424
ssg96
(dp422
I0
F30.0
sI1
F30.0
sI2
F30.0
sI3
F30.0
sI4
F30.0
sI5
F30.0
sI6
F30.0
sI7
F30.0
sI8
F30.0
sI9
F30.0
sI10
F30.0
sI11
F30.0
sI12
F30.0
sI13
F30.0
sI14
F30.0
ssg98
(dp423
I0
F0.003
sI1
F0.003
sI2
F0.003
sI3
F0.003
sI4
F0.003
sI5
F0.003
sI6
F0.003
sI7
F0.003
sI8
F0.003
sI9
F0.003
sI10
F0.003
sI11
F0.003
sI12
F0.003
sI13
F0.003
sI14
F0.003
ssg100
(dp424
I0
F0.003
sI1
F0.003
sI2
F0.003
sI3
F0.003
sI4
F0.002
sI5
F0.003
sI6
F0.002
sI7
F0.002
sI8
F0.002
sI9
F0.003
sI10
F0.002
sI11
F0.003
sI12
F0.003
sI13
F0.003
sI14
F0.002
ssg102
(dp425
I0
F-4.525518
sI1
F-4.275934
sI2
F4.958762
sI3
F-4.315637
sI4
F1.701788
sI5
F5.107982
sI6
F4.316109
sI7
F5.475249
sI8
F3.656669
sI9
F6.586286
sI10
F4.820733
sI11
F4.158613
sI12
F3.393628
sI13
F4.802072
sI14
F-5.633124
ssg104
(dp426
I0
S"KIC8462852-20181021at063938_-25-1X1-030-g'_cal.fts.mag.1"
p427
sI1
S"KIC8462852-20181021at061239_-25-1X1-030-g'_cal.fts.mag.1"
p428
sI2
S"KIC8462852-20181021at064357_-25-1X1-030-g'_cal.fts.mag.1"
p429
sI3
S"KIC8462852-20181021at061452_-25-1X1-030-g'_cal.fts.mag.1"
p430
sI4
S"KIC8462852-20181021at054852_-25-1X1-030-g'_cal.fts.mag.1"
p431
sI5
S"KIC8462852-20181021at064254_-25-1X1-030-g'_cal.fts.mag.1"
p432
sI6
S"KIC8462852-20181021at054529_-25-1X1-030-g'_cal.fts.mag.1"
p433
sI7
S"KIC8462852-20181021at061348_-25-1X1-030-g'_cal.fts.mag.1"
p434
sI8
S"KIC8462852-20181021at054749_-25-1X1-030-g'_cal.fts.mag.1"
p435
sI9
S"KIC8462852-20181021at064047_-25-1X1-030-g'_cal.fts.mag.1"
p436
sI10
S"KIC8462852-20181021at054956_-25-1X1-030-g'_cal.fts.mag.1"
p437
sI11
S"KIC8462852-20181021at061556_-25-1X1-030-g'_cal.fts.mag.1"
p438
sI12
S"KIC8462852-20181021at064151_-25-1X1-030-g'_cal.fts.mag.1"
p439
sI13
S"KIC8462852-20181021at061659_-25-1X1-030-g'_cal.fts.mag.1"
p440
sI14
S"KIC8462852-20181021at054644_-25-1X1-030-g'_cal.fts.mag.1"
p441
ssg121
(dp442
I0
F0.0059706415094572364
sI1
Fnan
sI2
Fnan
sI3
Fnan
sI4
Fnan
sI5
Fnan
sI6
Fnan
sI7
Fnan
sI8
Fnan
sI9
Fnan
sI10
Fnan
sI11
Fnan
sI12
Fnan
sI13
Fnan
sI14
Fnan
ssg123
(dp443
I0
F6298.263333333333
sI1
F6266.916666666667
sI2
F6174.316666666667
sI3
F6240.42
sI4
F6658.98
sI5
F6197.09
sI6
F6656.9400000000005
sI7
F6421.679999999999
sI8
F6602.5
sI9
F6390.463333333333
sI10
F6489.923333333334
sI11
F6380.083333333333
sI12
F6202.423333333334
sI13
F6403.863333333333
sI14
F6544.256666666667
ssg125
(dp444
I0
F0.02629738353814659
sI1
Fnan
sI2
Fnan
sI3
Fnan
sI4
Fnan
sI5
Fnan
sI6
Fnan
sI7
Fnan
sI8
Fnan
sI9
Fnan
sI10
Fnan
sI11
Fnan
sI12
Fnan
sI13
Fnan
sI14
Fnan
ssg127
(dp445
I0
S"g'"
p446
sI1
S"g'"
p447
sI2
S"g'"
p448
sI3
S"g'"
p449
sI4
S"g'"
p450
sI5
S"g'"
p451
sI6
S"g'"
p452
sI7
S"g'"
p453
sI8
S"g'"
p454
sI9
S"g'"
p455
sI10
S"g'"
p456
sI11
S"g'"
p457
sI12
S"g'"
p458
sI13
S"g'"
p459
sI14
S"g'"
p460
ssg144
(dp461
I0
F0.0030843318804169785
sI1
Fnan
sI2
Fnan
sI3
Fnan
sI4
Fnan
sI5
Fnan
sI6
Fnan
sI7
Fnan
sI8
Fnan
sI9
Fnan
sI10
Fnan
sI11
Fnan
sI12
Fnan
sI13
Fnan
sI14
Fnan
ssg146
(dp462
I0
F4.138365
sI1
F5.348154
sI2
F4.250384
sI3
F4.234757
sI4
F-5.249218
sI5
F3.745888
sI6
F-3.613374
sI7
F4.077976
sI8
F-5.134799
sI9
F3.662876
sI10
F5.250299
sI11
F3.590046
sI12
F7.502494
sI13
F5.409297
sI14
F-2.439166
ssg148
(dp463
I0
F1.5115102686194648
sI1
Fnan
sI2
Fnan
sI3
Fnan
sI4
Fnan
sI5
Fnan
sI6
Fnan
sI7
Fnan
sI8
Fnan
sI9
Fnan
sI10
Fnan
sI11
Fnan
sI12
Fnan
sI13
Fnan
sI14
Fnan
ssg150
(dp464
I0
F2458412.760324074
sI1
Fnan
sI2
Fnan
sI3
Fnan
sI4
Fnan
sI5
Fnan
sI6
Fnan
sI7
Fnan
sI8
Fnan
sI9
Fnan
sI10
Fnan
sI11
Fnan
sI12
Fnan
sI13
Fnan
sI14
Fnan
ssg152
(dp465
I0
F0.0030843318804169785
sI1
Fnan
sI2
Fnan
sI3
Fnan
sI4
Fnan
sI5
Fnan
sI6
Fnan
sI7
Fnan
sI8
Fnan
sI9
Fnan
sI10
Fnan
sI11
Fnan
sI12
Fnan
sI13
Fnan
sI14
Fnan
ssg154
(dp466
I0
F96.55356
sI1
F84.91091
sI2
F95.64507
sI3
F87.65644
sI4
F74.21219
sI5
F97.16093
sI6
F71.62896
sI7
F85.20803
sI8
F72.15358
sI9
F95.53851
sI10
F74.28207
sI11
F87.58374
sI12
F97.49714
sI13
F87.38607
sI14
F72.10708
ssg156
(dp467
I0
F11.074
sI1
F11.067
sI2
F11.081
sI3
F11.078
sI4
F11.015
sI5
F11.08
sI6
F11.018
sI7
F11.048
sI8
F11.019
sI9
F11.051
sI10
F11.039
sI11
F11.057
sI12
F11.092
sI13
F11.048
sI14
F11.03
ssg158
(dp468
I0
F0.8669369827521252
sI1
Fnan
sI2
Fnan
sI3
Fnan
sI4
Fnan
sI5
Fnan
sI6
Fnan
sI7
Fnan
sI8
Fnan
sI9
Fnan
sI10
Fnan
sI11
Fnan
sI12
Fnan
sI13
Fnan
sI14
Fnan
sssS'V'
p469
(dp470
g3
(dp471
I0
F0.694599259547274
sI1
Fnan
sI2
Fnan
sI3
Fnan
sI4
Fnan
sI5
Fnan
sI6
Fnan
sI7
Fnan
sI8
Fnan
sI9
Fnan
sI10
Fnan
sI11
Fnan
sI12
Fnan
ssg5
(dp472
I0
S'NoError'
p473
sI1
S'NoError'
p474
sI2
S'NoError'
p475
sI3
S'NoError'
p476
sI4
S'NoError'
p477
sI5
S'NoError'
p478
sI6
S'NoError'
p479
sI7
S'NoError'
p480
sI8
S'NoError'
p481
sI9
S'NoError'
p482
sI10
S'NoError'
p483
sI11
S'NoError'
p484
sI12
S'NoError'
p485
ssg22
(dp486
I0
F0.002
sI1
F0.003
sI2
F0.003
sI3
F0.003
sI4
F0.002
sI5
F0.003
sI6
F0.003
sI7
F0.003
sI8
F0.003
sI9
F0.003
sI10
F0.003
sI11
F0.003
sI12
F0.003
ssg24
(dp487
I0
F0.8897228725273143
sI1
F0.8898852402262738
sI2
F0.8836539924557749
sI3
F0.8835619847171512
sI4
F0.884098500424953
sI5
F0.8844692611880952
sI6
F0.8887294123781537
sI7
F0.8877635703427987
sI8
F0.8783229001585626
sI9
F0.8747204830730482
sI10
F0.887760933497234
sI11
F0.8903987328913435
sI12
F0.8836137554175721
ssg26
(dp488
I0
F0.00466736080575031
sI1
Fnan
sI2
Fnan
sI3
Fnan
sI4
Fnan
sI5
Fnan
sI6
Fnan
sI7
Fnan
sI8
Fnan
sI9
Fnan
sI10
Fnan
sI11
Fnan
sI12
Fnan
ssg28
(dp489
I0
F0.8851308953306365
sI1
Fnan
sI2
Fnan
sI3
Fnan
sI4
Fnan
sI5
Fnan
sI6
Fnan
sI7
Fnan
sI8
Fnan
sI9
Fnan
sI10
Fnan
sI11
Fnan
sI12
Fnan
ssg30
(dp490
I0
F11.461
sI1
F11.467
sI2
F11.806
sI3
F11.543
sI4
F11.445
sI5
F11.548
sI6
F11.451
sI7
F11.465
sI8
F11.694
sI9
F11.844
sI10
F11.499
sI11
F11.472
sI12
F11.524
ssg32
(dp491
I0
F72.87897
sI1
F71.76997
sI2
F81.6517
sI3
F70.57784
sI4
F70.35766
sI5
F71.43436
sI6
F69.17508
sI7
F70.58331
sI8
F76.42487
sI9
F114.2102
sI10
F83.93338
sI11
F85.05769
sI12
F88.4508
ssg34
(dp492
I0
F2458412.757962963
sI1
F2458412.757210648
sI2
F2458412.7939467593
sI3
F2458412.7954398147
sI4
F2458412.756458333
sI5
F2458412.7924305554
sI6
F2458412.754953704
sI7
F2458412.7557060183
sI8
F2458412.7931828704
sI9
F2458412.775196759
sI10
F2458412.776701389
sI11
F2458412.775949074
sI12
F2458412.7736805556
ssg36
(dp493
I0
F1.8101469230769236
sI1
Fnan
sI2
Fnan
sI3
Fnan
sI4
Fnan
sI5
Fnan
sI6
Fnan
sI7
Fnan
sI8
Fnan
sI9
Fnan
sI10
Fnan
sI11
Fnan
sI12
Fnan
ssg38
(dp494
I0
F-0.6559066153846155
sI1
Fnan
sI2
Fnan
sI3
Fnan
sI4
Fnan
sI5
Fnan
sI6
Fnan
sI7
Fnan
sI8
Fnan
sI9
Fnan
sI10
Fnan
sI11
Fnan
sI12
Fnan
ssg40
(dp495
I0
F0.688916922263167
sI1
F0.6949215548527142
sI2
F0.6932200616371273
sI3
F0.6955213310286762
sI4
F0.6952746135393635
sI5
F0.6962601493080107
sI6
F0.6965911830719896
sI7
F0.6909540590567245
sI8
F0.7008078183739579
sI9
F0.6967300658474592
sI10
F0.695952663139278
sI11
F0.6905669139913981
sI12
F0.7005887724637202
ssg42
(dp496
I0
F0.002143782362237278
sI1
Fnan
sI2
Fnan
sI3
Fnan
sI4
Fnan
sI5
Fnan
sI6
Fnan
sI7
Fnan
sI8
Fnan
sI9
Fnan
sI10
Fnan
sI11
Fnan
sI12
Fnan
ssg44
(dp497
I0
F2.3581477230769234
sI1
Fnan
sI2
Fnan
sI3
Fnan
sI4
Fnan
sI5
Fnan
sI6
Fnan
sI7
Fnan
sI8
Fnan
sI9
Fnan
sI10
Fnan
sI11
Fnan
sI12
Fnan
ssg46
(dp498
I0
g473
sI1
g474
sI2
g475
sI3
g476
sI4
g477
sI5
g478
sI6
g479
sI7
g480
sI8
g481
sI9
g482
sI10
g483
sI11
g484
sI12
g485
ssg48
(dp499
I0
F0.011048034228084602
sI1
Fnan
sI2
Fnan
sI3
Fnan
sI4
Fnan
sI5
Fnan
sI6
Fnan
sI7
Fnan
sI8
Fnan
sI9
Fnan
sI10
Fnan
sI11
Fnan
sI12
Fnan
ssg50
(dp500
I0
F0.1419727312206695
sI1
Fnan
sI2
Fnan
sI3
Fnan
sI4
Fnan
sI5
Fnan
sI6
Fnan
sI7
Fnan
sI8
Fnan
sI9
Fnan
sI10
Fnan
sI11
Fnan
sI12
Fnan
ssg52
(dp501
I0
F1.6266019999999999
sI1
Fnan
sI2
Fnan
sI3
Fnan
sI4
Fnan
sI5
Fnan
sI6
Fnan
sI7
Fnan
sI8
Fnan
sI9
Fnan
sI10
Fnan
sI11
Fnan
sI12
Fnan
ssg54
(dp502
I0
F1.4998771307574479
sI1
F1.5019241039679303
sI2
F1.482972615307861
sI3
F1.5097671486721194
sI4
F1.5003892138450903
sI5
F1.5034400338683398
sI6
F1.5036560708270168
sI7
F1.498643147757014
sI8
F1.4709207207165684
sI9
F1.475371042184981
sI10
F1.5015146346792059
sI11
F1.4973896262855215
sI12
F1.4790343002473059
ssg56
(dp503
I0
g473
sI1
g474
sI2
g475
sI3
g476
sI4
g477
sI5
g478
sI6
g479
sI7
g480
sI8
g481
sI9
g482
sI10
g483
sI11
g484
sI12
g485
ssg58
(dp504
I0
F77.94512
sI1
F76.86948
sI2
F84.13966
sI3
F70.84722
sI4
F77.71046
sI5
F77.18678
sI6
F76.57119
sI7
F76.31042
sI8
F82.01397
sI9
F123.5448
sI10
F92.94837
sI11
F92.74149
sI12
F98.54548
ssg60
(dp505
I0
F10.889999999999999
sI1
Fnan
sI2
Fnan
sI3
Fnan
sI4
Fnan
sI5
Fnan
sI6
Fnan
sI7
Fnan
sI8
Fnan
sI9
Fnan
sI10
Fnan
sI11
Fnan
sI12
Fnan
ssg62
(dp506
I0
F0.7233202712488372
sI1
Fnan
sI2
Fnan
sI3
Fnan
sI4
Fnan
sI5
Fnan
sI6
Fnan
sI7
Fnan
sI8
Fnan
sI9
Fnan
sI10
Fnan
sI11
Fnan
sI12
Fnan
ssg64
(dp507
I0
F3.260556
sI1
F-4.422002
sI2
F4.269912
sI3
F-2.036727
sI4
F-4.935182
sI5
F-4.416757
sI6
F-2.970176
sI7
F-3.381322
sI8
F5.473711
sI9
F-3.309102
sI10
F4.027792
sI11
F-3.922294
sI12
F3.834805
ssg66
(dp508
I0
F11.250615384615383
sI1
Fnan
sI2
Fnan
sI3
Fnan
sI4
Fnan
sI5
Fnan
sI6
Fnan
sI7
Fnan
sI8
Fnan
sI9
Fnan
sI10
Fnan
sI11
Fnan
sI12
Fnan
ssg68
(dp509
I0
g473
sI1
g474
sI2
g475
sI3
g476
sI4
g477
sI5
g478
sI6
g479
sI7
g480
sI8
g481
sI9
g482
sI10
g483
sI11
g484
sI12
g485
ssg70
(dp510
I0
F8770.173333333334
sI1
F8645.303333333333
sI2
F6310.956666666667
sI3
F8018.6033333333335
sI4
F8776.083333333334
sI5
F7976.236666666667
sI6
F8749.283333333333
sI7
F8695.136666666667
sI8
F6893.63
sI9
F6020.836666666667
sI10
F8367.833333333334
sI11
F8662.9
sI12
F8096.966666666666
ssg72
(dp511
I0
F1.5136379999999998
sI1
F1.508184
sI2
F1.8482189999999998
sI3
F1.8659880000000002
sI4
F1.502722
sI5
F1.830689
sI6
F1.491997
sI7
F1.497307
sI8
F1.83949
sI9
F1.6546459999999998
sI10
F1.668462
sI11
F1.6615490000000002
sI12
F1.64097
ssg74
(dp512
I0
F7507.293333333333
sI1
F7389.0
sI2
F5514.993333333333
sI3
F6893.63
sI4
F7581.676666666666
sI5
F6873.423333333334
sI6
F7484.446666666667
sI7
F7473.413333333333
sI8
F6123.6
sI9
F5366.233333333334
sI10
F7179.37
sI11
F7418.45
sI12
F7093.4
ssg76
(dp513
I0
F12207.1
sI1
F12041.153333333332
sI2
F8768.78
sI3
F11257.0
sI4
F12271.503333333332
sI5
F11162.786666666665
sI6
F12204.973333333333
sI7
F12115.443333333333
sI8
F9573.656666666668
sI9
F8400.076666666666
sI10
F11672.176666666666
sI11
F12040.023333333334
sI12
F11233.536666666665
ssg78
(dp514
I0
F70.40028
sI1
F70.14516
sI2
F82.36797
sI3
F71.19533
sI4
F69.47258
sI5
F73.06157
sI6
F68.52576
sI7
F69.90423
sI8
F75.75896
sI9
F110.532
sI10
F84.39365
sI11
F82.4949
sI12
F86.52106
ssg80
(dp515
I0
F11.311
sI1
F11.329
sI2
F11.646
sI3
F11.404
sI4
F11.301
sI5
F11.407
sI6
F11.315
sI7
F11.316
sI8
F11.532
sI9
F11.676
sI10
F11.36
sI11
F11.324
sI12
F11.373
ssg82
(dp516
I0
F0.002
sI1
F0.002
sI2
F0.002
sI3
F0.002
sI4
F0.002
sI5
F0.002
sI6
F0.002
sI7
F0.002
sI8
F0.002
sI9
F0.002
sI10
F0.002
sI11
F0.002
sI12
F0.002
ssg84
(dp517
I0
F0.6951004698902759
sI1
Fnan
sI2
Fnan
sI3
Fnan
sI4
Fnan
sI5
Fnan
sI6
Fnan
sI7
Fnan
sI8
Fnan
sI9
Fnan
sI10
Fnan
sI11
Fnan
sI12
Fnan
ssg86
(dp518
I0
F11.407230769230768
sI1
Fnan
sI2
Fnan
sI3
Fnan
sI4
Fnan
sI5
Fnan
sI6
Fnan
sI7
Fnan
sI8
Fnan
sI9
Fnan
sI10
Fnan
sI11
Fnan
sI12
Fnan
ssg88
(dp519
I0
F11.142
sI1
F11.158
sI2
F11.5
sI3
F11.24
sI4
F11.142
sI5
F11.246
sI6
F11.145
sI7
F11.152
sI8
F11.404
sI9
F11.551
sI10
F11.193
sI11
F11.156
sI12
F11.229
ssg90
(dp520
I0
F1.861328
sI1
F5.538218
sI2
F5.937838
sI3
F6.115742
sI4
F4.736285
sI5
F-3.586043
sI6
F5.263771
sI7
F-2.60267
sI8
F6.612981
sI9
F7.171646
sI10
F-5.576569
sI11
F-3.678597
sI12
F-4.26202
ssg92
(dp521
I0
F0.14256051346708887
sI1
Fnan
sI2
Fnan
sI3
Fnan
sI4
Fnan
sI5
Fnan
sI6
Fnan
sI7
Fnan
sI8
Fnan
sI9
Fnan
sI10
Fnan
sI11
Fnan
sI12
Fnan
ssg94
(dp522
I0
F0.7157549233440252
sI1
F0.7143804392471275
sI2
F0.7314442493580237
sI3
F0.7152699586921707
sI4
F0.7204319228364423
sI5
F0.7182627048018997
sI6
F0.714360503044966
sI7
F0.7182321043751142
sI8
F0.7437290822653236
sI9
F0.7442293299037462
sI10
F0.7165036344792243
sI11
F0.7166572450235289
sI12
F0.7339074288632941
ssg96
(dp523
I0
F30.0
sI1
F30.0
sI2
F30.0
sI3
F30.0
sI4
F30.0
sI5
F30.0
sI6
F30.0
sI7
F30.0
sI8
F30.0
sI9
F30.0
sI10
F30.0
sI11
F30.0
sI12
F30.0
ssg98
(dp524
I0
F0.002
sI1
F0.002
sI2
F0.003
sI3
F0.002
sI4
F0.002
sI5
F0.002
sI6
F0.002
sI7
F0.002
sI8
F0.003
sI9
F0.003
sI10
F0.002
sI11
F0.002
sI12
F0.002
ssg100
(dp525
I0
F0.002
sI1
F0.002
sI2
F0.003
sI3
F0.002
sI4
F0.002
sI5
F0.002
sI6
F0.002
sI7
F0.002
sI8
F0.002
sI9
F0.003
sI10
F0.002
sI11
F0.002
sI12
F0.002
ssg102
(dp526
I0
F-2.613857
sI1
F6.120749
sI2
F6.71594
sI3
F6.526124
sI4
F-1.121373
sI5
F-5.341682
sI6
F4.566221
sI7
F4.021405
sI8
F3.445319
sI9
F-5.693929
sI10
F4.535583
sI11
F4.536455
sI12
F-4.551129
ssg104
(dp527
I0
S'KIC8462852-20181021at061128_-25-1X1-030-V_cal.fts.mag.1'
p528
sI1
S'KIC8462852-20181021at061023_-25-1X1-030-V_cal.fts.mag.1'
p529
sI2
S'KIC8462852-20181021at070317_-25-1X1-030-V_cal.fts.mag.1'
p530
sI3
S'KIC8462852-20181021at070526_-25-1X1-030-V_cal.fts.mag.1'
p531
sI4
S'KIC8462852-20181021at060918_-25-1X1-030-V_cal.fts.mag.1'
p532
sI5
S'KIC8462852-20181021at070058_-25-1X1-030-V_cal.fts.mag.1'
p533
sI6
S'KIC8462852-20181021at060700_-25-1X1-030-V_cal.fts.mag.1'
p534
sI7
S'KIC8462852-20181021at060813_-25-1X1-030-V_cal.fts.mag.1'
p535
sI8
S'KIC8462852-20181021at070211_-25-1X1-030-V_cal.fts.mag.1'
p536
sI9
S'KIC8462852-20181021at063617_-25-1X1-030-V_cal.fts.mag.1'
p537
sI10
S'KIC8462852-20181021at063827_-25-1X1-030-V_cal.fts.mag.1'
p538
sI11
S'KIC8462852-20181021at063722_-25-1X1-030-V_cal.fts.mag.1'
p539
sI12
S'KIC8462852-20181021at063359_-25-1X1-030-V_cal.fts.mag.1'
p540
ssg121
(dp541
I0
F0.012527466291656748
sI1
Fnan
sI2
Fnan
sI3
Fnan
sI4
Fnan
sI5
Fnan
sI6
Fnan
sI7
Fnan
sI8
Fnan
sI9
Fnan
sI10
Fnan
sI11
Fnan
sI12
Fnan
ssg123
(dp542
I0
F6541.166666666667
sI1
F6503.413333333333
sI2
F4758.8933333333325
sI3
F6067.086666666667
sI4
F6635.066666666667
sI5
F6037.1433333333325
sI6
F6603.383333333333
sI7
F6514.3133333333335
sI8
F5277.29
sI9
F4595.433333333333
sI10
F6314.466666666666
sI11
F6473.23
sI12
F6170.763333333333
ssg125
(dp543
I0
F0.12866309613751858
sI1
Fnan
sI2
Fnan
sI3
Fnan
sI4
Fnan
sI5
Fnan
sI6
Fnan
sI7
Fnan
sI8
Fnan
sI9
Fnan
sI10
Fnan
sI11
Fnan
sI12
Fnan
ssg127
(dp544
I0
g469
sI1
g469
sI2
g469
sI3
g469
sI4
g469
sI5
g469
sI6
g469
sI7
g469
sI8
g469
sI9
g469
sI10
g469
sI11
g469
sI12
g469
ssg144
(dp545
I0
F0.003528475820075646
sI1
Fnan
sI2
Fnan
sI3
Fnan
sI4
Fnan
sI5
Fnan
sI6
Fnan
sI7
Fnan
sI8
Fnan
sI9
Fnan
sI10
Fnan
sI11
Fnan
sI12
Fnan
ssg146
(dp546
I0
F-4.016183
sI1
F6.008082
sI2
F5.632243
sI3
F3.366148
sI4
F3.491016
sI5
F-2.106933
sI6
F1.733152
sI7
F4.003031
sI8
F-1.569008
sI9
F5.793239
sI10
F6.014736
sI11
F0.4523334
sI12
F1.854064
ssg148
(dp547
I0
F1.4942230607012617
sI1
Fnan
sI2
Fnan
sI3
Fnan
sI4
Fnan
sI5
Fnan
sI6
Fnan
sI7
Fnan
sI8
Fnan
sI9
Fnan
sI10
Fnan
sI11
Fnan
sI12
Fnan
ssg150
(dp548
I0
F2458412.775196759
sI1
Fnan
sI2
Fnan
sI3
Fnan
sI4
Fnan
sI5
Fnan
sI6
Fnan
sI7
Fnan
sI8
Fnan
sI9
Fnan
sI10
Fnan
sI11
Fnan
sI12
Fnan
ssg152
(dp549
I0
F0.003528475820075646
sI1
Fnan
sI2
Fnan
sI3
Fnan
sI4
Fnan
sI5
Fnan
sI6
Fnan
sI7
Fnan
sI8
Fnan
sI9
Fnan
sI10
Fnan
sI11
Fnan
sI12
Fnan
ssg154
(dp550
I0
F78.23122
sI1
F77.84613
sI2
F88.78364
sI3
F72.71839
sI4
F76.41278
sI5
F79.33106
sI6
F76.09892
sI7
F78.00294
sI8
F83.27586
sI9
F120.8755
sI10
F93.71001
sI11
F90.53147
sI12
F96.82006
ssg156
(dp551
I0
F10.783
sI1
F10.798
sI2
F11.143
sI3
F10.871
sI4
F10.778
sI5
F10.881
sI6
F10.784
sI7
F10.792
sI8
F11.047
sI9
F11.189
sI10
F10.832
sI11
F10.798
sI12
F10.874
ssg158
(dp552
I0
F0.6951004698902759
sI1
Fnan
sI2
Fnan
sI3
Fnan
sI4
Fnan
sI5
Fnan
sI6
Fnan
sI7
Fnan
sI8
Fnan
sI9
Fnan
sI10
Fnan
sI11
Fnan
sI12
Fnan
sss.