(dp0
S'V'
p1
(dp2
S'sigmean'
p3
(dp4
I0
F0.689196880582931
sI1
Fnan
sI2
Fnan
sI3
Fnan
sI4
Fnan
sI5
Fnan
sI6
Fnan
sI7
Fnan
sI8
Fnan
sI9
Fnan
sI10
Fnan
sI11
Fnan
sI12
Fnan
sI13
Fnan
sI14
Fnan
ssS'ref3flag'
p5
(dp6
I0
S'NoError'
p7
sI1
S'NoError'
p8
sI2
S'NoError'
p9
sI3
S'NoError'
p10
sI4
S'NoError'
p11
sI5
S'NoError'
p12
sI6
S'NoError'
p13
sI7
S'NoError'
p14
sI8
S'NoError'
p15
sI9
S'NoError'
p16
sI10
S'NoError'
p17
sI11
S'NoError'
p18
sI12
S'NoError'
p19
sI13
S'NoError'
p20
sI14
S'NoError'
p21
ssS'tabbyerr'
p22
(dp23
I0
F0.003
sI1
F0.003
sI2
F0.003
sI3
F0.003
sI4
F0.003
sI5
F0.003
sI6
F0.003
sI7
F0.003
sI8
F0.003
sI9
F0.003
sI10
F0.003
sI11
F0.003
sI12
F0.003
sI13
F0.003
sI14
F0.003
ssS'ref2rel'
p24
(dp25
I0
F0.8911816853566786
sI1
F0.8886013438264948
sI2
F0.887544530774797
sI3
F0.8826464309095412
sI4
F0.8841807089709157
sI5
F0.8766939420693505
sI6
F0.8863237316134648
sI7
F0.8885981856146244
sI8
F0.8891706977260305
sI9
F0.8826246631377872
sI10
F0.8808050621711871
sI11
F0.8804399006524476
sI12
F0.8829944426688842
sI13
F0.8915446573174121
sI14
F0.8859341401670071
ssS'ref2err'
p26
(dp27
I0
F0.00427192385371914
sI1
Fnan
sI2
Fnan
sI3
Fnan
sI4
Fnan
sI5
Fnan
sI6
Fnan
sI7
Fnan
sI8
Fnan
sI9
Fnan
sI10
Fnan
sI11
Fnan
sI12
Fnan
sI13
Fnan
sI14
Fnan
ssS'ref2mean'
p28
(dp29
I0
F0.8852856081984417
sI1
Fnan
sI2
Fnan
sI3
Fnan
sI4
Fnan
sI5
Fnan
sI6
Fnan
sI7
Fnan
sI8
Fnan
sI9
Fnan
sI10
Fnan
sI11
Fnan
sI12
Fnan
sI13
Fnan
sI14
Fnan
ssS'tabbymag'
p30
(dp31
I0
F11.833
sI1
F12.134
sI2
F11.829
sI3
F11.892
sI4
F12.11
sI5
F12.103
sI6
F12.12
sI7
F12.055
sI8
F11.909
sI9
F12.158
sI10
F12.075
sI11
F11.937
sI12
F12.121
sI13
F12.126
sI14
F12.007
ssS'tabbybkg'
p32
(dp33
I0
F4.18067
sI1
F3.837526
sI2
F3.861781
sI3
F4.060835
sI4
F2.98853
sI5
F4.161819
sI6
F3.04025
sI7
F3.402134
sI8
F3.223937
sI9
F2.38135
sI10
F3.264373
sI11
F3.628372
sI12
F3.803462
sI13
F3.152622
sI14
F3.073318
ssS'JD'
p34
(dp35
I0
F2458574.960173611
sI1
F2458574.964722222
sI2
F2458574.959560185
sI3
F2458574.9608912035
sI4
F2458574.967222222
sI5
F2458574.97025463
sI6
F2458574.9722800925
sI7
F2458574.9659375
sI8
F2458574.9589467593
sI9
F2458574.9665625
sI10
F2458574.9716550927
sI11
F2458574.9616203704
sI12
F2458574.9710069443
sI13
F2458574.972939815
sI14
F2458574.965335648
ssS'ref3rmsmean'
p36
(dp37
I0
F0.5132916000000001
sI1
Fnan
sI2
Fnan
sI3
Fnan
sI4
Fnan
sI5
Fnan
sI6
Fnan
sI7
Fnan
sI8
Fnan
sI9
Fnan
sI10
Fnan
sI11
Fnan
sI12
Fnan
sI13
Fnan
sI14
Fnan
ssS'ref1rmsmean'
p38
(dp39
I0
F1.0005314533333332
sI1
Fnan
sI2
Fnan
sI3
Fnan
sI4
Fnan
sI5
Fnan
sI6
Fnan
sI7
Fnan
sI8
Fnan
sI9
Fnan
sI10
Fnan
sI11
Fnan
sI12
Fnan
sI13
Fnan
sI14
Fnan
ssS'relflux'
p40
(dp41
I0
F0.6903383531882052
sI1
F0.6889234686044837
sI2
F0.6894433920642571
sI3
F0.6900521728941571
sI4
F0.6931594799557816
sI5
F0.6875672617694123
sI6
F0.6870680980183755
sI7
F0.6881523799515804
sI8
F0.6929718607355971
sI9
F0.6912420156202448
sI10
F0.6901312518305102
sI11
F0.6878777312982989
sI12
F0.6899068669932542
sI13
F0.6914646562496343
sI14
F0.6873917990956895
ssS'sigerr'
p42
(dp43
I0
F0.0014182695050728058
sI1
Fnan
sI2
Fnan
sI3
Fnan
sI4
Fnan
sI5
Fnan
sI6
Fnan
sI7
Fnan
sI8
Fnan
sI9
Fnan
sI10
Fnan
sI11
Fnan
sI12
Fnan
sI13
Fnan
sI14
Fnan
ssS'tabbyrmsmean'
p44
(dp45
I0
F1.2276867533333335
sI1
Fnan
sI2
Fnan
sI3
Fnan
sI4
Fnan
sI5
Fnan
sI6
Fnan
sI7
Fnan
sI8
Fnan
sI9
Fnan
sI10
Fnan
sI11
Fnan
sI12
Fnan
sI13
Fnan
sI14
Fnan
ssS'tabbyflag'
p46
(dp47
I0
g7
sI1
g8
sI2
g9
sI3
g10
sI4
g11
sI5
g12
sI6
g13
sI7
g14
sI8
g15
sI9
g16
sI10
g17
sI11
g18
sI12
g19
sI13
g20
sI14
g21
ssS'ref1err'
p48
(dp49
I0
F0.003734701774742905
sI1
Fnan
sI2
Fnan
sI3
Fnan
sI4
Fnan
sI5
Fnan
sI6
Fnan
sI7
Fnan
sI8
Fnan
sI9
Fnan
sI10
Fnan
sI11
Fnan
sI12
Fnan
sI13
Fnan
sI14
Fnan
ssS'ref2magmeanerr'
p50
(dp51
I0
F0.11701029665721548
sI1
Fnan
sI2
Fnan
sI3
Fnan
sI4
Fnan
sI5
Fnan
sI6
Fnan
sI7
Fnan
sI8
Fnan
sI9
Fnan
sI10
Fnan
sI11
Fnan
sI12
Fnan
sI13
Fnan
sI14
Fnan
ssS'ref2rmsmean'
p52
(dp53
I0
F0.3354012
sI1
Fnan
sI2
Fnan
sI3
Fnan
sI4
Fnan
sI5
Fnan
sI6
Fnan
sI7
Fnan
sI8
Fnan
sI9
Fnan
sI10
Fnan
sI11
Fnan
sI12
Fnan
sI13
Fnan
sI14
Fnan
ssS'ref3rel'
p54
(dp55
I0
F1.5104063682072222
sI1
F1.5173557385261982
sI2
F1.513769024171889
sI3
F1.5147501962627645
sI4
F1.5314703530563754
sI5
F1.526044785055682
sI6
F1.5204289731842746
sI7
F1.5218028278074975
sI8
F1.5186617135259843
sI9
F1.5310895351351947
sI10
F1.5227151518324265
sI11
F1.5154604154084248
sI12
F1.526606035278859
sI13
F1.510505194207441
sI14
F1.513075821070104
ssS'ref1flag'
p56
(dp57
I0
g7
sI1
g8
sI2
g9
sI3
g10
sI4
g11
sI5
g12
sI6
g13
sI7
g14
sI8
g15
sI9
g16
sI10
g17
sI11
g18
sI12
g19
sI13
g20
sI14
g21
ssS'ref2bkg'
p58
(dp59
I0
F4.151705
sI1
F4.29039
sI2
F2.489775
sI3
F3.639951
sI4
F3.499271
sI5
F4.251505
sI6
F2.835701
sI7
F3.910259
sI8
F4.741666
sI9
F3.261455
sI10
F3.832927
sI11
F4.111104
sI12
F3.033983
sI13
F3.114449
sI14
F3.460768
ssS'ref3magmean'
p60
(dp61
I0
F11.342933333333333
sI1
Fnan
sI2
Fnan
sI3
Fnan
sI4
Fnan
sI5
Fnan
sI6
Fnan
sI7
Fnan
sI8
Fnan
sI9
Fnan
sI10
Fnan
sI11
Fnan
sI12
Fnan
sI13
Fnan
sI14
Fnan
ssS'ref1mean'
p62
(dp63
I0
F0.7079059633295903
sI1
Fnan
sI2
Fnan
sI3
Fnan
sI4
Fnan
sI5
Fnan
sI6
Fnan
sI7
Fnan
sI8
Fnan
sI9
Fnan
sI10
Fnan
sI11
Fnan
sI12
Fnan
sI13
Fnan
sI14
Fnan
ssS'ref1rms'
p64
(dp65
I0
F-4.088139
sI1
F-0.6907501
sI2
F2.004344
sI3
F3.34122
sI4
F3.483201
sI5
F2.172979
sI6
F1.780311
sI7
F-3.091532
sI8
F2.541123
sI9
F-0.8255331
sI10
F3.949382
sI11
F2.191922
sI12
F-4.134769
sI13
F3.468606
sI14
F2.905607
ssS'ref2magmean'
p66
(dp67
I0
F11.713866666666666
sI1
Fnan
sI2
Fnan
sI3
Fnan
sI4
Fnan
sI5
Fnan
sI6
Fnan
sI7
Fnan
sI8
Fnan
sI9
Fnan
sI10
Fnan
sI11
Fnan
sI12
Fnan
sI13
Fnan
sI14
Fnan
ssS'ref2flag'
p68
(dp69
I0
g7
sI1
g8
sI2
g9
sI3
g10
sI4
g11
sI5
g12
sI6
g13
sI7
g14
sI8
g15
sI9
g16
sI10
g17
sI11
g18
sI12
g19
sI13
g20
sI14
g21
ssS'ref2'
p70
(dp71
I0
F6218.426666666666
sI1
F4715.573333333334
sI2
F6233.016666666666
sI3
F5853.556666666667
sI4
F4772.61
sI5
F4815.986666666667
sI6
F4778.7266666666665
sI7
F5074.153333333334
sI8
F5769.39
sI9
F4574.320000000001
sI10
F4937.816666666667
sI11
F5625.1466666666665
sI12
F4742.8133333333335
sI13
F4742.463333333333
sI14
F5298.4
ssS'airmass'
p72
(dp73
I0
F1.400228
sI1
F1.3739290000000002
sI2
F1.40388
sI3
F1.395858
sI4
F1.360059
sI5
F1.3437700000000001
sI6
F1.333249
sI7
F1.367084
sI8
F1.407607
sI9
F1.363682
sI10
F1.336394
sI11
F1.391699
sI12
F1.33986
sI13
F1.329817
sI14
F1.370522
ssS'ref1'
p74
(dp75
I0
F5275.336666666667
sI1
F4000.6600000000003
sI2
F5309.316666666667
sI3
F5024.716666666666
sI4
F4044.2066666666665
sI5
F4147.42
sI6
F4062.23
sI7
F4293.056666666666
sI8
F4886.026666666667
sI9
F3887.423333333333
sI10
F4231.173333333333
sI11
F4844.71
sI12
F4039.2166666666667
sI13
F4020.5033333333336
sI14
F4527.496666666667
ssS'ref3'
p76
(dp77
I0
F8680.126666666667
sI1
F6612.8133333333335
sI2
F8736.213333333333
sI3
F8238.933333333332
sI4
F6751.346666666666
sI5
F6839.28
sI6
F6721.0233333333335
sI7
F7127.5233333333335
sI8
F8090.986666666667
sI9
F6477.843333333333
sI10
F6980.88
sI11
F7933.326666666666
sI12
F6703.35
sI13
F6618.253333333333
sI14
F7433.663333333333
ssS'ref1bkg'
p78
(dp79
I0
F4.505433
sI1
F4.595187
sI2
F3.08598
sI3
F3.850554
sI4
F3.981818
sI5
F3.373965
sI6
F3.500934
sI7
F3.885695
sI8
F4.248547
sI9
F4.221412
sI10
F2.858373
sI11
F4.190754
sI12
F3.938505
sI13
F3.489202
sI14
F3.304964
ssS'ref1mag'
p80
(dp81
I0
F11.694
sI1
F11.995
sI2
F11.687
sI3
F11.747
sI4
F11.983
sI5
F11.956
sI6
F11.978
sI7
F11.918
sI8
F11.778
sI9
F12.026
sI10
F11.934
sI11
F11.787
sI12
F11.984
sI13
F11.989
sI14
F11.86
ssS'ref3magerr'
p82
(dp83
I0
F0.002
sI1
F0.002
sI2
F0.002
sI3
F0.002
sI4
F0.002
sI5
F0.002
sI6
F0.002
sI7
F0.002
sI8
F0.002
sI9
F0.002
sI10
F0.002
sI11
F0.002
sI12
F0.002
sI13
F0.002
sI14
F0.002
ssS'tabbymagmean'
p84
(dp85
I0
F12.027266666666668
sI1
Fnan
sI2
Fnan
sI3
Fnan
sI4
Fnan
sI5
Fnan
sI6
Fnan
sI7
Fnan
sI8
Fnan
sI9
Fnan
sI10
Fnan
sI11
Fnan
sI12
Fnan
sI13
Fnan
sI14
Fnan
ssS'ref1magmean'
p86
(dp87
I0
F11.887733333333335
sI1
Fnan
sI2
Fnan
sI3
Fnan
sI4
Fnan
sI5
Fnan
sI6
Fnan
sI7
Fnan
sI8
Fnan
sI9
Fnan
sI10
Fnan
sI11
Fnan
sI12
Fnan
sI13
Fnan
sI14
Fnan
ssS'ref2mag'
p88
(dp89
I0
F11.516
sI1
F11.816
sI2
F11.513
sI3
F11.581
sI4
F11.803
sI5
F11.793
sI6
F11.802
sI7
F11.737
sI8
F11.597
sI9
F11.849
sI10
F11.766
sI11
F11.625
sI12
F11.81
sI13
F11.81
sI14
F11.69
ssS'ref3rms'
p90
(dp91
I0
F3.139773
sI1
F2.975894
sI2
F-1.382546
sI3
F3.496991
sI4
F-2.210887
sI5
F2.726637
sI6
F4.419666
sI7
F-1.906808
sI8
F-3.596416
sI9
F-3.537929
sI10
F-1.774461
sI11
F1.95892
sI12
F3.404773
sI13
F3.468086
sI14
F-3.482319
ssS'ref3magmeanerr'
p92
(dp93
I0
F0.11427439824929321
sI1
Fnan
sI2
Fnan
sI3
Fnan
sI4
Fnan
sI5
Fnan
sI6
Fnan
sI7
Fnan
sI8
Fnan
sI9
Fnan
sI10
Fnan
sI11
Fnan
sI12
Fnan
sI13
Fnan
sI14
Fnan
ssS'ref1rel'
p94
(dp95
I0
F0.7081676386476898
sI1
F0.7063071058073583
sI2
F0.7093640309710876
sI3
F0.7131055855518317
sI4
F0.7018781454402091
sI5
F0.7116817004043952
sI6
F0.7064901410900237
sI7
F0.7036830730640024
sI8
F0.7050351926462797
sI9
F0.70346831042731
sI10
F0.7100060437256982
sI11
F0.714639455474584
sI12
F0.7057765207497475
sI13
F0.7077904416241346
sI14
F0.7111960643195042
ssS'exposure'
p96
(dp97
I0
F30.0
sI1
F30.0
sI2
F30.0
sI3
F30.0
sI4
F30.0
sI5
F30.0
sI6
F30.0
sI7
F30.0
sI8
F30.0
sI9
F30.0
sI10
F30.0
sI11
F30.0
sI12
F30.0
sI13
F30.0
sI14
F30.0
ssS'ref1magerr'
p98
(dp99
I0
F0.003
sI1
F0.003
sI2
F0.003
sI3
F0.003
sI4
F0.003
sI5
F0.003
sI6
F0.003
sI7
F0.003
sI8
F0.003
sI9
F0.003
sI10
F0.003
sI11
F0.003
sI12
F0.003
sI13
F0.003
sI14
F0.003
ssS'ref2magerr'
p100
(dp101
I0
F0.002
sI1
F0.003
sI2
F0.002
sI3
F0.002
sI4
F0.003
sI5
F0.003
sI6
F0.003
sI7
F0.003
sI8
F0.003
sI9
F0.003
sI10
F0.003
sI11
F0.003
sI12
F0.003
sI13
F0.003
sI14
F0.003
ssS'ref2rms'
p102
(dp103
I0
F3.418959
sI1
F-1.846532
sI2
F3.040016
sI3
F3.622957
sI4
F-1.997782
sI5
F3.330167
sI6
F-1.329167
sI7
F-3.086046
sI8
F2.408047
sI9
F3.619584
sI10
F-2.135862
sI11
F-1.884432
sI12
F3.230782
sI13
F-2.552968
sI14
F-2.806705
ssS'name'
p104
(dp105
I0
S'KIC8462852-20190401at110239_-35-1X1-030-V.fts.mag.1'
p106
sI1
S'KIC8462852-20190401at110906_-35-1X1-030-V.fts.mag.1'
p107
sI2
S'KIC8462852-20190401at110146_-35-1X1-030-V.fts.mag.1'
p108
sI3
S'KIC8462852-20190401at110341_-35-1X1-030-V.fts.mag.1'
p109
sI4
S'KIC8462852-20190401at111248_-35-1X1-030-V.fts.mag.1'
p110
sI5
S'KIC8462852-20190401at111704_-35-1X1-030-V.fts.mag.1'
p111
sI6
S'KIC8462852-20190401at112005_-35-1X1-030-V.fts.mag.1'
p112
sI7
S'KIC8462852-20190401at111057_-35-1X1-030-V.fts.mag.1'
p113
sI8
S'KIC8462852-20190401at110047_-35-1X1-030-V.fts.mag.1'
p114
sI9
S'KIC8462852-20190401at111151_-35-1X1-030-V.fts.mag.1'
p115
sI10
S'KIC8462852-20190401at111911_-35-1X1-030-V.fts.mag.1'
p116
sI11
S'KIC8462852-20190401at110444_-35-1X1-030-V.fts.mag.1'
p117
sI12
S'KIC8462852-20190401at111815_-35-1X1-030-V.fts.mag.1'
p118
sI13
S'KIC8462852-20190401at112101_-35-1X1-030-V.fts.mag.1'
p119
sI14
S'KIC8462852-20190401at111005_-35-1X1-030-V.fts.mag.1'
p120
ssS'ref3err'
p121
(dp122
I0
F0.006913518593564345
sI1
Fnan
sI2
Fnan
sI3
Fnan
sI4
Fnan
sI5
Fnan
sI6
Fnan
sI7
Fnan
sI8
Fnan
sI9
Fnan
sI10
Fnan
sI11
Fnan
sI12
Fnan
sI13
Fnan
sI14
Fnan
ssS'tabby'
p123
(dp124
I0
F4642.27
sI1
F3520.18
sI2
F4660.303333333333
sI3
F4397.29
sI4
F3597.0733333333333
sI5
F3621.8033333333337
sI6
F3564.0466666666666
sI7
F3783.6299999999997
sI8
F4330.243333333334
sI9
F3442.29
sI10
F3715.1766666666667
sI11
F4219.713333333333
sI12
F3561.1566666666668
sI13
F3545.19
sI14
F3954.6933333333336
ssS'ref1magmeanerr'
p125
(dp126
I0
F0.11822404074266694
sI1
Fnan
sI2
Fnan
sI3
Fnan
sI4
Fnan
sI5
Fnan
sI6
Fnan
sI7
Fnan
sI8
Fnan
sI9
Fnan
sI10
Fnan
sI11
Fnan
sI12
Fnan
sI13
Fnan
sI14
Fnan
ssS'filter'
p127
(dp128
I0
g1
sI1
g1
sI2
g1
sI3
g1
sI4
g1
sI5
g1
sI6
g1
sI7
g1
sI8
g1
sI9
g1
sI10
g1
sI11
g1
sI12
g1
sI13
g1
sI14
g1
ssS'tabbymagerr'
p129
(dp130
I0
F0.11623158328260398
sI1
Fnan
sI2
Fnan
sI3
Fnan
sI4
Fnan
sI5
Fnan
sI6
Fnan
sI7
Fnan
sI8
Fnan
sI9
Fnan
sI10
Fnan
sI11
Fnan
sI12
Fnan
sI13
Fnan
sI14
Fnan
ssS'tabbyrms'
p131
(dp132
I0
F-2.102331
sI1
F4.185868
sI2
F-3.207492
sI3
F-2.011494
sI4
F1.815291
sI5
F2.520061
sI6
F3.823696
sI7
F-2.744633
sI8
F0.9044743
sI9
F3.351424
sI10
F3.643189
sI11
F-2.624236
sI12
F2.555908
sI13
F4.699172
sI14
F3.606404
ssS'ref3mean'
p133
(dp134
I0
F1.5196094755153557
sI1
Fnan
sI2
Fnan
sI3
Fnan
sI4
Fnan
sI5
Fnan
sI6
Fnan
sI7
Fnan
sI8
Fnan
sI9
Fnan
sI10
Fnan
sI11
Fnan
sI12
Fnan
sI13
Fnan
sI14
Fnan
ssS'median_JD'
p135
(dp136
I0
F2458574.9659375
sI1
Fnan
sI2
Fnan
sI3
Fnan
sI4
Fnan
sI5
Fnan
sI6
Fnan
sI7
Fnan
sI8
Fnan
sI9
Fnan
sI10
Fnan
sI11
Fnan
sI12
Fnan
sI13
Fnan
sI14
Fnan
ssS'error'
p137
(dp138
I0
F0.0019292980873712162
sI1
Fnan
sI2
Fnan
sI3
Fnan
sI4
Fnan
sI5
Fnan
sI6
Fnan
sI7
Fnan
sI8
Fnan
sI9
Fnan
sI10
Fnan
sI11
Fnan
sI12
Fnan
sI13
Fnan
sI14
Fnan
ssS'ref3bkg'
p139
(dp140
I0
F5.758782
sI1
F5.592318
sI2
F5.161503
sI3
F5.015629
sI4
F4.647719
sI5
F4.236875
sI6
F3.811943
sI7
F3.960934
sI8
F5.045194
sI9
F4.690836
sI10
F2.93073
sI11
F4.624707
sI12
F3.825264
sI13
F4.728915
sI14
F5.45119
ssS'ref3mag'
p141
(dp142
I0
F11.154
sI1
F11.449
sI2
F11.147
sI3
F11.21
sI4
F11.427
sI5
F11.412
sI6
F11.431
sI7
F11.368
sI8
F11.23
sI9
F11.471
sI10
F11.39
sI11
F11.251
sI12
F11.434
sI13
F11.448
sI14
F11.322
ssS'mean'
p143
(dp144
I0
F0.6897127192179655
sI1
Fnan
sI2
Fnan
sI3
Fnan
sI4
Fnan
sI5
Fnan
sI6
Fnan
sI7
Fnan
sI8
Fnan
sI9
Fnan
sI10
Fnan
sI11
Fnan
sI12
Fnan
sI13
Fnan
sI14
Fnan
sss.