(dp0
S'i'
p1
(dp2
S'sigmean'
p3
(dp4
I0
F0.438579287505466
sI1
Fnan
sI2
Fnan
sI3
Fnan
sI4
Fnan
sI5
Fnan
sI6
Fnan
sI7
Fnan
sI8
Fnan
sI9
Fnan
sI10
Fnan
sI11
Fnan
sI12
Fnan
sI13
Fnan
sI14
Fnan
ssS'ref3flag'
p5
(dp6
I0
S'NoError'
p7
sI1
S'NoError'
p8
sI2
S'NoError'
p9
sI3
S'NoError'
p10
sI4
S'NoError'
p11
sI5
S'NoError'
p12
sI6
S'NoError'
p13
sI7
S'NoError'
p14
sI8
S'NoError'
p15
sI9
S'NoError'
p16
sI10
S'NoError'
p17
sI11
S'NoError'
p18
sI12
S'NoError'
p19
sI13
S'NoError'
p20
sI14
S'NoError'
p21
ssS'tabbyerr'
p22
(dp23
I0
F0.003
sI1
F0.003
sI2
F0.003
sI3
F0.003
sI4
F0.003
sI5
F0.003
sI6
F0.003
sI7
F0.003
sI8
F0.003
sI9
F0.003
sI10
F0.003
sI11
F0.003
sI12
F0.003
sI13
F0.003
sI14
F0.003
ssS'ref2rel'
p24
(dp25
I0
F0.9052835481407471
sI1
F0.906944876260679
sI2
F0.9085288485939049
sI3
F0.9115571643582209
sI4
F0.911238739909516
sI5
F0.9107706756751763
sI6
F0.914554012352725
sI7
F0.9138915212771578
sI8
F0.9147401086837177
sI9
F0.9133007301005209
sI10
F0.9132611243741479
sI11
F0.9107555677114968
sI12
F0.9103686997646591
sI13
F0.9148768128516153
sI14
F0.9055551621749008
ssS'ref2err'
p26
(dp27
I0
F0.0032309085244399175
sI1
Fnan
sI2
Fnan
sI3
Fnan
sI4
Fnan
sI5
Fnan
sI6
Fnan
sI7
Fnan
sI8
Fnan
sI9
Fnan
sI10
Fnan
sI11
Fnan
sI12
Fnan
sI13
Fnan
sI14
Fnan
ssS'ref2mean'
p28
(dp29
I0
F0.9110418394819458
sI1
Fnan
sI2
Fnan
sI3
Fnan
sI4
Fnan
sI5
Fnan
sI6
Fnan
sI7
Fnan
sI8
Fnan
sI9
Fnan
sI10
Fnan
sI11
Fnan
sI12
Fnan
sI13
Fnan
sI14
Fnan
ssS'tabbymag'
p30
(dp31
I0
F11.863
sI1
F11.888
sI2
F11.935
sI3
F11.952
sI4
F11.961
sI5
F11.941
sI6
F11.903
sI7
F11.871
sI8
F11.846
sI9
F11.933
sI10
F11.876
sI11
F11.892
sI12
F11.878
sI13
F11.854
sI14
F11.858
ssS'tabbybkg'
p32
(dp33
I0
F19.82114
sI1
F21.36204
sI2
F22.08063
sI3
F22.73262
sI4
F23.53461
sI5
F23.09538
sI6
F20.50414
sI7
F20.08887
sI8
F19.33922
sI9
F22.79847
sI10
F19.59336
sI11
F20.41579
sI12
F20.20669
sI13
F19.63398
sI14
F18.15217
ssS'JD'
p34
(dp35
I0
F2458411.6089351852
sI1
F2458411.626747685
sI2
F2458411.587476852
sI3
F2458411.5889699073
sI4
F2458411.589722222
sI5
F2458411.588217593
sI6
F2458411.6059375
sI7
F2458411.6081828703
sI8
F2458411.628240741
sI9
F2458411.586724537
sI10
F2458411.6074305554
sI11
F2458411.606678241
sI12
F2458411.627488426
sI13
F2458411.625011574
sI14
F2458411.6260069446
ssS'ref3rmsmean'
p36
(dp37
I0
F2.478501866666667
sI1
Fnan
sI2
Fnan
sI3
Fnan
sI4
Fnan
sI5
Fnan
sI6
Fnan
sI7
Fnan
sI8
Fnan
sI9
Fnan
sI10
Fnan
sI11
Fnan
sI12
Fnan
sI13
Fnan
sI14
Fnan
ssS'ref1rmsmean'
p38
(dp39
I0
F2.2592524
sI1
Fnan
sI2
Fnan
sI3
Fnan
sI4
Fnan
sI5
Fnan
sI6
Fnan
sI7
Fnan
sI8
Fnan
sI9
Fnan
sI10
Fnan
sI11
Fnan
sI12
Fnan
sI13
Fnan
sI14
Fnan
ssS'relflux'
p40
(dp41
I0
F0.4393615273893555
sI1
F0.44172517418842705
sI2
F0.43721661330570805
sI3
F0.43414454450761203
sI4
F0.43765995826573567
sI5
F0.43649370744028715
sI6
F0.43829878467515077
sI7
F0.4407403645799205
sI8
F0.4407512416845313
sI9
F0.4369136584868318
sI10
F0.44012517581134064
sI11
F0.4373238504756334
sI12
F0.4372180882098058
sI13
F0.44108543721468874
sI14
F0.4383423300320687
ssS'sigerr'
p42
(dp43
I0
F0.0015703973807486302
sI1
Fnan
sI2
Fnan
sI3
Fnan
sI4
Fnan
sI5
Fnan
sI6
Fnan
sI7
Fnan
sI8
Fnan
sI9
Fnan
sI10
Fnan
sI11
Fnan
sI12
Fnan
sI13
Fnan
sI14
Fnan
ssS'tabbyrmsmean'
p44
(dp45
I0
F1.7042578266666666
sI1
Fnan
sI2
Fnan
sI3
Fnan
sI4
Fnan
sI5
Fnan
sI6
Fnan
sI7
Fnan
sI8
Fnan
sI9
Fnan
sI10
Fnan
sI11
Fnan
sI12
Fnan
sI13
Fnan
sI14
Fnan
ssS'tabbyflag'
p46
(dp47
I0
g7
sI1
g8
sI2
g9
sI3
g10
sI4
g11
sI5
g12
sI6
g13
sI7
g14
sI8
g15
sI9
g16
sI10
g17
sI11
g18
sI12
g19
sI13
g20
sI14
g21
ssS'ref1err'
p48
(dp49
I0
F0.0022353285880623596
sI1
Fnan
sI2
Fnan
sI3
Fnan
sI4
Fnan
sI5
Fnan
sI6
Fnan
sI7
Fnan
sI8
Fnan
sI9
Fnan
sI10
Fnan
sI11
Fnan
sI12
Fnan
sI13
Fnan
sI14
Fnan
ssS'ref2magmeanerr'
p50
(dp51
I0
F0.03455320259431538
sI1
Fnan
sI2
Fnan
sI3
Fnan
sI4
Fnan
sI5
Fnan
sI6
Fnan
sI7
Fnan
sI8
Fnan
sI9
Fnan
sI10
Fnan
sI11
Fnan
sI12
Fnan
sI13
Fnan
sI14
Fnan
ssS'ref2rmsmean'
p52
(dp53
I0
F3.2890193333333335
sI1
Fnan
sI2
Fnan
sI3
Fnan
sI4
Fnan
sI5
Fnan
sI6
Fnan
sI7
Fnan
sI8
Fnan
sI9
Fnan
sI10
Fnan
sI11
Fnan
sI12
Fnan
sI13
Fnan
sI14
Fnan
ssS'ref3rel'
p54
(dp55
I0
F1.5023752027433248
sI1
F1.5058540232134103
sI2
F1.5020173574258175
sI3
F1.4986617162465454
sI4
F1.4980619655666227
sI5
F1.498341355732264
sI6
F1.497398658432542
sI7
F1.49858384540704
sI8
F1.4936937131744912
sI9
F1.4987360784691883
sI10
F1.5026118548555354
sI11
F1.5047684322231722
sI12
F1.5020765924059267
sI13
F1.501091474289298
sI14
F1.5017046665646636
ssS'ref1flag'
p56
(dp57
I0
g7
sI1
g8
sI2
g9
sI3
g10
sI4
g11
sI5
g12
sI6
g13
sI7
g14
sI8
g15
sI9
g16
sI10
g17
sI11
g18
sI12
g19
sI13
g20
sI14
g21
ssS'ref2bkg'
p58
(dp59
I0
F22.55441
sI1
F23.70832
sI2
F26.73799
sI3
F27.2641
sI4
F27.92179
sI5
F26.5337
sI6
F23.83595
sI7
F22.01938
sI8
F21.75636
sI9
F25.79065
sI10
F22.2901
sI11
F22.97352
sI12
F21.74888
sI13
F22.48607
sI14
F22.18874
ssS'ref3magmean'
p60
(dp61
I0
F10.728533333333333
sI1
Fnan
sI2
Fnan
sI3
Fnan
sI4
Fnan
sI5
Fnan
sI6
Fnan
sI7
Fnan
sI8
Fnan
sI9
Fnan
sI10
Fnan
sI11
Fnan
sI12
Fnan
sI13
Fnan
sI14
Fnan
ssS'ref1mean'
p62
(dp63
I0
F0.6968878769158446
sI1
Fnan
sI2
Fnan
sI3
Fnan
sI4
Fnan
sI5
Fnan
sI6
Fnan
sI7
Fnan
sI8
Fnan
sI9
Fnan
sI10
Fnan
sI11
Fnan
sI12
Fnan
sI13
Fnan
sI14
Fnan
ssS'ref1rms'
p64
(dp65
I0
F3.921611
sI1
F-4.225568
sI2
F3.280086
sI3
F-3.737286
sI4
F4.266759
sI5
F5.160904
sI6
F3.527764
sI7
F2.814742
sI8
F-2.073303
sI9
F3.249674
sI10
F3.511759
sI11
F2.153175
sI12
F3.86514
sI13
F3.969444
sI14
F4.203885
ssS'ref2magmean'
p66
(dp67
I0
F11.070066666666666
sI1
Fnan
sI2
Fnan
sI3
Fnan
sI4
Fnan
sI5
Fnan
sI6
Fnan
sI7
Fnan
sI8
Fnan
sI9
Fnan
sI10
Fnan
sI11
Fnan
sI12
Fnan
sI13
Fnan
sI14
Fnan
ssS'ref2flag'
p68
(dp69
I0
g7
sI1
g8
sI2
g9
sI3
g10
sI4
g11
sI5
g12
sI6
g13
sI7
g14
sI8
g15
sI9
g16
sI10
g17
sI11
g18
sI12
g19
sI13
g20
sI14
g21
ssS'ref2'
p70
(dp71
I0
F9611.75
sI1
F9354.126666666667
sI2
F9057.859999999999
sI3
F9006.096666666668
sI4
F8852.506666666666
sI5
F9037.993333333334
sI6
F9347.369999999999
sI7
F9572.946666666667
sI8
F9803.016666666666
sI9
F9118.406666666668
sI10
F9534.230000000001
sI11
F9434.706666666667
sI12
F9559.206666666667
sI13
F9718.733333333334
sI14
F9676.85
ssS'airmass'
p72
(dp73
I0
F1.0169620000000001
sI1
F1.033975
sI2
F1.006168
sI3
F1.006585
sI4
F1.006813
sI5
F1.00637
sI6
F1.014813
sI7
F1.016405
sI8
F1.035768
sI9
F1.0059790000000002
sI10
F1.0158610000000001
sI11
F1.0153299999999998
sI12
F1.0348549999999999
sI13
F1.0320559999999999
sI14
F1.033107
ssS'ref1'
p74
(dp75
I0
F8002.886666666667
sI1
F7749.78
sI2
F7502.583333333333
sI3
F7437.85
sI4
F7317.656666666667
sI5
F7475.493333333333
sI6
F7687.429999999999
sI7
F7875.713333333333
sI8
F8078.61
sI9
F7508.416666666667
sI10
F7832.1
sI11
F7772.206666666667
sI12
F7893.263333333333
sI13
F7969.88
sI14
F8056.823333333334
ssS'ref3'
p76
(dp77
I0
F13231.896666666667
sI1
F12877.993333333334
sI2
F12437.036666666665
sI3
F12321.956666666667
sI4
F12111.953333333333
sI5
F12371.42
sI6
F12753.943333333333
sI7
F13074.140000000001
sI8
F13354.836666666666
sI9
F12459.609999999999
sI10
F13047.426666666666
sI11
F12946.21
sI12
F13107.473333333333
sI13
F13276.113333333335
sI14
F13315.369999999999
ssS'ref1bkg'
p78
(dp79
I0
F21.95999
sI1
F23.74529
sI2
F24.58597
sI3
F25.16938
sI4
F26.21605
sI5
F24.05886
sI6
F22.97643
sI7
F21.54505
sI8
F21.57151
sI9
F25.62452
sI10
F22.42983
sI11
F23.29101
sI12
F21.51429
sI13
F20.75928
sI14
F20.48707
ssS'ref1mag'
p80
(dp81
I0
F11.242
sI1
F11.277
sI2
F11.312
sI3
F11.321
sI4
F11.339
sI5
F11.316
sI6
F11.286
sI7
F11.259
sI8
F11.232
sI9
F11.311
sI10
F11.265
sI11
F11.274
sI12
F11.257
sI13
F11.246
sI14
F11.235
ssS'ref3magerr'
p82
(dp83
I0
F0.002
sI1
F0.002
sI2
F0.002
sI3
F0.002
sI4
F0.002
sI5
F0.002
sI6
F0.002
sI7
F0.002
sI8
F0.002
sI9
F0.002
sI10
F0.002
sI11
F0.002
sI12
F0.002
sI13
F0.002
sI14
F0.002
ssS'tabbymagmean'
p84
(dp85
I0
F0.4384933637511398
sI1
Fnan
sI2
Fnan
sI3
Fnan
sI4
Fnan
sI5
Fnan
sI6
Fnan
sI7
Fnan
sI8
Fnan
sI9
Fnan
sI10
Fnan
sI11
Fnan
sI12
Fnan
sI13
Fnan
sI14
Fnan
ssS'ref1magmean'
p86
(dp87
I0
F11.278133333333335
sI1
Fnan
sI2
Fnan
sI3
Fnan
sI4
Fnan
sI5
Fnan
sI6
Fnan
sI7
Fnan
sI8
Fnan
sI9
Fnan
sI10
Fnan
sI11
Fnan
sI12
Fnan
sI13
Fnan
sI14
Fnan
ssS'ref2mag'
p88
(dp89
I0
F11.043
sI1
F11.072
sI2
F11.107
sI3
F11.114
sI4
F11.132
sI5
F11.11
sI6
F11.073
sI7
F11.047
sI8
F11.022
sI9
F11.1
sI10
F11.052
sI11
F11.063
sI12
F11.049
sI13
F11.031
sI14
F11.036
ssS'ref3rms'
p90
(dp91
I0
F4.29663
sI1
F3.980694
sI2
F2.649275
sI3
F-4.576283
sI4
F5.070518
sI5
F3.704569
sI6
F2.48268
sI7
F3.16139
sI8
F3.333396
sI9
F2.936361
sI10
F1.882071
sI11
F-4.034476
sI12
F3.715069
sI13
F3.656005
sI14
F4.919629
ssS'ref3magmeanerr'
p92
(dp93
I0
F0.034834028245517616
sI1
Fnan
sI2
Fnan
sI3
Fnan
sI4
Fnan
sI5
Fnan
sI6
Fnan
sI7
Fnan
sI8
Fnan
sI9
Fnan
sI10
Fnan
sI11
Fnan
sI12
Fnan
sI13
Fnan
sI14
Fnan
ssS'ref1rel'
p94
(dp95
I0
F0.7006662975876298
sI1
F0.6971696806242499
sI2
F0.6980804280830071
sI3
F0.6974710615877429
sI4
F0.698101135604415
sI5
F0.698337055475909
sI6
F0.6956536821190414
sI7
F0.6955166860314335
sI8
F0.697699383765565
sI9
F0.6959320481261407
sI10
F0.6936692126367463
sI11
F0.6945387253277533
sI12
F0.6964640020799988
sI13
F0.6931883578552528
sI14
F0.7008303968327837
ssS'exposure'
p96
(dp97
I0
F30.0
sI1
F30.0
sI2
F30.0
sI3
F30.0
sI4
F30.0
sI5
F30.0
sI6
F30.0
sI7
F30.0
sI8
F30.0
sI9
F30.0
sI10
F30.0
sI11
F30.0
sI12
F30.0
sI13
F30.0
sI14
F30.0
ssS'ref1magerr'
p98
(dp99
I0
F0.002
sI1
F0.002
sI2
F0.002
sI3
F0.002
sI4
F0.002
sI5
F0.002
sI6
F0.002
sI7
F0.002
sI8
F0.002
sI9
F0.002
sI10
F0.002
sI11
F0.002
sI12
F0.002
sI13
F0.002
sI14
F0.002
ssS'ref2magerr'
p100
(dp101
I0
F0.002
sI1
F0.002
sI2
F0.002
sI3
F0.002
sI4
F0.002
sI5
F0.002
sI6
F0.002
sI7
F0.002
sI8
F0.002
sI9
F0.002
sI10
F0.002
sI11
F0.002
sI12
F0.002
sI13
F0.002
sI14
F0.002
ssS'ref2rms'
p102
(dp103
I0
F3.823303
sI1
F3.151557
sI2
F4.527872
sI3
F3.705952
sI4
F3.119566
sI5
F4.660351
sI6
F3.284021
sI7
F4.492091
sI8
F3.744743
sI9
F5.166371
sI10
F3.454656
sI11
F1.925056
sI12
F4.170448
sI13
F-2.293527
sI14
F2.40283
ssS'name'
p104
(dp105
I0
S"KIC8462852-20181020at023652_-25-1X1-030-i'_cal.fts.mag.1"
p106
sI1
S"KIC8462852-20181020at030231_-25-1X1-030-i'_cal.fts.mag.1"
p107
sI2
S"KIC8462852-20181020at020558_-25-1X1-030-i'_cal.fts.mag.1"
p108
sI3
S"KIC8462852-20181020at020807_-25-1X1-030-i'_cal.fts.mag.1"
p109
sI4
S"KIC8462852-20181020at020912_-25-1X1-030-i'_cal.fts.mag.1"
p110
sI5
S"KIC8462852-20181020at020702_-25-1X1-030-i'_cal.fts.mag.1"
p111
sI6
S"KIC8462852-20181020at023231_-25-1X1-030-i'_cal.fts.mag.1"
p112
sI7
S"KIC8462852-20181020at023547_-25-1X1-030-i'_cal.fts.mag.1"
p113
sI8
S"KIC8462852-20181020at030440_-25-1X1-030-i'_cal.fts.mag.1"
p114
sI9
S"KIC8462852-20181020at020451_-25-1X1-030-i'_cal.fts.mag.1"
p115
sI10
S"KIC8462852-20181020at023442_-25-1X1-030-i'_cal.fts.mag.1"
p116
sI11
S"KIC8462852-20181020at023337_-25-1X1-030-i'_cal.fts.mag.1"
p117
sI12
S"KIC8462852-20181020at030335_-25-1X1-030-i'_cal.fts.mag.1"
p118
sI13
S"KIC8462852-20181020at025959_-25-1X1-030-i'_cal.fts.mag.1"
p119
sI14
S"KIC8462852-20181020at030127_-25-1X1-030-i'_cal.fts.mag.1"
p120
ssS'ref3err'
p121
(dp122
I0
F0.003139674670275428
sI1
Fnan
sI2
Fnan
sI3
Fnan
sI4
Fnan
sI5
Fnan
sI6
Fnan
sI7
Fnan
sI8
Fnan
sI9
Fnan
sI10
Fnan
sI11
Fnan
sI12
Fnan
sI13
Fnan
sI14
Fnan
ssS'tabby'
p123
(dp124
I0
F4517.593333333333
sI1
F4414.586666666667
sI2
F4226.06
sI3
F4162.8533333333335
sI4
F4125.983333333334
sI5
F4202.693333333334
sI6
F4352.123333333333
sI7
F4484.21
sI8
F4589.17
sI9
F4236.086666666667
sI10
F4461.953333333334
sI11
F4395.5599999999995
sI12
F4453.786666666667
sI13
F4552.696666666667
sI14
F4536.703333333334
ssS'ref1magmeanerr'
p125
(dp126
I0
F0.03442977670287054
sI1
Fnan
sI2
Fnan
sI3
Fnan
sI4
Fnan
sI5
Fnan
sI6
Fnan
sI7
Fnan
sI8
Fnan
sI9
Fnan
sI10
Fnan
sI11
Fnan
sI12
Fnan
sI13
Fnan
sI14
Fnan
ssS'filter'
p127
(dp128
I0
S"i'"
p129
sI1
S"i'"
p130
sI2
S"i'"
p131
sI3
S"i'"
p132
sI4
S"i'"
p133
sI5
S"i'"
p134
sI6
S"i'"
p135
sI7
S"i'"
p136
sI8
S"i'"
p137
sI9
S"i'"
p138
sI10
S"i'"
p139
sI11
S"i'"
p140
sI12
S"i'"
p141
sI13
S"i'"
p142
sI14
S"i'"
p143
ssS'tabbymagerr'
p144
(dp145
I0
F0.002096131270437652
sI1
Fnan
sI2
Fnan
sI3
Fnan
sI4
Fnan
sI5
Fnan
sI6
Fnan
sI7
Fnan
sI8
Fnan
sI9
Fnan
sI10
Fnan
sI11
Fnan
sI12
Fnan
sI13
Fnan
sI14
Fnan
ssS'tabbyrms'
p146
(dp147
I0
F2.896531
sI1
F2.653211
sI2
F2.026585
sI3
F0.8413054
sI4
F2.675438
sI5
F2.734467
sI6
F-3.208981
sI7
F2.217536
sI8
F-2.382234
sI9
F4.051057
sI10
F3.514302
sI11
F3.233905
sI12
F-1.814716
sI13
F3.375311
sI14
F2.75015
ssS'ref3mean'
p148
(dp149
I0
F1.5003984624499895
sI1
Fnan
sI2
Fnan
sI3
Fnan
sI4
Fnan
sI5
Fnan
sI6
Fnan
sI7
Fnan
sI8
Fnan
sI9
Fnan
sI10
Fnan
sI11
Fnan
sI12
Fnan
sI13
Fnan
sI14
Fnan
ssS'median_JD'
p150
(dp151
I0
F2458411.6074305554
sI1
Fnan
sI2
Fnan
sI3
Fnan
sI4
Fnan
sI5
Fnan
sI6
Fnan
sI7
Fnan
sI8
Fnan
sI9
Fnan
sI10
Fnan
sI11
Fnan
sI12
Fnan
sI13
Fnan
sI14
Fnan
ssS'error'
p152
(dp153
I0
F0.002096131270437652
sI1
Fnan
sI2
Fnan
sI3
Fnan
sI4
Fnan
sI5
Fnan
sI6
Fnan
sI7
Fnan
sI8
Fnan
sI9
Fnan
sI10
Fnan
sI11
Fnan
sI12
Fnan
sI13
Fnan
sI14
Fnan
ssS'ref3bkg'
p154
(dp155
I0
F24.03402
sI1
F26.83204
sI2
F29.62164
sI3
F31.0178
sI4
F31.41171
sI5
F29.84576
sI6
F25.83266
sI7
F25.29722
sI8
F22.49725
sI9
F30.15241
sI10
F26.23343
sI11
F25.24017
sI12
F25.50348
sI13
F22.96388
sI14
F23.08733
ssS'ref3mag'
p156
(dp157
I0
F10.696
sI1
F10.725
sI2
F10.763
sI3
F10.773
sI4
F10.792
sI5
F10.769
sI6
F10.736
sI7
F10.709
sI8
F10.686
sI9
F10.761
sI10
F10.711
sI11
F10.72
sI12
F10.706
sI13
F10.692
sI14
F10.689
ssS'mean'
p158
(dp159
I0
F0.4384933637511398
sI1
Fnan
sI2
Fnan
sI3
Fnan
sI4
Fnan
sI5
Fnan
sI6
Fnan
sI7
Fnan
sI8
Fnan
sI9
Fnan
sI10
Fnan
sI11
Fnan
sI12
Fnan
sI13
Fnan
sI14
Fnan
sssS'r'
p160
(dp161
g3
(dp162
I0
F0.5504389417041431
sI1
Fnan
sI2
Fnan
sI3
Fnan
sI4
Fnan
sI5
Fnan
sI6
Fnan
sI7
Fnan
sI8
Fnan
sI9
Fnan
sI10
Fnan
sI11
Fnan
sI12
Fnan
sI13
Fnan
sI14
Fnan
ssg5
(dp163
I0
S'NoError'
p164
sI1
S'NoError'
p165
sI2
S'NoError'
p166
sI3
S'NoError'
p167
sI4
S'NoError'
p168
sI5
S'NoError'
p169
sI6
S'NoError'
p170
sI7
S'NoError'
p171
sI8
S'NoError'
p172
sI9
S'NoError'
p173
sI10
S'NoError'
p174
sI11
S'NoError'
p175
sI12
S'NoError'
p176
sI13
S'NoError'
p177
sI14
S'NoError'
p178
ssg22
(dp179
I0
F0.002
sI1
F0.002
sI2
F0.002
sI3
F0.002
sI4
F0.002
sI5
F0.002
sI6
F0.002
sI7
F0.002
sI8
F0.002
sI9
F0.002
sI10
F0.002
sI11
F0.002
sI12
F0.002
sI13
F0.002
sI14
F0.002
ssg24
(dp180
I0
F0.894161412920839
sI1
F0.8950270133693234
sI2
F0.8992425961358844
sI3
F0.8976266731233938
sI4
F0.8970155212678446
sI5
F0.8898589544977609
sI6
F0.8943871856384716
sI7
F0.8964833156542095
sI8
F0.8940909830230084
sI9
F0.8978721597200343
sI10
F0.8905279922820062
sI11
F0.8963381188449484
sI12
F0.8931542367241609
sI13
F0.8952898138852077
sI14
F0.8928193649317713
ssg26
(dp181
I0
F0.0026417136464833837
sI1
Fnan
sI2
Fnan
sI3
Fnan
sI4
Fnan
sI5
Fnan
sI6
Fnan
sI7
Fnan
sI8
Fnan
sI9
Fnan
sI10
Fnan
sI11
Fnan
sI12
Fnan
sI13
Fnan
sI14
Fnan
ssg28
(dp182
I0
F0.8949263561345909
sI1
Fnan
sI2
Fnan
sI3
Fnan
sI4
Fnan
sI5
Fnan
sI6
Fnan
sI7
Fnan
sI8
Fnan
sI9
Fnan
sI10
Fnan
sI11
Fnan
sI12
Fnan
sI13
Fnan
sI14
Fnan
ssg30
(dp183
I0
F11.194
sI1
F11.146
sI2
F11.154
sI3
F11.18
sI4
F11.151
sI5
F11.163
sI6
F11.141
sI7
F11.145
sI8
F11.209
sI9
F11.223
sI10
F11.175
sI11
F11.167
sI12
F11.15
sI13
F11.15
sI14
F11.208
ssg32
(dp184
I0
F34.51336
sI1
F29.56048
sI2
F28.21254
sI3
F33.93307
sI4
F28.86614
sI5
F29.81782
sI6
F29.41681
sI7
F27.74533
sI8
F33.2603
sI9
F37.11819
sI10
F29.48995
sI11
F30.46062
sI12
F29.96847
sI13
F29.05408
sI14
F35.30366
ssg34
(dp185
I0
F2458411.5837152777
sI1
F2458411.622013889
sI2
F2458411.602164352
sI3
F2458411.5852083336
sI4
F2458411.6227546297
sI5
F2458411.602928241
sI6
F2458411.624247685
sI7
F2458411.6036805557
sI8
F2458411.585949074
sI9
F2458411.582974537
sI10
F2458411.605173611
sI11
F2458411.604421296
sI12
F2458411.621261574
sI13
F2458411.6235069446
sI14
F2458411.5844560186
ssg36
(dp186
I0
F3.8984987999999996
sI1
Fnan
sI2
Fnan
sI3
Fnan
sI4
Fnan
sI5
Fnan
sI6
Fnan
sI7
Fnan
sI8
Fnan
sI9
Fnan
sI10
Fnan
sI11
Fnan
sI12
Fnan
sI13
Fnan
sI14
Fnan
ssg38
(dp187
I0
F3.1461443999999994
sI1
Fnan
sI2
Fnan
sI3
Fnan
sI4
Fnan
sI5
Fnan
sI6
Fnan
sI7
Fnan
sI8
Fnan
sI9
Fnan
sI10
Fnan
sI11
Fnan
sI12
Fnan
sI13
Fnan
sI14
Fnan
ssg40
(dp188
I0
F0.5512684314272388
sI1
F0.5522175436083557
sI2
F0.5537157558510387
sI3
F0.5487688782237835
sI4
F0.5502572692961808
sI5
F0.5511527146912175
sI6
F0.5504966325874383
sI7
F0.5510912873385977
sI8
F0.5471989085594208
sI9
F0.5491117948871707
sI10
F0.551151443917506
sI11
F0.5499414036699359
sI12
F0.5512111958478989
sI13
F0.5507393183044144
sI14
F0.5482983283541217
ssg42
(dp189
I0
F0.0010883049636468353
sI1
Fnan
sI2
Fnan
sI3
Fnan
sI4
Fnan
sI5
Fnan
sI6
Fnan
sI7
Fnan
sI8
Fnan
sI9
Fnan
sI10
Fnan
sI11
Fnan
sI12
Fnan
sI13
Fnan
sI14
Fnan
ssg44
(dp190
I0
F3.292156133333334
sI1
Fnan
sI2
Fnan
sI3
Fnan
sI4
Fnan
sI5
Fnan
sI6
Fnan
sI7
Fnan
sI8
Fnan
sI9
Fnan
sI10
Fnan
sI11
Fnan
sI12
Fnan
sI13
Fnan
sI14
Fnan
ssg46
(dp191
I0
g164
sI1
g165
sI2
g166
sI3
g167
sI4
g168
sI5
g169
sI6
g170
sI7
g171
sI8
g172
sI9
g173
sI10
g174
sI11
g175
sI12
g176
sI13
g177
sI14
g178
ssg48
(dp192
I0
F0.0026010876707843003
sI1
Fnan
sI2
Fnan
sI3
Fnan
sI4
Fnan
sI5
Fnan
sI6
Fnan
sI7
Fnan
sI8
Fnan
sI9
Fnan
sI10
Fnan
sI11
Fnan
sI12
Fnan
sI13
Fnan
sI14
Fnan
ssg50
(dp193
I0
F0.024934199119167257
sI1
Fnan
sI2
Fnan
sI3
Fnan
sI4
Fnan
sI5
Fnan
sI6
Fnan
sI7
Fnan
sI8
Fnan
sI9
Fnan
sI10
Fnan
sI11
Fnan
sI12
Fnan
sI13
Fnan
sI14
Fnan
ssg52
(dp194
I0
F1.112317
sI1
Fnan
sI2
Fnan
sI3
Fnan
sI4
Fnan
sI5
Fnan
sI6
Fnan
sI7
Fnan
sI8
Fnan
sI9
Fnan
sI10
Fnan
sI11
Fnan
sI12
Fnan
sI13
Fnan
sI14
Fnan
ssg54
(dp195
I0
F1.4934353363163526
sI1
F1.4890837134764634
sI2
F1.48997576719578
sI3
F1.4973875535433843
sI4
F1.4970658245961637
sI5
F1.4958045921778134
sI6
F1.4947789467740262
sI7
F1.495938217748524
sI8
F1.495506302461199
sI9
F1.496416624722701
sI10
F1.4991013834076905
sI11
F1.4940257720390338
sI12
F1.4956951670295342
sI13
F1.4889234331543344
sI14
F1.4926784647959634
ssg56
(dp196
I0
g164
sI1
g165
sI2
g166
sI3
g167
sI4
g168
sI5
g169
sI6
g170
sI7
g171
sI8
g172
sI9
g173
sI10
g174
sI11
g175
sI12
g176
sI13
g177
sI14
g178
ssg58
(dp197
I0
F39.33556
sI1
F32.42236
sI2
F32.69852
sI3
F38.32332
sI4
F33.71963
sI5
F32.79006
sI6
F31.77597
sI7
F32.16915
sI8
F38.9091
sI9
F42.07442
sI10
F33.27728
sI11
F33.00035
sI12
F32.4698
sI13
F33.15505
sI14
F40.83821
ssg60
(dp198
I0
F10.251666666666667
sI1
Fnan
sI2
Fnan
sI3
Fnan
sI4
Fnan
sI5
Fnan
sI6
Fnan
sI7
Fnan
sI8
Fnan
sI9
Fnan
sI10
Fnan
sI11
Fnan
sI12
Fnan
sI13
Fnan
sI14
Fnan
ssg62
(dp199
I0
F0.7144841516081843
sI1
Fnan
sI2
Fnan
sI3
Fnan
sI4
Fnan
sI5
Fnan
sI6
Fnan
sI7
Fnan
sI8
Fnan
sI9
Fnan
sI10
Fnan
sI11
Fnan
sI12
Fnan
sI13
Fnan
sI14
Fnan
ssg64
(dp200
I0
F5.950963
sI1
F4.197421
sI2
F4.219837
sI3
F3.424351
sI4
F-4.105816
sI5
F4.206789
sI6
F5.52897
sI7
F2.22142
sI8
F3.619715
sI9
F3.89676
sI10
F-1.649445
sI11
F3.626155
sI12
F3.66477
sI13
F3.377486
sI14
F5.01279
ssg66
(dp201
I0
F10.604000000000003
sI1
Fnan
sI2
Fnan
sI3
Fnan
sI4
Fnan
sI5
Fnan
sI6
Fnan
sI7
Fnan
sI8
Fnan
sI9
Fnan
sI10
Fnan
sI11
Fnan
sI12
Fnan
sI13
Fnan
sI14
Fnan
ssg68
(dp202
I0
g164
sI1
g165
sI2
g166
sI3
g167
sI4
g168
sI5
g169
sI6
g170
sI7
g171
sI8
g172
sI9
g173
sI10
g174
sI11
g175
sI12
g176
sI13
g177
sI14
g178
ssg70
(dp203
I0
F14060.236666666666
sI1
F14676.976666666666
sI2
F14577.890000000001
sI3
F14347.063333333334
sI4
F14690.03
sI5
F14430.096666666668
sI6
F14789.613333333335
sI7
F14740.703333333333
sI8
F13971.55
sI9
F13778.463333333335
sI10
F14276.766666666666
sI11
F14470.26
sI12
F14637.833333333334
sI13
F14675.140000000001
sI14
F13945.09
ssg72
(dp204
I0
F1.0053450000000002
sI1
F1.028756
sI2
F1.012426
sI3
F1.005633
sI4
F1.029564
sI5
F1.0128780000000002
sI6
F1.031188
sI7
F1.013342
sI8
F1.005798
sI9
F1.00522
sI10
F1.014299
sI11
F1.013814
sI12
F1.027971
sI13
F1.030363
sI14
F1.005482
ssg74
(dp205
I0
F11993.903333333332
sI1
F12535.726666666666
sI2
F12356.673333333334
sI3
F12137.69
sI4
F12443.09
sI5
F12380.566666666668
sI6
F12600.773333333334
sI7
F12505.956666666667
sI8
F11904.32
sI9
F11658.913333333334
sI10
F12210.243333333334
sI11
F12294.146666666667
sI12
F12490.203333333333
sI13
F12529.890000000001
sI14
F11928.126666666667
ssg76
(dp206
I0
F19455.086666666666
sI1
F20260.996666666666
sI2
F20065.923333333332
sI3
F19828.969999999998
sI4
F20310.033333333333
sI5
F20051.756666666664
sI6
F20471.286666666667
sI7
F20379.66
sI8
F19348.763333333332
sI9
F19032.456666666665
sI10
F19853.356666666667
sI11
F19993.356666666667
sI12
F20287.636666666665
sI13
F20253.103333333333
sI14
F19310.196666666667
ssg78
(dp207
I0
F36.73718
sI1
F30.64081
sI2
F31.29662
sI3
F36.34835
sI4
F32.87645
sI5
F31.7842
sI6
F30.36586
sI7
F30.43796
sI8
F37.25146
sI9
F39.36817
sI10
F31.90944
sI11
F30.76599
sI12
F31.52825
sI13
F31.26523
sI14
F37.41346
ssg80
(dp208
I0
F10.803
sI1
F10.755
sI2
F10.77
sI3
F10.79
sI4
F10.763
sI5
F10.768
sI6
F10.749
sI7
F10.757
sI8
F10.811
sI9
F10.833
sI10
F10.783
sI11
F10.776
sI12
F10.759
sI13
F10.755
sI14
F10.809
ssg82
(dp209
I0
F0.001
sI1
F0.001
sI2
F0.001
sI3
F0.001
sI4
F0.001
sI5
F0.001
sI6
F0.001
sI7
F0.001
sI8
F0.001
sI9
F0.001
sI10
F0.001
sI11
F0.001
sI12
F0.001
sI13
F0.001
sI14
F0.001
ssg84
(dp210
I0
F0.5504413937709547
sI1
Fnan
sI2
Fnan
sI3
Fnan
sI4
Fnan
sI5
Fnan
sI6
Fnan
sI7
Fnan
sI8
Fnan
sI9
Fnan
sI10
Fnan
sI11
Fnan
sI12
Fnan
sI13
Fnan
sI14
Fnan
ssg86
(dp211
I0
F10.778733333333333
sI1
Fnan
sI2
Fnan
sI3
Fnan
sI4
Fnan
sI5
Fnan
sI6
Fnan
sI7
Fnan
sI8
Fnan
sI9
Fnan
sI10
Fnan
sI11
Fnan
sI12
Fnan
sI13
Fnan
sI14
Fnan
ssg88
(dp212
I0
F10.63
sI1
F10.583
sI2
F10.591
sI3
F10.608
sI4
F10.582
sI5
F10.602
sI6
F10.575
sI7
F10.579
sI8
F10.637
sI9
F10.652
sI10
F10.613
sI11
F10.599
sI12
F10.586
sI13
F10.584
sI14
F10.639
ssg90
(dp213
I0
F4.78179
sI1
F5.09518
sI2
F-3.689338
sI3
F4.212652
sI4
F4.295421
sI5
F5.466981
sI6
F4.000802
sI7
F4.403537
sI8
F6.884278
sI9
F4.89776
sI10
F4.136351
sI11
F2.148579
sI12
F4.341313
sI13
F2.863074
sI14
F4.639102
ssg92
(dp214
I0
F0.02442968529902751
sI1
Fnan
sI2
Fnan
sI3
Fnan
sI4
Fnan
sI5
Fnan
sI6
Fnan
sI7
Fnan
sI8
Fnan
sI9
Fnan
sI10
Fnan
sI11
Fnan
sI12
Fnan
sI13
Fnan
sI14
Fnan
ssg94
(dp215
I0
F0.7157265477671556
sI1
F0.7175989601381191
sI2
F0.7133552657405691
sI3
F0.7103041995316406
sI4
F0.7110324276556071
sI5
F0.7180917189679287
sI6
F0.7147164895583116
sI7
F0.7121769526112534
sI8
F0.7145382986594564
sI9
F0.7106727475690005
sI10
F0.7155112341131299
sI11
F0.7134565582931178
sI12
F0.7152489763678674
sI13
F0.7174646534852932
sI14
F0.7173672436643156
ssg96
(dp216
I0
F30.0
sI1
F30.0
sI2
F30.0
sI3
F30.0
sI4
F30.0
sI5
F30.0
sI6
F30.0
sI7
F30.0
sI8
F30.0
sI9
F30.0
sI10
F30.0
sI11
F30.0
sI12
F30.0
sI13
F30.0
sI14
F30.0
ssg98
(dp217
I0
F0.002
sI1
F0.002
sI2
F0.002
sI3
F0.002
sI4
F0.002
sI5
F0.002
sI6
F0.002
sI7
F0.002
sI8
F0.002
sI9
F0.002
sI10
F0.002
sI11
F0.002
sI12
F0.002
sI13
F0.002
sI14
F0.002
ssg100
(dp218
I0
F0.002
sI1
F0.002
sI2
F0.002
sI3
F0.002
sI4
F0.002
sI5
F0.002
sI6
F0.001
sI7
F0.002
sI8
F0.002
sI9
F0.002
sI10
F0.002
sI11
F0.002
sI12
F0.002
sI13
F0.002
sI14
F0.002
ssg102
(dp219
I0
F-2.299555
sI1
F-1.48186
sI2
F3.97361
sI3
F-3.506589
sI4
F3.298372
sI5
F3.650812
sI6
F3.767027
sI7
F4.18553
sI8
F-2.709267
sI9
F-3.611806
sI10
F4.162324
sI11
F3.260536
sI12
F4.126618
sI13
F4.613194
sI14
F-4.744191
ssg104
(dp220
I0
S"KIC8462852-20181020at020033_-25-1X1-030-r'_cal.fts.mag.1"
p221
sI1
S"KIC8462852-20181020at025541_-25-1X1-030-r'_cal.fts.mag.1"
p222
sI2
S"KIC8462852-20181020at022706_-25-1X1-030-r'_cal.fts.mag.1"
p223
sI3
S"KIC8462852-20181020at020242_-25-1X1-030-r'_cal.fts.mag.1"
p224
sI4
S"KIC8462852-20181020at025646_-25-1X1-030-r'_cal.fts.mag.1"
p225
sI5
S"KIC8462852-20181020at022813_-25-1X1-030-r'_cal.fts.mag.1"
p226
sI6
S"KIC8462852-20181020at025855_-25-1X1-030-r'_cal.fts.mag.1"
p227
sI7
S"KIC8462852-20181020at022918_-25-1X1-030-r'_cal.fts.mag.1"
p228
sI8
S"KIC8462852-20181020at020346_-25-1X1-030-r'_cal.fts.mag.1"
p229
sI9
S"KIC8462852-20181020at015928_-25-1X1-030-r'_cal.fts.mag.1"
p230
sI10
S"KIC8462852-20181020at023127_-25-1X1-030-r'_cal.fts.mag.1"
p231
sI11
S"KIC8462852-20181020at023022_-25-1X1-030-r'_cal.fts.mag.1"
p232
sI12
S"KIC8462852-20181020at025435_-25-1X1-030-r'_cal.fts.mag.1"
p233
sI13
S"KIC8462852-20181020at025751_-25-1X1-030-r'_cal.fts.mag.1"
p234
sI14
S"KIC8462852-20181020at020137_-25-1X1-030-r'_cal.fts.mag.1"
p235
ssg121
(dp236
I0
F0.0030641642209450763
sI1
Fnan
sI2
Fnan
sI3
Fnan
sI4
Fnan
sI5
Fnan
sI6
Fnan
sI7
Fnan
sI8
Fnan
sI9
Fnan
sI10
Fnan
sI11
Fnan
sI12
Fnan
sI13
Fnan
sI14
Fnan
ssg123
(dp237
I0
F8362.6
sI1
F8738.603333333333
sI2
F8674.97
sI3
F8471.843333333332
sI4
F8701.98
sI5
F8609.45
sI6
F8782.563333333334
sI7
F8748.816666666668
sI8
F8248.956666666667
sI9
F8139.636666666667
sI10
F8513.52
sI11
F8571.343333333332
sI12
F8712.016666666666
sI13
F8712.353333333334
sI14
F8257.996666666666
ssg125
(dp238
I0
F0.025291067498982453
sI1
Fnan
sI2
Fnan
sI3
Fnan
sI4
Fnan
sI5
Fnan
sI6
Fnan
sI7
Fnan
sI8
Fnan
sI9
Fnan
sI10
Fnan
sI11
Fnan
sI12
Fnan
sI13
Fnan
sI14
Fnan
ssg127
(dp239
I0
S"r'"
p240
sI1
S"r'"
p241
sI2
S"r'"
p242
sI3
S"r'"
p243
sI4
S"r'"
p244
sI5
S"r'"
p245
sI6
S"r'"
p246
sI7
S"r'"
p247
sI8
S"r'"
p248
sI9
S"r'"
p249
sI10
S"r'"
p250
sI11
S"r'"
p251
sI12
S"r'"
p252
sI13
S"r'"
p253
sI14
S"r'"
p254
ssg144
(dp255
I0
F0.0016175937942202517
sI1
Fnan
sI2
Fnan
sI3
Fnan
sI4
Fnan
sI5
Fnan
sI6
Fnan
sI7
Fnan
sI8
Fnan
sI9
Fnan
sI10
Fnan
sI11
Fnan
sI12
Fnan
sI13
Fnan
sI14
Fnan
ssg146
(dp256
I0
F5.356009
sI1
F5.314114
sI2
F4.529642
sI3
F4.021627
sI4
F4.954576
sI5
F1.953959
sI6
F3.559724
sI7
F3.410953
sI8
F4.607911
sI9
F3.080257
sI10
F-2.206888
sI11
F-1.716737
sI12
F3.637465
sI13
F5.227437
sI14
F3.652293
ssg148
(dp257
I0
F1.4943878066292646
sI1
Fnan
sI2
Fnan
sI3
Fnan
sI4
Fnan
sI5
Fnan
sI6
Fnan
sI7
Fnan
sI8
Fnan
sI9
Fnan
sI10
Fnan
sI11
Fnan
sI12
Fnan
sI13
Fnan
sI14
Fnan
ssg150
(dp258
I0
F2458411.6036805557
sI1
Fnan
sI2
Fnan
sI3
Fnan
sI4
Fnan
sI5
Fnan
sI6
Fnan
sI7
Fnan
sI8
Fnan
sI9
Fnan
sI10
Fnan
sI11
Fnan
sI12
Fnan
sI13
Fnan
sI14
Fnan
ssg152
(dp259
I0
F0.0016175937942202517
sI1
Fnan
sI2
Fnan
sI3
Fnan
sI4
Fnan
sI5
Fnan
sI6
Fnan
sI7
Fnan
sI8
Fnan
sI9
Fnan
sI10
Fnan
sI11
Fnan
sI12
Fnan
sI13
Fnan
sI14
Fnan
ssg154
(dp260
I0
F42.57943
sI1
F34.75661
sI2
F37.39193
sI3
F40.94925
sI4
F36.19181
sI5
F35.41597
sI6
F34.98752
sI7
F34.37031
sI8
F43.03347
sI9
F46.65085
sI10
F35.9098
sI11
F35.54166
sI12
F36.15853
sI13
F35.90815
sI14
F44.36243
ssg156
(dp261
I0
F10.277
sI1
F10.233
sI2
F10.244
sI3
F10.257
sI4
F10.231
sI5
F10.245
sI6
F10.222
sI7
F10.227
sI8
F10.283
sI9
F10.301
sI10
F10.255
sI11
F10.248
sI12
F10.232
sI13
F10.234
sI14
F10.286
ssg158
(dp262
I0
F0.5504413937709547
sI1
Fnan
sI2
Fnan
sI3
Fnan
sI4
Fnan
sI5
Fnan
sI6
Fnan
sI7
Fnan
sI8
Fnan
sI9
Fnan
sI10
Fnan
sI11
Fnan
sI12
Fnan
sI13
Fnan
sI14
Fnan
sssS'z'
p263
(dp264
g3
(dp265
I0
F0.3703078766589472
sI1
Fnan
sI2
Fnan
sI3
Fnan
sI4
Fnan
sI5
Fnan
sI6
Fnan
sI7
Fnan
sI8
Fnan
sI9
Fnan
sI10
Fnan
sI11
Fnan
sI12
Fnan
sI13
Fnan
sI14
Fnan
ssg5
(dp266
I0
S'NoError'
p267
sI1
S'NoError'
p268
sI2
S'NoError'
p269
sI3
S'NoError'
p270
sI4
S'NoError'
p271
sI5
S'NoError'
p272
sI6
S'NoError'
p273
sI7
S'NoError'
p274
sI8
S'NoError'
p275
sI9
S'NoError'
p276
sI10
S'NoError'
p277
sI11
S'NoError'
p278
sI12
S'NoError'
p279
sI13
S'NoError'
p280
sI14
S'NoError'
p281
ssg22
(dp282
I0
F0.007
sI1
F0.007
sI2
F0.007
sI3
F0.007
sI4
F0.007
sI5
F0.007
sI6
F0.007
sI7
F0.007
sI8
F0.007
sI9
F0.007
sI10
F0.007
sI11
F0.007
sI12
F0.007
sI13
F0.007
sI14
F0.007
ssg24
(dp283
I0
F0.9235531182799115
sI1
F0.9213174337624315
sI2
F0.9157104430061139
sI3
F0.9147854162060881
sI4
F0.9125173013869058
sI5
F0.9153421835248537
sI6
F0.913124446616939
sI7
F0.916896418305594
sI8
F0.9144900364859992
sI9
F0.9160684530001371
sI10
F0.9121030812059195
sI11
F0.9209371218242003
sI12
F0.9147546623250681
sI13
F0.9229893205817521
sI14
F0.9149618835911612
ssg26
(dp284
I0
F0.003739377044185961
sI1
Fnan
sI2
Fnan
sI3
Fnan
sI4
Fnan
sI5
Fnan
sI6
Fnan
sI7
Fnan
sI8
Fnan
sI9
Fnan
sI10
Fnan
sI11
Fnan
sI12
Fnan
sI13
Fnan
sI14
Fnan
ssg28
(dp285
I0
F0.9166367546735384
sI1
Fnan
sI2
Fnan
sI3
Fnan
sI4
Fnan
sI5
Fnan
sI6
Fnan
sI7
Fnan
sI8
Fnan
sI9
Fnan
sI10
Fnan
sI11
Fnan
sI12
Fnan
sI13
Fnan
sI14
Fnan
ssg30
(dp286
I0
F13.212
sI1
F13.229
sI2
F13.214
sI3
F13.227
sI4
F13.294
sI5
F13.236
sI6
F13.274
sI7
F13.22
sI8
F13.263
sI9
F13.27
sI10
F13.208
sI11
F13.219
sI12
F13.215
sI13
F13.226
sI14
F13.264
ssg32
(dp287
I0
F8.855496
sI1
F10.56412
sI2
F11.03817
sI3
F12.11107
sI4
F12.37059
sI5
F10.68888
sI6
F12.00961
sI7
F11.30016
sI8
F10.84595
sI9
F11.06764
sI10
F10.0518
sI11
F10.2798
sI12
F10.50042
sI13
F10.87627
sI14
F11.91802
ssg34
(dp288
I0
F2458411.6297569443
sI1
F2458411.610474537
sI2
F2458411.629016204
sI3
F2458411.6119560185
sI4
F2458411.590497685
sI5
F2458411.631261574
sI6
F2458411.5927546294
sI7
F2458411.6112152776
sI8
F2458411.592002315
sI9
F2458411.591261574
sI10
F2458411.6127083334
sI11
F2458411.632013889
sI12
F2458411.609722222
sI13
F2458411.630509259
sI14
F2458411.5935069444
ssg36
(dp289
I0
F1.3168035200000001
sI1
Fnan
sI2
Fnan
sI3
Fnan
sI4
Fnan
sI5
Fnan
sI6
Fnan
sI7
Fnan
sI8
Fnan
sI9
Fnan
sI10
Fnan
sI11
Fnan
sI12
Fnan
sI13
Fnan
sI14
Fnan
ssg38
(dp290
I0
F1.4796134
sI1
Fnan
sI2
Fnan
sI3
Fnan
sI4
Fnan
sI5
Fnan
sI6
Fnan
sI7
Fnan
sI8
Fnan
sI9
Fnan
sI10
Fnan
sI11
Fnan
sI12
Fnan
sI13
Fnan
sI14
Fnan
ssg40
(dp291
I0
F0.3752011895972396
sI1
F0.3719585839039972
sI2
F0.3708935377297075
sI3
F0.36936444599803137
sI4
F0.36693926766828844
sI5
F0.36428949524235626
sI6
F0.3630340556403552
sI7
F0.36781218694359014
sI8
F0.3696532099346762
sI9
F0.3720941758094077
sI10
F0.3746962744558773
sI11
F0.3732560828406304
sI12
F0.37278647764082545
sI13
F0.37050924851550116
sI14
F0.36485609694513355
ssg42
(dp292
I0
F0.00326425049780719
sI1
Fnan
sI2
Fnan
sI3
Fnan
sI4
Fnan
sI5
Fnan
sI6
Fnan
sI7
Fnan
sI8
Fnan
sI9
Fnan
sI10
Fnan
sI11
Fnan
sI12
Fnan
sI13
Fnan
sI14
Fnan
ssg44
(dp293
I0
F1.5757780666666668
sI1
Fnan
sI2
Fnan
sI3
Fnan
sI4
Fnan
sI5
Fnan
sI6
Fnan
sI7
Fnan
sI8
Fnan
sI9
Fnan
sI10
Fnan
sI11
Fnan
sI12
Fnan
sI13
Fnan
sI14
Fnan
ssg46
(dp294
I0
g267
sI1
g268
sI2
g269
sI3
g270
sI4
g271
sI5
g272
sI6
g273
sI7
g274
sI8
g275
sI9
g276
sI10
g277
sI11
g278
sI12
g279
sI13
g280
sI14
g281
ssg48
(dp295
I0
F0.0033145503412498087
sI1
Fnan
sI2
Fnan
sI3
Fnan
sI4
Fnan
sI5
Fnan
sI6
Fnan
sI7
Fnan
sI8
Fnan
sI9
Fnan
sI10
Fnan
sI11
Fnan
sI12
Fnan
sI13
Fnan
sI14
Fnan
ssg50
(dp296
I0
F0.023450454356446784
sI1
Fnan
sI2
Fnan
sI3
Fnan
sI4
Fnan
sI5
Fnan
sI6
Fnan
sI7
Fnan
sI8
Fnan
sI9
Fnan
sI10
Fnan
sI11
Fnan
sI12
Fnan
sI13
Fnan
sI14
Fnan
ssg52
(dp297
I0
F1.2980041333333334
sI1
Fnan
sI2
Fnan
sI3
Fnan
sI4
Fnan
sI5
Fnan
sI6
Fnan
sI7
Fnan
sI8
Fnan
sI9
Fnan
sI10
Fnan
sI11
Fnan
sI12
Fnan
sI13
Fnan
sI14
Fnan
ssg54
(dp298
I0
F1.4999803047922917
sI1
F1.5107594346685047
sI2
F1.5035066398077706
sI3
F1.5041447734323665
sI4
F1.5120274344187903
sI5
F1.5155064425456923
sI6
F1.5058619504455544
sI7
F1.5057235320228202
sI8
F1.5091461869803855
sI9
F1.5074462737175638
sI10
F1.5094124546124168
sI11
F1.5136544008672153
sI12
F1.5136301496248719
sI13
F1.500439792844046
sI14
F1.5115881619394398
ssg56
(dp299
I0
g267
sI1
g268
sI2
g269
sI3
g270
sI4
g271
sI5
g272
sI6
g273
sI7
g274
sI8
g275
sI9
g276
sI10
g277
sI11
g278
sI12
g279
sI13
g280
sI14
g281
ssg58
(dp300
I0
F12.45268
sI1
F11.91034
sI2
F11.5745
sI3
F12.48534
sI4
F13.48556
sI5
F11.64721
sI6
F12.37915
sI7
F12.41432
sI8
F12.57754
sI9
F11.95261
sI10
F11.34604
sI11
F11.44775
sI12
F11.40916
sI13
F11.94582
sI14
F13.00032
ssg60
(dp301
I0
F11.881666666666668
sI1
Fnan
sI2
Fnan
sI3
Fnan
sI4
Fnan
sI5
Fnan
sI6
Fnan
sI7
Fnan
sI8
Fnan
sI9
Fnan
sI10
Fnan
sI11
Fnan
sI12
Fnan
sI13
Fnan
sI14
Fnan
ssg62
(dp302
I0
F0.6875190301170122
sI1
Fnan
sI2
Fnan
sI3
Fnan
sI4
Fnan
sI5
Fnan
sI6
Fnan
sI7
Fnan
sI8
Fnan
sI9
Fnan
sI10
Fnan
sI11
Fnan
sI12
Fnan
sI13
Fnan
sI14
Fnan
ssg64
(dp303
I0
F3.298484
sI1
F2.994028
sI2
F3.983624
sI3
F3.356559
sI4
F3.222927
sI5
F-3.893764
sI6
F-4.536994
sI7
F4.559966
sI8
F-3.172149
sI9
F2.00846
sI10
F-3.359021
sI11
F3.510593
sI12
F3.977393
sI13
F2.059108
sI14
F4.184987
ssg66
(dp304
I0
F12.221933333333334
sI1
Fnan
sI2
Fnan
sI3
Fnan
sI4
Fnan
sI5
Fnan
sI6
Fnan
sI7
Fnan
sI8
Fnan
sI9
Fnan
sI10
Fnan
sI11
Fnan
sI12
Fnan
sI13
Fnan
sI14
Fnan
ssg68
(dp305
I0
g267
sI1
g268
sI2
g269
sI3
g270
sI4
g271
sI5
g272
sI6
g273
sI7
g274
sI8
g275
sI9
g276
sI10
g277
sI11
g278
sI12
g279
sI13
g280
sI14
g281
ssg70
(dp306
I0
F3293.4216666666666
sI1
F3266.161666666667
sI2
F3304.6286666666665
sI3
F3276.4843333333333
sI4
F3096.3106666666667
sI5
F3298.5046666666667
sI6
F3190.32
sI7
F3318.862
sI8
F3168.984
sI9
F3129.208
sI10
F3281.763
sI11
F3281.824666666667
sI12
F3284.787333333333
sI13
F3289.697
sI14
F3206.449
ssg72
(dp307
I0
F1.037623
sI1
F1.018132
sI2
F1.0367
sI3
F1.019321
sI4
F1.007061
sI5
F1.039539
sI6
F1.007857
sI7
F1.018714
sI8
F1.007579
sI9
F1.007312
sI10
F1.0199340000000001
sI11
F1.0405149999999999
sI12
F1.017551
sI13
F1.0385739999999999
sI14
F1.008147
ssg74
(dp308
I0
F2664.0343333333335
sI1
F2633.6216666666664
sI2
F2702.0713333333333
sI3
F2682.1043333333337
sI4
F2531.559
sI5
F2678.2476666666666
sI6
F2615.9669999999996
sI7
F2704.5456666666664
sI8
F2587.167
sI9
F2550.724666666667
sI10
F2689.4919999999997
sI11
F2643.0416666666665
sI12
F2672.912
sI13
F2662.726666666667
sI14
F2611.6436666666664
ssg76
(dp309
I0
F4468.033333333334
sI1
F4456.576666666666
sI2
F4515.556666666667
sI3
F4481.29
sI4
F4254.746666666667
sI5
F4528.903333333334
sI6
F4371.733333333334
sI7
F4534.793333333333
sI8
F4343.4366666666665
sI9
F4281.096666666666
sI10
F4506.543333333333
sI11
F4484.1
sI12
F4508.876666666666
sI13
F4465.626666666666
sI14
F4397.28
ssg78
(dp310
I0
F11.99521
sI1
F11.79148
sI2
F10.71292
sI3
F11.88214
sI4
F12.76822
sI5
F12.50107
sI6
F12.91503
sI7
F10.9645
sI8
F12.09772
sI9
F11.63413
sI10
F11.54628
sI11
F11.6611
sI12
F11.29421
sI13
F11.4726
sI14
F12.57781
ssg80
(dp311
I0
F12.436
sI1
F12.449
sI2
F12.421
sI3
F12.429
sI4
F12.492
sI5
F12.43
sI6
F12.456
sI7
F12.42
sI8
F12.468
sI9
F12.483
sI10
F12.426
sI11
F12.445
sI12
F12.433
sI13
F12.437
sI14
F12.458
ssg82
(dp312
I0
F0.003
sI1
F0.003
sI2
F0.003
sI3
F0.003
sI4
F0.003
sI5
F0.003
sI6
F0.003
sI7
F0.003
sI8
F0.003
sI9
F0.003
sI10
F0.003
sI11
F0.003
sI12
F0.003
sI13
F0.003
sI14
F0.003
ssg84
(dp313
I0
F0.3698229552577077
sI1
Fnan
sI2
Fnan
sI3
Fnan
sI4
Fnan
sI5
Fnan
sI6
Fnan
sI7
Fnan
sI8
Fnan
sI9
Fnan
sI10
Fnan
sI11
Fnan
sI12
Fnan
sI13
Fnan
sI14
Fnan
ssg86
(dp314
I0
F12.445533333333334
sI1
Fnan
sI2
Fnan
sI3
Fnan
sI4
Fnan
sI5
Fnan
sI6
Fnan
sI7
Fnan
sI8
Fnan
sI9
Fnan
sI10
Fnan
sI11
Fnan
sI12
Fnan
sI13
Fnan
sI14
Fnan
ssg88
(dp315
I0
F12.206
sI1
F12.215
sI2
F12.202
sI3
F12.211
sI4
F12.273
sI5
F12.204
sI6
F12.24
sI7
F12.198
sI8
F12.248
sI9
F12.261
sI10
F12.21
sI11
F12.21
sI12
F12.209
sI13
F12.207
sI14
F12.235
ssg90
(dp316
I0
F3.346959
sI1
F2.076936
sI2
F3.57416
sI3
F-2.117344
sI4
F-3.397884
sI5
F4.225976
sI6
F-4.078824
sI7
F3.235553
sI8
F2.883033
sI9
F-3.980583
sI10
F3.822774
sI11
F-0.6787862
sI12
F3.645455
sI13
F2.854257
sI14
F4.340371
ssg92
(dp317
I0
F0.022099342804277028
sI1
Fnan
sI2
Fnan
sI3
Fnan
sI4
Fnan
sI5
Fnan
sI6
Fnan
sI7
Fnan
sI8
Fnan
sI9
Fnan
sI10
Fnan
sI11
Fnan
sI12
Fnan
sI13
Fnan
sI14
Fnan
ssg94
(dp318
I0
F0.686478072303024
sI1
F0.6820434806911106
sI2
F0.6910504593326773
sI3
F0.6914623236226302
sI4
F0.6887605102794283
sI5
F0.684325556216481
sI6
F0.6918668474523674
sI7
F0.6887355127968862
sI8
F0.6887705347703726
sI9
F0.6884263957838171
sI10
F0.6906487456686667
sI11
F0.6806766174313476
sI12
F0.6859192287478649
sI13
F0.6866835688912362
sI14
F0.6869375977672709
ssg96
(dp319
I0
F30.0
sI1
F30.0
sI2
F30.0
sI3
F30.0
sI4
F30.0
sI5
F30.0
sI6
F30.0
sI7
F30.0
sI8
F30.0
sI9
F30.0
sI10
F30.0
sI11
F30.0
sI12
F30.0
sI13
F30.0
sI14
F30.0
ssg98
(dp320
I0
F0.004
sI1
F0.004
sI2
F0.004
sI3
F0.004
sI4
F0.004
sI5
F0.004
sI6
F0.004
sI7
F0.004
sI8
F0.004
sI9
F0.004
sI10
F0.004
sI11
F0.004
sI12
F0.004
sI13
F0.004
sI14
F0.004
ssg100
(dp321
I0
F0.004
sI1
F0.004
sI2
F0.004
sI3
F0.004
sI4
F0.004
sI5
F0.004
sI6
F0.004
sI7
F0.004
sI8
F0.004
sI9
F0.004
sI10
F0.004
sI11
F0.004
sI12
F0.004
sI13
F0.004
sI14
F0.004
ssg102
(dp322
I0
F-2.937859
sI1
F3.267164
sI2
F2.557474
sI3
F-2.496165
sI4
F-2.629711
sI5
F-2.137213
sI6
F3.054974
sI7
F2.555753
sI8
F4.34517
sI9
F3.166821
sI10
F4.135645
sI11
F4.458868
sI12
F2.882887
sI13
F-3.349539
sI14
F2.595793
ssg104
(dp323
I0
S"KIC8462852-20181020at030651_-25-1X1-030-z'_cal.fts.mag.1"
p324
sI1
S"KIC8462852-20181020at023905_-25-1X1-030-z'_cal.fts.mag.1"
p325
sI2
S"KIC8462852-20181020at030545_-25-1X1-030-z'_cal.fts.mag.1"
p326
sI3
S"KIC8462852-20181020at024113_-25-1X1-030-z'_cal.fts.mag.1"
p327
sI4
S"KIC8462852-20181020at021018_-25-1X1-030-z'_cal.fts.mag.1"
p328
sI5
S"KIC8462852-20181020at030901_-25-1X1-030-z'_cal.fts.mag.1"
p329
sI6
S"KIC8462852-20181020at021334_-25-1X1-030-z'_cal.fts.mag.1"
p330
sI7
S"KIC8462852-20181020at024009_-25-1X1-030-z'_cal.fts.mag.1"
p331
sI8
S"KIC8462852-20181020at021229_-25-1X1-030-z'_cal.fts.mag.1"
p332
sI9
S"KIC8462852-20181020at021125_-25-1X1-030-z'_cal.fts.mag.1"
p333
sI10
S"KIC8462852-20181020at024218_-25-1X1-030-z'_cal.fts.mag.1"
p334
sI11
S"KIC8462852-20181020at031006_-25-1X1-030-z'_cal.fts.mag.1"
p335
sI12
S"KIC8462852-20181020at023757_-25-1X1-030-z'_cal.fts.mag.1"
p336
sI13
S"KIC8462852-20181020at030755_-25-1X1-030-z'_cal.fts.mag.1"
p337
sI14
S"KIC8462852-20181020at021439_-25-1X1-030-z'_cal.fts.mag.1"
p338
ssg121
(dp339
I0
F0.004826180310788412
sI1
Fnan
sI2
Fnan
sI3
Fnan
sI4
Fnan
sI5
Fnan
sI6
Fnan
sI7
Fnan
sI8
Fnan
sI9
Fnan
sI10
Fnan
sI11
Fnan
sI12
Fnan
sI13
Fnan
sI14
Fnan
ssg123
(dp340
I0
F1303.8853333333332
sI1
F1284.0456666666666
sI2
F1300.8790000000001
sI3
F1285.3733333333332
sI4
F1208.7733333333333
sI5
F1275.7
sI6
F1231.656
sI7
F1294.4783333333332
sI8
F1244.4483333333333
sI9
F1235.4803333333334
sI10
F1308.664
sI11
F1295.07
sI12
F1300.5993333333333
sI13
F1286.6613333333332
sI14
F1242.3803333333335
ssg125
(dp341
I0
F0.022064407883242793
sI1
Fnan
sI2
Fnan
sI3
Fnan
sI4
Fnan
sI5
Fnan
sI6
Fnan
sI7
Fnan
sI8
Fnan
sI9
Fnan
sI10
Fnan
sI11
Fnan
sI12
Fnan
sI13
Fnan
sI14
Fnan
ssg127
(dp342
I0
S"z'"
p343
sI1
S"z'"
p344
sI2
S"z'"
p345
sI3
S"z'"
p346
sI4
S"z'"
p347
sI5
S"z'"
p348
sI6
S"z'"
p349
sI7
S"z'"
p350
sI8
S"z'"
p351
sI9
S"z'"
p352
sI10
S"z'"
p353
sI11
S"z'"
p354
sI12
S"z'"
p355
sI13
S"z'"
p356
sI14
S"z'"
p357
ssg144
(dp358
I0
F0.0037659743484436165
sI1
Fnan
sI2
Fnan
sI3
Fnan
sI4
Fnan
sI5
Fnan
sI6
Fnan
sI7
Fnan
sI8
Fnan
sI9
Fnan
sI10
Fnan
sI11
Fnan
sI12
Fnan
sI13
Fnan
sI14
Fnan
ssg146
(dp359
I0
F4.469861
sI1
F3.125405
sI2
F2.211503
sI3
F1.36837
sI4
F-3.22102
sI5
F2.234746
sI6
F-1.230764
sI7
F1.517687
sI8
F3.882463
sI9
F2.864103
sI10
F3.889276
sI11
F5.166911
sI12
F4.693941
sI13
F-3.353118
sI14
F-3.982693
ssg148
(dp360
I0
F1.508188528847982
sI1
Fnan
sI2
Fnan
sI3
Fnan
sI4
Fnan
sI5
Fnan
sI6
Fnan
sI7
Fnan
sI8
Fnan
sI9
Fnan
sI10
Fnan
sI11
Fnan
sI12
Fnan
sI13
Fnan
sI14
Fnan
ssg150
(dp361
I0
F2458411.6112152776
sI1
Fnan
sI2
Fnan
sI3
Fnan
sI4
Fnan
sI5
Fnan
sI6
Fnan
sI7
Fnan
sI8
Fnan
sI9
Fnan
sI10
Fnan
sI11
Fnan
sI12
Fnan
sI13
Fnan
sI14
Fnan
ssg152
(dp362
I0
F0.0037659743484436165
sI1
Fnan
sI2
Fnan
sI3
Fnan
sI4
Fnan
sI5
Fnan
sI6
Fnan
sI7
Fnan
sI8
Fnan
sI9
Fnan
sI10
Fnan
sI11
Fnan
sI12
Fnan
sI13
Fnan
sI14
Fnan
ssg154
(dp363
I0
F12.49496
sI1
F13.29039
sI2
F11.58969
sI3
F12.22675
sI4
F14.37706
sI5
F12.56618
sI6
F14.19843
sI7
F12.14631
sI8
F14.07101
sI9
F15.10776
sI10
F12.40574
sI11
F13.34897
sI12
F12.28476
sI13
F11.76355
sI14
F12.88699
ssg156
(dp364
I0
F11.875
sI1
F11.877
sI2
F11.863
sI3
F11.871
sI4
F11.928
sI5
F11.86
sI6
F11.898
sI7
F11.859
sI8
F11.905
sI9
F11.921
sI10
F11.865
sI11
F11.871
sI12
F11.865
sI13
F11.875
sI14
F11.892
ssg158
(dp365
I0
F0.3698229552577077
sI1
Fnan
sI2
Fnan
sI3
Fnan
sI4
Fnan
sI5
Fnan
sI6
Fnan
sI7
Fnan
sI8
Fnan
sI9
Fnan
sI10
Fnan
sI11
Fnan
sI12
Fnan
sI13
Fnan
sI14
Fnan
sssS'g'
p366
(dp367
g3
(dp368
I0
F0.8716863745680745
sI1
Fnan
sI2
Fnan
sI3
Fnan
sI4
Fnan
sI5
Fnan
sI6
Fnan
sI7
Fnan
sI8
Fnan
sI9
Fnan
sI10
Fnan
sI11
Fnan
sI12
Fnan
sI13
Fnan
sI14
Fnan
ssg5
(dp369
I0
S'NoError'
p370
sI1
S'NoError'
p371
sI2
S'NoError'
p372
sI3
S'NoError'
p373
sI4
S'NoError'
p374
sI5
S'NoError'
p375
sI6
S'NoError'
p376
sI7
S'NoError'
p377
sI8
S'NoError'
p378
sI9
S'NoError'
p379
sI10
S'NoError'
p380
sI11
S'NoError'
p381
sI12
S'NoError'
p382
sI13
S'NoError'
p383
sI14
S'NoError'
p384
ssg22
(dp385
I0
F0.002
sI1
F0.002
sI2
F0.002
sI3
F0.002
sI4
F0.002
sI5
F0.002
sI6
F0.002
sI7
F0.002
sI8
F0.002
sI9
F0.002
sI10
F0.002
sI11
F0.002
sI12
F0.002
sI13
F0.002
sI14
F0.002
ssg24
(dp386
I0
F0.8766575501927
sI1
F0.88184585167098
sI2
F0.8778434089981869
sI3
F0.8796995420594284
sI4
F0.8827849375771175
sI5
F0.8824248363087231
sI6
F0.8735954444435282
sI7
F0.8769866461782272
sI8
F0.8807265970520435
sI9
F0.8811244619077896
sI10
F0.8805009149620726
sI11
F0.8817803288678945
sI12
F0.8796486849240335
sI13
F0.8806515125777908
sI14
F0.872006105144584
ssg26
(dp387
I0
F0.003202181607527779
sI1
Fnan
sI2
Fnan
sI3
Fnan
sI4
Fnan
sI5
Fnan
sI6
Fnan
sI7
Fnan
sI8
Fnan
sI9
Fnan
sI10
Fnan
sI11
Fnan
sI12
Fnan
sI13
Fnan
sI14
Fnan
ssg28
(dp388
I0
F0.8792184548576731
sI1
Fnan
sI2
Fnan
sI3
Fnan
sI4
Fnan
sI5
Fnan
sI6
Fnan
sI7
Fnan
sI8
Fnan
sI9
Fnan
sI10
Fnan
sI11
Fnan
sI12
Fnan
sI13
Fnan
sI14
Fnan
ssg30
(dp389
I0
F11.35
sI1
F11.413
sI2
F11.349
sI3
F11.36
sI4
F11.383
sI5
F11.417
sI6
F11.464
sI7
F11.405
sI8
F11.344
sI9
F11.376
sI10
F11.411
sI11
F11.351
sI12
F11.354
sI13
F11.354
sI14
F11.349
ssg32
(dp390
I0
F30.05721
sI1
F49.20834
sI2
F28.62119
sI3
F28.88925
sI4
F31.00319
sI5
F45.68849
sI6
F42.99878
sI7
F44.04017
sI8
F29.27868
sI9
F30.59761
sI10
F54.59785
sI11
F30.12852
sI12
F29.34514
sI13
F29.9317
sI14
F30.76387
ssg34
(dp391
I0
F2458411.6190046296
sI1
F2458411.579803241
sI2
F2458411.618263889
sI3
F2458411.5999074075
sI4
F2458411.601400463
sI5
F2458411.5805555554
sI6
F2458411.5820486112
sI7
F2458411.5813078703
sI8
F2458411.5991550926
sI9
F2458411.617523148
sI10
F2458411.578935185
sI11
F2458411.6197569445
sI12
F2458411.600648148
sI13
F2458411.598310185
sI14
F2458411.6204976854
ssg36
(dp392
I0
F2.573100666666667
sI1
Fnan
sI2
Fnan
sI3
Fnan
sI4
Fnan
sI5
Fnan
sI6
Fnan
sI7
Fnan
sI8
Fnan
sI9
Fnan
sI10
Fnan
sI11
Fnan
sI12
Fnan
sI13
Fnan
sI14
Fnan
ssg38
(dp393
I0
F2.4439166666666665
sI1
Fnan
sI2
Fnan
sI3
Fnan
sI4
Fnan
sI5
Fnan
sI6
Fnan
sI7
Fnan
sI8
Fnan
sI9
Fnan
sI10
Fnan
sI11
Fnan
sI12
Fnan
sI13
Fnan
sI14
Fnan
ssg40
(dp394
I0
F0.871626755675732
sI1
F0.8668505570619028
sI2
F0.8740700850376414
sI3
F0.8684312821498514
sI4
F0.8739252777653819
sI5
F0.8730752039867372
sI6
F0.8640286430530221
sI7
F0.8715209790431003
sI8
F0.8708643071590898
sI9
F0.8671061612401902
sI10
F0.873236073414017
sI11
F0.8742462622740264
sI12
F0.8747212890526906
sI13
F0.870746910822127
sI14
F0.8731880992705546
ssg42
(dp395
I0
F0.002529716156507318
sI1
Fnan
sI2
Fnan
sI3
Fnan
sI4
Fnan
sI5
Fnan
sI6
Fnan
sI7
Fnan
sI8
Fnan
sI9
Fnan
sI10
Fnan
sI11
Fnan
sI12
Fnan
sI13
Fnan
sI14
Fnan
ssg44
(dp396
I0
F2.660151733333334
sI1
Fnan
sI2
Fnan
sI3
Fnan
sI4
Fnan
sI5
Fnan
sI6
Fnan
sI7
Fnan
sI8
Fnan
sI9
Fnan
sI10
Fnan
sI11
Fnan
sI12
Fnan
sI13
Fnan
sI14
Fnan
ssg46
(dp397
I0
g370
sI1
g371
sI2
g372
sI3
g373
sI4
g374
sI5
g375
sI6
g376
sI7
g377
sI8
g378
sI9
g379
sI10
g380
sI11
g381
sI12
g382
sI13
g383
sI14
g384
ssg48
(dp398
I0
F0.0027104596221189273
sI1
Fnan
sI2
Fnan
sI3
Fnan
sI4
Fnan
sI5
Fnan
sI6
Fnan
sI7
Fnan
sI8
Fnan
sI9
Fnan
sI10
Fnan
sI11
Fnan
sI12
Fnan
sI13
Fnan
sI14
Fnan
ssg50
(dp399
I0
F0.03401778246460976
sI1
Fnan
sI2
Fnan
sI3
Fnan
sI4
Fnan
sI5
Fnan
sI6
Fnan
sI7
Fnan
sI8
Fnan
sI9
Fnan
sI10
Fnan
sI11
Fnan
sI12
Fnan
sI13
Fnan
sI14
Fnan
ssg52
(dp400
I0
F1.0698164666666665
sI1
Fnan
sI2
Fnan
sI3
Fnan
sI4
Fnan
sI5
Fnan
sI6
Fnan
sI7
Fnan
sI8
Fnan
sI9
Fnan
sI10
Fnan
sI11
Fnan
sI12
Fnan
sI13
Fnan
sI14
Fnan
ssg54
(dp401
I0
F1.510844551760953
sI1
F1.51898111423087
sI2
F1.5107042155463501
sI3
F1.5104183377844043
sI4
F1.5108549581626645
sI5
F1.5144104694162153
sI6
F1.515621038995171
sI7
F1.5165638760639255
sI8
F1.511062701344241
sI9
F1.5139411421850073
sI10
F1.5112311469450455
sI11
F1.5093186742191118
sI12
F1.5113969321025682
sI13
F1.5123465550690698
sI14
F1.5180214057614811
ssg56
(dp402
I0
g370
sI1
g371
sI2
g372
sI3
g373
sI4
g374
sI5
g375
sI6
g376
sI7
g377
sI8
g378
sI9
g379
sI10
g380
sI11
g381
sI12
g382
sI13
g383
sI14
g384
ssg58
(dp403
I0
F29.52645
sI1
F50.39372
sI2
F30.67572
sI3
F30.17685
sI4
F29.7641
sI5
F47.33192
sI6
F43.24865
sI7
F43.53738
sI8
F29.66873
sI9
F30.38941
sI10
F54.61358
sI11
F28.69046
sI12
F29.27173
sI13
F29.75576
sI14
F30.60738
ssg60
(dp404
I0
F10.950733333333336
sI1
Fnan
sI2
Fnan
sI3
Fnan
sI4
Fnan
sI5
Fnan
sI6
Fnan
sI7
Fnan
sI8
Fnan
sI9
Fnan
sI10
Fnan
sI11
Fnan
sI12
Fnan
sI13
Fnan
sI14
Fnan
ssg62
(dp405
I0
F0.7171736944212876
sI1
Fnan
sI2
Fnan
sI3
Fnan
sI4
Fnan
sI5
Fnan
sI6
Fnan
sI7
Fnan
sI8
Fnan
sI9
Fnan
sI10
Fnan
sI11
Fnan
sI12
Fnan
sI13
Fnan
sI14
Fnan
ssg64
(dp406
I0
F2.232657
sI1
F5.45707
sI2
F4.572506
sI3
F4.44398
sI4
F-1.56119
sI5
F2.017279
sI6
F5.122931
sI7
F3.690927
sI8
F-2.612528
sI9
F-4.156194
sI10
F3.700777
sI11
F4.817975
sI12
F3.02601
sI13
F2.982511
sI14
F2.924039
ssg66
(dp407
I0
F11.324066666666665
sI1
Fnan
sI2
Fnan
sI3
Fnan
sI4
Fnan
sI5
Fnan
sI6
Fnan
sI7
Fnan
sI8
Fnan
sI9
Fnan
sI10
Fnan
sI11
Fnan
sI12
Fnan
sI13
Fnan
sI14
Fnan
ssg68
(dp408
I0
g370
sI1
g371
sI2
g372
sI3
g373
sI4
g374
sI5
g375
sI6
g376
sI7
g377
sI8
g378
sI9
g379
sI10
g380
sI11
g381
sI12
g382
sI13
g383
sI14
g384
ssg70
(dp409
I0
F7596.256666666667
sI1
F7237.45
sI2
F7588.306666666667
sI3
F7575.746666666667
sI4
F7388.256666666667
sI5
F7162.11
sI6
F6886.1466666666665
sI7
F7227.213333333333
sI8
F7675.5
sI9
F7485.75
sI10
F7194.263333333333
sI11
F7601.193333333333
sI12
F7562.033333333334
sI13
F7603.78
sI14
F7560.54
ssg72
(dp410
I0
F1.0256889999999999
sI1
F1.004823
sI2
F1.024961
sI3
F1.01114
sI4
F1.0119719999999999
sI5
F1.0048979999999998
sI6
F1.005082
sI7
F1.004984
sI8
F1.010741
sI9
F1.0242440000000002
sI10
F1.0047540000000001
sI11
F1.026425
sI12
F1.011551
sI13
F1.010311
sI14
F1.027184
ssg74
(dp411
I0
F6603.346666666666
sI1
F6204.946666666667
sI2
F6583.679999999999
sI3
F6553.1866666666665
sI4
F6355.846666666666
sI5
F6151.59
sI6
F5999.8933333333325
sI7
F6257.05
sI8
F6625.256666666667
sI9
F6445.676666666666
sI10
F6211.61
sI11
F6556.4
sI12
F6537.96
sI13
F6559.009999999999
sI14
F6595.7733333333335
ssg76
(dp412
I0
F10726.696666666667
sI1
F10209.373333333333
sI2
F10704.84
sI3
F10670.3
sI4
F10382.673333333334
sI5
F10081.203333333333
sI6
F9765.176666666666
sI7
F10224.873333333333
sI8
F10804.67
sI9
F10545.68
sI10
F10129.686666666666
sI11
F10684.16
sI12
F10655.343333333332
sI13
F10709.523333333334
sI14
F10744.793333333333
ssg78
(dp413
I0
F28.71159
sI1
F49.49596
sI2
F28.08851
sI3
F27.95266
sI4
F29.30978
sI5
F45.73962
sI6
F41.42577
sI7
F42.05661
sI8
F28.60485
sI9
F30.33955
sI10
F54.03374
sI11
F29.18836
sI12
F28.10393
sI13
F28.68141
sI14
F29.57958
ssg80
(dp414
I0
F11.451
sI1
F11.518
sI2
F11.454
sI3
F11.459
sI4
F11.492
sI5
F11.528
sI6
F11.555
sI7
F11.509
sI8
F11.447
sI9
F11.477
sI10
F11.517
sI11
F11.458
sI12
F11.461
sI13
F11.458
sI14
F11.452
ssg82
(dp415
I0
F0.002
sI1
F0.002
sI2
F0.002
sI3
F0.002
sI4
F0.002
sI5
F0.002
sI6
F0.002
sI7
F0.002
sI8
F0.002
sI9
F0.002
sI10
F0.002
sI11
F0.002
sI12
F0.002
sI13
F0.002
sI14
F0.002
ssg84
(dp416
I0
F0.8711758591337376
sI1
Fnan
sI2
Fnan
sI3
Fnan
sI4
Fnan
sI5
Fnan
sI6
Fnan
sI7
Fnan
sI8
Fnan
sI9
Fnan
sI10
Fnan
sI11
Fnan
sI12
Fnan
sI13
Fnan
sI14
Fnan
ssg86
(dp417
I0
F11.482400000000002
sI1
Fnan
sI2
Fnan
sI3
Fnan
sI4
Fnan
sI5
Fnan
sI6
Fnan
sI7
Fnan
sI8
Fnan
sI9
Fnan
sI10
Fnan
sI11
Fnan
sI12
Fnan
sI13
Fnan
sI14
Fnan
ssg88
(dp418
I0
F11.299
sI1
F11.351
sI2
F11.3
sI3
F11.301
sI4
F11.329
sI5
F11.362
sI6
F11.405
sI7
F11.353
sI8
F11.287
sI9
F11.314
sI10
F11.358
sI11
F11.298
sI12
F11.303
sI13
F11.297
sI14
F11.304
ssg90
(dp419
I0
F4.752913
sI1
F5.332249
sI2
F3.85376
sI3
F4.767606
sI4
F-2.978641
sI5
F4.061123
sI6
F-1.179834
sI7
F-3.694149
sI8
F3.560482
sI9
F2.107663
sI10
F5.245126
sI11
F4.153396
sI12
F2.57137
sI13
F1.745417
sI14
F4.298029
ssg92
(dp420
I0
F0.03312630949792595
sI1
Fnan
sI2
Fnan
sI3
Fnan
sI4
Fnan
sI5
Fnan
sI6
Fnan
sI7
Fnan
sI8
Fnan
sI9
Fnan
sI10
Fnan
sI11
Fnan
sI12
Fnan
sI13
Fnan
sI14
Fnan
ssg94
(dp421
I0
F0.7207731795784013
sI1
F0.7112981599133519
sI2
F0.7197974323353152
sI3
F0.7183130446156921
sI4
F0.7153082778072578
sI5
F0.7135044038326742
sI6
F0.7206506309708717
sI7
F0.7170546559284411
sI8
F0.7170125238746903
sI9
F0.7149379352238471
sI10
F0.7171124368287832
sI11
F0.7171204056580075
sI12
F0.717771841646428
sI13
F0.7163109659262273
sI14
F0.7206395221793285
ssg96
(dp422
I0
F30.0
sI1
F30.0
sI2
F30.0
sI3
F30.0
sI4
F30.0
sI5
F30.0
sI6
F30.0
sI7
F30.0
sI8
F30.0
sI9
F30.0
sI10
F30.0
sI11
F30.0
sI12
F30.0
sI13
F30.0
sI14
F30.0
ssg98
(dp423
I0
F0.002
sI1
F0.003
sI2
F0.002
sI3
F0.002
sI4
F0.002
sI5
F0.003
sI6
F0.003
sI7
F0.003
sI8
F0.002
sI9
F0.002
sI10
F0.003
sI11
F0.002
sI12
F0.002
sI13
F0.002
sI14
F0.002
ssg100
(dp424
I0
F0.002
sI1
F0.002
sI2
F0.002
sI3
F0.002
sI4
F0.002
sI5
F0.002
sI6
F0.002
sI7
F0.002
sI8
F0.002
sI9
F0.002
sI10
F0.002
sI11
F0.002
sI12
F0.002
sI13
F0.002
sI14
F0.002
ssg102
(dp425
I0
F4.052118
sI1
F3.631128
sI2
F-3.566848
sI3
F4.464553
sI4
F4.310828
sI5
F-3.740047
sI6
F5.342836
sI7
F3.344425
sI8
F4.028367
sI9
F-3.444493
sI10
F-4.936131
sI11
F4.117874
sI12
F3.87616
sI13
F-2.718266
sI14
F-2.715257
ssg104
(dp426
I0
S"KIC8462852-20181020at025122_-25-1X1-030-g'_cal.fts.mag.1"
p427
sI1
S"KIC8462852-20181020at015455_-25-1X1-030-g'_cal.fts.mag.1"
p428
sI2
S"KIC8462852-20181020at025018_-25-1X1-030-g'_cal.fts.mag.1"
p429
sI3
S"KIC8462852-20181020at022352_-25-1X1-030-g'_cal.fts.mag.1"
p430
sI4
S"KIC8462852-20181020at022601_-25-1X1-030-g'_cal.fts.mag.1"
p431
sI5
S"KIC8462852-20181020at015600_-25-1X1-030-g'_cal.fts.mag.1"
p432
sI6
S"KIC8462852-20181020at015809_-25-1X1-030-g'_cal.fts.mag.1"
p433
sI7
S"KIC8462852-20181020at015705_-25-1X1-030-g'_cal.fts.mag.1"
p434
sI8
S"KIC8462852-20181020at022247_-25-1X1-030-g'_cal.fts.mag.1"
p435
sI9
S"KIC8462852-20181020at024908_-25-1X1-030-g'_cal.fts.mag.1"
p436
sI10
S"KIC8462852-20181020at015329_-25-1X1-030-g'_cal.fts.mag.1"
p437
sI11
S"KIC8462852-20181020at025227_-25-1X1-030-g'_cal.fts.mag.1"
p438
sI12
S"KIC8462852-20181020at022456_-25-1X1-030-g'_cal.fts.mag.1"
p439
sI13
S"KIC8462852-20181020at022129_-25-1X1-030-g'_cal.fts.mag.1"
p440
sI14
S"KIC8462852-20181020at025331_-25-1X1-030-g'_cal.fts.mag.1"
p441
ssg121
(dp442
I0
F0.0030238799715970486
sI1
Fnan
sI2
Fnan
sI3
Fnan
sI4
Fnan
sI5
Fnan
sI6
Fnan
sI7
Fnan
sI8
Fnan
sI9
Fnan
sI10
Fnan
sI11
Fnan
sI12
Fnan
sI13
Fnan
sI14
Fnan
ssg123
(dp443
I0
F7242.1433333333325
sI1
F6834.183333333333
sI2
F7248.03
sI3
F7178.8099999999995
sI4
F7028.333333333333
sI5
F6808.503333333333
sI6
F6523.766666666666
sI7
F6887.67
sI8
F7287.806666666667
sI9
F7074.75
sI10
F6850.7
sI11
F7239.27
sI12
F7218.006666666667
sI13
F7219.163333333333
sI14
F7247.783333333334
ssg125
(dp444
I0
F0.03465091217104849
sI1
Fnan
sI2
Fnan
sI3
Fnan
sI4
Fnan
sI5
Fnan
sI6
Fnan
sI7
Fnan
sI8
Fnan
sI9
Fnan
sI10
Fnan
sI11
Fnan
sI12
Fnan
sI13
Fnan
sI14
Fnan
ssg127
(dp445
I0
S"g'"
p446
sI1
S"g'"
p447
sI2
S"g'"
p448
sI3
S"g'"
p449
sI4
S"g'"
p450
sI5
S"g'"
p451
sI6
S"g'"
p452
sI7
S"g'"
p453
sI8
S"g'"
p454
sI9
S"g'"
p455
sI10
S"g'"
p456
sI11
S"g'"
p457
sI12
S"g'"
p458
sI13
S"g'"
p459
sI14
S"g'"
p460
ssg144
(dp461
I0
F0.003210740407279284
sI1
Fnan
sI2
Fnan
sI3
Fnan
sI4
Fnan
sI5
Fnan
sI6
Fnan
sI7
Fnan
sI8
Fnan
sI9
Fnan
sI10
Fnan
sI11
Fnan
sI12
Fnan
sI13
Fnan
sI14
Fnan
ssg146
(dp462
I0
F3.042917
sI1
F-1.612939
sI2
F3.861627
sI3
F4.084247
sI4
F-3.757285
sI5
F5.0439
sI6
F2.97598
sI7
F4.386352
sI8
F3.013303
sI9
F2.069047
sI10
F5.248072
sI11
F1.276847
sI12
F3.679912
sI13
F3.849344
sI14
F2.740952
ssg148
(dp463
I0
F1.5130478079724718
sI1
Fnan
sI2
Fnan
sI3
Fnan
sI4
Fnan
sI5
Fnan
sI6
Fnan
sI7
Fnan
sI8
Fnan
sI9
Fnan
sI10
Fnan
sI11
Fnan
sI12
Fnan
sI13
Fnan
sI14
Fnan
ssg150
(dp464
I0
F2458411.5999074075
sI1
Fnan
sI2
Fnan
sI3
Fnan
sI4
Fnan
sI5
Fnan
sI6
Fnan
sI7
Fnan
sI8
Fnan
sI9
Fnan
sI10
Fnan
sI11
Fnan
sI12
Fnan
sI13
Fnan
sI14
Fnan
ssg152
(dp465
I0
F0.003210740407279284
sI1
Fnan
sI2
Fnan
sI3
Fnan
sI4
Fnan
sI5
Fnan
sI6
Fnan
sI7
Fnan
sI8
Fnan
sI9
Fnan
sI10
Fnan
sI11
Fnan
sI12
Fnan
sI13
Fnan
sI14
Fnan
ssg154
(dp466
I0
F30.31838
sI1
F52.42699
sI2
F31.05614
sI3
F31.47267
sI4
F32.12403
sI5
F50.13559
sI6
F46.58288
sI7
F46.64923
sI8
F31.17525
sI9
F33.51735
sI10
F57.59764
sI11
F32.32631
sI12
F32.03544
sI13
F33.596
sI14
F30.73651
ssg156
(dp467
I0
F10.924
sI1
F10.978
sI2
F10.926
sI3
F10.93
sI4
F10.959
sI5
F10.991
sI6
F11.026
sI7
F10.976
sI8
F10.916
sI9
F10.942
sI10
F10.986
sI11
F10.928
sI12
F10.931
sI13
F10.926
sI14
F10.922
ssg158
(dp468
I0
F0.8711758591337376
sI1
Fnan
sI2
Fnan
sI3
Fnan
sI4
Fnan
sI5
Fnan
sI6
Fnan
sI7
Fnan
sI8
Fnan
sI9
Fnan
sI10
Fnan
sI11
Fnan
sI12
Fnan
sI13
Fnan
sI14
Fnan
sssS'V'
p469
(dp470
g3
(dp471
I0
F0.6930178599064569
sI1
Fnan
sI2
Fnan
sI3
Fnan
sI4
Fnan
sI5
Fnan
sI6
Fnan
sI7
Fnan
sI8
Fnan
sI9
Fnan
sI10
Fnan
sI11
Fnan
sI12
Fnan
sI13
Fnan
sI14
Fnan
ssg5
(dp472
I0
S'NoError'
p473
sI1
S'NoError'
p474
sI2
S'NoError'
p475
sI3
S'NoError'
p476
sI4
S'NoError'
p477
sI5
S'NoError'
p478
sI6
S'NoError'
p479
sI7
S'NoError'
p480
sI8
S'NoError'
p481
sI9
S'NoError'
p482
sI10
S'NoError'
p483
sI11
S'NoError'
p484
sI12
S'NoError'
p485
sI13
S'NoError'
p486
sI14
S'NoError'
p487
ssg22
(dp488
I0
F0.002
sI1
F0.002
sI2
F0.002
sI3
F0.002
sI4
F0.002
sI5
F0.002
sI6
F0.002
sI7
F0.002
sI8
F0.002
sI9
F0.002
sI10
F0.002
sI11
F0.002
sI12
F0.002
sI13
F0.002
sI14
F0.002
ssg24
(dp489
I0
F0.8920374855414808
sI1
F0.8841601872679817
sI2
F0.8889709737300046
sI3
F0.8840321932981345
sI4
F0.8865846666917632
sI5
F0.8862855051932637
sI6
F0.886647401052507
sI7
F0.890726459711823
sI8
F0.8871939353014768
sI9
F0.8849596794723917
sI10
F0.8844863918133412
sI11
F0.88310369314981
sI12
F0.8865831288063118
sI13
F0.8833204976964745
sI14
F0.8803686611467403
ssg26
(dp490
I0
F0.0030250939881209357
sI1
Fnan
sI2
Fnan
sI3
Fnan
sI4
Fnan
sI5
Fnan
sI6
Fnan
sI7
Fnan
sI8
Fnan
sI9
Fnan
sI10
Fnan
sI11
Fnan
sI12
Fnan
sI13
Fnan
sI14
Fnan
ssg28
(dp491
I0
F0.8859640573249002
sI1
Fnan
sI2
Fnan
sI3
Fnan
sI4
Fnan
sI5
Fnan
sI6
Fnan
sI7
Fnan
sI8
Fnan
sI9
Fnan
sI10
Fnan
sI11
Fnan
sI12
Fnan
sI13
Fnan
sI14
Fnan
ssg30
(dp492
I0
F11.367
sI1
F11.376
sI2
F11.467
sI3
F11.387
sI4
F11.353
sI5
F11.366
sI6
F11.382
sI7
F11.363
sI8
F11.367
sI9
F11.38
sI10
F11.383
sI11
F11.401
sI12
F11.397
sI13
F11.387
sI14
F11.382
ssg32
(dp493
I0
F25.76567
sI1
F25.92668
sI2
F30.84735
sI3
F28.8711
sI4
F25.69477
sI5
F28.69087
sI6
F26.59104
sI7
F29.5801
sI8
F29.13436
sI9
F25.72798
sI10
F28.04972
sI11
F28.49666
sI12
F26.33038
sI13
F26.53222
sI14
F27.93344
ssg34
(dp494
I0
F2458411.613541667
sI1
F2458411.61662037
sI2
F2458411.594351852
sI3
F2458411.632847222
sI4
F2458411.5958796297
sI5
F2458411.634386574
sI6
F2458411.6150810183
sI7
F2458411.635914352
sI8
F2458411.635138889
sI9
F2458411.6158449072
sI10
F2458411.595127315
sI11
F2458411.5966435187
sI12
F2458411.5974189816
sI13
F2458411.61431713
sI14
F2458411.633622685
ssg36
(dp495
I0
F2.3539097333333334
sI1
Fnan
sI2
Fnan
sI3
Fnan
sI4
Fnan
sI5
Fnan
sI6
Fnan
sI7
Fnan
sI8
Fnan
sI9
Fnan
sI10
Fnan
sI11
Fnan
sI12
Fnan
sI13
Fnan
sI14
Fnan
ssg38
(dp496
I0
F2.073945133333334
sI1
Fnan
sI2
Fnan
sI3
Fnan
sI4
Fnan
sI5
Fnan
sI6
Fnan
sI7
Fnan
sI8
Fnan
sI9
Fnan
sI10
Fnan
sI11
Fnan
sI12
Fnan
sI13
Fnan
sI14
Fnan
ssg40
(dp497
I0
F0.6935698870882474
sI1
F0.6911260091951333
sI2
F0.6923752709842635
sI3
F0.6932385282108758
sI4
F0.6948499842435246
sI5
F0.6905915963460131
sI6
F0.6898547510109931
sI7
F0.6939199769876067
sI8
F0.6972398492045698
sI9
F0.6909855857222041
sI10
F0.6940024834414374
sI11
F0.6945013353276251
sI12
F0.6928092241930728
sI13
F0.6923429796228684
sI14
F0.6949193174210686
ssg42
(dp498
I0
F0.001409242894251119
sI1
Fnan
sI2
Fnan
sI3
Fnan
sI4
Fnan
sI5
Fnan
sI6
Fnan
sI7
Fnan
sI8
Fnan
sI9
Fnan
sI10
Fnan
sI11
Fnan
sI12
Fnan
sI13
Fnan
sI14
Fnan
ssg44
(dp499
I0
F2.2330774599999996
sI1
Fnan
sI2
Fnan
sI3
Fnan
sI4
Fnan
sI5
Fnan
sI6
Fnan
sI7
Fnan
sI8
Fnan
sI9
Fnan
sI10
Fnan
sI11
Fnan
sI12
Fnan
sI13
Fnan
sI14
Fnan
ssg46
(dp500
I0
g473
sI1
g474
sI2
g475
sI3
g476
sI4
g477
sI5
g478
sI6
g479
sI7
g480
sI8
g481
sI9
g482
sI10
g483
sI11
g484
sI12
g485
sI13
g486
sI14
g487
ssg48
(dp501
I0
F0.002304754511568937
sI1
Fnan
sI2
Fnan
sI3
Fnan
sI4
Fnan
sI5
Fnan
sI6
Fnan
sI7
Fnan
sI8
Fnan
sI9
Fnan
sI10
Fnan
sI11
Fnan
sI12
Fnan
sI13
Fnan
sI14
Fnan
ssg50
(dp502
I0
F0.02603532398949715
sI1
Fnan
sI2
Fnan
sI3
Fnan
sI4
Fnan
sI5
Fnan
sI6
Fnan
sI7
Fnan
sI8
Fnan
sI9
Fnan
sI10
Fnan
sI11
Fnan
sI12
Fnan
sI13
Fnan
sI14
Fnan
ssg52
(dp503
I0
F2.3266291333333333
sI1
Fnan
sI2
Fnan
sI3
Fnan
sI4
Fnan
sI5
Fnan
sI6
Fnan
sI7
Fnan
sI8
Fnan
sI9
Fnan
sI10
Fnan
sI11
Fnan
sI12
Fnan
sI13
Fnan
sI14
Fnan
ssg54
(dp504
I0
F1.492864248383658
sI1
F1.5026809577562585
sI2
F1.497995536999236
sI3
F1.5067572520662593
sI4
F1.4965365917745714
sI5
F1.4947195002118512
sI6
F1.5071728361807277
sI7
F1.4988721529589775
sI8
F1.4940563059635072
sI9
F1.5038486393967072
sI10
F1.5068499635070136
sI11
F1.5024192901877285
sI12
F1.4988116227506272
sI13
F1.506766091822849
sI14
F1.5052070247798743
ssg56
(dp505
I0
g473
sI1
g474
sI2
g475
sI3
g476
sI4
g477
sI5
g478
sI6
g479
sI7
g480
sI8
g481
sI9
g482
sI10
g483
sI11
g484
sI12
g485
sI13
g486
sI14
g487
ssg58
(dp506
I0
F27.66163
sI1
F27.25406
sI2
F32.88957
sI3
F28.61282
sI4
F27.34426
sI5
F30.38566
sI6
F27.69268
sI7
F30.77904
sI8
F30.55312
sI9
F28.60568
sI10
F27.8599
sI11
F29.44104
sI12
F29.08904
sI13
F28.12162
sI14
F30.91361
ssg60
(dp507
I0
F10.712466666666666
sI1
Fnan
sI2
Fnan
sI3
Fnan
sI4
Fnan
sI5
Fnan
sI6
Fnan
sI7
Fnan
sI8
Fnan
sI9
Fnan
sI10
Fnan
sI11
Fnan
sI12
Fnan
sI13
Fnan
sI14
Fnan
ssg62
(dp508
I0
F0.7183919903212335
sI1
Fnan
sI2
Fnan
sI3
Fnan
sI4
Fnan
sI5
Fnan
sI6
Fnan
sI7
Fnan
sI8
Fnan
sI9
Fnan
sI10
Fnan
sI11
Fnan
sI12
Fnan
sI13
Fnan
sI14
Fnan
ssg64
(dp509
I0
F3.780834
sI1
F4.157871
sI2
F4.873029
sI3
F4.285865
sI4
F3.453513
sI5
F-3.015277
sI6
F-2.001528
sI7
F-4.986242
sI8
F4.589688
sI9
F5.386294
sI10
F3.473044
sI11
F-3.027581
sI12
F3.394501
sI13
F2.5866
sI14
F4.158566
ssg66
(dp510
I0
F11.075133333333332
sI1
Fnan
sI2
Fnan
sI3
Fnan
sI4
Fnan
sI5
Fnan
sI6
Fnan
sI7
Fnan
sI8
Fnan
sI9
Fnan
sI10
Fnan
sI11
Fnan
sI12
Fnan
sI13
Fnan
sI14
Fnan
ssg68
(dp511
I0
g473
sI1
g474
sI2
g475
sI3
g476
sI4
g477
sI5
g478
sI6
g479
sI7
g480
sI8
g481
sI9
g482
sI10
g483
sI11
g484
sI12
g485
sI13
g486
sI14
g487
ssg70
(dp512
I0
F9517.943333333333
sI1
F9412.51
sI2
F8675.956666666667
sI3
F9286.833333333334
sI4
F9577.519999999999
sI5
F9523.003333333332
sI6
F9398.26
sI7
F9533.57
sI8
F9429.153333333332
sI9
F9385.746666666668
sI10
F9313.91
sI11
F9144.403333333332
sI12
F9228.903333333332
sI13
F9296.140000000001
sI14
F9281.74
ssg72
(dp513
I0
F1.0206549999999999
sI1
F1.023396
sI2
F1.008493
sI3
F1.041627
sI4
F1.009152
sI5
F1.043684
sI6
F1.0219989999999999
sI7
F1.045825
sI8
F1.044745
sI9
F1.022692
sI10
F1.0088139999999999
sI11
F1.009501
sI12
F1.009867
sI13
F1.021319
sI14
F1.042649
ssg74
(dp514
I0
F8151.066666666667
sI1
F8119.16
sI2
F7444.736666666667
sI3
F7992.38
sI4
F8258.956666666667
sI5
F8225.316666666668
sI6
F8050.4400000000005
sI7
F8152.043333333333
sI8
F8135.12
sI9
F8079.3
sI10
F8009.053333333333
sI11
F7903.296666666666
sI12
F7947.179999999999
sI13
F8010.009999999999
sI14
F8045.493333333333
ssg76
(dp515
I0
F13188.716666666667
sI1
F13172.253333333332
sI2
F12074.363333333335
sI3
F13017.79
sI4
F13346.47
sI5
F13264.380000000001
sI6
F13149.103333333333
sI7
F13254.236666666666
sI8
F13121.006666666666
sI9
F13132.393333333333
sI10
F13051.553333333333
sI11
F12806.396666666667
sI12
F12871.856666666667
sI13
F13038.16
sI14
F13040.536666666665
ssg78
(dp516
I0
F27.67287
sI1
F26.48251
sI2
F30.68927
sI3
F29.42895
sI4
F27.49726
sI5
F29.00526
sI6
F25.90653
sI7
F31.29887
sI8
F28.73111
sI9
F26.22682
sI10
F28.75337
sI11
F28.60671
sI12
F27.13261
sI13
F26.46289
sI14
F29.18711
ssg80
(dp517
I0
F11.222
sI1
F11.226
sI2
F11.32
sI3
F11.243
sI4
F11.208
sI5
F11.212
sI6
F11.235
sI7
F11.222
sI8
F11.224
sI9
F11.232
sI10
F11.241
sI11
F11.255
sI12
F11.249
sI13
F11.241
sI14
F11.236
ssg82
(dp518
I0
F0.002
sI1
F0.002
sI2
F0.002
sI3
F0.002
sI4
F0.002
sI5
F0.002
sI6
F0.002
sI7
F0.002
sI8
F0.002
sI9
F0.002
sI10
F0.002
sI11
F0.002
sI12
F0.002
sI13
F0.002
sI14
F0.002
ssg84
(dp519
I0
F0.6930884519333004
sI1
Fnan
sI2
Fnan
sI3
Fnan
sI4
Fnan
sI5
Fnan
sI6
Fnan
sI7
Fnan
sI8
Fnan
sI9
Fnan
sI10
Fnan
sI11
Fnan
sI12
Fnan
sI13
Fnan
sI14
Fnan
ssg86
(dp520
I0
F11.237733333333331
sI1
Fnan
sI2
Fnan
sI3
Fnan
sI4
Fnan
sI5
Fnan
sI6
Fnan
sI7
Fnan
sI8
Fnan
sI9
Fnan
sI10
Fnan
sI11
Fnan
sI12
Fnan
sI13
Fnan
sI14
Fnan
ssg88
(dp521
I0
F11.054
sI1
F11.066
sI2
F11.154
sI3
F11.08
sI4
F11.047
sI5
F11.053
sI6
F11.067
sI7
F11.052
sI8
F11.064
sI9
F11.069
sI10
F11.077
sI11
F11.097
sI12
F11.087
sI13
F11.079
sI14
F11.081
ssg90
(dp522
I0
F2.655208
sI1
F-2.467856
sI2
F4.700168
sI3
F4.23784
sI4
F3.08458
sI5
F2.816568
sI6
F-4.134284
sI7
F4.83461
sI8
F2.54329
sI9
F5.161584
sI10
F2.916778
sI11
F-3.060981
sI12
F4.506474
sI13
F3.997424
sI14
F3.517243
ssg92
(dp523
I0
F0.025692874683923762
sI1
Fnan
sI2
Fnan
sI3
Fnan
sI4
Fnan
sI5
Fnan
sI6
Fnan
sI7
Fnan
sI8
Fnan
sI9
Fnan
sI10
Fnan
sI11
Fnan
sI12
Fnan
sI13
Fnan
sI14
Fnan
ssg94
(dp524
I0
F0.7179450140766336
sI1
F0.7189944725271271
sI2
F0.7175539140279925
sI3
F0.716656800749979
sI4
F0.7205514106982831
sI5
F0.721918488520329
sI6
F0.7140914776583633
sI7
F0.7154741526974514
sI8
F0.7215132841629506
sI9
F0.7175814698727337
sI10
F0.7161982932315732
sI11
F0.7200919024970995
sI12
F0.7191770780733332
sI13
F0.717283281768401
sI14
F0.7208488142562519
ssg96
(dp525
I0
F30.0
sI1
F30.0
sI2
F30.0
sI3
F30.0
sI4
F30.0
sI5
F30.0
sI6
F30.0
sI7
F30.0
sI8
F30.0
sI9
F30.0
sI10
F30.0
sI11
F30.0
sI12
F30.0
sI13
F30.0
sI14
F30.0
ssg98
(dp526
I0
F0.002
sI1
F0.002
sI2
F0.002
sI3
F0.002
sI4
F0.002
sI5
F0.002
sI6
F0.002
sI7
F0.002
sI8
F0.002
sI9
F0.002
sI10
F0.002
sI11
F0.002
sI12
F0.002
sI13
F0.002
sI14
F0.002
ssg100
(dp527
I0
F0.002
sI1
F0.002
sI2
F0.002
sI3
F0.002
sI4
F0.002
sI5
F0.002
sI6
F0.002
sI7
F0.002
sI8
F0.002
sI9
F0.002
sI10
F0.002
sI11
F0.002
sI12
F0.002
sI13
F0.002
sI14
F0.002
ssg102
(dp528
I0
F-3.955002
sI1
F3.192087
sI2
F3.982463
sI3
F4.277857
sI4
F4.242477
sI5
F3.28253
sI6
F2.755762
sI7
F4.713392
sI8
F2.531624
sI9
F-2.454954
sI10
F4.001243
sI11
F-1.897145
sI12
F3.280072
sI13
F3.751603
sI14
F3.195428
ssg104
(dp529
I0
S'KIC8462852-20181020at024322_-25-1X1-030-V_cal.fts.mag.1'
p530
sI1
S'KIC8462852-20181020at024756_-25-1X1-030-V_cal.fts.mag.1'
p531
sI2
S'KIC8462852-20181020at021544_-25-1X1-030-V_cal.fts.mag.1'
p532
sI3
S'KIC8462852-20181020at031110_-25-1X1-030-V_cal.fts.mag.1'
p533
sI4
S'KIC8462852-20181020at021804_-25-1X1-030-V_cal.fts.mag.1'
p534
sI5
S'KIC8462852-20181020at031330_-25-1X1-030-V_cal.fts.mag.1'
p535
sI6
S'KIC8462852-20181020at024543_-25-1X1-030-V_cal.fts.mag.1'
p536
sI7
S'KIC8462852-20181020at031543_-25-1X1-030-V_cal.fts.mag.1'
p537
sI8
S'KIC8462852-20181020at031436_-25-1X1-030-V_cal.fts.mag.1'
p538
sI9
S'KIC8462852-20181020at024649_-25-1X1-030-V_cal.fts.mag.1'
p539
sI10
S'KIC8462852-20181020at021659_-25-1X1-030-V_cal.fts.mag.1'
p540
sI11
S'KIC8462852-20181020at021910_-25-1X1-030-V_cal.fts.mag.1'
p541
sI12
S'KIC8462852-20181020at022017_-25-1X1-030-V_cal.fts.mag.1'
p542
sI13
S'KIC8462852-20181020at024437_-25-1X1-030-V_cal.fts.mag.1'
p543
sI14
S'KIC8462852-20181020at031225_-25-1X1-030-V_cal.fts.mag.1'
p544
ssg121
(dp545
I0
F0.005081256540256416
sI1
Fnan
sI2
Fnan
sI3
Fnan
sI4
Fnan
sI5
Fnan
sI6
Fnan
sI7
Fnan
sI8
Fnan
sI9
Fnan
sI10
Fnan
sI11
Fnan
sI12
Fnan
sI13
Fnan
sI14
Fnan
ssg123
(dp546
I0
F7133.996666666667
sI1
F7073.426666666666
sI2
F6507.1866666666665
sI3
F7001.016666666666
sI4
F7222.490000000001
sI5
F7139.036666666667
sI6
F7036.013333333333
sI7
F7156.593333333333
sI8
F7131.666666666667
sI9
F7047.463333333333
sI10
F7026.663333333333
sI11
F6911.236666666667
sI12
F6939.163333333333
sI13
F7002.89
sI14
F7034.383333333333
ssg125
(dp547
I0
F0.02625824133667838
sI1
Fnan
sI2
Fnan
sI3
Fnan
sI4
Fnan
sI5
Fnan
sI6
Fnan
sI7
Fnan
sI8
Fnan
sI9
Fnan
sI10
Fnan
sI11
Fnan
sI12
Fnan
sI13
Fnan
sI14
Fnan
ssg127
(dp548
I0
g469
sI1
g469
sI2
g469
sI3
g469
sI4
g469
sI5
g469
sI6
g469
sI7
g469
sI8
g469
sI9
g469
sI10
g469
sI11
g469
sI12
g469
sI13
g469
sI14
g469
ssg144
(dp549
I0
F0.001956185335929869
sI1
Fnan
sI2
Fnan
sI3
Fnan
sI4
Fnan
sI5
Fnan
sI6
Fnan
sI7
Fnan
sI8
Fnan
sI9
Fnan
sI10
Fnan
sI11
Fnan
sI12
Fnan
sI13
Fnan
sI14
Fnan
ssg146
(dp550
I0
F4.116075
sI1
F3.798401
sI2
F3.963985
sI3
F1.523196
sI4
F3.840572
sI5
F4.134663
sI6
F-1.583695
sI7
F4.609853
sI8
F5.03826
sI9
F-0.8473721
sI10
F-2.960504
sI11
F-3.877359
sI12
F5.020069
sI13
F2.921463
sI14
F3.798555
ssg148
(dp551
I0
F1.5010372009826563
sI1
Fnan
sI2
Fnan
sI3
Fnan
sI4
Fnan
sI5
Fnan
sI6
Fnan
sI7
Fnan
sI8
Fnan
sI9
Fnan
sI10
Fnan
sI11
Fnan
sI12
Fnan
sI13
Fnan
sI14
Fnan
ssg150
(dp552
I0
F2458411.6150810183
sI1
Fnan
sI2
Fnan
sI3
Fnan
sI4
Fnan
sI5
Fnan
sI6
Fnan
sI7
Fnan
sI8
Fnan
sI9
Fnan
sI10
Fnan
sI11
Fnan
sI12
Fnan
sI13
Fnan
sI14
Fnan
ssg152
(dp553
I0
F0.001956185335929869
sI1
Fnan
sI2
Fnan
sI3
Fnan
sI4
Fnan
sI5
Fnan
sI6
Fnan
sI7
Fnan
sI8
Fnan
sI9
Fnan
sI10
Fnan
sI11
Fnan
sI12
Fnan
sI13
Fnan
sI14
Fnan
ssg154
(dp554
I0
F29.07378
sI1
F29.986
sI2
F37.41507
sI3
F32.60221
sI4
F28.356
sI5
F31.88022
sI6
F30.04785
sI7
F32.91392
sI8
F33.17554
sI9
F29.63192
sI10
F30.67174
sI11
F32.56133
sI12
F32.51963
sI13
F30.35182
sI14
F32.67884
ssg156
(dp555
I0
F10.699
sI1
F10.701
sI2
F10.795
sI3
F10.714
sI4
F10.687
sI5
F10.693
sI6
F10.703
sI7
F10.694
sI8
F10.705
sI9
F10.704
sI10
F10.711
sI11
F10.731
sI12
F10.726
sI13
F10.712
sI14
F10.712
ssg158
(dp556
I0
F0.6930884519333004
sI1
Fnan
sI2
Fnan
sI3
Fnan
sI4
Fnan
sI5
Fnan
sI6
Fnan
sI7
Fnan
sI8
Fnan
sI9
Fnan
sI10
Fnan
sI11
Fnan
sI12
Fnan
sI13
Fnan
sI14
Fnan
sss.