(dp0
S'i'
p1
(dp2
S'sigmean'
p3
(dp4
I0
F0.4393813041324176
sI1
Fnan
sI2
Fnan
sI3
Fnan
sI4
Fnan
sI5
Fnan
sI6
Fnan
sI7
Fnan
sI8
Fnan
sI9
Fnan
sI10
Fnan
sI11
Fnan
sI12
Fnan
sI13
Fnan
sI14
Fnan
ssS'ref3flag'
p5
(dp6
I0
S'NoError'
p7
sI1
S'NoError'
p8
sI2
S'NoError'
p9
sI3
S'NoError'
p10
sI4
S'NoError'
p11
sI5
S'NoError'
p12
sI6
S'NoError'
p13
sI7
S'NoError'
p14
sI8
S'NoError'
p15
sI9
S'NoError'
p16
sI10
S'NoError'
p17
sI11
S'NoError'
p18
sI12
S'NoError'
p19
sI13
S'NoError'
p20
sI14
S'NoError'
p21
ssS'tabbyerr'
p22
(dp23
I0
F0.003
sI1
F0.004
sI2
F0.004
sI3
F0.003
sI4
F0.004
sI5
F0.005
sI6
F0.005
sI7
F0.004
sI8
F0.004
sI9
F0.004
sI10
F0.003
sI11
F0.003
sI12
F0.003
sI13
F0.003
sI14
F0.004
ssS'ref2rel'
p24
(dp25
I0
F0.9063057917346563
sI1
F0.9081467298083216
sI2
F0.9078694341173544
sI3
F0.9092496836706411
sI4
F0.904550053735773
sI5
F0.9076765232104015
sI6
F0.9096795397570598
sI7
F0.9106988972498908
sI8
F0.9080940626665437
sI9
F0.9105258400953181
sI10
F0.9117848171269405
sI11
F0.9081587449648832
sI12
F0.9118339463397636
sI13
F0.9100931372773745
sI14
F0.9065674240576942
ssS'ref2err'
p26
(dp27
I0
F0.0020708735010417203
sI1
Fnan
sI2
Fnan
sI3
Fnan
sI4
Fnan
sI5
Fnan
sI6
Fnan
sI7
Fnan
sI8
Fnan
sI9
Fnan
sI10
Fnan
sI11
Fnan
sI12
Fnan
sI13
Fnan
sI14
Fnan
ssS'ref2mean'
p28
(dp29
I0
F0.9087489750541745
sI1
Fnan
sI2
Fnan
sI3
Fnan
sI4
Fnan
sI5
Fnan
sI6
Fnan
sI7
Fnan
sI8
Fnan
sI9
Fnan
sI10
Fnan
sI11
Fnan
sI12
Fnan
sI13
Fnan
sI14
Fnan
ssS'tabbymag'
p30
(dp31
I0
F12.169
sI1
F12.209
sI2
F12.27
sI3
F12.031
sI4
F12.191
sI5
F12.719
sI6
F12.641
sI7
F12.194
sI8
F12.202
sI9
F12.207
sI10
F12.078
sI11
F12.138
sI12
F12.119
sI13
F12.113
sI14
F12.338
ssS'tabbybkg'
p32
(dp33
I0
F10.95745
sI1
F9.333491
sI2
F10.99381
sI3
F8.853486
sI4
F9.591721
sI5
F13.89892
sI6
F13.02195
sI7
F11.02433
sI8
F10.62402
sI9
F9.158256
sI10
F9.023671
sI11
F10.62929
sI12
F9.682646
sI13
F8.109491
sI14
F10.76104
ssS'JD'
p34
(dp35
I0
F2458436.627685185
sI1
F2458436.6488657407
sI2
F2458436.625451389
sI3
F2458436.6473958334
sI4
F2458436.606574074
sI5
F2458436.6043518516
sI6
F2458436.6051041665
sI7
F2458436.6269444446
sI8
F2458436.6262037037
sI9
F2458436.607314815
sI10
F2458436.6466550925
sI11
F2458436.628425926
sI12
F2458436.648136574
sI13
F2458436.6496064817
sI14
F2458436.6058449075
ssS'ref3rmsmean'
p36
(dp37
I0
F0.6132980666666666
sI1
Fnan
sI2
Fnan
sI3
Fnan
sI4
Fnan
sI5
Fnan
sI6
Fnan
sI7
Fnan
sI8
Fnan
sI9
Fnan
sI10
Fnan
sI11
Fnan
sI12
Fnan
sI13
Fnan
sI14
Fnan
ssS'ref1rmsmean'
p38
(dp39
I0
F1.4552405800000001
sI1
Fnan
sI2
Fnan
sI3
Fnan
sI4
Fnan
sI5
Fnan
sI6
Fnan
sI7
Fnan
sI8
Fnan
sI9
Fnan
sI10
Fnan
sI11
Fnan
sI12
Fnan
sI13
Fnan
sI14
Fnan
ssS'relflux'
p40
(dp41
I0
F0.43794919857853254
sI1
F0.4380928245386782
sI2
F0.44180575468937416
sI3
F0.4400677893027399
sI4
F0.43978023482896395
sI5
F0.43491745074550564
sI6
F0.4382785684615553
sI7
F0.4400795400111316
sI8
F0.44053245170672556
sI9
F0.44189681682655463
sI10
F0.4377495713006463
sI11
F0.4378900018437492
sI12
F0.438889731844446
sI13
F0.44225916999966985
sI14
F0.4389444697883308
ssS'sigerr'
p42
(dp43
I0
F0.001383834703808901
sI1
Fnan
sI2
Fnan
sI3
Fnan
sI4
Fnan
sI5
Fnan
sI6
Fnan
sI7
Fnan
sI8
Fnan
sI9
Fnan
sI10
Fnan
sI11
Fnan
sI12
Fnan
sI13
Fnan
sI14
Fnan
ssS'tabbyrmsmean'
p44
(dp45
I0
F1.9846704
sI1
Fnan
sI2
Fnan
sI3
Fnan
sI4
Fnan
sI5
Fnan
sI6
Fnan
sI7
Fnan
sI8
Fnan
sI9
Fnan
sI10
Fnan
sI11
Fnan
sI12
Fnan
sI13
Fnan
sI14
Fnan
ssS'tabbyflag'
p46
(dp47
I0
g7
sI1
g8
sI2
g9
sI3
g10
sI4
g11
sI5
g12
sI6
g13
sI7
g14
sI8
g15
sI9
g16
sI10
g17
sI11
g18
sI12
g19
sI13
g20
sI14
g21
ssS'ref1err'
p48
(dp49
I0
F0.0020904447429783827
sI1
Fnan
sI2
Fnan
sI3
Fnan
sI4
Fnan
sI5
Fnan
sI6
Fnan
sI7
Fnan
sI8
Fnan
sI9
Fnan
sI10
Fnan
sI11
Fnan
sI12
Fnan
sI13
Fnan
sI14
Fnan
ssS'ref2magmeanerr'
p50
(dp51
I0
F0.1915410685789887
sI1
Fnan
sI2
Fnan
sI3
Fnan
sI4
Fnan
sI5
Fnan
sI6
Fnan
sI7
Fnan
sI8
Fnan
sI9
Fnan
sI10
Fnan
sI11
Fnan
sI12
Fnan
sI13
Fnan
sI14
Fnan
ssS'ref2rmsmean'
p52
(dp53
I0
F0.20817586666666665
sI1
Fnan
sI2
Fnan
sI3
Fnan
sI4
Fnan
sI5
Fnan
sI6
Fnan
sI7
Fnan
sI8
Fnan
sI9
Fnan
sI10
Fnan
sI11
Fnan
sI12
Fnan
sI13
Fnan
sI14
Fnan
ssS'ref3rel'
p54
(dp55
I0
F1.5051307897699098
sI1
F1.5095998829019415
sI2
F1.5026886312747307
sI3
F1.5014358264867678
sI4
F1.5062584900007796
sI5
F1.5107754390647938
sI6
F1.496487767702751
sI7
F1.5031453029893311
sI8
F1.5046665649827604
sI9
F1.4982516907286598
sI10
F1.494150463833809
sI11
F1.499043097156524
sI12
F1.5001371963946653
sI13
F1.4985776791356278
sI14
F1.50403172388729
ssS'ref1flag'
p56
(dp57
I0
g7
sI1
g8
sI2
g9
sI3
g10
sI4
g11
sI5
g12
sI6
g13
sI7
g14
sI8
g15
sI9
g16
sI10
g17
sI11
g18
sI12
g19
sI13
g20
sI14
g21
ssS'ref2bkg'
p58
(dp59
I0
F11.3243
sI1
F9.841033
sI2
F11.68392
sI3
F9.935381
sI4
F11.91421
sI5
F14.70735
sI6
F13.71465
sI7
F12.14058
sI8
F11.95535
sI9
F11.37949
sI10
F9.193238
sI11
F11.67721
sI12
F9.586321
sI13
F9.902387
sI14
F12.00198
ssS'ref3magmean'
p60
(dp61
I0
F11.0744
sI1
Fnan
sI2
Fnan
sI3
Fnan
sI4
Fnan
sI5
Fnan
sI6
Fnan
sI7
Fnan
sI8
Fnan
sI9
Fnan
sI10
Fnan
sI11
Fnan
sI12
Fnan
sI13
Fnan
sI14
Fnan
ssS'ref1mean'
p62
(dp63
I0
F0.6977341730671653
sI1
Fnan
sI2
Fnan
sI3
Fnan
sI4
Fnan
sI5
Fnan
sI6
Fnan
sI7
Fnan
sI8
Fnan
sI9
Fnan
sI10
Fnan
sI11
Fnan
sI12
Fnan
sI13
Fnan
sI14
Fnan
ssS'ref1rms'
p64
(dp65
I0
F2.514529
sI1
F2.219674
sI2
F4.339382
sI3
F3.188612
sI4
F-1.80642
sI5
F-0.8663322
sI6
F-2.403425
sI7
F4.307742
sI8
F-2.670124
sI9
F2.640645
sI10
F3.275566
sI11
F2.919305
sI12
F2.904428
sI13
F2.187765
sI14
F-0.9227381
ssS'ref2magmean'
p66
(dp67
I0
F11.418466666666665
sI1
Fnan
sI2
Fnan
sI3
Fnan
sI4
Fnan
sI5
Fnan
sI6
Fnan
sI7
Fnan
sI8
Fnan
sI9
Fnan
sI10
Fnan
sI11
Fnan
sI12
Fnan
sI13
Fnan
sI14
Fnan
ssS'ref2flag'
p68
(dp69
I0
g7
sI1
g8
sI2
g9
sI3
g10
sI4
g11
sI5
g12
sI6
g13
sI7
g14
sI8
g15
sI9
g16
sI10
g17
sI11
g18
sI12
g19
sI13
g20
sI14
g21
ssS'ref2'
p70
(dp71
I0
F7277.85
sI1
F7025.783333333334
sI2
F6582.776666666667
sI3
F8244.67
sI4
F7095.233333333334
sI5
F4420.463333333333
sI6
F4719.14
sI7
F7099.913333333333
sI8
F7031.5599999999995
sI9
F6984.783333333334
sI10
F7949.543333333333
sI11
F7503.183333333333
sI12
F7636.136666666667
sI13
F7609.9
sI14
F6214.953333333334
ssS'airmass'
p72
(dp73
I0
F1.1842780000000002
sI1
F1.26531
sI2
F1.1769100000000001
sI3
F1.258994
sI4
F1.122088
sI5
F1.116502
sI6
F1.118343
sI7
F1.181794
sI8
F1.179357
sI9
F1.123988
sI10
F1.2558639999999999
sI11
F1.186787
sI12
F1.262134
sI13
F1.2685799999999998
sI14
F1.1202020000000001
ssS'ref1'
p74
(dp75
I0
F6038.8133333333335
sI1
F5795.38
sI2
F5456.1866666666665
sI3
F6823.306666666667
sI4
F5900.446666666667
sI5
F3646.4933333333333
sI6
F3914.9700000000003
sI7
F5855.383333333333
sI8
F5818.72
sI9
F5779.929999999999
sI10
F6581.5233333333335
sI11
F6230.36
sI12
F6297.66
sI13
F6300.463333333333
sI14
F5158.179999999999
ssS'ref3'
p76
(dp77
I0
F10021.66
sI1
F9677.413333333334
sI2
F9045.406666666668
sI3
F11311.8
sI4
F9787.426666666666
sI5
F6093.679999999999
sI6
F6460.42
sI7
F9736.846666666668
sI8
F9667.693333333333
sI9
F9562.376666666667
sI10
F10855.8
sI11
F10293.586666666666
sI12
F10451.303333333333
sI13
F10422.880000000001
sI14
F8552.776666666667
ssS'ref1bkg'
p78
(dp79
I0
F10.67558
sI1
F10.37065
sI2
F11.09308
sI3
F10.11981
sI4
F10.9961
sI5
F13.59073
sI6
F13.49978
sI7
F11.03392
sI8
F11.5269
sI9
F10.85241
sI10
F9.358036
sI11
F10.55942
sI12
F11.19156
sI13
F9.475288
sI14
F11.59104
ssS'ref1mag'
p80
(dp81
I0
F11.548
sI1
F11.592
sI2
F11.658
sI3
F11.415
sI4
F11.573
sI5
F12.095
sI6
F12.018
sI7
F11.581
sI8
F11.588
sI9
F11.595
sI10
F11.454
sI11
F11.514
sI12
F11.502
sI13
F11.502
sI14
F11.719
ssS'ref3magerr'
p82
(dp83
I0
F0.002
sI1
F0.002
sI2
F0.002
sI3
F0.002
sI4
F0.002
sI5
F0.002
sI6
F0.002
sI7
F0.002
sI8
F0.002
sI9
F0.002
sI10
F0.002
sI11
F0.002
sI12
F0.002
sI13
F0.002
sI14
F0.002
ssS'tabbymagmean'
p84
(dp85
I0
F0.4392755716311069
sI1
Fnan
sI2
Fnan
sI3
Fnan
sI4
Fnan
sI5
Fnan
sI6
Fnan
sI7
Fnan
sI8
Fnan
sI9
Fnan
sI10
Fnan
sI11
Fnan
sI12
Fnan
sI13
Fnan
sI14
Fnan
ssS'ref1magmean'
p86
(dp87
I0
F11.623600000000001
sI1
Fnan
sI2
Fnan
sI3
Fnan
sI4
Fnan
sI5
Fnan
sI6
Fnan
sI7
Fnan
sI8
Fnan
sI9
Fnan
sI10
Fnan
sI11
Fnan
sI12
Fnan
sI13
Fnan
sI14
Fnan
ssS'ref2mag'
p88
(dp89
I0
F11.345
sI1
F11.383
sI2
F11.454
sI3
F11.21
sI4
F11.373
sI5
F11.886
sI6
F11.815
sI7
F11.372
sI8
F11.382
sI9
F11.39
sI10
F11.249
sI11
F11.312
sI12
F11.293
sI13
F11.297
sI14
F11.516
ssS'ref3rms'
p90
(dp91
I0
F1.543282
sI1
F3.359134
sI2
F3.714947
sI3
F-2.574434
sI4
F2.386458
sI5
F4.455855
sI6
F-2.335047
sI7
F-2.554633
sI8
F-3.560734
sI9
F4.18625
sI10
F2.408996
sI11
F4.092449
sI12
F-2.965091
sI13
F-1.118816
sI14
F-1.839145
ssS'ref3magmeanerr'
p92
(dp93
I0
F0.19076492639596304
sI1
Fnan
sI2
Fnan
sI3
Fnan
sI4
Fnan
sI5
Fnan
sI6
Fnan
sI7
Fnan
sI8
Fnan
sI9
Fnan
sI10
Fnan
sI11
Fnan
sI12
Fnan
sI13
Fnan
sI14
Fnan
ssS'ref1rel'
p94
(dp95
I0
F0.6981484832036667
sI1
F0.6939246559391127
sI2
F0.6982496366073685
sI3
F0.6978055514790417
sI4
F0.6989949056211127
sI5
F0.6936358422607263
sI6
F0.7003799791762824
sI7
F0.6955475202275655
sI8
F0.6968838526912181
sI9
F0.6986008475170361
sI10
F0.6999631133208063
sI11
F0.7001675023051935
sI12
F0.6963572512196308
sI13
F0.6987789274125602
sI14
F0.6985745270261576
ssS'exposure'
p96
(dp97
I0
F30.0
sI1
F30.0
sI2
F30.0
sI3
F30.0
sI4
F30.0
sI5
F30.0
sI6
F30.0
sI7
F30.0
sI8
F30.0
sI9
F30.0
sI10
F30.0
sI11
F30.0
sI12
F30.0
sI13
F30.0
sI14
F30.0
ssS'ref1magerr'
p98
(dp99
I0
F0.002
sI1
F0.003
sI2
F0.003
sI3
F0.002
sI4
F0.003
sI5
F0.003
sI6
F0.003
sI7
F0.003
sI8
F0.003
sI9
F0.003
sI10
F0.002
sI11
F0.002
sI12
F0.002
sI13
F0.002
sI14
F0.003
ssS'ref2magerr'
p100
(dp101
I0
F0.002
sI1
F0.002
sI2
F0.002
sI3
F0.002
sI4
F0.002
sI5
F0.003
sI6
F0.003
sI7
F0.002
sI8
F0.002
sI9
F0.002
sI10
F0.002
sI11
F0.002
sI12
F0.002
sI13
F0.002
sI14
F0.002
ssS'ref2rms'
p102
(dp103
I0
F-2.802886
sI1
F4.112112
sI2
F4.463357
sI3
F-1.807662
sI4
F-2.40319
sI5
F-2.719006
sI6
F2.505683
sI7
F1.097437
sI8
F-2.927214
sI9
F-1.299534
sI10
F-2.328567
sI11
F4.186865
sI12
F2.726552
sI13
F-2.603456
sI14
F2.922147
ssS'name'
p104
(dp105
I0
S"KIC8462852-20181114at030352_-25-1X1-030-i'_cal.fts.mag.1"
p106
sI1
S"KIC8462852-20181114at033422_-25-1X1-030-i'_cal.fts.mag.1"
p107
sI2
S"KIC8462852-20181114at030038_-25-1X1-030-i'_cal.fts.mag.1"
p108
sI3
S"KIC8462852-20181114at033215_-25-1X1-030-i'_cal.fts.mag.1"
p109
sI4
S"KIC8462852-20181114at023328_-25-1X1-030-i'_cal.fts.mag.1"
p110
sI5
S"KIC8462852-20181114at023015_-25-1X1-030-i'_cal.fts.mag.1"
p111
sI6
S"KIC8462852-20181114at023121_-25-1X1-030-i'_cal.fts.mag.1"
p112
sI7
S"KIC8462852-20181114at030248_-25-1X1-030-i'_cal.fts.mag.1"
p113
sI8
S"KIC8462852-20181114at030144_-25-1X1-030-i'_cal.fts.mag.1"
p114
sI9
S"KIC8462852-20181114at023432_-25-1X1-030-i'_cal.fts.mag.1"
p115
sI10
S"KIC8462852-20181114at033110_-25-1X1-030-i'_cal.fts.mag.1"
p116
sI11
S"KIC8462852-20181114at030456_-25-1X1-030-i'_cal.fts.mag.1"
p117
sI12
S"KIC8462852-20181114at033319_-25-1X1-030-i'_cal.fts.mag.1"
p118
sI13
S"KIC8462852-20181114at033526_-25-1X1-030-i'_cal.fts.mag.1"
p119
sI14
S"KIC8462852-20181114at023224_-25-1X1-030-i'_cal.fts.mag.1"
p120
ssS'ref3err'
p121
(dp122
I0
F0.0046655415020723096
sI1
Fnan
sI2
Fnan
sI3
Fnan
sI4
Fnan
sI5
Fnan
sI6
Fnan
sI7
Fnan
sI8
Fnan
sI9
Fnan
sI10
Fnan
sI11
Fnan
sI12
Fnan
sI13
Fnan
sI14
Fnan
ssS'tabby'
p123
(dp124
I0
F3407.0
sI1
F3285.4883333333332
sI2
F3105.0653333333335
sI3
F3869.6299999999997
sI4
F3339.8533333333335
sI5
F2052.902666666667
sI6
F2205.203
sI7
F3328.7826666666665
sI8
F3306.6326666666664
sI9
F3288.7566666666667
sI10
F3704.3633333333332
sI11
F3507.08
sI12
F3567.4566666666665
sI13
F3587.2
sI14
F2915.4559999999997
ssS'ref1magmeanerr'
p125
(dp126
I0
F0.19181307865434313
sI1
Fnan
sI2
Fnan
sI3
Fnan
sI4
Fnan
sI5
Fnan
sI6
Fnan
sI7
Fnan
sI8
Fnan
sI9
Fnan
sI10
Fnan
sI11
Fnan
sI12
Fnan
sI13
Fnan
sI14
Fnan
ssS'filter'
p127
(dp128
I0
S"i'"
p129
sI1
S"i'"
p130
sI2
S"i'"
p131
sI3
S"i'"
p132
sI4
S"i'"
p133
sI5
S"i'"
p134
sI6
S"i'"
p135
sI7
S"i'"
p136
sI8
S"i'"
p137
sI9
S"i'"
p138
sI10
S"i'"
p139
sI11
S"i'"
p140
sI12
S"i'"
p141
sI13
S"i'"
p142
sI14
S"i'"
p143
ssS'tabbymagerr'
p144
(dp145
I0
F0.0019445048749029
sI1
Fnan
sI2
Fnan
sI3
Fnan
sI4
Fnan
sI5
Fnan
sI6
Fnan
sI7
Fnan
sI8
Fnan
sI9
Fnan
sI10
Fnan
sI11
Fnan
sI12
Fnan
sI13
Fnan
sI14
Fnan
ssS'tabbyrms'
p146
(dp147
I0
F2.304263
sI1
F4.219532
sI2
F2.679417
sI3
F3.93557
sI4
F2.991793
sI5
F-3.48295
sI6
F3.821648
sI7
F3.13341
sI8
F-3.39168
sI9
F3.19479
sI10
F-2.142097
sI11
F3.587771
sI12
F2.486651
sI13
F3.152694
sI14
F3.279244
ssS'ref3mean'
p148
(dp149
I0
F1.5022920364206895
sI1
Fnan
sI2
Fnan
sI3
Fnan
sI4
Fnan
sI5
Fnan
sI6
Fnan
sI7
Fnan
sI8
Fnan
sI9
Fnan
sI10
Fnan
sI11
Fnan
sI12
Fnan
sI13
Fnan
sI14
Fnan
ssS'median_JD'
p150
(dp151
I0
F2458436.6269444446
sI1
Fnan
sI2
Fnan
sI3
Fnan
sI4
Fnan
sI5
Fnan
sI6
Fnan
sI7
Fnan
sI8
Fnan
sI9
Fnan
sI10
Fnan
sI11
Fnan
sI12
Fnan
sI13
Fnan
sI14
Fnan
ssS'error'
p152
(dp153
I0
F0.0019445048749029
sI1
Fnan
sI2
Fnan
sI3
Fnan
sI4
Fnan
sI5
Fnan
sI6
Fnan
sI7
Fnan
sI8
Fnan
sI9
Fnan
sI10
Fnan
sI11
Fnan
sI12
Fnan
sI13
Fnan
sI14
Fnan
ssS'ref3bkg'
p154
(dp155
I0
F11.96432
sI1
F10.28472
sI2
F12.19503
sI3
F10.67992
sI4
F11.45066
sI5
F14.14405
sI6
F14.15682
sI7
F12.22615
sI8
F12.78079
sI9
F12.09855
sI10
F10.9265
sI11
F11.70118
sI12
F11.68828
sI13
F11.03639
sI14
F12.34371
ssS'ref3mag'
p156
(dp157
I0
F10.998
sI1
F11.036
sI2
F11.109
sI3
F10.866
sI4
F11.023
sI5
F11.538
sI6
F11.474
sI7
F11.029
sI8
F11.037
sI9
F11.049
sI10
F10.911
sI11
F10.969
sI12
F10.952
sI13
F10.955
sI14
F11.17
ssS'mean'
p158
(dp159
I0
F0.4392755716311069
sI1
Fnan
sI2
Fnan
sI3
Fnan
sI4
Fnan
sI5
Fnan
sI6
Fnan
sI7
Fnan
sI8
Fnan
sI9
Fnan
sI10
Fnan
sI11
Fnan
sI12
Fnan
sI13
Fnan
sI14
Fnan
sssS'r'
p160
(dp161
g3
(dp162
I0
F0.5506906243439853
sI1
Fnan
sI2
Fnan
sI3
Fnan
sI4
Fnan
sI5
Fnan
sI6
Fnan
sI7
Fnan
sI8
Fnan
sI9
Fnan
sI10
Fnan
sI11
Fnan
sI12
Fnan
sI13
Fnan
sI14
Fnan
ssg5
(dp163
I0
S'NoError'
p164
sI1
S'NoError'
p165
sI2
S'NoError'
p166
sI3
S'NoError'
p167
sI4
S'NoError'
p168
sI5
S'NoError'
p169
sI6
S'NoError'
p170
sI7
S'NoError'
p171
sI8
S'NoError'
p172
sI9
S'NoError'
p173
sI10
S'NoError'
p174
sI11
S'NoError'
p175
sI12
S'NoError'
p176
sI13
S'NoError'
p177
sI14
S'NoError'
p178
ssg22
(dp179
I0
F0.003
sI1
F0.002
sI2
F0.003
sI3
F0.002
sI4
F0.002
sI5
F0.002
sI6
F0.003
sI7
F0.003
sI8
F0.002
sI9
F0.003
sI10
F0.002
sI11
F0.002
sI12
F0.003
sI13
F0.003
sI14
F0.002
ssg24
(dp180
I0
F0.8918459972152887
sI1
F0.8957589720859251
sI2
F0.8962249067166655
sI3
F0.8953324453203195
sI4
F0.8894681162711853
sI5
F0.8965188193120245
sI6
F0.8950236088395231
sI7
F0.8940959940961323
sI8
F0.8968201355166038
sI9
F0.8934924957606852
sI10
F0.8957082490034511
sI11
F0.8946175063435688
sI12
F0.889722207199899
sI13
F0.8979477472560028
sI14
F0.8933111215911593
ssg26
(dp181
I0
F0.0024778472692074875
sI1
Fnan
sI2
Fnan
sI3
Fnan
sI4
Fnan
sI5
Fnan
sI6
Fnan
sI7
Fnan
sI8
Fnan
sI9
Fnan
sI10
Fnan
sI11
Fnan
sI12
Fnan
sI13
Fnan
sI14
Fnan
ssg28
(dp182
I0
F0.894392554835229
sI1
Fnan
sI2
Fnan
sI3
Fnan
sI4
Fnan
sI5
Fnan
sI6
Fnan
sI7
Fnan
sI8
Fnan
sI9
Fnan
sI10
Fnan
sI11
Fnan
sI12
Fnan
sI13
Fnan
sI14
Fnan
ssg30
(dp183
I0
F11.944
sI1
F11.412
sI2
F11.905
sI3
F11.341
sI4
F11.438
sI5
F11.56
sI6
F12.099
sI7
F11.6
sI8
F11.308
sI9
F11.984
sI10
F11.507
sI11
F11.512
sI12
F11.772
sI13
F11.582
sI14
F11.368
ssg32
(dp184
I0
F18.58706
sI1
F13.01708
sI2
F17.95677
sI3
F11.1574
sI4
F13.89147
sI5
F14.66646
sI6
F19.03498
sI7
F15.61201
sI8
F11.60733
sI9
F18.99349
sI10
F15.21782
sI11
F14.42462
sI12
F17.99232
sI13
F14.93796
sI14
F11.77311
ssg34
(dp185
I0
F2458436.6020949073
sI1
F2458436.645173611
sI2
F2458436.603599537
sI3
F2458436.6459027776
sI4
F2458436.644444444
sI5
F2458436.624699074
sI6
F2458436.602824074
sI7
F2458436.622488426
sI8
F2458436.6429861113
sI9
F2458436.6013425924
sI10
F2458436.6232291665
sI11
F2458436.6239583334
sI12
F2458436.600601852
sI13
F2458436.621759259
sI14
F2458436.643715278
ssg36
(dp186
I0
F1.1314396666666664
sI1
Fnan
sI2
Fnan
sI3
Fnan
sI4
Fnan
sI5
Fnan
sI6
Fnan
sI7
Fnan
sI8
Fnan
sI9
Fnan
sI10
Fnan
sI11
Fnan
sI12
Fnan
sI13
Fnan
sI14
Fnan
ssg38
(dp187
I0
F2.3593046
sI1
Fnan
sI2
Fnan
sI3
Fnan
sI4
Fnan
sI5
Fnan
sI6
Fnan
sI7
Fnan
sI8
Fnan
sI9
Fnan
sI10
Fnan
sI11
Fnan
sI12
Fnan
sI13
Fnan
sI14
Fnan
ssg40
(dp188
I0
F0.5516263374406161
sI1
F0.5493624640018616
sI2
F0.5514284872250697
sI3
F0.5509914713699913
sI4
F0.547912568732293
sI5
F0.5503842997937903
sI6
F0.549822465917321
sI7
F0.5500564103397396
sI8
F0.5530127980585003
sI9
F0.5510369633961295
sI10
F0.5498015757813343
sI11
F0.5522875852332522
sI12
F0.5512494076788772
sI13
F0.5504977181165378
sI14
F0.5504329301772894
ssg42
(dp189
I0
F0.0008038743072476224
sI1
Fnan
sI2
Fnan
sI3
Fnan
sI4
Fnan
sI5
Fnan
sI6
Fnan
sI7
Fnan
sI8
Fnan
sI9
Fnan
sI10
Fnan
sI11
Fnan
sI12
Fnan
sI13
Fnan
sI14
Fnan
ssg44
(dp190
I0
F1.9637197999999998
sI1
Fnan
sI2
Fnan
sI3
Fnan
sI4
Fnan
sI5
Fnan
sI6
Fnan
sI7
Fnan
sI8
Fnan
sI9
Fnan
sI10
Fnan
sI11
Fnan
sI12
Fnan
sI13
Fnan
sI14
Fnan
ssg46
(dp191
I0
g164
sI1
g165
sI2
g166
sI3
g167
sI4
g168
sI5
g169
sI6
g170
sI7
g171
sI8
g172
sI9
g173
sI10
g174
sI11
g175
sI12
g176
sI13
g177
sI14
g178
ssg48
(dp192
I0
F0.0019237736810662335
sI1
Fnan
sI2
Fnan
sI3
Fnan
sI4
Fnan
sI5
Fnan
sI6
Fnan
sI7
Fnan
sI8
Fnan
sI9
Fnan
sI10
Fnan
sI11
Fnan
sI12
Fnan
sI13
Fnan
sI14
Fnan
ssg50
(dp193
I0
F0.256341791921868
sI1
Fnan
sI2
Fnan
sI3
Fnan
sI4
Fnan
sI5
Fnan
sI6
Fnan
sI7
Fnan
sI8
Fnan
sI9
Fnan
sI10
Fnan
sI11
Fnan
sI12
Fnan
sI13
Fnan
sI14
Fnan
ssg52
(dp194
I0
F1.7017615333333331
sI1
Fnan
sI2
Fnan
sI3
Fnan
sI4
Fnan
sI5
Fnan
sI6
Fnan
sI7
Fnan
sI8
Fnan
sI9
Fnan
sI10
Fnan
sI11
Fnan
sI12
Fnan
sI13
Fnan
sI14
Fnan
ssg54
(dp195
I0
F1.4993242721149282
sI1
F1.4990910812316587
sI2
F1.490125605215161
sI3
F1.4965244425043365
sI4
F1.5052326092130082
sI5
F1.4949828525151614
sI6
F1.4954323027502514
sI7
F1.4967827039770136
sI8
F1.4934112903812125
sI9
F1.4920547797293406
sI10
F1.4958265831109179
sI11
F1.4963059685717754
sI12
F1.4983582100626904
sI13
F1.4976740000669406
sI14
F1.4989354976762346
ssg56
(dp196
I0
g164
sI1
g165
sI2
g166
sI3
g167
sI4
g168
sI5
g169
sI6
g170
sI7
g171
sI8
g172
sI9
g173
sI10
g174
sI11
g175
sI12
g176
sI13
g177
sI14
g178
ssg58
(dp197
I0
F19.63143
sI1
F14.10836
sI2
F18.25901
sI3
F12.57229
sI4
F15.25693
sI5
F16.69156
sI6
F21.29678
sI7
F16.28107
sI8
F12.92324
sI9
F19.47772
sI10
F14.46921
sI11
F16.0563
sI12
F19.06507
sI13
F16.07548
sI14
F13.08149
ssg60
(dp198
I0
F10.702933333333334
sI1
Fnan
sI2
Fnan
sI3
Fnan
sI4
Fnan
sI5
Fnan
sI6
Fnan
sI7
Fnan
sI8
Fnan
sI9
Fnan
sI10
Fnan
sI11
Fnan
sI12
Fnan
sI13
Fnan
sI14
Fnan
ssg62
(dp199
I0
F0.7135763290041388
sI1
Fnan
sI2
Fnan
sI3
Fnan
sI4
Fnan
sI5
Fnan
sI6
Fnan
sI7
Fnan
sI8
Fnan
sI9
Fnan
sI10
Fnan
sI11
Fnan
sI12
Fnan
sI13
Fnan
sI14
Fnan
ssg64
(dp200
I0
F4.230072
sI1
F2.330194
sI2
F3.517543
sI3
F-2.896656
sI4
F2.206452
sI5
F3.815487
sI6
F3.898523
sI7
F2.559434
sI8
F3.342249
sI9
F2.090341
sI10
F3.628504
sI11
F3.494588
sI12
F2.316758
sI13
F2.999453
sI14
F-2.143373
ssg66
(dp201
I0
F11.056600000000001
sI1
Fnan
sI2
Fnan
sI3
Fnan
sI4
Fnan
sI5
Fnan
sI6
Fnan
sI7
Fnan
sI8
Fnan
sI9
Fnan
sI10
Fnan
sI11
Fnan
sI12
Fnan
sI13
Fnan
sI14
Fnan
ssg68
(dp202
I0
g164
sI1
g165
sI2
g166
sI3
g167
sI4
g168
sI5
g169
sI6
g170
sI7
g171
sI8
g172
sI9
g173
sI10
g174
sI11
g175
sI12
g176
sI13
g177
sI14
g178
ssg70
(dp203
I0
F7029.820000000001
sI1
F11556.256666666666
sI2
F7314.953333333334
sI3
F12293.836666666666
sI4
F11259.443333333333
sI5
F10071.556666666667
sI6
F6132.66
sI7
F9696.353333333333
sI8
F12644.386666666665
sI9
F6790.973333333333
sI10
F10583.863333333335
sI11
F10479.516666666666
sI12
F8225.926666666666
sI13
F9875.99
sI14
F11990.316666666668
ssg72
(dp204
I0
F1.110934
sI1
F1.2496530000000001
sI2
F1.114615
sI3
F1.2527030000000001
sI4
F1.246629
sI5
F1.174432
sI6
F1.11273
sI7
F1.167399
sI8
F1.240665
sI9
F1.109155
sI10
F1.1697170000000001
sI11
F1.172072
sI12
F1.107397
sI13
F1.1651
sI14
F1.2436459999999998
ssg74
(dp205
I0
F5998.1066666666675
sI1
F9796.953333333333
sI2
F6231.193333333333
sI3
F10446.4
sI4
F9610.323333333334
sI5
F8549.25
sI6
F5217.333333333333
sI7
F8255.056666666667
sI8
F10738.29
sI9
F5804.4400000000005
sI10
F8991.623333333333
sI11
F8916.636666666665
sI12
F7048.053333333333
sI13
F8349.146666666666
sI14
F10207.85
ssg76
(dp206
I0
F9766.543333333333
sI1
F16005.203333333333
sI2
F10092.730000000001
sI3
F17015.66
sI4
F15706.926666666666
sI5
F13918.893333333333
sI6
F8486.573333333334
sI7
F13434.68
sI8
F17459.976666666666
sI9
F9396.523333333334
sI10
F14640.766666666666
sI11
F14511.29
sI12
F11442.946666666667
sI13
F13647.656666666668
sI14
F16636.81
ssg78
(dp207
I0
F18.95243
sI1
F13.13284
sI2
F18.53803
sI3
F13.04489
sI4
F14.29983
sI5
F15.85526
sI6
F20.66821
sI7
F15.84993
sI8
F12.61508
sI9
F19.66431
sI10
F15.55189
sI11
F14.81441
sI12
F18.20742
sI13
F16.88201
sI14
F13.38066
ssg80
(dp208
I0
F11.555
sI1
F11.022
sI2
F11.514
sI3
F10.953
sI4
F11.043
sI5
F11.17
sI6
F11.706
sI7
F11.208
sI8
F10.923
sI9
F11.591
sI10
F11.115
sI11
F11.124
sI12
F11.38
sI13
F11.196
sI14
F10.978
ssg82
(dp209
I0
F0.002
sI1
F0.001
sI2
F0.002
sI3
F0.001
sI4
F0.001
sI5
F0.002
sI6
F0.002
sI7
F0.002
sI8
F0.001
sI9
F0.002
sI10
F0.002
sI11
F0.002
sI12
F0.002
sI13
F0.002
sI14
F0.001
ssg84
(dp210
I0
F0.5506602322175068
sI1
Fnan
sI2
Fnan
sI3
Fnan
sI4
Fnan
sI5
Fnan
sI6
Fnan
sI7
Fnan
sI8
Fnan
sI9
Fnan
sI10
Fnan
sI11
Fnan
sI12
Fnan
sI13
Fnan
sI14
Fnan
ssg86
(dp211
I0
F11.231866666666665
sI1
Fnan
sI2
Fnan
sI3
Fnan
sI4
Fnan
sI5
Fnan
sI6
Fnan
sI7
Fnan
sI8
Fnan
sI9
Fnan
sI10
Fnan
sI11
Fnan
sI12
Fnan
sI13
Fnan
sI14
Fnan
ssg88
(dp212
I0
F11.383
sI1
F10.843
sI2
F11.339
sI3
F10.776
sI4
F10.871
sI5
F10.992
sI6
F11.531
sI7
F11.033
sI8
F10.745
sI9
F11.42
sI10
F10.938
sI11
F10.949
sI12
F11.212
sI13
F11.014
sI14
F10.803
ssg90
(dp213
I0
F-2.44511
sI1
F3.390623
sI2
F2.048952
sI3
F1.721188
sI4
F1.364028
sI5
F3.242744
sI6
F-3.4136
sI7
F3.899537
sI8
F3.158105
sI9
F-2.727395
sI10
F4.282745
sI11
F4.686373
sI12
F4.105497
sI13
F-3.184391
sI14
F-3.157701
ssg92
(dp214
I0
F0.25654753574189354
sI1
Fnan
sI2
Fnan
sI3
Fnan
sI4
Fnan
sI5
Fnan
sI6
Fnan
sI7
Fnan
sI8
Fnan
sI9
Fnan
sI10
Fnan
sI11
Fnan
sI12
Fnan
sI13
Fnan
sI14
Fnan
ssg94
(dp215
I0
F0.7142149223175096
sI1
F0.710916862411014
sI2
F0.715912992442992
sI3
F0.7128338039240751
sI4
F0.7127635891173587
sI5
F0.7127211036058098
sI6
F0.7137629196241481
sI7
F0.7137646250131497
sI8
F0.7134042252346809
sI9
F0.717151035706777
sI10
F0.7129241010340555
sI11
F0.713593345392879
sI12
F0.7166707735504931
sI13
F0.7098513920885848
sI14
F0.7131592435985541
ssg96
(dp216
I0
F30.0
sI1
F30.0
sI2
F30.0
sI3
F30.0
sI4
F30.0
sI5
F30.0
sI6
F30.0
sI7
F30.0
sI8
F30.0
sI9
F30.0
sI10
F30.0
sI11
F30.0
sI12
F30.0
sI13
F30.0
sI14
F30.0
ssg98
(dp217
I0
F0.002
sI1
F0.002
sI2
F0.002
sI3
F0.002
sI4
F0.002
sI5
F0.002
sI6
F0.003
sI7
F0.002
sI8
F0.002
sI9
F0.003
sI10
F0.002
sI11
F0.002
sI12
F0.002
sI13
F0.002
sI14
F0.002
ssg100
(dp218
I0
F0.002
sI1
F0.002
sI2
F0.002
sI3
F0.002
sI4
F0.002
sI5
F0.002
sI6
F0.002
sI7
F0.002
sI8
F0.002
sI9
F0.002
sI10
F0.002
sI11
F0.002
sI12
F0.002
sI13
F0.002
sI14
F0.002
ssg102
(dp219
I0
F1.763199
sI1
F-2.378433
sI2
F3.235934
sI3
F1.529233
sI4
F2.690106
sI5
F-3.407541
sI6
F-1.282764
sI7
F1.52085
sI8
F2.077999
sI9
F4.962365
sI10
F3.286162
sI11
F3.675492
sI12
F1.006379
sI13
F2.691866
sI14
F4.155576
ssg104
(dp220
I0
S"KIC8462852-20181114at022700_-25-1X1-030-r'_cal.fts.mag.1"
p221
sI1
S"KIC8462852-20181114at032903_-25-1X1-030-r'_cal.fts.mag.1"
p222
sI2
S"KIC8462852-20181114at022911_-25-1X1-030-r'_cal.fts.mag.1"
p223
sI3
S"KIC8462852-20181114at033006_-25-1X1-030-r'_cal.fts.mag.1"
p224
sI4
S"KIC8462852-20181114at032800_-25-1X1-030-r'_cal.fts.mag.1"
p225
sI5
S"KIC8462852-20181114at025934_-25-1X1-030-r'_cal.fts.mag.1"
p226
sI6
S"KIC8462852-20181114at022804_-25-1X1-030-r'_cal.fts.mag.1"
p227
sI7
S"KIC8462852-20181114at025623_-25-1X1-030-r'_cal.fts.mag.1"
p228
sI8
S"KIC8462852-20181114at032552_-25-1X1-030-r'_cal.fts.mag.1"
p229
sI9
S"KIC8462852-20181114at022556_-25-1X1-030-r'_cal.fts.mag.1"
p230
sI10
S"KIC8462852-20181114at025727_-25-1X1-030-r'_cal.fts.mag.1"
p231
sI11
S"KIC8462852-20181114at025830_-25-1X1-030-r'_cal.fts.mag.1"
p232
sI12
S"KIC8462852-20181114at022451_-25-1X1-030-r'_cal.fts.mag.1"
p233
sI13
S"KIC8462852-20181114at025519_-25-1X1-030-r'_cal.fts.mag.1"
p234
sI14
S"KIC8462852-20181114at032657_-25-1X1-030-r'_cal.fts.mag.1"
p235
ssg121
(dp236
I0
F0.003537758383489348
sI1
Fnan
sI2
Fnan
sI3
Fnan
sI4
Fnan
sI5
Fnan
sI6
Fnan
sI7
Fnan
sI8
Fnan
sI9
Fnan
sI10
Fnan
sI11
Fnan
sI12
Fnan
sI13
Fnan
sI14
Fnan
ssg123
(dp237
I0
F4191.343333333333
sI1
F6841.1033333333335
sI2
F4345.05
sI3
F7301.72
sI4
F6680.276666666667
sI5
F5969.78
sI6
F3635.5299999999997
sI7
F5754.706666666667
sI8
F7528.836666666667
sI9
F4039.4566666666665
sI10
F6270.716666666666
sI11
F6242.22
sI12
F4909.23
sI13
F5848.633333333333
sI14
F7125.35
ssg125
(dp238
I0
F0.25467650816187143
sI1
Fnan
sI2
Fnan
sI3
Fnan
sI4
Fnan
sI5
Fnan
sI6
Fnan
sI7
Fnan
sI8
Fnan
sI9
Fnan
sI10
Fnan
sI11
Fnan
sI12
Fnan
sI13
Fnan
sI14
Fnan
ssg127
(dp239
I0
S"r'"
p240
sI1
S"r'"
p241
sI2
S"r'"
p242
sI3
S"r'"
p243
sI4
S"r'"
p244
sI5
S"r'"
p245
sI6
S"r'"
p246
sI7
S"r'"
p247
sI8
S"r'"
p248
sI9
S"r'"
p249
sI10
S"r'"
p250
sI11
S"r'"
p251
sI12
S"r'"
p252
sI13
S"r'"
p253
sI14
S"r'"
p254
ssg144
(dp255
I0
F0.00123915320296473
sI1
Fnan
sI2
Fnan
sI3
Fnan
sI4
Fnan
sI5
Fnan
sI6
Fnan
sI7
Fnan
sI8
Fnan
sI9
Fnan
sI10
Fnan
sI11
Fnan
sI12
Fnan
sI13
Fnan
sI14
Fnan
ssg146
(dp256
I0
F2.758222
sI1
F3.846723
sI2
F-3.844087
sI3
F3.383411
sI4
F-3.357491
sI5
F3.557312
sI6
F3.699065
sI7
F1.811131
sI8
F3.361291
sI9
F3.152002
sI10
F2.086138
sI11
F4.01598
sI12
F4.219946
sI13
F-2.238281
sI14
F3.004435
ssg148
(dp257
I0
F1.4966708132747086
sI1
Fnan
sI2
Fnan
sI3
Fnan
sI4
Fnan
sI5
Fnan
sI6
Fnan
sI7
Fnan
sI8
Fnan
sI9
Fnan
sI10
Fnan
sI11
Fnan
sI12
Fnan
sI13
Fnan
sI14
Fnan
ssg150
(dp258
I0
F2458436.6232291665
sI1
Fnan
sI2
Fnan
sI3
Fnan
sI4
Fnan
sI5
Fnan
sI6
Fnan
sI7
Fnan
sI8
Fnan
sI9
Fnan
sI10
Fnan
sI11
Fnan
sI12
Fnan
sI13
Fnan
sI14
Fnan
ssg152
(dp259
I0
F0.00123915320296473
sI1
Fnan
sI2
Fnan
sI3
Fnan
sI4
Fnan
sI5
Fnan
sI6
Fnan
sI7
Fnan
sI8
Fnan
sI9
Fnan
sI10
Fnan
sI11
Fnan
sI12
Fnan
sI13
Fnan
sI14
Fnan
ssg154
(dp260
I0
F20.51577
sI1
F14.88205
sI2
F19.9364
sI3
F14.2469
sI4
F16.14397
sI5
F16.92183
sI6
F21.97631
sI7
F17.03418
sI8
F13.89744
sI9
F20.81371
sI10
F16.44649
sI11
F15.53033
sI12
F20.6465
sI13
F16.8782
sI14
F15.74575
ssg156
(dp261
I0
F11.026
sI1
F10.489
sI2
F10.99
sI3
F10.423
sI4
F10.51
sI5
F10.641
sI6
F11.178
sI7
F10.679
sI8
F10.395
sI9
F11.068
sI10
F10.586
sI11
F10.596
sI12
F10.854
sI13
F10.662
sI14
F10.447
ssg158
(dp262
I0
F0.5506602322175068
sI1
Fnan
sI2
Fnan
sI3
Fnan
sI4
Fnan
sI5
Fnan
sI6
Fnan
sI7
Fnan
sI8
Fnan
sI9
Fnan
sI10
Fnan
sI11
Fnan
sI12
Fnan
sI13
Fnan
sI14
Fnan
sssS'z'
p263
(dp264
g3
(dp265
I0
F0.3699130383035145
sI1
Fnan
sI2
Fnan
sI3
Fnan
sI4
Fnan
sI5
Fnan
sI6
Fnan
sI7
Fnan
sI8
Fnan
sI9
Fnan
sI10
Fnan
sI11
Fnan
sI12
Fnan
sI13
Fnan
sI14
Fnan
ssg5
(dp266
I0
S'NoError'
p267
sI1
S'NoError'
p268
sI2
S'NoError'
p269
sI3
S'NoError'
p270
sI4
S'NoError'
p271
sI5
S'NoError'
p272
sI6
S'NoError'
p273
sI7
S'NoError'
p274
sI8
S'NoError'
p275
sI9
S'NoError'
p276
sI10
S'NoError'
p277
sI11
S'NoError'
p278
sI12
S'NoError'
p279
sI13
S'NoError'
p280
sI14
S'NoError'
p281
ssg22
(dp282
I0
F0.007
sI1
F0.007
sI2
F0.009
sI3
F0.009
sI4
F0.008
sI5
F0.008
sI6
F0.007
sI7
F0.008
sI8
F0.008
sI9
F0.008
sI10
F0.008
sI11
F0.008
sI12
F0.007
sI13
F0.008
sI14
F0.008
ssg24
(dp283
I0
F0.9114043504723088
sI1
F0.9148662457589382
sI2
F0.9177065333765778
sI3
F0.9105308718101187
sI4
F0.9060401502682524
sI5
F0.9110308999936337
sI6
F0.9156833818023563
sI7
F0.9148435676298781
sI8
F0.9089454733283806
sI9
F0.9090035951099169
sI10
F0.9123414730718257
sI11
F0.910627669663518
sI12
F0.9127227173456235
sI13
F0.9179072450626113
sI14
F0.9177262693754352
ssg26
(dp284
I0
F0.003598485404367872
sI1
Fnan
sI2
Fnan
sI3
Fnan
sI4
Fnan
sI5
Fnan
sI6
Fnan
sI7
Fnan
sI8
Fnan
sI9
Fnan
sI10
Fnan
sI11
Fnan
sI12
Fnan
sI13
Fnan
sI14
Fnan
ssg28
(dp285
I0
F0.9127586962712917
sI1
Fnan
sI2
Fnan
sI3
Fnan
sI4
Fnan
sI5
Fnan
sI6
Fnan
sI7
Fnan
sI8
Fnan
sI9
Fnan
sI10
Fnan
sI11
Fnan
sI12
Fnan
sI13
Fnan
sI14
Fnan
ssg30
(dp286
I0
F13.348
sI1
F13.385
sI2
F13.559
sI3
F13.545
sI4
F13.515
sI5
F13.457
sI6
F13.358
sI7
F13.479
sI8
F13.484
sI9
F13.455
sI10
F13.468
sI11
F13.518
sI12
F13.32
sI13
F13.535
sI14
F13.408
ssg32
(dp287
I0
F3.906451
sI1
F4.67876
sI2
F5.388191
sI3
F5.806475
sI4
F5.284787
sI5
F4.551638
sI6
F3.978777
sI7
F5.512856
sI8
F5.197857
sI9
F5.053707
sI10
F4.19879
sI11
F5.969429
sI12
F3.936737
sI13
F3.765672
sI14
F4.526382
ssg34
(dp288
I0
F2458436.6525810184
sI1
F2458436.6503703706
sI2
F2458436.629189815
sI3
F2458436.6321643516
sI4
F2458436.6110416665
sI5
F2458436.609560185
sI6
F2458436.651851852
sI7
F2458436.6299305554
sI8
F2458436.6306712963
sI9
F2458436.6088194447
sI10
F2458436.610300926
sI11
F2458436.631423611
sI12
F2458436.6533217593
sI13
F2458436.6080671297
sI14
F2458436.651111111
ssg36
(dp289
I0
F-0.0033912266666666765
sI1
Fnan
sI2
Fnan
sI3
Fnan
sI4
Fnan
sI5
Fnan
sI6
Fnan
sI7
Fnan
sI8
Fnan
sI9
Fnan
sI10
Fnan
sI11
Fnan
sI12
Fnan
sI13
Fnan
sI14
Fnan
ssg38
(dp290
I0
F1.2769695200000002
sI1
Fnan
sI2
Fnan
sI3
Fnan
sI4
Fnan
sI5
Fnan
sI6
Fnan
sI7
Fnan
sI8
Fnan
sI9
Fnan
sI10
Fnan
sI11
Fnan
sI12
Fnan
sI13
Fnan
sI14
Fnan
ssg40
(dp291
I0
F0.369707685367303
sI1
F0.3720926278810335
sI2
F0.3715567786461558
sI3
F0.3748585820976065
sI4
F0.3670746465128792
sI5
F0.37119815799775524
sI6
F0.3685576315211485
sI7
F0.3735381221101728
sI8
F0.36753638045933174
sI9
F0.36968287285475904
sI10
F0.3700609122414296
sI11
F0.3693449257325864
sI12
F0.3675417276276569
sI13
F0.37601695539474117
sI14
F0.37097702899347673
ssg42
(dp292
I0
F0.001860155315106731
sI1
Fnan
sI2
Fnan
sI3
Fnan
sI4
Fnan
sI5
Fnan
sI6
Fnan
sI7
Fnan
sI8
Fnan
sI9
Fnan
sI10
Fnan
sI11
Fnan
sI12
Fnan
sI13
Fnan
sI14
Fnan
ssg44
(dp293
I0
F0.6629405333333334
sI1
Fnan
sI2
Fnan
sI3
Fnan
sI4
Fnan
sI5
Fnan
sI6
Fnan
sI7
Fnan
sI8
Fnan
sI9
Fnan
sI10
Fnan
sI11
Fnan
sI12
Fnan
sI13
Fnan
sI14
Fnan
ssg46
(dp294
I0
g267
sI1
g268
sI2
g269
sI3
g270
sI4
g271
sI5
g272
sI6
g273
sI7
g274
sI8
g275
sI9
g276
sI10
g277
sI11
g278
sI12
g279
sI13
g280
sI14
g281
ssg48
(dp295
I0
F0.005301518836588947
sI1
Fnan
sI2
Fnan
sI3
Fnan
sI4
Fnan
sI5
Fnan
sI6
Fnan
sI7
Fnan
sI8
Fnan
sI9
Fnan
sI10
Fnan
sI11
Fnan
sI12
Fnan
sI13
Fnan
sI14
Fnan
ssg50
(dp296
I0
F0.0797691908541373
sI1
Fnan
sI2
Fnan
sI3
Fnan
sI4
Fnan
sI5
Fnan
sI6
Fnan
sI7
Fnan
sI8
Fnan
sI9
Fnan
sI10
Fnan
sI11
Fnan
sI12
Fnan
sI13
Fnan
sI14
Fnan
ssg52
(dp297
I0
F-0.2879253333333333
sI1
Fnan
sI2
Fnan
sI3
Fnan
sI4
Fnan
sI5
Fnan
sI6
Fnan
sI7
Fnan
sI8
Fnan
sI9
Fnan
sI10
Fnan
sI11
Fnan
sI12
Fnan
sI13
Fnan
sI14
Fnan
ssg54
(dp298
I0
F1.5063295544363213
sI1
F1.5001247738494325
sI2
F1.5244334096796197
sI3
F1.5077403904015991
sI4
F1.5149158945465797
sI5
F1.5130627247053896
sI6
F1.4965411419092716
sI7
F1.5193082552475248
sI8
F1.5220000579483
sI9
F1.520801209790042
sI10
F1.5167803555112584
sI11
F1.5150504724357794
sI12
F1.5019930379384854
sI13
F1.513060536795274
sI14
F1.513013394362785
ssg56
(dp299
I0
g267
sI1
g268
sI2
g269
sI3
g270
sI4
g271
sI5
g272
sI6
g273
sI7
g274
sI8
g275
sI9
g276
sI10
g277
sI11
g278
sI12
g279
sI13
g280
sI14
g281
ssg58
(dp300
I0
F4.346399
sI1
F5.131686
sI2
F5.566714
sI3
F6.127543
sI4
F5.25175
sI5
F4.694976
sI6
F4.093145
sI7
F5.013064
sI8
F5.80673
sI9
F5.417421
sI10
F4.556937
sI11
F5.776472
sI12
F4.090946
sI13
F5.728467
sI14
F5.246536
ssg60
(dp301
I0
F12.100066666666667
sI1
Fnan
sI2
Fnan
sI3
Fnan
sI4
Fnan
sI5
Fnan
sI6
Fnan
sI7
Fnan
sI8
Fnan
sI9
Fnan
sI10
Fnan
sI11
Fnan
sI12
Fnan
sI13
Fnan
sI14
Fnan
ssg62
(dp302
I0
F0.6883934782172484
sI1
Fnan
sI2
Fnan
sI3
Fnan
sI4
Fnan
sI5
Fnan
sI6
Fnan
sI7
Fnan
sI8
Fnan
sI9
Fnan
sI10
Fnan
sI11
Fnan
sI12
Fnan
sI13
Fnan
sI14
Fnan
ssg64
(dp303
I0
F2.492226
sI1
F4.008947
sI2
F2.735992
sI3
F3.29018
sI4
F-0.9264692
sI5
F-1.098257
sI6
F3.26483
sI7
F-3.517337
sI8
F2.651878
sI9
F2.791921
sI10
F2.006037
sI11
F2.403921
sI12
F2.805439
sI13
F-1.551908
sI14
F-2.202857
ssg66
(dp304
I0
F12.445133333333333
sI1
Fnan
sI2
Fnan
sI3
Fnan
sI4
Fnan
sI5
Fnan
sI6
Fnan
sI7
Fnan
sI8
Fnan
sI9
Fnan
sI10
Fnan
sI11
Fnan
sI12
Fnan
sI13
Fnan
sI14
Fnan
ssg68
(dp305
I0
g267
sI1
g268
sI2
g269
sI3
g270
sI4
g271
sI5
g272
sI6
g273
sI7
g274
sI8
g275
sI9
g276
sI10
g277
sI11
g278
sI12
g279
sI13
g280
sI14
g281
ssg70
(dp306
I0
F2922.8043333333335
sI1
F2812.266666666667
sI2
F2406.028
sI3
F2401.0316666666668
sI4
F2512.4863333333333
sI5
F2630.703
sI6
F2914.112
sI7
F2568.951333333333
sI8
F2589.124666666667
sI9
F2643.0673333333334
sI10
F2615.2823333333336
sI11
F2500.5266666666666
sI12
F3018.7786666666666
sI13
F2430.076666666667
sI14
F2768.4416666666666
ssg72
(dp307
I0
F1.2818040000000002
sI1
F1.2718909999999999
sI2
F1.189354
sI3
F1.1997280000000001
sI4
F1.133873
sI5
F1.12988
sI6
F1.278458
sI7
F1.191929
sI8
F1.194513
sI9
F1.12792
sI10
F1.13186
sI11
F1.197103
sI12
F1.285168
sI13
F1.125953
sI14
F1.2751549999999998
ssg74
(dp308
I0
F2402.7943333333333
sI1
F2307.663
sI2
F1934.8656666666668
sI3
F1974.975
sI4
F2072.8683333333333
sI5
F2154.822333333333
sI6
F2393.42
sI7
F2082.591
sI8
F2116.219
sI9
F2161.733333333333
sI10
F2132.471666666667
sI11
F2047.005
sI12
F2483.04
sI13
F1967.739
sI14
F2242.472333333333
ssg76
(dp309
I0
F4011.0533333333337
sI1
F3840.266666666667
sI2
F3308.701666666667
sI3
F3298.941
sI4
F3473.213333333333
sI5
F3620.4
sI6
F3971.4700000000003
sI7
F3533.563333333333
sI8
F3580.766666666667
sI9
F3653.5733333333333
sI10
F3600.65
sI11
F3444.8700000000003
sI12
F4131.846666666666
sI13
F3327.0806666666667
sI14
F3790.79
ssg78
(dp310
I0
F3.292935
sI1
F4.867318
sI2
F6.066131
sI3
F5.042258
sI4
F5.354246
sI5
F4.849724
sI6
F4.144706
sI7
F6.37249
sI8
F5.584054
sI9
F4.186127
sI10
F4.160019
sI11
F6.276332
sI12
F4.372048
sI13
F6.089292
sI14
F4.994565
ssg80
(dp311
I0
F12.548
sI1
F12.592
sI2
F12.783
sI3
F12.761
sI4
F12.709
sI5
F12.666
sI6
F12.552
sI7
F12.703
sI8
F12.686
sI9
F12.663
sI10
F12.678
sI11
F12.722
sI12
F12.513
sI13
F12.765
sI14
F12.623
ssg82
(dp312
I0
F0.003
sI1
F0.003
sI2
F0.004
sI3
F0.003
sI4
F0.003
sI5
F0.003
sI6
F0.003
sI7
F0.003
sI8
F0.003
sI9
F0.003
sI10
F0.003
sI11
F0.003
sI12
F0.003
sI13
F0.003
sI14
F0.003
ssg84
(dp313
I0
F0.3706496690292024
sI1
Fnan
sI2
Fnan
sI3
Fnan
sI4
Fnan
sI5
Fnan
sI6
Fnan
sI7
Fnan
sI8
Fnan
sI9
Fnan
sI10
Fnan
sI11
Fnan
sI12
Fnan
sI13
Fnan
sI14
Fnan
ssg86
(dp314
I0
F12.664266666666666
sI1
Fnan
sI2
Fnan
sI3
Fnan
sI4
Fnan
sI5
Fnan
sI6
Fnan
sI7
Fnan
sI8
Fnan
sI9
Fnan
sI10
Fnan
sI11
Fnan
sI12
Fnan
sI13
Fnan
sI14
Fnan
ssg88
(dp315
I0
F12.336
sI1
F12.377
sI2
F12.547
sI3
F12.549
sI4
F12.5
sI5
F12.45
sI6
F12.339
sI7
F12.476
sI8
F12.467
sI9
F12.445
sI10
F12.456
sI11
F12.505
sI12
F12.3
sI13
F12.536
sI14
F12.394
ssg90
(dp316
I0
F-2.434787
sI1
F0.5158236
sI2
F3.347145
sI3
F-2.992163
sI4
F-1.296886
sI5
F1.714378
sI6
F-2.215039
sI7
F-2.773493
sI8
F3.32862
sI9
F3.448439
sI10
F3.24664
sI11
F-2.61564
sI12
F-3.021604
sI13
F3.182013
sI14
F-1.484315
ssg92
(dp317
I0
F0.07718388679609471
sI1
Fnan
sI2
Fnan
sI3
Fnan
sI4
Fnan
sI5
Fnan
sI6
Fnan
sI7
Fnan
sI8
Fnan
sI9
Fnan
sI10
Fnan
sI11
Fnan
sI12
Fnan
sI13
Fnan
sI14
Fnan
ssg94
(dp318
I0
F0.6930613372363714
sI1
F0.6937696917465025
sI2
F0.677150374392163
sI3
F0.6929770072581635
sI4
F0.6926068626118284
sI5
F0.689421477564306
sI6
F0.6951975882358238
sI7
F0.6825353526393273
sI8
F0.6859825840260612
sI9
F0.6866306806348909
sI10
F0.6861309140162776
sI11
F0.6886016576410096
sI12
F0.6944959032953575
sI13
F0.6835800677556609
sI14
F0.6837606742049818
ssg96
(dp319
I0
F30.0
sI1
F30.0
sI2
F30.0
sI3
F30.0
sI4
F30.0
sI5
F30.0
sI6
F30.0
sI7
F30.0
sI8
F30.0
sI9
F30.0
sI10
F30.0
sI11
F30.0
sI12
F30.0
sI13
F30.0
sI14
F30.0
ssg98
(dp320
I0
F0.004
sI1
F0.004
sI2
F0.005
sI3
F0.005
sI4
F0.005
sI5
F0.005
sI6
F0.004
sI7
F0.005
sI8
F0.005
sI9
F0.005
sI10
F0.005
sI11
F0.005
sI12
F0.004
sI13
F0.005
sI14
F0.005
ssg100
(dp321
I0
F0.004
sI1
F0.004
sI2
F0.004
sI3
F0.004
sI4
F0.004
sI5
F0.004
sI6
F0.004
sI7
F0.004
sI8
F0.004
sI9
F0.004
sI10
F0.004
sI11
F0.004
sI12
F0.004
sI13
F0.004
sI14
F0.004
ssg102
(dp322
I0
F-2.731845
sI1
F-2.616737
sI2
F1.77647
sI3
F-2.545263
sI4
F-1.277871
sI5
F-3.051275
sI6
F4.317654
sI7
F2.493976
sI8
F2.115134
sI9
F-2.72148
sI10
F-2.167471
sI11
F1.964877
sI12
F3.697628
sI13
F-1.35675
sI14
F-2.215927
ssg104
(dp323
I0
S"KIC8462852-20181114at033943_-25-1X1-030-z'_cal.fts.mag.1"
p324
sI1
S"KIC8462852-20181114at033631_-25-1X1-030-z'_cal.fts.mag.1"
p325
sI2
S"KIC8462852-20181114at030600_-25-1X1-030-z'_cal.fts.mag.1"
p326
sI3
S"KIC8462852-20181114at031019_-25-1X1-030-z'_cal.fts.mag.1"
p327
sI4
S"KIC8462852-20181114at023954_-25-1X1-030-z'_cal.fts.mag.1"
p328
sI5
S"KIC8462852-20181114at023746_-25-1X1-030-z'_cal.fts.mag.1"
p329
sI6
S"KIC8462852-20181114at033840_-25-1X1-030-z'_cal.fts.mag.1"
p330
sI7
S"KIC8462852-20181114at030706_-25-1X1-030-z'_cal.fts.mag.1"
p331
sI8
S"KIC8462852-20181114at030810_-25-1X1-030-z'_cal.fts.mag.1"
p332
sI9
S"KIC8462852-20181114at023642_-25-1X1-030-z'_cal.fts.mag.1"
p333
sI10
S"KIC8462852-20181114at023850_-25-1X1-030-z'_cal.fts.mag.1"
p334
sI11
S"KIC8462852-20181114at030915_-25-1X1-030-z'_cal.fts.mag.1"
p335
sI12
S"KIC8462852-20181114at034047_-25-1X1-030-z'_cal.fts.mag.1"
p336
sI13
S"KIC8462852-20181114at023536_-25-1X1-030-z'_cal.fts.mag.1"
p337
sI14
S"KIC8462852-20181114at033736_-25-1X1-030-z'_cal.fts.mag.1"
p338
ssg121
(dp339
I0
F0.008272443482106859
sI1
Fnan
sI2
Fnan
sI3
Fnan
sI4
Fnan
sI5
Fnan
sI6
Fnan
sI7
Fnan
sI8
Fnan
sI9
Fnan
sI10
Fnan
sI11
Fnan
sI12
Fnan
sI13
Fnan
sI14
Fnan
ssg123
(dp340
I0
F1150.6106666666667
sI1
F1111.3410000000001
sI2
F947.4196666666667
sI3
F959.0066666666667
sI4
F986.0319999999999
sI5
F1040.088
sI6
F1139.949
sI7
F1019.1496666666667
sI8
F1015.149
sI9
F1042.3053333333332
sI10
F1029.806
sI11
F983.9843333333333
sI12
F1180.258
sI13
F968.2306666666666
sI14
F1088.41
ssg125
(dp341
I0
F0.08325131201597329
sI1
Fnan
sI2
Fnan
sI3
Fnan
sI4
Fnan
sI5
Fnan
sI6
Fnan
sI7
Fnan
sI8
Fnan
sI9
Fnan
sI10
Fnan
sI11
Fnan
sI12
Fnan
sI13
Fnan
sI14
Fnan
ssg127
(dp342
I0
S"z'"
p343
sI1
S"z'"
p344
sI2
S"z'"
p345
sI3
S"z'"
p346
sI4
S"z'"
p347
sI5
S"z'"
p348
sI6
S"z'"
p349
sI7
S"z'"
p350
sI8
S"z'"
p351
sI9
S"z'"
p352
sI10
S"z'"
p353
sI11
S"z'"
p354
sI12
S"z'"
p355
sI13
S"z'"
p356
sI14
S"z'"
p357
ssg144
(dp358
I0
F0.002653288340337541
sI1
Fnan
sI2
Fnan
sI3
Fnan
sI4
Fnan
sI5
Fnan
sI6
Fnan
sI7
Fnan
sI8
Fnan
sI9
Fnan
sI10
Fnan
sI11
Fnan
sI12
Fnan
sI13
Fnan
sI14
Fnan
ssg146
(dp359
I0
F2.678602
sI1
F2.941055
sI2
F-3.345231
sI3
F-1.666489
sI4
F2.24366
sI5
F-3.259008
sI6
F2.57138
sI7
F2.858043
sI8
F2.151395
sI9
F-2.196345
sI10
F-2.688057
sI11
F-2.187855
sI12
F1.466254
sI13
F4.479301
sI14
F3.897403
ssg148
(dp360
I0
F1.5123436806371775
sI1
Fnan
sI2
Fnan
sI3
Fnan
sI4
Fnan
sI5
Fnan
sI6
Fnan
sI7
Fnan
sI8
Fnan
sI9
Fnan
sI10
Fnan
sI11
Fnan
sI12
Fnan
sI13
Fnan
sI14
Fnan
ssg150
(dp361
I0
F2458436.6306712963
sI1
Fnan
sI2
Fnan
sI3
Fnan
sI4
Fnan
sI5
Fnan
sI6
Fnan
sI7
Fnan
sI8
Fnan
sI9
Fnan
sI10
Fnan
sI11
Fnan
sI12
Fnan
sI13
Fnan
sI14
Fnan
ssg152
(dp362
I0
F0.002653288340337541
sI1
Fnan
sI2
Fnan
sI3
Fnan
sI4
Fnan
sI5
Fnan
sI6
Fnan
sI7
Fnan
sI8
Fnan
sI9
Fnan
sI10
Fnan
sI11
Fnan
sI12
Fnan
sI13
Fnan
sI14
Fnan
ssg154
(dp363
I0
F4.672086
sI1
F5.437919
sI2
F6.670699
sI3
F6.09262
sI4
F6.036938
sI5
F4.892
sI6
F5.028491
sI7
F6.297963
sI8
F4.44751
sI9
F4.971723
sI10
F4.076039
sI11
F5.440519
sI12
F4.984412
sI13
F5.212347
sI14
F5.28479
ssg156
(dp364
I0
F11.992
sI1
F12.039
sI2
F12.201
sI3
F12.204
sI4
F12.148
sI5
F12.103
sI6
F12.003
sI7
F12.129
sI8
F12.115
sI9
F12.093
sI10
F12.109
sI11
F12.157
sI12
F11.96
sI13
F12.195
sI14
F12.053
ssg158
(dp365
I0
F0.3706496690292024
sI1
Fnan
sI2
Fnan
sI3
Fnan
sI4
Fnan
sI5
Fnan
sI6
Fnan
sI7
Fnan
sI8
Fnan
sI9
Fnan
sI10
Fnan
sI11
Fnan
sI12
Fnan
sI13
Fnan
sI14
Fnan
sssS'g'
p366
(dp367
g3
(dp368
I0
F0.8676386692724097
sI1
Fnan
sI2
Fnan
sI3
Fnan
sI4
Fnan
sI5
Fnan
sI6
Fnan
sI7
Fnan
sI8
Fnan
sI9
Fnan
sI10
Fnan
sI11
Fnan
ssg5
(dp369
I0
S'NoError'
p370
sI1
S'NoError'
p371
sI2
S'NoError'
p372
sI3
S'NoError'
p373
sI4
S'NoError'
p374
sI5
S'NoError'
p375
sI6
S'NoError'
p376
sI7
S'NoError'
p377
sI8
S'NoError'
p378
sI9
S'NoError'
p379
sI10
S'NoError'
p380
sI11
S'NoError'
p381
ssg22
(dp382
I0
F0.003
sI1
F0.003
sI2
F0.003
sI3
F0.003
sI4
F0.003
sI5
F0.003
sI6
F0.003
sI7
F0.003
sI8
F0.003
sI9
F0.003
sI10
F0.003
sI11
F0.002
ssg24
(dp383
I0
F0.8822276026944503
sI1
F0.8735625718872048
sI2
F0.8794644891843582
sI3
F0.8829536405771791
sI4
F0.87448744594379
sI5
F0.8799828581732785
sI6
F0.8729802530445169
sI7
F0.8774526026781775
sI8
F0.8765748390267086
sI9
F0.8745000180866491
sI10
F0.8769245446406293
sI11
F0.8780678531059959
ssg26
(dp384
I0
F0.003269398306775132
sI1
Fnan
sI2
Fnan
sI3
Fnan
sI4
Fnan
sI5
Fnan
sI6
Fnan
sI7
Fnan
sI8
Fnan
sI9
Fnan
sI10
Fnan
sI11
Fnan
ssg28
(dp385
I0
F0.8774315599202449
sI1
Fnan
sI2
Fnan
sI3
Fnan
sI4
Fnan
sI5
Fnan
sI6
Fnan
sI7
Fnan
sI8
Fnan
sI9
Fnan
sI10
Fnan
sI11
Fnan
ssg30
(dp386
I0
F11.741
sI1
F11.902
sI2
F11.63
sI3
F11.717
sI4
F11.742
sI5
F11.613
sI6
F11.891
sI7
F11.644
sI8
F11.795
sI9
F11.782
sI10
F11.615
sI11
F11.558
ssg32
(dp387
I0
F8.610115
sI1
F10.41143
sI2
F7.591711
sI3
F6.949082
sI4
F7.624758
sI5
F7.259117
sI6
F10.2661
sI7
F8.059245
sI8
F8.698901
sI9
F7.721947
sI10
F7.02779
sI11
F7.203885
ssg34
(dp388
I0
F2458436.619525463
sI1
F2458436.596828704
sI2
F2458436.639259259
sI3
F2458436.6187847224
sI4
F2458436.6180555555
sI5
F2458436.6414930555
sI6
F2458436.597569444
sI7
F2458436.6407523146
sI8
F2458436.621006944
sI9
F2458436.6202546298
sI10
F2458436.64
sI11
F2458436.6422337964
ssg36
(dp389
I0
F1.0204175833333335
sI1
Fnan
sI2
Fnan
sI3
Fnan
sI4
Fnan
sI5
Fnan
sI6
Fnan
sI7
Fnan
sI8
Fnan
sI9
Fnan
sI10
Fnan
sI11
Fnan
ssg38
(dp390
I0
F1.9615306666666663
sI1
Fnan
sI2
Fnan
sI3
Fnan
sI4
Fnan
sI5
Fnan
sI6
Fnan
sI7
Fnan
sI8
Fnan
sI9
Fnan
sI10
Fnan
sI11
Fnan
ssg40
(dp391
I0
F0.8597206983505506
sI1
F0.8626880462586706
sI2
F0.8718356836334934
sI3
F0.8644835867384921
sI4
F0.8679169763305358
sI5
F0.8742540493730437
sI6
F0.8692710046793017
sI7
F0.868338966993962
sI8
F0.8680373238140418
sI9
F0.8678916085745406
sI10
F0.8689738206807185
sI11
F0.8669496750203414
ssg42
(dp392
I0
F0.002403971303110001
sI1
Fnan
sI2
Fnan
sI3
Fnan
sI4
Fnan
sI5
Fnan
sI6
Fnan
sI7
Fnan
sI8
Fnan
sI9
Fnan
sI10
Fnan
sI11
Fnan
ssg44
(dp393
I0
F2.6962617499999997
sI1
Fnan
sI2
Fnan
sI3
Fnan
sI4
Fnan
sI5
Fnan
sI6
Fnan
sI7
Fnan
sI8
Fnan
sI9
Fnan
sI10
Fnan
sI11
Fnan
ssg46
(dp394
I0
g370
sI1
g371
sI2
g372
sI3
g373
sI4
g374
sI5
g375
sI6
g376
sI7
g377
sI8
g378
sI9
g379
sI10
g380
sI11
g381
ssg48
(dp395
I0
F0.0037577907932764536
sI1
Fnan
sI2
Fnan
sI3
Fnan
sI4
Fnan
sI5
Fnan
sI6
Fnan
sI7
Fnan
sI8
Fnan
sI9
Fnan
sI10
Fnan
sI11
Fnan
ssg50
(dp396
I0
F0.11063244496434066
sI1
Fnan
sI2
Fnan
sI3
Fnan
sI4
Fnan
sI5
Fnan
sI6
Fnan
sI7
Fnan
sI8
Fnan
sI9
Fnan
sI10
Fnan
sI11
Fnan
ssg52
(dp397
I0
F0.7168600833333333
sI1
Fnan
sI2
Fnan
sI3
Fnan
sI4
Fnan
sI5
Fnan
sI6
Fnan
sI7
Fnan
sI8
Fnan
sI9
Fnan
sI10
Fnan
sI11
Fnan
ssg54
(dp398
I0
F1.5157339583554217
sI1
F1.518638063281971
sI2
F1.5110288468254522
sI3
F1.5187601471958816
sI4
F1.5177977715064948
sI5
F1.5076103409552597
sI6
F1.5235379454446754
sI7
F1.5163271886429173
sI8
F1.5084831667956924
sI9
F1.5105546055258798
sI10
F1.522613863046851
sI11
F1.5098611262639081
ssg56
(dp399
I0
g370
sI1
g371
sI2
g372
sI3
g373
sI4
g374
sI5
g375
sI6
g376
sI7
g377
sI8
g378
sI9
g379
sI10
g380
sI11
g381
ssg58
(dp400
I0
F6.278703
sI1
F10.10695
sI2
F7.983596
sI3
F6.946958
sI4
F7.755746
sI5
F7.498957
sI6
F10.08461
sI7
F8.091426
sI8
F8.312795
sI9
F8.04692
sI10
F7.493963
sI11
F7.535913
ssg60
(dp401
I0
F11.285833333333334
sI1
Fnan
sI2
Fnan
sI3
Fnan
sI4
Fnan
sI5
Fnan
sI6
Fnan
sI7
Fnan
sI8
Fnan
sI9
Fnan
sI10
Fnan
sI11
Fnan
ssg62
(dp402
I0
F0.7175572866243697
sI1
Fnan
sI2
Fnan
sI3
Fnan
sI4
Fnan
sI5
Fnan
sI6
Fnan
sI7
Fnan
sI8
Fnan
sI9
Fnan
sI10
Fnan
sI11
Fnan
ssg64
(dp403
I0
F4.218487
sI1
F3.064034
sI2
F2.854163
sI3
F-2.016266
sI4
F1.519541
sI5
F3.449505
sI6
F1.894171
sI7
F2.992962
sI8
F2.984267
sI9
F2.116946
sI10
F-1.869831
sI11
F2.330389
ssg66
(dp404
I0
F11.661583333333333
sI1
Fnan
sI2
Fnan
sI3
Fnan
sI4
Fnan
sI5
Fnan
sI6
Fnan
sI7
Fnan
sI8
Fnan
sI9
Fnan
sI10
Fnan
sI11
Fnan
ssg68
(dp405
I0
g370
sI1
g371
sI2
g372
sI3
g373
sI4
g374
sI5
g375
sI6
g376
sI7
g377
sI8
g378
sI9
g379
sI10
g380
sI11
g381
ssg70
(dp406
I0
F5396.383333333333
sI1
F4607.576666666666
sI2
F5885.3133333333335
sI3
F5490.5633333333335
sI4
F5307.863333333333
sI5
F5961.753333333333
sI6
F4615.056666666667
sI7
F5819.7
sI8
F5066.1
sI9
F5117.1033333333335
sI10
F5974.75
sI11
F6314.336666666667
ssg72
(dp407
I0
F1.158233
sI1
F1.098665
sI2
F1.22599
sI3
F1.156026
sI4
F1.1538059999999999
sI5
F1.234731
sI6
F1.100363
sI7
F1.2317870000000002
sI8
F1.16277
sI9
F1.160506
sI10
F1.2288940000000002
sI11
F1.2376610000000001
ssg74
(dp408
I0
F4632.7733333333335
sI1
F4007.4100000000003
sI2
F5091.053333333333
sI3
F4699.033333333334
sI4
F4611.543333333333
sI5
F5163.46
sI6
F4005.9166666666665
sI7
F5035.2
sI8
F4410.903333333334
sI9
F4465.443333333333
sI10
F5154.116666666667
sI11
F5479.11
ssg76
(dp409
I0
F7600.766666666666
sI1
F6541.5233333333335
sI2
F8292.803333333333
sI3
F7737.776666666667
sI4
F7527.826666666666
sI5
F8386.243333333334
sI6
F6567.1900000000005
sI7
F8229.79
sI8
F7147.95
sI9
F7237.48
sI10
F8472.483333333334
sI11
F8903.233333333334
ssg78
(dp410
I0
F8.062
sI1
F9.779489
sI2
F7.837355
sI3
F7.877974
sI4
F7.091666
sI5
F6.763454
sI6
F9.165167
sI7
F6.905059
sI8
F7.971468
sI9
F6.943973
sI10
F8.22886
sI11
F6.726607
ssg80
(dp411
I0
F11.835
sI1
F11.993
sI2
F11.733
sI3
F11.82
sI4
F11.84
sI5
F11.718
sI6
F11.993
sI7
F11.745
sI8
F11.889
sI9
F11.875
sI10
F11.72
sI11
F11.653
ssg82
(dp412
I0
F0.002
sI1
F0.002
sI2
F0.002
sI3
F0.002
sI4
F0.002
sI5
F0.002
sI6
F0.002
sI7
F0.002
sI8
F0.002
sI9
F0.002
sI10
F0.002
sI11
F0.002
ssg84
(dp413
I0
F0.8675301200373077
sI1
Fnan
sI2
Fnan
sI3
Fnan
sI4
Fnan
sI5
Fnan
sI6
Fnan
sI7
Fnan
sI8
Fnan
sI9
Fnan
sI10
Fnan
sI11
Fnan
ssg86
(dp414
I0
F11.817833333333333
sI1
Fnan
sI2
Fnan
sI3
Fnan
sI4
Fnan
sI5
Fnan
sI6
Fnan
sI7
Fnan
sI8
Fnan
sI9
Fnan
sI10
Fnan
sI11
Fnan
ssg88
(dp415
I0
F11.67
sI1
F11.841
sI2
F11.576
sI3
F11.651
sI4
F11.688
sI5
F11.562
sI6
F11.84
sI7
F11.588
sI8
F11.738
sI9
F11.727
sI10
F11.559
sI11
F11.499
ssg90
(dp416
I0
F3.205179
sI1
F1.193434
sI2
F-2.709755
sI3
F4.699301
sI4
F3.263047
sI5
F3.401964
sI6
F-2.722831
sI7
F4.277755
sI8
F-1.634136
sI9
F-2.269675
sI10
F-2.126947
sI11
F3.667675
ssg92
(dp417
I0
F0.10839727716584842
sI1
Fnan
sI2
Fnan
sI3
Fnan
sI4
Fnan
sI5
Fnan
sI6
Fnan
sI7
Fnan
sI8
Fnan
sI9
Fnan
sI10
Fnan
sI11
Fnan
ssg94
(dp418
I0
F0.7128906465391772
sI1
F0.718875963082222
sI2
F0.7181565017450602
sI3
F0.7104494340685731
sI4
F0.7185501259898507
sI5
F0.7197464733171809
sI6
F0.7164779647739243
sI7
F0.7167804667642739
sI8
F0.7222671158761155
sI9
F0.7228804424808607
sI10
F0.7135091609235448
sI11
F0.7201031439316526
ssg96
(dp419
I0
F30.0
sI1
F30.0
sI2
F30.0
sI3
F30.0
sI4
F30.0
sI5
F30.0
sI6
F30.0
sI7
F30.0
sI8
F30.0
sI9
F30.0
sI10
F30.0
sI11
F30.0
ssg98
(dp420
I0
F0.003
sI1
F0.003
sI2
F0.003
sI3
F0.003
sI4
F0.003
sI5
F0.003
sI6
F0.003
sI7
F0.003
sI8
F0.003
sI9
F0.003
sI10
F0.003
sI11
F0.003
ssg100
(dp421
I0
F0.003
sI1
F0.003
sI2
F0.002
sI3
F0.003
sI4
F0.003
sI5
F0.002
sI6
F0.003
sI7
F0.003
sI8
F0.003
sI9
F0.003
sI10
F0.002
sI11
F0.002
ssg102
(dp422
I0
F4.202522
sI1
F4.283956
sI2
F-1.906927
sI3
F4.006796
sI4
F1.785213
sI5
F2.94719
sI6
F-4.10854
sI7
F3.507113
sI8
F-2.843727
sI9
F-4.270015
sI10
F3.611382
sI11
F-2.612642
ssg104
(dp423
I0
S"KIC8462852-20181114at025207_-25-1X1-030-g'_cal.fts.mag.1"
p424
sI1
S"KIC8462852-20181114at021915_-25-1X1-030-g'_cal.fts.mag.1"
p425
sI2
S"KIC8462852-20181114at032022_-25-1X1-030-g'_cal.fts.mag.1"
p426
sI3
S"KIC8462852-20181114at025103_-25-1X1-030-g'_cal.fts.mag.1"
p427
sI4
S"KIC8462852-20181114at024949_-25-1X1-030-g'_cal.fts.mag.1"
p428
sI5
S"KIC8462852-20181114at032345_-25-1X1-030-g'_cal.fts.mag.1"
p429
sI6
S"KIC8462852-20181114at022030_-25-1X1-030-g'_cal.fts.mag.1"
p430
sI7
S"KIC8462852-20181114at032241_-25-1X1-030-g'_cal.fts.mag.1"
p431
sI8
S"KIC8462852-20181114at025415_-25-1X1-030-g'_cal.fts.mag.1"
p432
sI9
S"KIC8462852-20181114at025310_-25-1X1-030-g'_cal.fts.mag.1"
p433
sI10
S"KIC8462852-20181114at032136_-25-1X1-030-g'_cal.fts.mag.1"
p434
sI11
S"KIC8462852-20181114at032449_-25-1X1-030-g'_cal.fts.mag.1"
p435
ssg121
(dp436
I0
F0.005454858843774514
sI1
Fnan
sI2
Fnan
sI3
Fnan
sI4
Fnan
sI5
Fnan
sI6
Fnan
sI7
Fnan
sI8
Fnan
sI9
Fnan
sI10
Fnan
sI11
Fnan
ssg123
(dp437
I0
F5052.27
sI1
F4358.446666666667
sI2
F5599.85
sI3
F5165.973333333333
sI4
F5047.583333333333
sI5
F5685.990000000001
sI6
F4400.876666666666
sI7
F5523.993333333333
sI8
F4810.36
sI9
F4865.986666666667
sI10
F5677.6866666666665
sI11
F5980.993333333333
ssg125
(dp438
I0
F0.10858581301384992
sI1
Fnan
sI2
Fnan
sI3
Fnan
sI4
Fnan
sI5
Fnan
sI6
Fnan
sI7
Fnan
sI8
Fnan
sI9
Fnan
sI10
Fnan
sI11
Fnan
ssg127
(dp439
I0
S"g'"
p440
sI1
S"g'"
p441
sI2
S"g'"
p442
sI3
S"g'"
p443
sI4
S"g'"
p444
sI5
S"g'"
p445
sI6
S"g'"
p446
sI7
S"g'"
p447
sI8
S"g'"
p448
sI9
S"g'"
p449
sI10
S"g'"
p450
sI11
S"g'"
p451
ssg144
(dp452
I0
F0.0038624874512269173
sI1
Fnan
sI2
Fnan
sI3
Fnan
sI4
Fnan
sI5
Fnan
sI6
Fnan
sI7
Fnan
sI8
Fnan
sI9
Fnan
sI10
Fnan
sI11
Fnan
ssg146
(dp453
I0
F-3.793734
sI1
F1.72245
sI2
F3.479581
sI3
F3.365972
sI4
F2.519735
sI5
F3.50373
sI6
F3.536389
sI7
F4.488765
sI8
F1.706856
sI9
F3.206524
sI10
F4.55948
sI11
F4.059393
ssg148
(dp454
I0
F1.5150789186533666
sI1
Fnan
sI2
Fnan
sI3
Fnan
sI4
Fnan
sI5
Fnan
sI6
Fnan
sI7
Fnan
sI8
Fnan
sI9
Fnan
sI10
Fnan
sI11
Fnan
ssg150
(dp455
I0
F2458436.6206307868
sI1
Fnan
sI2
Fnan
sI3
Fnan
sI4
Fnan
sI5
Fnan
sI6
Fnan
sI7
Fnan
sI8
Fnan
sI9
Fnan
sI10
Fnan
sI11
Fnan
ssg152
(dp456
I0
F0.0038624874512269173
sI1
Fnan
sI2
Fnan
sI3
Fnan
sI4
Fnan
sI5
Fnan
sI6
Fnan
sI7
Fnan
sI8
Fnan
sI9
Fnan
sI10
Fnan
sI11
Fnan
ssg154
(dp457
I0
F8.188159
sI1
F10.75677
sI2
F8.445704
sI3
F7.622918
sI4
F7.081523
sI5
F7.608942
sI6
F11.36662
sI7
F8.602471
sI8
F8.391863
sI9
F8.655674
sI10
F8.122281
sI11
F7.746038
ssg156
(dp458
I0
F11.298
sI1
F11.461
sI2
F11.203
sI3
F11.278
sI4
F11.308
sI5
F11.191
sI6
F11.457
sI7
F11.212
sI8
F11.365
sI9
F11.351
sI10
F11.18
sI11
F11.126
ssg158
(dp459
I0
F0.8675301200373077
sI1
Fnan
sI2
Fnan
sI3
Fnan
sI4
Fnan
sI5
Fnan
sI6
Fnan
sI7
Fnan
sI8
Fnan
sI9
Fnan
sI10
Fnan
sI11
Fnan
sssS'V'
p460
(dp461
g3
(dp462
I0
F0.693082194033759
sI1
Fnan
sI2
Fnan
sI3
Fnan
sI4
Fnan
sI5
Fnan
sI6
Fnan
sI7
Fnan
sI8
Fnan
sI9
Fnan
sI10
Fnan
sI11
Fnan
sI12
Fnan
sI13
Fnan
sI14
Fnan
ssg5
(dp463
I0
S'NoError'
p464
sI1
S'NoError'
p465
sI2
S'NoError'
p466
sI3
S'NoError'
p467
sI4
S'NoError'
p468
sI5
S'NoError'
p469
sI6
S'NoError'
p470
sI7
S'NoError'
p471
sI8
S'NoError'
p472
sI9
S'NoError'
p473
sI10
S'NoError'
p474
sI11
S'NoError'
p475
sI12
S'NoError'
p476
sI13
S'NoError'
p477
sI14
S'NoError'
p478
ssg22
(dp479
I0
F0.002
sI1
F0.002
sI2
F0.003
sI3
F0.003
sI4
F0.002
sI5
F0.003
sI6
F0.002
sI7
F0.003
sI8
F0.003
sI9
F0.003
sI10
F0.003
sI11
F0.002
sI12
F0.003
sI13
F0.003
sI14
F0.003
ssg24
(dp480
I0
F0.8837740354517166
sI1
F0.885132905036283
sI2
F0.8899363742344722
sI3
F0.8855264547996978
sI4
F0.8854155898221077
sI5
F0.8815511984530985
sI6
F0.8860040301301352
sI7
F0.8868325081931367
sI8
F0.8832811010169516
sI9
F0.8825165203257337
sI10
F0.8883753810101821
sI11
F0.8872740849622959
sI12
F0.8848963830711949
sI13
F0.8833438363131938
sI14
F0.8864925009726967
ssg26
(dp481
I0
F0.0022576313031805032
sI1
Fnan
sI2
Fnan
sI3
Fnan
sI4
Fnan
sI5
Fnan
sI6
Fnan
sI7
Fnan
sI8
Fnan
sI9
Fnan
sI10
Fnan
sI11
Fnan
sI12
Fnan
sI13
Fnan
sI14
Fnan
ssg28
(dp482
I0
F0.8853568602528596
sI1
Fnan
sI2
Fnan
sI3
Fnan
sI4
Fnan
sI5
Fnan
sI6
Fnan
sI7
Fnan
sI8
Fnan
sI9
Fnan
sI10
Fnan
sI11
Fnan
sI12
Fnan
sI13
Fnan
sI14
Fnan
ssg30
(dp483
I0
F11.492
sI1
F11.474
sI2
F11.676
sI3
F11.629
sI4
F11.493
sI5
F11.604
sI6
F11.471
sI7
F11.763
sI8
F11.785
sI9
F11.6
sI10
F11.756
sI11
F11.462
sI12
F11.64
sI13
F11.63
sI14
F11.763
ssg32
(dp484
I0
F6.815598
sI1
F7.737484
sI2
F7.382032
sI3
F8.111289
sI4
F5.940876
sI5
F7.65768
sI6
F5.722973
sI7
F6.673629
sI8
F7.1374
sI9
F7.72519
sI10
F7.160562
sI11
F6.602458
sI12
F8.022626
sI13
F8.662196
sI14
F7.625815
ssg34
(dp485
I0
F2458436.656423611
sI1
F2458436.654155093
sI2
F2458436.611863426
sI3
F2458436.6359953703
sI4
F2458436.655659722
sI5
F2458436.633738426
sI6
F2458436.6571875
sI7
F2458436.613368056
sI8
F2458436.6141203702
sI9
F2458436.6344791665
sI10
F2458436.612627315
sI11
F2458436.6549074072
sI12
F2458436.632986111
sI13
F2458436.6352430554
sI14
F2458436.614872685
ssg36
(dp486
I0
F0.9168968
sI1
Fnan
sI2
Fnan
sI3
Fnan
sI4
Fnan
sI5
Fnan
sI6
Fnan
sI7
Fnan
sI8
Fnan
sI9
Fnan
sI10
Fnan
sI11
Fnan
sI12
Fnan
sI13
Fnan
sI14
Fnan
ssg38
(dp487
I0
F2.3542074666666664
sI1
Fnan
sI2
Fnan
sI3
Fnan
sI4
Fnan
sI5
Fnan
sI6
Fnan
sI7
Fnan
sI8
Fnan
sI9
Fnan
sI10
Fnan
sI11
Fnan
sI12
Fnan
sI13
Fnan
sI14
Fnan
ssg40
(dp488
I0
F0.6946831945283459
sI1
F0.6935391066121688
sI2
F0.6891373737636064
sI3
F0.6966017750809734
sI4
F0.6917218744243098
sI5
F0.6946498610485481
sI6
F0.6956332974336323
sI7
F0.6877296632870105
sI8
F0.6878265807033834
sI9
F0.6895794154349086
sI10
F0.6887238144079005
sI11
F0.6953382580568519
sI12
F0.6933160640898505
sI13
F0.6937793328274737
sI14
F0.6933651547302982
ssg42
(dp489
I0
F0.0024575273294392456
sI1
Fnan
sI2
Fnan
sI3
Fnan
sI4
Fnan
sI5
Fnan
sI6
Fnan
sI7
Fnan
sI8
Fnan
sI9
Fnan
sI10
Fnan
sI11
Fnan
sI12
Fnan
sI13
Fnan
sI14
Fnan
ssg44
(dp490
I0
F2.1768056
sI1
Fnan
sI2
Fnan
sI3
Fnan
sI4
Fnan
sI5
Fnan
sI6
Fnan
sI7
Fnan
sI8
Fnan
sI9
Fnan
sI10
Fnan
sI11
Fnan
sI12
Fnan
sI13
Fnan
sI14
Fnan
ssg46
(dp491
I0
g464
sI1
g465
sI2
g466
sI3
g467
sI4
g468
sI5
g469
sI6
g470
sI7
g471
sI8
g472
sI9
g473
sI10
g474
sI11
g475
sI12
g476
sI13
g477
sI14
g478
ssg48
(dp492
I0
F0.002534480712651451
sI1
Fnan
sI2
Fnan
sI3
Fnan
sI4
Fnan
sI5
Fnan
sI6
Fnan
sI7
Fnan
sI8
Fnan
sI9
Fnan
sI10
Fnan
sI11
Fnan
sI12
Fnan
sI13
Fnan
sI14
Fnan
ssg50
(dp493
I0
F0.11381802518556931
sI1
Fnan
sI2
Fnan
sI3
Fnan
sI4
Fnan
sI5
Fnan
sI6
Fnan
sI7
Fnan
sI8
Fnan
sI9
Fnan
sI10
Fnan
sI11
Fnan
sI12
Fnan
sI13
Fnan
sI14
Fnan
ssg52
(dp494
I0
F1.9299589333333338
sI1
Fnan
sI2
Fnan
sI3
Fnan
sI4
Fnan
sI5
Fnan
sI6
Fnan
sI7
Fnan
sI8
Fnan
sI9
Fnan
sI10
Fnan
sI11
Fnan
sI12
Fnan
sI13
Fnan
sI14
Fnan
ssg54
(dp495
I0
F1.5034121005166072
sI1
F1.5047207477647744
sI2
F1.5044663551911281
sI3
F1.5028541671808764
sI4
F1.5086955903172015
sI5
F1.5087479127787056
sI6
F1.4986146470077188
sI7
F1.5142494458767182
sI8
F1.5092340392947372
sI9
F1.5087360960379577
sI10
F1.5016113180441815
sI11
F1.5007666688667058
sI12
F1.5054527401202473
sI13
F1.5066220174835177
sI14
F1.5003806194458966
ssg56
(dp496
I0
g464
sI1
g465
sI2
g466
sI3
g467
sI4
g468
sI5
g469
sI6
g470
sI7
g471
sI8
g472
sI9
g473
sI10
g474
sI11
g475
sI12
g476
sI13
g477
sI14
g478
ssg58
(dp497
I0
F6.79491
sI1
F6.813805
sI2
F6.924151
sI3
F8.046592
sI4
F5.564548
sI5
F7.166615
sI6
F7.562558
sI7
F6.530612
sI8
F8.003881
sI9
F7.484927
sI10
F7.152814
sI11
F7.483638
sI12
F8.72151
sI13
F8.856094
sI14
F6.797197
ssg60
(dp498
I0
F10.941666666666668
sI1
Fnan
sI2
Fnan
sI3
Fnan
sI4
Fnan
sI5
Fnan
sI6
Fnan
sI7
Fnan
sI8
Fnan
sI9
Fnan
sI10
Fnan
sI11
Fnan
sI12
Fnan
sI13
Fnan
sI14
Fnan
ssg62
(dp499
I0
F0.7164008651319066
sI1
Fnan
sI2
Fnan
sI3
Fnan
sI4
Fnan
sI5
Fnan
sI6
Fnan
sI7
Fnan
sI8
Fnan
sI9
Fnan
sI10
Fnan
sI11
Fnan
sI12
Fnan
sI13
Fnan
sI14
Fnan
ssg64
(dp500
I0
F2.569819
sI1
F3.354228
sI2
F-2.468998
sI3
F4.166159
sI4
F2.88486
sI5
F4.316772
sI6
F4.080925
sI7
F-1.902716
sI8
F-1.745798
sI9
F3.620456
sI10
F4.479158
sI11
F3.913106
sI12
F3.034298
sI13
F1.07309
sI14
F3.937753
ssg66
(dp501
I0
F11.3066
sI1
Fnan
sI2
Fnan
sI3
Fnan
sI4
Fnan
sI5
Fnan
sI6
Fnan
sI7
Fnan
sI8
Fnan
sI9
Fnan
sI10
Fnan
sI11
Fnan
sI12
Fnan
sI13
Fnan
sI14
Fnan
ssg68
(dp502
I0
g464
sI1
g465
sI2
g466
sI3
g467
sI4
g468
sI5
g469
sI6
g470
sI7
g471
sI8
g472
sI9
g473
sI10
g474
sI11
g475
sI12
g476
sI13
g477
sI14
g478
ssg70
(dp503
I0
F8411.276666666667
sI1
F8577.216666666667
sI2
F7193.536666666667
sI3
F7403.990000000001
sI4
F8450.713333333333
sI5
F7577.15
sI6
F8582.016666666666
sI7
F6637.873333333334
sI8
F6481.466666666666
sI9
F7664.663333333333
sI10
F6677.21
sI11
F8666.04
sI12
F7363.679999999999
sI13
F7412.843333333333
sI14
F6580.8933333333325
ssg72
(dp504
I0
F1.299643
sI1
F1.288989
sI2
F1.136136
sI3
F1.213675
sI4
F1.296062
sI5
F1.205322
sI6
F1.30319
sI7
F1.140293
sI8
F1.142408
sI9
F1.2080959999999998
sI10
F1.138204
sI11
F1.2924930000000001
sI12
F1.202641
sI13
F1.210868
sI14
F1.1445610000000002
ssg74
(dp505
I0
F7256.98
sI1
F7377.176666666666
sI2
F6137.990000000001
sI3
F6371.1900000000005
sI4
F7247.09
sI5
F6540.503333333333
sI6
F7398.266666666666
sI7
F5659.33
sI8
F5576.636666666667
sI9
F6605.25
sI10
F5722.576666666666
sI11
F7444.783333333334
sI12
F6333.1033333333335
sI13
F6387.583333333333
sI14
F5662.306666666667
ssg76
(dp506
I0
F11777.923333333334
sI1
F12003.453333333333
sI2
F10028.416666666666
sI3
F10351.043333333333
sI4
F11841.603333333333
sI5
F10649.99
sI6
F11974.143333333333
sI7
F9310.516666666666
sI8
F9099.25
sI9
F10764.766666666666
sI10
F9309.83
sI11
F12089.293333333333
sI12
F10309.93
sI13
F10396.013333333334
sI14
F9184.730000000001
ssg78
(dp507
I0
F6.457194
sI1
F7.075558
sI2
F7.334502
sI3
F7.581011
sI4
F6.85052
sI5
F7.971001
sI6
F5.276861
sI7
F6.114908
sI8
F7.336963
sI9
F8.175955
sI10
F6.492452
sI11
F6.395863
sI12
F7.534148
sI13
F8.595999
sI14
F6.323941
ssg80
(dp508
I0
F11.348
sI1
F11.33
sI2
F11.53
sI3
F11.489
sI4
F11.35
sI5
F11.461
sI6
F11.327
sI7
F11.618
sI8
F11.634
sI9
F11.45
sI10
F11.606
sI11
F11.32
sI12
F11.496
sI13
F11.487
sI14
F11.618
ssg82
(dp509
I0
F0.002
sI1
F0.002
sI2
F0.002
sI3
F0.002
sI4
F0.002
sI5
F0.002
sI6
F0.002
sI7
F0.002
sI8
F0.002
sI9
F0.002
sI10
F0.002
sI11
F0.002
sI12
F0.002
sI13
F0.002
sI14
F0.002
ssg84
(dp510
I0
F0.6923749844286176
sI1
Fnan
sI2
Fnan
sI3
Fnan
sI4
Fnan
sI5
Fnan
sI6
Fnan
sI7
Fnan
sI8
Fnan
sI9
Fnan
sI10
Fnan
sI11
Fnan
sI12
Fnan
sI13
Fnan
sI14
Fnan
ssg86
(dp511
I0
F11.470933333333333
sI1
Fnan
sI2
Fnan
sI3
Fnan
sI4
Fnan
sI5
Fnan
sI6
Fnan
sI7
Fnan
sI8
Fnan
sI9
Fnan
sI10
Fnan
sI11
Fnan
sI12
Fnan
sI13
Fnan
sI14
Fnan
ssg88
(dp512
I0
F11.188
sI1
F11.167
sI2
F11.358
sI3
F11.326
sI4
F11.183
sI5
F11.301
sI6
F11.166
sI7
F11.445
sI8
F11.471
sI9
F11.289
sI10
F11.439
sI11
F11.155
sI12
F11.332
sI13
F11.325
sI14
F11.454
ssg90
(dp513
I0
F2.226871
sI1
F3.5689
sI2
F-2.328007
sI3
F-3.357597
sI4
F-2.067374
sI5
F4.430851
sI6
F-3.182348
sI7
F3.646904
sI8
F-1.572356
sI9
F-2.151184
sI10
F2.653175
sI11
F2.351645
sI12
F3.323802
sI13
F3.795416
sI14
F2.414754
ssg92
(dp514
I0
F0.11365528500480651
sI1
Fnan
sI2
Fnan
sI3
Fnan
sI4
Fnan
sI5
Fnan
sI6
Fnan
sI7
Fnan
sI8
Fnan
sI9
Fnan
sI10
Fnan
sI11
Fnan
sI12
Fnan
sI13
Fnan
sI14
Fnan
ssg94
(dp515
I0
F0.7188972321835436
sI1
F0.7169034503411859
sI2
F0.7128099677427223
sI3
F0.717677053079784
sI4
F0.714269358106804
sI5
F0.7176664395328431
sI6
F0.7198101850410452
sI7
F0.7097054937833851
sI8
F0.7158382744482229
sI9
F0.716815441389126
sI10
F0.7159019639241118
sI11
F0.7173850897761218
sI12
F0.7166734281602155
sI13
F0.717349064332597
sI14
F0.7183105351368918
ssg96
(dp516
I0
F30.0
sI1
F30.0
sI2
F30.0
sI3
F30.0
sI4
F30.0
sI5
F30.0
sI6
F30.0
sI7
F30.0
sI8
F30.0
sI9
F30.0
sI10
F30.0
sI11
F30.0
sI12
F30.0
sI13
F30.0
sI14
F30.0
ssg98
(dp517
I0
F0.002
sI1
F0.002
sI2
F0.002
sI3
F0.002
sI4
F0.002
sI5
F0.002
sI6
F0.002
sI7
F0.003
sI8
F0.003
sI9
F0.002
sI10
F0.003
sI11
F0.002
sI12
F0.002
sI13
F0.002
sI14
F0.003
ssg100
(dp518
I0
F0.002
sI1
F0.002
sI2
F0.002
sI3
F0.002
sI4
F0.002
sI5
F0.002
sI6
F0.002
sI7
F0.002
sI8
F0.002
sI9
F0.002
sI10
F0.002
sI11
F0.002
sI12
F0.002
sI13
F0.002
sI14
F0.002
ssg102
(dp519
I0
F4.080625
sI1
F3.635778
sI2
F2.691841
sI3
F2.887285
sI4
F3.679231
sI5
F4.284355
sI6
F-2.16521
sI7
F4.375269
sI8
F-3.583132
sI9
F3.515933
sI10
F2.87912
sI11
F2.085063
sI12
F-1.811273
sI13
F-2.064692
sI14
F4.459191
ssg104
(dp520
I0
S'KIC8462852-20181114at034515_-25-1X1-030-V_cal.fts.mag.1'
p521
sI1
S'KIC8462852-20181114at034151_-25-1X1-030-V_cal.fts.mag.1'
p522
sI2
S'KIC8462852-20181114at024058_-25-1X1-030-V_cal.fts.mag.1'
p523
sI3
S'KIC8462852-20181114at031550_-25-1X1-030-V_cal.fts.mag.1'
p524
sI4
S'KIC8462852-20181114at034409_-25-1X1-030-V_cal.fts.mag.1'
p525
sI5
S'KIC8462852-20181114at031234_-25-1X1-030-V_cal.fts.mag.1'
p526
sI6
S'KIC8462852-20181114at034621_-25-1X1-030-V_cal.fts.mag.1'
p527
sI7
S'KIC8462852-20181114at024315_-25-1X1-030-V_cal.fts.mag.1'
p528
sI8
S'KIC8462852-20181114at024420_-25-1X1-030-V_cal.fts.mag.1'
p529
sI9
S'KIC8462852-20181114at031339_-25-1X1-030-V_cal.fts.mag.1'
p530
sI10
S'KIC8462852-20181114at024211_-25-1X1-030-V_cal.fts.mag.1'
p531
sI11
S'KIC8462852-20181114at034304_-25-1X1-030-V_cal.fts.mag.1'
p532
sI12
S'KIC8462852-20181114at031123_-25-1X1-030-V_cal.fts.mag.1'
p533
sI13
S'KIC8462852-20181114at031445_-25-1X1-030-V_cal.fts.mag.1'
p534
sI14
S'KIC8462852-20181114at024525_-25-1X1-030-V_cal.fts.mag.1'
p535
ssg121
(dp536
I0
F0.0041929815947234755
sI1
Fnan
sI2
Fnan
sI3
Fnan
sI4
Fnan
sI5
Fnan
sI6
Fnan
sI7
Fnan
sI8
Fnan
sI9
Fnan
sI10
Fnan
sI11
Fnan
sI12
Fnan
sI13
Fnan
sI14
Fnan
ssg123
(dp537
I0
F6355.466666666666
sI1
F6463.286666666667
sI2
F5366.070000000001
sI3
F5602.123333333334
sI4
F6349.87
sI5
F5734.946666666667
sI6
F6482.009999999999
sI7
F4953.423333333334
sI8
F4850.863333333333
sI9
F5754.466666666666
sI10
F4983.9766666666665
sI11
F6536.206666666667
sI12
F5548.08
sI13
F5595.663333333333
sI14
F4952.46
ssg125
(dp538
I0
F0.1153958817454485
sI1
Fnan
sI2
Fnan
sI3
Fnan
sI4
Fnan
sI5
Fnan
sI6
Fnan
sI7
Fnan
sI8
Fnan
sI9
Fnan
sI10
Fnan
sI11
Fnan
sI12
Fnan
sI13
Fnan
sI14
Fnan
ssg127
(dp539
I0
g460
sI1
g460
sI2
g460
sI3
g460
sI4
g460
sI5
g460
sI6
g460
sI7
g460
sI8
g460
sI9
g460
sI10
g460
sI11
g460
sI12
g460
sI13
g460
sI14
g460
ssg144
(dp540
I0
F0.003015218577287482
sI1
Fnan
sI2
Fnan
sI3
Fnan
sI4
Fnan
sI5
Fnan
sI6
Fnan
sI7
Fnan
sI8
Fnan
sI9
Fnan
sI10
Fnan
sI11
Fnan
sI12
Fnan
sI13
Fnan
sI14
Fnan
ssg146
(dp541
I0
F3.004861
sI1
F2.969042
sI2
F3.619598
sI3
F1.034995
sI4
F3.782417
sI5
F2.593899
sI6
F3.126257
sI7
F1.720979
sI8
F2.926589
sI9
F2.830212
sI10
F1.929564
sI11
F2.405986
sI12
F2.805419
sI13
F1.697494
sI14
F-3.795228
ssg148
(dp542
I0
F1.5052376310617983
sI1
Fnan
sI2
Fnan
sI3
Fnan
sI4
Fnan
sI5
Fnan
sI6
Fnan
sI7
Fnan
sI8
Fnan
sI9
Fnan
sI10
Fnan
sI11
Fnan
sI12
Fnan
sI13
Fnan
sI14
Fnan
ssg150
(dp543
I0
F2458436.6344791665
sI1
Fnan
sI2
Fnan
sI3
Fnan
sI4
Fnan
sI5
Fnan
sI6
Fnan
sI7
Fnan
sI8
Fnan
sI9
Fnan
sI10
Fnan
sI11
Fnan
sI12
Fnan
sI13
Fnan
sI14
Fnan
ssg152
(dp544
I0
F0.003015218577287482
sI1
Fnan
sI2
Fnan
sI3
Fnan
sI4
Fnan
sI5
Fnan
sI6
Fnan
sI7
Fnan
sI8
Fnan
sI9
Fnan
sI10
Fnan
sI11
Fnan
sI12
Fnan
sI13
Fnan
sI14
Fnan
ssg154
(dp545
I0
F7.768651
sI1
F7.392283
sI2
F8.732323
sI3
F9.117452
sI4
F7.564648
sI5
F8.849096
sI6
F8.04331
sI7
F7.008801
sI8
F8.279019
sI9
F8.853078
sI10
F7.758365
sI11
F7.476086
sI12
F9.63753
sI13
F7.941841
sI14
F8.646924
ssg156
(dp546
I0
F10.822
sI1
F10.802
sI2
F10.997
sI3
F10.963
sI4
F10.816
sI5
F10.932
sI6
F10.804
sI7
F11.078
sI8
F11.102
sI9
F10.92
sI10
F11.078
sI11
F10.794
sI12
F10.967
sI13
F10.958
sI14
F11.092
ssg158
(dp547
I0
F0.6923749844286176
sI1
Fnan
sI2
Fnan
sI3
Fnan
sI4
Fnan
sI5
Fnan
sI6
Fnan
sI7
Fnan
sI8
Fnan
sI9
Fnan
sI10
Fnan
sI11
Fnan
sI12
Fnan
sI13
Fnan
sI14
Fnan
sss.