(dp0
S'i'
p1
(dp2
S'sigmean'
p3
(dp4
I0
F0.44120057383039113
sI1
Fnan
sI2
Fnan
sI3
Fnan
sI4
Fnan
sI5
Fnan
sI6
Fnan
sI7
Fnan
sI8
Fnan
sI9
Fnan
sI10
Fnan
sI11
Fnan
sI12
Fnan
sI13
Fnan
sI14
Fnan
ssS'ref3flag'
p5
(dp6
I0
S'NoError'
p7
sI1
S'NoError'
p8
sI2
S'NoError'
p9
sI3
S'NoError'
p10
sI4
S'NoError'
p11
sI5
S'NoError'
p12
sI6
S'NoError'
p13
sI7
S'NoError'
p14
sI8
S'NoError'
p15
sI9
S'NoError'
p16
sI10
S'NoError'
p17
sI11
S'NoError'
p18
sI12
S'NoError'
p19
sI13
S'NoError'
p20
sI14
S'NoError'
p21
ssS'tabbyerr'
p22
(dp23
I0
F0.003
sI1
F0.003
sI2
F0.003
sI3
F0.003
sI4
F0.003
sI5
F0.003
sI6
F0.003
sI7
F0.003
sI8
F0.003
sI9
F0.003
sI10
F0.003
sI11
F0.003
sI12
F0.003
sI13
F0.003
sI14
F0.003
ssS'ref2rel'
p24
(dp25
I0
F0.9103168859608005
sI1
F0.9132101877618631
sI2
F0.9104479682190132
sI3
F0.9101597331815053
sI4
F0.9085396047717242
sI5
F0.9111286586537191
sI6
F0.9144006701853145
sI7
F0.9150429217860993
sI8
F0.9104452886678378
sI9
F0.9106723584576065
sI10
F0.9094580418322242
sI11
F0.9140573749186177
sI12
F0.910235014409665
sI13
F0.9083628250387624
sI14
F0.9085364017744234
ssS'ref2err'
p26
(dp27
I0
F0.0021727478023957298
sI1
Fnan
sI2
Fnan
sI3
Fnan
sI4
Fnan
sI5
Fnan
sI6
Fnan
sI7
Fnan
sI8
Fnan
sI9
Fnan
sI10
Fnan
sI11
Fnan
sI12
Fnan
sI13
Fnan
sI14
Fnan
ssS'ref2mean'
p28
(dp29
I0
F0.9110009290412785
sI1
Fnan
sI2
Fnan
sI3
Fnan
sI4
Fnan
sI5
Fnan
sI6
Fnan
sI7
Fnan
sI8
Fnan
sI9
Fnan
sI10
Fnan
sI11
Fnan
sI12
Fnan
sI13
Fnan
sI14
Fnan
ssS'tabbymag'
p30
(dp31
I0
F11.848
sI1
F11.848
sI2
F11.848
sI3
F11.843
sI4
F11.879
sI5
F11.825
sI6
F11.833
sI7
F11.831
sI8
F11.84
sI9
F11.848
sI10
F11.822
sI11
F11.839
sI12
F11.838
sI13
F11.901
sI14
F11.859
ssS'tabbybkg'
p32
(dp33
I0
F31.92714
sI1
F29.16417
sI2
F27.96017
sI3
F27.72226
sI4
F28.60291
sI5
F28.99586
sI6
F28.77383
sI7
F29.52928
sI8
F31.39982
sI9
F28.14183
sI10
F29.32449
sI11
F29.71158
sI12
F29.59028
sI13
F31.57596
sI14
F30.99313
ssS'JD'
p34
(dp35
I0
F2458354.7297685184
sI1
F2458354.709826389
sI2
F2458354.712037037
sI3
F2458354.711296296
sI4
F2458354.71056713
sI5
F2458354.6933449074
sI6
F2458354.691134259
sI7
F2458354.691875
sI8
F2458354.73125
sI9
F2458354.7090972224
sI10
F2458354.6926041665
sI11
F2458354.728287037
sI12
F2458354.6904050927
sI13
F2458354.729027778
sI14
F2458354.7305092593
ssS'ref3rmsmean'
p36
(dp37
I0
F2.291996666666667
sI1
Fnan
sI2
Fnan
sI3
Fnan
sI4
Fnan
sI5
Fnan
sI6
Fnan
sI7
Fnan
sI8
Fnan
sI9
Fnan
sI10
Fnan
sI11
Fnan
sI12
Fnan
sI13
Fnan
sI14
Fnan
ssS'ref1rmsmean'
p38
(dp39
I0
F2.349492066666667
sI1
Fnan
sI2
Fnan
sI3
Fnan
sI4
Fnan
sI5
Fnan
sI6
Fnan
sI7
Fnan
sI8
Fnan
sI9
Fnan
sI10
Fnan
sI11
Fnan
sI12
Fnan
sI13
Fnan
sI14
Fnan
ssS'relflux'
p40
(dp41
I0
F0.4424012384212061
sI1
F0.4412074119015679
sI2
F0.4414211528124609
sI3
F0.4400055913370418
sI4
F0.44039413416481765
sI5
F0.441818682919531
sI6
F0.4422827128809607
sI7
F0.4401444041954892
sI8
F0.4420589871167414
sI9
F0.4432428897657714
sI10
F0.4441239319275622
sI11
F0.4410882561976021
sI12
F0.4395321378589641
sI13
F0.4382206108165236
sI14
F0.4400098602229291
ssS'sigerr'
p42
(dp43
I0
F0.001086958493115036
sI1
Fnan
sI2
Fnan
sI3
Fnan
sI4
Fnan
sI5
Fnan
sI6
Fnan
sI7
Fnan
sI8
Fnan
sI9
Fnan
sI10
Fnan
sI11
Fnan
sI12
Fnan
sI13
Fnan
sI14
Fnan
ssS'tabbyrmsmean'
p44
(dp45
I0
F1.5840500666666666
sI1
Fnan
sI2
Fnan
sI3
Fnan
sI4
Fnan
sI5
Fnan
sI6
Fnan
sI7
Fnan
sI8
Fnan
sI9
Fnan
sI10
Fnan
sI11
Fnan
sI12
Fnan
sI13
Fnan
sI14
Fnan
ssS'tabbyflag'
p46
(dp47
I0
g7
sI1
g8
sI2
g9
sI3
g10
sI4
g11
sI5
g12
sI6
g13
sI7
g14
sI8
g15
sI9
g16
sI10
g17
sI11
g18
sI12
g19
sI13
g20
sI14
g21
ssS'ref1err'
p48
(dp49
I0
F0.0021403993119444146
sI1
Fnan
sI2
Fnan
sI3
Fnan
sI4
Fnan
sI5
Fnan
sI6
Fnan
sI7
Fnan
sI8
Fnan
sI9
Fnan
sI10
Fnan
sI11
Fnan
sI12
Fnan
sI13
Fnan
sI14
Fnan
ssS'ref2magmeanerr'
p50
(dp51
I0
F0.019353847900906645
sI1
Fnan
sI2
Fnan
sI3
Fnan
sI4
Fnan
sI5
Fnan
sI6
Fnan
sI7
Fnan
sI8
Fnan
sI9
Fnan
sI10
Fnan
sI11
Fnan
sI12
Fnan
sI13
Fnan
sI14
Fnan
ssS'ref2rmsmean'
p52
(dp53
I0
F0.8530550666666664
sI1
Fnan
sI2
Fnan
sI3
Fnan
sI4
Fnan
sI5
Fnan
sI6
Fnan
sI7
Fnan
sI8
Fnan
sI9
Fnan
sI10
Fnan
sI11
Fnan
sI12
Fnan
sI13
Fnan
sI14
Fnan
ssS'ref3rel'
p54
(dp55
I0
F1.4977411956012512
sI1
F1.494692496212934
sI2
F1.4994116940494246
sI3
F1.5001379419140835
sI4
F1.5046858524305686
sI5
F1.4969635320948078
sI6
F1.4989192504531519
sI7
F1.493014509364882
sI8
F1.4955408450478782
sI9
F1.4999618856747166
sI10
F1.4913623738478081
sI11
F1.4918026039747063
sI12
F1.4940337142962647
sI13
F1.5054331783271075
sI14
F1.500159653608285
ssS'ref1flag'
p56
(dp57
I0
g7
sI1
g8
sI2
g9
sI3
g10
sI4
g11
sI5
g12
sI6
g13
sI7
g14
sI8
g15
sI9
g16
sI10
g17
sI11
g18
sI12
g19
sI13
g20
sI14
g21
ssS'ref2bkg'
p58
(dp59
I0
F32.9037
sI1
F30.66566
sI2
F30.18413
sI3
F29.2613
sI4
F31.84536
sI5
F31.2557
sI6
F31.36709
sI7
F31.34769
sI8
F33.50687
sI9
F30.19954
sI10
F31.30189
sI11
F32.66378
sI12
F31.59338
sI13
F34.86605
sI14
F33.54445
ssS'ref3magmean'
p60
(dp61
I0
F10.686666666666667
sI1
Fnan
sI2
Fnan
sI3
Fnan
sI4
Fnan
sI5
Fnan
sI6
Fnan
sI7
Fnan
sI8
Fnan
sI9
Fnan
sI10
Fnan
sI11
Fnan
sI12
Fnan
sI13
Fnan
sI14
Fnan
ssS'ref1mean'
p62
(dp63
I0
F0.6985916709015579
sI1
Fnan
sI2
Fnan
sI3
Fnan
sI4
Fnan
sI5
Fnan
sI6
Fnan
sI7
Fnan
sI8
Fnan
sI9
Fnan
sI10
Fnan
sI11
Fnan
sI12
Fnan
sI13
Fnan
sI14
Fnan
ssS'ref1rms'
p64
(dp65
I0
F4.437787
sI1
F-1.169281
sI2
F-1.393077
sI3
F-1.566677
sI4
F1.185067
sI5
F2.748122
sI6
F3.794033
sI7
F3.153359
sI8
F3.792858
sI9
F2.027692
sI10
F4.56354
sI11
F3.376461
sI12
F3.320859
sI13
F2.571314
sI14
F4.400324
ssS'ref2magmean'
p66
(dp67
I0
F11.027
sI1
Fnan
sI2
Fnan
sI3
Fnan
sI4
Fnan
sI5
Fnan
sI6
Fnan
sI7
Fnan
sI8
Fnan
sI9
Fnan
sI10
Fnan
sI11
Fnan
sI12
Fnan
sI13
Fnan
sI14
Fnan
ssS'ref2flag'
p68
(dp69
I0
g7
sI1
g8
sI2
g9
sI3
g10
sI4
g11
sI5
g12
sI6
g13
sI7
g14
sI8
g15
sI9
g16
sI10
g17
sI11
g18
sI12
g19
sI13
g20
sI14
g21
ssS'ref2'
p70
(dp71
I0
F9710.859999999999
sI1
F9761.693333333333
sI2
F9736.353333333333
sI3
F9807.303333333333
sI4
F9470.403333333332
sI5
F9936.606666666667
sI6
F9880.073333333334
sI7
F9952.17
sI8
F9791.846666666668
sI9
F9696.56
sI10
F9899.006666666666
sI11
F9846.396666666667
sI12
F9864.793333333333
sI13
F9321.893333333333
sI14
F9655.973333333333
ssS'airmass'
p72
(dp73
I0
F1.004665
sI1
F1.009808
sI2
F1.008802
sI3
F1.009125
sI4
F1.00946
sI5
F1.020859
sI6
F1.022824
sI7
F1.022155
sI8
F1.004637
sI9
F1.010168
sI10
F1.021495
sI11
F1.004743
sI12
F1.023501
sI13
F1.004699
sI14
F1.004645
ssS'ref1'
p74
(dp75
I0
F8041.156666666667
sI1
F8059.929999999999
sI2
F8052.009999999999
sI3
F8110.866666666667
sI4
F7830.966666666666
sI5
F8221.003333333334
sI6
F8119.78
sI7
F8200.933333333332
sI8
F8117.75
sI9
F8013.316666666667
sI10
F8241.78
sI11
F8133.296666666666
sI12
F8188.873333333334
sI13
F7706.8133333333335
sI14
F8007.266666666666
ssS'ref3'
p76
(dp77
I0
F13293.963333333335
sI1
F13318.923333333334
sI2
F13336.04
sI3
F13439.863333333335
sI4
F13016.563333333334
sI5
F13590.640000000001
sI6
F13490.163333333334
sI7
F13551.423333333334
sI8
F13392.266666666666
sI9
F13282.07
sI10
F13527.243333333334
sI11
F13411.076666666666
sI12
F13486.393333333333
sI13
F12817.79
sI14
F13248.84
ssS'ref1bkg'
p78
(dp79
I0
F31.72546
sI1
F29.33255
sI2
F29.23833
sI3
F28.8759
sI4
F30.52826
sI5
F30.82338
sI6
F30.29229
sI7
F31.13584
sI8
F32.04689
sI9
F29.71738
sI10
F30.08334
sI11
F31.37871
sI12
F29.29995
sI13
F33.40873
sI14
F32.60741
ssS'ref1mag'
p80
(dp81
I0
F11.237
sI1
F11.234
sI2
F11.235
sI3
F11.227
sI4
F11.265
sI5
F11.213
sI6
F11.226
sI7
F11.215
sI8
F11.226
sI9
F11.24
sI10
F11.21
sI11
F11.224
sI12
F11.217
sI13
F11.283
sI14
F11.241
ssS'ref3magerr'
p82
(dp83
I0
F0.002
sI1
F0.002
sI2
F0.002
sI3
F0.002
sI4
F0.002
sI5
F0.002
sI6
F0.002
sI7
F0.002
sI8
F0.002
sI9
F0.002
sI10
F0.002
sI11
F0.002
sI12
F0.002
sI13
F0.002
sI14
F0.002
ssS'tabbymagmean'
p84
(dp85
I0
F0.44119680016927804
sI1
Fnan
sI2
Fnan
sI3
Fnan
sI4
Fnan
sI5
Fnan
sI6
Fnan
sI7
Fnan
sI8
Fnan
sI9
Fnan
sI10
Fnan
sI11
Fnan
sI12
Fnan
sI13
Fnan
sI14
Fnan
ssS'ref1magmean'
p86
(dp87
I0
F11.232866666666666
sI1
Fnan
sI2
Fnan
sI3
Fnan
sI4
Fnan
sI5
Fnan
sI6
Fnan
sI7
Fnan
sI8
Fnan
sI9
Fnan
sI10
Fnan
sI11
Fnan
sI12
Fnan
sI13
Fnan
sI14
Fnan
ssS'ref2mag'
p88
(dp89
I0
F11.032
sI1
F11.026
sI2
F11.029
sI3
F11.021
sI4
F11.059
sI5
F11.007
sI6
F11.013
sI7
F11.005
sI8
F11.023
sI9
F11.033
sI10
F11.011
sI11
F11.017
sI12
F11.015
sI13
F11.076
sI14
F11.038
ssS'ref3rms'
p90
(dp91
I0
F3.433334
sI1
F-2.16649
sI2
F3.65158
sI3
F2.296946
sI4
F3.59927
sI5
F3.662249
sI6
F4.114489
sI7
F2.650774
sI8
F-3.380548
sI9
F2.871083
sI10
F3.404526
sI11
F2.249827
sI12
F1.282177
sI13
F2.419799
sI14
F4.290934
ssS'ref3magmeanerr'
p92
(dp93
I0
F0.016910126580022507
sI1
Fnan
sI2
Fnan
sI3
Fnan
sI4
Fnan
sI5
Fnan
sI6
Fnan
sI7
Fnan
sI8
Fnan
sI9
Fnan
sI10
Fnan
sI11
Fnan
sI12
Fnan
sI13
Fnan
sI14
Fnan
ssS'ref1rel'
p94
(dp95
I0
F0.6990844093999418
sI1
F0.6984154813887843
sI2
F0.6979778719676242
sI3
F0.697793996400995
sI4
F0.6964893738447011
sI5
F0.6988495891430277
sI6
F0.6948821371228446
sI7
F0.6978450670947052
sI8
F0.7002855691124122
sI9
F0.6974581745444935
sI10
F0.7036363054266048
sI11
F0.6994136078410351
sI12
F0.7013667827873415
sI13
F0.6961990573487576
sI14
F0.6991776401001013
ssS'exposure'
p96
(dp97
I0
F30.0
sI1
F30.0
sI2
F30.0
sI3
F30.0
sI4
F30.0
sI5
F30.0
sI6
F30.0
sI7
F30.0
sI8
F30.0
sI9
F30.0
sI10
F30.0
sI11
F30.0
sI12
F30.0
sI13
F30.0
sI14
F30.0
ssS'ref1magerr'
p98
(dp99
I0
F0.002
sI1
F0.002
sI2
F0.002
sI3
F0.002
sI4
F0.002
sI5
F0.002
sI6
F0.002
sI7
F0.002
sI8
F0.002
sI9
F0.002
sI10
F0.002
sI11
F0.002
sI12
F0.002
sI13
F0.002
sI14
F0.002
ssS'ref2magerr'
p100
(dp101
I0
F0.002
sI1
F0.002
sI2
F0.002
sI3
F0.002
sI4
F0.002
sI5
F0.002
sI6
F0.002
sI7
F0.002
sI8
F0.002
sI9
F0.002
sI10
F0.002
sI11
F0.002
sI12
F0.002
sI13
F0.002
sI14
F0.002
ssS'ref2rms'
p102
(dp103
I0
F2.591578
sI1
F3.698857
sI2
F4.265978
sI3
F2.92211
sI4
F-1.735251
sI5
F-1.078843
sI6
F1.791054
sI7
F-3.795363
sI8
F-3.073904
sI9
F2.71404
sI10
F3.966375
sI11
F-3.823216
sI12
F3.370118
sI13
F-2.81837
sI14
F3.800663
ssS'name'
p104
(dp105
I0
S"KIC8462852-20180824at053052_-25-1X1-030-i'_cal.fts.mag.1"
p106
sI1
S"KIC8462852-20180824at050209_-25-1X1-030-i'_cal.fts.mag.1"
p107
sI2
S"KIC8462852-20180824at050520_-25-1X1-030-i'_cal.fts.mag.1"
p108
sI3
S"KIC8462852-20180824at050416_-25-1X1-030-i'_cal.fts.mag.1"
p109
sI4
S"KIC8462852-20180824at050313_-25-1X1-030-i'_cal.fts.mag.1"
p110
sI5
S"KIC8462852-20180824at043825_-25-1X1-030-i'_cal.fts.mag.1"
p111
sI6
S"KIC8462852-20180824at043514_-25-1X1-030-i'_cal.fts.mag.1"
p112
sI7
S"KIC8462852-20180824at043618_-25-1X1-030-i'_cal.fts.mag.1"
p113
sI8
S"KIC8462852-20180824at053259_-25-1X1-030-i'_cal.fts.mag.1"
p114
sI9
S"KIC8462852-20180824at050104_-25-1X1-030-i'_cal.fts.mag.1"
p115
sI10
S"KIC8462852-20180824at043721_-25-1X1-030-i'_cal.fts.mag.1"
p116
sI11
S"KIC8462852-20180824at052843_-25-1X1-030-i'_cal.fts.mag.1"
p117
sI12
S"KIC8462852-20180824at043409_-25-1X1-030-i'_cal.fts.mag.1"
p118
sI13
S"KIC8462852-20180824at052948_-25-1X1-030-i'_cal.fts.mag.1"
p119
sI14
S"KIC8462852-20180824at053156_-25-1X1-030-i'_cal.fts.mag.1"
p120
ssS'ref3err'
p121
(dp122
I0
F0.004263989201731145
sI1
Fnan
sI2
Fnan
sI3
Fnan
sI4
Fnan
sI5
Fnan
sI6
Fnan
sI7
Fnan
sI8
Fnan
sI9
Fnan
sI10
Fnan
sI11
Fnan
sI12
Fnan
sI13
Fnan
sI14
Fnan
ssS'tabby'
p123
(dp124
I0
F4578.259999999999
sI1
F4579.8133333333335
sI2
F4579.656666666667
sI3
F4599.236666666667
sI4
F4450.613333333333
sI5
F4675.656666666667
sI6
F4642.496666666667
sI7
F4651.5233333333335
sI8
F4612.423333333334
sI9
F4578.986666666667
sI10
F4688.176666666666
sI11
F4615.366666666667
sI12
F4620.956666666667
sI13
F4359.783333333334
sI14
F4533.873333333334
ssS'ref1magmeanerr'
p125
(dp126
I0
F0.01960636437000799
sI1
Fnan
sI2
Fnan
sI3
Fnan
sI4
Fnan
sI5
Fnan
sI6
Fnan
sI7
Fnan
sI8
Fnan
sI9
Fnan
sI10
Fnan
sI11
Fnan
sI12
Fnan
sI13
Fnan
sI14
Fnan
ssS'filter'
p127
(dp128
I0
S"i'"
p129
sI1
S"i'"
p130
sI2
S"i'"
p131
sI3
S"i'"
p132
sI4
S"i'"
p133
sI5
S"i'"
p134
sI6
S"i'"
p135
sI7
S"i'"
p136
sI8
S"i'"
p137
sI9
S"i'"
p138
sI10
S"i'"
p139
sI11
S"i'"
p140
sI12
S"i'"
p141
sI13
S"i'"
p142
sI14
S"i'"
p143
ssS'tabbymagerr'
p144
(dp145
I0
F0.0015302943805349353
sI1
Fnan
sI2
Fnan
sI3
Fnan
sI4
Fnan
sI5
Fnan
sI6
Fnan
sI7
Fnan
sI8
Fnan
sI9
Fnan
sI10
Fnan
sI11
Fnan
sI12
Fnan
sI13
Fnan
sI14
Fnan
ssS'tabbyrms'
p146
(dp147
I0
F3.512409
sI1
F-4.365253
sI2
F2.873587
sI3
F3.334846
sI4
F4.169376
sI5
F2.790665
sI6
F3.694368
sI7
F-3.541721
sI8
F3.13509
sI9
F4.700161
sI10
F-1.478929
sI11
F3.949492
sI12
F1.109133
sI13
F-3.685444
sI14
F3.562971
ssS'ref3mean'
p148
(dp149
I0
F1.4975907151265244
sI1
Fnan
sI2
Fnan
sI3
Fnan
sI4
Fnan
sI5
Fnan
sI6
Fnan
sI7
Fnan
sI8
Fnan
sI9
Fnan
sI10
Fnan
sI11
Fnan
sI12
Fnan
sI13
Fnan
sI14
Fnan
ssS'median_JD'
p150
(dp151
I0
F2458354.71056713
sI1
Fnan
sI2
Fnan
sI3
Fnan
sI4
Fnan
sI5
Fnan
sI6
Fnan
sI7
Fnan
sI8
Fnan
sI9
Fnan
sI10
Fnan
sI11
Fnan
sI12
Fnan
sI13
Fnan
sI14
Fnan
ssS'error'
p152
(dp153
I0
F0.0015302943805349353
sI1
Fnan
sI2
Fnan
sI3
Fnan
sI4
Fnan
sI5
Fnan
sI6
Fnan
sI7
Fnan
sI8
Fnan
sI9
Fnan
sI10
Fnan
sI11
Fnan
sI12
Fnan
sI13
Fnan
sI14
Fnan
ssS'ref3bkg'
p154
(dp155
I0
F34.54716
sI1
F32.88683
sI2
F31.36674
sI3
F31.71284
sI4
F33.57675
sI5
F31.90462
sI6
F32.71225
sI7
F30.86237
sI8
F34.72433
sI9
F32.01207
sI10
F32.50268
sI11
F32.36437
sI12
F33.70591
sI13
F36.3554
sI14
F34.24601
ssS'ref3mag'
p156
(dp157
I0
F10.691
sI1
F10.689
sI2
F10.687
sI3
F10.679
sI4
F10.714
sI5
F10.667
sI6
F10.675
sI7
F10.67
sI8
F10.683
sI9
F10.692
sI10
F10.672
sI11
F10.681
sI12
F10.675
sI13
F10.73
sI14
F10.695
ssS'mean'
p158
(dp159
I0
F0.44119680016927804
sI1
Fnan
sI2
Fnan
sI3
Fnan
sI4
Fnan
sI5
Fnan
sI6
Fnan
sI7
Fnan
sI8
Fnan
sI9
Fnan
sI10
Fnan
sI11
Fnan
sI12
Fnan
sI13
Fnan
sI14
Fnan
sssS'r'
p160
(dp161
g3
(dp162
I0
F0.5511029752709716
sI1
Fnan
sI2
Fnan
sI3
Fnan
sI4
Fnan
sI5
Fnan
sI6
Fnan
sI7
Fnan
sI8
Fnan
sI9
Fnan
sI10
Fnan
sI11
Fnan
sI12
Fnan
sI13
Fnan
sI14
Fnan
ssg5
(dp163
I0
S'NoError'
p164
sI1
S'NoError'
p165
sI2
S'NoError'
p166
sI3
S'NoError'
p167
sI4
S'NoError'
p168
sI5
S'NoError'
p169
sI6
S'NoError'
p170
sI7
S'NoError'
p171
sI8
S'NoError'
p172
sI9
S'NoError'
p173
sI10
S'NoError'
p174
sI11
S'NoError'
p175
sI12
S'NoError'
p176
sI13
S'NoError'
p177
sI14
S'NoError'
p178
ssg22
(dp179
I0
F0.002
sI1
F0.002
sI2
F0.002
sI3
F0.002
sI4
F0.002
sI5
F0.002
sI6
F0.002
sI7
F0.002
sI8
F0.002
sI9
F0.002
sI10
F0.002
sI11
F0.002
sI12
F0.002
sI13
F0.002
sI14
F0.002
ssg24
(dp180
I0
F0.8958898223400543
sI1
F0.898322736047192
sI2
F0.898488101549625
sI3
F0.8888133379439925
sI4
F0.8943164691714508
sI5
F0.8969905818582972
sI6
F0.8973541918678739
sI7
F0.8938676884106076
sI8
F0.8957604600261593
sI9
F0.8963171400916192
sI10
F0.8946868334876512
sI11
F0.8981921833001248
sI12
F0.8932675927165246
sI13
F0.8946837701758172
sI14
F0.8935186898113251
ssg26
(dp181
I0
F0.002527425637307524
sI1
Fnan
sI2
Fnan
sI3
Fnan
sI4
Fnan
sI5
Fnan
sI6
Fnan
sI7
Fnan
sI8
Fnan
sI9
Fnan
sI10
Fnan
sI11
Fnan
sI12
Fnan
sI13
Fnan
sI14
Fnan
ssg28
(dp182
I0
F0.8953646399198877
sI1
Fnan
sI2
Fnan
sI3
Fnan
sI4
Fnan
sI5
Fnan
sI6
Fnan
sI7
Fnan
sI8
Fnan
sI9
Fnan
sI10
Fnan
sI11
Fnan
sI12
Fnan
sI13
Fnan
sI14
Fnan
ssg30
(dp183
I0
F11.124
sI1
F11.11
sI2
F11.125
sI3
F11.138
sI4
F11.117
sI5
F11.124
sI6
F11.171
sI7
F11.15
sI8
F11.128
sI9
F11.13
sI10
F11.12
sI11
F11.124
sI12
F11.119
sI13
F11.111
sI14
F11.14
ssg32
(dp184
I0
F50.67799
sI1
F50.46404
sI2
F52.09349
sI3
F53.03682
sI4
F52.0806
sI5
F51.96539
sI6
F54.8316
sI7
F54.39941
sI8
F53.71375
sI9
F51.77974
sI10
F52.57894
sI11
F53.49511
sI12
F52.67709
sI13
F50.49493
sI14
F51.45697
ssg34
(dp185
I0
F2458354.706875
sI1
F2458354.686701389
sI2
F2458354.7053935183
sI3
F2458354.7245833334
sI4
F2458354.688912037
sI5
F2458354.6896412037
sI6
F2458354.7260532407
sI7
F2458354.727523148
sI8
F2458354.7267939816
sI9
F2458354.6874421295
sI10
F2458354.7083449075
sI11
F2458354.7253125
sI12
F2458354.6881828704
sI13
F2458354.7076041666
sI14
F2458354.7061342592
ssg36
(dp186
I0
F2.7077902
sI1
Fnan
sI2
Fnan
sI3
Fnan
sI4
Fnan
sI5
Fnan
sI6
Fnan
sI7
Fnan
sI8
Fnan
sI9
Fnan
sI10
Fnan
sI11
Fnan
sI12
Fnan
sI13
Fnan
sI14
Fnan
ssg38
(dp187
I0
F2.082758733333333
sI1
Fnan
sI2
Fnan
sI3
Fnan
sI4
Fnan
sI5
Fnan
sI6
Fnan
sI7
Fnan
sI8
Fnan
sI9
Fnan
sI10
Fnan
sI11
Fnan
sI12
Fnan
sI13
Fnan
sI14
Fnan
ssg40
(dp188
I0
F0.5513448599523345
sI1
F0.5541646186715418
sI2
F0.5522962250209821
sI3
F0.5507307714913319
sI4
F0.5493469528568865
sI5
F0.5523597340102514
sI6
F0.5500686553949794
sI7
F0.5498671067530372
sI8
F0.5527792857309259
sI9
F0.5496896942373282
sI10
F0.5491884748322042
sI11
F0.5522332923817459
sI12
F0.5521321653010653
sI13
F0.5522723945563824
sI14
F0.5511320412741477
ssg42
(dp189
I0
F0.0012264659397870877
sI1
Fnan
sI2
Fnan
sI3
Fnan
sI4
Fnan
sI5
Fnan
sI6
Fnan
sI7
Fnan
sI8
Fnan
sI9
Fnan
sI10
Fnan
sI11
Fnan
sI12
Fnan
sI13
Fnan
sI14
Fnan
ssg44
(dp190
I0
F0.6237430666666666
sI1
Fnan
sI2
Fnan
sI3
Fnan
sI4
Fnan
sI5
Fnan
sI6
Fnan
sI7
Fnan
sI8
Fnan
sI9
Fnan
sI10
Fnan
sI11
Fnan
sI12
Fnan
sI13
Fnan
sI14
Fnan
ssg46
(dp191
I0
g164
sI1
g165
sI2
g166
sI3
g167
sI4
g168
sI5
g169
sI6
g170
sI7
g171
sI8
g172
sI9
g173
sI10
g174
sI11
g175
sI12
g176
sI13
g177
sI14
g178
ssg48
(dp192
I0
F0.0019628807733772
sI1
Fnan
sI2
Fnan
sI3
Fnan
sI4
Fnan
sI5
Fnan
sI6
Fnan
sI7
Fnan
sI8
Fnan
sI9
Fnan
sI10
Fnan
sI11
Fnan
sI12
Fnan
sI13
Fnan
sI14
Fnan
ssg50
(dp193
I0
F0.015212150532042702
sI1
Fnan
sI2
Fnan
sI3
Fnan
sI4
Fnan
sI5
Fnan
sI6
Fnan
sI7
Fnan
sI8
Fnan
sI9
Fnan
sI10
Fnan
sI11
Fnan
sI12
Fnan
sI13
Fnan
sI14
Fnan
ssg52
(dp194
I0
F1.9727458000000004
sI1
Fnan
sI2
Fnan
sI3
Fnan
sI4
Fnan
sI5
Fnan
sI6
Fnan
sI7
Fnan
sI8
Fnan
sI9
Fnan
sI10
Fnan
sI11
Fnan
sI12
Fnan
sI13
Fnan
sI14
Fnan
ssg54
(dp195
I0
F1.4877895980125018
sI1
F1.4913147279555297
sI2
F1.4856645132670285
sI3
F1.5012295318730247
sI4
F1.4925379797560034
sI5
F1.494856528647762
sI6
F1.4922960346044902
sI7
F1.4979516274804452
sI8
F1.4909618267040523
sI9
F1.4925461125842348
sI10
F1.491153965992527
sI11
F1.4892619460130507
sI12
F1.5020323617708204
sI13
F1.489355384808937
sI14
F1.492529271260337
ssg56
(dp196
I0
g164
sI1
g165
sI2
g166
sI3
g167
sI4
g168
sI5
g169
sI6
g170
sI7
g171
sI8
g172
sI9
g173
sI10
g174
sI11
g175
sI12
g176
sI13
g177
sI14
g178
ssg58
(dp197
I0
F54.07715
sI1
F53.86648
sI2
F52.74705
sI3
F55.10315
sI4
F53.58688
sI5
F54.04128
sI6
F55.54013
sI7
F56.63953
sI8
F55.80186
sI9
F54.431
sI10
F52.65228
sI11
F55.11168
sI12
F54.7935
sI13
F53.47425
sI14
F54.75932
ssg60
(dp198
I0
F10.212399999999999
sI1
Fnan
sI2
Fnan
sI3
Fnan
sI4
Fnan
sI5
Fnan
sI6
Fnan
sI7
Fnan
sI8
Fnan
sI9
Fnan
sI10
Fnan
sI11
Fnan
sI12
Fnan
sI13
Fnan
sI14
Fnan
ssg62
(dp199
I0
F0.7150791777132776
sI1
Fnan
sI2
Fnan
sI3
Fnan
sI4
Fnan
sI5
Fnan
sI6
Fnan
sI7
Fnan
sI8
Fnan
sI9
Fnan
sI10
Fnan
sI11
Fnan
sI12
Fnan
sI13
Fnan
sI14
Fnan
ssg64
(dp200
I0
F5.011955
sI1
F4.646323
sI2
F3.475506
sI3
F3.448355
sI4
F4.280693
sI5
F4.14365
sI6
F-2.680811
sI7
F2.522103
sI8
F4.447156
sI9
F3.316302
sI10
F-3.722676
sI11
F-3.22914
sI12
F4.420377
sI13
F5.600012
sI14
F-4.438424
ssg66
(dp201
I0
F10.563533333333334
sI1
Fnan
sI2
Fnan
sI3
Fnan
sI4
Fnan
sI5
Fnan
sI6
Fnan
sI7
Fnan
sI8
Fnan
sI9
Fnan
sI10
Fnan
sI11
Fnan
sI12
Fnan
sI13
Fnan
sI14
Fnan
ssg68
(dp202
I0
g164
sI1
g165
sI2
g166
sI3
g167
sI4
g168
sI5
g169
sI6
g170
sI7
g171
sI8
g172
sI9
g173
sI10
g174
sI11
g175
sI12
g176
sI13
g177
sI14
g178
ssg70
(dp203
I0
F15018.656666666668
sI1
F15161.43
sI2
F15003.936666666666
sI3
F14762.173333333334
sI4
F15148.276666666667
sI5
F15007.08
sI6
F14433.436666666666
sI7
F14672.513333333334
sI8
F14916.03
sI9
F14990.58
sI10
F15122.31
sI11
F15017.096666666668
sI12
F15038.326666666666
sI13
F15158.843333333332
sI14
F14771.533333333333
ssg72
(dp204
I0
F1.011332
sI1
F1.0271139999999999
sI2
F1.012162
sI3
F1.0051510000000001
sI4
F1.024917
sI5
F1.02421
sI6
F1.004952
sI7
F1.004802
sI8
F1.004872
sI9
F1.026366
sI10
F1.010549
sI11
F1.005045
sI12
F1.0256319999999999
sI13
F1.0109350000000001
sI14
F1.011741
ssg74
(dp205
I0
F12819.356666666667
sI1
F12860.336666666666
sI2
F12768.17
sI3
F12645.276666666667
sI4
F12925.890000000001
sI5
F12729.7
sI6
F12255.2
sI7
F12487.26
sI8
F12709.390000000001
sI9
F12748.413333333334
sI10
F12906.823333333334
sI11
F12757.023333333334
sI12
F12779.063333333334
sI13
F12952.553333333333
sI14
F12621.376666666667
ssg76
(dp206
I0
F20708.553333333333
sI1
F20894.636666666665
sI2
F20630.016666666666
sI3
F20572.436666666665
sI4
F20950.88
sI5
F20731.253333333334
sI6
F19913.673333333332
sI7
F20342.013333333332
sI8
F20594.22333333333
sI9
F20700.863333333335
sI10
F20897.876666666667
sI11
F20681.469999999998
sI12
F20891.31
sI13
F20933.93
sI14
F20442.36
ssg78
(dp207
I0
F52.56455
sI1
F52.83334
sI2
F51.56868
sI3
F55.19969
sI4
F52.62106
sI5
F54.14804
sI6
F56.52988
sI7
F56.26288
sI8
F54.95672
sI9
F53.64164
sI10
F53.3871
sI11
F56.15345
sI12
F54.13163
sI13
F50.77636
sI14
F53.96861
ssg80
(dp208
I0
F10.73
sI1
F10.727
sI2
F10.735
sI3
F10.745
sI4
F10.721
sI5
F10.738
sI6
F10.779
sI7
F10.759
sI8
F10.74
sI9
F10.736
sI10
F10.723
sI11
F10.736
sI12
F10.734
sI13
F10.719
sI14
F10.747
ssg82
(dp209
I0
F0.001
sI1
F0.001
sI2
F0.001
sI3
F0.001
sI4
F0.001
sI5
F0.001
sI6
F0.001
sI7
F0.001
sI8
F0.001
sI9
F0.001
sI10
F0.001
sI11
F0.001
sI12
F0.001
sI13
F0.001
sI14
F0.001
ssg84
(dp210
I0
F0.5513070848310097
sI1
Fnan
sI2
Fnan
sI3
Fnan
sI4
Fnan
sI5
Fnan
sI6
Fnan
sI7
Fnan
sI8
Fnan
sI9
Fnan
sI10
Fnan
sI11
Fnan
sI12
Fnan
sI13
Fnan
sI14
Fnan
ssg86
(dp211
I0
F10.737933333333334
sI1
Fnan
sI2
Fnan
sI3
Fnan
sI4
Fnan
sI5
Fnan
sI6
Fnan
sI7
Fnan
sI8
Fnan
sI9
Fnan
sI10
Fnan
sI11
Fnan
sI12
Fnan
sI13
Fnan
sI14
Fnan
ssg88
(dp212
I0
F10.558
sI1
F10.548
sI2
F10.559
sI3
F10.577
sI4
F10.549
sI5
F10.559
sI6
F10.602
sI7
F10.584
sI8
F10.566
sI9
F10.56
sI10
F10.551
sI11
F10.559
sI12
F10.557
sI13
F10.548
sI14
F10.576
ssg90
(dp213
I0
F3.8453
sI1
F4.21186
sI2
F3.081331
sI3
F4.875466
sI4
F4.415612
sI5
F5.233192
sI6
F-1.601057
sI7
F5.104418
sI8
F-5.733745
sI9
F3.198737
sI10
F6.025048
sI11
F3.062411
sI12
F-3.920999
sI13
F5.744641
sI14
F3.074638
ssg92
(dp214
I0
F0.014524855543909374
sI1
Fnan
sI2
Fnan
sI3
Fnan
sI4
Fnan
sI5
Fnan
sI6
Fnan
sI7
Fnan
sI8
Fnan
sI9
Fnan
sI10
Fnan
sI11
Fnan
sI12
Fnan
sI13
Fnan
sI14
Fnan
ssg94
(dp215
I0
F0.7176242794590827
sI1
F0.7133521681973075
sI2
F0.716629439375517
sI3
F0.7157445160236191
sI4
F0.7161325190699285
sI5
F0.7123835284241944
sI6
F0.7136088014391895
sI7
F0.7132616767250317
sI8
F0.7158152255742849
sI9
F0.7143680469445851
sI10
F0.7166438893153987
sI11
F0.714707873425357
sI12
F0.7113383000162077
sI13
F0.7177366623346206
sI14
F0.7168407393748377
ssg96
(dp216
I0
F30.0
sI1
F30.0
sI2
F30.0
sI3
F30.0
sI4
F30.0
sI5
F30.0
sI6
F30.0
sI7
F30.0
sI8
F30.0
sI9
F30.0
sI10
F30.0
sI11
F30.0
sI12
F30.0
sI13
F30.0
sI14
F30.0
ssg98
(dp217
I0
F0.002
sI1
F0.002
sI2
F0.002
sI3
F0.002
sI4
F0.002
sI5
F0.002
sI6
F0.002
sI7
F0.002
sI8
F0.002
sI9
F0.002
sI10
F0.002
sI11
F0.002
sI12
F0.002
sI13
F0.002
sI14
F0.002
ssg100
(dp218
I0
F0.002
sI1
F0.002
sI2
F0.002
sI3
F0.002
sI4
F0.001
sI5
F0.002
sI6
F0.002
sI7
F0.002
sI8
F0.002
sI9
F0.002
sI10
F0.001
sI11
F0.002
sI12
F0.002
sI13
F0.002
sI14
F0.002
ssg102
(dp219
I0
F4.493047
sI1
F-3.194699
sI2
F5.083462
sI3
F4.248313
sI4
F4.291556
sI5
F4.988472
sI6
F7.134363
sI7
F-3.047033
sI8
F4.041044
sI9
F3.532036
sI10
F2.533333
sI11
F4.086424
sI12
F-3.769461
sI13
F-2.603997
sI14
F-2.225673
ssg104
(dp220
I0
S"KIC8462852-20180824at045754_-25-1X1-030-r'_cal.fts.mag.1"
p221
sI1
S"KIC8462852-20180824at042849_-25-1X1-030-r'_cal.fts.mag.1"
p222
sI2
S"KIC8462852-20180824at045545_-25-1X1-030-r'_cal.fts.mag.1"
p223
sI3
S"KIC8462852-20180824at052323_-25-1X1-030-r'_cal.fts.mag.1"
p224
sI4
S"KIC8462852-20180824at043202_-25-1X1-030-r'_cal.fts.mag.1"
p225
sI5
S"KIC8462852-20180824at043305_-25-1X1-030-r'_cal.fts.mag.1"
p226
sI6
S"KIC8462852-20180824at052531_-25-1X1-030-r'_cal.fts.mag.1"
p227
sI7
S"KIC8462852-20180824at052738_-25-1X1-030-r'_cal.fts.mag.1"
p228
sI8
S"KIC8462852-20180824at052635_-25-1X1-030-r'_cal.fts.mag.1"
p229
sI9
S"KIC8462852-20180824at042955_-25-1X1-030-r'_cal.fts.mag.1"
p230
sI10
S"KIC8462852-20180824at050000_-25-1X1-030-r'_cal.fts.mag.1"
p231
sI11
S"KIC8462852-20180824at052427_-25-1X1-030-r'_cal.fts.mag.1"
p232
sI12
S"KIC8462852-20180824at043058_-25-1X1-030-r'_cal.fts.mag.1"
p233
sI13
S"KIC8462852-20180824at045857_-25-1X1-030-r'_cal.fts.mag.1"
p234
sI14
S"KIC8462852-20180824at045650_-25-1X1-030-r'_cal.fts.mag.1"
p235
ssg121
(dp236
I0
F0.004599700205598768
sI1
Fnan
sI2
Fnan
sI3
Fnan
sI4
Fnan
sI5
Fnan
sI6
Fnan
sI7
Fnan
sI8
Fnan
sI9
Fnan
sI10
Fnan
sI11
Fnan
sI12
Fnan
sI13
Fnan
sI14
Fnan
ssg123
(dp237
I0
F8921.966666666667
sI1
F9035.913333333334
sI2
F8910.769999999999
sI3
F8808.0
sI4
F8977.253333333332
sI5
F8923.93
sI6
F8544.823333333334
sI7
F8706.556666666667
sI8
F8884.94
sI9
F8875.630000000001
sI10
F8956.716666666667
sI11
F8919.596666666668
sI12
F8964.546666666667
sI13
F9028.793333333333
sI14
F8787.85
ssg125
(dp238
I0
F0.015466399833494609
sI1
Fnan
sI2
Fnan
sI3
Fnan
sI4
Fnan
sI5
Fnan
sI6
Fnan
sI7
Fnan
sI8
Fnan
sI9
Fnan
sI10
Fnan
sI11
Fnan
sI12
Fnan
sI13
Fnan
sI14
Fnan
ssg127
(dp239
I0
S"r'"
p240
sI1
S"r'"
p241
sI2
S"r'"
p242
sI3
S"r'"
p243
sI4
S"r'"
p244
sI5
S"r'"
p245
sI6
S"r'"
p246
sI7
S"r'"
p247
sI8
S"r'"
p248
sI9
S"r'"
p249
sI10
S"r'"
p250
sI11
S"r'"
p251
sI12
S"r'"
p252
sI13
S"r'"
p253
sI14
S"r'"
p254
ssg144
(dp255
I0
F0.001459153655014259
sI1
Fnan
sI2
Fnan
sI3
Fnan
sI4
Fnan
sI5
Fnan
sI6
Fnan
sI7
Fnan
sI8
Fnan
sI9
Fnan
sI10
Fnan
sI11
Fnan
sI12
Fnan
sI13
Fnan
sI14
Fnan
ssg146
(dp256
I0
F4.102178
sI1
F3.907684
sI2
F-4.409439
sI3
F4.551419
sI4
F2.598654
sI5
F3.325927
sI6
F2.546123
sI7
F-2.322635
sI8
F3.930911
sI9
F3.41057
sI10
F-5.508988
sI11
F3.962867
sI12
F-1.924102
sI13
F-4.599668
sI14
F-4.215355
ssg148
(dp257
I0
F1.4927654273820496
sI1
Fnan
sI2
Fnan
sI3
Fnan
sI4
Fnan
sI5
Fnan
sI6
Fnan
sI7
Fnan
sI8
Fnan
sI9
Fnan
sI10
Fnan
sI11
Fnan
sI12
Fnan
sI13
Fnan
sI14
Fnan
ssg150
(dp258
I0
F2458354.706875
sI1
Fnan
sI2
Fnan
sI3
Fnan
sI4
Fnan
sI5
Fnan
sI6
Fnan
sI7
Fnan
sI8
Fnan
sI9
Fnan
sI10
Fnan
sI11
Fnan
sI12
Fnan
sI13
Fnan
sI14
Fnan
ssg152
(dp259
I0
F0.001459153655014259
sI1
Fnan
sI2
Fnan
sI3
Fnan
sI4
Fnan
sI5
Fnan
sI6
Fnan
sI7
Fnan
sI8
Fnan
sI9
Fnan
sI10
Fnan
sI11
Fnan
sI12
Fnan
sI13
Fnan
sI14
Fnan
ssg154
(dp260
I0
F55.98354
sI1
F56.12158
sI2
F55.76173
sI3
F58.03323
sI4
F56.79022
sI5
F57.26518
sI6
F59.49826
sI7
F59.1049
sI8
F59.44727
sI9
F55.33965
sI10
F55.26731
sI11
F57.95754
sI12
F58.2092
sI13
F54.65055
sI14
F57.61007
ssg156
(dp261
I0
F10.21
sI1
F10.2
sI2
F10.214
sI3
F10.217
sI4
F10.197
sI5
F10.208
sI6
F10.252
sI7
F10.229
sI8
F10.216
sI9
F10.21
sI10
F10.2
sI11
F10.211
sI12
F10.2
sI13
F10.198
sI14
F10.224
ssg158
(dp262
I0
F0.5513070848310097
sI1
Fnan
sI2
Fnan
sI3
Fnan
sI4
Fnan
sI5
Fnan
sI6
Fnan
sI7
Fnan
sI8
Fnan
sI9
Fnan
sI10
Fnan
sI11
Fnan
sI12
Fnan
sI13
Fnan
sI14
Fnan
sssS'z'
p263
(dp264
g3
(dp265
I0
F0.36883375510893307
sI1
Fnan
sI2
Fnan
sI3
Fnan
sI4
Fnan
sI5
Fnan
sI6
Fnan
sI7
Fnan
sI8
Fnan
sI9
Fnan
sI10
Fnan
sI11
Fnan
sI12
Fnan
sI13
Fnan
sI14
Fnan
ssg5
(dp266
I0
S'NoError'
p267
sI1
S'NoError'
p268
sI2
S'NoError'
p269
sI3
S'NoError'
p270
sI4
S'NoError'
p271
sI5
S'NoError'
p272
sI6
S'NoError'
p273
sI7
S'NoError'
p274
sI8
S'NoError'
p275
sI9
S'NoError'
p276
sI10
S'NoError'
p277
sI11
S'NoError'
p278
sI12
S'NoError'
p279
sI13
S'NoError'
p280
sI14
S'NoError'
p281
ssg22
(dp282
I0
F0.007
sI1
F0.009
sI2
F0.007
sI3
F0.007
sI4
F0.007
sI5
F0.007
sI6
F0.007
sI7
F0.007
sI8
F0.007
sI9
F0.007
sI10
F0.007
sI11
F0.007
sI12
F0.007
sI13
F0.007
sI14
F0.008
ssg24
(dp283
I0
F0.9207357270374676
sI1
F0.9217452971419746
sI2
F0.9224656623903191
sI3
F0.9179562684789896
sI4
F0.9169187174147817
sI5
F0.9117631214290024
sI6
F0.9108327860047457
sI7
F0.912793357301911
sI8
F0.9174120787233037
sI9
F0.9132839698929601
sI10
F0.9128677173424091
sI11
F0.9169672407841676
sI12
F0.9193644465549594
sI13
F0.9185074862017372
sI14
F0.911840170609292
ssg26
(dp284
I0
F0.0038719758760419583
sI1
Fnan
sI2
Fnan
sI3
Fnan
sI4
Fnan
sI5
Fnan
sI6
Fnan
sI7
Fnan
sI8
Fnan
sI9
Fnan
sI10
Fnan
sI11
Fnan
sI12
Fnan
sI13
Fnan
sI14
Fnan
ssg28
(dp285
I0
F0.9163636031538681
sI1
Fnan
sI2
Fnan
sI3
Fnan
sI4
Fnan
sI5
Fnan
sI6
Fnan
sI7
Fnan
sI8
Fnan
sI9
Fnan
sI10
Fnan
sI11
Fnan
sI12
Fnan
sI13
Fnan
sI14
Fnan
ssg30
(dp286
I0
F13.21
sI1
F13.641
sI2
F13.24
sI3
F13.255
sI4
F13.206
sI5
F13.292
sI6
F13.236
sI7
F13.219
sI8
F13.246
sI9
F13.196
sI10
F13.248
sI11
F13.228
sI12
F13.22
sI13
F13.256
sI14
F13.3
ssg32
(dp287
I0
F13.1506
sI1
F14.75186
sI2
F11.87135
sI3
F15.31425
sI4
F13.31531
sI5
F15.2044
sI6
F12.59291
sI7
F13.50144
sI8
F13.16647
sI9
F12.6756
sI10
F13.41597
sI11
F13.28121
sI12
F11.80337
sI13
F14.56852
sI14
F13.96881
ssg34
(dp288
I0
F2458354.6940972223
sI1
F2458354.7320023146
sI2
F2458354.712789352
sI3
F2458354.7334953705
sI4
F2458354.696284722
sI5
F2458354.734976852
sI6
F2458354.7135185185
sI7
F2458354.6948263887
sI8
F2458354.7142592594
sI9
F2458354.697013889
sI10
F2458354.7157291668
sI11
F2458354.6955555556
sI12
F2458354.714988426
sI13
F2458354.734236111
sI14
F2458354.7327430556
ssg36
(dp289
I0
F0.6994836666666667
sI1
Fnan
sI2
Fnan
sI3
Fnan
sI4
Fnan
sI5
Fnan
sI6
Fnan
sI7
Fnan
sI8
Fnan
sI9
Fnan
sI10
Fnan
sI11
Fnan
sI12
Fnan
sI13
Fnan
sI14
Fnan
ssg38
(dp290
I0
F2.1397858666666663
sI1
Fnan
sI2
Fnan
sI3
Fnan
sI4
Fnan
sI5
Fnan
sI6
Fnan
sI7
Fnan
sI8
Fnan
sI9
Fnan
sI10
Fnan
sI11
Fnan
sI12
Fnan
sI13
Fnan
sI14
Fnan
ssg40
(dp291
I0
F0.37077181280737137
sI1
F0.3658863373166742
sI2
F0.3656806496608564
sI3
F0.3688065489577115
sI4
F0.37234046683855265
sI5
F0.36595330317945407
sI6
F0.36878002315294517
sI7
F0.36991853450492457
sI8
F0.3721335905153291
sI9
F0.37688675586737824
sI10
F0.36725469545374756
sI11
F0.36811394002905656
sI12
F0.37307586773141627
sI13
F0.3676336315100021
sI14
F0.36732316986702107
ssg42
(dp292
I0
F0.002387137828034861
sI1
Fnan
sI2
Fnan
sI3
Fnan
sI4
Fnan
sI5
Fnan
sI6
Fnan
sI7
Fnan
sI8
Fnan
sI9
Fnan
sI10
Fnan
sI11
Fnan
sI12
Fnan
sI13
Fnan
sI14
Fnan
ssg44
(dp293
I0
F1.4267919333333332
sI1
Fnan
sI2
Fnan
sI3
Fnan
sI4
Fnan
sI5
Fnan
sI6
Fnan
sI7
Fnan
sI8
Fnan
sI9
Fnan
sI10
Fnan
sI11
Fnan
sI12
Fnan
sI13
Fnan
sI14
Fnan
ssg46
(dp294
I0
g267
sI1
g268
sI2
g269
sI3
g270
sI4
g271
sI5
g272
sI6
g273
sI7
g274
sI8
g275
sI9
g276
sI10
g277
sI11
g278
sI12
g279
sI13
g280
sI14
g281
ssg48
(dp295
I0
F0.004452030329563646
sI1
Fnan
sI2
Fnan
sI3
Fnan
sI4
Fnan
sI5
Fnan
sI6
Fnan
sI7
Fnan
sI8
Fnan
sI9
Fnan
sI10
Fnan
sI11
Fnan
sI12
Fnan
sI13
Fnan
sI14
Fnan
ssg50
(dp296
I0
F0.10268430584401235
sI1
Fnan
sI2
Fnan
sI3
Fnan
sI4
Fnan
sI5
Fnan
sI6
Fnan
sI7
Fnan
sI8
Fnan
sI9
Fnan
sI10
Fnan
sI11
Fnan
sI12
Fnan
sI13
Fnan
sI14
Fnan
ssg52
(dp297
I0
F1.9233808733333333
sI1
Fnan
sI2
Fnan
sI3
Fnan
sI4
Fnan
sI5
Fnan
sI6
Fnan
sI7
Fnan
sI8
Fnan
sI9
Fnan
sI10
Fnan
sI11
Fnan
sI12
Fnan
sI13
Fnan
sI14
Fnan
ssg54
(dp298
I0
F1.4998008062313306
sI1
F1.5013235517666428
sI2
F1.4912957422694466
sI3
F1.504138057520146
sI4
F1.4948267906409216
sI5
F1.4967269939271581
sI6
F1.4961788800003053
sI7
F1.5056956995637412
sI8
F1.5082804495879454
sI9
F1.51010802782395
sI10
F1.5175697901241985
sI11
F1.496496464735361
sI12
F1.4974206566377353
sI13
F1.5073350150727325
sI14
F1.516634878930681
ssg56
(dp299
I0
g267
sI1
g268
sI2
g269
sI3
g270
sI4
g271
sI5
g272
sI6
g273
sI7
g274
sI8
g275
sI9
g276
sI10
g277
sI11
g278
sI12
g279
sI13
g280
sI14
g281
ssg58
(dp300
I0
F12.83757
sI1
F15.4612
sI2
F12.23963
sI3
F15.90971
sI4
F13.64254
sI5
F16.28544
sI6
F12.81073
sI7
F13.93834
sI8
F12.73198
sI9
F13.40099
sI10
F13.35337
sI11
F13.45225
sI12
F13.07492
sI13
F15.50056
sI14
F15.04175
ssg60
(dp301
I0
F11.9108
sI1
Fnan
sI2
Fnan
sI3
Fnan
sI4
Fnan
sI5
Fnan
sI6
Fnan
sI7
Fnan
sI8
Fnan
sI9
Fnan
sI10
Fnan
sI11
Fnan
sI12
Fnan
sI13
Fnan
sI14
Fnan
ssg62
(dp302
I0
F0.6908599542645614
sI1
Fnan
sI2
Fnan
sI3
Fnan
sI4
Fnan
sI5
Fnan
sI6
Fnan
sI7
Fnan
sI8
Fnan
sI9
Fnan
sI10
Fnan
sI11
Fnan
sI12
Fnan
sI13
Fnan
sI14
Fnan
ssg64
(dp303
I0
F3.935192
sI1
F3.860009
sI2
F3.941774
sI3
F3.428247
sI4
F-1.891944
sI5
F4.183662
sI6
F1.49775
sI7
F2.523695
sI8
F4.084914
sI9
F4.424944
sI10
F1.50275
sI11
F3.07139
sI12
F-3.017777
sI13
F3.532571
sI14
F-2.980389
ssg66
(dp304
I0
F12.248933333333333
sI1
Fnan
sI2
Fnan
sI3
Fnan
sI4
Fnan
sI5
Fnan
sI6
Fnan
sI7
Fnan
sI8
Fnan
sI9
Fnan
sI10
Fnan
sI11
Fnan
sI12
Fnan
sI13
Fnan
sI14
Fnan
ssg68
(dp305
I0
g267
sI1
g268
sI2
g269
sI3
g270
sI4
g271
sI5
g272
sI6
g273
sI7
g274
sI8
g275
sI9
g276
sI10
g277
sI11
g278
sI12
g279
sI13
g280
sI14
g281
ssg70
(dp306
I0
F3332.9316666666664
sI1
F2271.962666666667
sI2
F3290.7326666666663
sI3
F3205.633333333333
sI4
F3319.2706666666663
sI5
F3108.5223333333333
sI6
F3246.927
sI7
F3292.6913333333337
sI8
F3203.0306666666665
sI9
F3302.1803333333332
sI10
F3227.9866666666667
sI11
F3290.9210000000003
sI12
F3277.088666666667
sI13
F3216.1516666666666
sI14
F3075.36
ssg72
(dp307
I0
F1.020219
sI1
F1.004641
sI2
F1.0084870000000001
sI3
F1.004686
sI4
F1.018426
sI5
F1.004779
sI6
F1.008185
sI7
F1.0196049999999999
sI8
F1.0079
sI9
F1.0178479999999999
sI10
F1.007363
sI11
F1.019012
sI12
F1.0076260000000001
sI13
F1.004726
sI14
F1.004657
ssg74
(dp308
I0
F2708.924
sI1
F1841.7160000000001
sI2
F2681.478666666667
sI3
F2610.3
sI4
F2723.561
sI5
F2569.489333333333
sI6
F2688.985333333333
sI7
F2701.685
sI8
F2603.6789999999996
sI9
F2699.699333333333
sI10
F2628.4293333333335
sI11
F2697.221
sI12
F2673.650666666667
sI13
F2611.148333333333
sI14
F2509.9526666666666
ssg76
(dp309
I0
F4530.79
sI1
F3087.9813333333336
sI2
F4453.166666666667
sI3
F4373.983333333334
sI4
F4516.493333333333
sI5
F4249.216666666666
sI6
F4440.593333333333
sI7
F4512.8533333333335
sI8
F4379.073333333334
sI9
F4531.743333333333
sI10
F4443.759999999999
sI11
F4480.616666666667
sI12
F4455.38
sI13
F4391.846666666666
sI14
F4235.44
ssg78
(dp310
I0
F13.54955
sI1
F15.48297
sI2
F11.62926
sI3
F15.36747
sI4
F13.24241
sI5
F14.49364
sI6
F11.6269
sI7
F13.94334
sI8
F12.4838
sI9
F13.3346
sI10
F13.09161
sI11
F13.52194
sI12
F13.53116
sI13
F16.30813
sI14
F15.13391
ssg80
(dp311
I0
F12.418
sI1
F12.837
sI2
F12.429
sI3
F12.458
sI4
F12.412
sI5
F12.475
sI6
F12.426
sI7
F12.421
sI8
F12.461
sI9
F12.422
sI10
F12.451
sI11
F12.423
sI12
F12.432
sI13
F12.458
sI14
F12.501
ssg82
(dp312
I0
F0.003
sI1
F0.004
sI2
F0.003
sI3
F0.003
sI4
F0.003
sI5
F0.003
sI6
F0.003
sI7
F0.003
sI8
F0.003
sI9
F0.003
sI10
F0.003
sI11
F0.003
sI12
F0.003
sI13
F0.003
sI14
F0.003
ssg84
(dp313
I0
F0.36937062182616276
sI1
Fnan
sI2
Fnan
sI3
Fnan
sI4
Fnan
sI5
Fnan
sI6
Fnan
sI7
Fnan
sI8
Fnan
sI9
Fnan
sI10
Fnan
sI11
Fnan
sI12
Fnan
sI13
Fnan
sI14
Fnan
ssg86
(dp314
I0
F12.468266666666667
sI1
Fnan
sI2
Fnan
sI3
Fnan
sI4
Fnan
sI5
Fnan
sI6
Fnan
sI7
Fnan
sI8
Fnan
sI9
Fnan
sI10
Fnan
sI11
Fnan
sI12
Fnan
sI13
Fnan
sI14
Fnan
ssg88
(dp315
I0
F12.193
sI1
F12.609
sI2
F12.207
sI3
F12.235
sI4
F12.197
sI5
F12.269
sI6
F12.221
sI7
F12.206
sI8
F12.236
sI9
F12.203
sI10
F12.228
sI11
F12.207
sI12
F12.211
sI13
F12.232
sI14
F12.28
ssg90
(dp316
I0
F3.113111
sI1
F2.927157
sI2
F-1.600181
sI3
F-1.717612
sI4
F-1.555878
sI5
F1.818938
sI6
F3.270851
sI7
F-1.99835
sI8
F-2.087397
sI9
F-1.842314
sI10
F3.712467
sI11
F-1.280301
sI12
F1.069537
sI13
F2.662526
sI14
F3.999701
ssg92
(dp317
I0
F0.1035230823122484
sI1
Fnan
sI2
Fnan
sI3
Fnan
sI4
Fnan
sI5
Fnan
sI6
Fnan
sI7
Fnan
sI8
Fnan
sI9
Fnan
sI10
Fnan
sI11
Fnan
sI12
Fnan
sI13
Fnan
sI14
Fnan
ssg94
(dp318
I0
F0.6889674164035562
sI1
F0.6872146425410415
sI2
F0.6925396499214135
sI3
F0.6887683414068874
sI4
F0.6951615694398148
sI5
F0.6984453602753056
sI6
F0.6995715696968778
sI7
F0.6922476560892569
sI8
F0.6867959078377188
sI9
F0.6892329943985923
sI10
F0.685223182552083
sI11
F0.6941280131906972
sI12
F0.6915387004909083
sI13
F0.6864218994089334
sI14
F0.6866424103153326
ssg96
(dp319
I0
F30.0
sI1
F30.0
sI2
F30.0
sI3
F30.0
sI4
F30.0
sI5
F30.0
sI6
F30.0
sI7
F30.0
sI8
F30.0
sI9
F30.0
sI10
F30.0
sI11
F30.0
sI12
F30.0
sI13
F30.0
sI14
F30.0
ssg98
(dp320
I0
F0.004
sI1
F0.005
sI2
F0.004
sI3
F0.004
sI4
F0.004
sI5
F0.004
sI6
F0.004
sI7
F0.004
sI8
F0.004
sI9
F0.004
sI10
F0.004
sI11
F0.004
sI12
F0.004
sI13
F0.004
sI14
F0.004
ssg100
(dp321
I0
F0.003
sI1
F0.005
sI2
F0.004
sI3
F0.004
sI4
F0.004
sI5
F0.004
sI6
F0.004
sI7
F0.004
sI8
F0.004
sI9
F0.004
sI10
F0.004
sI11
F0.004
sI12
F0.004
sI13
F0.004
sI14
F0.004
ssg102
(dp322
I0
F1.912397
sI1
F4.700216
sI2
F-2.875171
sI3
F4.2995
sI4
F1.276901
sI5
F3.813541
sI6
F3.177834
sI7
F-1.613106
sI8
F4.478279
sI9
F-0.9102419
sI10
F3.814115
sI11
F3.778426
sI12
F-2.06544
sI13
F2.126955
sI14
F2.936508
ssg104
(dp323
I0
S"KIC8462852-20180824at043928_-25-1X1-030-z'_cal.fts.mag.1"
p324
sI1
S"KIC8462852-20180824at053403_-25-1X1-030-z'_cal.fts.mag.1"
p325
sI2
S"KIC8462852-20180824at050623_-25-1X1-030-z'_cal.fts.mag.1"
p326
sI3
S"KIC8462852-20180824at053614_-25-1X1-030-z'_cal.fts.mag.1"
p327
sI4
S"KIC8462852-20180824at044239_-25-1X1-030-z'_cal.fts.mag.1"
p328
sI5
S"KIC8462852-20180824at053822_-25-1X1-030-z'_cal.fts.mag.1"
p329
sI6
S"KIC8462852-20180824at050728_-25-1X1-030-z'_cal.fts.mag.1"
p330
sI7
S"KIC8462852-20180824at044033_-25-1X1-030-z'_cal.fts.mag.1"
p331
sI8
S"KIC8462852-20180824at050832_-25-1X1-030-z'_cal.fts.mag.1"
p332
sI9
S"KIC8462852-20180824at044342_-25-1X1-030-z'_cal.fts.mag.1"
p333
sI10
S"KIC8462852-20180824at051039_-25-1X1-030-z'_cal.fts.mag.1"
p334
sI11
S"KIC8462852-20180824at044136_-25-1X1-030-z'_cal.fts.mag.1"
p335
sI12
S"KIC8462852-20180824at050935_-25-1X1-030-z'_cal.fts.mag.1"
p336
sI13
S"KIC8462852-20180824at053718_-25-1X1-030-z'_cal.fts.mag.1"
p337
sI14
S"KIC8462852-20180824at053509_-25-1X1-030-z'_cal.fts.mag.1"
p338
ssg121
(dp339
I0
F0.00792824475900098
sI1
Fnan
sI2
Fnan
sI3
Fnan
sI4
Fnan
sI5
Fnan
sI6
Fnan
sI7
Fnan
sI8
Fnan
sI9
Fnan
sI10
Fnan
sI11
Fnan
sI12
Fnan
sI13
Fnan
sI14
Fnan
ssg123
(dp340
I0
F1306.6796666666667
sI1
F878.3296666666666
sI2
F1270.7863333333332
sI3
F1252.7026666666668
sI4
F1310.5546666666667
sI5
F1210.9673333333333
sI6
F1275.5493333333334
sI7
F1295.6063333333334
sI8
F1263.4906666666668
sI9
F1323.3276666666668
sI10
F1260.9293333333333
sI11
F1284.5653333333332
sI12
F1294.0906666666667
sI13
F1252.3006666666665
sI14
F1202.4633333333334
ssg125
(dp341
I0
F0.10501800299177722
sI1
Fnan
sI2
Fnan
sI3
Fnan
sI4
Fnan
sI5
Fnan
sI6
Fnan
sI7
Fnan
sI8
Fnan
sI9
Fnan
sI10
Fnan
sI11
Fnan
sI12
Fnan
sI13
Fnan
sI14
Fnan
ssg127
(dp342
I0
S"z'"
p343
sI1
S"z'"
p344
sI2
S"z'"
p345
sI3
S"z'"
p346
sI4
S"z'"
p347
sI5
S"z'"
p348
sI6
S"z'"
p349
sI7
S"z'"
p350
sI8
S"z'"
p351
sI9
S"z'"
p352
sI10
S"z'"
p353
sI11
S"z'"
p354
sI12
S"z'"
p355
sI13
S"z'"
p356
sI14
S"z'"
p357
ssg144
(dp358
I0
F0.0031657250498218557
sI1
Fnan
sI2
Fnan
sI3
Fnan
sI4
Fnan
sI5
Fnan
sI6
Fnan
sI7
Fnan
sI8
Fnan
sI9
Fnan
sI10
Fnan
sI11
Fnan
sI12
Fnan
sI13
Fnan
sI14
Fnan
ssg146
(dp359
I0
F2.780868
sI1
F3.108663
sI2
F2.559867
sI3
F-3.719036
sI4
F-3.06593
sI5
F3.222393
sI6
F3.170775
sI7
F-3.208195
sI8
F2.169745
sI9
F3.946229
sI10
F1.566243
sI11
F3.274742
sI12
F-2.260404
sI13
F4.688016
sI14
F3.167903
ssg148
(dp360
I0
F1.5029221203221532
sI1
Fnan
sI2
Fnan
sI3
Fnan
sI4
Fnan
sI5
Fnan
sI6
Fnan
sI7
Fnan
sI8
Fnan
sI9
Fnan
sI10
Fnan
sI11
Fnan
sI12
Fnan
sI13
Fnan
sI14
Fnan
ssg150
(dp361
I0
F2458354.7142592594
sI1
Fnan
sI2
Fnan
sI3
Fnan
sI4
Fnan
sI5
Fnan
sI6
Fnan
sI7
Fnan
sI8
Fnan
sI9
Fnan
sI10
Fnan
sI11
Fnan
sI12
Fnan
sI13
Fnan
sI14
Fnan
ssg152
(dp362
I0
F0.0031657250498218557
sI1
Fnan
sI2
Fnan
sI3
Fnan
sI4
Fnan
sI5
Fnan
sI6
Fnan
sI7
Fnan
sI8
Fnan
sI9
Fnan
sI10
Fnan
sI11
Fnan
sI12
Fnan
sI13
Fnan
sI14
Fnan
ssg154
(dp363
I0
F13.90192
sI1
F16.27427
sI2
F14.01305
sI3
F15.40316
sI4
F13.91253
sI5
F16.7389
sI6
F13.2487
sI7
F13.92351
sI8
F13.4762
sI9
F14.4709
sI10
F13.51453
sI11
F13.70509
sI12
F13.23476
sI13
F15.70885
sI14
F16.12305
ssg156
(dp364
I0
F11.86
sI1
F12.276
sI2
F11.878
sI3
F11.898
sI4
F11.863
sI5
F11.929
sI6
F11.881
sI7
F11.864
sI8
F11.897
sI9
F11.859
sI10
F11.881
sI11
F11.872
sI12
F11.878
sI13
F11.893
sI14
F11.933
ssg158
(dp365
I0
F0.36937062182616276
sI1
Fnan
sI2
Fnan
sI3
Fnan
sI4
Fnan
sI5
Fnan
sI6
Fnan
sI7
Fnan
sI8
Fnan
sI9
Fnan
sI10
Fnan
sI11
Fnan
sI12
Fnan
sI13
Fnan
sI14
Fnan
sssS'g'
p366
(dp367
g3
(dp368
I0
F0.8699789702867767
sI1
Fnan
sI2
Fnan
sI3
Fnan
sI4
Fnan
sI5
Fnan
sI6
Fnan
sI7
Fnan
sI8
Fnan
sI9
Fnan
sI10
Fnan
sI11
Fnan
sI12
Fnan
sI13
Fnan
sI14
Fnan
ssg5
(dp369
I0
S'NoError'
p370
sI1
S'NoError'
p371
sI2
S'NoError'
p372
sI3
S'NoError'
p373
sI4
S'NoError'
p374
sI5
S'NoError'
p375
sI6
S'NoError'
p376
sI7
S'NoError'
p377
sI8
S'NoError'
p378
sI9
S'NoError'
p379
sI10
S'NoError'
p380
sI11
S'NoError'
p381
sI12
S'NoError'
p382
sI13
S'NoError'
p383
sI14
S'NoError'
p384
ssg22
(dp385
I0
F0.002
sI1
F0.002
sI2
F0.002
sI3
F0.002
sI4
F0.002
sI5
F0.002
sI6
F0.002
sI7
F0.002
sI8
F0.002
sI9
F0.002
sI10
F0.002
sI11
F0.002
sI12
F0.002
sI13
F0.002
sI14
F0.002
ssg24
(dp386
I0
F0.8815353827465529
sI1
F0.8819004883837104
sI2
F0.880872423413142
sI3
F0.884009959278862
sI4
F0.878012034232505
sI5
F0.88238456781935
sI6
F0.8760771050510531
sI7
F0.8771942382015492
sI8
F0.8795110828843103
sI9
F0.8809667023841261
sI10
F0.8761303300476869
sI11
F0.8811060232133412
sI12
F0.8848243342423093
sI13
F0.8802974138865406
sI14
F0.8789984434949599
ssg26
(dp387
I0
F0.00262506584047483
sI1
Fnan
sI2
Fnan
sI3
Fnan
sI4
Fnan
sI5
Fnan
sI6
Fnan
sI7
Fnan
sI8
Fnan
sI9
Fnan
sI10
Fnan
sI11
Fnan
sI12
Fnan
sI13
Fnan
sI14
Fnan
ssg28
(dp388
I0
F0.8802547019519997
sI1
Fnan
sI2
Fnan
sI3
Fnan
sI4
Fnan
sI5
Fnan
sI6
Fnan
sI7
Fnan
sI8
Fnan
sI9
Fnan
sI10
Fnan
sI11
Fnan
sI12
Fnan
sI13
Fnan
sI14
Fnan
ssg30
(dp389
I0
F11.363
sI1
F11.362
sI2
F11.355
sI3
F11.331
sI4
F11.328
sI5
F11.336
sI6
F11.338
sI7
F11.335
sI8
F11.323
sI9
F11.347
sI10
F11.335
sI11
F11.323
sI12
F11.341
sI13
F11.319
sI14
F11.344
ssg32
(dp390
I0
F61.88237
sI1
F60.97921
sI2
F60.98398
sI3
F60.52236
sI4
F60.37727
sI5
F60.41896
sI6
F59.37775
sI7
F60.53701
sI8
F60.09402
sI9
F60.29034
sI10
F58.92899
sI11
F60.27396
sI12
F62.29283
sI13
F59.76031
sI14
F59.68212
ssg34
(dp391
I0
F2458354.722349537
sI1
F2458354.704641204
sI2
F2458354.7238194444
sI3
F2458354.7208796297
sI4
F2458354.682986111
sI5
F2458354.72162037
sI6
F2458354.7031828705
sI7
F2458354.701724537
sI8
F2458354.6844791668
sI9
F2458354.683726852
sI10
F2458354.7024537036
sI11
F2458354.685949074
sI12
F2458354.723090278
sI13
F2458354.685219907
sI14
F2458354.703912037
ssg36
(dp392
I0
F1.9237685333333334
sI1
Fnan
sI2
Fnan
sI3
Fnan
sI4
Fnan
sI5
Fnan
sI6
Fnan
sI7
Fnan
sI8
Fnan
sI9
Fnan
sI10
Fnan
sI11
Fnan
sI12
Fnan
sI13
Fnan
sI14
Fnan
ssg38
(dp393
I0
F0.9403947333333332
sI1
Fnan
sI2
Fnan
sI3
Fnan
sI4
Fnan
sI5
Fnan
sI6
Fnan
sI7
Fnan
sI8
Fnan
sI9
Fnan
sI10
Fnan
sI11
Fnan
sI12
Fnan
sI13
Fnan
sI14
Fnan
ssg40
(dp394
I0
F0.8627512784111078
sI1
F0.8725462891260373
sI2
F0.8678861478674796
sI3
F0.8719843487996807
sI4
F0.8745129136626855
sI5
F0.8722905192008329
sI6
F0.8689590221547516
sI7
F0.8704024118305426
sI8
F0.8685174165878538
sI9
F0.8682551532082278
sI10
F0.8684823127623169
sI11
F0.8687383880615631
sI12
F0.8692133407310141
sI13
F0.8701330484143422
sI14
F0.8723182149834567
ssg42
(dp395
I0
F0.0016761709333478257
sI1
Fnan
sI2
Fnan
sI3
Fnan
sI4
Fnan
sI5
Fnan
sI6
Fnan
sI7
Fnan
sI8
Fnan
sI9
Fnan
sI10
Fnan
sI11
Fnan
sI12
Fnan
sI13
Fnan
sI14
Fnan
ssg44
(dp396
I0
F2.5808289333333336
sI1
Fnan
sI2
Fnan
sI3
Fnan
sI4
Fnan
sI5
Fnan
sI6
Fnan
sI7
Fnan
sI8
Fnan
sI9
Fnan
sI10
Fnan
sI11
Fnan
sI12
Fnan
sI13
Fnan
sI14
Fnan
ssg46
(dp397
I0
g370
sI1
g371
sI2
g372
sI3
g373
sI4
g374
sI5
g375
sI6
g376
sI7
g377
sI8
g378
sI9
g379
sI10
g380
sI11
g381
sI12
g382
sI13
g383
sI14
g384
ssg48
(dp398
I0
F0.0026565293939409284
sI1
Fnan
sI2
Fnan
sI3
Fnan
sI4
Fnan
sI5
Fnan
sI6
Fnan
sI7
Fnan
sI8
Fnan
sI9
Fnan
sI10
Fnan
sI11
Fnan
sI12
Fnan
sI13
Fnan
sI14
Fnan
ssg50
(dp399
I0
F0.01258002952528897
sI1
Fnan
sI2
Fnan
sI3
Fnan
sI4
Fnan
sI5
Fnan
sI6
Fnan
sI7
Fnan
sI8
Fnan
sI9
Fnan
sI10
Fnan
sI11
Fnan
sI12
Fnan
sI13
Fnan
sI14
Fnan
ssg52
(dp400
I0
F1.951224466666667
sI1
Fnan
sI2
Fnan
sI3
Fnan
sI4
Fnan
sI5
Fnan
sI6
Fnan
sI7
Fnan
sI8
Fnan
sI9
Fnan
sI10
Fnan
sI11
Fnan
sI12
Fnan
sI13
Fnan
sI14
Fnan
ssg54
(dp401
I0
F1.508662937629575
sI1
F1.512511144469623
sI2
F1.5070371295576332
sI3
F1.497856900000391
sI4
F1.5135800153906844
sI5
F1.4976992965325477
sI6
F1.511842057437237
sI7
F1.5150177469319657
sI8
F1.5090567113605269
sI9
F1.515782786851745
sI10
F1.5171708246896292
sI11
F1.5102788769034026
sI12
F1.5059803481493514
sI13
F1.5030391572179755
sI14
F1.5110423173018688
ssg56
(dp402
I0
g370
sI1
g371
sI2
g372
sI3
g373
sI4
g374
sI5
g375
sI6
g376
sI7
g377
sI8
g378
sI9
g379
sI10
g380
sI11
g381
sI12
g382
sI13
g383
sI14
g384
ssg58
(dp403
I0
F61.63341
sI1
F61.96972
sI2
F60.82446
sI3
F60.22117
sI4
F60.63832
sI5
F60.47182
sI6
F60.45148
sI7
F59.5191
sI8
F60.11613
sI9
F59.89097
sI10
F59.80166
sI11
F60.05936
sI12
F59.82473
sI13
F59.86638
sI14
F60.96449
ssg60
(dp404
I0
F10.910666666666668
sI1
Fnan
sI2
Fnan
sI3
Fnan
sI4
Fnan
sI5
Fnan
sI6
Fnan
sI7
Fnan
sI8
Fnan
sI9
Fnan
sI10
Fnan
sI11
Fnan
sI12
Fnan
sI13
Fnan
sI14
Fnan
ssg62
(dp405
I0
F0.7186170511085678
sI1
Fnan
sI2
Fnan
sI3
Fnan
sI4
Fnan
sI5
Fnan
sI6
Fnan
sI7
Fnan
sI8
Fnan
sI9
Fnan
sI10
Fnan
sI11
Fnan
sI12
Fnan
sI13
Fnan
sI14
Fnan
ssg64
(dp406
I0
F3.499729
sI1
F1.355996
sI2
F3.301392
sI3
F3.397811
sI4
F4.864357
sI5
F-3.599616
sI6
F4.287066
sI7
F4.607145
sI8
F3.392096
sI9
F-4.119904
sI10
F-4.194758
sI11
F4.170933
sI12
F-2.70785
sI13
F-1.194473
sI14
F-2.954003
ssg66
(dp407
I0
F11.281399999999998
sI1
Fnan
sI2
Fnan
sI3
Fnan
sI4
Fnan
sI5
Fnan
sI6
Fnan
sI7
Fnan
sI8
Fnan
sI9
Fnan
sI10
Fnan
sI11
Fnan
sI12
Fnan
sI13
Fnan
sI14
Fnan
ssg68
(dp408
I0
g370
sI1
g371
sI2
g372
sI3
g373
sI4
g374
sI5
g375
sI6
g376
sI7
g377
sI8
g378
sI9
g379
sI10
g380
sI11
g381
sI12
g382
sI13
g383
sI14
g384
ssg70
(dp409
I0
F7612.576666666666
sI1
F7541.126666666666
sI2
F7619.483333333334
sI3
F7773.223333333333
sI4
F7735.413333333333
sI5
F7727.216666666666
sI6
F7701.02
sI7
F7720.756666666667
sI8
F7838.15
sI9
F7672.1466666666665
sI10
F7732.37
sI11
F7846.193333333333
sI12
F7733.9
sI13
F7851.073333333334
sI14
F7649.21
ssg72
(dp410
I0
F1.005543
sI1
F1.012609
sI2
F1.0052709999999998
sI3
F1.005862
sI4
F1.031079
sI5
F1.0056969999999998
sI6
F1.0135100000000001
sI7
F1.014462
sI8
F1.029441
sI9
F1.03025
sI10
F1.013978
sI11
F1.027894
sI12
F1.005403
sI13
F1.028661
sI14
F1.0130540000000001
ssg74
(dp411
I0
F6571.6033333333335
sI1
F6490.496666666667
sI2
F6591.566666666667
sI3
F6726.8
sI4
F6697.5599999999995
sI5
F6706.05
sI6
F6696.956666666667
sI7
F6688.306666666667
sI8
F6788.02
sI9
F6600.47
sI10
F6701.706666666667
sI11
F6771.486666666667
sI12
F6650.156666666667
sI13
F6815.2733333333335
sI14
F6622.1
ssg76
(dp412
I0
F10699.573333333334
sI1
F10611.493333333334
sI2
F10708.29
sI3
F10859.480000000001
sI4
F10922.730000000001
sI5
F10808.346666666668
sI6
F10883.733333333334
sI7
F10914.993333333334
sI8
F11035.859999999999
sI9
F10817.093333333332
sI10
F10949.480000000001
sI11
F11038.386666666665
sI12
F10831.053333333333
sI13
F11022.046666666667
sI14
F10782.276666666667
ssg78
(dp413
I0
F60.63699
sI1
F61.05453
sI2
F61.5834
sI3
F59.96387
sI4
F60.69925
sI5
F60.77374
sI6
F59.145
sI7
F59.15319
sI8
F58.96759
sI9
F59.59991
sI10
F58.75945
sI11
F59.255
sI12
F61.13291
sI13
F59.34669
sI14
F59.66853
ssg80
(dp414
I0
F11.456
sI1
F11.469
sI2
F11.453
sI3
F11.43
sI4
F11.435
sI5
F11.434
sI6
F11.435
sI7
F11.437
sI8
F11.421
sI9
F11.451
sI10
F11.435
sI11
F11.423
sI12
F11.443
sI13
F11.416
sI14
F11.448
ssg82
(dp415
I0
F0.002
sI1
F0.002
sI2
F0.002
sI3
F0.002
sI4
F0.002
sI5
F0.002
sI6
F0.002
sI7
F0.002
sI8
F0.002
sI9
F0.002
sI10
F0.002
sI11
F0.002
sI12
F0.002
sI13
F0.002
sI14
F0.002
ssg84
(dp416
I0
F0.8697993870534595
sI1
Fnan
sI2
Fnan
sI3
Fnan
sI4
Fnan
sI5
Fnan
sI6
Fnan
sI7
Fnan
sI8
Fnan
sI9
Fnan
sI10
Fnan
sI11
Fnan
sI12
Fnan
sI13
Fnan
sI14
Fnan
ssg86
(dp417
I0
F11.439066666666667
sI1
Fnan
sI2
Fnan
sI3
Fnan
sI4
Fnan
sI5
Fnan
sI6
Fnan
sI7
Fnan
sI8
Fnan
sI9
Fnan
sI10
Fnan
sI11
Fnan
sI12
Fnan
sI13
Fnan
sI14
Fnan
ssg88
(dp418
I0
F11.296
sI1
F11.306
sI2
F11.295
sI3
F11.273
sI4
F11.279
sI5
F11.28
sI6
F11.284
sI7
F11.281
sI8
F11.264
sI9
F11.288
sI10
F11.279
sI11
F11.263
sI12
F11.279
sI13
F11.263
sI14
F11.291
ssg90
(dp419
I0
F4.314296
sI1
F5.470849
sI2
F3.484984
sI3
F-3.191766
sI4
F3.971475
sI5
F3.204898
sI6
F2.45045
sI7
F-4.573126
sI8
F-3.22725
sI9
F-4.192777
sI10
F4.605727
sI11
F5.041054
sI12
F3.995844
sI13
F4.077697
sI14
F3.424173
ssg92
(dp420
I0
F0.01284893918170813
sI1
Fnan
sI2
Fnan
sI3
Fnan
sI4
Fnan
sI5
Fnan
sI6
Fnan
sI7
Fnan
sI8
Fnan
sI9
Fnan
sI10
Fnan
sI11
Fnan
sI12
Fnan
sI13
Fnan
sI14
Fnan
ssg94
(dp421
I0
F0.7177314879283244
sI1
F0.7151030172687654
sI2
F0.7192981435097043
sI3
F0.7220423016091242
sI4
F0.7179235232944756
sI5
F0.7235873956892597
sI6
F0.720693629509207
sI7
F0.7177931305868201
sI8
F0.7192981247758161
sI9
F0.7139795902914344
sI10
F0.7174564260677252
sI11
F0.7171445345002819
sI12
F0.7164205098998364
sI13
F0.7222201028058246
sI14
F0.7185638488919143
ssg96
(dp422
I0
F30.0
sI1
F30.0
sI2
F30.0
sI3
F30.0
sI4
F30.0
sI5
F30.0
sI6
F30.0
sI7
F30.0
sI8
F30.0
sI9
F30.0
sI10
F30.0
sI11
F30.0
sI12
F30.0
sI13
F30.0
sI14
F30.0
ssg98
(dp423
I0
F0.002
sI1
F0.002
sI2
F0.002
sI3
F0.002
sI4
F0.002
sI5
F0.002
sI6
F0.002
sI7
F0.002
sI8
F0.002
sI9
F0.002
sI10
F0.002
sI11
F0.002
sI12
F0.002
sI13
F0.002
sI14
F0.002
ssg100
(dp424
I0
F0.002
sI1
F0.002
sI2
F0.002
sI3
F0.002
sI4
F0.002
sI5
F0.002
sI6
F0.002
sI7
F0.002
sI8
F0.002
sI9
F0.002
sI10
F0.002
sI11
F0.002
sI12
F0.002
sI13
F0.002
sI14
F0.002
ssg102
(dp425
I0
F3.768055
sI1
F-4.283884
sI2
F7.11867
sI3
F4.611251
sI4
F-4.210425
sI5
F4.832902
sI6
F-2.309232
sI7
F2.826336
sI8
F4.93773
sI9
F4.652585
sI10
F-1.920641
sI11
F4.550682
sI12
F4.403494
sI13
F-3.304296
sI14
F3.59514
ssg104
(dp426
I0
S"KIC8462852-20180824at052011_-25-1X1-030-g'_cal.fts.mag.1"
p427
sI1
S"KIC8462852-20180824at045441_-25-1X1-030-g'_cal.fts.mag.1"
p428
sI2
S"KIC8462852-20180824at052218_-25-1X1-030-g'_cal.fts.mag.1"
p429
sI3
S"KIC8462852-20180824at051800_-25-1X1-030-g'_cal.fts.mag.1"
p430
sI4
S"KIC8462852-20180824at042320_-25-1X1-030-g'_cal.fts.mag.1"
p431
sI5
S"KIC8462852-20180824at051908_-25-1X1-030-g'_cal.fts.mag.1"
p432
sI6
S"KIC8462852-20180824at045235_-25-1X1-030-g'_cal.fts.mag.1"
p433
sI7
S"KIC8462852-20180824at045024_-25-1X1-030-g'_cal.fts.mag.1"
p434
sI8
S"KIC8462852-20180824at042539_-25-1X1-030-g'_cal.fts.mag.1"
p435
sI9
S"KIC8462852-20180824at042434_-25-1X1-030-g'_cal.fts.mag.1"
p436
sI10
S"KIC8462852-20180824at045132_-25-1X1-030-g'_cal.fts.mag.1"
p437
sI11
S"KIC8462852-20180824at042746_-25-1X1-030-g'_cal.fts.mag.1"
p438
sI12
S"KIC8462852-20180824at052115_-25-1X1-030-g'_cal.fts.mag.1"
p439
sI13
S"KIC8462852-20180824at042643_-25-1X1-030-g'_cal.fts.mag.1"
p440
sI14
S"KIC8462852-20180824at045338_-25-1X1-030-g'_cal.fts.mag.1"
p441
ssg121
(dp442
I0
F0.005955206224644013
sI1
Fnan
sI2
Fnan
sI3
Fnan
sI4
Fnan
sI5
Fnan
sI6
Fnan
sI7
Fnan
sI8
Fnan
sI9
Fnan
sI10
Fnan
sI11
Fnan
sI12
Fnan
sI13
Fnan
sI14
Fnan
ssg123
(dp443
I0
F7156.163333333333
sI1
F7167.42
sI2
F7209.05
sI3
F7371.03
sI4
F7391.296666666666
sI5
F7339.34
sI6
F7322.923333333334
sI7
F7347.373333333334
sI8
F7429.306666666667
sI9
F7261.423333333334
sI10
F7348.39
sI11
F7429.47
sI12
F7305.77
sI13
F7450.7733333333335
sI14
F7284.9
ssg125
(dp444
I0
F0.014374912008012154
sI1
Fnan
sI2
Fnan
sI3
Fnan
sI4
Fnan
sI5
Fnan
sI6
Fnan
sI7
Fnan
sI8
Fnan
sI9
Fnan
sI10
Fnan
sI11
Fnan
sI12
Fnan
sI13
Fnan
sI14
Fnan
ssg127
(dp445
I0
S"g'"
p446
sI1
S"g'"
p447
sI2
S"g'"
p448
sI3
S"g'"
p449
sI4
S"g'"
p450
sI5
S"g'"
p451
sI6
S"g'"
p452
sI7
S"g'"
p453
sI8
S"g'"
p454
sI9
S"g'"
p455
sI10
S"g'"
p456
sI11
S"g'"
p457
sI12
S"g'"
p458
sI13
S"g'"
p459
sI14
S"g'"
p460
ssg144
(dp461
I0
F0.0027881965150514322
sI1
Fnan
sI2
Fnan
sI3
Fnan
sI4
Fnan
sI5
Fnan
sI6
Fnan
sI7
Fnan
sI8
Fnan
sI9
Fnan
sI10
Fnan
sI11
Fnan
sI12
Fnan
sI13
Fnan
sI14
Fnan
ssg146
(dp462
I0
F3.815522
sI1
F4.103038
sI2
F4.578749
sI3
F-3.49365
sI4
F4.840532
sI5
F4.995952
sI6
F1.990056
sI7
F2.611227
sI8
F5.233565
sI9
F5.030774
sI10
F3.753468
sI11
F3.287148
sI12
F-4.16002
sI13
F3.786551
sI14
F-1.660478
ssg148
(dp463
I0
F1.5091038833616104
sI1
Fnan
sI2
Fnan
sI3
Fnan
sI4
Fnan
sI5
Fnan
sI6
Fnan
sI7
Fnan
sI8
Fnan
sI9
Fnan
sI10
Fnan
sI11
Fnan
sI12
Fnan
sI13
Fnan
sI14
Fnan
ssg150
(dp464
I0
F2458354.7031828705
sI1
Fnan
sI2
Fnan
sI3
Fnan
sI4
Fnan
sI5
Fnan
sI6
Fnan
sI7
Fnan
sI8
Fnan
sI9
Fnan
sI10
Fnan
sI11
Fnan
sI12
Fnan
sI13
Fnan
sI14
Fnan
ssg152
(dp465
I0
F0.0027881965150514322
sI1
Fnan
sI2
Fnan
sI3
Fnan
sI4
Fnan
sI5
Fnan
sI6
Fnan
sI7
Fnan
sI8
Fnan
sI9
Fnan
sI10
Fnan
sI11
Fnan
sI12
Fnan
sI13
Fnan
sI14
Fnan
ssg154
(dp466
I0
F62.68544
sI1
F62.42083
sI2
F62.86056
sI3
F62.93175
sI4
F61.2295
sI5
F62.9848
sI6
F62.43792
sI7
F61.50592
sI8
F61.88678
sI9
F63.10425
sI10
F60.99481
sI11
F60.9112
sI12
F62.64858
sI13
F62.91993
sI14
F62.22564
ssg156
(dp467
I0
F10.927
sI1
F10.936
sI2
F10.926
sI3
F10.91
sI4
F10.904
sI5
F10.916
sI6
F10.908
sI7
F10.905
sI8
F10.893
sI9
F10.915
sI10
F10.902
sI11
F10.893
sI12
F10.913
sI13
F10.894
sI14
F10.918
ssg158
(dp468
I0
F0.8697993870534595
sI1
Fnan
sI2
Fnan
sI3
Fnan
sI4
Fnan
sI5
Fnan
sI6
Fnan
sI7
Fnan
sI8
Fnan
sI9
Fnan
sI10
Fnan
sI11
Fnan
sI12
Fnan
sI13
Fnan
sI14
Fnan
sssS'V'
p469
(dp470
g3
(dp471
I0
F0.6933377016175066
sI1
Fnan
sI2
Fnan
sI3
Fnan
sI4
Fnan
sI5
Fnan
sI6
Fnan
sI7
Fnan
sI8
Fnan
sI9
Fnan
sI10
Fnan
sI11
Fnan
sI12
Fnan
sI13
Fnan
sI14
Fnan
ssg5
(dp472
I0
S'NoError'
p473
sI1
S'NoError'
p474
sI2
S'NoError'
p475
sI3
S'NoError'
p476
sI4
S'NoError'
p477
sI5
S'NoError'
p478
sI6
S'NoError'
p479
sI7
S'NoError'
p480
sI8
S'NoError'
p481
sI9
S'NoError'
p482
sI10
S'NoError'
p483
sI11
S'NoError'
p484
sI12
S'NoError'
p485
sI13
S'NoError'
p486
sI14
S'NoError'
p487
ssg22
(dp488
I0
F0.002
sI1
F0.002
sI2
F0.002
sI3
F0.002
sI4
F0.002
sI5
F0.002
sI6
F0.002
sI7
F0.002
sI8
F0.002
sI9
F0.002
sI10
F0.002
sI11
F0.002
sI12
F0.002
sI13
F0.002
sI14
F0.002
ssg24
(dp489
I0
F0.8871548637969009
sI1
F0.882828829957106
sI2
F0.8896183776803614
sI3
F0.8842682077614428
sI4
F0.8855947479643861
sI5
F0.8869964676630119
sI6
F0.8866879137526023
sI7
F0.8853824835549596
sI8
F0.8862499480853319
sI9
F0.883849463575112
sI10
F0.8886324223418539
sI11
F0.8857140454823178
sI12
F0.8834150165912409
sI13
F0.888378387028162
sI14
F0.886065594341415
ssg26
(dp490
I0
F0.0019546411119836637
sI1
Fnan
sI2
Fnan
sI3
Fnan
sI4
Fnan
sI5
Fnan
sI6
Fnan
sI7
Fnan
sI8
Fnan
sI9
Fnan
sI10
Fnan
sI11
Fnan
sI12
Fnan
sI13
Fnan
sI14
Fnan
ssg28
(dp491
I0
F0.8860557846384137
sI1
Fnan
sI2
Fnan
sI3
Fnan
sI4
Fnan
sI5
Fnan
sI6
Fnan
sI7
Fnan
sI8
Fnan
sI9
Fnan
sI10
Fnan
sI11
Fnan
sI12
Fnan
sI13
Fnan
sI14
Fnan
ssg30
(dp492
I0
F11.361
sI1
F11.374
sI2
F11.348
sI3
F11.361
sI4
F11.376
sI5
F11.376
sI6
F11.426
sI7
F11.366
sI8
F11.379
sI9
F11.403
sI10
F11.36
sI11
F11.362
sI12
F11.358
sI13
F11.343
sI14
F11.442
ssg32
(dp493
I0
F50.66269
sI1
F50.51984
sI2
F48.18949
sI3
F49.96188
sI4
F50.87408
sI5
F52.16843
sI6
F54.674
sI7
F50.30786
sI8
F53.0764
sI9
F53.69292
sI10
F50.3124
sI11
F50.35136
sI12
F49.21828
sI13
F48.93626
sI14
F54.21719
ssg34
(dp494
I0
F2458354.7180439816
sI1
F2458354.718784722
sI2
F2458354.700844907
sI3
F2458354.698587963
sI4
F2458354.7165393517
sI5
F2458354.7365393518
sI6
F2458354.7380324076
sI7
F2458354.719537037
sI8
F2458354.7357986113
sI9
F2458354.738796296
sI10
F2458354.699340278
sI11
F2458354.7172916667
sI12
F2458354.7000925927
sI13
F2458354.697835648
sI14
F2458354.7372916667
ssg36
(dp495
I0
F2.4515159333333334
sI1
Fnan
sI2
Fnan
sI3
Fnan
sI4
Fnan
sI5
Fnan
sI6
Fnan
sI7
Fnan
sI8
Fnan
sI9
Fnan
sI10
Fnan
sI11
Fnan
sI12
Fnan
sI13
Fnan
sI14
Fnan
ssg38
(dp496
I0
F2.495333
sI1
Fnan
sI2
Fnan
sI3
Fnan
sI4
Fnan
sI5
Fnan
sI6
Fnan
sI7
Fnan
sI8
Fnan
sI9
Fnan
sI10
Fnan
sI11
Fnan
sI12
Fnan
sI13
Fnan
sI14
Fnan
ssg40
(dp497
I0
F0.6898651295240711
sI1
F0.6928296349039318
sI2
F0.6981549793405925
sI3
F0.6932981682072362
sI4
F0.6943214366385856
sI5
F0.6922175368969367
sI6
F0.691278151220388
sI7
F0.6966548806768817
sI8
F0.6943257932643724
sI9
F0.69406522624974
sI10
F0.6928087451431273
sI11
F0.6959506949347831
sI12
F0.6886526997800194
sI13
F0.6958140615916047
sI14
F0.6899606617759271
ssg42
(dp498
I0
F0.0020743169959730598
sI1
Fnan
sI2
Fnan
sI3
Fnan
sI4
Fnan
sI5
Fnan
sI6
Fnan
sI7
Fnan
sI8
Fnan
sI9
Fnan
sI10
Fnan
sI11
Fnan
sI12
Fnan
sI13
Fnan
sI14
Fnan
ssg44
(dp499
I0
F2.2580550799999997
sI1
Fnan
sI2
Fnan
sI3
Fnan
sI4
Fnan
sI5
Fnan
sI6
Fnan
sI7
Fnan
sI8
Fnan
sI9
Fnan
sI10
Fnan
sI11
Fnan
sI12
Fnan
sI13
Fnan
sI14
Fnan
ssg46
(dp500
I0
g473
sI1
g474
sI2
g475
sI3
g476
sI4
g477
sI5
g478
sI6
g479
sI7
g480
sI8
g481
sI9
g482
sI10
g483
sI11
g484
sI12
g485
sI13
g486
sI14
g487
ssg48
(dp501
I0
F0.0021966113311496435
sI1
Fnan
sI2
Fnan
sI3
Fnan
sI4
Fnan
sI5
Fnan
sI6
Fnan
sI7
Fnan
sI8
Fnan
sI9
Fnan
sI10
Fnan
sI11
Fnan
sI12
Fnan
sI13
Fnan
sI14
Fnan
ssg50
(dp502
I0
F0.026499775380898847
sI1
Fnan
sI2
Fnan
sI3
Fnan
sI4
Fnan
sI5
Fnan
sI6
Fnan
sI7
Fnan
sI8
Fnan
sI9
Fnan
sI10
Fnan
sI11
Fnan
sI12
Fnan
sI13
Fnan
sI14
Fnan
ssg52
(dp503
I0
F3.0993228666666672
sI1
Fnan
sI2
Fnan
sI3
Fnan
sI4
Fnan
sI5
Fnan
sI6
Fnan
sI7
Fnan
sI8
Fnan
sI9
Fnan
sI10
Fnan
sI11
Fnan
sI12
Fnan
sI13
Fnan
sI14
Fnan
ssg54
(dp504
I0
F1.5049736567568126
sI1
F1.5034350528542109
sI2
F1.4988968698635619
sI3
F1.5037460212288967
sI4
F1.501552075098437
sI5
F1.491898992792309
sI6
F1.4979613825623164
sI7
F1.497897798139323
sI8
F1.501252828442194
sI9
F1.5056753923583543
sI10
F1.493753642576656
sI11
F1.4986839186621523
sI12
F1.5026486786787792
sI13
F1.4937383216345932
sI14
F1.4932580210117032
ssg56
(dp505
I0
g473
sI1
g474
sI2
g475
sI3
g476
sI4
g477
sI5
g478
sI6
g479
sI7
g480
sI8
g481
sI9
g482
sI10
g483
sI11
g484
sI12
g485
sI13
g486
sI14
g487
ssg58
(dp506
I0
F50.47526
sI1
F52.1761
sI2
F49.02046
sI3
F50.80507
sI4
F51.67813
sI5
F53.27083
sI6
F54.22582
sI7
F51.25407
sI8
F53.50279
sI9
F53.62769
sI10
F50.29837
sI11
F50.63794
sI12
F49.34917
sI13
F49.8848
sI14
F55.03282
ssg60
(dp507
I0
F10.705466666666668
sI1
Fnan
sI2
Fnan
sI3
Fnan
sI4
Fnan
sI5
Fnan
sI6
Fnan
sI7
Fnan
sI8
Fnan
sI9
Fnan
sI10
Fnan
sI11
Fnan
sI12
Fnan
sI13
Fnan
sI14
Fnan
ssg62
(dp508
I0
F0.7193613737772843
sI1
Fnan
sI2
Fnan
sI3
Fnan
sI4
Fnan
sI5
Fnan
sI6
Fnan
sI7
Fnan
sI8
Fnan
sI9
Fnan
sI10
Fnan
sI11
Fnan
sI12
Fnan
sI13
Fnan
sI14
Fnan
ssg64
(dp509
I0
F-2.106839
sI1
F2.546596
sI2
F3.723784
sI3
F5.311067
sI4
F-1.850587
sI5
F3.839394
sI6
F4.170867
sI7
F-1.967939
sI8
F4.170838
sI9
F4.195769
sI10
F-1.869641
sI11
F6.171545
sI12
F1.168736
sI13
F4.167027
sI14
F5.759378
ssg66
(dp510
I0
F11.067333333333332
sI1
Fnan
sI2
Fnan
sI3
Fnan
sI4
Fnan
sI5
Fnan
sI6
Fnan
sI7
Fnan
sI8
Fnan
sI9
Fnan
sI10
Fnan
sI11
Fnan
sI12
Fnan
sI13
Fnan
sI14
Fnan
ssg68
(dp511
I0
g473
sI1
g474
sI2
g475
sI3
g476
sI4
g477
sI5
g478
sI6
g479
sI7
g480
sI8
g481
sI9
g482
sI10
g483
sI11
g484
sI12
g485
sI13
g486
sI14
g487
ssg70
(dp512
I0
F9583.703333333333
sI1
F9398.890000000001
sI2
F9598.893333333333
sI3
F9511.18
sI4
F9379.506666666666
sI5
F9413.603333333333
sI6
F9008.130000000001
sI7
F9434.59
sI8
F9353.640000000001
sI9
F9140.843333333332
sI10
F9561.856666666667
sI11
F9480.630000000001
sI12
F9600.230000000001
sI13
F9669.1
sI14
F8885.42
ssg72
(dp513
I0
F1.006615
sI1
F1.0064
sI2
F1.0150549999999998
sI3
F1.016656
sI4
F1.007083
sI5
F1.0049299999999999
sI6
F1.005127
sI7
F1.006199
sI8
F1.004851
sI9
F1.0052450000000002
sI10
F1.016111
sI11
F1.006842
sI12
F1.015573
sI13
F1.01722
sI14
F1.0050219999999999
ssg74
(dp514
I0
F8213.396666666666
sI1
F8121.946666666667
sI2
F8223.12
sI3
F8197.386666666667
sI4
F8076.693333333333
sI5
F8135.243333333333
sI6
F7759.77
sI7
F8145.39
sI8
F8046.986666666667
sI9
F7874.426666666666
sI10
F8231.18
sI11
F8176.586666666667
sI12
F8291.71
sI13
F8327.140000000001
sI14
F7684.3933333333325
ssg76
(dp515
I0
F13392.083333333334
sI1
F13170.72
sI2
F13356.68
sI3
F13314.593333333332
sI4
F13105.696666666667
sI5
F13090.553333333333
sI6
F12558.833333333334
sI7
F13166.506666666666
sI8
F13061.369999999999
sI9
F12809.736666666666
sI10
F13289.206666666667
sI11
F13231.293333333333
sI12
F13442.65
sI13
F13440.836666666666
sI14
F12371.503333333332
ssg78
(dp516
I0
F50.56285
sI1
F51.36892
sI2
F48.5638
sI3
F49.35519
sI4
F50.71589
sI5
F53.30614
sI6
F54.50926
sI7
F50.69463
sI8
F53.90702
sI9
F53.61151
sI10
F49.74255
sI11
F49.58715
sI12
F48.91077
sI13
F49.38778
sI14
F55.00396
ssg80
(dp517
I0
F11.214
sI1
F11.226
sI2
F11.212
sI3
F11.216
sI4
F11.232
sI5
F11.224
sI6
F11.275
sI7
F11.223
sI8
F11.236
sI9
F11.259
sI10
F11.211
sI11
F11.219
sI12
F11.203
sI13
F11.199
sI14
F11.286
ssg82
(dp518
I0
F0.002
sI1
F0.002
sI2
F0.002
sI3
F0.002
sI4
F0.002
sI5
F0.002
sI6
F0.002
sI7
F0.002
sI8
F0.002
sI9
F0.002
sI10
F0.002
sI11
F0.002
sI12
F0.002
sI13
F0.002
sI14
F0.002
ssg84
(dp519
I0
F0.69334652000988
sI1
Fnan
sI2
Fnan
sI3
Fnan
sI4
Fnan
sI5
Fnan
sI6
Fnan
sI7
Fnan
sI8
Fnan
sI9
Fnan
sI10
Fnan
sI11
Fnan
sI12
Fnan
sI13
Fnan
sI14
Fnan
ssg86
(dp520
I0
F11.229000000000003
sI1
Fnan
sI2
Fnan
sI3
Fnan
sI4
Fnan
sI5
Fnan
sI6
Fnan
sI7
Fnan
sI8
Fnan
sI9
Fnan
sI10
Fnan
sI11
Fnan
sI12
Fnan
sI13
Fnan
sI14
Fnan
ssg88
(dp521
I0
F11.046
sI1
F11.067
sI2
F11.044
sI3
F11.054
sI4
F11.07
sI5
F11.066
sI6
F11.113
sI7
F11.063
sI8
F11.073
sI9
F11.098
sI10
F11.049
sI11
F11.058
sI12
F11.044
sI13
F11.037
sI14
F11.128
ssg90
(dp522
I0
F3.855972
sI1
F-2.003706
sI2
F-3.267348
sI3
F5.068822
sI4
F4.406574
sI5
F2.468082
sI6
F2.881205
sI7
F-2.959263
sI8
F4.232738
sI9
F3.809362
sI10
F4.446179
sI11
F4.011688
sI12
F4.273719
sI13
F2.452179
sI14
F3.096536
ssg92
(dp523
I0
F0.026551477404863015
sI1
Fnan
sI2
Fnan
sI3
Fnan
sI4
Fnan
sI5
Fnan
sI6
Fnan
sI7
Fnan
sI8
Fnan
sI9
Fnan
sI10
Fnan
sI11
Fnan
sI12
Fnan
sI13
Fnan
sI14
Fnan
ssg94
(dp524
I0
F0.714961083668372
sI1
F0.7197241482388633
sI2
F0.7164377801062691
sI3
F0.7182570813226921
sI4
F0.718400737907492
sI5
F0.7229991733379033
sI6
F0.7195978293343415
sI7
F0.7207959967724281
sI8
F0.7179998283888043
sI9
F0.717468665216743
sI10
F0.7204198666757886
sI11
F0.720025912967594
sI12
F0.7196765334888693
sI13
F0.7206545063371731
sI14
F0.7230014628959317
ssg96
(dp525
I0
F30.0
sI1
F30.0
sI2
F30.0
sI3
F30.0
sI4
F30.0
sI5
F30.0
sI6
F30.0
sI7
F30.0
sI8
F30.0
sI9
F30.0
sI10
F30.0
sI11
F30.0
sI12
F30.0
sI13
F30.0
sI14
F30.0
ssg98
(dp526
I0
F0.002
sI1
F0.002
sI2
F0.002
sI3
F0.002
sI4
F0.002
sI5
F0.002
sI6
F0.002
sI7
F0.002
sI8
F0.002
sI9
F0.002
sI10
F0.002
sI11
F0.002
sI12
F0.002
sI13
F0.002
sI14
F0.002
ssg100
(dp527
I0
F0.002
sI1
F0.002
sI2
F0.002
sI3
F0.002
sI4
F0.002
sI5
F0.002
sI6
F0.002
sI7
F0.002
sI8
F0.002
sI9
F0.002
sI10
F0.002
sI11
F0.002
sI12
F0.002
sI13
F0.002
sI14
F0.002
ssg102
(dp528
I0
F-1.927412
sI1
F-3.512583
sI2
F1.371815
sI3
F4.328422
sI4
F3.365707
sI5
F4.881768
sI6
F5.077052
sI7
F3.099148
sI8
F4.57511
sI9
F4.913247
sI10
F3.637244
sI11
F4.599849
sI12
F5.768424
sI13
F1.394561
sI14
F4.917491
ssg104
(dp529
I0
S'KIC8462852-20180824at051359_-25-1X1-030-V_cal.fts.mag.1'
p530
sI1
S'KIC8462852-20180824at051503_-25-1X1-030-V_cal.fts.mag.1'
p531
sI2
S'KIC8462852-20180824at044913_-25-1X1-030-V_cal.fts.mag.1'
p532
sI3
S'KIC8462852-20180824at044558_-25-1X1-030-V_cal.fts.mag.1'
p533
sI4
S'KIC8462852-20180824at051142_-25-1X1-030-V_cal.fts.mag.1'
p534
sI5
S'KIC8462852-20180824at054037_-25-1X1-030-V_cal.fts.mag.1'
p535
sI6
S'KIC8462852-20180824at054246_-25-1X1-030-V_cal.fts.mag.1'
p536
sI7
S'KIC8462852-20180824at051608_-25-1X1-030-V_cal.fts.mag.1'
p537
sI8
S'KIC8462852-20180824at053926_-25-1X1-030-V_cal.fts.mag.1'
p538
sI9
S'KIC8462852-20180824at054352_-25-1X1-030-V_cal.fts.mag.1'
p539
sI10
S'KIC8462852-20180824at044703_-25-1X1-030-V_cal.fts.mag.1'
p540
sI11
S'KIC8462852-20180824at051254_-25-1X1-030-V_cal.fts.mag.1'
p541
sI12
S'KIC8462852-20180824at044808_-25-1X1-030-V_cal.fts.mag.1'
p542
sI13
S'KIC8462852-20180824at044446_-25-1X1-030-V_cal.fts.mag.1'
p543
sI14
S'KIC8462852-20180824at054142_-25-1X1-030-V_cal.fts.mag.1'
p544
ssg121
(dp545
I0
F0.004528281178315157
sI1
Fnan
sI2
Fnan
sI3
Fnan
sI4
Fnan
sI5
Fnan
sI6
Fnan
sI7
Fnan
sI8
Fnan
sI9
Fnan
sI10
Fnan
sI11
Fnan
sI12
Fnan
sI13
Fnan
sI14
Fnan
ssg123
(dp546
I0
F7172.11
sI1
F7088.006666666667
sI2
F7255.8533333333335
sI3
F7169.433333333333
sI4
F7073.259999999999
sI5
F7069.71
sI6
F6757.6433333333325
sI7
F7139.8966666666665
sI8
F7050.183333333333
sI9
F6900.166666666667
sI10
F7178.016666666666
sI11
F7165.626666666666
sI12
F7192.883333333333
sI13
F7291.453333333334
sI14
F6656.123333333334
ssg125
(dp547
I0
F0.02546145546283083
sI1
Fnan
sI2
Fnan
sI3
Fnan
sI4
Fnan
sI5
Fnan
sI6
Fnan
sI7
Fnan
sI8
Fnan
sI9
Fnan
sI10
Fnan
sI11
Fnan
sI12
Fnan
sI13
Fnan
sI14
Fnan
ssg127
(dp548
I0
g469
sI1
g469
sI2
g469
sI3
g469
sI4
g469
sI5
g469
sI6
g469
sI7
g469
sI8
g469
sI9
g469
sI10
g469
sI11
g469
sI12
g469
sI13
g469
sI14
g469
ssg144
(dp549
I0
F0.0026871456366389947
sI1
Fnan
sI2
Fnan
sI3
Fnan
sI4
Fnan
sI5
Fnan
sI6
Fnan
sI7
Fnan
sI8
Fnan
sI9
Fnan
sI10
Fnan
sI11
Fnan
sI12
Fnan
sI13
Fnan
sI14
Fnan
ssg146
(dp550
I0
F2.411438
sI1
F3.142745
sI2
F0.4946862
sI3
F4.490963
sI4
F3.63619
sI5
F5.349514
sI6
F3.26779
sI7
F-3.495656
sI8
F5.370589
sI9
F3.676893
sI10
F3.69015
sI11
F-3.377857
sI12
F3.823246
sI13
F-4.270389
sI14
F5.660524
ssg148
(dp551
I0
F1.4992915101773532
sI1
Fnan
sI2
Fnan
sI3
Fnan
sI4
Fnan
sI5
Fnan
sI6
Fnan
sI7
Fnan
sI8
Fnan
sI9
Fnan
sI10
Fnan
sI11
Fnan
sI12
Fnan
sI13
Fnan
sI14
Fnan
ssg150
(dp552
I0
F2458354.7180439816
sI1
Fnan
sI2
Fnan
sI3
Fnan
sI4
Fnan
sI5
Fnan
sI6
Fnan
sI7
Fnan
sI8
Fnan
sI9
Fnan
sI10
Fnan
sI11
Fnan
sI12
Fnan
sI13
Fnan
sI14
Fnan
ssg152
(dp553
I0
F0.0026871456366389947
sI1
Fnan
sI2
Fnan
sI3
Fnan
sI4
Fnan
sI5
Fnan
sI6
Fnan
sI7
Fnan
sI8
Fnan
sI9
Fnan
sI10
Fnan
sI11
Fnan
sI12
Fnan
sI13
Fnan
sI14
Fnan
ssg154
(dp554
I0
F51.75038
sI1
F53.26492
sI2
F51.53324
sI3
F52.2014
sI4
F53.02036
sI5
F56.12615
sI6
F55.99557
sI7
F53.29328
sI8
F55.63198
sI9
F54.58913
sI10
F52.17217
sI11
F52.46048
sI12
F52.12509
sI13
F52.19603
sI14
F57.23886
ssg156
(dp555
I0
F10.683
sI1
F10.701
sI2
F10.686
sI3
F10.689
sI4
F10.706
sI5
F10.708
sI6
F10.753
sI7
F10.701
sI8
F10.71
sI9
F10.731
sI10
F10.691
sI11
F10.696
sI12
F10.679
sI13
F10.679
sI14
F10.769
ssg158
(dp556
I0
F0.69334652000988
sI1
Fnan
sI2
Fnan
sI3
Fnan
sI4
Fnan
sI5
Fnan
sI6
Fnan
sI7
Fnan
sI8
Fnan
sI9
Fnan
sI10
Fnan
sI11
Fnan
sI12
Fnan
sI13
Fnan
sI14
Fnan
sss.