(dp0
S'V'
p1
(dp2
S'sigmean'
p3
(dp4
I0
F0.6910909671153589
sI1
Fnan
sI2
Fnan
sI3
Fnan
sI4
Fnan
sI5
Fnan
sI6
Fnan
sI7
Fnan
sI8
Fnan
sI9
Fnan
sI10
Fnan
sI11
Fnan
sI12
Fnan
sI13
Fnan
sI14
Fnan
ssS'ref3flag'
p5
(dp6
I0
S'NoError'
p7
sI1
S'NoError'
p8
sI2
S'NoError'
p9
sI3
S'NoError'
p10
sI4
S'NoError'
p11
sI5
S'NoError'
p12
sI6
S'NoError'
p13
sI7
S'NoError'
p14
sI8
S'NoError'
p15
sI9
S'NoError'
p16
sI10
S'NoError'
p17
sI11
S'NoError'
p18
sI12
S'NoError'
p19
sI13
S'NoError'
p20
sI14
S'NoError'
p21
ssS'tabbyerr'
p22
(dp23
I0
F0.003
sI1
F0.003
sI2
F0.002
sI3
F0.003
sI4
F0.003
sI5
F0.003
sI6
F0.003
sI7
F0.003
sI8
F0.003
sI9
F0.003
sI10
F0.003
sI11
F0.002
sI12
F0.003
sI13
F0.003
sI14
F0.003
ssS'ref2rel'
p24
(dp25
I0
F0.8896033007557392
sI1
F0.8875068894350477
sI2
F0.8842201531056885
sI3
F0.8857274579096002
sI4
F0.8909075374019376
sI5
F0.8844014454316119
sI6
F0.8894264281113938
sI7
F0.884957260457221
sI8
F0.8866179098766718
sI9
F0.8883269262274489
sI10
F0.8871568315603047
sI11
F0.8894674617872437
sI12
F0.8858568862336836
sI13
F0.8873983496010852
sI14
F0.8907355978149544
ssS'ref2err'
p26
(dp27
I0
F0.0022093896623351537
sI1
Fnan
sI2
Fnan
sI3
Fnan
sI4
Fnan
sI5
Fnan
sI6
Fnan
sI7
Fnan
sI8
Fnan
sI9
Fnan
sI10
Fnan
sI11
Fnan
sI12
Fnan
sI13
Fnan
sI14
Fnan
ssS'ref2mean'
p28
(dp29
I0
F0.8874873623806422
sI1
Fnan
sI2
Fnan
sI3
Fnan
sI4
Fnan
sI5
Fnan
sI6
Fnan
sI7
Fnan
sI8
Fnan
sI9
Fnan
sI10
Fnan
sI11
Fnan
sI12
Fnan
sI13
Fnan
sI14
Fnan
ssS'tabbymag'
p30
(dp31
I0
F11.599
sI1
F11.621
sI2
F11.587
sI3
F11.604
sI4
F11.628
sI5
F11.613
sI6
F11.598
sI7
F11.611
sI8
F11.606
sI9
F11.598
sI10
F11.622
sI11
F11.592
sI12
F11.599
sI13
F11.607
sI14
F11.596
ssS'tabbybkg'
p32
(dp33
I0
F11.43246
sI1
F11.77301
sI2
F11.77503
sI3
F11.77698
sI4
F10.54824
sI5
F11.43367
sI6
F11.09271
sI7
F9.715724
sI8
F10.07092
sI9
F11.46127
sI10
F10.95637
sI11
F11.70822
sI12
F10.46466
sI13
F11.75228
sI14
F10.96159
ssS'JD'
p34
(dp35
I0
F2458600.934537037
sI1
F2458600.933923611
sI2
F2458600.932685185
sI3
F2458600.9197453703
sI4
F2458600.904328704
sI5
F2458600.920358796
sI6
F2458600.935150463
sI7
F2458600.9031134257
sI8
F2458600.9055555556
sI9
F2458600.9185185186
sI10
F2458600.903726852
sI11
F2458600.9179050927
sI12
F2458600.9049537037
sI13
F2458600.933298611
sI14
F2458600.9191319444
ssS'ref3rmsmean'
p36
(dp37
I0
F2.305893933333333
sI1
Fnan
sI2
Fnan
sI3
Fnan
sI4
Fnan
sI5
Fnan
sI6
Fnan
sI7
Fnan
sI8
Fnan
sI9
Fnan
sI10
Fnan
sI11
Fnan
sI12
Fnan
sI13
Fnan
sI14
Fnan
ssS'ref1rmsmean'
p38
(dp39
I0
F2.176532933333333
sI1
Fnan
sI2
Fnan
sI3
Fnan
sI4
Fnan
sI5
Fnan
sI6
Fnan
sI7
Fnan
sI8
Fnan
sI9
Fnan
sI10
Fnan
sI11
Fnan
sI12
Fnan
sI13
Fnan
sI14
Fnan
ssS'relflux'
p40
(dp41
I0
F0.6944384120466353
sI1
F0.691099794721958
sI2
F0.6895426942580786
sI3
F0.6898452537132412
sI4
F0.6876010700537628
sI5
F0.6897279543078116
sI6
F0.6894482925543559
sI7
F0.6928265542862257
sI8
F0.6936397193432808
sI9
F0.6914479483775471
sI10
F0.6902000730129938
sI11
F0.691654234469211
sI12
F0.6950938345744117
sI13
F0.6916643192851232
sI14
F0.6919947670544803
ssS'sigerr'
p42
(dp43
I0
F0.001303763721467929
sI1
Fnan
sI2
Fnan
sI3
Fnan
sI4
Fnan
sI5
Fnan
sI6
Fnan
sI7
Fnan
sI8
Fnan
sI9
Fnan
sI10
Fnan
sI11
Fnan
sI12
Fnan
sI13
Fnan
sI14
Fnan
ssS'tabbyrmsmean'
p44
(dp45
I0
F1.7750133333333333
sI1
Fnan
sI2
Fnan
sI3
Fnan
sI4
Fnan
sI5
Fnan
sI6
Fnan
sI7
Fnan
sI8
Fnan
sI9
Fnan
sI10
Fnan
sI11
Fnan
sI12
Fnan
sI13
Fnan
sI14
Fnan
ssS'tabbyflag'
p46
(dp47
I0
g7
sI1
g8
sI2
g9
sI3
g10
sI4
g11
sI5
g12
sI6
g13
sI7
g14
sI8
g15
sI9
g16
sI10
g17
sI11
g18
sI12
g19
sI13
g20
sI14
g21
ssS'ref1err'
p48
(dp49
I0
F0.0023150502226573764
sI1
Fnan
sI2
Fnan
sI3
Fnan
sI4
Fnan
sI5
Fnan
sI6
Fnan
sI7
Fnan
sI8
Fnan
sI9
Fnan
sI10
Fnan
sI11
Fnan
sI12
Fnan
sI13
Fnan
sI14
Fnan
ssS'ref2magmeanerr'
p50
(dp51
I0
F0.011254628677422699
sI1
Fnan
sI2
Fnan
sI3
Fnan
sI4
Fnan
sI5
Fnan
sI6
Fnan
sI7
Fnan
sI8
Fnan
sI9
Fnan
sI10
Fnan
sI11
Fnan
sI12
Fnan
sI13
Fnan
sI14
Fnan
ssS'ref2rmsmean'
p52
(dp53
I0
F1.1222206666666665
sI1
Fnan
sI2
Fnan
sI3
Fnan
sI4
Fnan
sI5
Fnan
sI6
Fnan
sI7
Fnan
sI8
Fnan
sI9
Fnan
sI10
Fnan
sI11
Fnan
sI12
Fnan
sI13
Fnan
sI14
Fnan
ssS'ref3rel'
p54
(dp55
I0
F1.5017770838747933
sI1
F1.5060530216949415
sI2
F1.5031531788871544
sI3
F1.5065726663992958
sI4
F1.5081841021617535
sI5
F1.507097339809792
sI6
F1.501576815781562
sI7
F1.503684615743494
sI8
F1.508140353099128
sI9
F1.503984881156539
sI10
F1.5005300467341003
sI11
F1.496717123716359
sI12
F1.503136598470079
sI13
F1.507415931903728
sI14
F1.5005613235496889
ssS'ref1flag'
p56
(dp57
I0
g7
sI1
g8
sI2
g9
sI3
g10
sI4
g11
sI5
g12
sI6
g13
sI7
g14
sI8
g15
sI9
g16
sI10
g17
sI11
g18
sI12
g19
sI13
g20
sI14
g21
ssS'ref2bkg'
p58
(dp59
I0
F11.75908
sI1
F12.41873
sI2
F12.27812
sI3
F12.35577
sI4
F10.60258
sI5
F11.21774
sI6
F11.50273
sI7
F10.78462
sI8
F11.42377
sI9
F11.43152
sI10
F11.26264
sI11
F11.14751
sI12
F11.01225
sI13
F11.08345
sI14
F11.41998
ssS'ref3magmean'
p60
(dp61
I0
F10.930200000000001
sI1
Fnan
sI2
Fnan
sI3
Fnan
sI4
Fnan
sI5
Fnan
sI6
Fnan
sI7
Fnan
sI8
Fnan
sI9
Fnan
sI10
Fnan
sI11
Fnan
sI12
Fnan
sI13
Fnan
sI14
Fnan
ssS'ref1mean'
p62
(dp63
I0
F0.7153131577253199
sI1
Fnan
sI2
Fnan
sI3
Fnan
sI4
Fnan
sI5
Fnan
sI6
Fnan
sI7
Fnan
sI8
Fnan
sI9
Fnan
sI10
Fnan
sI11
Fnan
sI12
Fnan
sI13
Fnan
sI14
Fnan
ssS'ref1rms'
p64
(dp65
I0
F4.191825
sI1
F-1.48477
sI2
F4.487469
sI3
F2.927932
sI4
F-2.238271
sI5
F2.668827
sI6
F4.469152
sI7
F2.620354
sI8
F3.096735
sI9
F3.221354
sI10
F2.981134
sI11
F3.015902
sI12
F-2.846068
sI13
F2.024805
sI14
F3.511614
ssS'ref2magmean'
p66
(dp67
I0
F11.292666666666666
sI1
Fnan
sI2
Fnan
sI3
Fnan
sI4
Fnan
sI5
Fnan
sI6
Fnan
sI7
Fnan
sI8
Fnan
sI9
Fnan
sI10
Fnan
sI11
Fnan
sI12
Fnan
sI13
Fnan
sI14
Fnan
ssS'ref2flag'
p68
(dp69
I0
g7
sI1
g8
sI2
g9
sI3
g10
sI4
g11
sI5
g12
sI6
g13
sI7
g14
sI8
g15
sI9
g16
sI10
g17
sI11
g18
sI12
g19
sI13
g20
sI14
g21
ssS'ref2'
p70
(dp71
I0
F7659.9766666666665
sI1
F7533.37
sI2
F7770.183333333333
sI3
F7652.803333333333
sI4
F7542.15
sI5
F7580.126666666666
sI6
F7719.75
sI7
F7563.663333333333
sI8
F7600.3133333333335
sI9
F7690.679999999999
sI10
F7530.453333333334
sI11
F7739.12
sI12
F7632.966666666666
sI13
F7619.206666666667
sI14
F7718.46
ssS'airmass'
p72
(dp73
I0
F1.192114
sI1
F1.1942540000000001
sI2
F1.19856
sI3
F1.24803
sI4
F1.317893
sI5
F1.245522
sI6
F1.19
sI7
F1.3240239999999999
sI8
F1.311877
sI9
F1.25316
sI10
F1.3209790000000001
sI11
F1.2557209999999999
sI12
F1.3148959999999998
sI13
F1.196409
sI14
F1.250575
ssS'ref1'
p74
(dp75
I0
F6550.570000000001
sI1
F6448.076666666666
sI2
F6699.87
sI3
F6567.96
sI4
F6410.1033333333335
sI5
F6518.113333333333
sI6
F6604.4766666666665
sI7
F6511.526666666667
sI8
F6506.7733333333335
sI9
F6582.016666666666
sI10
F6471.456666666667
sI11
F6640.546666666666
sI12
F6563.41
sI13
F6517.25
sI14
F6592.953333333334
ssS'ref3'
p76
(dp77
I0
F10670.536666666665
sI1
F10528.4
sI2
F10875.353333333333
sI3
F10712.306666666667
sI4
F10521.283333333333
sI5
F10623.71
sI6
F10754.463333333335
sI7
F10582.323333333334
sI8
F10637.733333333334
sI9
F10732.96
sI10
F10505.143333333333
sI11
F10761.146666666667
sI12
F10669.546666666667
sI13
F10654.76
sI14
F10737.576666666666
ssS'ref1bkg'
p78
(dp79
I0
F11.28403
sI1
F12.06188
sI2
F11.30733
sI3
F10.56634
sI4
F11.31506
sI5
F11.11368
sI6
F10.59185
sI7
F10.1065
sI8
F11.84643
sI9
F12.16956
sI10
F10.59505
sI11
F11.49336
sI12
F11.31686
sI13
F12.30362
sI14
F11.2439
ssS'ref1mag'
p80
(dp81
I0
F11.459
sI1
F11.476
sI2
F11.435
sI3
F11.456
sI4
F11.483
sI5
F11.465
sI6
F11.45
sI7
F11.466
sI8
F11.467
sI9
F11.454
sI10
F11.472
sI11
F11.444
sI12
F11.457
sI13
F11.465
sI14
F11.452
ssS'ref3magerr'
p82
(dp83
I0
F0.002
sI1
F0.002
sI2
F0.002
sI3
F0.002
sI4
F0.002
sI5
F0.002
sI6
F0.002
sI7
F0.002
sI8
F0.002
sI9
F0.002
sI10
F0.002
sI11
F0.002
sI12
F0.002
sI13
F0.002
sI14
F0.002
ssS'tabbymagmean'
p84
(dp85
I0
F11.6054
sI1
Fnan
sI2
Fnan
sI3
Fnan
sI4
Fnan
sI5
Fnan
sI6
Fnan
sI7
Fnan
sI8
Fnan
sI9
Fnan
sI10
Fnan
sI11
Fnan
sI12
Fnan
sI13
Fnan
sI14
Fnan
ssS'ref1magmean'
p86
(dp87
I0
F11.460066666666666
sI1
Fnan
sI2
Fnan
sI3
Fnan
sI4
Fnan
sI5
Fnan
sI6
Fnan
sI7
Fnan
sI8
Fnan
sI9
Fnan
sI10
Fnan
sI11
Fnan
sI12
Fnan
sI13
Fnan
sI14
Fnan
ssS'ref2mag'
p88
(dp89
I0
F11.289
sI1
F11.308
sI2
F11.274
sI3
F11.29
sI4
F11.306
sI5
F11.301
sI6
F11.281
sI7
F11.303
sI8
F11.298
sI9
F11.285
sI10
F11.308
sI11
F11.278
sI12
F11.293
sI13
F11.295
sI14
F11.281
ssS'ref3rms'
p90
(dp91
I0
F2.791862
sI1
F2.317358
sI2
F2.995774
sI3
F-3.069947
sI4
F-3.23871
sI5
F2.913782
sI6
F4.039101
sI7
F3.462834
sI8
F3.550295
sI9
F3.13261
sI10
F1.692576
sI11
F3.132198
sI12
F3.168899
sI13
F4.300326
sI14
F3.399451
ssS'ref3magmeanerr'
p92
(dp93
I0
F0.010448513223010629
sI1
Fnan
sI2
Fnan
sI3
Fnan
sI4
Fnan
sI5
Fnan
sI6
Fnan
sI7
Fnan
sI8
Fnan
sI9
Fnan
sI10
Fnan
sI11
Fnan
sI12
Fnan
sI13
Fnan
sI14
Fnan
ssS'ref1rel'
p94
(dp95
I0
F0.7147175729212167
sI1
F0.7140027435480206
sI2
F0.7186567080128738
sI3
F0.7152649779935977
sI4
F0.7097325536119933
sI5
F0.7161252270812508
sI6
F0.71499408905819
sI7
F0.7176822937523742
sI8
F0.7135384015905212
sI9
F0.7145185931408415
sI10
F0.7176315578876514
sI11
F0.7178865890221402
sI12
F0.7172140656820539
sI13
F0.7132824655840093
sI14
F0.7144495269930652
ssS'exposure'
p96
(dp97
I0
F30.0
sI1
F30.0
sI2
F30.0
sI3
F30.0
sI4
F30.0
sI5
F30.0
sI6
F30.0
sI7
F30.0
sI8
F30.0
sI9
F30.0
sI10
F30.0
sI11
F30.0
sI12
F30.0
sI13
F30.0
sI14
F30.0
ssS'ref1magerr'
p98
(dp99
I0
F0.002
sI1
F0.002
sI2
F0.002
sI3
F0.002
sI4
F0.002
sI5
F0.002
sI6
F0.002
sI7
F0.002
sI8
F0.002
sI9
F0.002
sI10
F0.002
sI11
F0.002
sI12
F0.002
sI13
F0.002
sI14
F0.002
ssS'ref2magerr'
p100
(dp101
I0
F0.002
sI1
F0.002
sI2
F0.002
sI3
F0.002
sI4
F0.002
sI5
F0.002
sI6
F0.002
sI7
F0.002
sI8
F0.002
sI9
F0.002
sI10
F0.002
sI11
F0.002
sI12
F0.002
sI13
F0.002
sI14
F0.002
ssS'ref2rms'
p102
(dp103
I0
F2.588952
sI1
F3.221277
sI2
F-1.505068
sI3
F-3.201198
sI4
F-1.351259
sI5
F3.500234
sI6
F2.775777
sI7
F2.580427
sI8
F-1.997619
sI9
F3.832342
sI10
F-1.785683
sI11
F3.214505
sI12
F-2.921825
sI13
F3.747364
sI14
F4.135084
ssS'name'
p104
(dp105
I0
S'KIC8462852-20190427at102544_-25-1X1-030-V.fts.mag.1'
p106
sI1
S'KIC8462852-20190427at102451_-25-1X1-030-V.fts.mag.1'
p107
sI2
S'KIC8462852-20190427at102258_-25-1X1-030-V.fts.mag.1'
p108
sI3
S'KIC8462852-20190427at100426_-25-1X1-030-V.fts.mag.1'
p109
sI4
S'KIC8462852-20190427at094214_-25-1X1-030-V.fts.mag.1'
p110
sI5
S'KIC8462852-20190427at100519_-25-1X1-030-V.fts.mag.1'
p111
sI6
S'KIC8462852-20190427at102637_-25-1X1-030-V.fts.mag.1'
p112
sI7
S'KIC8462852-20190427at094023_-25-1X1-030-V.fts.mag.1'
p113
sI8
S'KIC8462852-20190427at094400_-25-1X1-030-V.fts.mag.1'
p114
sI9
S'KIC8462852-20190427at100240_-25-1X1-030-V.fts.mag.1'
p115
sI10
S'KIC8462852-20190427at094122_-25-1X1-030-V.fts.mag.1'
p116
sI11
S'KIC8462852-20190427at100141_-25-1X1-030-V.fts.mag.1'
p117
sI12
S'KIC8462852-20190427at094308_-25-1X1-030-V.fts.mag.1'
p118
sI13
S'KIC8462852-20190427at102357_-25-1X1-030-V.fts.mag.1'
p119
sI14
S'KIC8462852-20190427at100333_-25-1X1-030-V.fts.mag.1'
p120
ssS'ref3err'
p121
(dp122
I0
F0.00333693811801762
sI1
Fnan
sI2
Fnan
sI3
Fnan
sI4
Fnan
sI5
Fnan
sI6
Fnan
sI7
Fnan
sI8
Fnan
sI9
Fnan
sI10
Fnan
sI11
Fnan
sI12
Fnan
sI13
Fnan
sI14
Fnan
ssS'tabby'
p123
(dp124
I0
F5759.46
sI1
F5646.25
sI2
F5825.58
sI3
F5733.320000000001
sI4
F5609.343333333333
sI5
F5683.806666666667
sI6
F5763.486666666667
sI7
F5694.46
sI8
F5721.33
sI9
F5763.37
sI10
F5638.256666666667
sI11
F5796.25
sI12
F5761.383333333333
sI13
F5715.733333333334
sI14
F5777.923333333334
ssS'ref1magmeanerr'
p125
(dp126
I0
F0.012452576707921385
sI1
Fnan
sI2
Fnan
sI3
Fnan
sI4
Fnan
sI5
Fnan
sI6
Fnan
sI7
Fnan
sI8
Fnan
sI9
Fnan
sI10
Fnan
sI11
Fnan
sI12
Fnan
sI13
Fnan
sI14
Fnan
ssS'filter'
p127
(dp128
I0
g1
sI1
g1
sI2
g1
sI3
g1
sI4
g1
sI5
g1
sI6
g1
sI7
g1
sI8
g1
sI9
g1
sI10
g1
sI11
g1
sI12
g1
sI13
g1
sI14
g1
ssS'tabbymagerr'
p129
(dp130
I0
F0.011715679359607857
sI1
Fnan
sI2
Fnan
sI3
Fnan
sI4
Fnan
sI5
Fnan
sI6
Fnan
sI7
Fnan
sI8
Fnan
sI9
Fnan
sI10
Fnan
sI11
Fnan
sI12
Fnan
sI13
Fnan
sI14
Fnan
ssS'tabbyrms'
p131
(dp132
I0
F2.387429
sI1
F2.770831
sI2
F-1.623478
sI3
F-1.563758
sI4
F4.136643
sI5
F-3.358072
sI6
F3.805821
sI7
F3.836937
sI8
F4.249853
sI9
F1.164134
sI10
F-3.026237
sI11
F2.566083
sI12
F3.420608
sI13
F3.466665
sI14
F4.391741
ssS'ref3mean'
p133
(dp134
I0
F1.503905672198827
sI1
Fnan
sI2
Fnan
sI3
Fnan
sI4
Fnan
sI5
Fnan
sI6
Fnan
sI7
Fnan
sI8
Fnan
sI9
Fnan
sI10
Fnan
sI11
Fnan
sI12
Fnan
sI13
Fnan
sI14
Fnan
ssS'median_JD'
p135
(dp136
I0
F2458600.9191319444
sI1
Fnan
sI2
Fnan
sI3
Fnan
sI4
Fnan
sI5
Fnan
sI6
Fnan
sI7
Fnan
sI8
Fnan
sI9
Fnan
sI10
Fnan
sI11
Fnan
sI12
Fnan
sI13
Fnan
sI14
Fnan
ssS'error'
p137
(dp138
I0
F0.0020495956853239143
sI1
Fnan
sI2
Fnan
sI3
Fnan
sI4
Fnan
sI5
Fnan
sI6
Fnan
sI7
Fnan
sI8
Fnan
sI9
Fnan
sI10
Fnan
sI11
Fnan
sI12
Fnan
sI13
Fnan
sI14
Fnan
ssS'ref3bkg'
p139
(dp140
I0
F13.47216
sI1
F12.66082
sI2
F13.20423
sI3
F13.1271
sI4
F12.88709
sI5
F12.16782
sI6
F11.63603
sI7
F11.77921
sI8
F11.78084
sI9
F12.54778
sI10
F12.21082
sI11
F12.78712
sI12
F11.16415
sI13
F13.08664
sI14
F12.54947
ssS'ref3mag'
p141
(dp142
I0
F10.93
sI1
F10.944
sI2
F10.909
sI3
F10.925
sI4
F10.945
sI5
F10.934
sI6
F10.921
sI7
F10.939
sI8
F10.933
sI9
F10.923
sI10
F10.946
sI11
F10.92
sI12
F10.93
sI13
F10.931
sI14
F10.923
ssS'mean'
p143
(dp144
I0
F0.6913483281372745
sI1
Fnan
sI2
Fnan
sI3
Fnan
sI4
Fnan
sI5
Fnan
sI6
Fnan
sI7
Fnan
sI8
Fnan
sI9
Fnan
sI10
Fnan
sI11
Fnan
sI12
Fnan
sI13
Fnan
sI14
Fnan
sss.