(dp0
S'V'
p1
(dp2
S'sigmean'
p3
(dp4
I0
F0.6982345621534259
sI1
Fnan
sI2
Fnan
sI3
Fnan
sI4
Fnan
sI5
Fnan
sI6
Fnan
sI7
Fnan
ssS'ref3flag'
p5
(dp6
I0
S'NoError'
p7
sI1
S'NoError'
p8
sI2
S'NoError'
p9
sI3
S'NoError'
p10
sI4
S'NoError'
p11
sI5
S'NoError'
p12
sI6
S'NoError'
p13
sI7
S'NoError'
p14
ssS'tabbyerr'
p15
(dp16
I0
F0.002
sI1
F0.002
sI2
F0.002
sI3
F0.002
sI4
F0.002
sI5
F0.003
sI6
F0.002
sI7
F0.002
ssS'ref2rel'
p17
(dp18
I0
F0.8894142113679657
sI1
F0.8882248907203021
sI2
F0.8863437658166465
sI3
F0.8891431591388959
sI4
F0.8898318943161362
sI5
F0.8883833778862127
sI6
F0.8851098467344722
sI7
F0.887290048190931
ssS'ref2err'
p19
(dp20
I0
F0.0016235742940358025
sI1
Fnan
sI2
Fnan
sI3
Fnan
sI4
Fnan
sI5
Fnan
sI6
Fnan
sI7
Fnan
ssS'ref2mean'
p21
(dp22
I0
F0.8879676492714452
sI1
Fnan
sI2
Fnan
sI3
Fnan
sI4
Fnan
sI5
Fnan
sI6
Fnan
sI7
Fnan
ssS'tabbymag'
p23
(dp24
I0
F11.31
sI1
F11.35
sI2
F11.353
sI3
F11.347
sI4
F11.335
sI5
F11.315
sI6
F11.366
sI7
F11.32
ssS'tabbybkg'
p25
(dp26
I0
F290.3546
sI1
F33.06212
sI2
F34.8043
sI3
F33.91298
sI4
F187.5055
sI5
F248.3604
sI6
F35.24538
sI7
F214.3531
ssS'JD'
p27
(dp28
I0
F2458273.969085648
sI1
F2458273.946284722
sI2
F2458273.948773148
sI3
F2458273.9471064815
sI4
F2458273.9665972223
sI5
F2458273.9682523147
sI6
F2458273.947951389
sI7
F2458273.9674189813
ssS'ref3rmsmean'
p29
(dp30
I0
F4.1589875
sI1
Fnan
sI2
Fnan
sI3
Fnan
sI4
Fnan
sI5
Fnan
sI6
Fnan
sI7
Fnan
ssS'ref1rmsmean'
p31
(dp32
I0
F3.185109625
sI1
Fnan
sI2
Fnan
sI3
Fnan
sI4
Fnan
sI5
Fnan
sI6
Fnan
sI7
Fnan
ssS'relflux'
p33
(dp34
I0
F0.7003482668379128
sI1
F0.6965321450174862
sI2
F0.6957441562727531
sI3
F0.6944538832374118
sI4
F0.6982080451418824
sI5
F0.7015068839055892
sI6
F0.6918780229227266
sI7
F0.7008485546609455
ssS'sigerr'
p35
(dp36
I0
F0.0025468012358754832
sI1
Fnan
sI2
Fnan
sI3
Fnan
sI4
Fnan
sI5
Fnan
sI6
Fnan
sI7
Fnan
ssS'tabbyrmsmean'
p37
(dp38
I0
F1.799432875
sI1
Fnan
sI2
Fnan
sI3
Fnan
sI4
Fnan
sI5
Fnan
sI6
Fnan
sI7
Fnan
ssS'tabbyflag'
p39
(dp40
I0
g7
sI1
g8
sI2
g9
sI3
g10
sI4
g11
sI5
g12
sI6
g13
sI7
g14
ssS'ref1err'
p41
(dp42
I0
F0.0028260631059009466
sI1
Fnan
sI2
Fnan
sI3
Fnan
sI4
Fnan
sI5
Fnan
sI6
Fnan
sI7
Fnan
ssS'ref2magmeanerr'
p43
(dp44
I0
F0.016140012391568915
sI1
Fnan
sI2
Fnan
sI3
Fnan
sI4
Fnan
sI5
Fnan
sI6
Fnan
sI7
Fnan
ssS'ref2rmsmean'
p45
(dp46
I0
F2.9467815
sI1
Fnan
sI2
Fnan
sI3
Fnan
sI4
Fnan
sI5
Fnan
sI6
Fnan
sI7
Fnan
ssS'ref3rel'
p47
(dp48
I0
F1.4827205492617046
sI1
F1.4952302980095764
sI2
F1.4942570626313714
sI3
F1.495982222736989
sI4
F1.4874181255867898
sI5
F1.4864994665306552
sI6
F1.4987539257400289
sI7
F1.487800935418404
ssS'ref1flag'
p49
(dp50
I0
g7
sI1
g8
sI2
g9
sI3
g10
sI4
g11
sI5
g12
sI6
g13
sI7
g14
ssS'ref2bkg'
p51
(dp52
I0
F292.9463
sI1
F33.94299
sI2
F35.72364
sI3
F34.42401
sI4
F188.9872
sI5
F249.8692
sI6
F35.62948
sI7
F217.0174
ssS'ref3magmean'
p53
(dp54
I0
F10.67675
sI1
Fnan
sI2
Fnan
sI3
Fnan
sI4
Fnan
sI5
Fnan
sI6
Fnan
sI7
Fnan
ssS'ref1mean'
p55
(dp56
I0
F0.722640142984114
sI1
Fnan
sI2
Fnan
sI3
Fnan
sI4
Fnan
sI5
Fnan
sI6
Fnan
sI7
Fnan
ssS'ref1rms'
p57
(dp58
I0
F3.867593
sI1
F1.76622
sI2
F3.587288
sI3
F3.720473
sI4
F-5.786869
sI5
F6.786806
sI6
F3.092595
sI7
F8.446771
ssS'ref2magmean'
p59
(dp60
I0
F11.03325
sI1
Fnan
sI2
Fnan
sI3
Fnan
sI4
Fnan
sI5
Fnan
sI6
Fnan
sI7
Fnan
ssS'ref2flag'
p61
(dp62
I0
g7
sI1
g8
sI2
g9
sI3
g10
sI4
g11
sI5
g12
sI6
g13
sI7
g14
ssS'ref2'
p63
(dp64
I0
F9910.593333333334
sI1
F9593.066666666668
sI2
F9565.488888888889
sI3
F9660.784444444444
sI4
F9722.006666666666
sI5
F9841.855555555556
sI6
F9494.05111111111
sI7
F9798.646666666666
ssS'airmass'
p65
(dp66
I0
F1.00773
sI1
F1.005036
sI2
F1.004767
sI3
F1.004931
sI4
F1.006869
sI5
F1.007427
sI6
F1.004842
sI7
F1.007139
ssS'ref1'
p67
(dp68
I0
F8578.548888888889
sI1
F8256.173333333332
sI2
F8263.56
sI3
F8297.735555555555
sI4
F8384.993333333334
sI5
F8513.88
sI6
F8196.173333333332
sI7
F8485.268888888888
ssS'ref3'
p69
(dp70
I0
F13707.115555555554
sI1
F13344.362222222224
sI2
F13320.59111111111
sI3
F13432.813333333334
sI4
F13466.34
sI5
F13642.895555555557
sI6
F13256.646666666666
sI7
F13601.413333333332
ssS'ref1bkg'
p71
(dp72
I0
F290.1441
sI1
F34.53995
sI2
F35.92394
sI3
F34.29004
sI4
F189.6906
sI5
F249.2635
sI6
F35.618
sI7
F214.3653
ssS'ref1mag'
p73
(dp74
I0
F11.166
sI1
F11.208
sI2
F11.207
sI3
F11.203
sI4
F11.191
sI5
F11.175
sI6
F11.216
sI7
F11.178
ssS'ref3magerr'
p75
(dp76
I0
F0.002
sI1
F0.001
sI2
F0.001
sI3
F0.001
sI4
F0.002
sI5
F0.002
sI6
F0.001
sI7
F0.002
ssS'tabbymagmean'
p77
(dp78
I0
F0.6974399947495884
sI1
Fnan
sI2
Fnan
sI3
Fnan
sI4
Fnan
sI5
Fnan
sI6
Fnan
sI7
Fnan
ssS'ref1magmean'
p79
(dp80
I0
F11.193000000000001
sI1
Fnan
sI2
Fnan
sI3
Fnan
sI4
Fnan
sI5
Fnan
sI6
Fnan
sI7
Fnan
ssS'ref2mag'
p81
(dp82
I0
F11.01
sI1
F11.045
sI2
F11.048
sI3
F11.037
sI4
F11.031
sI5
F11.017
sI6
F11.056
sI7
F11.022
ssS'ref3rms'
p83
(dp84
I0
F7.213923
sI1
F3.626993
sI2
F-1.796785
sI3
F3.573303
sI4
F5.644788
sI5
F8.571367
sI6
F2.990629
sI7
F3.447682
ssS'ref3magmeanerr'
p85
(dp86
I0
F0.01319902593808682
sI1
Fnan
sI2
Fnan
sI3
Fnan
sI4
Fnan
sI5
Fnan
sI6
Fnan
sI7
Fnan
ssS'ref1rel'
p87
(dp88
I0
F0.7264505570161147
sI1
F0.7198865551433012
sI2
F0.7221472615668563
sI3
F0.718617829530243
sI4
F0.723207519179174
sI5
F0.7250560127053601
sI6
F0.7205206111382761
sI7
F0.7252347975935864
ssS'exposure'
p89
(dp90
I0
F45.0
sI1
F45.0
sI2
F45.0
sI3
F45.0
sI4
F45.0
sI5
F45.0
sI6
F45.0
sI7
F45.0
ssS'ref1magerr'
p91
(dp92
I0
F0.002
sI1
F0.002
sI2
F0.002
sI3
F0.002
sI4
F0.002
sI5
F0.002
sI6
F0.002
sI7
F0.002
ssS'ref2magerr'
p93
(dp94
I0
F0.002
sI1
F0.002
sI2
F0.002
sI3
F0.002
sI4
F0.002
sI5
F0.002
sI6
F0.002
sI7
F0.002
ssS'ref2rms'
p95
(dp96
I0
F6.971684
sI1
F2.806739
sI2
F4.82769
sI3
F-1.566266
sI4
F-3.071318
sI5
F7.247655
sI6
F1.935359
sI7
F4.422709
ssS'name'
p97
(dp98
I0
S'KIC8462852-20180604at111529_-25-1-045-V_cal.fts.mag.1'
p99
sI1
S'KIC8462852-20180604at104237_-25-1-045-V_cal.fts.mag.1'
p100
sI2
S'KIC8462852-20180604at104614_-25-1-045-V_cal.fts.mag.1'
p101
sI3
S'KIC8462852-20180604at104350_-25-1-045-V_cal.fts.mag.1'
p102
sI4
S'KIC8462852-20180604at111153_-25-1-045-V_cal.fts.mag.1'
p103
sI5
S'KIC8462852-20180604at111417_-25-1-045-V_cal.fts.mag.1'
p104
sI6
S'KIC8462852-20180604at104503_-25-1-045-V_cal.fts.mag.1'
p105
sI7
S'KIC8462852-20180604at111305_-25-1-045-V_cal.fts.mag.1'
p106
ssS'ref3err'
p107
(dp108
I0
F0.0056727777656756465
sI1
Fnan
sI2
Fnan
sI3
Fnan
sI4
Fnan
sI5
Fnan
sI6
Fnan
sI7
Fnan
ssS'tabby'
p109
(dp110
I0
F7516.197777777778
sI1
F7242.448888888889
sI2
F7224.06
sI3
F7266.611111111111
sI4
F7348.253333333334
sI5
F7482.42
sI6
F7137.153333333334
sI7
F7448.928888888889
ssS'ref1magmeanerr'
p111
(dp112
I0
F0.018252201432781858
sI1
Fnan
sI2
Fnan
sI3
Fnan
sI4
Fnan
sI5
Fnan
sI6
Fnan
sI7
Fnan
ssS'filter'
p113
(dp114
I0
g1
sI1
g1
sI2
g1
sI3
g1
sI4
g1
sI5
g1
sI6
g1
sI7
g1
ssS'tabbymagerr'
p115
(dp116
I0
F0.00339660056659364
sI1
Fnan
sI2
Fnan
sI3
Fnan
sI4
Fnan
sI5
Fnan
sI6
Fnan
sI7
Fnan
ssS'tabbyrms'
p117
(dp118
I0
F6.562341
sI1
F2.077368
sI2
F3.20696
sI3
F-3.638574
sI4
F-5.265352
sI5
F7.066001
sI6
F-2.949527
sI7
F7.336246
ssS'ref3mean'
p119
(dp120
I0
F1.49108282323944
sI1
Fnan
sI2
Fnan
sI3
Fnan
sI4
Fnan
sI5
Fnan
sI6
Fnan
sI7
Fnan
ssS'median_JD'
p121
(dp122
I0
F2458273.957685185
sI1
Fnan
sI2
Fnan
sI3
Fnan
sI4
Fnan
sI5
Fnan
sI6
Fnan
sI7
Fnan
ssS'error'
p123
(dp124
I0
F0.00339660056659364
sI1
Fnan
sI2
Fnan
sI3
Fnan
sI4
Fnan
sI5
Fnan
sI6
Fnan
sI7
Fnan
ssS'ref3bkg'
p125
(dp126
I0
F294.2323
sI1
F35.78754
sI2
F37.98989
sI3
F35.2875
sI4
F191.5847
sI5
F252.0399
sI6
F37.80762
sI7
F220.2528
ssS'ref3mag'
p127
(dp128
I0
F10.658
sI1
F10.687
sI2
F10.689
sI3
F10.68
sI4
F10.677
sI5
F10.663
sI6
F10.694
sI7
F10.666
ssS'mean'
p129
(dp130
I0
F0.6974399947495884
sI1
Fnan
sI2
Fnan
sI3
Fnan
sI4
Fnan
sI5
Fnan
sI6
Fnan
sI7
Fnan
sss.