(dp0
S'V'
p1
(dp2
S'sigmean'
p3
(dp4
I0
F0.6918788031431761
sI1
Fnan
sI2
Fnan
sI3
Fnan
sI4
Fnan
sI5
Fnan
sI6
Fnan
sI7
Fnan
sI8
Fnan
sI9
Fnan
sI10
Fnan
sI11
Fnan
sI12
Fnan
sI13
Fnan
sI14
Fnan
ssS'ref3flag'
p5
(dp6
I0
S'NoError'
p7
sI1
S'NoError'
p8
sI2
S'NoError'
p9
sI3
S'NoError'
p10
sI4
S'NoError'
p11
sI5
S'NoError'
p12
sI6
S'NoError'
p13
sI7
S'NoError'
p14
sI8
S'NoError'
p15
sI9
S'NoError'
p16
sI10
S'NoError'
p17
sI11
S'NoError'
p18
sI12
S'NoError'
p19
sI13
S'NoError'
p20
sI14
S'NoError'
p21
ssS'tabbyerr'
p22
(dp23
I0
F0.002
sI1
F0.002
sI2
F0.002
sI3
F0.002
sI4
F0.002
sI5
F0.002
sI6
F0.002
sI7
F0.002
sI8
F0.002
sI9
F0.002
sI10
F0.002
sI11
F0.002
sI12
F0.002
sI13
F0.002
sI14
F0.002
ssS'ref2rel'
p24
(dp25
I0
F0.8829667038917651
sI1
F0.8874170245698435
sI2
F0.8861888819763618
sI3
F0.8885882623141235
sI4
F0.8824434489589015
sI5
F0.8846301815998092
sI6
F0.887116204583876
sI7
F0.8881316794007913
sI8
F0.8850743068444241
sI9
F0.886861944393877
sI10
F0.8873656491702392
sI11
F0.8889042539743565
sI12
F0.8902573962353026
sI13
F0.8870179376609061
sI14
F0.886384969044424
ssS'ref2err'
p26
(dp27
I0
F0.002132096368571185
sI1
Fnan
sI2
Fnan
sI3
Fnan
sI4
Fnan
sI5
Fnan
sI6
Fnan
sI7
Fnan
sI8
Fnan
sI9
Fnan
sI10
Fnan
sI11
Fnan
sI12
Fnan
sI13
Fnan
sI14
Fnan
ssS'ref2mean'
p28
(dp29
I0
F0.8866232563079334
sI1
Fnan
sI2
Fnan
sI3
Fnan
sI4
Fnan
sI5
Fnan
sI6
Fnan
sI7
Fnan
sI8
Fnan
sI9
Fnan
sI10
Fnan
sI11
Fnan
sI12
Fnan
sI13
Fnan
sI14
Fnan
ssS'tabbymag'
p30
(dp31
I0
F11.459
sI1
F11.467
sI2
F11.448
sI3
F11.472
sI4
F11.452
sI5
F11.447
sI6
F11.46
sI7
F11.462
sI8
F11.454
sI9
F11.439
sI10
F11.474
sI11
F11.442
sI12
F11.459
sI13
F11.441
sI14
F11.439
ssS'tabbybkg'
p32
(dp33
I0
F12.97886
sI1
F12.69043
sI2
F13.58708
sI3
F14.06783
sI4
F57.59101
sI5
F13.13182
sI6
F49.8186
sI7
F77.839
sI8
F65.97549
sI9
F13.31719
sI10
F14.94398
sI11
F12.40538
sI12
F91.22721
sI13
F13.27751
sI14
F13.78319
ssS'JD'
p34
(dp35
I0
F2458301.701041667
sI1
F2458301.701979167
sI2
F2458301.7232060186
sI3
F2458301.7029050924
sI4
F2458301.680810185
sI5
F2458301.6992013888
sI6
F2458301.681747685
sI7
F2458301.678946759
sI8
F2458301.679884259
sI9
F2458301.7213425925
sI10
F2458301.7241319446
sI11
F2458301.7222685185
sI12
F2458301.6780208335
sI13
F2458301.700127315
sI14
F2458301.7204050925
ssS'ref3rmsmean'
p36
(dp37
I0
F1.7205200666666667
sI1
Fnan
sI2
Fnan
sI3
Fnan
sI4
Fnan
sI5
Fnan
sI6
Fnan
sI7
Fnan
sI8
Fnan
sI9
Fnan
sI10
Fnan
sI11
Fnan
sI12
Fnan
sI13
Fnan
sI14
Fnan
ssS'ref1rmsmean'
p38
(dp39
I0
F1.358923866666667
sI1
Fnan
sI2
Fnan
sI3
Fnan
sI4
Fnan
sI5
Fnan
sI6
Fnan
sI7
Fnan
sI8
Fnan
sI9
Fnan
sI10
Fnan
sI11
Fnan
sI12
Fnan
sI13
Fnan
sI14
Fnan
ssS'relflux'
p40
(dp41
I0
F0.6923160329707494
sI1
F0.690338486353452
sI2
F0.68795967637921
sI3
F0.6934626581216816
sI4
F0.6956810842978903
sI5
F0.6957962176729712
sI6
F0.693849838411547
sI7
F0.6929235450526505
sI8
F0.6923846937830652
sI9
F0.6894162942623525
sI10
F0.6911219250326033
sI11
F0.690122217572881
sI12
F0.6930604638538778
sI13
F0.6925739847226989
sI14
F0.6909754975805523
ssS'sigerr'
p42
(dp43
I0
F0.0013760662861100235
sI1
Fnan
sI2
Fnan
sI3
Fnan
sI4
Fnan
sI5
Fnan
sI6
Fnan
sI7
Fnan
sI8
Fnan
sI9
Fnan
sI10
Fnan
sI11
Fnan
sI12
Fnan
sI13
Fnan
sI14
Fnan
ssS'tabbyrmsmean'
p44
(dp45
I0
F1.7956155933333333
sI1
Fnan
sI2
Fnan
sI3
Fnan
sI4
Fnan
sI5
Fnan
sI6
Fnan
sI7
Fnan
sI8
Fnan
sI9
Fnan
sI10
Fnan
sI11
Fnan
sI12
Fnan
sI13
Fnan
sI14
Fnan
ssS'tabbyflag'
p46
(dp47
I0
g7
sI1
g8
sI2
g9
sI3
g10
sI4
g11
sI5
g12
sI6
g13
sI7
g14
sI8
g15
sI9
g16
sI10
g17
sI11
g18
sI12
g19
sI13
g20
sI14
g21
ssS'ref1err'
p48
(dp49
I0
F0.002554178081625103
sI1
Fnan
sI2
Fnan
sI3
Fnan
sI4
Fnan
sI5
Fnan
sI6
Fnan
sI7
Fnan
sI8
Fnan
sI9
Fnan
sI10
Fnan
sI11
Fnan
sI12
Fnan
sI13
Fnan
sI14
Fnan
ssS'ref2magmeanerr'
p50
(dp51
I0
F0.012528063735165632
sI1
Fnan
sI2
Fnan
sI3
Fnan
sI4
Fnan
sI5
Fnan
sI6
Fnan
sI7
Fnan
sI8
Fnan
sI9
Fnan
sI10
Fnan
sI11
Fnan
sI12
Fnan
sI13
Fnan
sI14
Fnan
ssS'ref2rmsmean'
p52
(dp53
I0
F3.51618664
sI1
Fnan
sI2
Fnan
sI3
Fnan
sI4
Fnan
sI5
Fnan
sI6
Fnan
sI7
Fnan
sI8
Fnan
sI9
Fnan
sI10
Fnan
sI11
Fnan
sI12
Fnan
sI13
Fnan
sI14
Fnan
ssS'ref3rel'
p54
(dp55
I0
F1.5045789460192263
sI1
F1.506148362741064
sI2
F1.5028862592279693
sI3
F1.5026316480312956
sI4
F1.5016348937052422
sI5
F1.5099200367505317
sI6
F1.4975169095009198
sI7
F1.4987134439573107
sI8
F1.496814895156937
sI9
F1.5034795194910338
sI10
F1.503871142269076
sI11
F1.5013449860228525
sI12
F1.4970125460461925
sI13
F1.5076671441199967
sI14
F1.5059932175485615
ssS'ref1flag'
p56
(dp57
I0
g7
sI1
g8
sI2
g9
sI3
g10
sI4
g11
sI5
g12
sI6
g13
sI7
g14
sI8
g15
sI9
g16
sI10
g17
sI11
g18
sI12
g19
sI13
g20
sI14
g21
ssS'ref2bkg'
p58
(dp59
I0
F13.94229
sI1
F14.62387
sI2
F14.70768
sI3
F13.9848
sI4
F57.48139
sI5
F14.84631
sI6
F51.43559
sI7
F79.8599
sI8
F67.43295
sI9
F13.77152
sI10
F15.70751
sI11
F13.5034
sI12
F91.98118
sI13
F14.12414
sI14
F13.04548
ssS'ref3magmean'
p60
(dp61
I0
F10.780799999999997
sI1
Fnan
sI2
Fnan
sI3
Fnan
sI4
Fnan
sI5
Fnan
sI6
Fnan
sI7
Fnan
sI8
Fnan
sI9
Fnan
sI10
Fnan
sI11
Fnan
sI12
Fnan
sI13
Fnan
sI14
Fnan
ssS'ref1mean'
p62
(dp63
I0
F0.7168151072412292
sI1
Fnan
sI2
Fnan
sI3
Fnan
sI4
Fnan
sI5
Fnan
sI6
Fnan
sI7
Fnan
sI8
Fnan
sI9
Fnan
sI10
Fnan
sI11
Fnan
sI12
Fnan
sI13
Fnan
sI14
Fnan
ssS'ref1rms'
p64
(dp65
I0
F2.414455
sI1
F-2.848773
sI2
F-3.318432
sI3
F3.360022
sI4
F-1.319833
sI5
F2.806986
sI6
F1.892148
sI7
F6.68415
sI8
F4.975495
sI9
F-2.173576
sI10
F2.775082
sI11
F2.830724
sI12
F-3.238231
sI13
F2.284559
sI14
F3.259082
ssS'ref2magmean'
p66
(dp67
I0
F11.143666666666666
sI1
Fnan
sI2
Fnan
sI3
Fnan
sI4
Fnan
sI5
Fnan
sI6
Fnan
sI7
Fnan
sI8
Fnan
sI9
Fnan
sI10
Fnan
sI11
Fnan
sI12
Fnan
sI13
Fnan
sI14
Fnan
ssS'ref2flag'
p68
(dp69
I0
g7
sI1
g8
sI2
g9
sI3
g10
sI4
g11
sI5
g12
sI6
g13
sI7
g14
sI8
g15
sI9
g16
sI10
g17
sI11
g18
sI12
g19
sI13
g20
sI14
g21
ssS'ref2'
p70
(dp71
I0
F8699.844444444445
sI1
F8685.32888888889
sI2
F8866.404444444444
sI3
F8619.222222222223
sI4
F8709.926666666666
sI5
F8763.282222222222
sI6
F8695.117777777778
sI7
F8695.684444444445
sI8
F8746.5
sI9
F8920.664444444445
sI10
F8620.324444444444
sI11
F8899.242222222223
sI12
F8735.917777777777
sI13
F8865.786666666667
sI14
F8899.795555555555
ssS'airmass'
p72
(dp73
I0
F1.44426
sI1
F1.438312
sI2
F1.3183479999999999
sI3
F1.432399
sI4
F1.593145
sI5
F1.456437
sI6
F1.585392
sI7
F1.608826
sI8
F1.600945
sI9
F1.327656
sI10
F1.313799
sI11
F1.322972
sI12
F1.616801
sI13
F1.450353
sI14
F1.332403
ssS'ref1'
p74
(dp75
I0
F7510.8244444444435
sI1
F7434.771111111111
sI2
F7620.9111111111115
sI3
F7379.624444444444
sI4
F7539.855555555556
sI5
F7519.475555555556
sI6
F7486.777777777777
sI7
F7468.917777777778
sI8
F7560.306666666666
sI9
F7656.017777777777
sI10
F7390.166666666667
sI11
F7621.375555555556
sI12
F7484.5088888888895
sI13
F7587.246666666666
sI14
F7632.4111111111115
ssS'ref3'
p76
(dp77
I0
F12195.115555555554
sI1
F12139.631111111112
sI2
F12389.279999999999
sI3
F12020.186666666666
sI4
F12200.62
sI5
F12292.831111111112
sI6
F12116.331111111112
sI7
F12113.053333333333
sI8
F12204.135555555555
sI9
F12461.351111111113
sI10
F12038.857777777777
sI11
F12401.573333333334
sI12
F12141.09111111111
sI13
F12402.848888888888
sI14
F12448.695555555556
ssS'ref1bkg'
p78
(dp79
I0
F13.96493
sI1
F13.88247
sI2
F12.83364
sI3
F14.42268
sI4
F57.86335
sI5
F14.2088
sI6
F50.12754
sI7
F77.55739
sI8
F66.00151
sI9
F12.97891
sI10
F15.47424
sI11
F13.03933
sI12
F91.5163
sI13
F13.4642
sI14
F13.27278
ssS'ref1mag'
p80
(dp81
I0
F11.311
sI1
F11.322
sI2
F11.295
sI3
F11.33
sI4
F11.307
sI5
F11.31
sI6
F11.314
sI7
F11.317
sI8
F11.304
sI9
F11.29
sI10
F11.328
sI11
F11.295
sI12
F11.315
sI13
F11.3
sI14
F11.293
ssS'ref3magerr'
p82
(dp83
I0
F0.001
sI1
F0.001
sI2
F0.001
sI3
F0.001
sI4
F0.001
sI5
F0.001
sI6
F0.001
sI7
F0.001
sI8
F0.001
sI9
F0.001
sI10
F0.001
sI11
F0.001
sI12
F0.002
sI13
F0.001
sI14
F0.001
ssS'tabbymagmean'
p84
(dp85
I0
F0.6921321744045454
sI1
Fnan
sI2
Fnan
sI3
Fnan
sI4
Fnan
sI5
Fnan
sI6
Fnan
sI7
Fnan
sI8
Fnan
sI9
Fnan
sI10
Fnan
sI11
Fnan
sI12
Fnan
sI13
Fnan
sI14
Fnan
ssS'ref1magmean'
p86
(dp87
I0
F11.308733333333333
sI1
Fnan
sI2
Fnan
sI3
Fnan
sI4
Fnan
sI5
Fnan
sI6
Fnan
sI7
Fnan
sI8
Fnan
sI9
Fnan
sI10
Fnan
sI11
Fnan
sI12
Fnan
sI13
Fnan
sI14
Fnan
ssS'ref2mag'
p88
(dp89
I0
F11.151
sI1
F11.153
sI2
F11.131
sI3
F11.161
sI4
F11.15
sI5
F11.143
sI6
F11.152
sI7
F11.152
sI8
F11.145
sI9
F11.124
sI10
F11.161
sI11
F11.127
sI12
F11.147
sI13
F11.131
sI14
F11.127
ssS'ref3rms'
p90
(dp91
I0
F4.006797
sI1
F3.661082
sI2
F2.639627
sI3
F3.359942
sI4
F5.299773
sI5
F-3.029794
sI6
F-4.962004
sI7
F3.080719
sI8
F2.301649
sI9
F3.016329
sI10
F4.061627
sI11
F-2.774287
sI12
F4.488883
sI13
F2.576384
sI14
F-1.918926
ssS'ref3magmeanerr'
p92
(dp93
I0
F0.013417472617023429
sI1
Fnan
sI2
Fnan
sI3
Fnan
sI4
Fnan
sI5
Fnan
sI6
Fnan
sI7
Fnan
sI8
Fnan
sI9
Fnan
sI10
Fnan
sI11
Fnan
sI12
Fnan
sI13
Fnan
sI14
Fnan
ssS'ref1rel'
p94
(dp95
I0
F0.7189125458430592
sI1
F0.7140250075977204
sI2
F0.7170704035459065
sI3
F0.7151003678615258
sI4
F0.7211533658825647
sI5
F0.7142320556996327
sI6
F0.7194864536101496
sI7
F0.7178636068694219
sI8
F0.721725758306351
sI9
F0.716117501447478
sI10
F0.7154365150734159
sI11
F0.7155947184912169
sI12
F0.7170096950882918
sI13
F0.7134681157000511
sI14
F0.715030497601652
ssS'exposure'
p96
(dp97
I0
F45.0
sI1
F45.0
sI2
F45.0
sI3
F45.0
sI4
F45.0
sI5
F45.0
sI6
F45.0
sI7
F45.0
sI8
F45.0
sI9
F45.0
sI10
F45.0
sI11
F45.0
sI12
F45.0
sI13
F45.0
sI14
F45.0
ssS'ref1magerr'
p98
(dp99
I0
F0.002
sI1
F0.002
sI2
F0.002
sI3
F0.002
sI4
F0.002
sI5
F0.002
sI6
F0.002
sI7
F0.002
sI8
F0.002
sI9
F0.002
sI10
F0.002
sI11
F0.002
sI12
F0.002
sI13
F0.002
sI14
F0.002
ssS'ref2magerr'
p100
(dp101
I0
F0.002
sI1
F0.002
sI2
F0.002
sI3
F0.002
sI4
F0.002
sI5
F0.002
sI6
F0.002
sI7
F0.002
sI8
F0.002
sI9
F0.002
sI10
F0.002
sI11
F0.002
sI12
F0.002
sI13
F0.002
sI14
F0.002
ssS'ref2rms'
p102
(dp103
I0
F4.264002
sI1
F3.707814
sI2
F3.731114
sI3
F4.486889
sI4
F4.193748
sI5
F2.235322
sI6
F4.143818
sI7
F0.9395016
sI8
F3.892482
sI9
F3.335304
sI10
F2.881516
sI11
F2.645367
sI12
F4.792929
sI13
F3.971406
sI14
F3.521587
ssS'name'
p104
(dp105
I0
S'KIC8462852-20180702at044930_-25-1X1-045-V_cal.fts.mag.1'
p106
sI1
S'KIC8462852-20180702at045051_-25-1X1-045-V_cal.fts.mag.1'
p107
sI2
S'KIC8462852-20180702at052125_-25-1X1-045-V_cal.fts.mag.1'
p108
sI3
S'KIC8462852-20180702at045211_-25-1X1-045-V_cal.fts.mag.1'
p109
sI4
S'KIC8462852-20180702at042022_-25-1X1-045-V_cal.fts.mag.1'
p110
sI5
S'KIC8462852-20180702at044649_-25-1X1-045-V_cal.fts.mag.1'
p111
sI6
S'KIC8462852-20180702at042143_-25-1X1-045-V_cal.fts.mag.1'
p112
sI7
S'KIC8462852-20180702at041741_-25-1X1-045-V_cal.fts.mag.1'
p113
sI8
S'KIC8462852-20180702at041902_-25-1X1-045-V_cal.fts.mag.1'
p114
sI9
S'KIC8462852-20180702at051844_-25-1X1-045-V_cal.fts.mag.1'
p115
sI10
S'KIC8462852-20180702at052245_-25-1X1-045-V_cal.fts.mag.1'
p116
sI11
S'KIC8462852-20180702at052004_-25-1X1-045-V_cal.fts.mag.1'
p117
sI12
S'KIC8462852-20180702at041619_-25-1X1-045-V_cal.fts.mag.1'
p118
sI13
S'KIC8462852-20180702at044811_-25-1X1-045-V_cal.fts.mag.1'
p119
sI14
S'KIC8462852-20180702at051721_-25-1X1-045-V_cal.fts.mag.1'
p120
ssS'ref3err'
p121
(dp122
I0
F0.00394416995912126
sI1
Fnan
sI2
Fnan
sI3
Fnan
sI4
Fnan
sI5
Fnan
sI6
Fnan
sI7
Fnan
sI8
Fnan
sI9
Fnan
sI10
Fnan
sI11
Fnan
sI12
Fnan
sI13
Fnan
sI14
Fnan
ssS'tabby'
p123
(dp124
I0
F6555.26
sI1
F6502.926666666667
sI2
F6621.977777777778
sI3
F6476.717777777778
sI4
F6597.468888888889
sI5
F6627.595555555556
sI6
F6544.906666666667
sI7
F6531.417777777778
sI8
F6580.179999999999
sI9
F6673.097777777778
sI10
F6461.84
sI11
F6653.282222222222
sI12
F6552.082222222222
sI13
F6661.611111111111
sI14
F6675.031111111111
ssS'ref1magmeanerr'
p125
(dp126
I0
F0.012589489191195886
sI1
Fnan
sI2
Fnan
sI3
Fnan
sI4
Fnan
sI5
Fnan
sI6
Fnan
sI7
Fnan
sI8
Fnan
sI9
Fnan
sI10
Fnan
sI11
Fnan
sI12
Fnan
sI13
Fnan
sI14
Fnan
ssS'filter'
p127
(dp128
I0
g1
sI1
g1
sI2
g1
sI3
g1
sI4
g1
sI5
g1
sI6
g1
sI7
g1
sI8
g1
sI9
g1
sI10
g1
sI11
g1
sI12
g1
sI13
g1
sI14
g1
ssS'tabbymagerr'
p129
(dp130
I0
F0.002186366511453662
sI1
Fnan
sI2
Fnan
sI3
Fnan
sI4
Fnan
sI5
Fnan
sI6
Fnan
sI7
Fnan
sI8
Fnan
sI9
Fnan
sI10
Fnan
sI11
Fnan
sI12
Fnan
sI13
Fnan
sI14
Fnan
ssS'tabbyrms'
p131
(dp132
I0
F4.170622
sI1
F4.525602
sI2
F1.836778
sI3
F-0.9927701
sI4
F5.246956
sI5
F3.920047
sI6
F-4.273352
sI7
F-3.04523
sI8
F2.085232
sI9
F-2.869769
sI10
F2.7906
sI11
F3.51274
sI12
F3.051681
sI13
F3.929061
sI14
F3.046036
ssS'ref3mean'
p133
(dp134
I0
F1.502680930039214
sI1
Fnan
sI2
Fnan
sI3
Fnan
sI4
Fnan
sI5
Fnan
sI6
Fnan
sI7
Fnan
sI8
Fnan
sI9
Fnan
sI10
Fnan
sI11
Fnan
sI12
Fnan
sI13
Fnan
sI14
Fnan
ssS'median_JD'
p135
(dp136
I0
F2458301.701041667
sI1
Fnan
sI2
Fnan
sI3
Fnan
sI4
Fnan
sI5
Fnan
sI6
Fnan
sI7
Fnan
sI8
Fnan
sI9
Fnan
sI10
Fnan
sI11
Fnan
sI12
Fnan
sI13
Fnan
sI14
Fnan
ssS'error'
p137
(dp138
I0
F0.002186366511453662
sI1
Fnan
sI2
Fnan
sI3
Fnan
sI4
Fnan
sI5
Fnan
sI6
Fnan
sI7
Fnan
sI8
Fnan
sI9
Fnan
sI10
Fnan
sI11
Fnan
sI12
Fnan
sI13
Fnan
sI14
Fnan
ssS'ref3bkg'
p139
(dp140
I0
F15.82251
sI1
F16.94174
sI2
F16.12782
sI3
F17.6455
sI4
F60.11851
sI5
F16.11646
sI6
F53.05294
sI7
F80.79887
sI8
F68.96294
sI9
F15.1789
sI10
F18.1502
sI11
F16.31382
sI12
F93.35015
sI13
F15.5359
sI14
F15.28827
ssS'ref3mag'
p141
(dp142
I0
F10.785
sI1
F10.789
sI2
F10.767
sI3
F10.8
sI4
F10.784
sI5
F10.776
sI6
F10.792
sI7
F10.792
sI8
F10.784
sI9
F10.761
sI10
F10.799
sI11
F10.766
sI12
F10.789
sI13
F10.766
sI14
F10.762
ssS'mean'
p143
(dp144
I0
F0.6921321744045454
sI1
Fnan
sI2
Fnan
sI3
Fnan
sI4
Fnan
sI5
Fnan
sI6
Fnan
sI7
Fnan
sI8
Fnan
sI9
Fnan
sI10
Fnan
sI11
Fnan
sI12
Fnan
sI13
Fnan
sI14
Fnan
sss.