(dp0
S'i'
p1
(dp2
S'sigmean'
p3
(dp4
I0
F0.43824776922653413
sI1
Fnan
sI2
Fnan
sI3
Fnan
sI4
Fnan
sI5
Fnan
sI6
Fnan
sI7
Fnan
sI8
Fnan
sI9
Fnan
sI10
Fnan
sI11
Fnan
sI12
Fnan
sI13
Fnan
sI14
Fnan
ssS'ref3flag'
p5
(dp6
I0
S'NoError'
p7
sI1
S'NoError'
p8
sI2
S'NoError'
p9
sI3
S'NoError'
p10
sI4
S'NoError'
p11
sI5
S'NoError'
p12
sI6
S'NoError'
p13
sI7
S'NoError'
p14
sI8
S'NoError'
p15
sI9
S'NoError'
p16
sI10
S'NoError'
p17
sI11
S'NoError'
p18
sI12
S'NoError'
p19
sI13
S'NoError'
p20
sI14
S'NoError'
p21
ssS'tabbyerr'
p22
(dp23
I0
F0.003
sI1
F0.003
sI2
F0.003
sI3
F0.003
sI4
F0.003
sI5
F0.003
sI6
F0.003
sI7
F0.003
sI8
F0.003
sI9
F0.003
sI10
F0.003
sI11
F0.003
sI12
F0.003
sI13
F0.003
sI14
F0.003
ssS'ref2rel'
p24
(dp25
I0
F0.9103109783527054
sI1
F0.9107826234614412
sI2
F0.9104310758661741
sI3
F0.9188049575032095
sI4
F0.9116711240837034
sI5
F0.9013258599180456
sI6
F0.9078772979193257
sI7
F0.9172816749312104
sI8
F0.9077189876788833
sI9
F0.9060053526115782
sI10
F0.9101175818759039
sI11
F0.9012831358333293
sI12
F0.9060393719295224
sI13
F0.9141897274486053
sI14
F0.9113582167644491
ssS'ref2err'
p26
(dp27
I0
F0.004961926029231601
sI1
Fnan
sI2
Fnan
sI3
Fnan
sI4
Fnan
sI5
Fnan
sI6
Fnan
sI7
Fnan
sI8
Fnan
sI9
Fnan
sI10
Fnan
sI11
Fnan
sI12
Fnan
sI13
Fnan
sI14
Fnan
ssS'ref2mean'
p28
(dp29
I0
F0.9096798644118724
sI1
Fnan
sI2
Fnan
sI3
Fnan
sI4
Fnan
sI5
Fnan
sI6
Fnan
sI7
Fnan
sI8
Fnan
sI9
Fnan
sI10
Fnan
sI11
Fnan
sI12
Fnan
sI13
Fnan
sI14
Fnan
ssS'tabbymag'
p30
(dp31
I0
F11.886
sI1
F11.859
sI2
F11.86
sI3
F11.918
sI4
F11.884
sI5
F11.836
sI6
F11.85
sI7
F11.821
sI8
F11.862
sI9
F11.841
sI10
F11.862
sI11
F11.849
sI12
F11.854
sI13
F11.848
sI14
F11.898
ssS'tabbybkg'
p32
(dp33
I0
F14.03983
sI1
F13.84588
sI2
F14.77761
sI3
F14.05791
sI4
F14.36731
sI5
F13.80556
sI6
F13.71407
sI7
F15.06802
sI8
F14.4725
sI9
F14.86547
sI10
F14.82655
sI11
F13.69779
sI12
F13.95558
sI13
F14.04824
sI14
F14.91949
ssS'JD'
p34
(dp35
I0
F2458379.6711689816
sI1
F2458379.6704282407
sI2
F2458379.630497685
sI3
F2458379.6682175924
sI4
F2458379.6689467593
sI5
F2458379.6500925925
sI6
F2458379.6523148147
sI7
F2458379.6327199074
sI8
F2458379.6515740743
sI9
F2458379.6319791665
sI10
F2458379.6334606484
sI11
F2458379.649363426
sI12
F2458379.631238426
sI13
F2458379.6508449074
sI14
F2458379.6696875
ssS'ref3rmsmean'
p36
(dp37
I0
F1.5336450000000001
sI1
Fnan
sI2
Fnan
sI3
Fnan
sI4
Fnan
sI5
Fnan
sI6
Fnan
sI7
Fnan
sI8
Fnan
sI9
Fnan
sI10
Fnan
sI11
Fnan
sI12
Fnan
sI13
Fnan
sI14
Fnan
ssS'ref1rmsmean'
p38
(dp39
I0
F1.2547468666666666
sI1
Fnan
sI2
Fnan
sI3
Fnan
sI4
Fnan
sI5
Fnan
sI6
Fnan
sI7
Fnan
sI8
Fnan
sI9
Fnan
sI10
Fnan
sI11
Fnan
sI12
Fnan
sI13
Fnan
sI14
Fnan
ssS'relflux'
p40
(dp41
I0
F0.43574551383337345
sI1
F0.4392324002018763
sI2
F0.4391391522807383
sI3
F0.4361310787585814
sI4
F0.43828424699097157
sI5
F0.4416108901740647
sI6
F0.43893582395328257
sI7
F0.4425993026365468
sI8
F0.4382152501795702
sI9
F0.4382129927412829
sI10
F0.4372622083014182
sI11
F0.442281704086634
sI12
F0.4377490357298102
sI13
F0.4408312850921674
sI14
F0.43587112170780606
ssS'sigerr'
p42
(dp43
I0
F0.0017060163883497721
sI1
Fnan
sI2
Fnan
sI3
Fnan
sI4
Fnan
sI5
Fnan
sI6
Fnan
sI7
Fnan
sI8
Fnan
sI9
Fnan
sI10
Fnan
sI11
Fnan
sI12
Fnan
sI13
Fnan
sI14
Fnan
ssS'tabbyrmsmean'
p44
(dp45
I0
F1.0056146666666668
sI1
Fnan
sI2
Fnan
sI3
Fnan
sI4
Fnan
sI5
Fnan
sI6
Fnan
sI7
Fnan
sI8
Fnan
sI9
Fnan
sI10
Fnan
sI11
Fnan
sI12
Fnan
sI13
Fnan
sI14
Fnan
ssS'tabbyflag'
p46
(dp47
I0
g7
sI1
g8
sI2
g9
sI3
g10
sI4
g11
sI5
g12
sI6
g13
sI7
g14
sI8
g15
sI9
g16
sI10
g17
sI11
g18
sI12
g19
sI13
g20
sI14
g21
ssS'ref1err'
p48
(dp49
I0
F0.004545048284601023
sI1
Fnan
sI2
Fnan
sI3
Fnan
sI4
Fnan
sI5
Fnan
sI6
Fnan
sI7
Fnan
sI8
Fnan
sI9
Fnan
sI10
Fnan
sI11
Fnan
sI12
Fnan
sI13
Fnan
sI14
Fnan
ssS'ref2magmeanerr'
p50
(dp51
I0
F0.019650517986629652
sI1
Fnan
sI2
Fnan
sI3
Fnan
sI4
Fnan
sI5
Fnan
sI6
Fnan
sI7
Fnan
sI8
Fnan
sI9
Fnan
sI10
Fnan
sI11
Fnan
sI12
Fnan
sI13
Fnan
sI14
Fnan
ssS'ref2rmsmean'
p52
(dp53
I0
F0.7092487333333332
sI1
Fnan
sI2
Fnan
sI3
Fnan
sI4
Fnan
sI5
Fnan
sI6
Fnan
sI7
Fnan
sI8
Fnan
sI9
Fnan
sI10
Fnan
sI11
Fnan
sI12
Fnan
sI13
Fnan
sI14
Fnan
ssS'ref3rel'
p54
(dp55
I0
F1.50434605979431
sI1
F1.506928111384267
sI2
F1.4924475583131018
sI3
F1.4973536306513868
sI4
F1.4781689705979912
sI5
F1.5086076182813173
sI6
F1.5055008798155014
sI7
F1.4919353643915192
sI8
F1.5077590864739432
sI9
F1.4991662550320484
sI10
F1.5000534940448624
sI11
F1.5195842442906935
sI12
F1.5041622663712035
sI13
F1.488731820806519
sI14
F1.491973232443627
ssS'ref1flag'
p56
(dp57
I0
g7
sI1
g8
sI2
g9
sI3
g10
sI4
g11
sI5
g12
sI6
g13
sI7
g14
sI8
g15
sI9
g16
sI10
g17
sI11
g18
sI12
g19
sI13
g20
sI14
g21
ssS'ref2bkg'
p58
(dp59
I0
F16.64502
sI1
F15.04098
sI2
F18.15734
sI3
F16.99408
sI4
F17.35219
sI5
F15.54323
sI6
F15.64405
sI7
F15.96095
sI8
F17.64217
sI9
F16.90918
sI10
F17.80471
sI11
F15.73299
sI12
F17.14145
sI13
F15.8376
sI14
F16.88185
ssS'ref3magmean'
p60
(dp61
I0
F10.694733333333334
sI1
Fnan
sI2
Fnan
sI3
Fnan
sI4
Fnan
sI5
Fnan
sI6
Fnan
sI7
Fnan
sI8
Fnan
sI9
Fnan
sI10
Fnan
sI11
Fnan
sI12
Fnan
sI13
Fnan
sI14
Fnan
ssS'ref1mean'
p62
(dp63
I0
F0.6984486549015806
sI1
Fnan
sI2
Fnan
sI3
Fnan
sI4
Fnan
sI5
Fnan
sI6
Fnan
sI7
Fnan
sI8
Fnan
sI9
Fnan
sI10
Fnan
sI11
Fnan
sI12
Fnan
sI13
Fnan
sI14
Fnan
ssS'ref1rms'
p64
(dp65
I0
F-3.643498
sI1
F4.025819
sI2
F1.86654
sI3
F2.861342
sI4
F3.679807
sI5
F-3.739774
sI6
F-2.128846
sI7
F-2.790881
sI8
F3.857381
sI9
F-1.379092
sI10
F1.689366
sI11
F4.066059
sI12
F3.256658
sI13
F3.66105
sI14
F3.539272
ssS'ref2magmean'
p66
(dp67
I0
F11.037
sI1
Fnan
sI2
Fnan
sI3
Fnan
sI4
Fnan
sI5
Fnan
sI6
Fnan
sI7
Fnan
sI8
Fnan
sI9
Fnan
sI10
Fnan
sI11
Fnan
sI12
Fnan
sI13
Fnan
sI14
Fnan
ssS'ref2flag'
p68
(dp69
I0
g7
sI1
g8
sI2
g9
sI3
g10
sI4
g11
sI5
g12
sI6
g13
sI7
g14
sI8
g15
sI9
g16
sI10
g17
sI11
g18
sI12
g19
sI13
g20
sI14
g21
ssS'ref2'
p70
(dp71
I0
F9524.486666666666
sI1
F9690.323333333334
sI2
F9681.853333333333
sI3
F9297.206666666667
sI4
F9494.123333333333
sI5
F9771.626666666667
sI6
F9757.9
sI7
F10004.823333333334
sI8
F9657.146666666667
sI9
F9835.376666666667
sI10
F9702.58
sI11
F9640.18
sI12
F9733.06
sI13
F9773.556666666667
sI14
F9423.313333333334
ssS'airmass'
p72
(dp73
I0
F1.005355
sI1
F1.0052299999999998
sI2
F1.016534
sI3
F1.004925
sI4
F1.005015
sI5
F1.006522
sI6
F1.005934
sI7
F1.014956
sI8
F1.006118
sI9
F1.015467
sI10
F1.014462
sI11
F1.006743
sI12
F1.015995
sI13
F1.006314
sI14
F1.005116
ssS'ref1'
p74
(dp75
I0
F7854.09
sI1
F7971.536666666667
sI2
F8042.4366666666665
sI3
F7592.6
sI4
F7941.533333333334
sI5
F8158.2266666666665
sI6
F8073.490000000001
sI7
F8219.393333333333
sI8
F7980.883333333333
sI9
F8195.716666666667
sI10
F8025.25
sI11
F7993.8933333333325
sI12
F8084.556666666667
sI13
F8087.0633333333335
sI14
F7817.956666666667
ssS'ref3'
p76
(dp77
I0
F13071.696666666667
sI1
F13307.576666666666
sI2
F13226.286666666665
sI3
F12645.006666666666
sI4
F12886.423333333334
sI5
F13524.556666666667
sI6
F13422.586666666666
sI7
F13594.676666666666
sI8
F13296.95
sI9
F13515.803333333333
sI10
F13296.346666666668
sI11
F13398.230000000001
sI12
F13400.293333333333
sI13
F13294.836666666666
sI14
F12861.756666666666
ssS'ref1bkg'
p78
(dp79
I0
F15.38435
sI1
F15.37181
sI2
F16.91728
sI3
F16.22328
sI4
F15.36141
sI5
F15.40476
sI6
F16.51971
sI7
F14.92218
sI8
F15.4854
sI9
F15.69722
sI10
F16.5259
sI11
F14.33274
sI12
F15.76189
sI13
F15.01656
sI14
F15.20193
ssS'ref1mag'
p80
(dp81
I0
F11.262
sI1
F11.246
sI2
F11.237
sI3
F11.299
sI4
F11.25
sI5
F11.221
sI6
F11.232
sI7
F11.213
sI8
F11.245
sI9
F11.216
sI10
F11.239
sI11
F11.243
sI12
F11.231
sI13
F11.231
sI14
F11.267
ssS'ref3magerr'
p82
(dp83
I0
F0.002
sI1
F0.002
sI2
F0.002
sI3
F0.002
sI4
F0.002
sI5
F0.002
sI6
F0.002
sI7
F0.002
sI8
F0.002
sI9
F0.002
sI10
F0.002
sI11
F0.002
sI12
F0.002
sI13
F0.002
sI14
F0.002
ssS'tabbymagmean'
p84
(dp85
I0
F0.43880680044454157
sI1
Fnan
sI2
Fnan
sI3
Fnan
sI4
Fnan
sI5
Fnan
sI6
Fnan
sI7
Fnan
sI8
Fnan
sI9
Fnan
sI10
Fnan
sI11
Fnan
sI12
Fnan
sI13
Fnan
sI14
Fnan
ssS'ref1magmean'
p86
(dp87
I0
F11.242133333333333
sI1
Fnan
sI2
Fnan
sI3
Fnan
sI4
Fnan
sI5
Fnan
sI6
Fnan
sI7
Fnan
sI8
Fnan
sI9
Fnan
sI10
Fnan
sI11
Fnan
sI12
Fnan
sI13
Fnan
sI14
Fnan
ssS'ref2mag'
p88
(dp89
I0
F11.053
sI1
F11.034
sI2
F11.035
sI3
F11.079
sI4
F11.056
sI5
F11.025
sI6
F11.027
sI7
F10.999
sI8
F11.038
sI9
F11.018
sI10
F11.033
sI11
F11.04
sI12
F11.029
sI13
F11.025
sI14
F11.064
ssS'ref3rms'
p90
(dp91
I0
F3.73451
sI1
F3.790645
sI2
F2.697543
sI3
F-2.940287
sI4
F3.803993
sI5
F3.578136
sI6
F-1.827261
sI7
F-2.865746
sI8
F4.112313
sI9
F5.036756
sI10
F-3.342963
sI11
F3.829632
sI12
F-3.577663
sI13
F4.133936
sI14
F2.841131
ssS'ref3magmeanerr'
p92
(dp93
I0
F0.022445065212222996
sI1
Fnan
sI2
Fnan
sI3
Fnan
sI4
Fnan
sI5
Fnan
sI6
Fnan
sI7
Fnan
sI8
Fnan
sI9
Fnan
sI10
Fnan
sI11
Fnan
sI12
Fnan
sI13
Fnan
sI14
Fnan
ssS'ref1rel'
p94
(dp95
I0
F0.6951696119772439
sI1
F0.6932403973116386
sI2
F0.7021466314302834
sI3
F0.6920541592279357
sI4
F0.7096818010403082
sI5
F0.7003916950630682
sI6
F0.6965764020485047
sI7
F0.6965735149755998
sI8
F0.6953776878462798
sI9
F0.7019531061528083
sI10
F0.697880393838669
sI11
F0.6939622424753559
sI12
F0.698952421654967
sI13
F0.7011379783998828
sI14
F0.7016317800811634
ssS'exposure'
p96
(dp97
I0
F30.0
sI1
F30.0
sI2
F30.0
sI3
F30.0
sI4
F30.0
sI5
F30.0
sI6
F30.0
sI7
F30.0
sI8
F30.0
sI9
F30.0
sI10
F30.0
sI11
F30.0
sI12
F30.0
sI13
F30.0
sI14
F30.0
ssS'ref1magerr'
p98
(dp99
I0
F0.002
sI1
F0.002
sI2
F0.002
sI3
F0.002
sI4
F0.002
sI5
F0.002
sI6
F0.002
sI7
F0.002
sI8
F0.002
sI9
F0.002
sI10
F0.002
sI11
F0.002
sI12
F0.002
sI13
F0.002
sI14
F0.002
ssS'ref2magerr'
p100
(dp101
I0
F0.002
sI1
F0.002
sI2
F0.002
sI3
F0.002
sI4
F0.002
sI5
F0.002
sI6
F0.002
sI7
F0.002
sI8
F0.002
sI9
F0.002
sI10
F0.002
sI11
F0.002
sI12
F0.002
sI13
F0.002
sI14
F0.002
ssS'ref2rms'
p102
(dp103
I0
F2.712634
sI1
F4.272786
sI2
F1.15665
sI3
F2.823306
sI4
F-4.34989
sI5
F-2.51958
sI6
F3.725468
sI7
F2.800843
sI8
F-2.835983
sI9
F-2.20631
sI10
F-3.234087
sI11
F3.752753
sI12
F-2.641942
sI13
F3.506738
sI14
F3.675345
ssS'name'
p104
(dp105
I0
S"KIC8462852-20180918at040629_-25-1X1-030-i'_cal.fts.mag.1"
p106
sI1
S"KIC8462852-20180918at040525_-25-1X1-030-i'_cal.fts.mag.1"
p107
sI2
S"KIC8462852-20180918at030754_-25-1X1-030-i'_cal.fts.mag.1"
p108
sI3
S"KIC8462852-20180918at040212_-25-1X1-030-i'_cal.fts.mag.1"
p109
sI4
S"KIC8462852-20180918at040317_-25-1X1-030-i'_cal.fts.mag.1"
p110
sI5
S"KIC8462852-20180918at033608_-25-1X1-030-i'_cal.fts.mag.1"
p111
sI6
S"KIC8462852-20180918at033920_-25-1X1-030-i'_cal.fts.mag.1"
p112
sI7
S"KIC8462852-20180918at031107_-25-1X1-030-i'_cal.fts.mag.1"
p113
sI8
S"KIC8462852-20180918at033816_-25-1X1-030-i'_cal.fts.mag.1"
p114
sI9
S"KIC8462852-20180918at031003_-25-1X1-030-i'_cal.fts.mag.1"
p115
sI10
S"KIC8462852-20180918at031211_-25-1X1-030-i'_cal.fts.mag.1"
p116
sI11
S"KIC8462852-20180918at033503_-25-1X1-030-i'_cal.fts.mag.1"
p117
sI12
S"KIC8462852-20180918at030859_-25-1X1-030-i'_cal.fts.mag.1"
p118
sI13
S"KIC8462852-20180918at033712_-25-1X1-030-i'_cal.fts.mag.1"
p119
sI14
S"KIC8462852-20180918at040421_-25-1X1-030-i'_cal.fts.mag.1"
p120
ssS'ref3err'
p121
(dp122
I0
F0.010104327542403159
sI1
Fnan
sI2
Fnan
sI3
Fnan
sI4
Fnan
sI5
Fnan
sI6
Fnan
sI7
Fnan
sI8
Fnan
sI9
Fnan
sI10
Fnan
sI11
Fnan
sI12
Fnan
sI13
Fnan
sI14
Fnan
ssS'tabby'
p123
(dp124
I0
F4422.8566666666675
sI1
F4534.259999999999
sI2
F4530.536666666667
sI3
F4293.683333333333
sI4
F4429.8966666666665
sI5
F4630.203333333334
sI6
F4572.83
sI7
F4694.34
sI8
F4518.7266666666665
sI9
F4608.086666666667
sI10
F4521.9
sI11
F4575.006666666667
sI12
F4555.203333333334
sI13
F4578.1
sI14
F4373.679999999999
ssS'ref1magmeanerr'
p125
(dp126
I0
F0.021872574695483968
sI1
Fnan
sI2
Fnan
sI3
Fnan
sI4
Fnan
sI5
Fnan
sI6
Fnan
sI7
Fnan
sI8
Fnan
sI9
Fnan
sI10
Fnan
sI11
Fnan
sI12
Fnan
sI13
Fnan
sI14
Fnan
ssS'filter'
p127
(dp128
I0
S"i'"
p129
sI1
S"i'"
p130
sI2
S"i'"
p131
sI3
S"i'"
p132
sI4
S"i'"
p133
sI5
S"i'"
p134
sI6
S"i'"
p135
sI7
S"i'"
p136
sI8
S"i'"
p137
sI9
S"i'"
p138
sI10
S"i'"
p139
sI11
S"i'"
p140
sI12
S"i'"
p141
sI13
S"i'"
p142
sI14
S"i'"
p143
ssS'tabbymagerr'
p144
(dp145
I0
F0.0022096724039438733
sI1
Fnan
sI2
Fnan
sI3
Fnan
sI4
Fnan
sI5
Fnan
sI6
Fnan
sI7
Fnan
sI8
Fnan
sI9
Fnan
sI10
Fnan
sI11
Fnan
sI12
Fnan
sI13
Fnan
sI14
Fnan
ssS'tabbyrms'
p146
(dp147
I0
F3.422131
sI1
F3.468921
sI2
F3.782974
sI3
F3.331979
sI4
F-3.672628
sI5
F1.809178
sI6
F2.72433
sI7
F-2.469821
sI8
F2.066665
sI9
F-2.615056
sI10
F2.401104
sI11
F-1.298916
sI12
F2.609002
sI13
F2.660205
sI14
F-3.135848
ssS'ref3mean'
p148
(dp149
I0
F1.4997812395128194
sI1
Fnan
sI2
Fnan
sI3
Fnan
sI4
Fnan
sI5
Fnan
sI6
Fnan
sI7
Fnan
sI8
Fnan
sI9
Fnan
sI10
Fnan
sI11
Fnan
sI12
Fnan
sI13
Fnan
sI14
Fnan
ssS'median_JD'
p150
(dp151
I0
F2458379.6508449074
sI1
Fnan
sI2
Fnan
sI3
Fnan
sI4
Fnan
sI5
Fnan
sI6
Fnan
sI7
Fnan
sI8
Fnan
sI9
Fnan
sI10
Fnan
sI11
Fnan
sI12
Fnan
sI13
Fnan
sI14
Fnan
ssS'error'
p152
(dp153
I0
F0.0022096724039438733
sI1
Fnan
sI2
Fnan
sI3
Fnan
sI4
Fnan
sI5
Fnan
sI6
Fnan
sI7
Fnan
sI8
Fnan
sI9
Fnan
sI10
Fnan
sI11
Fnan
sI12
Fnan
sI13
Fnan
sI14
Fnan
ssS'ref3bkg'
p154
(dp155
I0
F19.04345
sI1
F17.09728
sI2
F19.15475
sI3
F20.32723
sI4
F17.99901
sI5
F17.20012
sI6
F16.97246
sI7
F17.96304
sI8
F17.91213
sI9
F17.71363
sI10
F19.81203
sI11
F16.78819
sI12
F18.68193
sI13
F17.07459
sI14
F19.03579
ssS'ref3mag'
p156
(dp157
I0
F10.709
sI1
F10.69
sI2
F10.696
sI3
F10.745
sI4
F10.725
sI5
F10.672
sI6
F10.68
sI7
F10.667
sI8
F10.691
sI9
F10.673
sI10
F10.691
sI11
F10.682
sI12
F10.682
sI13
F10.691
sI14
F10.727
ssS'mean'
p158
(dp159
I0
F0.43880680044454157
sI1
Fnan
sI2
Fnan
sI3
Fnan
sI4
Fnan
sI5
Fnan
sI6
Fnan
sI7
Fnan
sI8
Fnan
sI9
Fnan
sI10
Fnan
sI11
Fnan
sI12
Fnan
sI13
Fnan
sI14
Fnan
sssS'r'
p160
(dp161
g3
(dp162
I0
F0.5491417207284042
sI1
Fnan
sI2
Fnan
sI3
Fnan
sI4
Fnan
sI5
Fnan
sI6
Fnan
sI7
Fnan
sI8
Fnan
sI9
Fnan
sI10
Fnan
sI11
Fnan
sI12
Fnan
sI13
Fnan
sI14
Fnan
ssg5
(dp163
I0
S'NoError'
p164
sI1
S'NoError'
p165
sI2
S'NoError'
p166
sI3
S'NoError'
p167
sI4
S'NoError'
p168
sI5
S'NoError'
p169
sI6
S'NoError'
p170
sI7
S'NoError'
p171
sI8
S'NoError'
p172
sI9
S'NoError'
p173
sI10
S'NoError'
p174
sI11
S'NoError'
p175
sI12
S'NoError'
p176
sI13
S'NoError'
p177
sI14
S'NoError'
p178
ssg22
(dp179
I0
F0.002
sI1
F0.002
sI2
F0.002
sI3
F0.002
sI4
F0.002
sI5
F0.002
sI6
F0.002
sI7
F0.002
sI8
F0.002
sI9
F0.002
sI10
F0.002
sI11
F0.002
sI12
F0.002
sI13
F0.002
sI14
F0.002
ssg24
(dp180
I0
F0.9026298829490309
sI1
F0.8937303447187247
sI2
F0.9052747798064669
sI3
F0.8906632404542891
sI4
F0.896441867658225
sI5
F0.8975064430625515
sI6
F0.8918178367900094
sI7
F0.9062330660403649
sI8
F0.8931966007719526
sI9
F0.8938821057818198
sI10
F0.8965309927177048
sI11
F0.893178374060427
sI12
F0.8929763527713089
sI13
F0.8932625508127785
sI14
F0.8879502903192247
ssg26
(dp181
I0
F0.005269951025505611
sI1
Fnan
sI2
Fnan
sI3
Fnan
sI4
Fnan
sI5
Fnan
sI6
Fnan
sI7
Fnan
sI8
Fnan
sI9
Fnan
sI10
Fnan
sI11
Fnan
sI12
Fnan
sI13
Fnan
sI14
Fnan
ssg28
(dp182
I0
F0.8956849819143253
sI1
Fnan
sI2
Fnan
sI3
Fnan
sI4
Fnan
sI5
Fnan
sI6
Fnan
sI7
Fnan
sI8
Fnan
sI9
Fnan
sI10
Fnan
sI11
Fnan
sI12
Fnan
sI13
Fnan
sI14
Fnan
ssg30
(dp183
I0
F11.167
sI1
F11.145
sI2
F11.128
sI3
F11.136
sI4
F11.138
sI5
F11.159
sI6
F11.186
sI7
F11.111
sI8
F11.166
sI9
F11.17
sI10
F11.165
sI11
F11.147
sI12
F11.142
sI13
F11.139
sI14
F11.193
ssg32
(dp184
I0
F20.86647
sI1
F20.526
sI2
F20.30978
sI3
F22.4665
sI4
F21.57152
sI5
F21.76953
sI6
F21.73042
sI7
F20.84345
sI8
F20.85281
sI9
F21.58665
sI10
F20.17635
sI11
F20.39125
sI12
F22.20926
sI13
F21.98276
sI14
F21.80754
ssg34
(dp185
I0
F2458379.6652546297
sI1
F2458379.664513889
sI2
F2458379.6471412037
sI3
F2458379.6297453702
sI4
F2458379.629016204
sI5
F2458379.646412037
sI6
F2458379.648611111
sI7
F2458379.6268055555
sI8
F2458379.666724537
sI9
F2458379.665983796
sI10
F2458379.64787037
sI11
F2458379.6456712964
sI12
F2458379.6275462965
sI13
F2458379.628275463
sI14
F2458379.667453704
ssg36
(dp186
I0
F3.556877066666666
sI1
Fnan
sI2
Fnan
sI3
Fnan
sI4
Fnan
sI5
Fnan
sI6
Fnan
sI7
Fnan
sI8
Fnan
sI9
Fnan
sI10
Fnan
sI11
Fnan
sI12
Fnan
sI13
Fnan
sI14
Fnan
ssg38
(dp187
I0
F1.7807575999999996
sI1
Fnan
sI2
Fnan
sI3
Fnan
sI4
Fnan
sI5
Fnan
sI6
Fnan
sI7
Fnan
sI8
Fnan
sI9
Fnan
sI10
Fnan
sI11
Fnan
sI12
Fnan
sI13
Fnan
sI14
Fnan
ssg40
(dp188
I0
F0.5496340924649427
sI1
F0.5505588204379048
sI2
F0.548895083032376
sI3
F0.5452635662773871
sI4
F0.547313406256316
sI5
F0.5546185268151271
sI6
F0.5461211268173778
sI7
F0.5468320961538035
sI8
F0.5500009041008161
sI9
F0.5529999415923981
sI10
F0.5556295504015341
sI11
F0.549669324238439
sI12
F0.5497484318781105
sI13
F0.5500037950342619
sI14
F0.5479236267341038
ssg42
(dp189
I0
F0.0017937384610551969
sI1
Fnan
sI2
Fnan
sI3
Fnan
sI4
Fnan
sI5
Fnan
sI6
Fnan
sI7
Fnan
sI8
Fnan
sI9
Fnan
sI10
Fnan
sI11
Fnan
sI12
Fnan
sI13
Fnan
sI14
Fnan
ssg44
(dp190
I0
F2.658239866666667
sI1
Fnan
sI2
Fnan
sI3
Fnan
sI4
Fnan
sI5
Fnan
sI6
Fnan
sI7
Fnan
sI8
Fnan
sI9
Fnan
sI10
Fnan
sI11
Fnan
sI12
Fnan
sI13
Fnan
sI14
Fnan
ssg46
(dp191
I0
g164
sI1
g165
sI2
g166
sI3
g167
sI4
g168
sI5
g169
sI6
g170
sI7
g171
sI8
g172
sI9
g173
sI10
g174
sI11
g175
sI12
g176
sI13
g177
sI14
g178
ssg48
(dp192
I0
F0.0038333169245447474
sI1
Fnan
sI2
Fnan
sI3
Fnan
sI4
Fnan
sI5
Fnan
sI6
Fnan
sI7
Fnan
sI8
Fnan
sI9
Fnan
sI10
Fnan
sI11
Fnan
sI12
Fnan
sI13
Fnan
sI14
Fnan
ssg50
(dp193
I0
F0.02645445322130265
sI1
Fnan
sI2
Fnan
sI3
Fnan
sI4
Fnan
sI5
Fnan
sI6
Fnan
sI7
Fnan
sI8
Fnan
sI9
Fnan
sI10
Fnan
sI11
Fnan
sI12
Fnan
sI13
Fnan
sI14
Fnan
ssg52
(dp194
I0
F2.831972933333333
sI1
Fnan
sI2
Fnan
sI3
Fnan
sI4
Fnan
sI5
Fnan
sI6
Fnan
sI7
Fnan
sI8
Fnan
sI9
Fnan
sI10
Fnan
sI11
Fnan
sI12
Fnan
sI13
Fnan
sI14
Fnan
ssg54
(dp195
I0
F1.4881628416878872
sI1
F1.498069401726756
sI2
F1.472531775918881
sI3
F1.485767586452606
sI4
F1.4878039763801953
sI5
F1.490468304878778
sI6
F1.496583231001743
sI7
F1.4841011956924874
sI8
F1.5022084664696052
sI9
F1.4897049421993576
sI10
F1.4903919336493794
sI11
F1.4910295800216626
sI12
F1.492960103869653
sI13
F1.4986910032790821
sI14
F1.5145510652383936
ssg56
(dp196
I0
g164
sI1
g165
sI2
g166
sI3
g167
sI4
g168
sI5
g169
sI6
g170
sI7
g171
sI8
g172
sI9
g173
sI10
g174
sI11
g175
sI12
g176
sI13
g177
sI14
g178
ssg58
(dp197
I0
F24.23268
sI1
F22.9154
sI2
F22.46123
sI3
F24.41996
sI4
F24.04636
sI5
F24.79926
sI6
F27.10646
sI7
F23.57351
sI8
F24.4258
sI9
F24.666
sI10
F25.65881
sI11
F23.18045
sI12
F25.01662
sI13
F24.74141
sI14
F26.56036
ssg60
(dp198
I0
F10.2334
sI1
Fnan
sI2
Fnan
sI3
Fnan
sI4
Fnan
sI5
Fnan
sI6
Fnan
sI7
Fnan
sI8
Fnan
sI9
Fnan
sI10
Fnan
sI11
Fnan
sI12
Fnan
sI13
Fnan
sI14
Fnan
ssg62
(dp199
I0
F0.7151588646867711
sI1
Fnan
sI2
Fnan
sI3
Fnan
sI4
Fnan
sI5
Fnan
sI6
Fnan
sI7
Fnan
sI8
Fnan
sI9
Fnan
sI10
Fnan
sI11
Fnan
sI12
Fnan
sI13
Fnan
sI14
Fnan
ssg64
(dp200
I0
F-3.550738
sI1
F-2.192849
sI2
F-4.158006
sI3
F3.200569
sI4
F3.050309
sI5
F4.065687
sI6
F3.945384
sI7
F4.137108
sI8
F4.28977
sI9
F4.176767
sI10
F1.867119
sI11
F3.846486
sI12
F3.496437
sI13
F-1.301282
sI14
F1.838603
ssg66
(dp201
I0
F10.584133333333334
sI1
Fnan
sI2
Fnan
sI3
Fnan
sI4
Fnan
sI5
Fnan
sI6
Fnan
sI7
Fnan
sI8
Fnan
sI9
Fnan
sI10
Fnan
sI11
Fnan
sI12
Fnan
sI13
Fnan
sI14
Fnan
ssg68
(dp202
I0
g164
sI1
g165
sI2
g166
sI3
g167
sI4
g168
sI5
g169
sI6
g170
sI7
g171
sI8
g172
sI9
g173
sI10
g174
sI11
g175
sI12
g176
sI13
g177
sI14
g178
ssg70
(dp203
I0
F14558.786666666665
sI1
F14720.99
sI2
F15141.46
sI3
F14957.269999999999
sI4
F14940.519999999999
sI5
F14472.493333333334
sI6
F14271.053333333333
sI7
F15447.09
sI8
F14455.553333333333
sI9
F14331.753333333332
sI10
F14355.363333333335
sI11
F14718.196666666667
sI12
F14772.906666666668
sI13
F14819.873333333333
sI14
F14097.023333333334
ssg72
(dp204
I0
F1.004689
sI1
F1.00466
sI2
F1.007478
sI3
F1.017093
sI4
F1.0176530000000001
sI5
F1.0077450000000001
sI6
F1.006979
sI7
F1.019408
sI8
F1.004782
sI9
F1.00473
sI10
F1.007223
sI11
F1.008025
sI12
F1.018815
sI13
F1.0182229999999999
sI14
F1.0048469999999998
ssg74
(dp205
I0
F12284.79
sI1
F12530.493333333334
sI2
F12845.666666666666
sI3
F12895.466666666667
sI4
F12740.769999999999
sI5
F12299.24
sI6
F12197.91
sI7
F12989.43
sI8
F12283.966666666667
sI9
F12259.646666666667
sI10
F12220.223333333333
sI11
F12594.72
sI12
F12630.67
sI13
F12619.716666666667
sI14
F11993.85
ssg76
(dp206
I0
F19973.806666666664
sI1
F20412.306666666664
sI2
F20605.966666666667
sI3
F20691.346666666668
sI4
F20592.166666666668
sI5
F19951.210000000003
sI6
F19806.503333333334
sI7
F21101.336666666666
sI8
F20084.166666666668
sI9
F19806.67
sI10
F19804.02
sI11
F20362.183333333334
sI12
F20456.22333333333
sI13
F20561.733333333334
sI14
F19757.98
ssg78
(dp207
I0
F23.30249
sI1
F22.4601
sI2
F22.30217
sI3
F23.45248
sI4
F23.2793
sI5
F23.52678
sI6
F26.70142
sI7
F23.19687
sI8
F23.00457
sI9
F23.19647
sI10
F25.74867
sI11
F22.64134
sI12
F24.55878
sI13
F23.82524
sI14
F24.96519
ssg80
(dp208
I0
F10.777
sI1
F10.755
sI2
F10.728
sI3
F10.724
sI4
F10.737
sI5
F10.775
sI6
F10.784
sI7
F10.716
sI8
F10.777
sI9
F10.779
sI10
F10.782
sI11
F10.75
sI12
F10.746
sI13
F10.747
sI14
F10.803
ssg82
(dp209
I0
F0.001
sI1
F0.001
sI2
F0.001
sI3
F0.001
sI4
F0.001
sI5
F0.001
sI6
F0.001
sI7
F0.001
sI8
F0.001
sI9
F0.001
sI10
F0.001
sI11
F0.001
sI12
F0.001
sI13
F0.001
sI14
F0.001
ssg84
(dp210
I0
F0.5496808194823265
sI1
Fnan
sI2
Fnan
sI3
Fnan
sI4
Fnan
sI5
Fnan
sI6
Fnan
sI7
Fnan
sI8
Fnan
sI9
Fnan
sI10
Fnan
sI11
Fnan
sI12
Fnan
sI13
Fnan
sI14
Fnan
ssg86
(dp211
I0
F10.758666666666667
sI1
Fnan
sI2
Fnan
sI3
Fnan
sI4
Fnan
sI5
Fnan
sI6
Fnan
sI7
Fnan
sI8
Fnan
sI9
Fnan
sI10
Fnan
sI11
Fnan
sI12
Fnan
sI13
Fnan
sI14
Fnan
ssg88
(dp212
I0
F10.592
sI1
F10.58
sI2
F10.55
sI3
F10.563
sI4
F10.564
sI5
F10.599
sI6
F10.614
sI7
F10.528
sI8
F10.6
sI9
F10.609
sI10
F10.607
sI11
F10.58
sI12
F10.576
sI13
F10.573
sI14
F10.627
ssg90
(dp213
I0
F3.935089
sI1
F3.245695
sI2
F4.777737
sI3
F2.821022
sI4
F4.156961
sI5
F2.271095
sI6
F5.915956
sI7
F3.039709
sI8
F4.979099
sI9
F6.081181
sI10
F3.420441
sI11
F2.6483
sI12
F-2.946273
sI13
F4.663556
sI14
F4.343588
ssg92
(dp214
I0
F0.022005843379819173
sI1
Fnan
sI2
Fnan
sI3
Fnan
sI4
Fnan
sI5
Fnan
sI6
Fnan
sI7
Fnan
sI8
Fnan
sI9
Fnan
sI10
Fnan
sI11
Fnan
sI12
Fnan
sI13
Fnan
sI14
Fnan
ssg94
(dp215
I0
F0.7114895705294072
sI1
F0.713311560382084
sI2
F0.7186904269472824
sI3
F0.7234764135307729
sI4
F0.7171295612696891
sI5
F0.7145797115960116
sI6
F0.7158911138680032
sI7
F0.7108065208096509
sI8
F0.7112950925292195
sI9
F0.7182315683979548
sI10
F0.7154826663049636
sI11
F0.7180492343583506
sI12
F0.7170582980618596
sI13
F0.713348988674153
sI14
F0.7085422430421658
ssg96
(dp216
I0
F30.0
sI1
F30.0
sI2
F30.0
sI3
F30.0
sI4
F30.0
sI5
F30.0
sI6
F30.0
sI7
F30.0
sI8
F30.0
sI9
F30.0
sI10
F30.0
sI11
F30.0
sI12
F30.0
sI13
F30.0
sI14
F30.0
ssg98
(dp217
I0
F0.002
sI1
F0.002
sI2
F0.002
sI3
F0.002
sI4
F0.002
sI5
F0.002
sI6
F0.002
sI7
F0.002
sI8
F0.002
sI9
F0.002
sI10
F0.002
sI11
F0.002
sI12
F0.002
sI13
F0.002
sI14
F0.002
ssg100
(dp218
I0
F0.002
sI1
F0.001
sI2
F0.001
sI3
F0.001
sI4
F0.001
sI5
F0.002
sI6
F0.002
sI7
F0.001
sI8
F0.002
sI9
F0.002
sI10
F0.002
sI11
F0.002
sI12
F0.001
sI13
F0.001
sI14
F0.002
ssg102
(dp219
I0
F4.37042
sI1
F3.51558
sI2
F3.279569
sI3
F4.187712
sI4
F3.427083
sI5
F5.034437
sI6
F4.492539
sI7
F-4.556296
sI8
F1.554419
sI9
F-2.361896
sI10
F4.071732
sI11
F4.097154
sI12
F3.641787
sI13
F3.567058
sI14
F4.158296
ssg104
(dp220
I0
S"KIC8462852-20180918at035758_-25-1X1-030-r'_cal.fts.mag.1"
p221
sI1
S"KIC8462852-20180918at035653_-25-1X1-030-r'_cal.fts.mag.1"
p222
sI2
S"KIC8462852-20180918at033153_-25-1X1-030-r'_cal.fts.mag.1"
p223
sI3
S"KIC8462852-20180918at030650_-25-1X1-030-r'_cal.fts.mag.1"
p224
sI4
S"KIC8462852-20180918at030547_-25-1X1-030-r'_cal.fts.mag.1"
p225
sI5
S"KIC8462852-20180918at033050_-25-1X1-030-r'_cal.fts.mag.1"
p226
sI6
S"KIC8462852-20180918at033400_-25-1X1-030-r'_cal.fts.mag.1"
p227
sI7
S"KIC8462852-20180918at030234_-25-1X1-030-r'_cal.fts.mag.1"
p228
sI8
S"KIC8462852-20180918at040005_-25-1X1-030-r'_cal.fts.mag.1"
p229
sI9
S"KIC8462852-20180918at035901_-25-1X1-030-r'_cal.fts.mag.1"
p230
sI10
S"KIC8462852-20180918at033256_-25-1X1-030-r'_cal.fts.mag.1"
p231
sI11
S"KIC8462852-20180918at032944_-25-1X1-030-r'_cal.fts.mag.1"
p232
sI12
S"KIC8462852-20180918at030340_-25-1X1-030-r'_cal.fts.mag.1"
p233
sI13
S"KIC8462852-20180918at030443_-25-1X1-030-r'_cal.fts.mag.1"
p234
sI14
S"KIC8462852-20180918at040108_-25-1X1-030-r'_cal.fts.mag.1"
p235
ssg121
(dp236
I0
F0.009408982411848635
sI1
Fnan
sI2
Fnan
sI3
Fnan
sI4
Fnan
sI5
Fnan
sI6
Fnan
sI7
Fnan
sI8
Fnan
sI9
Fnan
sI10
Fnan
sI11
Fnan
sI12
Fnan
sI13
Fnan
sI14
Fnan
ssg123
(dp237
I0
F8577.476666666666
sI1
F8747.24
sI2
F8890.836666666666
sI3
F8823.106666666667
sI4
F8806.903333333332
sI5
F8637.803333333333
sI6
F8424.003333333334
sI7
F9029.630000000001
sI8
F8584.356666666667
sI9
F8552.71
sI10
F8589.96
sI11
F8735.18
sI12
F8770.283333333333
sI13
F8800.303333333333
sI14
F8373.890000000001
ssg125
(dp238
I0
F0.025803285135996373
sI1
Fnan
sI2
Fnan
sI3
Fnan
sI4
Fnan
sI5
Fnan
sI6
Fnan
sI7
Fnan
sI8
Fnan
sI9
Fnan
sI10
Fnan
sI11
Fnan
sI12
Fnan
sI13
Fnan
sI14
Fnan
ssg127
(dp239
I0
S"r'"
p240
sI1
S"r'"
p241
sI2
S"r'"
p242
sI3
S"r'"
p243
sI4
S"r'"
p244
sI5
S"r'"
p245
sI6
S"r'"
p246
sI7
S"r'"
p247
sI8
S"r'"
p248
sI9
S"r'"
p249
sI10
S"r'"
p250
sI11
S"r'"
p251
sI12
S"r'"
p252
sI13
S"r'"
p253
sI14
S"r'"
p254
ssg144
(dp255
I0
F0.0029444618805948637
sI1
Fnan
sI2
Fnan
sI3
Fnan
sI4
Fnan
sI5
Fnan
sI6
Fnan
sI7
Fnan
sI8
Fnan
sI9
Fnan
sI10
Fnan
sI11
Fnan
sI12
Fnan
sI13
Fnan
sI14
Fnan
ssg146
(dp256
I0
F3.684872
sI1
F-2.283121
sI2
F3.682765
sI3
F-2.7774
sI4
F2.298801
sI5
F1.546854
sI6
F5.031718
sI7
F4.221223
sI8
F4.333566
sI9
F4.292362
sI10
F4.251462
sI11
F2.047879
sI12
F4.223557
sI13
F2.12994
sI14
F3.18912
ssg148
(dp257
I0
F1.4922016938977647
sI1
Fnan
sI2
Fnan
sI3
Fnan
sI4
Fnan
sI5
Fnan
sI6
Fnan
sI7
Fnan
sI8
Fnan
sI9
Fnan
sI10
Fnan
sI11
Fnan
sI12
Fnan
sI13
Fnan
sI14
Fnan
ssg150
(dp258
I0
F2458379.6471412037
sI1
Fnan
sI2
Fnan
sI3
Fnan
sI4
Fnan
sI5
Fnan
sI6
Fnan
sI7
Fnan
sI8
Fnan
sI9
Fnan
sI10
Fnan
sI11
Fnan
sI12
Fnan
sI13
Fnan
sI14
Fnan
ssg152
(dp259
I0
F0.0029444618805948637
sI1
Fnan
sI2
Fnan
sI3
Fnan
sI4
Fnan
sI5
Fnan
sI6
Fnan
sI7
Fnan
sI8
Fnan
sI9
Fnan
sI10
Fnan
sI11
Fnan
sI12
Fnan
sI13
Fnan
sI14
Fnan
ssg154
(dp260
I0
F28.0417
sI1
F26.03632
sI2
F25.28758
sI3
F28.1106
sI4
F27.43738
sI5
F28.28767
sI6
F30.71883
sI7
F24.86849
sI8
F27.25883
sI9
F28.40527
sI10
F30.81582
sI11
F26.28569
sI12
F29.01977
sI13
F27.56144
sI14
F30.77118
ssg156
(dp261
I0
F10.249
sI1
F10.225
sI2
F10.215
sI3
F10.211
sI4
F10.216
sI5
F10.25
sI6
F10.258
sI7
F10.189
sI8
F10.243
sI9
F10.258
sI10
F10.258
sI11
F10.228
sI12
F10.223
sI13
F10.217
sI14
F10.261
ssg158
(dp262
I0
F0.5496808194823265
sI1
Fnan
sI2
Fnan
sI3
Fnan
sI4
Fnan
sI5
Fnan
sI6
Fnan
sI7
Fnan
sI8
Fnan
sI9
Fnan
sI10
Fnan
sI11
Fnan
sI12
Fnan
sI13
Fnan
sI14
Fnan
sssS'z'
p263
(dp264
g3
(dp265
I0
F0.36956207586734574
sI1
Fnan
sI2
Fnan
sI3
Fnan
sI4
Fnan
sI5
Fnan
sI6
Fnan
sI7
Fnan
sI8
Fnan
sI9
Fnan
sI10
Fnan
sI11
Fnan
sI12
Fnan
sI13
Fnan
sI14
Fnan
ssg5
(dp266
I0
S'NoError'
p267
sI1
S'NoError'
p268
sI2
S'NoError'
p269
sI3
S'NoError'
p270
sI4
S'NoError'
p271
sI5
S'NoError'
p272
sI6
S'NoError'
p273
sI7
S'NoError'
p274
sI8
S'NoError'
p275
sI9
S'NoError'
p276
sI10
S'NoError'
p277
sI11
S'NoError'
p278
sI12
S'NoError'
p279
sI13
S'NoError'
p280
sI14
S'NoError'
p281
ssg22
(dp282
I0
F0.007
sI1
F0.007
sI2
F0.007
sI3
F0.007
sI4
F0.007
sI5
F0.007
sI6
F0.007
sI7
F0.007
sI8
F0.007
sI9
F0.007
sI10
F0.007
sI11
F0.007
sI12
F0.007
sI13
F0.007
sI14
F0.007
ssg24
(dp283
I0
F0.9201132290434584
sI1
F0.9196259718526794
sI2
F0.9108340632907481
sI3
F0.9169351261335292
sI4
F0.9178152768515133
sI5
F0.9134215505906742
sI6
F0.9150122991207025
sI7
F0.9213142084167087
sI8
F0.9147266657335605
sI9
F0.921694111165978
sI10
F0.9219363125002024
sI11
F0.9152510742707293
sI12
F0.9105424964847754
sI13
F0.9079515912269787
sI14
F0.9261165919094116
ssg26
(dp284
I0
F0.005012579705115018
sI1
Fnan
sI2
Fnan
sI3
Fnan
sI4
Fnan
sI5
Fnan
sI6
Fnan
sI7
Fnan
sI8
Fnan
sI9
Fnan
sI10
Fnan
sI11
Fnan
sI12
Fnan
sI13
Fnan
sI14
Fnan
ssg28
(dp285
I0
F0.9168860379061099
sI1
Fnan
sI2
Fnan
sI3
Fnan
sI4
Fnan
sI5
Fnan
sI6
Fnan
sI7
Fnan
sI8
Fnan
sI9
Fnan
sI10
Fnan
sI11
Fnan
sI12
Fnan
sI13
Fnan
sI14
Fnan
ssg30
(dp286
I0
F13.244
sI1
F13.231
sI2
F13.291
sI3
F13.231
sI4
F13.253
sI5
F13.225
sI6
F13.193
sI7
F13.296
sI8
F13.243
sI9
F13.218
sI10
F13.263
sI11
F13.261
sI12
F13.28
sI13
F13.285
sI14
F13.26
ssg32
(dp287
I0
F8.89628
sI1
F8.34636
sI2
F8.720946
sI3
F8.451718
sI4
F9.02153
sI5
F8.135484
sI6
F8.158197
sI7
F9.667068
sI8
F7.42384
sI9
F8.439604
sI10
F7.965118
sI11
F8.528135
sI12
F7.909337
sI13
F11.07487
sI14
F8.039698
ssg34
(dp288
I0
F2458379.654548611
sI1
F2458379.63568287
sI2
F2458379.6349537037
sI3
F2458379.673391204
sI4
F2458379.634212963
sI5
F2458379.636423611
sI6
F2458379.6530787037
sI7
F2458379.6741319443
sI8
F2458379.6719212965
sI9
F2458379.6538194446
sI10
F2458379.637164352
sI11
F2458379.6560300924
sI12
F2458379.672662037
sI13
F2458379.6748842592
sI14
F2458379.655289352
ssg36
(dp289
I0
F0.8285465999999999
sI1
Fnan
sI2
Fnan
sI3
Fnan
sI4
Fnan
sI5
Fnan
sI6
Fnan
sI7
Fnan
sI8
Fnan
sI9
Fnan
sI10
Fnan
sI11
Fnan
sI12
Fnan
sI13
Fnan
sI14
Fnan
ssg38
(dp290
I0
F1.344898666666667
sI1
Fnan
sI2
Fnan
sI3
Fnan
sI4
Fnan
sI5
Fnan
sI6
Fnan
sI7
Fnan
sI8
Fnan
sI9
Fnan
sI10
Fnan
sI11
Fnan
sI12
Fnan
sI13
Fnan
sI14
Fnan
ssg40
(dp291
I0
F0.371646836474849
sI1
F0.3703662769915171
sI2
F0.36694147653177317
sI3
F0.368481955510911
sI4
F0.36834306521876253
sI5
F0.3731852208632215
sI6
F0.3733482668401219
sI7
F0.3706396021747482
sI8
F0.3727705998296237
sI9
F0.3700018636343089
sI10
F0.36985269787435077
sI11
F0.36725079990977083
sI12
F0.36925344572309843
sI13
F0.3691962905344366
sI14
F0.3662247423349848
ssg42
(dp292
I0
F0.0016283367147803156
sI1
Fnan
sI2
Fnan
sI3
Fnan
sI4
Fnan
sI5
Fnan
sI6
Fnan
sI7
Fnan
sI8
Fnan
sI9
Fnan
sI10
Fnan
sI11
Fnan
sI12
Fnan
sI13
Fnan
sI14
Fnan
ssg44
(dp293
I0
F1.9994856000000003
sI1
Fnan
sI2
Fnan
sI3
Fnan
sI4
Fnan
sI5
Fnan
sI6
Fnan
sI7
Fnan
sI8
Fnan
sI9
Fnan
sI10
Fnan
sI11
Fnan
sI12
Fnan
sI13
Fnan
sI14
Fnan
ssg46
(dp294
I0
g267
sI1
g268
sI2
g269
sI3
g270
sI4
g271
sI5
g272
sI6
g273
sI7
g274
sI8
g275
sI9
g276
sI10
g277
sI11
g278
sI12
g279
sI13
g280
sI14
g281
ssg48
(dp295
I0
F0.003637495148267173
sI1
Fnan
sI2
Fnan
sI3
Fnan
sI4
Fnan
sI5
Fnan
sI6
Fnan
sI7
Fnan
sI8
Fnan
sI9
Fnan
sI10
Fnan
sI11
Fnan
sI12
Fnan
sI13
Fnan
sI14
Fnan
ssg50
(dp296
I0
F0.02771745195462833
sI1
Fnan
sI2
Fnan
sI3
Fnan
sI4
Fnan
sI5
Fnan
sI6
Fnan
sI7
Fnan
sI8
Fnan
sI9
Fnan
sI10
Fnan
sI11
Fnan
sI12
Fnan
sI13
Fnan
sI14
Fnan
ssg52
(dp297
I0
F0.7875269333333333
sI1
Fnan
sI2
Fnan
sI3
Fnan
sI4
Fnan
sI5
Fnan
sI6
Fnan
sI7
Fnan
sI8
Fnan
sI9
Fnan
sI10
Fnan
sI11
Fnan
sI12
Fnan
sI13
Fnan
sI14
Fnan
ssg54
(dp298
I0
F1.5079814810797922
sI1
F1.5000512774609922
sI2
F1.5193124320993303
sI3
F1.4918610243846444
sI4
F1.4954298066786438
sI5
F1.5064033554050515
sI6
F1.5025316317795512
sI7
F1.498395842388484
sI8
F1.5033492076366781
sI9
F1.50279464776549
sI10
F1.484181868288096
sI11
F1.5061791226598138
sI12
F1.5071178848532354
sI13
F1.5154098067545216
sI14
F1.4909367301147294
ssg56
(dp299
I0
g267
sI1
g268
sI2
g269
sI3
g270
sI4
g271
sI5
g272
sI6
g273
sI7
g274
sI8
g275
sI9
g276
sI10
g277
sI11
g278
sI12
g279
sI13
g280
sI14
g281
ssg58
(dp300
I0
F9.256472
sI1
F8.882308
sI2
F10.62602
sI3
F10.15857
sI4
F9.614632
sI5
F9.059724
sI6
F8.938747
sI7
F12.3743
sI8
F8.77282
sI9
F9.036453
sI10
F10.42315
sI11
F9.580683
sI12
F9.820506
sI13
F13.13304
sI14
F9.369315
ssg60
(dp301
I0
F11.898066666666667
sI1
Fnan
sI2
Fnan
sI3
Fnan
sI4
Fnan
sI5
Fnan
sI6
Fnan
sI7
Fnan
sI8
Fnan
sI9
Fnan
sI10
Fnan
sI11
Fnan
sI12
Fnan
sI13
Fnan
sI14
Fnan
ssg62
(dp302
I0
F0.6908872553802381
sI1
Fnan
sI2
Fnan
sI3
Fnan
sI4
Fnan
sI5
Fnan
sI6
Fnan
sI7
Fnan
sI8
Fnan
sI9
Fnan
sI10
Fnan
sI11
Fnan
sI12
Fnan
sI13
Fnan
sI14
Fnan
ssg64
(dp303
I0
F-1.347158
sI1
F2.927369
sI2
F-2.207051
sI3
F-3.40014
sI4
F-2.957159
sI5
F3.220813
sI6
F-1.62101
sI7
F3.729283
sI8
F3.224984
sI9
F2.767011
sI10
F2.389182
sI11
F4.314362
sI12
F2.497025
sI13
F2.872914
sI14
F3.763055
ssg66
(dp304
I0
F12.235399999999998
sI1
Fnan
sI2
Fnan
sI3
Fnan
sI4
Fnan
sI5
Fnan
sI6
Fnan
sI7
Fnan
sI8
Fnan
sI9
Fnan
sI10
Fnan
sI11
Fnan
sI12
Fnan
sI13
Fnan
sI14
Fnan
ssg68
(dp305
I0
g267
sI1
g268
sI2
g269
sI3
g270
sI4
g271
sI5
g272
sI6
g273
sI7
g274
sI8
g275
sI9
g276
sI10
g277
sI11
g278
sI12
g279
sI13
g280
sI14
g281
ssg70
(dp306
I0
F3218.866
sI1
F3267.9506666666666
sI2
F3099.8933333333334
sI3
F3278.353
sI4
F3216.684333333333
sI5
F3248.1326666666664
sI6
F3347.163333333333
sI7
F3079.0896666666667
sI8
F3201.234
sI9
F3314.9576666666667
sI10
F3182.646
sI11
F3196.0396666666666
sI12
F3113.8433333333332
sI13
F3094.0033333333336
sI14
F3233.144333333333
ssg72
(dp307
I0
F1.005454
sI1
F1.0130350000000001
sI2
F1.013493
sI3
F1.005808
sI4
F1.013966
sI5
F1.0125879999999998
sI6
F1.00576
sI7
F1.005983
sI8
F1.005496
sI9
F1.005601
sI10
F1.012152
sI11
F1.005196
sI12
F1.0056459999999998
sI13
F1.006171
sI14
F1.00532
ssg74
(dp308
I0
F2605.3036666666667
sI1
F2660.58
sI2
F2529.9603333333334
sI3
F2694.9826666666663
sI4
F2634.4539999999997
sI5
F2661.139
sI6
F2741.729
sI7
F2502.4483333333333
sI8
F2622.0836666666664
sI9
F2684.904
sI10
F2607.471
sI11
F2610.8526666666667
sI12
F2562.2576666666664
sI13
F2543.662
sI14
F2619.324
ssg76
(dp309
I0
F4391.37
sI1
F4446.55
sI2
F4276.753333333333
sI3
F4455.693333333333
sI4
F4374.983333333334
sI5
F4450.873333333334
sI6
F4574.376666666666
sI7
F4181.676666666667
sI8
F4377.240000000001
sI9
F4508.28
sI10
F4296.793333333333
sI11
F4373.11
sI12
F4277.276666666667
sI13
F4271.6866666666665
sI14
F4362.83
ssg78
(dp310
I0
F8.671367
sI1
F8.815066
sI2
F10.25445
sI3
F10.02789
sI4
F9.988425
sI5
F9.304875
sI6
F8.264027
sI7
F9.95403
sI8
F8.304655
sI9
F8.879607
sI10
F9.251364
sI11
F8.573059
sI12
F10.03928
sI13
F12.04323
sI14
F8.783355
ssg80
(dp311
I0
F12.46
sI1
F12.438
sI2
F12.492
sI3
F12.424
sI4
F12.448
sI5
F12.437
sI6
F12.405
sI7
F12.504
sI8
F12.453
sI9
F12.428
sI10
F12.459
sI11
F12.458
sI12
F12.478
sI13
F12.486
sI14
F12.455
ssg82
(dp312
I0
F0.003
sI1
F0.003
sI2
F0.003
sI3
F0.003
sI4
F0.003
sI5
F0.003
sI6
F0.003
sI7
F0.003
sI8
F0.003
sI9
F0.003
sI10
F0.003
sI11
F0.003
sI12
F0.003
sI13
F0.003
sI14
F0.003
ssg84
(dp313
I0
F0.3698335426964318
sI1
Fnan
sI2
Fnan
sI3
Fnan
sI4
Fnan
sI5
Fnan
sI6
Fnan
sI7
Fnan
sI8
Fnan
sI9
Fnan
sI10
Fnan
sI11
Fnan
sI12
Fnan
sI13
Fnan
sI14
Fnan
ssg86
(dp314
I0
F12.455000000000002
sI1
Fnan
sI2
Fnan
sI3
Fnan
sI4
Fnan
sI5
Fnan
sI6
Fnan
sI7
Fnan
sI8
Fnan
sI9
Fnan
sI10
Fnan
sI11
Fnan
sI12
Fnan
sI13
Fnan
sI14
Fnan
ssg88
(dp315
I0
F12.231
sI1
F12.214
sI2
F12.272
sI3
F12.211
sI4
F12.231
sI5
F12.221
sI6
F12.188
sI7
F12.279
sI8
F12.237
sI9
F12.199
sI10
F12.243
sI11
F12.238
sI12
F12.267
sI13
F12.274
sI14
F12.226
ssg90
(dp316
I0
F-3.126455
sI1
F3.250638
sI2
F3.52778
sI3
F-2.019178
sI4
F-2.087189
sI5
F3.205369
sI6
F3.80687
sI7
F2.295248
sI8
F3.228925
sI9
F3.610836
sI10
F-3.950049
sI11
F3.61651
sI12
F-2.668511
sI13
F-3.037482
sI14
F2.774887
ssg92
(dp317
I0
F0.025622163025303506
sI1
Fnan
sI2
Fnan
sI3
Fnan
sI4
Fnan
sI5
Fnan
sI6
Fnan
sI7
Fnan
sI8
Fnan
sI9
Fnan
sI10
Fnan
sI11
Fnan
sI12
Fnan
sI13
Fnan
sI14
Fnan
ssg94
(dp318
I0
F0.6846840667402868
sI1
F0.6897607803693667
sI2
F0.6859377838349313
sI3
F0.6969140215908541
sI4
F0.6940382839905663
sI5
F0.6912941748584168
sI6
F0.6922212095122918
sI7
F0.6893069459748027
sI8
F0.6919819654106266
sI9
F0.6863920321479858
sI10
F0.6972370210637
sI11
F0.689866836208682
sI12
F0.6933340729596236
sI13
F0.6906785379238061
sI14
F0.6896610981176301
ssg96
(dp319
I0
F30.0
sI1
F30.0
sI2
F30.0
sI3
F30.0
sI4
F30.0
sI5
F30.0
sI6
F30.0
sI7
F30.0
sI8
F30.0
sI9
F30.0
sI10
F30.0
sI11
F30.0
sI12
F30.0
sI13
F30.0
sI14
F30.0
ssg98
(dp320
I0
F0.004
sI1
F0.004
sI2
F0.004
sI3
F0.004
sI4
F0.004
sI5
F0.004
sI6
F0.004
sI7
F0.004
sI8
F0.004
sI9
F0.004
sI10
F0.004
sI11
F0.004
sI12
F0.004
sI13
F0.004
sI14
F0.004
ssg100
(dp321
I0
F0.004
sI1
F0.004
sI2
F0.004
sI3
F0.004
sI4
F0.004
sI5
F0.004
sI6
F0.004
sI7
F0.004
sI8
F0.004
sI9
F0.004
sI10
F0.004
sI11
F0.004
sI12
F0.004
sI13
F0.004
sI14
F0.004
ssg102
(dp322
I0
F2.963038
sI1
F3.513511
sI2
F1.908346
sI3
F1.688
sI4
F-2.353375
sI5
F3.508292
sI6
F2.426715
sI7
F-4.253725
sI8
F2.969332
sI9
F-2.968769
sI10
F2.425782
sI11
F1.708823
sI12
F-2.283345
sI13
F-2.786326
sI14
F3.346605
ssg104
(dp323
I0
S"KIC8462852-20180918at034233_-25-1X1-030-z'_cal.fts.mag.1"
p324
sI1
S"KIC8462852-20180918at031523_-25-1X1-030-z'_cal.fts.mag.1"
p325
sI2
S"KIC8462852-20180918at031419_-25-1X1-030-z'_cal.fts.mag.1"
p326
sI3
S"KIC8462852-20180918at040941_-25-1X1-030-z'_cal.fts.mag.1"
p327
sI4
S"KIC8462852-20180918at031314_-25-1X1-030-z'_cal.fts.mag.1"
p328
sI5
S"KIC8462852-20180918at031627_-25-1X1-030-z'_cal.fts.mag.1"
p329
sI6
S"KIC8462852-20180918at034024_-25-1X1-030-z'_cal.fts.mag.1"
p330
sI7
S"KIC8462852-20180918at041045_-25-1X1-030-z'_cal.fts.mag.1"
p331
sI8
S"KIC8462852-20180918at040732_-25-1X1-030-z'_cal.fts.mag.1"
p332
sI9
S"KIC8462852-20180918at034130_-25-1X1-030-z'_cal.fts.mag.1"
p333
sI10
S"KIC8462852-20180918at031730_-25-1X1-030-z'_cal.fts.mag.1"
p334
sI11
S"KIC8462852-20180918at034441_-25-1X1-030-z'_cal.fts.mag.1"
p335
sI12
S"KIC8462852-20180918at040838_-25-1X1-030-z'_cal.fts.mag.1"
p336
sI13
S"KIC8462852-20180918at041150_-25-1X1-030-z'_cal.fts.mag.1"
p337
sI14
S"KIC8462852-20180918at034337_-25-1X1-030-z'_cal.fts.mag.1"
p338
ssg121
(dp339
I0
F0.009194286813697527
sI1
Fnan
sI2
Fnan
sI3
Fnan
sI4
Fnan
sI5
Fnan
sI6
Fnan
sI7
Fnan
sI8
Fnan
sI9
Fnan
sI10
Fnan
sI11
Fnan
sI12
Fnan
sI13
Fnan
sI14
Fnan
ssg123
(dp340
I0
F1265.5243333333335
sI1
F1280.8600000000001
sI2
F1211.715
sI3
F1280.9696666666666
sI4
F1255.5736666666667
sI5
F1288.751
sI6
F1327.0376666666666
sI7
F1206.2113333333332
sI8
F1267.4893333333334
sI9
F1296.0106666666666
sI10
F1243.557
sI11
F1246.2046666666668
sI12
F1225.1063333333334
sI13
F1219.4986666666666
sI14
F1247.0316666666665
ssg125
(dp341
I0
F0.02694703800314359
sI1
Fnan
sI2
Fnan
sI3
Fnan
sI4
Fnan
sI5
Fnan
sI6
Fnan
sI7
Fnan
sI8
Fnan
sI9
Fnan
sI10
Fnan
sI11
Fnan
sI12
Fnan
sI13
Fnan
sI14
Fnan
ssg127
(dp342
I0
S"z'"
p343
sI1
S"z'"
p344
sI2
S"z'"
p345
sI3
S"z'"
p346
sI4
S"z'"
p347
sI5
S"z'"
p348
sI6
S"z'"
p349
sI7
S"z'"
p350
sI8
S"z'"
p351
sI9
S"z'"
p352
sI10
S"z'"
p353
sI11
S"z'"
p354
sI12
S"z'"
p355
sI13
S"z'"
p356
sI14
S"z'"
p357
ssg144
(dp358
I0
F0.0022250612951540886
sI1
Fnan
sI2
Fnan
sI3
Fnan
sI4
Fnan
sI5
Fnan
sI6
Fnan
sI7
Fnan
sI8
Fnan
sI9
Fnan
sI10
Fnan
sI11
Fnan
sI12
Fnan
sI13
Fnan
sI14
Fnan
ssg146
(dp359
I0
F-3.474026
sI1
F3.778358
sI2
F3.55466
sI3
F3.819355
sI4
F-3.748413
sI5
F3.469985
sI6
F3.34856
sI7
F3.350408
sI8
F4.089477
sI9
F-1.972828
sI10
F3.296061
sI11
F2.334388
sI12
F3.530452
sI13
F1.311205
sI14
F3.304642
ssg148
(dp360
I0
F1.5021290746232703
sI1
Fnan
sI2
Fnan
sI3
Fnan
sI4
Fnan
sI5
Fnan
sI6
Fnan
sI7
Fnan
sI8
Fnan
sI9
Fnan
sI10
Fnan
sI11
Fnan
sI12
Fnan
sI13
Fnan
sI14
Fnan
ssg150
(dp361
I0
F2458379.654548611
sI1
Fnan
sI2
Fnan
sI3
Fnan
sI4
Fnan
sI5
Fnan
sI6
Fnan
sI7
Fnan
sI8
Fnan
sI9
Fnan
sI10
Fnan
sI11
Fnan
sI12
Fnan
sI13
Fnan
sI14
Fnan
ssg152
(dp362
I0
F0.0022250612951540886
sI1
Fnan
sI2
Fnan
sI3
Fnan
sI4
Fnan
sI5
Fnan
sI6
Fnan
sI7
Fnan
sI8
Fnan
sI9
Fnan
sI10
Fnan
sI11
Fnan
sI12
Fnan
sI13
Fnan
sI14
Fnan
ssg154
(dp363
I0
F10.98894
sI1
F9.768991
sI2
F11.08267
sI3
F10.33735
sI4
F11.82769
sI5
F9.842562
sI6
F8.589169
sI7
F12.92934
sI8
F9.577013
sI9
F10.10963
sI10
F10.995
sI11
F10.34175
sI12
F11.08433
sI13
F14.17698
sI14
F10.09338
ssg156
(dp364
I0
F11.894
sI1
F11.88
sI2
F11.922
sI3
F11.878
sI4
F11.898
sI5
F11.879
sI6
F11.849
sI7
F11.947
sI8
F11.897
sI9
F11.865
sI10
F11.917
sI11
F11.898
sI12
F11.922
sI13
F11.924
sI14
F11.901
ssg158
(dp365
I0
F0.3698335426964318
sI1
Fnan
sI2
Fnan
sI3
Fnan
sI4
Fnan
sI5
Fnan
sI6
Fnan
sI7
Fnan
sI8
Fnan
sI9
Fnan
sI10
Fnan
sI11
Fnan
sI12
Fnan
sI13
Fnan
sI14
Fnan
sssS'g'
p366
(dp367
g3
(dp368
I0
F0.8702516117072102
sI1
Fnan
sI2
Fnan
sI3
Fnan
sI4
Fnan
sI5
Fnan
sI6
Fnan
sI7
Fnan
sI8
Fnan
sI9
Fnan
sI10
Fnan
sI11
Fnan
sI12
Fnan
sI13
Fnan
sI14
Fnan
ssg5
(dp369
I0
S'NoError'
p370
sI1
S'NoError'
p371
sI2
S'NoError'
p372
sI3
S'NoError'
p373
sI4
S'NoError'
p374
sI5
S'NoError'
p375
sI6
S'NoError'
p376
sI7
S'NoError'
p377
sI8
S'NoError'
p378
sI9
S'NoError'
p379
sI10
S'NoError'
p380
sI11
S'NoError'
p381
sI12
S'NoError'
p382
sI13
S'NoError'
p383
sI14
S'NoError'
p384
ssg22
(dp385
I0
F0.002
sI1
F0.002
sI2
F0.002
sI3
F0.002
sI4
F0.002
sI5
F0.002
sI6
F0.002
sI7
F0.002
sI8
F0.002
sI9
F0.002
sI10
F0.002
sI11
F0.002
sI12
F0.002
sI13
F0.002
sI14
F0.002
ssg24
(dp386
I0
F0.8844914822148162
sI1
F0.8787692392174388
sI2
F0.8814149998592203
sI3
F0.8756105210837726
sI4
F0.8739930600913208
sI5
F0.877529764727685
sI6
F0.8758496138411994
sI7
F0.8867435270826699
sI8
F0.8808129317046846
sI9
F0.8751861348025836
sI10
F0.8857490967161522
sI11
F0.8758851793109373
sI12
F0.8787231554261584
sI13
F0.8743073620205901
sI14
F0.8740825462053746
ssg26
(dp387
I0
F0.004323767960168453
sI1
Fnan
sI2
Fnan
sI3
Fnan
sI4
Fnan
sI5
Fnan
sI6
Fnan
sI7
Fnan
sI8
Fnan
sI9
Fnan
sI10
Fnan
sI11
Fnan
sI12
Fnan
sI13
Fnan
sI14
Fnan
ssg28
(dp388
I0
F0.8786099076203069
sI1
Fnan
sI2
Fnan
sI3
Fnan
sI4
Fnan
sI5
Fnan
sI6
Fnan
sI7
Fnan
sI8
Fnan
sI9
Fnan
sI10
Fnan
sI11
Fnan
sI12
Fnan
sI13
Fnan
sI14
Fnan
ssg30
(dp389
I0
F11.292
sI1
F11.343
sI2
F11.316
sI3
F11.364
sI4
F11.332
sI5
F11.298
sI6
F11.322
sI7
F11.297
sI8
F11.31
sI9
F11.378
sI10
F11.33
sI11
F11.341
sI12
F11.496
sI13
F11.29
sI14
F11.363
ssg32
(dp390
I0
F22.32562
sI1
F19.58586
sI2
F21.73972
sI3
F21.11477
sI4
F18.85216
sI5
F22.16187
sI6
F19.16342
sI7
F22.27251
sI8
F18.38399
sI9
F21.23708
sI10
F20.43948
sI11
F20.81495
sI12
F18.58888
sI13
F21.869
sI14
F20.73462
ssg34
(dp391
I0
F2458379.6245833333
sI1
F2458379.660810185
sI2
F2458379.6260532406
sI3
F2458379.644050926
sI4
F2458379.6630324074
sI5
F2458379.6253125
sI6
F2458379.661550926
sI7
F2458379.623101852
sI8
F2458379.6622800925
sI9
F2458379.643310185
sI10
F2458379.644791667
sI11
F2458379.6425810186
sI12
F2458379.663761574
sI13
F2458379.623842593
sI14
F2458379.6418402777
ssg36
(dp392
I0
F2.3193013333333337
sI1
Fnan
sI2
Fnan
sI3
Fnan
sI4
Fnan
sI5
Fnan
sI6
Fnan
sI7
Fnan
sI8
Fnan
sI9
Fnan
sI10
Fnan
sI11
Fnan
sI12
Fnan
sI13
Fnan
sI14
Fnan
ssg38
(dp393
I0
F2.2057523999999997
sI1
Fnan
sI2
Fnan
sI3
Fnan
sI4
Fnan
sI5
Fnan
sI6
Fnan
sI7
Fnan
sI8
Fnan
sI9
Fnan
sI10
Fnan
sI11
Fnan
sI12
Fnan
sI13
Fnan
sI14
Fnan
ssg40
(dp394
I0
F0.8721989240103388
sI1
F0.8691225923740707
sI2
F0.8705265378547364
sI3
F0.8713357787879158
sI4
F0.8659339330271126
sI5
F0.8671233392509248
sI6
F0.8698846736344962
sI7
F0.8723567569578067
sI8
F0.8698002694034028
sI9
F0.8690676939384873
sI10
F0.8708319056416949
sI11
F0.8745623572766758
sI12
F0.8708480231852751
sI13
F0.8656911053024626
sI14
F0.8699228454473737
ssg42
(dp395
I0
F0.0013867223723450168
sI1
Fnan
sI2
Fnan
sI3
Fnan
sI4
Fnan
sI5
Fnan
sI6
Fnan
sI7
Fnan
sI8
Fnan
sI9
Fnan
sI10
Fnan
sI11
Fnan
sI12
Fnan
sI13
Fnan
sI14
Fnan
ssg44
(dp396
I0
F1.0333111333333334
sI1
Fnan
sI2
Fnan
sI3
Fnan
sI4
Fnan
sI5
Fnan
sI6
Fnan
sI7
Fnan
sI8
Fnan
sI9
Fnan
sI10
Fnan
sI11
Fnan
sI12
Fnan
sI13
Fnan
sI14
Fnan
ssg46
(dp397
I0
g370
sI1
g371
sI2
g372
sI3
g373
sI4
g374
sI5
g375
sI6
g376
sI7
g377
sI8
g378
sI9
g379
sI10
g380
sI11
g381
sI12
g382
sI13
g383
sI14
g384
ssg48
(dp398
I0
F0.0041578581265102445
sI1
Fnan
sI2
Fnan
sI3
Fnan
sI4
Fnan
sI5
Fnan
sI6
Fnan
sI7
Fnan
sI8
Fnan
sI9
Fnan
sI10
Fnan
sI11
Fnan
sI12
Fnan
sI13
Fnan
sI14
Fnan
ssg50
(dp399
I0
F0.05299308130941882
sI1
Fnan
sI2
Fnan
sI3
Fnan
sI4
Fnan
sI5
Fnan
sI6
Fnan
sI7
Fnan
sI8
Fnan
sI9
Fnan
sI10
Fnan
sI11
Fnan
sI12
Fnan
sI13
Fnan
sI14
Fnan
ssg52
(dp400
I0
F2.375207066666667
sI1
Fnan
sI2
Fnan
sI3
Fnan
sI4
Fnan
sI5
Fnan
sI6
Fnan
sI7
Fnan
sI8
Fnan
sI9
Fnan
sI10
Fnan
sI11
Fnan
sI12
Fnan
sI13
Fnan
sI14
Fnan
ssg54
(dp401
I0
F1.514244588794762
sI1
F1.5062372563317745
sI2
F1.5029026474048452
sI3
F1.5188507735736816
sI4
F1.5112770972392386
sI5
F1.5098954388781551
sI6
F1.5125373344205322
sI7
F1.4905142906431397
sI8
F1.5069078120508816
sI9
F1.5205031950342898
sI10
F1.5077805443367016
sI11
F1.5216885599366048
sI12
F1.512568868860814
sI13
F1.5020788966189895
sI14
F1.5181177659536071
ssg56
(dp402
I0
g370
sI1
g371
sI2
g372
sI3
g373
sI4
g374
sI5
g375
sI6
g376
sI7
g377
sI8
g378
sI9
g379
sI10
g380
sI11
g381
sI12
g382
sI13
g383
sI14
g384
ssg58
(dp403
I0
F21.6162
sI1
F19.66164
sI2
F20.44235
sI3
F20.83209
sI4
F18.6859
sI5
F21.90515
sI6
F19.29842
sI7
F22.97211
sI8
F19.01214
sI9
F21.63693
sI10
F19.91235
sI11
F20.84313
sI12
F18.69712
sI13
F21.70256
sI14
F20.46724
ssg60
(dp404
I0
F10.9096
sI1
Fnan
sI2
Fnan
sI3
Fnan
sI4
Fnan
sI5
Fnan
sI6
Fnan
sI7
Fnan
sI8
Fnan
sI9
Fnan
sI10
Fnan
sI11
Fnan
sI12
Fnan
sI13
Fnan
sI14
Fnan
ssg62
(dp405
I0
F0.7193135819332339
sI1
Fnan
sI2
Fnan
sI3
Fnan
sI4
Fnan
sI5
Fnan
sI6
Fnan
sI7
Fnan
sI8
Fnan
sI9
Fnan
sI10
Fnan
sI11
Fnan
sI12
Fnan
sI13
Fnan
sI14
Fnan
ssg64
(dp406
I0
F2.737107
sI1
F3.02915
sI2
F3.51991
sI3
F-3.644712
sI4
F3.154547
sI5
F1.936477
sI6
F3.435089
sI7
F2.969198
sI8
F3.30981
sI9
F-1.494691
sI10
F-1.313348
sI11
F4.236459
sI12
F5.884279
sI13
F2.433365
sI14
F2.893646
ssg66
(dp407
I0
F11.282466666666666
sI1
Fnan
sI2
Fnan
sI3
Fnan
sI4
Fnan
sI5
Fnan
sI6
Fnan
sI7
Fnan
sI8
Fnan
sI9
Fnan
sI10
Fnan
sI11
Fnan
sI12
Fnan
sI13
Fnan
sI14
Fnan
ssg68
(dp408
I0
g370
sI1
g371
sI2
g372
sI3
g373
sI4
g374
sI5
g375
sI6
g376
sI7
g377
sI8
g378
sI9
g379
sI10
g380
sI11
g381
sI12
g382
sI13
g383
sI14
g384
ssg70
(dp409
I0
F8057.9400000000005
sI1
F7681.36
sI2
F7878.376666666666
sI3
F7495.796666666666
sI4
F7761.093333333333
sI5
F8018.176666666666
sI6
F7810.416666666667
sI7
F8038.513333333333
sI8
F7927.043333333333
sI9
F7420.176666666666
sI10
F7799.35
sI11
F7629.253333333333
sI12
F6662.133333333333
sI13
F8067.586666666667
sI14
F7509.866666666667
ssg72
(dp410
I0
F1.021296
sI1
F1.0046979999999999
sI2
F1.020035
sI3
F1.008683
sI4
F1.0046389999999998
sI5
F1.020656
sI6
F1.004667
sI7
F1.022608
sI8
F1.0046469999999998
sI9
F1.009003
sI10
F1.0083719999999998
sI11
F1.009332
sI12
F1.004643
sI13
F1.021943
sI14
F1.009675
ssg74
(dp411
I0
F6897.446666666667
sI1
F6672.173333333334
sI2
F6826.59
sI3
F6495.759999999999
sI4
F6775.596666666666
sI5
F6963.8099999999995
sI6
F6791.836666666667
sI7
F6955.796666666666
sI8
F6858.873333333334
sI9
F6428.3966666666665
sI10
F6688.496666666667
sI11
F6596.833333333333
sI12
F5764.866666666667
sI13
F7079.070000000001
sI14
F6527.92
ssg76
(dp412
I0
F11323.056666666667
sI1
F10809.913333333334
sI2
F11050.066666666668
sI3
F10625.543333333333
sI4
F10984.483333333334
sI5
F11310.616666666667
sI6
F11043.226666666666
sI7
F11174.616666666667
sI8
F11140.506666666666
sI9
F10528.4
sI10
F10922.246666666668
sI11
F10823.836666666666
sI12
F9398.346666666668
sI13
F11375.736666666666
sI14
F10655.506666666666
ssg78
(dp413
I0
F21.71616
sI1
F18.87667
sI2
F21.00689
sI3
F20.36901
sI4
F18.64796
sI5
F20.53568
sI6
F17.54494
sI7
F21.83001
sI8
F18.22941
sI9
F20.40369
sI10
F19.55927
sI11
F20.21202
sI12
F17.56728
sI13
F21.98749
sI14
F19.56424
ssg80
(dp414
I0
F11.403
sI1
F11.439
sI2
F11.414
sI3
F11.468
sI4
F11.423
sI5
F11.393
sI6
F11.42
sI7
F11.394
sI8
F11.409
sI9
F11.48
sI10
F11.437
sI11
F11.452
sI12
F11.598
sI13
F11.375
sI14
F11.463
ssg82
(dp415
I0
F0.002
sI1
F0.002
sI2
F0.002
sI3
F0.002
sI4
F0.002
sI5
F0.002
sI6
F0.002
sI7
F0.002
sI8
F0.002
sI9
F0.002
sI10
F0.002
sI11
F0.002
sI12
F0.002
sI13
F0.002
sI14
F0.002
ssg84
(dp416
I0
F0.869947115739518
sI1
Fnan
sI2
Fnan
sI3
Fnan
sI4
Fnan
sI5
Fnan
sI6
Fnan
sI7
Fnan
sI8
Fnan
sI9
Fnan
sI10
Fnan
sI11
Fnan
sI12
Fnan
sI13
Fnan
sI14
Fnan
ssg86
(dp417
I0
F11.437866666666668
sI1
Fnan
sI2
Fnan
sI3
Fnan
sI4
Fnan
sI5
Fnan
sI6
Fnan
sI7
Fnan
sI8
Fnan
sI9
Fnan
sI10
Fnan
sI11
Fnan
sI12
Fnan
sI13
Fnan
sI14
Fnan
ssg88
(dp418
I0
F11.234
sI1
F11.286
sI2
F11.259
sI3
F11.313
sI4
F11.275
sI5
F11.24
sI6
F11.268
sI7
F11.237
sI8
F11.252
sI9
F11.324
sI10
F11.27
sI11
F11.294
sI12
F11.441
sI13
F11.233
sI14
F11.311
ssg90
(dp419
I0
F4.544919
sI1
F3.379649
sI2
F-2.487219
sI3
F4.361127
sI4
F3.129948
sI5
F3.725408
sI6
F3.228661
sI7
F-2.731313
sI8
F2.035049
sI9
F4.962347
sI10
F-3.5162
sI11
F2.881489
sI12
F2.547788
sI13
F4.44297
sI14
F4.284897
ssg92
(dp420
I0
F0.05059616021568676
sI1
Fnan
sI2
Fnan
sI3
Fnan
sI4
Fnan
sI5
Fnan
sI6
Fnan
sI7
Fnan
sI8
Fnan
sI9
Fnan
sI10
Fnan
sI11
Fnan
sI12
Fnan
sI13
Fnan
sI14
Fnan
ssg94
(dp421
I0
F0.7117741966830395
sI1
F0.7216564498352557
sI2
F0.7213049567555565
sI3
F0.7169182852923679
sI4
F0.7229008514542008
sI5
F0.720563346082304
sI6
F0.7204800203957042
sI7
F0.7240669965452444
sI8
F0.7194289075768344
sI9
F0.7163126955470749
sI10
F0.7145220341783526
sI11
F0.7149841390610823
sI12
F0.7178946913998419
sI13
F0.7281748987698777
sI14
F0.7187212594217717
ssg96
(dp422
I0
F30.0
sI1
F30.0
sI2
F30.0
sI3
F30.0
sI4
F30.0
sI5
F30.0
sI6
F30.0
sI7
F30.0
sI8
F30.0
sI9
F30.0
sI10
F30.0
sI11
F30.0
sI12
F30.0
sI13
F30.0
sI14
F30.0
ssg98
(dp423
I0
F0.002
sI1
F0.002
sI2
F0.002
sI3
F0.002
sI4
F0.002
sI5
F0.002
sI6
F0.002
sI7
F0.002
sI8
F0.002
sI9
F0.002
sI10
F0.002
sI11
F0.002
sI12
F0.003
sI13
F0.002
sI14
F0.002
ssg100
(dp424
I0
F0.002
sI1
F0.002
sI2
F0.002
sI3
F0.002
sI4
F0.002
sI5
F0.002
sI6
F0.002
sI7
F0.002
sI8
F0.002
sI9
F0.002
sI10
F0.002
sI11
F0.002
sI12
F0.002
sI13
F0.002
sI14
F0.002
ssg102
(dp425
I0
F3.011121
sI1
F4.07007
sI2
F3.913851
sI3
F4.446702
sI4
F2.188632
sI5
F3.863847
sI6
F-3.118407
sI7
F3.064695
sI8
F2.957876
sI9
F3.988776
sI10
F-1.969542
sI11
F3.497964
sI12
F4.084027
sI13
F4.452787
sI14
F-2.824293
ssg104
(dp426
I0
S"KIC8462852-20180918at025924_-25-1X1-030-g'_cal.fts.mag.1"
p427
sI1
S"KIC8462852-20180918at035129_-25-1X1-030-g'_cal.fts.mag.1"
p428
sI2
S"KIC8462852-20180918at030131_-25-1X1-030-g'_cal.fts.mag.1"
p429
sI3
S"KIC8462852-20180918at032726_-25-1X1-030-g'_cal.fts.mag.1"
p430
sI4
S"KIC8462852-20180918at035446_-25-1X1-030-g'_cal.fts.mag.1"
p431
sI5
S"KIC8462852-20180918at030027_-25-1X1-030-g'_cal.fts.mag.1"
p432
sI6
S"KIC8462852-20180918at035238_-25-1X1-030-g'_cal.fts.mag.1"
p433
sI7
S"KIC8462852-20180918at025705_-19-1X1-030-g'_cal.fts.mag.1"
p434
sI8
S"KIC8462852-20180918at035341_-25-1X1-030-g'_cal.fts.mag.1"
p435
sI9
S"KIC8462852-20180918at032622_-25-1X1-030-g'_cal.fts.mag.1"
p436
sI10
S"KIC8462852-20180918at032830_-25-1X1-030-g'_cal.fts.mag.1"
p437
sI11
S"KIC8462852-20180918at032519_-25-1X1-030-g'_cal.fts.mag.1"
p438
sI12
S"KIC8462852-20180918at035549_-25-1X1-030-g'_cal.fts.mag.1"
p439
sI13
S"KIC8462852-20180918at025820_-25-1X1-030-g'_cal.fts.mag.1"
p440
sI14
S"KIC8462852-20180918at032411_-25-1X1-030-g'_cal.fts.mag.1"
p441
ssg121
(dp442
I0
F0.008206442039444296
sI1
Fnan
sI2
Fnan
sI3
Fnan
sI4
Fnan
sI5
Fnan
sI6
Fnan
sI7
Fnan
sI8
Fnan
sI9
Fnan
sI10
Fnan
sI11
Fnan
sI12
Fnan
sI13
Fnan
sI14
Fnan
ssg123
(dp443
I0
F7640.009999999999
sI1
F7290.04
sI2
F7473.48
sI3
F7149.92
sI4
F7366.55
sI5
F7599.6433333333325
sI6
F7436.203333333334
sI7
F7609.546666666666
sI8
F7516.9366666666665
sI9
F7061.746666666667
sI10
F7375.973333333333
sI11
F7302.573333333334
sI12
F6335.52
sI13
F7653.4
sI14
F7160.42
ssg125
(dp444
I0
F0.05359086631489511
sI1
Fnan
sI2
Fnan
sI3
Fnan
sI4
Fnan
sI5
Fnan
sI6
Fnan
sI7
Fnan
sI8
Fnan
sI9
Fnan
sI10
Fnan
sI11
Fnan
sI12
Fnan
sI13
Fnan
sI14
Fnan
ssg127
(dp445
I0
S"g'"
p446
sI1
S"g'"
p447
sI2
S"g'"
p448
sI3
S"g'"
p449
sI4
S"g'"
p450
sI5
S"g'"
p451
sI6
S"g'"
p452
sI7
S"g'"
p453
sI8
S"g'"
p454
sI9
S"g'"
p455
sI10
S"g'"
p456
sI11
S"g'"
p457
sI12
S"g'"
p458
sI13
S"g'"
p459
sI14
S"g'"
p460
ssg144
(dp461
I0
F0.002386095369268383
sI1
Fnan
sI2
Fnan
sI3
Fnan
sI4
Fnan
sI5
Fnan
sI6
Fnan
sI7
Fnan
sI8
Fnan
sI9
Fnan
sI10
Fnan
sI11
Fnan
sI12
Fnan
sI13
Fnan
sI14
Fnan
ssg146
(dp462
I0
F-3.406641
sI1
F2.450591
sI2
F-2.906977
sI3
F-2.140601
sI4
F3.198187
sI5
F2.228643
sI6
F2.389828
sI7
F-2.241076
sI8
F4.48229
sI9
F2.177705
sI10
F-2.184219
sI11
F1.251749
sI12
F3.532584
sI13
F4.244356
sI14
F2.423248
ssg148
(dp463
I0
F1.510407004671868
sI1
Fnan
sI2
Fnan
sI3
Fnan
sI4
Fnan
sI5
Fnan
sI6
Fnan
sI7
Fnan
sI8
Fnan
sI9
Fnan
sI10
Fnan
sI11
Fnan
sI12
Fnan
sI13
Fnan
sI14
Fnan
ssg150
(dp464
I0
F2458379.643310185
sI1
Fnan
sI2
Fnan
sI3
Fnan
sI4
Fnan
sI5
Fnan
sI6
Fnan
sI7
Fnan
sI8
Fnan
sI9
Fnan
sI10
Fnan
sI11
Fnan
sI12
Fnan
sI13
Fnan
sI14
Fnan
ssg152
(dp465
I0
F0.002386095369268383
sI1
Fnan
sI2
Fnan
sI3
Fnan
sI4
Fnan
sI5
Fnan
sI6
Fnan
sI7
Fnan
sI8
Fnan
sI9
Fnan
sI10
Fnan
sI11
Fnan
sI12
Fnan
sI13
Fnan
sI14
Fnan
ssg154
(dp466
I0
F22.62004
sI1
F22.20487
sI2
F23.419
sI3
F23.08532
sI4
F21.11069
sI5
F22.92366
sI6
F20.43285
sI7
F24.33383
sI8
F19.4782
sI9
F23.32172
sI10
F21.36183
sI11
F23.1696
sI12
F19.68242
sI13
F23.70398
sI14
F23.40612
ssg156
(dp467
I0
F10.865
sI1
F10.915
sI2
F10.892
sI3
F10.934
sI4
F10.898
sI5
F10.866
sI6
F10.892
sI7
F10.879
sI8
F10.883
sI9
F10.944
sI10
F10.904
sI11
F10.914
sI12
F11.067
sI13
F10.86
sI14
F10.931
ssg158
(dp468
I0
F0.869947115739518
sI1
Fnan
sI2
Fnan
sI3
Fnan
sI4
Fnan
sI5
Fnan
sI6
Fnan
sI7
Fnan
sI8
Fnan
sI9
Fnan
sI10
Fnan
sI11
Fnan
sI12
Fnan
sI13
Fnan
sI14
Fnan
sssS'V'
p469
(dp470
g3
(dp471
I0
F0.6899499790838273
sI1
Fnan
sI2
Fnan
sI3
Fnan
sI4
Fnan
sI5
Fnan
sI6
Fnan
sI7
Fnan
sI8
Fnan
sI9
Fnan
sI10
Fnan
sI11
Fnan
sI12
Fnan
sI13
Fnan
sI14
Fnan
ssg5
(dp472
I0
S'NoError'
p473
sI1
S'NoError'
p474
sI2
S'NoError'
p475
sI3
S'NoError'
p476
sI4
S'NoError'
p477
sI5
S'NoError'
p478
sI6
S'NoError'
p479
sI7
S'NoError'
p480
sI8
S'NoError'
p481
sI9
S'NoError'
p482
sI10
S'NoError'
p483
sI11
S'NoError'
p484
sI12
S'NoError'
p485
sI13
S'NoError'
p486
sI14
S'NoError'
p487
ssg22
(dp488
I0
F0.002
sI1
F0.002
sI2
F0.002
sI3
F0.002
sI4
F0.002
sI5
F0.002
sI6
F0.002
sI7
F0.003
sI8
F0.002
sI9
F0.002
sI10
F0.002
sI11
F0.002
sI12
F0.002
sI13
F0.002
sI14
F0.002
ssg24
(dp489
I0
F0.8849131740155525
sI1
F0.8902704558089455
sI2
F0.8900960827551369
sI3
F0.8840359201159957
sI4
F0.883357301775641
sI5
F0.8841384260425672
sI6
F0.8851777152677406
sI7
F0.8773783781718713
sI8
F0.8866344878235142
sI9
F0.8866018802990545
sI10
F0.889293071470846
sI11
F0.8845890581306174
sI12
F0.8894992487094799
sI13
F0.883287235890243
sI14
F0.8835508334295724
ssg26
(dp490
I0
F0.0033941101886264327
sI1
Fnan
sI2
Fnan
sI3
Fnan
sI4
Fnan
sI5
Fnan
sI6
Fnan
sI7
Fnan
sI8
Fnan
sI9
Fnan
sI10
Fnan
sI11
Fnan
sI12
Fnan
sI13
Fnan
sI14
Fnan
ssg28
(dp491
I0
F0.8855215513137851
sI1
Fnan
sI2
Fnan
sI3
Fnan
sI4
Fnan
sI5
Fnan
sI6
Fnan
sI7
Fnan
sI8
Fnan
sI9
Fnan
sI10
Fnan
sI11
Fnan
sI12
Fnan
sI13
Fnan
sI14
Fnan
ssg30
(dp492
I0
F11.488
sI1
F11.378
sI2
F11.413
sI3
F11.345
sI4
F11.399
sI5
F11.442
sI6
F11.376
sI7
F11.601
sI8
F11.361
sI9
F11.352
sI10
F11.357
sI11
F11.452
sI12
F11.399
sI13
F11.35
sI14
F11.481
ssg32
(dp493
I0
F23.01204
sI1
F17.59633
sI2
F19.18114
sI3
F17.48718
sI4
F26.92837
sI5
F25.88992
sI6
F24.85917
sI7
F26.82099
sI8
F17.9447
sI9
F17.81951
sI10
F18.10085
sI11
F27.28633
sI12
F19.04345
sI13
F16.61089
sI14
F26.30071
ssg34
(dp494
I0
F2458379.640960648
sI1
F2458379.656863426
sI2
F2458379.6402199073
sI3
F2458379.639479167
sI4
F2458379.677962963
sI5
F2458379.676458333
sI6
F2458379.677210648
sI7
F2458379.659837963
sI8
F2458379.657615741
sI9
F2458379.6583564817
sI10
F2458379.637974537
sI11
F2458379.678715278
sI12
F2458379.659097222
sI13
F2458379.638726852
sI14
F2458379.6757060187
ssg36
(dp495
I0
F2.398830013333333
sI1
Fnan
sI2
Fnan
sI3
Fnan
sI4
Fnan
sI5
Fnan
sI6
Fnan
sI7
Fnan
sI8
Fnan
sI9
Fnan
sI10
Fnan
sI11
Fnan
sI12
Fnan
sI13
Fnan
sI14
Fnan
ssg38
(dp496
I0
F3.0240001333333333
sI1
Fnan
sI2
Fnan
sI3
Fnan
sI4
Fnan
sI5
Fnan
sI6
Fnan
sI7
Fnan
sI8
Fnan
sI9
Fnan
sI10
Fnan
sI11
Fnan
sI12
Fnan
sI13
Fnan
sI14
Fnan
ssg40
(dp497
I0
F0.6845685454504501
sI1
F0.6955186288965677
sI2
F0.6873340559794833
sI3
F0.6886515446175172
sI4
F0.6925733106613288
sI5
F0.6876686483668852
sI6
F0.6931193976159987
sI7
F0.6871750464340297
sI8
F0.6908690340175972
sI9
F0.6914844332528703
sI10
F0.693320557747844
sI11
F0.6891834883169764
sI12
F0.6883963619432353
sI13
F0.6879597615722508
sI14
F0.6916140875637375
ssg42
(dp498
I0
F0.002195314212479978
sI1
Fnan
sI2
Fnan
sI3
Fnan
sI4
Fnan
sI5
Fnan
sI6
Fnan
sI7
Fnan
sI8
Fnan
sI9
Fnan
sI10
Fnan
sI11
Fnan
sI12
Fnan
sI13
Fnan
sI14
Fnan
ssg44
(dp499
I0
F1.6018347333333336
sI1
Fnan
sI2
Fnan
sI3
Fnan
sI4
Fnan
sI5
Fnan
sI6
Fnan
sI7
Fnan
sI8
Fnan
sI9
Fnan
sI10
Fnan
sI11
Fnan
sI12
Fnan
sI13
Fnan
sI14
Fnan
ssg46
(dp500
I0
g473
sI1
g474
sI2
g475
sI3
g476
sI4
g477
sI5
g478
sI6
g479
sI7
g480
sI8
g481
sI9
g482
sI10
g483
sI11
g484
sI12
g485
sI13
g486
sI14
g487
ssg48
(dp501
I0
F0.004499636928062197
sI1
Fnan
sI2
Fnan
sI3
Fnan
sI4
Fnan
sI5
Fnan
sI6
Fnan
sI7
Fnan
sI8
Fnan
sI9
Fnan
sI10
Fnan
sI11
Fnan
sI12
Fnan
sI13
Fnan
sI14
Fnan
ssg50
(dp502
I0
F0.06992799017220354
sI1
Fnan
sI2
Fnan
sI3
Fnan
sI4
Fnan
sI5
Fnan
sI6
Fnan
sI7
Fnan
sI8
Fnan
sI9
Fnan
sI10
Fnan
sI11
Fnan
sI12
Fnan
sI13
Fnan
sI14
Fnan
ssg52
(dp503
I0
F2.2418636666666667
sI1
Fnan
sI2
Fnan
sI3
Fnan
sI4
Fnan
sI5
Fnan
sI6
Fnan
sI7
Fnan
sI8
Fnan
sI9
Fnan
sI10
Fnan
sI11
Fnan
sI12
Fnan
sI13
Fnan
sI14
Fnan
ssg54
(dp504
I0
F1.5092730567566697
sI1
F1.500405260392979
sI2
F1.4920956622736765
sI3
F1.5115983087976563
sI4
F1.4937246446735248
sI5
F1.5055530640088741
sI6
F1.491518692698684
sI7
F1.5009205911678096
sI8
F1.5003435130383158
sI9
F1.5017006445281877
sI10
F1.5081287161071968
sI11
F1.5062392946293086
sI12
F1.498536646069311
sI13
F1.5088192458541188
sI14
F1.512861219374782
ssg56
(dp505
I0
g473
sI1
g474
sI2
g475
sI3
g476
sI4
g477
sI5
g478
sI6
g479
sI7
g480
sI8
g481
sI9
g482
sI10
g483
sI11
g484
sI12
g485
sI13
g486
sI14
g487
ssg58
(dp506
I0
F23.13793
sI1
F18.76497
sI2
F20.74364
sI3
F18.31219
sI4
F28.65267
sI5
F26.87001
sI6
F26.73767
sI7
F28.63771
sI8
F19.23844
sI9
F18.41512
sI10
F18.52068
sI11
F28.87395
sI12
F20.43036
sI13
F18.61262
sI14
F28.43023
ssg60
(dp507
I0
F10.735866666666665
sI1
Fnan
sI2
Fnan
sI3
Fnan
sI4
Fnan
sI5
Fnan
sI6
Fnan
sI7
Fnan
sI8
Fnan
sI9
Fnan
sI10
Fnan
sI11
Fnan
sI12
Fnan
sI13
Fnan
sI14
Fnan
ssg62
(dp508
I0
F0.7177431614352019
sI1
Fnan
sI2
Fnan
sI3
Fnan
sI4
Fnan
sI5
Fnan
sI6
Fnan
sI7
Fnan
sI8
Fnan
sI9
Fnan
sI10
Fnan
sI11
Fnan
sI12
Fnan
sI13
Fnan
sI14
Fnan
ssg64
(dp509
I0
F4.346733
sI1
F2.708041
sI2
F1.906278
sI3
F3.985435
sI4
F2.530047
sI5
F4.005561
sI6
F2.883785
sI7
F3.757676
sI8
F-1.850819
sI9
F3.531421
sI10
F2.372449
sI11
F2.585426
sI12
F4.021257
sI13
F4.105756
sI14
F4.470956
ssg66
(dp510
I0
F11.099733333333335
sI1
Fnan
sI2
Fnan
sI3
Fnan
sI4
Fnan
sI5
Fnan
sI6
Fnan
sI7
Fnan
sI8
Fnan
sI9
Fnan
sI10
Fnan
sI11
Fnan
sI12
Fnan
sI13
Fnan
sI14
Fnan
ssg68
(dp511
I0
g473
sI1
g474
sI2
g475
sI3
g476
sI4
g477
sI5
g478
sI6
g479
sI7
g480
sI8
g481
sI9
g482
sI10
g483
sI11
g484
sI12
g485
sI13
g486
sI14
g487
ssg70
(dp512
I0
F8579.373333333333
sI1
F9376.140000000001
sI2
F9185.723333333333
sI3
F9717.636666666665
sI4
F9188.16
sI5
F8901.803333333333
sI6
F9395.8
sI7
F7655.243333333333
sI8
F9561.619999999999
sI9
F9637.59
sI10
F9586.466666666667
sI11
F8802.96
sI12
F9289.166666666666
sI13
F9679.653333333332
sI14
F8530.493333333334
ssg72
(dp513
I0
F1.010102
sI1
F1.005074
sI2
F1.010478
sI3
F1.010866
sI4
F1.007081
sI5
F1.006609
sI6
F1.006837
sI7
F1.004758
sI8
F1.004977
sI9
F1.004892
sI10
F1.01168
sI11
F1.007332
sI12
F1.0048190000000001
sI13
F1.011266
sI14
F1.006393
ssg74
(dp514
I0
F7361.073333333334
sI1
F8015.97
sI2
F7896.036666666667
sI3
F8338.156666666668
sI4
F7980.323333333334
sI5
F7665.326666666666
sI6
F8146.7
sI7
F6686.990000000001
sI8
F8225.186666666666
sI9
F8284.046666666667
sI10
F8170.13
sI11
F7571.22
sI12
F7961.16
sI13
F8330.390000000001
sI14
F7319.87
ssg76
(dp515
I0
F12029.243333333334
sI1
F13047.606666666667
sI2
F12743.81
sI3
F13646.553333333333
sI4
F12822.493333333334
sI5
F12471.346666666668
sI6
F13082.483333333334
sI7
F10763.276666666667
sI8
F13343.16
sI9
F13456.466666666667
sI10
F13389.616666666667
sI11
F12331.716666666667
sI12
F12925.123333333333
sI13
F13586.95
sI14
F11989.7
ssg78
(dp516
I0
F22.77437
sI1
F19.42356
sI2
F20.0414
sI3
F18.0758
sI4
F26.88847
sI5
F26.136
sI6
F24.56084
sI7
F26.99963
sI8
F18.89158
sI9
F19.02155
sI10
F18.45563
sI11
F27.05929
sI12
F18.40707
sI13
F18.12503
sI14
F26.59961
ssg80
(dp517
I0
F11.333
sI1
F11.24
sI2
F11.256
sI3
F11.197
sI4
F11.245
sI5
F11.289
sI6
F11.223
sI7
F11.437
sI8
F11.212
sI9
F11.204
sI10
F11.219
sI11
F11.302
sI12
F11.248
sI13
F11.198
sI14
F11.339
ssg82
(dp518
I0
F0.002
sI1
F0.002
sI2
F0.002
sI3
F0.002
sI4
F0.002
sI5
F0.002
sI6
F0.002
sI7
F0.002
sI8
F0.002
sI9
F0.002
sI10
F0.002
sI11
F0.002
sI12
F0.002
sI13
F0.002
sI14
F0.002
ssg84
(dp519
I0
F0.6899624601624516
sI1
Fnan
sI2
Fnan
sI3
Fnan
sI4
Fnan
sI5
Fnan
sI6
Fnan
sI7
Fnan
sI8
Fnan
sI9
Fnan
sI10
Fnan
sI11
Fnan
sI12
Fnan
sI13
Fnan
sI14
Fnan
ssg86
(dp520
I0
F11.262799999999999
sI1
Fnan
sI2
Fnan
sI3
Fnan
sI4
Fnan
sI5
Fnan
sI6
Fnan
sI7
Fnan
sI8
Fnan
sI9
Fnan
sI10
Fnan
sI11
Fnan
sI12
Fnan
sI13
Fnan
sI14
Fnan
ssg88
(dp521
I0
F11.166
sI1
F11.07
sI2
F11.092
sI3
F11.031
sI4
F11.092
sI5
F11.126
sI6
F11.068
sI7
F11.29
sI8
F11.049
sI9
F11.04
sI10
F11.046
sI11
F11.138
sI12
F11.08
sI13
F11.035
sI14
F11.173
ssg90
(dp522
I0
F4.533767
sI1
F3.729475
sI2
F5.068716
sI3
F-0.7350228
sI4
F-2.914407
sI5
F3.065034
sI6
F4.201827
sI7
F7.204242
sI8
F-2.385107
sI9
F3.590621
sI10
F2.536861
sI11
F-3.226453
sI12
F3.893829
sI13
F2.393736
sI14
F5.025332
ssg92
(dp523
I0
F0.0679641362008214
sI1
Fnan
sI2
Fnan
sI3
Fnan
sI4
Fnan
sI5
Fnan
sI6
Fnan
sI7
Fnan
sI8
Fnan
sI9
Fnan
sI10
Fnan
sI11
Fnan
sI12
Fnan
sI13
Fnan
sI14
Fnan
ssg94
(dp524
I0
F0.7143685044362511
sI1
F0.7149536711379187
sI2
F0.720128107301265
sI3
F0.7137552525182057
sI4
F0.7251327993292944
sI5
F0.7172856286197089
sI6
F0.7248507262936004
sI7
F0.7261158877043324
sI8
F0.7182070001691059
sI9
F0.7174180600867438
sI10
F0.7111856169277473
sI11
F0.7164737004887545
sI12
F0.7167602475703702
sI13
F0.716081318845997
sI14
F0.7134309000987319
ssg96
(dp525
I0
F30.0
sI1
F30.0
sI2
F30.0
sI3
F30.0
sI4
F30.0
sI5
F30.0
sI6
F30.0
sI7
F30.0
sI8
F30.0
sI9
F30.0
sI10
F30.0
sI11
F30.0
sI12
F30.0
sI13
F30.0
sI14
F30.0
ssg98
(dp526
I0
F0.002
sI1
F0.002
sI2
F0.002
sI3
F0.002
sI4
F0.002
sI5
F0.002
sI6
F0.002
sI7
F0.002
sI8
F0.002
sI9
F0.002
sI10
F0.002
sI11
F0.002
sI12
F0.002
sI13
F0.002
sI14
F0.002
ssg100
(dp527
I0
F0.002
sI1
F0.002
sI2
F0.002
sI3
F0.002
sI4
F0.002
sI5
F0.002
sI6
F0.002
sI7
F0.002
sI8
F0.002
sI9
F0.002
sI10
F0.002
sI11
F0.002
sI12
F0.002
sI13
F0.002
sI14
F0.002
ssg102
(dp528
I0
F4.323055
sI1
F3.802555
sI2
F2.855017
sI3
F4.031581
sI4
F2.724024
sI5
F3.326011
sI6
F-1.8621
sI7
F2.056154
sI8
F-2.4238
sI9
F-2.865589
sI10
F2.720539
sI11
F4.442196
sI12
F3.255985
sI13
F1.973506
sI14
F5.268821
ssg104
(dp529
I0
S'KIC8462852-20180918at032259_-25-1X1-030-V_cal.fts.mag.1'
p530
sI1
S'KIC8462852-20180918at034545_-25-1X1-030-V_cal.fts.mag.1'
p531
sI2
S'KIC8462852-20180918at032155_-25-1X1-030-V_cal.fts.mag.1'
p532
sI3
S'KIC8462852-20180918at032051_-25-1X1-030-V_cal.fts.mag.1'
p533
sI4
S'KIC8462852-20180918at041616_-25-1X1-030-V_cal.fts.mag.1'
p534
sI5
S'KIC8462852-20180918at041406_-25-1X1-030-V_cal.fts.mag.1'
p535
sI6
S'KIC8462852-20180918at041511_-25-1X1-030-V_cal.fts.mag.1'
p536
sI7
S'KIC8462852-20180918at035010_-25-1X1-030-V_cal.fts.mag.1'
p537
sI8
S'KIC8462852-20180918at034658_-25-1X1-030-V_cal.fts.mag.1'
p538
sI9
S'KIC8462852-20180918at034802_-25-1X1-030-V_cal.fts.mag.1'
p539
sI10
S'KIC8462852-20180918at031834_-25-1X1-030-V_cal.fts.mag.1'
p540
sI11
S'KIC8462852-20180918at041720_-25-1X1-030-V_cal.fts.mag.1'
p541
sI12
S'KIC8462852-20180918at034906_-25-1X1-030-V_cal.fts.mag.1'
p542
sI13
S'KIC8462852-20180918at031946_-25-1X1-030-V_cal.fts.mag.1'
p543
sI14
S'KIC8462852-20180918at041254_-25-1X1-030-V_cal.fts.mag.1'
p544
ssg121
(dp545
I0
F0.006884076184699
sI1
Fnan
sI2
Fnan
sI3
Fnan
sI4
Fnan
sI5
Fnan
sI6
Fnan
sI7
Fnan
sI8
Fnan
sI9
Fnan
sI10
Fnan
sI11
Fnan
sI12
Fnan
sI13
Fnan
sI14
Fnan
ssg123
(dp546
I0
F6382.39
sI1
F7057.13
sI2
F6833.376666666666
sI3
F7277.29
sI4
F6923.65
sI5
F6656.283333333334
sI6
F7075.59
sI7
F5750.626666666666
sI8
F7168.91
sI9
F7232.490000000001
sI10
F7198.1033333333335
sI11
F6594.543333333333
sI12
F6924.223333333333
sI13
F7245.820000000001
sI14
F6418.193333333333
ssg125
(dp547
I0
F0.06680162530101445
sI1
Fnan
sI2
Fnan
sI3
Fnan
sI4
Fnan
sI5
Fnan
sI6
Fnan
sI7
Fnan
sI8
Fnan
sI9
Fnan
sI10
Fnan
sI11
Fnan
sI12
Fnan
sI13
Fnan
sI14
Fnan
ssg127
(dp548
I0
g469
sI1
g469
sI2
g469
sI3
g469
sI4
g469
sI5
g469
sI6
g469
sI7
g469
sI8
g469
sI9
g469
sI10
g469
sI11
g469
sI12
g469
sI13
g469
sI14
g469
ssg144
(dp549
I0
F0.0029594836713912266
sI1
Fnan
sI2
Fnan
sI3
Fnan
sI4
Fnan
sI5
Fnan
sI6
Fnan
sI7
Fnan
sI8
Fnan
sI9
Fnan
sI10
Fnan
sI11
Fnan
sI12
Fnan
sI13
Fnan
sI14
Fnan
ssg146
(dp550
I0
F-3.788574
sI1
F4.253077
sI2
F3.658857
sI3
F1.556696
sI4
F3.354854
sI5
F3.615403
sI6
F-3.224672
sI7
F2.478889
sI8
F3.903258
sI9
F-1.166392
sI10
F4.279861
sI11
F-3.664498
sI12
F1.834378
sI13
F3.927532
sI14
F3.008852
ssg148
(dp551
I0
F1.5027812373580731
sI1
Fnan
sI2
Fnan
sI3
Fnan
sI4
Fnan
sI5
Fnan
sI6
Fnan
sI7
Fnan
sI8
Fnan
sI9
Fnan
sI10
Fnan
sI11
Fnan
sI12
Fnan
sI13
Fnan
sI14
Fnan
ssg150
(dp552
I0
F2458379.6583564817
sI1
Fnan
sI2
Fnan
sI3
Fnan
sI4
Fnan
sI5
Fnan
sI6
Fnan
sI7
Fnan
sI8
Fnan
sI9
Fnan
sI10
Fnan
sI11
Fnan
sI12
Fnan
sI13
Fnan
sI14
Fnan
ssg152
(dp553
I0
F0.0029594836713912266
sI1
Fnan
sI2
Fnan
sI3
Fnan
sI4
Fnan
sI5
Fnan
sI6
Fnan
sI7
Fnan
sI8
Fnan
sI9
Fnan
sI10
Fnan
sI11
Fnan
sI12
Fnan
sI13
Fnan
sI14
Fnan
ssg154
(dp554
I0
F28.60761
sI1
F21.36896
sI2
F23.95126
sI3
F20.70512
sI4
F31.23355
sI5
F30.42479
sI6
F28.20153
sI7
F34.75302
sI8
F20.91749
sI9
F20.63657
sI10
F21.48104
sI11
F32.40248
sI12
F21.74466
sI13
F19.7938
sI14
F32.96453
ssg156
(dp555
I0
F10.799
sI1
F10.711
sI2
F10.737
sI3
F10.662
sI4
F10.73
sI5
F10.76
sI6
F10.708
sI7
F10.92
sI8
F10.687
sI9
F10.678
sI10
F10.683
sI11
F10.772
sI12
F10.721
sI13
F10.667
sI14
F10.803
ssg158
(dp556
I0
F0.6899624601624516
sI1
Fnan
sI2
Fnan
sI3
Fnan
sI4
Fnan
sI5
Fnan
sI6
Fnan
sI7
Fnan
sI8
Fnan
sI9
Fnan
sI10
Fnan
sI11
Fnan
sI12
Fnan
sI13
Fnan
sI14
Fnan
sss.