(dp0
S'i'
p1
(dp2
S'sigmean'
p3
(dp4
I0
F0.43709291074691264
sI1
Fnan
sI2
Fnan
sI3
Fnan
sI4
Fnan
sI5
Fnan
sI6
Fnan
sI7
Fnan
sI8
Fnan
sI9
Fnan
sI10
Fnan
sI11
Fnan
sI12
Fnan
sI13
Fnan
sI14
Fnan
ssS'ref3flag'
p5
(dp6
I0
S'NoError'
p7
sI1
S'NoError'
p8
sI2
S'NoError'
p9
sI3
S'NoError'
p10
sI4
S'NoError'
p11
sI5
S'NoError'
p12
sI6
S'NoError'
p13
sI7
S'NoError'
p14
sI8
S'NoError'
p15
sI9
S'NoError'
p16
sI10
S'NoError'
p17
sI11
S'NoError'
p18
sI12
S'NoError'
p19
sI13
S'NoError'
p20
sI14
S'NoError'
p21
ssS'tabbyerr'
p22
(dp23
I0
F0.003
sI1
F0.003
sI2
F0.003
sI3
F0.003
sI4
F0.004
sI5
F0.003
sI6
F0.003
sI7
F0.004
sI8
F0.003
sI9
F0.003
sI10
F0.004
sI11
F0.003
sI12
F0.004
sI13
F0.003
sI14
F0.003
ssS'ref2rel'
p24
(dp25
I0
F0.9073812757807619
sI1
F0.909565169860943
sI2
F0.909035444601682
sI3
F0.9117914491215201
sI4
F0.9107845670377728
sI5
F0.9118603568285782
sI6
F0.9151468532257648
sI7
F0.91370961775201
sI8
F0.9118026854317536
sI9
F0.910415700064163
sI10
F0.9145548580766164
sI11
F0.9166524197434889
sI12
F0.9064232783837453
sI13
F0.9116486803693681
sI14
F0.9083337529565896
ssS'ref2err'
p26
(dp27
I0
F0.002901839613803859
sI1
Fnan
sI2
Fnan
sI3
Fnan
sI4
Fnan
sI5
Fnan
sI6
Fnan
sI7
Fnan
sI8
Fnan
sI9
Fnan
sI10
Fnan
sI11
Fnan
sI12
Fnan
sI13
Fnan
sI14
Fnan
ssS'ref2mean'
p28
(dp29
I0
F0.9112737406156505
sI1
Fnan
sI2
Fnan
sI3
Fnan
sI4
Fnan
sI5
Fnan
sI6
Fnan
sI7
Fnan
sI8
Fnan
sI9
Fnan
sI10
Fnan
sI11
Fnan
sI12
Fnan
sI13
Fnan
sI14
Fnan
ssS'tabbymag'
p30
(dp31
I0
F11.965
sI1
F11.986
sI2
F11.943
sI3
F11.934
sI4
F12.385
sI5
F11.93
sI6
F11.962
sI7
F12.241
sI8
F11.934
sI9
F11.989
sI10
F12.203
sI11
F11.925
sI12
F12.4
sI13
F12.098
sI14
F11.991
ssS'tabbybkg'
p32
(dp33
I0
F11.46385
sI1
F11.96017
sI2
F11.78103
sI3
F12.27451
sI4
F12.429
sI5
F11.70258
sI6
F12.34285
sI7
F12.36766
sI8
F12.237
sI9
F12.64305
sI10
F13.62397
sI11
F11.96462
sI12
F12.23612
sI13
F11.65797
sI14
F11.36096
ssS'JD'
p34
(dp35
I0
F2458365.7441898147
sI1
F2458365.746400463
sI2
F2458365.726898148
sI3
F2458365.727650463
sI4
F2458365.7066435185
sI5
F2458365.7261574073
sI6
F2458365.7449189816
sI7
F2458365.7073842594
sI8
F2458365.7246875
sI9
F2458365.745659722
sI10
F2458365.708113426
sI11
F2458365.725428241
sI12
F2458365.7058912036
sI13
F2458365.708842593
sI14
F2458365.747141204
ssS'ref3rmsmean'
p36
(dp37
I0
F3.030563
sI1
Fnan
sI2
Fnan
sI3
Fnan
sI4
Fnan
sI5
Fnan
sI6
Fnan
sI7
Fnan
sI8
Fnan
sI9
Fnan
sI10
Fnan
sI11
Fnan
sI12
Fnan
sI13
Fnan
sI14
Fnan
ssS'ref1rmsmean'
p38
(dp39
I0
F0.9836495333333333
sI1
Fnan
sI2
Fnan
sI3
Fnan
sI4
Fnan
sI5
Fnan
sI6
Fnan
sI7
Fnan
sI8
Fnan
sI9
Fnan
sI10
Fnan
sI11
Fnan
sI12
Fnan
sI13
Fnan
sI14
Fnan
ssS'relflux'
p40
(dp41
I0
F0.4367704136684812
sI1
F0.4370155532361721
sI2
F0.43577401291409523
sI3
F0.4364533637345841
sI4
F0.4395656118474457
sI5
F0.43707046208993916
sI6
F0.43539735935983515
sI7
F0.43883512105907324
sI8
F0.4376122690864776
sI9
F0.4324487820471699
sI10
F0.43634446381699254
sI11
F0.4382376466218291
sI12
F0.4406396956034995
sI13
F0.44051189105604716
sI14
F0.43603865152802684
ssS'sigerr'
p42
(dp43
I0
F0.0012088298402780214
sI1
Fnan
sI2
Fnan
sI3
Fnan
sI4
Fnan
sI5
Fnan
sI6
Fnan
sI7
Fnan
sI8
Fnan
sI9
Fnan
sI10
Fnan
sI11
Fnan
sI12
Fnan
sI13
Fnan
sI14
Fnan
ssS'tabbyrmsmean'
p44
(dp45
I0
F1.3617724666666668
sI1
Fnan
sI2
Fnan
sI3
Fnan
sI4
Fnan
sI5
Fnan
sI6
Fnan
sI7
Fnan
sI8
Fnan
sI9
Fnan
sI10
Fnan
sI11
Fnan
sI12
Fnan
sI13
Fnan
sI14
Fnan
ssS'tabbyflag'
p46
(dp47
I0
g7
sI1
g8
sI2
g9
sI3
g10
sI4
g11
sI5
g12
sI6
g13
sI7
g14
sI8
g15
sI9
g16
sI10
g17
sI11
g18
sI12
g19
sI13
g20
sI14
g21
ssS'ref1err'
p48
(dp49
I0
F0.0025024897418281663
sI1
Fnan
sI2
Fnan
sI3
Fnan
sI4
Fnan
sI5
Fnan
sI6
Fnan
sI7
Fnan
sI8
Fnan
sI9
Fnan
sI10
Fnan
sI11
Fnan
sI12
Fnan
sI13
Fnan
sI14
Fnan
ssS'ref2magmeanerr'
p50
(dp51
I0
F0.17071789595704362
sI1
Fnan
sI2
Fnan
sI3
Fnan
sI4
Fnan
sI5
Fnan
sI6
Fnan
sI7
Fnan
sI8
Fnan
sI9
Fnan
sI10
Fnan
sI11
Fnan
sI12
Fnan
sI13
Fnan
sI14
Fnan
ssS'ref2rmsmean'
p52
(dp53
I0
F1.2995465333333334
sI1
Fnan
sI2
Fnan
sI3
Fnan
sI4
Fnan
sI5
Fnan
sI6
Fnan
sI7
Fnan
sI8
Fnan
sI9
Fnan
sI10
Fnan
sI11
Fnan
sI12
Fnan
sI13
Fnan
sI14
Fnan
ssS'ref3rel'
p54
(dp55
I0
F1.5050716490753415
sI1
F1.4982059118233308
sI2
F1.4985484562027098
sI3
F1.4984190756250446
sI4
F1.493785500621786
sI5
F1.5039263110031096
sI6
F1.4959865098834295
sI7
F1.4986081323177414
sI8
F1.5085470068234899
sI9
F1.4974094692973754
sI10
F1.4974017471006447
sI11
F1.4957965454157656
sI12
F1.5040704954491937
sI13
F1.499156932491278
sI14
F1.5024198205328823
ssS'ref1flag'
p56
(dp57
I0
g7
sI1
g8
sI2
g9
sI3
g10
sI4
g11
sI5
g12
sI6
g13
sI7
g14
sI8
g15
sI9
g16
sI10
g17
sI11
g18
sI12
g19
sI13
g20
sI14
g21
ssS'ref2bkg'
p58
(dp59
I0
F14.80359
sI1
F14.58398
sI2
F13.29311
sI3
F14.62528
sI4
F13.67334
sI5
F15.1849
sI6
F14.4531
sI7
F13.63785
sI8
F13.054
sI9
F14.46006
sI10
F14.14884
sI11
F13.29239
sI12
F13.8757
sI13
F14.43527
sI14
F13.71172
ssS'ref3magmean'
p60
(dp61
I0
F10.888066666666667
sI1
Fnan
sI2
Fnan
sI3
Fnan
sI4
Fnan
sI5
Fnan
sI6
Fnan
sI7
Fnan
sI8
Fnan
sI9
Fnan
sI10
Fnan
sI11
Fnan
sI12
Fnan
sI13
Fnan
sI14
Fnan
ssS'ref1mean'
p62
(dp63
I0
F0.6970311217103795
sI1
Fnan
sI2
Fnan
sI3
Fnan
sI4
Fnan
sI5
Fnan
sI6
Fnan
sI7
Fnan
sI8
Fnan
sI9
Fnan
sI10
Fnan
sI11
Fnan
sI12
Fnan
sI13
Fnan
sI14
Fnan
ssS'ref1rms'
p64
(dp65
I0
F-2.715765
sI1
F-1.437659
sI2
F3.381348
sI3
F2.71082
sI4
F3.488247
sI5
F-1.175884
sI6
F3.251492
sI7
F3.276641
sI8
F4.00518
sI9
F4.261981
sI10
F-3.098075
sI11
F-3.315336
sI12
F1.927859
sI13
F2.297572
sI14
F-2.103678
ssS'ref2magmean'
p66
(dp67
I0
F11.2292
sI1
Fnan
sI2
Fnan
sI3
Fnan
sI4
Fnan
sI5
Fnan
sI6
Fnan
sI7
Fnan
sI8
Fnan
sI9
Fnan
sI10
Fnan
sI11
Fnan
sI12
Fnan
sI13
Fnan
sI14
Fnan
ssS'ref2flag'
p68
(dp69
I0
g7
sI1
g8
sI2
g9
sI3
g10
sI4
g11
sI5
g12
sI6
g13
sI7
g14
sI8
g15
sI9
g16
sI10
g17
sI11
g18
sI12
g19
sI13
g20
sI14
g21
ssS'ref2'
p70
(dp71
I0
F8816.980000000001
sI1
F8653.03
sI2
F9024.16
sI3
F9103.506666666666
sI4
F5963.126666666666
sI5
F9125.71
sI6
F8920.85
sI7
F6833.3966666666665
sI8
F9080.57
sI9
F8728.666666666666
sI10
F7120.946666666667
sI11
F9177.44
sI12
F5847.303333333333
sI13
F7757.17
sI14
F8628.5
ssS'airmass'
p72
(dp73
I0
F1.0251940000000002
sI1
F1.027421
sI2
F1.01191
sI3
F1.0123389999999999
sI4
F1.004947
sI5
F1.011485
sI6
F1.025927
sI7
F1.00504
sI8
F1.010699
sI9
F1.026671
sI10
F1.005144
sI11
F1.011084
sI12
F1.004867
sI13
F1.005258
sI14
F1.028194
ssS'ref1'
p74
(dp75
I0
F7303.0233333333335
sI1
F7172.093333333333
sI2
F7484.7
sI3
F7516.516666666666
sI4
F4946.306666666667
sI5
F7507.8
sI6
F7335.990000000001
sI7
F5623.486666666667
sI8
F7449.583333333333
sI9
F7228.166666666667
sI10
F5856.363333333333
sI11
F7529.056666666667
sI12
F4854.096666666666
sI13
F6403.42
sI14
F7147.463333333333
ssS'ref3'
p76
(dp77
I0
F12130.880000000001
sI1
F11854.646666666667
sI2
F12369.663333333334
sI3
F12451.880000000001
sI4
F8148.176666666666
sI5
F12507.786666666665
sI6
F12160.006666666666
sI7
F9333.993333333334
sI8
F12468.256666666666
sI9
F11946.956666666667
sI10
F9716.123333333333
sI11
F12494.76
sI12
F8047.83
sI13
F10614.473333333333
sI14
F11851.06
ssS'ref1bkg'
p78
(dp79
I0
F14.20969
sI1
F13.91348
sI2
F13.01211
sI3
F13.13026
sI4
F13.90689
sI5
F13.58489
sI6
F14.07522
sI7
F13.51245
sI8
F13.42437
sI9
F13.72177
sI10
F13.70154
sI11
F13.28598
sI12
F13.9051
sI13
F13.48034
sI14
F14.16473
ssS'ref1mag'
p80
(dp81
I0
F11.341
sI1
F11.361
sI2
F11.315
sI3
F11.31
sI4
F11.764
sI5
F11.311
sI6
F11.336
sI7
F11.625
sI8
F11.32
sI9
F11.352
sI10
F11.581
sI11
F11.308
sI12
F11.785
sI13
F11.484
sI14
F11.365
ssS'ref3magerr'
p82
(dp83
I0
F0.002
sI1
F0.002
sI2
F0.002
sI3
F0.002
sI4
F0.002
sI5
F0.002
sI6
F0.002
sI7
F0.002
sI8
F0.002
sI9
F0.002
sI10
F0.002
sI11
F0.002
sI12
F0.002
sI13
F0.002
sI14
F0.002
ssS'tabbymagmean'
p84
(dp85
I0
F0.43724768651131124
sI1
Fnan
sI2
Fnan
sI3
Fnan
sI4
Fnan
sI5
Fnan
sI6
Fnan
sI7
Fnan
sI8
Fnan
sI9
Fnan
sI10
Fnan
sI11
Fnan
sI12
Fnan
sI13
Fnan
sI14
Fnan
ssS'ref1magmean'
p86
(dp87
I0
F11.4372
sI1
Fnan
sI2
Fnan
sI3
Fnan
sI4
Fnan
sI5
Fnan
sI6
Fnan
sI7
Fnan
sI8
Fnan
sI9
Fnan
sI10
Fnan
sI11
Fnan
sI12
Fnan
sI13
Fnan
sI14
Fnan
ssS'ref2mag'
p88
(dp89
I0
F11.137
sI1
F11.157
sI2
F11.111
sI3
F11.102
sI4
F11.561
sI5
F11.099
sI6
F11.124
sI7
F11.413
sI8
F11.105
sI9
F11.148
sI10
F11.369
sI11
F11.093
sI12
F11.583
sI13
F11.276
sI14
F11.16
ssS'ref3rms'
p90
(dp91
I0
F2.585245
sI1
F5.308111
sI2
F4.99087
sI3
F4.611238
sI4
F2.387239
sI5
F-3.571198
sI6
F2.674897
sI7
F2.736346
sI8
F4.593341
sI9
F1.468248
sI10
F3.069451
sI11
F4.062242
sI12
F1.281901
sI13
F4.696836
sI14
F4.563678
ssS'ref3magmeanerr'
p92
(dp93
I0
F0.17059704681193166
sI1
Fnan
sI2
Fnan
sI3
Fnan
sI4
Fnan
sI5
Fnan
sI6
Fnan
sI7
Fnan
sI8
Fnan
sI9
Fnan
sI10
Fnan
sI11
Fnan
sI12
Fnan
sI13
Fnan
sI14
Fnan
ssS'ref1rel'
p94
(dp95
I0
F0.6972572218196353
sI1
F0.6994544969582935
sI2
F0.6997066287200963
sI3
F0.6974142271630169
sI4
F0.7010417889583079
sI5
F0.694090291151885
sI6
F0.69598594744015
sI7
F0.6956579468506254
sI8
F0.6914142889141063
sI9
F0.6991969770520422
sI10
F0.695651123780246
sI11
F0.6948124017558593
sI12
F0.698675795362405
sI13
F0.6970982272861456
sI14
F0.6980094624428781
ssS'exposure'
p96
(dp97
I0
F30.0
sI1
F30.0
sI2
F30.0
sI3
F30.0
sI4
F30.0
sI5
F30.0
sI6
F30.0
sI7
F30.0
sI8
F30.0
sI9
F30.0
sI10
F30.0
sI11
F30.0
sI12
F30.0
sI13
F30.0
sI14
F30.0
ssS'ref1magerr'
p98
(dp99
I0
F0.002
sI1
F0.002
sI2
F0.002
sI3
F0.002
sI4
F0.003
sI5
F0.002
sI6
F0.002
sI7
F0.003
sI8
F0.002
sI9
F0.002
sI10
F0.002
sI11
F0.002
sI12
F0.003
sI13
F0.002
sI14
F0.002
ssS'ref2magerr'
p100
(dp101
I0
F0.002
sI1
F0.002
sI2
F0.002
sI3
F0.002
sI4
F0.002
sI5
F0.002
sI6
F0.002
sI7
F0.002
sI8
F0.002
sI9
F0.002
sI10
F0.002
sI11
F0.002
sI12
F0.002
sI13
F0.002
sI14
F0.002
ssS'ref2rms'
p102
(dp103
I0
F3.939398
sI1
F-2.060405
sI2
F2.933768
sI3
F-4.137709
sI4
F3.521188
sI5
F-4.412206
sI6
F-3.36161
sI7
F3.857241
sI8
F-1.002419
sI9
F3.77592
sI10
F1.882301
sI11
F4.108296
sI12
F3.592223
sI13
F2.258546
sI14
F4.598666
ssS'name'
p104
(dp105
I0
S"KIC8462852-20180904at055136_-25-1X1-030-i'_cal.fts.mag.1"
p106
sI1
S"KIC8462852-20180904at055449_-25-1X1-030-i'_cal.fts.mag.1"
p107
sI2
S"KIC8462852-20180904at052644_-25-1X1-030-i'_cal.fts.mag.1"
p108
sI3
S"KIC8462852-20180904at052749_-25-1X1-030-i'_cal.fts.mag.1"
p109
sI4
S"KIC8462852-20180904at045734_-25-1X1-030-i'_cal.fts.mag.1"
p110
sI5
S"KIC8462852-20180904at052540_-25-1X1-030-i'_cal.fts.mag.1"
p111
sI6
S"KIC8462852-20180904at055241_-25-1X1-030-i'_cal.fts.mag.1"
p112
sI7
S"KIC8462852-20180904at045838_-25-1X1-030-i'_cal.fts.mag.1"
p113
sI8
S"KIC8462852-20180904at052332_-25-1X1-030-i'_cal.fts.mag.1"
p114
sI9
S"KIC8462852-20180904at055345_-25-1X1-030-i'_cal.fts.mag.1"
p115
sI10
S"KIC8462852-20180904at045941_-25-1X1-030-i'_cal.fts.mag.1"
p116
sI11
S"KIC8462852-20180904at052437_-25-1X1-030-i'_cal.fts.mag.1"
p117
sI12
S"KIC8462852-20180904at045628_-25-1X1-030-i'_cal.fts.mag.1"
p118
sI13
S"KIC8462852-20180904at050044_-25-1X1-030-i'_cal.fts.mag.1"
p119
sI14
S"KIC8462852-20180904at055553_-25-1X1-030-i'_cal.fts.mag.1"
p120
ssS'ref3err'
p121
(dp122
I0
F0.004074997281309182
sI1
Fnan
sI2
Fnan
sI3
Fnan
sI4
Fnan
sI5
Fnan
sI6
Fnan
sI7
Fnan
sI8
Fnan
sI9
Fnan
sI10
Fnan
sI11
Fnan
sI12
Fnan
sI13
Fnan
sI14
Fnan
ssS'tabby'
p123
(dp124
I0
F4113.05
sI1
F4032.163333333333
sI2
F4194.836666666667
sI3
F4229.51
sI4
F2792.3566666666666
sI5
F4245.6
sI6
F4124.206666666667
sI7
F3187.534
sI8
F4230.02
sI9
F4022.32
sI10
F3300.718
sI11
F4265.696666666667
sI12
F2753.885
sI13
F3637.9033333333336
sI14
F4015.483333333333
ssS'ref1magmeanerr'
p125
(dp126
I0
F0.16927205490401695
sI1
Fnan
sI2
Fnan
sI3
Fnan
sI4
Fnan
sI5
Fnan
sI6
Fnan
sI7
Fnan
sI8
Fnan
sI9
Fnan
sI10
Fnan
sI11
Fnan
sI12
Fnan
sI13
Fnan
sI14
Fnan
ssS'filter'
p127
(dp128
I0
S"i'"
p129
sI1
S"i'"
p130
sI2
S"i'"
p131
sI3
S"i'"
p132
sI4
S"i'"
p133
sI5
S"i'"
p134
sI6
S"i'"
p135
sI7
S"i'"
p136
sI8
S"i'"
p137
sI9
S"i'"
p138
sI10
S"i'"
p139
sI11
S"i'"
p140
sI12
S"i'"
p141
sI13
S"i'"
p142
sI14
S"i'"
p143
ssS'tabbymagerr'
p144
(dp145
I0
F0.002121538230476368
sI1
Fnan
sI2
Fnan
sI3
Fnan
sI4
Fnan
sI5
Fnan
sI6
Fnan
sI7
Fnan
sI8
Fnan
sI9
Fnan
sI10
Fnan
sI11
Fnan
sI12
Fnan
sI13
Fnan
sI14
Fnan
ssS'tabbyrms'
p146
(dp147
I0
F2.999024
sI1
F2.063309
sI2
F2.777976
sI3
F-3.646687
sI4
F3.262235
sI5
F2.700832
sI6
F-3.116448
sI7
F3.568889
sI8
F3.577447
sI9
F-3.824713
sI10
F-2.872025
sI11
F2.651522
sI12
F3.575801
sI13
F4.431302
sI14
F2.278123
ssS'ref3mean'
p148
(dp149
I0
F1.4998235709108747
sI1
Fnan
sI2
Fnan
sI3
Fnan
sI4
Fnan
sI5
Fnan
sI6
Fnan
sI7
Fnan
sI8
Fnan
sI9
Fnan
sI10
Fnan
sI11
Fnan
sI12
Fnan
sI13
Fnan
sI14
Fnan
ssS'median_JD'
p150
(dp151
I0
F2458365.7261574073
sI1
Fnan
sI2
Fnan
sI3
Fnan
sI4
Fnan
sI5
Fnan
sI6
Fnan
sI7
Fnan
sI8
Fnan
sI9
Fnan
sI10
Fnan
sI11
Fnan
sI12
Fnan
sI13
Fnan
sI14
Fnan
ssS'error'
p152
(dp153
I0
F0.002121538230476368
sI1
Fnan
sI2
Fnan
sI3
Fnan
sI4
Fnan
sI5
Fnan
sI6
Fnan
sI7
Fnan
sI8
Fnan
sI9
Fnan
sI10
Fnan
sI11
Fnan
sI12
Fnan
sI13
Fnan
sI14
Fnan
ssS'ref3bkg'
p154
(dp155
I0
F14.90989
sI1
F16.50301
sI2
F14.97888
sI3
F15.04586
sI4
F14.40879
sI5
F15.43994
sI6
F16.68229
sI7
F14.40444
sI8
F14.67367
sI9
F16.95206
sI10
F15.56461
sI11
F14.54125
sI12
F14.30161
sI13
F14.33785
sI14
F15.41457
ssS'ref3mag'
p156
(dp157
I0
F10.79
sI1
F10.815
sI2
F10.769
sI3
F10.762
sI4
F11.222
sI5
F10.757
sI6
F10.788
sI7
F11.075
sI8
F10.76
sI9
F10.807
sI10
F11.031
sI11
F10.758
sI12
F11.236
sI13
F10.935
sI14
F10.816
ssS'mean'
p158
(dp159
I0
F0.43724768651131124
sI1
Fnan
sI2
Fnan
sI3
Fnan
sI4
Fnan
sI5
Fnan
sI6
Fnan
sI7
Fnan
sI8
Fnan
sI9
Fnan
sI10
Fnan
sI11
Fnan
sI12
Fnan
sI13
Fnan
sI14
Fnan
sssS'r'
p160
(dp161
g3
(dp162
I0
F0.545846700689168
sI1
Fnan
sI2
Fnan
sI3
Fnan
sI4
Fnan
sI5
Fnan
sI6
Fnan
sI7
Fnan
sI8
Fnan
sI9
Fnan
sI10
Fnan
sI11
Fnan
sI12
Fnan
sI13
Fnan
sI14
Fnan
ssg5
(dp163
I0
S'NoError'
p164
sI1
S'NoError'
p165
sI2
S'NoError'
p166
sI3
S'NoError'
p167
sI4
S'NoError'
p168
sI5
S'NoError'
p169
sI6
S'NoError'
p170
sI7
S'NoError'
p171
sI8
S'NoError'
p172
sI9
S'NoError'
p173
sI10
S'NoError'
p174
sI11
S'NoError'
p175
sI12
S'NoError'
p176
sI13
S'NoError'
p177
sI14
S'NoError'
p178
ssg22
(dp179
I0
F0.002
sI1
F0.002
sI2
F0.002
sI3
F0.002
sI4
F0.003
sI5
F0.003
sI6
F0.002
sI7
F0.003
sI8
F0.003
sI9
F0.002
sI10
F0.002
sI11
F0.003
sI12
F0.002
sI13
F0.002
sI14
F0.002
ssg24
(dp180
I0
F0.8960997579711206
sI1
F0.9006779205107629
sI2
F0.8940585538601209
sI3
F0.89836150576797
sI4
F0.8994496719070674
sI5
F0.899953564155739
sI6
F0.8966582474613564
sI7
F0.8946632435520707
sI8
F0.8903358435777763
sI9
F0.8984982990806474
sI10
F0.8928156386758147
sI11
F0.8938277711115098
sI12
F0.8921063233131263
sI13
F0.8974429319982555
sI14
F0.8978355849318931
ssg26
(dp181
I0
F0.0030968641234494832
sI1
Fnan
sI2
Fnan
sI3
Fnan
sI4
Fnan
sI5
Fnan
sI6
Fnan
sI7
Fnan
sI8
Fnan
sI9
Fnan
sI10
Fnan
sI11
Fnan
sI12
Fnan
sI13
Fnan
sI14
Fnan
ssg28
(dp182
I0
F0.8961856571916822
sI1
Fnan
sI2
Fnan
sI3
Fnan
sI4
Fnan
sI5
Fnan
sI6
Fnan
sI7
Fnan
sI8
Fnan
sI9
Fnan
sI10
Fnan
sI11
Fnan
sI12
Fnan
sI13
Fnan
sI14
Fnan
ssg30
(dp183
I0
F11.251
sI1
F11.277
sI2
F11.248
sI3
F11.237
sI4
F11.831
sI5
F11.861
sI6
F11.275
sI7
F11.799
sI8
F11.901
sI9
F11.278
sI10
F11.229
sI11
F11.738
sI12
F11.238
sI13
F11.259
sI14
F11.294
ssg32
(dp184
I0
F12.34058
sI1
F12.1418
sI2
F12.47556
sI3
F13.18307
sI4
F12.82114
sI5
F12.42007
sI6
F12.23672
sI7
F13.15038
sI8
F13.17028
sI9
F12.00475
sI10
F12.84553
sI11
F12.7512
sI12
F12.6701
sI13
F11.60605
sI14
F13.14498
ssg34
(dp185
I0
F2458365.721712963
sI1
F2458365.7434259257
sI2
F2458365.7232060186
sI3
F2458365.7224537036
sI4
F2458365.702928241
sI5
F2458365.7036689813
sI6
F2458365.7419560184
sI7
F2458365.704398148
sI8
F2458365.702199074
sI9
F2458365.740474537
sI10
F2458365.723935185
sI11
F2458365.7051273147
sI12
F2458365.7209837963
sI13
F2458365.7426851853
sI14
F2458365.741215278
ssg36
(dp186
I0
F2.712584133333333
sI1
Fnan
sI2
Fnan
sI3
Fnan
sI4
Fnan
sI5
Fnan
sI6
Fnan
sI7
Fnan
sI8
Fnan
sI9
Fnan
sI10
Fnan
sI11
Fnan
sI12
Fnan
sI13
Fnan
sI14
Fnan
ssg38
(dp187
I0
F2.1001096666666665
sI1
Fnan
sI2
Fnan
sI3
Fnan
sI4
Fnan
sI5
Fnan
sI6
Fnan
sI7
Fnan
sI8
Fnan
sI9
Fnan
sI10
Fnan
sI11
Fnan
sI12
Fnan
sI13
Fnan
sI14
Fnan
ssg40
(dp188
I0
F0.5444023036515132
sI1
F0.5429970655019305
sI2
F0.5440340550888642
sI3
F0.5470153437843213
sI4
F0.546123631443848
sI5
F0.5473519690073188
sI6
F0.54505640686752
sI7
F0.544287717590807
sI8
F0.5456781031857793
sI9
F0.5458988733407883
sI10
F0.5496352352852294
sI11
F0.5489752646604065
sI12
F0.5461700686931976
sI13
F0.5470731697345647
sI14
F0.5470687658814938
ssg42
(dp189
I0
F0.0011279994518294024
sI1
Fnan
sI2
Fnan
sI3
Fnan
sI4
Fnan
sI5
Fnan
sI6
Fnan
sI7
Fnan
sI8
Fnan
sI9
Fnan
sI10
Fnan
sI11
Fnan
sI12
Fnan
sI13
Fnan
sI14
Fnan
ssg44
(dp190
I0
F0.26745946666666665
sI1
Fnan
sI2
Fnan
sI3
Fnan
sI4
Fnan
sI5
Fnan
sI6
Fnan
sI7
Fnan
sI8
Fnan
sI9
Fnan
sI10
Fnan
sI11
Fnan
sI12
Fnan
sI13
Fnan
sI14
Fnan
ssg46
(dp191
I0
g164
sI1
g165
sI2
g166
sI3
g167
sI4
g168
sI5
g169
sI6
g170
sI7
g171
sI8
g172
sI9
g173
sI10
g174
sI11
g175
sI12
g176
sI13
g177
sI14
g178
ssg48
(dp192
I0
F0.003807211679664916
sI1
Fnan
sI2
Fnan
sI3
Fnan
sI4
Fnan
sI5
Fnan
sI6
Fnan
sI7
Fnan
sI8
Fnan
sI9
Fnan
sI10
Fnan
sI11
Fnan
sI12
Fnan
sI13
Fnan
sI14
Fnan
ssg50
(dp193
I0
F0.2800102549142496
sI1
Fnan
sI2
Fnan
sI3
Fnan
sI4
Fnan
sI5
Fnan
sI6
Fnan
sI7
Fnan
sI8
Fnan
sI9
Fnan
sI10
Fnan
sI11
Fnan
sI12
Fnan
sI13
Fnan
sI14
Fnan
ssg52
(dp194
I0
F1.8137486666666667
sI1
Fnan
sI2
Fnan
sI3
Fnan
sI4
Fnan
sI5
Fnan
sI6
Fnan
sI7
Fnan
sI8
Fnan
sI9
Fnan
sI10
Fnan
sI11
Fnan
sI12
Fnan
sI13
Fnan
sI14
Fnan
ssg54
(dp195
I0
F1.4950662309035636
sI1
F1.4894556324202486
sI2
F1.4993698578761387
sI3
F1.4892516388320587
sI4
F1.5082302046578244
sI5
F1.486450304658969
sI6
F1.4867424626264854
sI7
F1.4979400506853915
sI8
F1.5045546936028644
sI9
F1.4933421506134508
sI10
F1.4971803664963226
sI11
F1.4931068668975729
sI12
F1.4952481573564944
sI13
F1.4842418728658335
sI14
F1.4869685437255888
ssg56
(dp196
I0
g164
sI1
g165
sI2
g166
sI3
g167
sI4
g168
sI5
g169
sI6
g170
sI7
g171
sI8
g172
sI9
g173
sI10
g174
sI11
g175
sI12
g176
sI13
g177
sI14
g178
ssg58
(dp197
I0
F14.24809
sI1
F15.34027
sI2
F15.18624
sI3
F14.70617
sI4
F13.66182
sI5
F13.97974
sI6
F14.48308
sI7
F13.48904
sI8
F14.93431
sI9
F14.84898
sI10
F14.81996
sI11
F14.28917
sI12
F14.99831
sI13
F14.3679
sI14
F14.9688
ssg60
(dp198
I0
F10.520533333333333
sI1
Fnan
sI2
Fnan
sI3
Fnan
sI4
Fnan
sI5
Fnan
sI6
Fnan
sI7
Fnan
sI8
Fnan
sI9
Fnan
sI10
Fnan
sI11
Fnan
sI12
Fnan
sI13
Fnan
sI14
Fnan
ssg62
(dp199
I0
F0.7137359956685801
sI1
Fnan
sI2
Fnan
sI3
Fnan
sI4
Fnan
sI5
Fnan
sI6
Fnan
sI7
Fnan
sI8
Fnan
sI9
Fnan
sI10
Fnan
sI11
Fnan
sI12
Fnan
sI13
Fnan
sI14
Fnan
ssg64
(dp200
I0
F4.239157
sI1
F5.166544
sI2
F1.885417
sI3
F1.476055
sI4
F4.137354
sI5
F-1.620148
sI6
F4.127979
sI7
F-2.001899
sI8
F-3.359518
sI9
F3.757319
sI10
F2.337595
sI11
F2.35667
sI12
F2.620122
sI13
F3.14638
sI14
F3.232618
ssg66
(dp201
I0
F10.871799999999999
sI1
Fnan
sI2
Fnan
sI3
Fnan
sI4
Fnan
sI5
Fnan
sI6
Fnan
sI7
Fnan
sI8
Fnan
sI9
Fnan
sI10
Fnan
sI11
Fnan
sI12
Fnan
sI13
Fnan
sI14
Fnan
ssg68
(dp202
I0
g164
sI1
g165
sI2
g166
sI3
g167
sI4
g168
sI5
g169
sI6
g170
sI7
g171
sI8
g172
sI9
g173
sI10
g174
sI11
g175
sI12
g176
sI13
g177
sI14
g178
ssg70
(dp203
I0
F13531.836666666666
sI1
F13293.2
sI2
F13557.34
sI3
F13664.08
sI4
F7930.323333333334
sI5
F7694.09
sI6
F13225.123333333333
sI7
F8163.706666666667
sI8
F7384.259999999999
sI9
F13187.58
sI10
F13644.413333333334
sI11
F8553.946666666667
sI12
F13611.413333333334
sI13
F13384.6
sI14
F12956.316666666668
ssg72
(dp204
I0
F1.009248
sI1
F1.024471
sI2
F1.009945
sI3
F1.00959
sI4
F1.004665
sI5
F1.004697
sI6
F1.02308
sI7
F1.00474
sI8
F1.004641
sI9
F1.021755
sI10
F1.0103090000000001
sI11
F1.004797
sI12
F1.008918
sI13
F1.02377
sI14
F1.022416
ssg74
(dp205
I0
F11493.993333333334
sI1
F11244.386666666665
sI2
F11524.303333333333
sI3
F11604.423333333334
sI4
F6643.433333333333
sI5
F6528.37
sI6
F11281.313333333334
sI7
F6938.6066666666675
sI8
F6296.133333333333
sI9
F11168.633333333333
sI10
F11638.423333333334
sI11
F7302.413333333333
sI12
F11638.09
sI13
F11420.166666666666
sI14
F11028.723333333333
ssg76
(dp206
I0
F18707.636666666665
sI1
F18273.82333333333
sI2
F18803.33
sI3
F18815.58
sI4
F10990.29
sI5
F10570.49
sI6
F18217.38
sI7
F11311.18
sI8
F10291.45
sI9
F18186.08
sI10
F18926.483333333334
sI11
F11837.619999999999
sI12
F18877.136666666665
sI13
F18408.136666666665
sI14
F17832.5
ssg78
(dp207
I0
F14.26255
sI1
F13.7902
sI2
F14.41099
sI3
F14.99259
sI4
F12.80714
sI5
F13.62195
sI6
F13.41388
sI7
F13.22764
sI8
F13.42423
sI9
F13.81167
sI10
F15.24829
sI11
F12.96957
sI12
F14.5627
sI13
F13.19298
sI14
F14.3788
ssg80
(dp208
I0
F10.849
sI1
F10.873
sI2
F10.846
sI3
F10.838
sI4
F11.444
sI5
F11.463
sI6
F10.869
sI7
F11.397
sI8
F11.502
sI9
F10.88
sI10
F10.835
sI11
F11.341
sI12
F10.835
sI13
F10.856
sI14
F10.894
ssg82
(dp209
I0
F0.001
sI1
F0.001
sI2
F0.001
sI3
F0.001
sI4
F0.002
sI5
F0.002
sI6
F0.001
sI7
F0.002
sI8
F0.002
sI9
F0.001
sI10
F0.001
sI11
F0.002
sI12
F0.001
sI13
F0.001
sI14
F0.001
ssg84
(dp210
I0
F0.5461178649145055
sI1
Fnan
sI2
Fnan
sI3
Fnan
sI4
Fnan
sI5
Fnan
sI6
Fnan
sI7
Fnan
sI8
Fnan
sI9
Fnan
sI10
Fnan
sI11
Fnan
sI12
Fnan
sI13
Fnan
sI14
Fnan
ssg86
(dp211
I0
F11.048133333333334
sI1
Fnan
sI2
Fnan
sI3
Fnan
sI4
Fnan
sI5
Fnan
sI6
Fnan
sI7
Fnan
sI8
Fnan
sI9
Fnan
sI10
Fnan
sI11
Fnan
sI12
Fnan
sI13
Fnan
sI14
Fnan
ssg88
(dp212
I0
F10.672
sI1
F10.691
sI2
F10.67
sI3
F10.661
sI4
F11.252
sI5
F11.285
sI6
F10.697
sI7
F11.22
sI8
F11.329
sI9
F10.7
sI10
F10.663
sI11
F11.17
sI12
F10.665
sI13
F10.683
sI14
F10.719
ssg90
(dp213
I0
F3.935303
sI1
F5.883813
sI2
F-3.738815
sI3
F4.737551
sI4
F1.986167
sI5
F-3.702824
sI6
F3.697881
sI7
F3.698721
sI8
F-2.771991
sI9
F4.520061
sI10
F5.183498
sI11
F4.198962
sI12
F2.846881
sI13
F4.10508
sI14
F6.108474
ssg92
(dp214
I0
F0.2785436274283658
sI1
Fnan
sI2
Fnan
sI3
Fnan
sI4
Fnan
sI5
Fnan
sI6
Fnan
sI7
Fnan
sI8
Fnan
sI9
Fnan
sI10
Fnan
sI11
Fnan
sI12
Fnan
sI13
Fnan
sI14
Fnan
ssg94
(dp215
I0
F0.713038529785743
sI1
F0.7124134922657157
sI2
F0.7122413308088696
sI3
F0.7145655670861907
sI4
F0.7022429153107087
sI5
F0.7148666982761168
sI6
F0.7175836614366264
sI7
F0.7125696580861576
sI8
F0.7124051405384376
sI9
F0.7119751621795692
sI10
F0.7146516997945712
sI11
F0.7162189597987403
sI12
F0.7164425620718684
sI13
F0.71841356636909
sI14
F0.716410991220297
ssg96
(dp216
I0
F30.0
sI1
F30.0
sI2
F30.0
sI3
F30.0
sI4
F30.0
sI5
F30.0
sI6
F30.0
sI7
F30.0
sI8
F30.0
sI9
F30.0
sI10
F30.0
sI11
F30.0
sI12
F30.0
sI13
F30.0
sI14
F30.0
ssg98
(dp217
I0
F0.002
sI1
F0.002
sI2
F0.002
sI3
F0.002
sI4
F0.002
sI5
F0.002
sI6
F0.002
sI7
F0.002
sI8
F0.002
sI9
F0.002
sI10
F0.002
sI11
F0.002
sI12
F0.002
sI13
F0.002
sI14
F0.002
ssg100
(dp218
I0
F0.002
sI1
F0.002
sI2
F0.002
sI3
F0.002
sI4
F0.002
sI5
F0.002
sI6
F0.002
sI7
F0.002
sI8
F0.002
sI9
F0.002
sI10
F0.002
sI11
F0.002
sI12
F0.002
sI13
F0.002
sI14
F0.002
ssg102
(dp219
I0
F2.665013
sI1
F3.904526
sI2
F-3.102882
sI3
F-2.108084
sI4
F-2.995268
sI5
F3.331348
sI6
F3.858927
sI7
F3.827021
sI8
F-1.970156
sI9
F4.236013
sI10
F4.254983
sI11
F3.612236
sI12
F3.91978
sI13
F1.898095
sI14
F1.874678
ssg104
(dp220
I0
S"KIC8462852-20180904at051916_-25-1X1-030-r'_cal.fts.mag.1"
p221
sI1
S"KIC8462852-20180904at055032_-25-1X1-030-r'_cal.fts.mag.1"
p222
sI2
S"KIC8462852-20180904at052125_-25-1X1-030-r'_cal.fts.mag.1"
p223
sI3
S"KIC8462852-20180904at052020_-25-1X1-030-r'_cal.fts.mag.1"
p224
sI4
S"KIC8462852-20180904at045213_-25-1X1-030-r'_cal.fts.mag.1"
p225
sI5
S"KIC8462852-20180904at045317_-25-1X1-030-r'_cal.fts.mag.1"
p226
sI6
S"KIC8462852-20180904at054825_-25-1X1-030-r'_cal.fts.mag.1"
p227
sI7
S"KIC8462852-20180904at045420_-25-1X1-030-r'_cal.fts.mag.1"
p228
sI8
S"KIC8462852-20180904at045108_-25-1X1-030-r'_cal.fts.mag.1"
p229
sI9
S"KIC8462852-20180904at054616_-25-1X1-030-r'_cal.fts.mag.1"
p230
sI10
S"KIC8462852-20180904at052228_-25-1X1-030-r'_cal.fts.mag.1"
p231
sI11
S"KIC8462852-20180904at045523_-25-1X1-030-r'_cal.fts.mag.1"
p232
sI12
S"KIC8462852-20180904at051812_-25-1X1-030-r'_cal.fts.mag.1"
p233
sI13
S"KIC8462852-20180904at054928_-25-1X1-030-r'_cal.fts.mag.1"
p234
sI14
S"KIC8462852-20180904at054721_-25-1X1-030-r'_cal.fts.mag.1"
p235
ssg121
(dp236
I0
F0.006914209477572159
sI1
Fnan
sI2
Fnan
sI3
Fnan
sI4
Fnan
sI5
Fnan
sI6
Fnan
sI7
Fnan
sI8
Fnan
sI9
Fnan
sI10
Fnan
sI11
Fnan
sI12
Fnan
sI13
Fnan
sI14
Fnan
ssg123
(dp237
I0
F7936.2
sI1
F7748.823333333334
sI2
F7958.306666666667
sI3
F8038.223333333333
sI4
F4653.71
sI5
F4523.490000000001
sI6
F7762.296666666666
sI7
F4792.179999999999
sI8
F4360.303333333333
sI9
F7741.263333333333
sI10
F8099.666666666667
sI11
F5067.77
sI12
F8033.55
sI13
F7880.206666666667
sI14
F7625.6900000000005
ssg125
(dp238
I0
F0.2815162686663233
sI1
Fnan
sI2
Fnan
sI3
Fnan
sI4
Fnan
sI5
Fnan
sI6
Fnan
sI7
Fnan
sI8
Fnan
sI9
Fnan
sI10
Fnan
sI11
Fnan
sI12
Fnan
sI13
Fnan
sI14
Fnan
ssg127
(dp239
I0
S"r'"
p240
sI1
S"r'"
p241
sI2
S"r'"
p242
sI3
S"r'"
p243
sI4
S"r'"
p244
sI5
S"r'"
p245
sI6
S"r'"
p246
sI7
S"r'"
p247
sI8
S"r'"
p248
sI9
S"r'"
p249
sI10
S"r'"
p250
sI11
S"r'"
p251
sI12
S"r'"
p252
sI13
S"r'"
p253
sI14
S"r'"
p254
ssg144
(dp255
I0
F0.001821046994988903
sI1
Fnan
sI2
Fnan
sI3
Fnan
sI4
Fnan
sI5
Fnan
sI6
Fnan
sI7
Fnan
sI8
Fnan
sI9
Fnan
sI10
Fnan
sI11
Fnan
sI12
Fnan
sI13
Fnan
sI14
Fnan
ssg146
(dp256
I0
F3.811492
sI1
F-2.544551
sI2
F3.807072
sI3
F3.994127
sI4
F-2.795915
sI5
F2.623693
sI6
F-2.961709
sI7
F-3.711932
sI8
F-1.848546
sI9
F2.554795
sI10
F-3.723997
sI11
F3.061438
sI12
F2.768578
sI13
F-3.87957
sI14
F2.856917
ssg148
(dp257
I0
F1.493809935614587
sI1
Fnan
sI2
Fnan
sI3
Fnan
sI4
Fnan
sI5
Fnan
sI6
Fnan
sI7
Fnan
sI8
Fnan
sI9
Fnan
sI10
Fnan
sI11
Fnan
sI12
Fnan
sI13
Fnan
sI14
Fnan
ssg150
(dp258
I0
F2458365.7224537036
sI1
Fnan
sI2
Fnan
sI3
Fnan
sI4
Fnan
sI5
Fnan
sI6
Fnan
sI7
Fnan
sI8
Fnan
sI9
Fnan
sI10
Fnan
sI11
Fnan
sI12
Fnan
sI13
Fnan
sI14
Fnan
ssg152
(dp259
I0
F0.001821046994988903
sI1
Fnan
sI2
Fnan
sI3
Fnan
sI4
Fnan
sI5
Fnan
sI6
Fnan
sI7
Fnan
sI8
Fnan
sI9
Fnan
sI10
Fnan
sI11
Fnan
sI12
Fnan
sI13
Fnan
sI14
Fnan
ssg154
(dp260
I0
F15.99632
sI1
F16.71347
sI2
F18.31079
sI3
F16.90163
sI4
F14.57325
sI5
F15.93944
sI6
F16.46609
sI7
F15.05477
sI8
F16.08316
sI9
F16.45053
sI10
F16.18294
sI11
F14.60123
sI12
F16.80936
sI13
F17.27717
sI14
F15.86237
ssg156
(dp261
I0
F10.32
sI1
F10.345
sI2
F10.314
sI3
F10.314
sI4
F10.897
sI5
F10.94
sI6
F10.349
sI7
F10.866
sI8
F10.969
sI9
F10.351
sI10
F10.307
sI11
F10.817
sI12
F10.31
sI13
F10.337
sI14
F10.372
ssg158
(dp262
I0
F0.5461178649145055
sI1
Fnan
sI2
Fnan
sI3
Fnan
sI4
Fnan
sI5
Fnan
sI6
Fnan
sI7
Fnan
sI8
Fnan
sI9
Fnan
sI10
Fnan
sI11
Fnan
sI12
Fnan
sI13
Fnan
sI14
Fnan
sssS'z'
p263
(dp264
g3
(dp265
I0
F0.36750122936967883
sI1
Fnan
sI2
Fnan
sI3
Fnan
sI4
Fnan
sI5
Fnan
sI6
Fnan
sI7
Fnan
sI8
Fnan
sI9
Fnan
sI10
Fnan
sI11
Fnan
sI12
Fnan
sI13
Fnan
sI14
Fnan
ssg5
(dp266
I0
S'NoError'
p267
sI1
S'NoError'
p268
sI2
S'NoError'
p269
sI3
S'NoError'
p270
sI4
S'NoError'
p271
sI5
S'NoError'
p272
sI6
S'NoError'
p273
sI7
S'NoError'
p274
sI8
S'NoError'
p275
sI9
S'NoError'
p276
sI10
S'NoError'
p277
sI11
S'NoError'
p278
sI12
S'NoError'
p279
sI13
S'NoError'
p280
sI14
S'NoError'
p281
ssg22
(dp282
I0
F0.007
sI1
F0.008
sI2
F0.007
sI3
F0.007
sI4
F0.007
sI5
F0.007
sI6
F0.007
sI7
F0.007
sI8
F0.007
sI9
F0.007
sI10
F0.008
sI11
F0.007
sI12
F0.007
sI13
F0.008
sI14
F0.007
ssg24
(dp283
I0
F0.9178659496392492
sI1
F0.9144438882206933
sI2
F0.9168304832023062
sI3
F0.9226593059551002
sI4
F0.9147074327030659
sI5
F0.9190248819170023
sI6
F0.9089772230767055
sI7
F0.9180084794211675
sI8
F0.923031990946494
sI9
F0.9214034647606689
sI10
F0.9133745870980363
sI11
F0.915121557410173
sI12
F0.9191334872217176
sI13
F0.9250059307627605
sI14
F0.9100013533349187
ssg26
(dp284
I0
F0.004650259827938544
sI1
Fnan
sI2
Fnan
sI3
Fnan
sI4
Fnan
sI5
Fnan
sI6
Fnan
sI7
Fnan
sI8
Fnan
sI9
Fnan
sI10
Fnan
sI11
Fnan
sI12
Fnan
sI13
Fnan
sI14
Fnan
ssg28
(dp285
I0
F0.9173060010446705
sI1
Fnan
sI2
Fnan
sI3
Fnan
sI4
Fnan
sI5
Fnan
sI6
Fnan
sI7
Fnan
sI8
Fnan
sI9
Fnan
sI10
Fnan
sI11
Fnan
sI12
Fnan
sI13
Fnan
sI14
Fnan
ssg30
(dp286
I0
F13.336
sI1
F13.392
sI2
F13.318
sI3
F13.378
sI4
F13.323
sI5
F13.344
sI6
F13.38
sI7
F13.343
sI8
F13.367
sI9
F13.304
sI10
F13.376
sI11
F13.317
sI12
F13.342
sI13
F13.511
sI14
F13.353
ssg32
(dp287
I0
F10.05515
sI1
F10.23122
sI2
F9.479821
sI3
F9.239928
sI4
F9.596892
sI5
F8.983825
sI6
F8.777379
sI7
F10.0715
sI8
F9.377044
sI9
F9.366226
sI10
F8.711537
sI11
F9.57241
sI12
F9.645674
sI13
F9.949644
sI14
F9.628633
ssg34
(dp288
I0
F2458365.7118171295
sI1
F2458365.710335648
sI2
F2458365.7298958334
sI3
F2458365.750902778
sI4
F2458365.731377315
sI5
F2458365.750162037
sI6
F2458365.747905093
sI7
F2458365.730636574
sI8
F2458365.749398148
sI9
F2458365.7125578704
sI10
F2458365.748645833
sI11
F2458365.7284027776
sI12
F2458365.7291435185
sI13
F2458365.7095949072
sI14
F2458365.711076389
ssg36
(dp289
I0
F1.3132318
sI1
Fnan
sI2
Fnan
sI3
Fnan
sI4
Fnan
sI5
Fnan
sI6
Fnan
sI7
Fnan
sI8
Fnan
sI9
Fnan
sI10
Fnan
sI11
Fnan
sI12
Fnan
sI13
Fnan
sI14
Fnan
ssg38
(dp290
I0
F1.6207732666666668
sI1
Fnan
sI2
Fnan
sI3
Fnan
sI4
Fnan
sI5
Fnan
sI6
Fnan
sI7
Fnan
sI8
Fnan
sI9
Fnan
sI10
Fnan
sI11
Fnan
sI12
Fnan
sI13
Fnan
sI14
Fnan
ssg40
(dp291
I0
F0.3671751236184751
sI1
F0.3688666884356491
sI2
F0.3681442259266041
sI3
F0.36498136838414563
sI4
F0.36877616806692515
sI5
F0.36631789812108834
sI6
F0.36757272974422744
sI7
F0.36219404658645316
sI8
F0.3692411648474417
sI9
F0.36719147812559216
sI10
F0.3735050144166445
sI11
F0.36889287687594363
sI12
F0.36042102053804254
sI13
F0.3640277797190494
sI14
F0.3688272505710043
ssg42
(dp292
I0
F0.0015981241606211453
sI1
Fnan
sI2
Fnan
sI3
Fnan
sI4
Fnan
sI5
Fnan
sI6
Fnan
sI7
Fnan
sI8
Fnan
sI9
Fnan
sI10
Fnan
sI11
Fnan
sI12
Fnan
sI13
Fnan
sI14
Fnan
ssg44
(dp293
I0
F2.042060273333333
sI1
Fnan
sI2
Fnan
sI3
Fnan
sI4
Fnan
sI5
Fnan
sI6
Fnan
sI7
Fnan
sI8
Fnan
sI9
Fnan
sI10
Fnan
sI11
Fnan
sI12
Fnan
sI13
Fnan
sI14
Fnan
ssg46
(dp294
I0
g267
sI1
g268
sI2
g269
sI3
g270
sI4
g271
sI5
g272
sI6
g273
sI7
g274
sI8
g275
sI9
g276
sI10
g277
sI11
g278
sI12
g279
sI13
g280
sI14
g281
ssg48
(dp295
I0
F0.0024783316716148448
sI1
Fnan
sI2
Fnan
sI3
Fnan
sI4
Fnan
sI5
Fnan
sI6
Fnan
sI7
Fnan
sI8
Fnan
sI9
Fnan
sI10
Fnan
sI11
Fnan
sI12
Fnan
sI13
Fnan
sI14
Fnan
ssg50
(dp296
I0
F0.0486486920491727
sI1
Fnan
sI2
Fnan
sI3
Fnan
sI4
Fnan
sI5
Fnan
sI6
Fnan
sI7
Fnan
sI8
Fnan
sI9
Fnan
sI10
Fnan
sI11
Fnan
sI12
Fnan
sI13
Fnan
sI14
Fnan
ssg52
(dp297
I0
F0.9822654
sI1
Fnan
sI2
Fnan
sI3
Fnan
sI4
Fnan
sI5
Fnan
sI6
Fnan
sI7
Fnan
sI8
Fnan
sI9
Fnan
sI10
Fnan
sI11
Fnan
sI12
Fnan
sI13
Fnan
sI14
Fnan
ssg54
(dp298
I0
F1.509224625801726
sI1
F1.5081811155693274
sI2
F1.5115675105877413
sI3
F1.4972904584785696
sI4
F1.4988733337886997
sI5
F1.5048201374328354
sI6
F1.518241135284822
sI7
F1.5020595043271945
sI8
F1.4992237467887362
sI9
F1.4965041916663122
sI10
F1.5125822451533568
sI11
F1.509979018565716
sI12
F1.505051235183692
sI13
F1.4992669250781985
sI14
F1.5228180647354166
ssg56
(dp299
I0
g267
sI1
g268
sI2
g269
sI3
g270
sI4
g271
sI5
g272
sI6
g273
sI7
g274
sI8
g275
sI9
g276
sI10
g277
sI11
g278
sI12
g279
sI13
g280
sI14
g281
ssg58
(dp300
I0
F10.66674
sI1
F11.12201
sI2
F9.918477
sI3
F10.84651
sI4
F10.40878
sI5
F9.348574
sI6
F10.28071
sI7
F9.543706
sI8
F11.28415
sI9
F10.55321
sI10
F10.81281
sI11
F10.29886
sI12
F10.01927
sI13
F10.47926
sI14
F11.07305
ssg60
(dp301
I0
F11.995266666666668
sI1
Fnan
sI2
Fnan
sI3
Fnan
sI4
Fnan
sI5
Fnan
sI6
Fnan
sI7
Fnan
sI8
Fnan
sI9
Fnan
sI10
Fnan
sI11
Fnan
sI12
Fnan
sI13
Fnan
sI14
Fnan
ssg62
(dp302
I0
F0.6880199516720108
sI1
Fnan
sI2
Fnan
sI3
Fnan
sI4
Fnan
sI5
Fnan
sI6
Fnan
sI7
Fnan
sI8
Fnan
sI9
Fnan
sI10
Fnan
sI11
Fnan
sI12
Fnan
sI13
Fnan
sI14
Fnan
ssg64
(dp303
I0
F3.592262
sI1
F3.04352
sI2
F-2.661179
sI3
F-3.224465
sI4
F1.931522
sI5
F1.238539
sI6
F3.45411
sI7
F-1.203503
sI8
F2.665586
sI9
F3.292767
sI10
F3.80836
sI11
F4.1223
sI12
F-2.242064
sI13
F3.561436
sI14
F2.932408
ssg66
(dp304
I0
F12.334133333333334
sI1
Fnan
sI2
Fnan
sI3
Fnan
sI4
Fnan
sI5
Fnan
sI6
Fnan
sI7
Fnan
sI8
Fnan
sI9
Fnan
sI10
Fnan
sI11
Fnan
sI12
Fnan
sI13
Fnan
sI14
Fnan
ssg68
(dp305
I0
g267
sI1
g268
sI2
g269
sI3
g270
sI4
g271
sI5
g272
sI6
g273
sI7
g274
sI8
g275
sI9
g276
sI10
g277
sI11
g278
sI12
g279
sI13
g280
sI14
g281
ssg70
(dp306
I0
F2989.514333333333
sI1
F2818.2793333333334
sI2
F3028.1983333333333
sI3
F2903.756
sI4
F3006.110666666667
sI5
F2975.489333333333
sI6
F2847.3693333333335
sI7
F3010.797
sI8
F2900.2226666666666
sI9
F3087.699333333333
sI10
F2823.958
sI11
F3022.032
sI12
F3030.695
sI13
F2579.311666666667
sI14
F2912.673333333333
ssg72
(dp307
I0
F1.005851
sI1
F1.0055319999999999
sI2
F1.013719
sI3
F1.032294
sI4
F1.014699
sI5
F1.03146
sI6
F1.028994
sI7
F1.014199
sI8
F1.030633
sI9
F1.0060280000000001
sI10
F1.029799
sI11
F1.012794
sI12
F1.013252
sI13
F1.00539
sI14
F1.005686
ssg74
(dp308
I0
F2426.8210000000004
sI1
F2302.436333333333
sI2
F2458.8076666666666
sI3
F2356.359
sI4
F2469.3353333333334
sI5
F2417.545
sI6
F2332.699333333333
sI7
F2454.6766666666667
sI8
F2349.1383333333333
sI9
F2512.1023333333337
sI10
F2304.7636666666667
sI11
F2463.2936666666665
sI12
F2461.5919999999996
sI13
F2082.331
sI14
F2375.220333333333
ssg76
(dp309
I0
F4087.233333333333
sI1
F3861.483333333333
sI2
F4146.99
sI3
F3937.96
sI4
F4103.5
sI5
F4057.773333333333
sI6
F3932.2966666666666
sI7
F4104.733333333334
sI8
F3934.983333333333
sI9
F4190.0633333333335
sI10
F3878.8066666666664
sI11
F4141.363333333333
sI12
F4133.086666666667
sI13
F3494.523333333333
sI14
F4026.25
ssg78
(dp310
I0
F10.01385
sI1
F10.9537
sI2
F9.808693
sI3
F10.9224
sI4
F9.707437
sI5
F9.692978
sI6
F8.979048
sI7
F9.792397
sI8
F9.968491
sI9
F10.29602
sI10
F8.881915
sI11
F9.770299
sI12
F9.748297
sI13
F10.7466
sI14
F10.55867
ssg80
(dp311
I0
F12.537
sI1
F12.595
sI2
F12.523
sI3
F12.569
sI4
F12.519
sI5
F12.542
sI6
F12.58
sI7
F12.525
sI8
F12.573
sI9
F12.5
sI10
F12.593
sI11
F12.521
sI12
F12.522
sI13
F12.704
sI14
F12.561
ssg82
(dp312
I0
F0.003
sI1
F0.003
sI2
F0.003
sI3
F0.003
sI4
F0.003
sI5
F0.003
sI6
F0.003
sI7
F0.003
sI8
F0.003
sI9
F0.003
sI10
F0.003
sI11
F0.003
sI12
F0.003
sI13
F0.003
sI14
F0.003
ssg84
(dp313
I0
F0.36707565559848576
sI1
Fnan
sI2
Fnan
sI3
Fnan
sI4
Fnan
sI5
Fnan
sI6
Fnan
sI7
Fnan
sI8
Fnan
sI9
Fnan
sI10
Fnan
sI11
Fnan
sI12
Fnan
sI13
Fnan
sI14
Fnan
ssg86
(dp314
I0
F12.5576
sI1
Fnan
sI2
Fnan
sI3
Fnan
sI4
Fnan
sI5
Fnan
sI6
Fnan
sI7
Fnan
sI8
Fnan
sI9
Fnan
sI10
Fnan
sI11
Fnan
sI12
Fnan
sI13
Fnan
sI14
Fnan
ssg88
(dp315
I0
F12.311
sI1
F12.375
sI2
F12.297
sI3
F12.343
sI4
F12.305
sI5
F12.316
sI6
F12.364
sI7
F12.303
sI8
F12.344
sI9
F12.276
sI10
F12.373
sI11
F12.299
sI12
F12.296
sI13
F12.471
sI14
F12.339
ssg90
(dp316
I0
F1.870986
sI1
F1.863952
sI2
F2.638149
sI3
F3.051022
sI4
F-2.566448
sI5
F-2.171717
sI6
F3.111276
sI7
F-3.148515
sI8
F2.082109
sI9
F-3.147123
sI10
F2.677626
sI11
F2.412637
sI12
F4.299362
sI13
F3.16276
sI14
F3.562401
ssg92
(dp317
I0
F0.049561601880411026
sI1
Fnan
sI2
Fnan
sI3
Fnan
sI4
Fnan
sI5
Fnan
sI6
Fnan
sI7
Fnan
sI8
Fnan
sI9
Fnan
sI10
Fnan
sI11
Fnan
sI12
Fnan
sI13
Fnan
sI14
Fnan
ssg94
(dp318
I0
F0.685857717219723
sI1
F0.6893766884332417
sI2
F0.6853639381823426
sI3
F0.688821050157592
sI4
F0.6946471330450724
sI5
F0.6874604616880512
sI6
F0.688145797546172
sI7
F0.6899490415120615
sI8
F0.6873643115754912
sI9
F0.690350166223246
sI10
F0.6877053816698723
sI11
F0.687744722172251
sI12
F0.6872325580367351
sI13
F0.6856725610754985
sI14
F0.6846077465428114
ssg96
(dp319
I0
F30.0
sI1
F30.0
sI2
F30.0
sI3
F30.0
sI4
F30.0
sI5
F30.0
sI6
F30.0
sI7
F30.0
sI8
F30.0
sI9
F30.0
sI10
F30.0
sI11
F30.0
sI12
F30.0
sI13
F30.0
sI14
F30.0
ssg98
(dp320
I0
F0.004
sI1
F0.004
sI2
F0.004
sI3
F0.004
sI4
F0.004
sI5
F0.004
sI6
F0.005
sI7
F0.004
sI8
F0.004
sI9
F0.004
sI10
F0.004
sI11
F0.004
sI12
F0.004
sI13
F0.005
sI14
F0.004
ssg100
(dp321
I0
F0.004
sI1
F0.004
sI2
F0.004
sI3
F0.004
sI4
F0.004
sI5
F0.004
sI6
F0.004
sI7
F0.004
sI8
F0.004
sI9
F0.004
sI10
F0.004
sI11
F0.004
sI12
F0.004
sI13
F0.004
sI14
F0.004
ssg102
(dp322
I0
F3.367798
sI1
F3.278962
sI2
F2.583191
sI3
F-1.571444
sI4
F-1.177153
sI5
F1.901137
sI6
F-2.722571
sI7
F3.096166
sI8
F-2.856815
sI9
F3.344868
sI10
F3.011628
sI11
F-3.202341
sI12
F4.055143
sI13
F4.028247
sI14
F-2.402835
ssg104
(dp323
I0
S"KIC8462852-20180904at050501_-25-1X1-030-z'_cal.fts.mag.1"
p324
sI1
S"KIC8462852-20180904at050253_-25-1X1-030-z'_cal.fts.mag.1"
p325
sI2
S"KIC8462852-20180904at053103_-25-1X1-030-z'_cal.fts.mag.1"
p326
sI3
S"KIC8462852-20180904at060118_-25-1X1-030-z'_cal.fts.mag.1"
p327
sI4
S"KIC8462852-20180904at053311_-25-1X1-030-z'_cal.fts.mag.1"
p328
sI5
S"KIC8462852-20180904at060013_-25-1X1-030-z'_cal.fts.mag.1"
p329
sI6
S"KIC8462852-20180904at055657_-25-1X1-030-z'_cal.fts.mag.1"
p330
sI7
S"KIC8462852-20180904at053207_-25-1X1-030-z'_cal.fts.mag.1"
p331
sI8
S"KIC8462852-20180904at055908_-25-1X1-030-z'_cal.fts.mag.1"
p332
sI9
S"KIC8462852-20180904at050604_-25-1X1-030-z'_cal.fts.mag.1"
p333
sI10
S"KIC8462852-20180904at055803_-25-1X1-030-z'_cal.fts.mag.1"
p334
sI11
S"KIC8462852-20180904at052853_-25-1X1-030-z'_cal.fts.mag.1"
p335
sI12
S"KIC8462852-20180904at052958_-25-1X1-030-z'_cal.fts.mag.1"
p336
sI13
S"KIC8462852-20180904at050148_-25-1X1-030-z'_cal.fts.mag.1"
p337
sI14
S"KIC8462852-20180904at050357_-25-1X1-030-z'_cal.fts.mag.1"
p338
ssg121
(dp339
I0
F0.007845554248462911
sI1
Fnan
sI2
Fnan
sI3
Fnan
sI4
Fnan
sI5
Fnan
sI6
Fnan
sI7
Fnan
sI8
Fnan
sI9
Fnan
sI10
Fnan
sI11
Fnan
sI12
Fnan
sI13
Fnan
sI14
Fnan
ssg123
(dp340
I0
F1163.158
sI1
F1104.4113333333332
sI2
F1182.2333333333333
sI3
F1119.0420000000001
sI4
F1177.4956666666667
sI5
F1154.0
sI6
F1116.4856666666667
sI7
F1155.424
sI8
F1130.4126666666666
sI9
F1198.2516666666668
sI10
F1121.4523333333334
sI11
F1183.739
sI12
F1156.3956666666668
sI13
F989.6903333333333
sI14
F1145.1033333333332
ssg125
(dp341
I0
F0.05021923365177369
sI1
Fnan
sI2
Fnan
sI3
Fnan
sI4
Fnan
sI5
Fnan
sI6
Fnan
sI7
Fnan
sI8
Fnan
sI9
Fnan
sI10
Fnan
sI11
Fnan
sI12
Fnan
sI13
Fnan
sI14
Fnan
ssg127
(dp342
I0
S"z'"
p343
sI1
S"z'"
p344
sI2
S"z'"
p345
sI3
S"z'"
p346
sI4
S"z'"
p347
sI5
S"z'"
p348
sI6
S"z'"
p349
sI7
S"z'"
p350
sI8
S"z'"
p351
sI9
S"z'"
p352
sI10
S"z'"
p353
sI11
S"z'"
p354
sI12
S"z'"
p355
sI13
S"z'"
p356
sI14
S"z'"
p357
ssg144
(dp358
I0
F0.0031878373273219085
sI1
Fnan
sI2
Fnan
sI3
Fnan
sI4
Fnan
sI5
Fnan
sI6
Fnan
sI7
Fnan
sI8
Fnan
sI9
Fnan
sI10
Fnan
sI11
Fnan
sI12
Fnan
sI13
Fnan
sI14
Fnan
ssg146
(dp359
I0
F2.990731
sI1
F2.705745
sI2
F-1.457384
sI3
F2.23378
sI4
F2.038972
sI5
F3.313241
sI6
F3.731438
sI7
F3.107969
sI8
F0.9330471
sI9
F1.318595
sI10
F1.190599
sI11
F1.948568
sI12
F2.174575
sI13
F1.64386
sI14
F2.757168
ssg148
(dp360
I0
F1.5063788832294898
sI1
Fnan
sI2
Fnan
sI3
Fnan
sI4
Fnan
sI5
Fnan
sI6
Fnan
sI7
Fnan
sI8
Fnan
sI9
Fnan
sI10
Fnan
sI11
Fnan
sI12
Fnan
sI13
Fnan
sI14
Fnan
ssg150
(dp361
I0
F2458365.7298958334
sI1
Fnan
sI2
Fnan
sI3
Fnan
sI4
Fnan
sI5
Fnan
sI6
Fnan
sI7
Fnan
sI8
Fnan
sI9
Fnan
sI10
Fnan
sI11
Fnan
sI12
Fnan
sI13
Fnan
sI14
Fnan
ssg152
(dp362
I0
F0.0031878373273219085
sI1
Fnan
sI2
Fnan
sI3
Fnan
sI4
Fnan
sI5
Fnan
sI6
Fnan
sI7
Fnan
sI8
Fnan
sI9
Fnan
sI10
Fnan
sI11
Fnan
sI12
Fnan
sI13
Fnan
sI14
Fnan
ssg154
(dp363
I0
F11.68543
sI1
F10.95969
sI2
F10.53362
sI3
F11.57051
sI4
F11.00541
sI5
F11.68465
sI6
F10.58549
sI7
F11.47801
sI8
F10.56763
sI9
F11.88095
sI10
F11.45456
sI11
F10.49664
sI12
F9.910604
sI13
F10.99263
sI14
F10.84321
ssg156
(dp364
I0
F11.971
sI1
F12.033
sI2
F11.956
sI3
F12.012
sI4
F11.967
sI5
F11.979
sI6
F12.013
sI7
F11.967
sI8
F12.013
sI9
F11.944
sI10
F12.028
sI11
F11.957
sI12
F11.959
sI13
F12.142
sI14
F11.988
ssg158
(dp365
I0
F0.36707565559848576
sI1
Fnan
sI2
Fnan
sI3
Fnan
sI4
Fnan
sI5
Fnan
sI6
Fnan
sI7
Fnan
sI8
Fnan
sI9
Fnan
sI10
Fnan
sI11
Fnan
sI12
Fnan
sI13
Fnan
sI14
Fnan
sssS'g'
p366
(dp367
g3
(dp368
I0
F0.8656567981956644
sI1
Fnan
sI2
Fnan
sI3
Fnan
sI4
Fnan
sI5
Fnan
sI6
Fnan
sI7
Fnan
sI8
Fnan
sI9
Fnan
sI10
Fnan
sI11
Fnan
sI12
Fnan
sI13
Fnan
sI14
Fnan
ssg5
(dp369
I0
S'NoError'
p370
sI1
S'NoError'
p371
sI2
S'NoError'
p372
sI3
S'NoError'
p373
sI4
S'NoError'
p374
sI5
S'NoError'
p375
sI6
S'NoError'
p376
sI7
S'NoError'
p377
sI8
S'NoError'
p378
sI9
S'NoError'
p379
sI10
S'NoError'
p380
sI11
S'NoError'
p381
sI12
S'NoError'
p382
sI13
S'NoError'
p383
sI14
S'NoError'
p384
ssg22
(dp385
I0
F0.003
sI1
F0.003
sI2
F0.002
sI3
F0.003
sI4
F0.002
sI5
F0.003
sI6
F0.002
sI7
F0.002
sI8
F0.002
sI9
F0.002
sI10
F0.002
sI11
F0.003
sI12
F0.002
sI13
F0.004
sI14
F0.003
ssg24
(dp386
I0
F0.877092118330864
sI1
F0.875998437418798
sI2
F0.8809085167573056
sI3
F0.8788674683924234
sI4
F0.8777091847523051
sI5
F0.8764264177873603
sI6
F0.8765955720713056
sI7
F0.8781658930308044
sI8
F0.8822783501993601
sI9
F0.875181089212021
sI10
F0.8786449869719105
sI11
F0.8769287099616107
sI12
F0.876241523502242
sI13
F0.8827363910591897
sI14
F0.8813467103673988
ssg26
(dp387
I0
F0.002411207507902194
sI1
Fnan
sI2
Fnan
sI3
Fnan
sI4
Fnan
sI5
Fnan
sI6
Fnan
sI7
Fnan
sI8
Fnan
sI9
Fnan
sI10
Fnan
sI11
Fnan
sI12
Fnan
sI13
Fnan
sI14
Fnan
ssg28
(dp388
I0
F0.8783414246543266
sI1
Fnan
sI2
Fnan
sI3
Fnan
sI4
Fnan
sI5
Fnan
sI6
Fnan
sI7
Fnan
sI8
Fnan
sI9
Fnan
sI10
Fnan
sI11
Fnan
sI12
Fnan
sI13
Fnan
sI14
Fnan
ssg30
(dp389
I0
F11.974
sI1
F11.814
sI2
F11.522
sI3
F11.633
sI4
F11.505
sI5
F11.649
sI6
F11.53
sI7
F11.529
sI8
F11.539
sI9
F11.537
sI10
F11.551
sI11
F11.914
sI12
F11.515
sI13
F12.364
sI14
F11.825
ssg32
(dp390
I0
F10.09978
sI1
F9.936941
sI2
F9.379146
sI3
F9.584294
sI4
F8.703223
sI5
F9.696727
sI6
F8.674243
sI7
F9.139606
sI8
F9.484571
sI9
F9.214866
sI10
F9.116732
sI11
F10.09563
sI12
F8.952136
sI13
F10.42178
sI14
F10.7166
ssg34
(dp391
I0
F2458365.701446759
sI1
F2458365.6999421297
sI2
F2458365.7202314814
sI3
F2458365.7172569446
sI4
F2458365.7389930557
sI5
F2458365.717997685
sI6
F2458365.7375115743
sI7
F2458365.739722222
sI8
F2458365.7367824074
sI9
F2458365.719490741
sI10
F2458365.71875
sI11
F2458365.7007060186
sI12
F2458365.7382523147
sI13
F2458365.6984606483
sI14
F2458365.6992013888
ssg36
(dp392
I0
F2.580824933333333
sI1
Fnan
sI2
Fnan
sI3
Fnan
sI4
Fnan
sI5
Fnan
sI6
Fnan
sI7
Fnan
sI8
Fnan
sI9
Fnan
sI10
Fnan
sI11
Fnan
sI12
Fnan
sI13
Fnan
sI14
Fnan
ssg38
(dp393
I0
F1.7976326133333334
sI1
Fnan
sI2
Fnan
sI3
Fnan
sI4
Fnan
sI5
Fnan
sI6
Fnan
sI7
Fnan
sI8
Fnan
sI9
Fnan
sI10
Fnan
sI11
Fnan
sI12
Fnan
sI13
Fnan
sI14
Fnan
ssg40
(dp394
I0
F0.8652914209481287
sI1
F0.863011629356542
sI2
F0.8728082995609857
sI3
F0.8649658677390816
sI4
F0.8713879337104908
sI5
F0.8686918365635291
sI6
F0.8654097443183422
sI7
F0.8638262117628317
sI8
F0.8632547519360615
sI9
F0.8669336594226761
sI10
F0.8630411208681324
sI11
F0.8618120485934578
sI12
F0.8641382785713128
sI13
F0.8421351185674663
sI14
F0.8646223713877288
ssg42
(dp395
I0
F0.003123885387129092
sI1
Fnan
sI2
Fnan
sI3
Fnan
sI4
Fnan
sI5
Fnan
sI6
Fnan
sI7
Fnan
sI8
Fnan
sI9
Fnan
sI10
Fnan
sI11
Fnan
sI12
Fnan
sI13
Fnan
sI14
Fnan
ssg44
(dp396
I0
F1.2915130666666665
sI1
Fnan
sI2
Fnan
sI3
Fnan
sI4
Fnan
sI5
Fnan
sI6
Fnan
sI7
Fnan
sI8
Fnan
sI9
Fnan
sI10
Fnan
sI11
Fnan
sI12
Fnan
sI13
Fnan
sI14
Fnan
ssg46
(dp397
I0
g370
sI1
g371
sI2
g372
sI3
g373
sI4
g374
sI5
g375
sI6
g376
sI7
g377
sI8
g378
sI9
g379
sI10
g380
sI11
g381
sI12
g382
sI13
g383
sI14
g384
ssg48
(dp398
I0
F0.008775637873494595
sI1
Fnan
sI2
Fnan
sI3
Fnan
sI4
Fnan
sI5
Fnan
sI6
Fnan
sI7
Fnan
sI8
Fnan
sI9
Fnan
sI10
Fnan
sI11
Fnan
sI12
Fnan
sI13
Fnan
sI14
Fnan
ssg50
(dp399
I0
F0.23665975174337958
sI1
Fnan
sI2
Fnan
sI3
Fnan
sI4
Fnan
sI5
Fnan
sI6
Fnan
sI7
Fnan
sI8
Fnan
sI9
Fnan
sI10
Fnan
sI11
Fnan
sI12
Fnan
sI13
Fnan
sI14
Fnan
ssg52
(dp400
I0
F0.9881639266666667
sI1
Fnan
sI2
Fnan
sI3
Fnan
sI4
Fnan
sI5
Fnan
sI6
Fnan
sI7
Fnan
sI8
Fnan
sI9
Fnan
sI10
Fnan
sI11
Fnan
sI12
Fnan
sI13
Fnan
sI14
Fnan
ssg54
(dp401
I0
F1.5286375609650575
sI1
F1.5256826173105336
sI2
F1.512305438362653
sI3
F1.5203805212588433
sI4
F1.5248337549476727
sI5
F1.5158163377039098
sI6
F1.5233045754058585
sI7
F1.5104754244817387
sI8
F1.510883154688672
sI9
F1.5207753036679246
sI10
F1.5163329118328104
sI11
F1.5275217289189196
sI12
F1.514456169071124
sI13
F1.5667417064896267
sI14
F1.5245405559641274
ssg56
(dp402
I0
g370
sI1
g371
sI2
g372
sI3
g373
sI4
g374
sI5
g375
sI6
g376
sI7
g377
sI8
g378
sI9
g379
sI10
g380
sI11
g381
sI12
g382
sI13
g383
sI14
g384
ssg58
(dp403
I0
F9.694626
sI1
F10.28901
sI2
F8.99943
sI3
F10.16262
sI4
F9.017854
sI5
F9.566374
sI6
F10.3292
sI7
F9.597279
sI8
F8.444443
sI9
F9.026764
sI10
F9.811648
sI11
F10.96224
sI12
F9.428885
sI13
F10.17439
sI14
F10.2269
ssg60
(dp404
I0
F11.252666666666665
sI1
Fnan
sI2
Fnan
sI3
Fnan
sI4
Fnan
sI5
Fnan
sI6
Fnan
sI7
Fnan
sI8
Fnan
sI9
Fnan
sI10
Fnan
sI11
Fnan
sI12
Fnan
sI13
Fnan
sI14
Fnan
ssg62
(dp405
I0
F0.712169419314081
sI1
Fnan
sI2
Fnan
sI3
Fnan
sI4
Fnan
sI5
Fnan
sI6
Fnan
sI7
Fnan
sI8
Fnan
sI9
Fnan
sI10
Fnan
sI11
Fnan
sI12
Fnan
sI13
Fnan
sI14
Fnan
ssg64
(dp406
I0
F2.406748
sI1
F1.714815
sI2
F1.360666
sI3
F2.859059
sI4
F1.183838
sI5
F1.612553
sI6
F-2.587663
sI7
F4.30301
sI8
F2.657651
sI9
F3.499854
sI10
F1.924898
sI11
F1.189812
sI12
F3.412659
sI13
F-0.7909178
sI14
F2.217507
ssg66
(dp407
I0
F11.630866666666666
sI1
Fnan
sI2
Fnan
sI3
Fnan
sI4
Fnan
sI5
Fnan
sI6
Fnan
sI7
Fnan
sI8
Fnan
sI9
Fnan
sI10
Fnan
sI11
Fnan
sI12
Fnan
sI13
Fnan
sI14
Fnan
ssg68
(dp408
I0
g370
sI1
g371
sI2
g372
sI3
g373
sI4
g374
sI5
g375
sI6
g376
sI7
g377
sI8
g378
sI9
g379
sI10
g380
sI11
g381
sI12
g382
sI13
g383
sI14
g384
ssg70
(dp409
I0
F4309.75
sI1
F5000.64
sI2
F6499.759999999999
sI3
F5909.963333333333
sI4
F6592.966666666666
sI5
F5788.3933333333325
sI6
F6483.176666666666
sI7
F6512.093333333333
sI8
F6474.21
sI9
F6424.7
sI10
F6385.666666666667
sI11
F4570.486666666667
sI12
F6579.48
sI13
F3105.588
sI14
F4962.17
ssg72
(dp410
I0
F1.004638
sI1
F1.00466
sI2
F1.0085959999999998
sI3
F1.007448
sI4
F1.020459
sI5
F1.0077120000000002
sI6
F1.0192219999999999
sI7
F1.021088
sI8
F1.018632
sI9
F1.008291
sI10
F1.007998
sI11
F1.004643
sI12
F1.019834
sI13
F1.004731
sI14
F1.004689
ssg74
(dp411
I0
F3703.036666666667
sI1
F4312.533333333334
sI2
F5604.373333333334
sI3
F5088.283333333334
sI4
F5672.0599999999995
sI5
F5018.47
sI6
F5593.493333333333
sI7
F5647.636666666667
sI8
F5574.2266666666665
sI9
F5565.096666666666
sI10
F5513.62
sI11
F3930.8566666666666
sI12
F5710.89
sI13
F2581.3183333333336
sI14
F4243.34
ssg76
(dp412
I0
F6124.323333333334
sI1
F7104.473333333333
sI2
F9152.573333333334
sI3
F8360.76
sI4
F9351.063333333334
sI5
F8190.61
sI6
F9198.223333333333
sI7
F9183.486666666666
sI8
F9101.890000000001
sI9
F9116.893333333333
sI10
F9021.640000000001
sI11
F6492.993333333333
sI12
F9306.613333333335
sI13
F4454.956666666667
sI14
F7017.086666666667
ssg78
(dp413
I0
F9.325376
sI1
F9.898893
sI2
F9.107482
sI3
F9.501118
sI4
F9.065976
sI5
F9.311354
sI6
F9.432126
sI7
F8.646387
sI8
F8.998193
sI9
F9.297842
sI10
F8.555524
sI11
F9.619535
sI12
F8.530953
sI13
F9.729251
sI14
F10.25251
ssg80
(dp414
I0
F12.079
sI1
F11.913
sI2
F11.629
sI3
F11.734
sI4
F11.616
sI5
F11.749
sI6
F11.631
sI7
F11.62
sI8
F11.635
sI9
F11.636
sI10
F11.646
sI11
F12.014
sI12
F11.608
sI13
F12.47
sI14
F11.931
ssg82
(dp415
I0
F0.002
sI1
F0.002
sI2
F0.002
sI3
F0.002
sI4
F0.002
sI5
F0.002
sI6
F0.002
sI7
F0.002
sI8
F0.002
sI9
F0.002
sI10
F0.002
sI11
F0.002
sI12
F0.002
sI13
F0.003
sI14
F0.002
ssg84
(dp416
I0
F0.8640886862204512
sI1
Fnan
sI2
Fnan
sI3
Fnan
sI4
Fnan
sI5
Fnan
sI6
Fnan
sI7
Fnan
sI8
Fnan
sI9
Fnan
sI10
Fnan
sI11
Fnan
sI12
Fnan
sI13
Fnan
sI14
Fnan
ssg86
(dp417
I0
F11.79406666666667
sI1
Fnan
sI2
Fnan
sI3
Fnan
sI4
Fnan
sI5
Fnan
sI6
Fnan
sI7
Fnan
sI8
Fnan
sI9
Fnan
sI10
Fnan
sI11
Fnan
sI12
Fnan
sI13
Fnan
sI14
Fnan
ssg88
(dp418
I0
F11.914
sI1
F11.752
sI2
F11.468
sI3
F11.571
sI4
F11.452
sI5
F11.594
sI6
F11.471
sI7
F11.466
sI8
F11.472
sI9
F11.48
sI10
F11.487
sI11
F11.85
sI12
F11.455
sI13
F12.27
sI14
F11.761
ssg90
(dp419
I0
F2.189853
sI1
F2.471597
sI2
F3.679056
sI3
F1.84164
sI4
F3.447018
sI5
F3.813359
sI6
F-2.978665
sI7
F3.429834
sI8
F3.066702
sI9
F3.843415
sI10
F2.795793
sI11
F2.769453
sI12
F3.273515
sI13
F1.918077
sI14
F3.151727
ssg92
(dp420
I0
F0.23255956738210615
sI1
Fnan
sI2
Fnan
sI3
Fnan
sI4
Fnan
sI5
Fnan
sI6
Fnan
sI7
Fnan
sI8
Fnan
sI9
Fnan
sI10
Fnan
sI11
Fnan
sI12
Fnan
sI13
Fnan
sI14
Fnan
ssg94
(dp421
I0
F0.7097969409198454
sI1
F0.7125143259019466
sI2
F0.716107076687182
sI3
F0.7131079784089431
sI4
F0.7114964033559896
sI5
F0.7180011164362935
sI6
F0.7133920865909081
sI7
F0.7196467625492868
sI8
F0.7157409963555275
sI9
F0.7161552290434399
sI10
F0.7157149681363301
sI11
F0.7106004018024468
sI12
F0.7189797869331416
sI13
F0.6828392522337677
sI14
F0.7084479643561634
ssg96
(dp422
I0
F30.0
sI1
F30.0
sI2
F30.0
sI3
F30.0
sI4
F30.0
sI5
F30.0
sI6
F30.0
sI7
F30.0
sI8
F30.0
sI9
F30.0
sI10
F30.0
sI11
F30.0
sI12
F30.0
sI13
F30.0
sI14
F30.0
ssg98
(dp423
I0
F0.003
sI1
F0.003
sI2
F0.003
sI3
F0.003
sI4
F0.003
sI5
F0.003
sI6
F0.003
sI7
F0.003
sI8
F0.003
sI9
F0.003
sI10
F0.003
sI11
F0.003
sI12
F0.003
sI13
F0.004
sI14
F0.003
ssg100
(dp424
I0
F0.003
sI1
F0.003
sI2
F0.002
sI3
F0.002
sI4
F0.002
sI5
F0.002
sI6
F0.002
sI7
F0.002
sI8
F0.002
sI9
F0.002
sI10
F0.002
sI11
F0.003
sI12
F0.002
sI13
F0.004
sI14
F0.003
ssg102
(dp425
I0
F3.166353
sI1
F0.9503409
sI2
F2.137178
sI3
F3.332376
sI4
F2.971604
sI5
F-1.846029
sI6
F-4.299976
sI7
F2.236202
sI8
F4.117459
sI9
F3.187792
sI10
F-2.012192
sI11
F-4.322823
sI12
F2.411924
sI13
F1.059007
sI14
F1.733243
ssg104
(dp426
I0
S"KIC8462852-20180904at045005_-25-1X1-030-g'_cal.fts.mag.1"
p427
sI1
S"KIC8462852-20180904at044755_-25-1X1-030-g'_cal.fts.mag.1"
p428
sI2
S"KIC8462852-20180904at051708_-25-1X1-030-g'_cal.fts.mag.1"
p429
sI3
S"KIC8462852-20180904at051246_-25-1X1-030-g'_cal.fts.mag.1"
p430
sI4
S"KIC8462852-20180904at054409_-25-1X1-030-g'_cal.fts.mag.1"
p431
sI5
S"KIC8462852-20180904at051355_-25-1X1-030-g'_cal.fts.mag.1"
p432
sI6
S"KIC8462852-20180904at054201_-25-1X1-030-g'_cal.fts.mag.1"
p433
sI7
S"KIC8462852-20180904at054512_-25-1X1-030-g'_cal.fts.mag.1"
p434
sI8
S"KIC8462852-20180904at054053_-25-1X1-030-g'_cal.fts.mag.1"
p435
sI9
S"KIC8462852-20180904at051604_-25-1X1-030-g'_cal.fts.mag.1"
p436
sI10
S"KIC8462852-20180904at051459_-25-1X1-030-g'_cal.fts.mag.1"
p437
sI11
S"KIC8462852-20180904at044901_-25-1X1-030-g'_cal.fts.mag.1"
p438
sI12
S"KIC8462852-20180904at054305_-25-1X1-030-g'_cal.fts.mag.1"
p439
sI13
S"KIC8462852-20180904at044536_-25-1X1-030-g'_cal.fts.mag.1"
p440
sI14
S"KIC8462852-20180904at044651_-25-1X1-030-g'_cal.fts.mag.1"
p441
ssg121
(dp442
I0
F0.01356769638694459
sI1
Fnan
sI2
Fnan
sI3
Fnan
sI4
Fnan
sI5
Fnan
sI6
Fnan
sI7
Fnan
sI8
Fnan
sI9
Fnan
sI10
Fnan
sI11
Fnan
sI12
Fnan
sI13
Fnan
sI14
Fnan
ssg123
(dp443
I0
F4077.5733333333333
sI1
F4722.873333333334
sI2
F6184.343333333333
sI3
F5581.626666666666
sI4
F6278.666666666667
sI5
F5500.983333333334
sI6
F6137.166666666667
sI7
F6145.61
sI8
F6086.04
sI9
F6099.366666666667
sI10
F6018.54
sI11
F4307.433333333333
sI12
F6220.926666666666
sI13
F2846.9396666666667
sI14
F4675.473333333333
ssg125
(dp444
I0
F0.24606255495784202
sI1
Fnan
sI2
Fnan
sI3
Fnan
sI4
Fnan
sI5
Fnan
sI6
Fnan
sI7
Fnan
sI8
Fnan
sI9
Fnan
sI10
Fnan
sI11
Fnan
sI12
Fnan
sI13
Fnan
sI14
Fnan
ssg127
(dp445
I0
S"g'"
p446
sI1
S"g'"
p447
sI2
S"g'"
p448
sI3
S"g'"
p449
sI4
S"g'"
p450
sI5
S"g'"
p451
sI6
S"g'"
p452
sI7
S"g'"
p453
sI8
S"g'"
p454
sI9
S"g'"
p455
sI10
S"g'"
p456
sI11
S"g'"
p457
sI12
S"g'"
p458
sI13
S"g'"
p459
sI14
S"g'"
p460
ssg144
(dp461
I0
F0.006829589110189916
sI1
Fnan
sI2
Fnan
sI3
Fnan
sI4
Fnan
sI5
Fnan
sI6
Fnan
sI7
Fnan
sI8
Fnan
sI9
Fnan
sI10
Fnan
sI11
Fnan
sI12
Fnan
sI13
Fnan
sI14
Fnan
ssg146
(dp462
I0
F3.532794
sI1
F3.372665
sI2
F3.760322
sI3
F4.570931
sI4
F3.165311
sI5
F-2.106409
sI6
F2.791457
sI7
F-2.092964
sI8
F-2.894643
sI9
F2.273376
sI10
F2.128662
sI11
F-2.757329
sI12
F2.769023
sI13
F-2.269662
sI14
F3.129162
ssg148
(dp463
I0
F1.5228458507379647
sI1
Fnan
sI2
Fnan
sI3
Fnan
sI4
Fnan
sI5
Fnan
sI6
Fnan
sI7
Fnan
sI8
Fnan
sI9
Fnan
sI10
Fnan
sI11
Fnan
sI12
Fnan
sI13
Fnan
sI14
Fnan
ssg150
(dp464
I0
F2458365.71875
sI1
Fnan
sI2
Fnan
sI3
Fnan
sI4
Fnan
sI5
Fnan
sI6
Fnan
sI7
Fnan
sI8
Fnan
sI9
Fnan
sI10
Fnan
sI11
Fnan
sI12
Fnan
sI13
Fnan
sI14
Fnan
ssg152
(dp465
I0
F0.006829589110189916
sI1
Fnan
sI2
Fnan
sI3
Fnan
sI4
Fnan
sI5
Fnan
sI6
Fnan
sI7
Fnan
sI8
Fnan
sI9
Fnan
sI10
Fnan
sI11
Fnan
sI12
Fnan
sI13
Fnan
sI14
Fnan
ssg154
(dp466
I0
F11.29047
sI1
F10.79733
sI2
F10.18192
sI3
F11.16195
sI4
F10.73322
sI5
F10.7491
sI6
F10.76654
sI7
F11.37016
sI8
F10.47473
sI9
F9.817212
sI10
F11.14076
sI11
F11.57981
sI12
F10.31232
sI13
F10.75521
sI14
F10.80348
ssg156
(dp467
I0
F11.532
sI1
F11.371
sI2
F11.096
sI3
F11.194
sI4
F11.073
sI5
F11.217
sI6
F11.091
sI7
F11.092
sI8
F11.102
sI9
F11.1
sI10
F11.112
sI11
F11.469
sI12
F11.078
sI13
F11.878
sI14
F11.385
ssg158
(dp468
I0
F0.8640886862204512
sI1
Fnan
sI2
Fnan
sI3
Fnan
sI4
Fnan
sI5
Fnan
sI6
Fnan
sI7
Fnan
sI8
Fnan
sI9
Fnan
sI10
Fnan
sI11
Fnan
sI12
Fnan
sI13
Fnan
sI14
Fnan
sssS'V'
p469
(dp470
g3
(dp471
I0
F0.6902840180623059
sI1
Fnan
sI2
Fnan
sI3
Fnan
sI4
Fnan
sI5
Fnan
sI6
Fnan
sI7
Fnan
sI8
Fnan
sI9
Fnan
sI10
Fnan
sI11
Fnan
sI12
Fnan
sI13
Fnan
sI14
Fnan
ssg5
(dp472
I0
S'NoError'
p473
sI1
S'NoError'
p474
sI2
S'NoError'
p475
sI3
S'NoError'
p476
sI4
S'NoError'
p477
sI5
S'NoError'
p478
sI6
S'NoError'
p479
sI7
S'NoError'
p480
sI8
S'NoError'
p481
sI9
S'NoError'
p482
sI10
S'NoError'
p483
sI11
S'NoError'
p484
sI12
S'NoError'
p485
sI13
S'NoError'
p486
sI14
S'NoError'
p487
ssg22
(dp488
I0
F0.002
sI1
F0.002
sI2
F0.002
sI3
F0.002
sI4
F0.002
sI5
F0.002
sI6
F0.002
sI7
F0.002
sI8
F0.002
sI9
F0.002
sI10
F0.002
sI11
F0.002
sI12
F0.002
sI13
F0.002
sI14
F0.002
ssg24
(dp489
I0
F0.8829152609918979
sI1
F0.887660764948089
sI2
F0.892381166402663
sI3
F0.8848159907834336
sI4
F0.8851506597105758
sI5
F0.8810981338056831
sI6
F0.8880539053010633
sI7
F0.8827022008520878
sI8
F0.885343067262936
sI9
F0.8821802001738425
sI10
F0.8825178684759762
sI11
F0.891170553566164
sI12
F0.8880505811978372
sI13
F0.8853010292595017
sI14
F0.8867742503160272
ssg26
(dp490
I0
F0.0032994362074368804
sI1
Fnan
sI2
Fnan
sI3
Fnan
sI4
Fnan
sI5
Fnan
sI6
Fnan
sI7
Fnan
sI8
Fnan
sI9
Fnan
sI10
Fnan
sI11
Fnan
sI12
Fnan
sI13
Fnan
sI14
Fnan
ssg28
(dp491
I0
F0.8857410422031852
sI1
Fnan
sI2
Fnan
sI3
Fnan
sI4
Fnan
sI5
Fnan
sI6
Fnan
sI7
Fnan
sI8
Fnan
sI9
Fnan
sI10
Fnan
sI11
Fnan
sI12
Fnan
sI13
Fnan
sI14
Fnan
ssg30
(dp492
I0
F11.535
sI1
F11.543
sI2
F11.539
sI3
F11.476
sI4
F11.525
sI5
F11.529
sI6
F11.521
sI7
F11.548
sI8
F11.552
sI9
F11.539
sI10
F11.536
sI11
F11.551
sI12
F11.539
sI13
F11.543
sI14
F11.507
ssg32
(dp493
I0
F10.7504
sI1
F10.27439
sI2
F9.75476
sI3
F10.64027
sI4
F9.909872
sI5
F9.82393
sI6
F10.26798
sI7
F10.24213
sI8
F10.19405
sI9
F10.00635
sI10
F10.36021
sI11
F11.44536
sI12
F10.72953
sI13
F10.44642
sI14
F10.68266
ssg34
(dp494
I0
F2458365.733252315
sI1
F2458365.734027778
sI2
F2458365.7347800927
sI3
F2458365.713391204
sI4
F2458365.752476852
sI5
F2458365.751724537
sI6
F2458365.7141319443
sI7
F2458365.7547453702
sI8
F2458365.735532407
sI9
F2458365.7148842593
sI10
F2458365.7163657406
sI11
F2458365.715625
sI12
F2458365.753993056
sI13
F2458365.753240741
sI14
F2458365.7322106482
ssg36
(dp495
I0
F2.7282939133333333
sI1
Fnan
sI2
Fnan
sI3
Fnan
sI4
Fnan
sI5
Fnan
sI6
Fnan
sI7
Fnan
sI8
Fnan
sI9
Fnan
sI10
Fnan
sI11
Fnan
sI12
Fnan
sI13
Fnan
sI14
Fnan
ssg38
(dp496
I0
F2.184366066666667
sI1
Fnan
sI2
Fnan
sI3
Fnan
sI4
Fnan
sI5
Fnan
sI6
Fnan
sI7
Fnan
sI8
Fnan
sI9
Fnan
sI10
Fnan
sI11
Fnan
sI12
Fnan
sI13
Fnan
sI14
Fnan
ssg40
(dp497
I0
F0.6933867811299109
sI1
F0.6904808726075574
sI2
F0.6922896752915827
sI3
F0.687893151985162
sI4
F0.6908104331538515
sI5
F0.6930114149132464
sI6
F0.6894393653084733
sI7
F0.6889725582821666
sI8
F0.6906715500857132
sI9
F0.6924712685447048
sI10
F0.6869085997064269
sI11
F0.6895567116886857
sI12
F0.689808582449191
sI13
F0.688275287725611
sI14
F0.6849517499961748
ssg42
(dp498
I0
F0.0019024733772209821
sI1
Fnan
sI2
Fnan
sI3
Fnan
sI4
Fnan
sI5
Fnan
sI6
Fnan
sI7
Fnan
sI8
Fnan
sI9
Fnan
sI10
Fnan
sI11
Fnan
sI12
Fnan
sI13
Fnan
sI14
Fnan
ssg44
(dp499
I0
F1.5913947333333334
sI1
Fnan
sI2
Fnan
sI3
Fnan
sI4
Fnan
sI5
Fnan
sI6
Fnan
sI7
Fnan
sI8
Fnan
sI9
Fnan
sI10
Fnan
sI11
Fnan
sI12
Fnan
sI13
Fnan
sI14
Fnan
ssg46
(dp500
I0
g473
sI1
g474
sI2
g475
sI3
g476
sI4
g477
sI5
g478
sI6
g479
sI7
g480
sI8
g481
sI9
g482
sI10
g483
sI11
g484
sI12
g485
sI13
g486
sI14
g487
ssg48
(dp501
I0
F0.002878580485216685
sI1
Fnan
sI2
Fnan
sI3
Fnan
sI4
Fnan
sI5
Fnan
sI6
Fnan
sI7
Fnan
sI8
Fnan
sI9
Fnan
sI10
Fnan
sI11
Fnan
sI12
Fnan
sI13
Fnan
sI14
Fnan
ssg50
(dp502
I0
F0.021226219186477362
sI1
Fnan
sI2
Fnan
sI3
Fnan
sI4
Fnan
sI5
Fnan
sI6
Fnan
sI7
Fnan
sI8
Fnan
sI9
Fnan
sI10
Fnan
sI11
Fnan
sI12
Fnan
sI13
Fnan
sI14
Fnan
ssg52
(dp503
I0
F0.8769775999999998
sI1
Fnan
sI2
Fnan
sI3
Fnan
sI4
Fnan
sI5
Fnan
sI6
Fnan
sI7
Fnan
sI8
Fnan
sI9
Fnan
sI10
Fnan
sI11
Fnan
sI12
Fnan
sI13
Fnan
sI14
Fnan
ssg54
(dp504
I0
F1.5101147601984901
sI1
F1.4978582081806153
sI2
F1.4826234968151677
sI3
F1.5005761323016242
sI4
F1.5031341107076752
sI5
F1.5067312588668917
sI6
F1.4974707131792209
sI7
F1.5059926447538845
sI8
F1.5081970442203014
sI9
F1.5002497452775136
sI10
F1.5032520036680062
sI11
F1.5007904311841638
sI12
F1.4945049721843306
sI13
F1.5087201612924628
sI14
F1.4968263529375796
ssg56
(dp505
I0
g473
sI1
g474
sI2
g475
sI3
g476
sI4
g477
sI5
g478
sI6
g479
sI7
g480
sI8
g481
sI9
g482
sI10
g483
sI11
g484
sI12
g485
sI13
g486
sI14
g487
ssg58
(dp506
I0
F11.74502
sI1
F11.52948
sI2
F10.2833
sI3
F11.25951
sI4
F12.16898
sI5
F12.11328
sI6
F11.00065
sI7
F11.71899
sI8
F11.57117
sI9
F11.92737
sI10
F11.17095
sI11
F10.78712
sI12
F11.87892
sI13
F12.1792
sI14
F11.66466
ssg60
(dp507
I0
F10.855933333333331
sI1
Fnan
sI2
Fnan
sI3
Fnan
sI4
Fnan
sI5
Fnan
sI6
Fnan
sI7
Fnan
sI8
Fnan
sI9
Fnan
sI10
Fnan
sI11
Fnan
sI12
Fnan
sI13
Fnan
sI14
Fnan
ssg62
(dp508
I0
F0.7185354506165323
sI1
Fnan
sI2
Fnan
sI3
Fnan
sI4
Fnan
sI5
Fnan
sI6
Fnan
sI7
Fnan
sI8
Fnan
sI9
Fnan
sI10
Fnan
sI11
Fnan
sI12
Fnan
sI13
Fnan
sI14
Fnan
ssg64
(dp509
I0
F3.37131
sI1
F1.249667
sI2
F3.606469
sI3
F3.995666
sI4
F2.563069
sI5
F1.478574
sI6
F-2.586569
sI7
F3.753495
sI8
F3.512373
sI9
F3.460141
sI10
F-1.799948
sI11
F1.337077
sI12
F4.362715
sI13
F1.875737
sI14
F2.585715
ssg66
(dp510
I0
F11.218866666666665
sI1
Fnan
sI2
Fnan
sI3
Fnan
sI4
Fnan
sI5
Fnan
sI6
Fnan
sI7
Fnan
sI8
Fnan
sI9
Fnan
sI10
Fnan
sI11
Fnan
sI12
Fnan
sI13
Fnan
sI14
Fnan
ssg68
(dp511
I0
g473
sI1
g474
sI2
g475
sI3
g476
sI4
g477
sI5
g478
sI6
g479
sI7
g480
sI8
g481
sI9
g482
sI10
g483
sI11
g484
sI12
g485
sI13
g486
sI14
g487
ssg70
(dp512
I0
F8093.866666666667
sI1
F8097.253333333333
sI2
F8140.613333333333
sI3
F8630.01
sI4
F8211.473333333333
sI5
F8136.246666666667
sI6
F8280.0
sI7
F8048.13
sI8
F8015.3
sI9
F8071.990000000001
sI10
F8160.2
sI11
F8076.163333333333
sI12
F8138.456666666667
sI13
F8112.926666666666
sI14
F8432.046666666667
ssg72
(dp513
I0
F1.015976
sI1
F1.016527
sI2
F1.017083
sI3
F1.0062440000000001
sI4
F1.034122
sI5
F1.033244
sI6
F1.006449
sI7
F1.036858
sI8
F1.017656
sI9
F1.006667
sI10
F1.0071379999999999
sI11
F1.006896
sI12
F1.035944
sI13
F1.035023
sI14
F1.015259
ssg74
(dp514
I0
F6964.490000000001
sI1
F6964.123333333334
sI2
F7011.9366666666665
sI3
F7445.58
sI4
F7069.3099999999995
sI5
F7037.240000000001
sI6
F7118.28
sI7
F6945.25
sI8
F6876.653333333334
sI9
F6996.696666666667
sI10
F7056.0599999999995
sI11
F6892.46
sI12
F7009.48
sI13
F6958.66
sI14
F7267.556666666667
ssg76
(dp515
I0
F11369.923333333334
sI1
F11279.903333333332
sI2
F11232.763333333334
sI3
F12061.323333333334
sI4
F11484.533333333333
sI5
F11431.183333333332
sI6
F11529.236666666666
sI7
F11289.96
sI8
F11230.0
sI9
F11303.396666666667
sI10
F11436.936666666666
sI11
F11232.383333333333
sI12
F11319.333333333334
sI13
F11369.403333333332
sI14
F11749.79
ssg78
(dp516
I0
F10.79676
sI1
F10.81831
sI2
F10.49212
sI3
F9.165837
sI4
F10.74266
sI5
F10.41973
sI6
F10.68254
sI7
F11.98057
sI8
F10.55444
sI9
F10.75174
sI10
F11.05557
sI11
F11.21945
sI12
F10.9964
sI13
F10.88188
sI14
F10.28596
ssg80
(dp517
I0
F11.393
sI1
F11.393
sI2
F11.385
sI3
F11.32
sI4
F11.377
sI5
F11.381
sI6
F11.369
sI7
F11.396
sI8
F11.407
sI9
F11.388
sI10
F11.379
sI11
F11.404
sI12
F11.386
sI13
F11.394
sI14
F11.347
ssg82
(dp518
I0
F0.002
sI1
F0.002
sI2
F0.002
sI3
F0.002
sI4
F0.002
sI5
F0.002
sI6
F0.002
sI7
F0.002
sI8
F0.002
sI9
F0.002
sI10
F0.002
sI11
F0.002
sI12
F0.002
sI13
F0.002
sI14
F0.002
ssg84
(dp519
I0
F0.6899285335245638
sI1
Fnan
sI2
Fnan
sI3
Fnan
sI4
Fnan
sI5
Fnan
sI6
Fnan
sI7
Fnan
sI8
Fnan
sI9
Fnan
sI10
Fnan
sI11
Fnan
sI12
Fnan
sI13
Fnan
sI14
Fnan
ssg86
(dp520
I0
F11.381266666666669
sI1
Fnan
sI2
Fnan
sI3
Fnan
sI4
Fnan
sI5
Fnan
sI6
Fnan
sI7
Fnan
sI8
Fnan
sI9
Fnan
sI10
Fnan
sI11
Fnan
sI12
Fnan
sI13
Fnan
sI14
Fnan
ssg88
(dp521
I0
F11.23
sI1
F11.229
sI2
F11.223
sI3
F11.16
sI4
F11.214
sI5
F11.224
sI6
F11.205
sI7
F11.236
sI8
F11.24
sI9
F11.233
sI10
F11.221
sI11
F11.232
sI12
F11.224
sI13
F11.227
sI14
F11.185
ssg90
(dp522
I0
F5.196592
sI1
F5.230771
sI2
F-0.7850758
sI3
F3.233839
sI4
F4.821625
sI5
F3.496449
sI6
F-0.8835645
sI7
F4.478598
sI8
F3.203222
sI9
F3.233962
sI10
F1.102347
sI11
F2.092726
sI12
F5.270916
sI13
F4.400193
sI14
F-3.168191
ssg92
(dp523
I0
F0.020943688673156404
sI1
Fnan
sI2
Fnan
sI3
Fnan
sI4
Fnan
sI5
Fnan
sI6
Fnan
sI7
Fnan
sI8
Fnan
sI9
Fnan
sI10
Fnan
sI11
Fnan
sI12
Fnan
sI13
Fnan
sI14
Fnan
ssg94
(dp524
I0
F0.7156355468282385
sI1
F0.7187972366774831
sI2
F0.7238734669038076
sI3
F0.7196810258723458
sI4
F0.7178419584883703
sI5
F0.719280968425593
sI6
F0.7186829174470967
sI7
F0.7182974119988065
sI8
F0.7146319707495683
sI9
F0.7222252424725802
sI10
F0.720111322385362
sI11
F0.713928408904934
sI12
F0.7204805890083097
sI13
F0.714356034416828
sI14
F0.7202076586686609
ssg96
(dp525
I0
F30.0
sI1
F30.0
sI2
F30.0
sI3
F30.0
sI4
F30.0
sI5
F30.0
sI6
F30.0
sI7
F30.0
sI8
F30.0
sI9
F30.0
sI10
F30.0
sI11
F30.0
sI12
F30.0
sI13
F30.0
sI14
F30.0
ssg98
(dp526
I0
F0.002
sI1
F0.002
sI2
F0.002
sI3
F0.002
sI4
F0.002
sI5
F0.002
sI6
F0.002
sI7
F0.002
sI8
F0.002
sI9
F0.002
sI10
F0.002
sI11
F0.002
sI12
F0.002
sI13
F0.002
sI14
F0.002
ssg100
(dp527
I0
F0.002
sI1
F0.002
sI2
F0.002
sI3
F0.002
sI4
F0.002
sI5
F0.002
sI6
F0.002
sI7
F0.002
sI8
F0.002
sI9
F0.002
sI10
F0.002
sI11
F0.002
sI12
F0.002
sI13
F0.002
sI14
F0.002
ssg102
(dp528
I0
F2.394578
sI1
F-2.021086
sI2
F3.575887
sI3
F3.446266
sI4
F-2.676979
sI5
F-1.298484
sI6
F4.100369
sI7
F-3.516642
sI8
F2.385589
sI9
F-4.669918
sI10
F3.775562
sI11
F3.909666
sI12
F3.85203
sI13
F2.861199
sI14
F-2.963373
ssg104
(dp529
I0
S'KIC8462852-20180904at053553_-25-1X1-030-V_cal.fts.mag.1'
p530
sI1
S'KIC8462852-20180904at053700_-25-1X1-030-V_cal.fts.mag.1'
p531
sI2
S'KIC8462852-20180904at053805_-25-1X1-030-V_cal.fts.mag.1'
p532
sI3
S'KIC8462852-20180904at050709_-25-1X1-030-V_cal.fts.mag.1'
p533
sI4
S'KIC8462852-20180904at060334_-25-1X1-030-V_cal.fts.mag.1'
p534
sI5
S'KIC8462852-20180904at060222_-25-1X1-030-V_cal.fts.mag.1'
p535
sI6
S'KIC8462852-20180904at050821_-25-1X1-030-V_cal.fts.mag.1'
p536
sI7
S'KIC8462852-20180904at060650_-25-1X1-030-V_cal.fts.mag.1'
p537
sI8
S'KIC8462852-20180904at053910_-25-1X1-030-V_cal.fts.mag.1'
p538
sI9
S'KIC8462852-20180904at050926_-25-1X1-030-V_cal.fts.mag.1'
p539
sI10
S'KIC8462852-20180904at051134_-25-1X1-030-V_cal.fts.mag.1'
p540
sI11
S'KIC8462852-20180904at051030_-25-1X1-030-V_cal.fts.mag.1'
p541
sI12
S'KIC8462852-20180904at060544_-25-1X1-030-V_cal.fts.mag.1'
p542
sI13
S'KIC8462852-20180904at060440_-25-1X1-030-V_cal.fts.mag.1'
p543
sI14
S'KIC8462852-20180904at053416_-25-1X1-030-V_cal.fts.mag.1'
p544
ssg121
(dp545
I0
F0.006979627221038588
sI1
Fnan
sI2
Fnan
sI3
Fnan
sI4
Fnan
sI5
Fnan
sI6
Fnan
sI7
Fnan
sI8
Fnan
sI9
Fnan
sI10
Fnan
sI11
Fnan
sI12
Fnan
sI13
Fnan
sI14
Fnan
ssg123
(dp546
I0
F6108.34
sI1
F6062.716666666666
sI2
F6088.759999999999
sI3
F6451.73
sI4
F6163.253333333333
sI5
F6145.78
sI6
F6188.296666666666
sI7
F6036.166666666667
sI8
F6013.8966666666665
sI9
F6087.303333333333
sI10
F6102.77
sI11
F6022.36
sI12
F6085.783333333334
sI13
F6066.2266666666665
sI14
F6267.17
ssg125
(dp547
I0
F0.02238770921308223
sI1
Fnan
sI2
Fnan
sI3
Fnan
sI4
Fnan
sI5
Fnan
sI6
Fnan
sI7
Fnan
sI8
Fnan
sI9
Fnan
sI10
Fnan
sI11
Fnan
sI12
Fnan
sI13
Fnan
sI14
Fnan
ssg127
(dp548
I0
g469
sI1
g469
sI2
g469
sI3
g469
sI4
g469
sI5
g469
sI6
g469
sI7
g469
sI8
g469
sI9
g469
sI10
g469
sI11
g469
sI12
g469
sI13
g469
sI14
g469
ssg144
(dp549
I0
F0.0023483917474816833
sI1
Fnan
sI2
Fnan
sI3
Fnan
sI4
Fnan
sI5
Fnan
sI6
Fnan
sI7
Fnan
sI8
Fnan
sI9
Fnan
sI10
Fnan
sI11
Fnan
sI12
Fnan
sI13
Fnan
sI14
Fnan
ssg146
(dp550
I0
F2.135075
sI1
F1.865147
sI2
F3.856196
sI3
F-2.15446
sI4
F-3.068154
sI5
F3.443564
sI6
F2.911285
sI7
F3.673015
sI8
F4.35269
sI9
F3.778395
sI10
F1.898346
sI11
F-2.453134
sI12
F-3.595672
sI13
F3.308461
sI14
F3.920167
ssg148
(dp551
I0
F1.5011361357178616
sI1
Fnan
sI2
Fnan
sI3
Fnan
sI4
Fnan
sI5
Fnan
sI6
Fnan
sI7
Fnan
sI8
Fnan
sI9
Fnan
sI10
Fnan
sI11
Fnan
sI12
Fnan
sI13
Fnan
sI14
Fnan
ssg150
(dp552
I0
F2458365.734027778
sI1
Fnan
sI2
Fnan
sI3
Fnan
sI4
Fnan
sI5
Fnan
sI6
Fnan
sI7
Fnan
sI8
Fnan
sI9
Fnan
sI10
Fnan
sI11
Fnan
sI12
Fnan
sI13
Fnan
sI14
Fnan
ssg152
(dp553
I0
F0.0023483917474816833
sI1
Fnan
sI2
Fnan
sI3
Fnan
sI4
Fnan
sI5
Fnan
sI6
Fnan
sI7
Fnan
sI8
Fnan
sI9
Fnan
sI10
Fnan
sI11
Fnan
sI12
Fnan
sI13
Fnan
sI14
Fnan
ssg154
(dp554
I0
F12.25996
sI1
F12.39504
sI2
F12.54702
sI3
F12.79984
sI4
F12.97259
sI5
F12.81472
sI6
F13.43845
sI7
F13.52641
sI8
F13.03224
sI9
F12.0023
sI10
F12.00313
sI11
F13.03173
sI12
F13.19353
sI13
F13.81171
sI14
F12.86728
ssg156
(dp555
I0
F10.861
sI1
F10.869
sI2
F10.874
sI3
F10.797
sI4
F10.85
sI5
F10.855
sI6
F10.845
sI7
F10.868
sI8
F10.874
sI9
F10.867
sI10
F10.854
sI11
F10.874
sI12
F10.865
sI13
F10.861
sI14
F10.825
ssg158
(dp556
I0
F0.6899285335245638
sI1
Fnan
sI2
Fnan
sI3
Fnan
sI4
Fnan
sI5
Fnan
sI6
Fnan
sI7
Fnan
sI8
Fnan
sI9
Fnan
sI10
Fnan
sI11
Fnan
sI12
Fnan
sI13
Fnan
sI14
Fnan
sss.