(dp0
S'V'
p1
(dp2
S'sigmean'
p3
(dp4
I0
F0.6984463618200156
sI1
Fnan
sI2
Fnan
sI3
Fnan
sI4
Fnan
sI5
Fnan
sI6
Fnan
sI7
Fnan
sI8
Fnan
sI9
Fnan
sI10
Fnan
sI11
Fnan
sI12
Fnan
sI13
Fnan
ssS'ref3flag'
p5
(dp6
I0
S'NoError'
p7
sI1
S'NoError'
p8
sI2
S'NoError'
p9
sI3
S'NoError'
p10
sI4
S'NoError'
p11
sI5
S'NoError'
p12
sI6
S'NoError'
p13
sI7
S'NoError'
p14
sI8
S'NoError'
p15
sI9
S'NoError'
p16
sI10
S'NoError'
p17
sI11
S'NoError'
p18
sI12
S'NoError'
p19
sI13
S'NoError'
p20
ssS'tabbyerr'
p21
(dp22
I0
F0.002
sI1
F0.002
sI2
F0.002
sI3
F0.002
sI4
F0.002
sI5
F0.002
sI6
F0.002
sI7
F0.002
sI8
F0.002
sI9
F0.002
sI10
F0.002
sI11
F0.002
sI12
F0.002
sI13
F0.002
ssS'ref2rel'
p23
(dp24
I0
F0.88985631899241
sI1
F0.8859323651347722
sI2
F0.8847514815773575
sI3
F0.8868737339635382
sI4
F0.8880933594972443
sI5
F0.8885939159124401
sI6
F0.8853473999937291
sI7
F0.8884113513785427
sI8
F0.8860819282292062
sI9
F0.8858731711994018
sI10
F0.8851979720823067
sI11
F0.8857008674964787
sI12
F0.8836423268793386
sI13
F0.8847097497311228
ssS'ref2err'
p25
(dp26
I0
F0.0017692850506701913
sI1
Fnan
sI2
Fnan
sI3
Fnan
sI4
Fnan
sI5
Fnan
sI6
Fnan
sI7
Fnan
sI8
Fnan
sI9
Fnan
sI10
Fnan
sI11
Fnan
sI12
Fnan
sI13
Fnan
ssS'ref2mean'
p27
(dp28
I0
F0.886361853004849
sI1
Fnan
sI2
Fnan
sI3
Fnan
sI4
Fnan
sI5
Fnan
sI6
Fnan
sI7
Fnan
sI8
Fnan
sI9
Fnan
sI10
Fnan
sI11
Fnan
sI12
Fnan
sI13
Fnan
ssS'tabbymag'
p29
(dp30
I0
F11.374
sI1
F11.381
sI2
F11.367
sI3
F11.375
sI4
F11.374
sI5
F11.374
sI6
F11.386
sI7
F11.376
sI8
F11.383
sI9
F11.366
sI10
F11.363
sI11
F11.373
sI12
F11.372
sI13
F11.369
ssS'tabbybkg'
p31
(dp32
I0
F68.29115
sI1
F70.536
sI2
F68.24832
sI3
F68.3643
sI4
F68.3801
sI5
F67.42903
sI6
F66.86681
sI7
F69.24348
sI8
F68.69066
sI9
F67.07786
sI10
F65.84772
sI11
F68.20982
sI12
F65.94299
sI13
F68.11142
ssS'JD'
p33
(dp34
I0
F2458299.8041782407
sI1
F2458299.805046296
sI2
F2458299.8229050925
sI3
F2458299.8068171297
sI4
F2458299.8059375
sI5
F2458299.8398842593
sI6
F2458299.840763889
sI7
F2458299.8211458335
sI8
F2458299.803310185
sI9
F2458299.8425347223
sI10
F2458299.8390046298
sI11
F2458299.824664352
sI12
F2458299.8416435183
sI13
F2458299.823784722
ssS'ref3rmsmean'
p35
(dp36
I0
F1.6429553714285714
sI1
Fnan
sI2
Fnan
sI3
Fnan
sI4
Fnan
sI5
Fnan
sI6
Fnan
sI7
Fnan
sI8
Fnan
sI9
Fnan
sI10
Fnan
sI11
Fnan
sI12
Fnan
sI13
Fnan
ssS'ref1rmsmean'
p37
(dp38
I0
F2.5745499285714284
sI1
Fnan
sI2
Fnan
sI3
Fnan
sI4
Fnan
sI5
Fnan
sI6
Fnan
sI7
Fnan
sI8
Fnan
sI9
Fnan
sI10
Fnan
sI11
Fnan
sI12
Fnan
sI13
Fnan
ssS'relflux'
p39
(dp40
I0
F0.699465780972172
sI1
F0.6947886253439148
sI2
F0.6976856811675016
sI3
F0.6988318216051606
sI4
F0.6988826207029684
sI5
F0.6968019353746513
sI6
F0.6969869700001017
sI7
F0.6971324021340386
sI8
F0.6987114776039836
sI9
F0.69898655338929
sI10
F0.700184411378493
sI11
F0.6964109784096476
sI12
F0.7005078848102188
sI13
F0.6992141861119778
ssS'sigerr'
p41
(dp42
I0
F0.0012674119840246764
sI1
Fnan
sI2
Fnan
sI3
Fnan
sI4
Fnan
sI5
Fnan
sI6
Fnan
sI7
Fnan
sI8
Fnan
sI9
Fnan
sI10
Fnan
sI11
Fnan
sI12
Fnan
sI13
Fnan
ssS'tabbyrmsmean'
p43
(dp44
I0
F2.2731365714285716
sI1
Fnan
sI2
Fnan
sI3
Fnan
sI4
Fnan
sI5
Fnan
sI6
Fnan
sI7
Fnan
sI8
Fnan
sI9
Fnan
sI10
Fnan
sI11
Fnan
sI12
Fnan
sI13
Fnan
ssS'tabbyflag'
p45
(dp46
I0
g7
sI1
g8
sI2
g9
sI3
g10
sI4
g11
sI5
g12
sI6
g13
sI7
g14
sI8
g15
sI9
g16
sI10
g17
sI11
g18
sI12
g19
sI13
g20
ssS'ref1err'
p47
(dp48
I0
F0.001403970779516768
sI1
Fnan
sI2
Fnan
sI3
Fnan
sI4
Fnan
sI5
Fnan
sI6
Fnan
sI7
Fnan
sI8
Fnan
sI9
Fnan
sI10
Fnan
sI11
Fnan
sI12
Fnan
sI13
Fnan
ssS'ref2magmeanerr'
p49
(dp50
I0
F0.005590907060418652
sI1
Fnan
sI2
Fnan
sI3
Fnan
sI4
Fnan
sI5
Fnan
sI6
Fnan
sI7
Fnan
sI8
Fnan
sI9
Fnan
sI10
Fnan
sI11
Fnan
sI12
Fnan
sI13
Fnan
ssS'ref2rmsmean'
p51
(dp52
I0
F0.1880534999999999
sI1
Fnan
sI2
Fnan
sI3
Fnan
sI4
Fnan
sI5
Fnan
sI6
Fnan
sI7
Fnan
sI8
Fnan
sI9
Fnan
sI10
Fnan
sI11
Fnan
sI12
Fnan
sI13
Fnan
ssS'ref3rel'
p53
(dp54
I0
F1.4947485411053183
sI1
F1.4969096241199944
sI2
F1.496329544067004
sI3
F1.499482104236258
sI4
F1.4935168944397288
sI5
F1.4943013763457822
sI6
F1.496952601141773
sI7
F1.4939339113014791
sI8
F1.4998064771324024
sI9
F1.50174069328249
sI10
F1.501168526238391
sI11
F1.5010624577420724
sI12
F1.500070255579304
sI13
F1.4970705817830687
ssS'ref1flag'
p55
(dp56
I0
g7
sI1
g8
sI2
g9
sI3
g10
sI4
g11
sI5
g12
sI6
g13
sI7
g14
sI8
g15
sI9
g16
sI10
g17
sI11
g18
sI12
g19
sI13
g20
ssS'ref2bkg'
p57
(dp58
I0
F69.32709
sI1
F69.76795
sI2
F68.203
sI3
F69.76643
sI4
F70.0387
sI5
F67.54055
sI6
F68.43448
sI7
F69.33187
sI8
F68.98647
sI9
F67.11192
sI10
F67.51935
sI11
F68.9037
sI12
F67.56944
sI13
F68.71215
ssS'ref3magmean'
p59
(dp60
I0
F10.711928571428572
sI1
Fnan
sI2
Fnan
sI3
Fnan
sI4
Fnan
sI5
Fnan
sI6
Fnan
sI7
Fnan
sI8
Fnan
sI9
Fnan
sI10
Fnan
sI11
Fnan
sI12
Fnan
sI13
Fnan
ssS'ref1mean'
p61
(dp62
I0
F0.7200787736977585
sI1
Fnan
sI2
Fnan
sI3
Fnan
sI4
Fnan
sI5
Fnan
sI6
Fnan
sI7
Fnan
sI8
Fnan
sI9
Fnan
sI10
Fnan
sI11
Fnan
sI12
Fnan
sI13
Fnan
ssS'ref1rms'
p63
(dp64
I0
F4.908782
sI1
F1.942798
sI2
F3.619973
sI3
F3.695976
sI4
F-2.531821
sI5
F5.09129
sI6
F-3.947931
sI7
F-4.026288
sI8
F3.367627
sI9
F4.543187
sI10
F3.350089
sI11
F5.120738
sI12
F6.337694
sI13
F4.571585
ssS'ref2magmean'
p65
(dp66
I0
F11.072785714285715
sI1
Fnan
sI2
Fnan
sI3
Fnan
sI4
Fnan
sI5
Fnan
sI6
Fnan
sI7
Fnan
sI8
Fnan
sI9
Fnan
sI10
Fnan
sI11
Fnan
sI12
Fnan
sI13
Fnan
ssS'ref2flag'
p67
(dp68
I0
g7
sI1
g8
sI2
g9
sI3
g10
sI4
g11
sI5
g12
sI6
g13
sI7
g14
sI8
g15
sI9
g16
sI10
g17
sI11
g18
sI12
g19
sI13
g20
ssS'ref2'
p69
(dp70
I0
F9361.895555555555
sI1
F9336.237777777778
sI2
F9406.566666666668
sI3
F9340.16
sI4
F9352.3
sI5
F9388.457777777778
sI6
F9255.357777777777
sI7
F9360.344444444445
sI8
F9263.173333333332
sI9
F9403.90888888889
sI10
F9406.604444444445
sI11
F9375.137777777778
sI12
F9312.384444444444
sI13
F9369.38
ssS'airmass'
p71
(dp72
I0
F1.073867
sI1
F1.072209
sI2
F1.043547
sI3
F1.068984
sI4
F1.070602
sI5
F1.023968
sI6
F1.023151
sI7
F1.045995
sI8
F1.07552
sI9
F1.021559
sI10
F1.024812
sI11
F1.041183
sI12
F1.0223389999999999
sI13
F1.042354
ssS'ref1'
p73
(dp74
I0
F8037.5022222222215
sI1
F8057.906666666667
sI2
F8137.726666666667
sI3
F8035.708888888889
sI4
F8059.28
sI5
F8079.697777777778
sI6
F7995.7844444444445
sI7
F8059.813333333333
sI8
F7978.544444444445
sI9
F8092.951111111111
sI10
F8107.384444444444
sI11
F8073.922222222222
sI12
F8052.7844444444445
sI13
F8102.424444444444
ssS'ref3'
p75
(dp76
I0
F13003.862222222224
sI1
F13018.731111111112
sI2
F13126.022222222222
sI3
F13027.402222222221
sI4
F13002.244444444445
sI5
F13051.344444444445
sI6
F12912.07111111111
sI7
F13012.28222222222
sI8
F12929.62
sI9
F13137.873333333335
sI10
F13145.724444444444
sI11
F13096.064444444444
sI12
F13024.486666666668
sI13
F13078.262222222223
ssS'ref1bkg'
p77
(dp78
I0
F70.24506
sI1
F69.48065
sI2
F67.5976
sI3
F69.46371
sI4
F69.14946
sI5
F67.26793
sI6
F68.95061
sI7
F69.44253
sI8
F69.68352
sI9
F66.8126
sI10
F66.67504
sI11
F69.28783
sI12
F66.0909
sI13
F68.75308
ssS'ref1mag'
p79
(dp80
I0
F11.237
sI1
F11.234
sI2
F11.224
sI3
F11.237
sI4
F11.234
sI5
F11.232
sI6
F11.243
sI7
F11.234
sI8
F11.245
sI9
F11.23
sI10
F11.228
sI11
F11.232
sI12
F11.235
sI13
F11.228
ssS'ref3magerr'
p81
(dp82
I0
F0.001
sI1
F0.001
sI2
F0.001
sI3
F0.001
sI4
F0.001
sI5
F0.001
sI6
F0.001
sI7
F0.001
sI8
F0.001
sI9
F0.001
sI10
F0.001
sI11
F0.001
sI12
F0.001
sI13
F0.001
ssS'tabbymagmean'
p83
(dp84
I0
F0.6981850949288658
sI1
Fnan
sI2
Fnan
sI3
Fnan
sI4
Fnan
sI5
Fnan
sI6
Fnan
sI7
Fnan
sI8
Fnan
sI9
Fnan
sI10
Fnan
sI11
Fnan
sI12
Fnan
sI13
Fnan
ssS'ref1magmean'
p85
(dp86
I0
F11.233785714285716
sI1
Fnan
sI2
Fnan
sI3
Fnan
sI4
Fnan
sI5
Fnan
sI6
Fnan
sI7
Fnan
sI8
Fnan
sI9
Fnan
sI10
Fnan
sI11
Fnan
sI12
Fnan
sI13
Fnan
ssS'ref2mag'
p87
(dp88
I0
F11.072
sI1
F11.075
sI2
F11.066
sI3
F11.074
sI4
F11.073
sI5
F11.069
sI6
F11.084
sI7
F11.072
sI8
F11.083
sI9
F11.067
sI10
F11.066
sI11
F11.07
sI12
F11.077
sI13
F11.071
ssS'ref3rms'
p89
(dp90
I0
F3.823173
sI1
F3.83502
sI2
F0.8764012
sI3
F5.49965
sI4
F5.634915
sI5
F5.013562
sI6
F2.336333
sI7
F-3.838539
sI8
F3.254211
sI9
F5.422206
sI10
F-5.24669
sI11
F4.769439
sI12
F-3.341131
sI13
F-5.037175
ssS'ref3magmeanerr'
p91
(dp92
I0
F0.005941565265331906
sI1
Fnan
sI2
Fnan
sI3
Fnan
sI4
Fnan
sI5
Fnan
sI6
Fnan
sI7
Fnan
sI8
Fnan
sI9
Fnan
sI10
Fnan
sI11
Fnan
sI12
Fnan
sI13
Fnan
ssS'ref1rel'
p93
(dp94
I0
F0.7187328327599204
sI1
F0.7209052006931393
sI2
F0.7223072951621183
sI3
F0.7185144996181474
sI4
F0.7210417568587844
sI5
F0.7201220133550396
sI6
F0.7213993543881149
sI7
F0.7205066667779138
sI8
F0.7190211997748618
sI9
F0.718040040608048
sI10
F0.7189842330154027
sI11
F0.7186017145302318
sI12
F0.7210306586260167
sI13
F0.7218953656008811
ssS'exposure'
p95
(dp96
I0
F45.0
sI1
F45.0
sI2
F45.0
sI3
F45.0
sI4
F45.0
sI5
F45.0
sI6
F45.0
sI7
F45.0
sI8
F45.0
sI9
F45.0
sI10
F45.0
sI11
F45.0
sI12
F45.0
sI13
F45.0
ssS'ref1magerr'
p97
(dp98
I0
F0.002
sI1
F0.002
sI2
F0.002
sI3
F0.002
sI4
F0.002
sI5
F0.002
sI6
F0.002
sI7
F0.002
sI8
F0.002
sI9
F0.002
sI10
F0.002
sI11
F0.002
sI12
F0.002
sI13
F0.002
ssS'ref2magerr'
p99
(dp100
I0
F0.002
sI1
F0.002
sI2
F0.002
sI3
F0.002
sI4
F0.002
sI5
F0.002
sI6
F0.002
sI7
F0.002
sI8
F0.002
sI9
F0.002
sI10
F0.002
sI11
F0.002
sI12
F0.002
sI13
F0.002
ssS'ref2rms'
p101
(dp102
I0
F4.079128
sI1
F4.046065
sI2
F4.96129
sI3
F0.530913
sI4
F-2.842889
sI5
F-3.604615
sI6
F-2.599963
sI7
F-4.507599
sI8
F3.576285
sI9
F-3.844085
sI10
F-2.248575
sI11
F3.775817
sI12
F-1.66004
sI13
F2.971017
ssS'name'
p103
(dp104
I0
S'KIC8462852-20180630at071801_-25-1-045-V_cal.fts.mag.1'
p105
sI1
S'KIC8462852-20180630at071916_-25-1-045-V_cal.fts.mag.1'
p106
sI2
S'KIC8462852-20180630at074459_-25-1-045-V_cal.fts.mag.1'
p107
sI3
S'KIC8462852-20180630at072149_-25-1-045-V_cal.fts.mag.1'
p108
sI4
S'KIC8462852-20180630at072033_-25-1-045-V_cal.fts.mag.1'
p109
sI5
S'KIC8462852-20180630at080926_-25-1-045-V_cal.fts.mag.1'
p110
sI6
S'KIC8462852-20180630at081042_-25-1-045-V_cal.fts.mag.1'
p111
sI7
S'KIC8462852-20180630at074226_-25-1-045-V_cal.fts.mag.1'
p112
sI8
S'KIC8462852-20180630at071644_-25-1-045-V_cal.fts.mag.1'
p113
sI9
S'KIC8462852-20180630at081315_-25-1-045-V_cal.fts.mag.1'
p114
sI10
S'KIC8462852-20180630at080809_-25-1-045-V_cal.fts.mag.1'
p115
sI11
S'KIC8462852-20180630at074731_-25-1-045-V_cal.fts.mag.1'
p116
sI12
S'KIC8462852-20180630at081158_-25-1-045-V_cal.fts.mag.1'
p117
sI13
S'KIC8462852-20180630at074615_-25-1-045-V_cal.fts.mag.1'
p118
ssS'ref3err'
p119
(dp120
I0
F0.0028857844125735345
sI1
Fnan
sI2
Fnan
sI3
Fnan
sI4
Fnan
sI5
Fnan
sI6
Fnan
sI7
Fnan
sI8
Fnan
sI9
Fnan
sI10
Fnan
sI11
Fnan
sI12
Fnan
sI13
Fnan
ssS'tabby'
p121
(dp122
I0
F7088.679999999999
sI1
F7043.506666666666
sI2
F7132.746666666666
sI3
F7082.257777777777
sI4
F7085.231111111111
sI5
F7088.682222222223
sI6
F7007.788888888889
sI7
F7071.813333333333
sI8
F7027.02
sI9
F7137.7555555555555
sI10
F7155.817777777777
sI11
F7090.653333333334
sI12
F7096.064444444445
sI13
F7120.346666666666
ssS'ref1magmeanerr'
p123
(dp124
I0
F0.005659281979851498
sI1
Fnan
sI2
Fnan
sI3
Fnan
sI4
Fnan
sI5
Fnan
sI6
Fnan
sI7
Fnan
sI8
Fnan
sI9
Fnan
sI10
Fnan
sI11
Fnan
sI12
Fnan
sI13
Fnan
ssS'filter'
p125
(dp126
I0
g1
sI1
g1
sI2
g1
sI3
g1
sI4
g1
sI5
g1
sI6
g1
sI7
g1
sI8
g1
sI9
g1
sI10
g1
sI11
g1
sI12
g1
sI13
g1
ssS'tabbymagerr'
p127
(dp128
I0
F0.0016006181852666972
sI1
Fnan
sI2
Fnan
sI3
Fnan
sI4
Fnan
sI5
Fnan
sI6
Fnan
sI7
Fnan
sI8
Fnan
sI9
Fnan
sI10
Fnan
sI11
Fnan
sI12
Fnan
sI13
Fnan
ssS'tabbyrms'
p129
(dp130
I0
F1.02959
sI1
F-3.615834
sI2
F2.470356
sI3
F5.389463
sI4
F3.222716
sI5
F2.89797
sI6
F5.189637
sI7
F-2.961988
sI8
F4.215959
sI9
F-3.432507
sI10
F4.340052
sI11
F3.783936
sI12
F4.077366
sI13
F5.217196
ssS'ref3mean'
p131
(dp132
I0
F1.4976495420367901
sI1
Fnan
sI2
Fnan
sI3
Fnan
sI4
Fnan
sI5
Fnan
sI6
Fnan
sI7
Fnan
sI8
Fnan
sI9
Fnan
sI10
Fnan
sI11
Fnan
sI12
Fnan
sI13
Fnan
ssS'median_JD'
p133
(dp134
I0
F2458299.8233449073
sI1
Fnan
sI2
Fnan
sI3
Fnan
sI4
Fnan
sI5
Fnan
sI6
Fnan
sI7
Fnan
sI8
Fnan
sI9
Fnan
sI10
Fnan
sI11
Fnan
sI12
Fnan
sI13
Fnan
ssS'error'
p135
(dp136
I0
F0.0016006181852666972
sI1
Fnan
sI2
Fnan
sI3
Fnan
sI4
Fnan
sI5
Fnan
sI6
Fnan
sI7
Fnan
sI8
Fnan
sI9
Fnan
sI10
Fnan
sI11
Fnan
sI12
Fnan
sI13
Fnan
ssS'ref3bkg'
p137
(dp138
I0
F72.23473
sI1
F70.68773
sI2
F70.90276
sI3
F69.83335
sI4
F71.10951
sI5
F69.07032
sI6
F69.44271
sI7
F71.48503
sI8
F71.43346
sI9
F68.09356
sI10
F68.74207
sI11
F71.44389
sI12
F69.58636
sI13
F71.6763
ssS'ref3mag'
p139
(dp140
I0
F10.715
sI1
F10.714
sI2
F10.705
sI3
F10.713
sI4
F10.715
sI5
F10.711
sI6
F10.723
sI7
F10.714
sI8
F10.721
sI9
F10.704
sI10
F10.703
sI11
F10.707
sI12
F10.713
sI13
F10.709
ssS'mean'
p141
(dp142
I0
F0.6981850949288658
sI1
Fnan
sI2
Fnan
sI3
Fnan
sI4
Fnan
sI5
Fnan
sI6
Fnan
sI7
Fnan
sI8
Fnan
sI9
Fnan
sI10
Fnan
sI11
Fnan
sI12
Fnan
sI13
Fnan
sss.