(dp0
S'i'
p1
(dp2
S'sigmean'
p3
(dp4
I0
F0.44022988617724396
sI1
Fnan
sI2
Fnan
sI3
Fnan
sI4
Fnan
sI5
Fnan
sI6
Fnan
sI7
Fnan
sI8
Fnan
sI9
Fnan
sI10
Fnan
sI11
Fnan
sI12
Fnan
sI13
Fnan
sI14
Fnan
ssS'ref3flag'
p5
(dp6
I0
S'NoError'
p7
sI1
S'NoError'
p8
sI2
S'NoError'
p9
sI3
S'NoError'
p10
sI4
S'NoError'
p11
sI5
S'NoError'
p12
sI6
S'NoError'
p13
sI7
S'NoError'
p14
sI8
S'NoError'
p15
sI9
S'NoError'
p16
sI10
S'NoError'
p17
sI11
S'NoError'
p18
sI12
S'NoError'
p19
sI13
S'NoError'
p20
sI14
S'NoError'
p21
ssS'tabbyerr'
p22
(dp23
I0
F0.003
sI1
F0.003
sI2
F0.003
sI3
F0.003
sI4
F0.003
sI5
F0.003
sI6
F0.003
sI7
F0.003
sI8
F0.003
sI9
F0.003
sI10
F0.003
sI11
F0.003
sI12
F0.003
sI13
F0.003
sI14
F0.003
ssS'ref2rel'
p24
(dp25
I0
F0.9122059705117219
sI1
F0.9082801691834573
sI2
F0.9119703149038946
sI3
F0.9097736614691843
sI4
F0.9113163220664825
sI5
F0.9145085423697593
sI6
F0.9099775257739867
sI7
F0.9073322233066231
sI8
F0.9072735406168355
sI9
F0.9146578025132392
sI10
F0.9089654928759802
sI11
F0.9157097626534081
sI12
F0.9160472371905392
sI13
F0.9148372482590246
sI14
F0.9103458465116177
ssS'ref2err'
p26
(dp27
I0
F0.003022946113385819
sI1
Fnan
sI2
Fnan
sI3
Fnan
sI4
Fnan
sI5
Fnan
sI6
Fnan
sI7
Fnan
sI8
Fnan
sI9
Fnan
sI10
Fnan
sI11
Fnan
sI12
Fnan
sI13
Fnan
sI14
Fnan
ssS'ref2mean'
p28
(dp29
I0
F0.9115467773470504
sI1
Fnan
sI2
Fnan
sI3
Fnan
sI4
Fnan
sI5
Fnan
sI6
Fnan
sI7
Fnan
sI8
Fnan
sI9
Fnan
sI10
Fnan
sI11
Fnan
sI12
Fnan
sI13
Fnan
sI14
Fnan
ssS'tabbymag'
p30
(dp31
I0
F11.972
sI1
F11.961
sI2
F11.979
sI3
F11.923
sI4
F11.937
sI5
F11.906
sI6
F11.927
sI7
F11.985
sI8
F11.942
sI9
F11.911
sI10
F11.961
sI11
F11.913
sI12
F11.903
sI13
F11.906
sI14
F11.959
ssS'tabbybkg'
p32
(dp33
I0
F5.873962
sI1
F2.264761
sI2
F6.252778
sI3
F1.017201
sI4
F2.130114
sI5
F3.212501
sI6
F1.27143
sI7
F2.397468
sI8
F5.921651
sI9
F3.010036
sI10
F6.301013
sI11
F2.63546
sI12
F1.594332
sI13
F3.161024
sI14
F6.013221
ssS'JD'
p34
(dp35
I0
F2458431.572210648
sI1
F2458431.611689815
sI2
F2458431.572951389
sI3
F2458431.6124421298
sI4
F2458431.6109375
sI5
F2458431.59412037
sI6
F2458431.6101967595
sI7
F2458431.613194444
sI8
F2458431.5751967593
sI9
F2458431.5911342595
sI10
F2458431.573703704
sI11
F2458431.591886574
sI12
F2458431.59337963
sI13
F2458431.592627315
sI14
F2458431.5744560184
ssS'ref3rmsmean'
p36
(dp37
I0
F2.247721733333334
sI1
Fnan
sI2
Fnan
sI3
Fnan
sI4
Fnan
sI5
Fnan
sI6
Fnan
sI7
Fnan
sI8
Fnan
sI9
Fnan
sI10
Fnan
sI11
Fnan
sI12
Fnan
sI13
Fnan
sI14
Fnan
ssS'ref1rmsmean'
p38
(dp39
I0
F0.5477097333333333
sI1
Fnan
sI2
Fnan
sI3
Fnan
sI4
Fnan
sI5
Fnan
sI6
Fnan
sI7
Fnan
sI8
Fnan
sI9
Fnan
sI10
Fnan
sI11
Fnan
sI12
Fnan
sI13
Fnan
sI14
Fnan
ssS'relflux'
p40
(dp41
I0
F0.439251635246853
sI1
F0.4401122324722066
sI2
F0.4403939315322684
sI3
F0.44125103364296225
sI4
F0.4408223605166656
sI5
F0.44076619031356423
sI6
F0.43918799814877935
sI7
F0.439483860419907
sI8
F0.43894836955165323
sI9
F0.4418574905943093
sI10
F0.4377398225392801
sI11
F0.4405201658884618
sI12
F0.44016336579929705
sI13
F0.44220254346034793
sI14
F0.4380919412480975
ssS'sigerr'
p42
(dp43
I0
F0.0008515315436458273
sI1
Fnan
sI2
Fnan
sI3
Fnan
sI4
Fnan
sI5
Fnan
sI6
Fnan
sI7
Fnan
sI8
Fnan
sI9
Fnan
sI10
Fnan
sI11
Fnan
sI12
Fnan
sI13
Fnan
sI14
Fnan
ssS'tabbyrmsmean'
p44
(dp45
I0
F1.7859282
sI1
Fnan
sI2
Fnan
sI3
Fnan
sI4
Fnan
sI5
Fnan
sI6
Fnan
sI7
Fnan
sI8
Fnan
sI9
Fnan
sI10
Fnan
sI11
Fnan
sI12
Fnan
sI13
Fnan
sI14
Fnan
ssS'tabbyflag'
p46
(dp47
I0
g7
sI1
g8
sI2
g9
sI3
g10
sI4
g11
sI5
g12
sI6
g13
sI7
g14
sI8
g15
sI9
g16
sI10
g17
sI11
g18
sI12
g19
sI13
g20
sI14
g21
ssS'ref1err'
p48
(dp49
I0
F0.0023345555559652624
sI1
Fnan
sI2
Fnan
sI3
Fnan
sI4
Fnan
sI5
Fnan
sI6
Fnan
sI7
Fnan
sI8
Fnan
sI9
Fnan
sI10
Fnan
sI11
Fnan
sI12
Fnan
sI13
Fnan
sI14
Fnan
ssS'ref2magmeanerr'
p50
(dp51
I0
F0.028385610036475585
sI1
Fnan
sI2
Fnan
sI3
Fnan
sI4
Fnan
sI5
Fnan
sI6
Fnan
sI7
Fnan
sI8
Fnan
sI9
Fnan
sI10
Fnan
sI11
Fnan
sI12
Fnan
sI13
Fnan
sI14
Fnan
ssS'ref2rmsmean'
p52
(dp53
I0
F1.5142236000000002
sI1
Fnan
sI2
Fnan
sI3
Fnan
sI4
Fnan
sI5
Fnan
sI6
Fnan
sI7
Fnan
sI8
Fnan
sI9
Fnan
sI10
Fnan
sI11
Fnan
sI12
Fnan
sI13
Fnan
sI14
Fnan
ssS'ref3rel'
p54
(dp55
I0
F1.5005993157846311
sI1
F1.500500999510613
sI2
F1.5005900823541005
sI3
F1.4966969832808479
sI4
F1.5043199553502238
sI5
F1.4950284526540853
sI6
F1.505975893902794
sI7
F1.510640754706088
sI8
F1.5076214524887623
sI9
F1.4889158337334436
sI10
F1.5010264778866567
sI11
F1.4916083283214934
sI12
F1.4863951847394001
sI13
F1.4906793391111282
sI14
F1.5015985957433469
ssS'ref1flag'
p56
(dp57
I0
g7
sI1
g8
sI2
g9
sI3
g10
sI4
g11
sI5
g12
sI6
g13
sI7
g14
sI8
g15
sI9
g16
sI10
g17
sI11
g18
sI12
g19
sI13
g20
sI14
g21
ssS'ref2bkg'
p58
(dp59
I0
F7.652669
sI1
F3.325272
sI2
F7.922226
sI3
F1.98943
sI4
F2.211122
sI5
F3.855736
sI6
F3.065939
sI7
F2.485457
sI8
F7.528546
sI9
F4.067389
sI10
F8.158571
sI11
F3.363819
sI12
F2.875342
sI13
F2.893868
sI14
F7.283751
ssS'ref3magmean'
p60
(dp61
I0
F10.775466666666667
sI1
Fnan
sI2
Fnan
sI3
Fnan
sI4
Fnan
sI5
Fnan
sI6
Fnan
sI7
Fnan
sI8
Fnan
sI9
Fnan
sI10
Fnan
sI11
Fnan
sI12
Fnan
sI13
Fnan
sI14
Fnan
ssS'ref1mean'
p62
(dp63
I0
F0.6974023926725386
sI1
Fnan
sI2
Fnan
sI3
Fnan
sI4
Fnan
sI5
Fnan
sI6
Fnan
sI7
Fnan
sI8
Fnan
sI9
Fnan
sI10
Fnan
sI11
Fnan
sI12
Fnan
sI13
Fnan
sI14
Fnan
ssS'ref1rms'
p64
(dp65
I0
F3.183128
sI1
F4.477956
sI2
F1.54766
sI3
F-1.130231
sI4
F-2.020693
sI5
F4.237911
sI6
F-3.347693
sI7
F3.829163
sI8
F3.799721
sI9
F1.48828
sI10
F-3.483953
sI11
F-1.893698
sI12
F1.986564
sI13
F-3.302422
sI14
F-1.156047
ssS'ref2magmean'
p66
(dp67
I0
F11.115800000000002
sI1
Fnan
sI2
Fnan
sI3
Fnan
sI4
Fnan
sI5
Fnan
sI6
Fnan
sI7
Fnan
sI8
Fnan
sI9
Fnan
sI10
Fnan
sI11
Fnan
sI12
Fnan
sI13
Fnan
sI14
Fnan
ssS'ref2flag'
p68
(dp69
I0
g7
sI1
g8
sI2
g9
sI3
g10
sI4
g11
sI5
g12
sI6
g13
sI7
g14
sI8
g15
sI9
g16
sI10
g17
sI11
g18
sI12
g19
sI13
g20
sI14
g21
ssS'ref2'
p70
(dp71
I0
F8739.416666666666
sI1
F8786.626666666667
sI2
F8659.363333333333
sI3
F9080.846666666668
sI4
F8988.496666666668
sI5
F9267.446666666667
sI6
F9094.69
sI7
F8602.646666666666
sI8
F8961.066666666668
sI9
F9208.79
sI10
F8833.276666666667
sI11
F9228.99
sI12
F9319.26
sI13
F9240.46
sI14
F8852.216666666667
ssS'airmass'
p72
(dp73
I0
F1.03405
sI1
F1.101456
sI2
F1.0349409999999999
sI3
F1.1031799999999998
sI4
F1.09974
sI5
F1.066077
sI6
F1.09807
sI7
F1.1049069999999999
sI8
F1.037674
sI9
F1.0609629999999999
sI10
F1.0358399999999999
sI11
F1.062216
sI12
F1.064771
sI13
F1.063487
sI14
F1.0367520000000001
ssS'ref1'
p74
(dp75
I0
F7200.983333333334
sI1
F7287.906666666667
sI2
F7137.866666666667
sI3
F7531.240000000001
sI4
F7399.79
sI5
F7633.73
sI6
F7496.133333333333
sI7
F7101.126666666666
sI8
F7411.796666666666
sI9
F7612.953333333334
sI10
F7315.796666666666
sI11
F7603.373333333334
sI12
F7698.8566666666675
sI13
F7628.336666666667
sI14
F7311.97
ssS'ref3'
p76
(dp77
I0
F11960.076666666666
sI1
F12059.926666666666
sI2
F11852.583333333334
sI3
F12431.630000000001
sI4
F12326.613333333335
sI5
F12633.869999999999
sI6
F12492.69
sI7
F11861.380000000001
sI8
F12342.04
sI9
F12523.08
sI10
F12120.093333333332
sI11
F12553.646666666667
sI12
F12647.823333333334
sI13
F12572.983333333334
sI14
F12136.06
ssS'ref1bkg'
p78
(dp79
I0
F7.129399
sI1
F2.52249
sI2
F7.769019
sI3
F2.215436
sI4
F2.754556
sI5
F2.695876
sI6
F2.633328
sI7
F2.498788
sI8
F6.70308
sI9
F3.077313
sI10
F7.707146
sI11
F3.580715
sI12
F3.752569
sI13
F3.556508
sI14
F7.168021
ssS'ref1mag'
p80
(dp81
I0
F11.357
sI1
F11.343
sI2
F11.366
sI3
F11.308
sI4
F11.327
sI5
F11.293
sI6
F11.313
sI7
F11.372
sI8
F11.325
sI9
F11.296
sI10
F11.339
sI11
F11.297
sI12
F11.284
sI13
F11.294
sI14
F11.34
ssS'ref3magerr'
p82
(dp83
I0
F0.002
sI1
F0.002
sI2
F0.002
sI3
F0.002
sI4
F0.002
sI5
F0.002
sI6
F0.002
sI7
F0.002
sI8
F0.002
sI9
F0.002
sI10
F0.002
sI11
F0.002
sI12
F0.002
sI13
F0.002
sI14
F0.002
ssS'tabbymagmean'
p84
(dp85
I0
F0.4400528627583101
sI1
Fnan
sI2
Fnan
sI3
Fnan
sI4
Fnan
sI5
Fnan
sI6
Fnan
sI7
Fnan
sI8
Fnan
sI9
Fnan
sI10
Fnan
sI11
Fnan
sI12
Fnan
sI13
Fnan
sI14
Fnan
ssS'ref1magmean'
p86
(dp87
I0
F11.3236
sI1
Fnan
sI2
Fnan
sI3
Fnan
sI4
Fnan
sI5
Fnan
sI6
Fnan
sI7
Fnan
sI8
Fnan
sI9
Fnan
sI10
Fnan
sI11
Fnan
sI12
Fnan
sI13
Fnan
sI14
Fnan
ssS'ref2mag'
p88
(dp89
I0
F11.146
sI1
F11.14
sI2
F11.156
sI3
F11.105
sI4
F11.116
sI5
F11.083
sI6
F11.103
sI7
F11.163
sI8
F11.119
sI9
F11.089
sI10
F11.135
sI11
F11.087
sI12
F11.077
sI13
F11.086
sI14
F11.132
ssS'ref3rms'
p90
(dp91
I0
F2.1576
sI1
F4.91584
sI2
F3.699385
sI3
F3.090324
sI4
F4.201831
sI5
F4.033839
sI6
F2.733397
sI7
F2.975939
sI8
F3.88727
sI9
F4.232911
sI10
F-1.839427
sI11
F-3.929184
sI12
F3.487098
sI13
F2.859223
sI14
F-2.79022
ssS'ref3magmeanerr'
p92
(dp93
I0
F0.024939545953784916
sI1
Fnan
sI2
Fnan
sI3
Fnan
sI4
Fnan
sI5
Fnan
sI6
Fnan
sI7
Fnan
sI8
Fnan
sI9
Fnan
sI10
Fnan
sI11
Fnan
sI12
Fnan
sI13
Fnan
sI14
Fnan
ssS'ref1rel'
p94
(dp95
I0
F0.6957642119420637
sI1
F0.6991953585932511
sI2
F0.6959716483922215
sI3
F0.7001741470027548
sI4
F0.6943234165810075
sI5
F0.6971023812114797
sI6
F0.6944921832416284
sI7
F0.6940106932360005
sI8
F0.6958418584331675
sI9
F0.7006257016384999
sI10
F0.6982930828469756
sI11
F0.6981132219836871
sI12
F0.7009448227461543
sI13
F0.6994160940203084
sI14
F0.6967670682188772
ssS'exposure'
p96
(dp97
I0
F30.0
sI1
F30.0
sI2
F30.0
sI3
F30.0
sI4
F30.0
sI5
F30.0
sI6
F30.0
sI7
F30.0
sI8
F30.0
sI9
F30.0
sI10
F30.0
sI11
F30.0
sI12
F30.0
sI13
F30.0
sI14
F30.0
ssS'ref1magerr'
p98
(dp99
I0
F0.002
sI1
F0.002
sI2
F0.002
sI3
F0.002
sI4
F0.002
sI5
F0.002
sI6
F0.002
sI7
F0.002
sI8
F0.002
sI9
F0.002
sI10
F0.002
sI11
F0.002
sI12
F0.002
sI13
F0.002
sI14
F0.002
ssS'ref2magerr'
p100
(dp101
I0
F0.002
sI1
F0.002
sI2
F0.002
sI3
F0.002
sI4
F0.002
sI5
F0.002
sI6
F0.002
sI7
F0.002
sI8
F0.002
sI9
F0.002
sI10
F0.002
sI11
F0.002
sI12
F0.002
sI13
F0.002
sI14
F0.002
ssS'ref2rms'
p102
(dp103
I0
F2.145467
sI1
F3.314491
sI2
F2.783599
sI3
F4.649236
sI4
F3.588826
sI5
F3.816325
sI6
F-1.642305
sI7
F1.709975
sI8
F2.625293
sI9
F2.937774
sI10
F-3.849396
sI11
F2.771342
sI12
F3.276406
sI13
F-3.126625
sI14
F-2.287054
ssS'name'
p104
(dp105
I0
S"KIC8462852-20181109at014357_-25-1X1-030-i'_cal.fts.mag.1"
p106
sI1
S"KIC8462852-20181109at024050_-25-1X1-030-i'_cal.fts.mag.1"
p107
sI2
S"KIC8462852-20181109at014503_-25-1X1-030-i'_cal.fts.mag.1"
p108
sI3
S"KIC8462852-20181109at024155_-25-1X1-030-i'_cal.fts.mag.1"
p109
sI4
S"KIC8462852-20181109at023945_-25-1X1-030-i'_cal.fts.mag.1"
p110
sI5
S"KIC8462852-20181109at021532_-25-1X1-030-i'_cal.fts.mag.1"
p111
sI6
S"KIC8462852-20181109at023840_-25-1X1-030-i'_cal.fts.mag.1"
p112
sI7
S"KIC8462852-20181109at024300_-25-1X1-030-i'_cal.fts.mag.1"
p113
sI8
S"KIC8462852-20181109at014817_-25-1X1-030-i'_cal.fts.mag.1"
p114
sI9
S"KIC8462852-20181109at021113_-25-1X1-030-i'_cal.fts.mag.1"
p115
sI10
S"KIC8462852-20181109at014608_-25-1X1-030-i'_cal.fts.mag.1"
p116
sI11
S"KIC8462852-20181109at021219_-25-1X1-030-i'_cal.fts.mag.1"
p117
sI12
S"KIC8462852-20181109at021428_-25-1X1-030-i'_cal.fts.mag.1"
p118
sI13
S"KIC8462852-20181109at021323_-25-1X1-030-i'_cal.fts.mag.1"
p119
sI14
S"KIC8462852-20181109at014713_-25-1X1-030-i'_cal.fts.mag.1"
p120
ssS'ref3err'
p121
(dp122
I0
F0.007121374432727491
sI1
Fnan
sI2
Fnan
sI3
Fnan
sI4
Fnan
sI5
Fnan
sI6
Fnan
sI7
Fnan
sI8
Fnan
sI9
Fnan
sI10
Fnan
sI11
Fnan
sI12
Fnan
sI13
Fnan
sI14
Fnan
ssS'tabby'
p123
(dp124
I0
F4085.11
sI1
F4127.44
sI2
F4058.936666666667
sI3
F4271.856666666667
sI4
F4219.39
sI5
F4339.35
sI6
F4257.71
sI7
F4038.1466666666665
sI8
F4201.453333333334
sI9
F4322.076666666667
sI10
F4124.846666666666
sI11
F4315.043333333333
sI12
F4352.62
sI13
F4339.743333333334
sI14
F4132.703333333334
ssS'ref1magmeanerr'
p125
(dp126
I0
F0.028482576127470176
sI1
Fnan
sI2
Fnan
sI3
Fnan
sI4
Fnan
sI5
Fnan
sI6
Fnan
sI7
Fnan
sI8
Fnan
sI9
Fnan
sI10
Fnan
sI11
Fnan
sI12
Fnan
sI13
Fnan
sI14
Fnan
ssS'filter'
p127
(dp128
I0
S"i'"
p129
sI1
S"i'"
p130
sI2
S"i'"
p131
sI3
S"i'"
p132
sI4
S"i'"
p133
sI5
S"i'"
p134
sI6
S"i'"
p135
sI7
S"i'"
p136
sI8
S"i'"
p137
sI9
S"i'"
p138
sI10
S"i'"
p139
sI11
S"i'"
p140
sI12
S"i'"
p141
sI13
S"i'"
p142
sI14
S"i'"
p143
ssS'tabbymagerr'
p144
(dp145
I0
F0.001278777722025359
sI1
Fnan
sI2
Fnan
sI3
Fnan
sI4
Fnan
sI5
Fnan
sI6
Fnan
sI7
Fnan
sI8
Fnan
sI9
Fnan
sI10
Fnan
sI11
Fnan
sI12
Fnan
sI13
Fnan
sI14
Fnan
ssS'tabbyrms'
p146
(dp147
I0
F1.730315
sI1
F4.032214
sI2
F3.345676
sI3
F-3.13349
sI4
F2.900458
sI5
F-3.235208
sI6
F3.263029
sI7
F3.141295
sI8
F4.633118
sI9
F1.309839
sI10
F-2.915409
sI11
F2.434697
sI12
F3.213977
sI13
F3.836936
sI14
F2.231476
ssS'ref3mean'
p148
(dp149
I0
F1.4988131766378412
sI1
Fnan
sI2
Fnan
sI3
Fnan
sI4
Fnan
sI5
Fnan
sI6
Fnan
sI7
Fnan
sI8
Fnan
sI9
Fnan
sI10
Fnan
sI11
Fnan
sI12
Fnan
sI13
Fnan
sI14
Fnan
ssS'median_JD'
p150
(dp151
I0
F2458431.592627315
sI1
Fnan
sI2
Fnan
sI3
Fnan
sI4
Fnan
sI5
Fnan
sI6
Fnan
sI7
Fnan
sI8
Fnan
sI9
Fnan
sI10
Fnan
sI11
Fnan
sI12
Fnan
sI13
Fnan
sI14
Fnan
ssS'error'
p152
(dp153
I0
F0.001278777722025359
sI1
Fnan
sI2
Fnan
sI3
Fnan
sI4
Fnan
sI5
Fnan
sI6
Fnan
sI7
Fnan
sI8
Fnan
sI9
Fnan
sI10
Fnan
sI11
Fnan
sI12
Fnan
sI13
Fnan
sI14
Fnan
ssS'ref3bkg'
p154
(dp155
I0
F8.861976
sI1
F3.314284
sI2
F8.969561
sI3
F3.821342
sI4
F2.510811
sI5
F3.836132
sI6
F3.341702
sI7
F3.793735
sI8
F7.436188
sI9
F4.523442
sI10
F8.921318
sI11
F4.14732
sI12
F4.235257
sI13
F3.794499
sI14
F8.331288
ssS'ref3mag'
p156
(dp157
I0
F10.806
sI1
F10.797
sI2
F10.815
sI3
F10.764
sI4
F10.773
sI5
F10.746
sI6
F10.758
sI7
F10.815
sI8
F10.772
sI9
F10.756
sI10
F10.791
sI11
F10.753
sI12
F10.745
sI13
F10.751
sI14
F10.79
ssS'mean'
p158
(dp159
I0
F0.4400528627583101
sI1
Fnan
sI2
Fnan
sI3
Fnan
sI4
Fnan
sI5
Fnan
sI6
Fnan
sI7
Fnan
sI8
Fnan
sI9
Fnan
sI10
Fnan
sI11
Fnan
sI12
Fnan
sI13
Fnan
sI14
Fnan
sssS'r'
p160
(dp161
g3
(dp162
I0
F0.551926868654811
sI1
Fnan
sI2
Fnan
sI3
Fnan
sI4
Fnan
sI5
Fnan
sI6
Fnan
sI7
Fnan
sI8
Fnan
sI9
Fnan
sI10
Fnan
sI11
Fnan
sI12
Fnan
sI13
Fnan
sI14
Fnan
ssg5
(dp163
I0
S'NoError'
p164
sI1
S'NoError'
p165
sI2
S'NoError'
p166
sI3
S'NoError'
p167
sI4
S'NoError'
p168
sI5
S'NoError'
p169
sI6
S'NoError'
p170
sI7
S'NoError'
p171
sI8
S'NoError'
p172
sI9
S'NoError'
p173
sI10
S'NoError'
p174
sI11
S'NoError'
p175
sI12
S'NoError'
p176
sI13
S'NoError'
p177
sI14
S'NoError'
p178
ssg22
(dp179
I0
F0.002
sI1
F0.002
sI2
F0.002
sI3
F0.002
sI4
F0.002
sI5
F0.002
sI6
F0.002
sI7
F0.002
sI8
F0.002
sI9
F0.002
sI10
F0.002
sI11
F0.002
sI12
F0.002
sI13
F0.002
sI14
F0.002
ssg24
(dp180
I0
F0.8975739456070861
sI1
F0.8980612769375678
sI2
F0.8915499696987991
sI3
F0.8964874281330917
sI4
F0.8941210645034007
sI5
F0.8920822390938338
sI6
F0.8967897618200884
sI7
F0.8970926448302267
sI8
F0.8956841454120876
sI9
F0.8947007225416448
sI10
F0.8981041045751067
sI11
F0.8957467603540054
sI12
F0.8945275238816708
sI13
F0.8935687780318452
sI14
F0.8943573435719381
ssg26
(dp181
I0
F0.0020430527461671667
sI1
Fnan
sI2
Fnan
sI3
Fnan
sI4
Fnan
sI5
Fnan
sI6
Fnan
sI7
Fnan
sI8
Fnan
sI9
Fnan
sI10
Fnan
sI11
Fnan
sI12
Fnan
sI13
Fnan
sI14
Fnan
ssg28
(dp182
I0
F0.8953631805994927
sI1
Fnan
sI2
Fnan
sI3
Fnan
sI4
Fnan
sI5
Fnan
sI6
Fnan
sI7
Fnan
sI8
Fnan
sI9
Fnan
sI10
Fnan
sI11
Fnan
sI12
Fnan
sI13
Fnan
sI14
Fnan
ssg30
(dp183
I0
F11.272
sI1
F11.228
sI2
F11.228
sI3
F11.226
sI4
F11.206
sI5
F11.263
sI6
F11.27
sI7
F11.258
sI8
F11.218
sI9
F11.286
sI10
F11.213
sI11
F11.209
sI12
F11.228
sI13
F11.214
sI14
F11.234
ssg32
(dp184
I0
F7.943943
sI1
F2.626601
sI2
F1.162976
sI3
F2.266371
sI4
F3.21285
sI5
F6.565494
sI6
F7.884287
sI7
F7.381138
sI8
F4.490769
sI9
F8.970825
sI10
F3.406029
sI11
F3.114744
sI12
F3.467825
sI13
F3.273259
sI14
F2.93066
ssg34
(dp185
I0
F2458431.571446759
sI1
F2458431.6094328705
sI2
F2458431.6086805556
sI3
F2458431.6079513887
sI4
F2458431.5903703705
sI5
F2458431.5707060187
sI6
F2458431.569201389
sI7
F2458431.569953704
sI8
F2458431.5881481483
sI9
F2458431.568449074
sI10
F2458431.5874074074
sI11
F2458431.5896296296
sI12
F2458431.6072106482
sI13
F2458431.588900463
sI14
F2458431.6064699073
ssg36
(dp186
I0
F2.3912122
sI1
Fnan
sI2
Fnan
sI3
Fnan
sI4
Fnan
sI5
Fnan
sI6
Fnan
sI7
Fnan
sI8
Fnan
sI9
Fnan
sI10
Fnan
sI11
Fnan
sI12
Fnan
sI13
Fnan
sI14
Fnan
ssg38
(dp187
I0
F3.0526446000000003
sI1
Fnan
sI2
Fnan
sI3
Fnan
sI4
Fnan
sI5
Fnan
sI6
Fnan
sI7
Fnan
sI8
Fnan
sI9
Fnan
sI10
Fnan
sI11
Fnan
sI12
Fnan
sI13
Fnan
sI14
Fnan
ssg40
(dp188
I0
F0.5524433054302198
sI1
F0.5510846478662398
sI2
F0.5527276070097239
sI3
F0.5507006094732816
sI4
F0.5526898070380271
sI5
F0.5507940420190313
sI6
F0.5484432077590992
sI7
F0.5516898955976499
sI8
F0.5528311074351743
sI9
F0.5484536257374569
sI10
F0.5533309625512449
sI11
F0.5520181391797864
sI12
F0.5524079275075756
sI13
F0.550189454578704
sI14
F0.5521417868258858
ssg42
(dp189
I0
F0.000925540862611513
sI1
Fnan
sI2
Fnan
sI3
Fnan
sI4
Fnan
sI5
Fnan
sI6
Fnan
sI7
Fnan
sI8
Fnan
sI9
Fnan
sI10
Fnan
sI11
Fnan
sI12
Fnan
sI13
Fnan
sI14
Fnan
ssg44
(dp190
I0
F1.6338818000000002
sI1
Fnan
sI2
Fnan
sI3
Fnan
sI4
Fnan
sI5
Fnan
sI6
Fnan
sI7
Fnan
sI8
Fnan
sI9
Fnan
sI10
Fnan
sI11
Fnan
sI12
Fnan
sI13
Fnan
sI14
Fnan
ssg46
(dp191
I0
g164
sI1
g165
sI2
g166
sI3
g167
sI4
g168
sI5
g169
sI6
g170
sI7
g171
sI8
g172
sI9
g173
sI10
g174
sI11
g175
sI12
g176
sI13
g177
sI14
g178
ssg48
(dp192
I0
F0.0017795063303199389
sI1
Fnan
sI2
Fnan
sI3
Fnan
sI4
Fnan
sI5
Fnan
sI6
Fnan
sI7
Fnan
sI8
Fnan
sI9
Fnan
sI10
Fnan
sI11
Fnan
sI12
Fnan
sI13
Fnan
sI14
Fnan
ssg50
(dp193
I0
F0.023993649953586476
sI1
Fnan
sI2
Fnan
sI3
Fnan
sI4
Fnan
sI5
Fnan
sI6
Fnan
sI7
Fnan
sI8
Fnan
sI9
Fnan
sI10
Fnan
sI11
Fnan
sI12
Fnan
sI13
Fnan
sI14
Fnan
ssg52
(dp194
I0
F2.623021533333333
sI1
Fnan
sI2
Fnan
sI3
Fnan
sI4
Fnan
sI5
Fnan
sI6
Fnan
sI7
Fnan
sI8
Fnan
sI9
Fnan
sI10
Fnan
sI11
Fnan
sI12
Fnan
sI13
Fnan
sI14
Fnan
ssg54
(dp195
I0
F1.4913373418759668
sI1
F1.4932498399324121
sI2
F1.4981229789763837
sI3
F1.499279181039983
sI4
F1.4979042697533709
sI5
F1.4971517079598025
sI6
F1.4972500675249354
sI7
F1.4912226438478737
sI8
F1.4949052594895011
sI9
F1.4998727844446866
sI10
F1.4908683127776237
sI11
F1.4987260335260362
sI12
F1.498672733966727
sI13
F1.4960140495171814
sI14
F1.492567080459342
ssg56
(dp196
I0
g164
sI1
g165
sI2
g166
sI3
g167
sI4
g168
sI5
g169
sI6
g170
sI7
g171
sI8
g172
sI9
g173
sI10
g174
sI11
g175
sI12
g176
sI13
g177
sI14
g178
ssg58
(dp197
I0
F9.407894
sI1
F4.025419
sI2
F4.212545
sI3
F3.517009
sI4
F4.539137
sI5
F8.282504
sI6
F9.572152
sI7
F8.559142
sI8
F4.459143
sI9
F9.608122
sI10
F5.039989
sI11
F4.594933
sI12
F2.564927
sI13
F3.97457
sI14
F4.171999
ssg60
(dp198
I0
F10.319533333333334
sI1
Fnan
sI2
Fnan
sI3
Fnan
sI4
Fnan
sI5
Fnan
sI6
Fnan
sI7
Fnan
sI8
Fnan
sI9
Fnan
sI10
Fnan
sI11
Fnan
sI12
Fnan
sI13
Fnan
sI14
Fnan
ssg62
(dp199
I0
F0.7132411761087307
sI1
Fnan
sI2
Fnan
sI3
Fnan
sI4
Fnan
sI5
Fnan
sI6
Fnan
sI7
Fnan
sI8
Fnan
sI9
Fnan
sI10
Fnan
sI11
Fnan
sI12
Fnan
sI13
Fnan
sI14
Fnan
ssg64
(dp200
I0
F2.95374
sI1
F3.072884
sI2
F3.686058
sI3
F3.136505
sI4
F2.924797
sI5
F4.401711
sI6
F3.170371
sI7
F3.700978
sI8
F3.554194
sI9
F4.535534
sI10
F1.447025
sI11
F-2.231667
sI12
F3.402395
sI13
F4.896483
sI14
F3.138661
ssg66
(dp201
I0
F10.672133333333335
sI1
Fnan
sI2
Fnan
sI3
Fnan
sI4
Fnan
sI5
Fnan
sI6
Fnan
sI7
Fnan
sI8
Fnan
sI9
Fnan
sI10
Fnan
sI11
Fnan
sI12
Fnan
sI13
Fnan
sI14
Fnan
ssg68
(dp202
I0
g164
sI1
g165
sI2
g166
sI3
g167
sI4
g168
sI5
g169
sI6
g170
sI7
g171
sI8
g172
sI9
g173
sI10
g174
sI11
g175
sI12
g176
sI13
g177
sI14
g178
ssg70
(dp203
I0
F13087.97
sI1
F13669.25
sI2
F13561.516666666666
sI3
F13693.113333333335
sI4
F13871.753333333332
sI5
F13190.683333333332
sI6
F13201.153333333332
sI7
F13281.746666666668
sI8
F13731.45
sI9
F12995.836666666666
sI10
F13806.269999999999
sI11
F13864.97
sI12
F13607.066666666668
sI13
F13824.619999999999
sI14
F13535.21
ssg72
(dp204
I0
F1.033161
sI1
F1.09638
sI2
F1.094751
sI3
F1.093124
sI4
F1.059688
sI5
F1.03231
sI6
F1.030624
sI7
F1.031466
sI8
F1.05608
sI9
F1.0298129999999999
sI10
F1.054906
sI11
F1.058455
sI12
F1.0915290000000002
sI13
F1.0572549999999998
sI14
F1.089943
ssg74
(dp205
I0
F11115.34
sI1
F11585.706666666667
sI2
F11585.6
sI3
F11592.94
sI4
F11801.08
sI5
F11265.493333333334
sI6
F11184.9
sI7
F11289.813333333334
sI8
F11672.853333333333
sI9
F11031.623333333333
sI10
F11718.403333333332
sI11
F11757.106666666667
sI12
F11562.466666666667
sI13
F11785.75
sI14
F11548.473333333333
ssg76
(dp206
I0
F18047.65
sI1
F18855.98
sI2
F18836.736666666668
sI3
F18955.42666666667
sI4
F19227.72333333333
sI5
F18307.303333333333
sI6
F18256.010000000002
sI7
F18320.833333333332
sI8
F18988.513333333332
sI9
F18019.066666666666
sI10
F19026.963333333333
sI11
F19200.236666666668
sI12
F18860.446666666667
sI13
F19156.736666666668
sI14
F18719.539999999997
ssg78
(dp207
I0
F9.063199
sI1
F3.401119
sI2
F3.564942
sI3
F3.199603
sI4
F3.77888
sI5
F7.077466
sI6
F8.615788
sI7
F8.424844
sI8
F4.528849
sI9
F10.21511
sI10
F4.822344
sI11
F3.93096
sI12
F3.990458
sI13
F3.251791
sI14
F2.937067
ssg80
(dp208
I0
F10.885
sI1
F10.84
sI2
F10.84
sI3
F10.84
sI4
F10.82
sI5
F10.871
sI6
F10.878
sI7
F10.868
sI8
F10.832
sI9
F10.893
sI10
F10.828
sI11
F10.824
sI12
F10.842
sI13
F10.822
sI14
F10.844
ssg82
(dp209
I0
F0.001
sI1
F0.001
sI2
F0.001
sI3
F0.001
sI4
F0.001
sI5
F0.001
sI6
F0.001
sI7
F0.001
sI8
F0.001
sI9
F0.001
sI10
F0.001
sI11
F0.001
sI12
F0.001
sI13
F0.001
sI14
F0.001
ssg84
(dp210
I0
F0.5514630750672732
sI1
Fnan
sI2
Fnan
sI3
Fnan
sI4
Fnan
sI5
Fnan
sI6
Fnan
sI7
Fnan
sI8
Fnan
sI9
Fnan
sI10
Fnan
sI11
Fnan
sI12
Fnan
sI13
Fnan
sI14
Fnan
ssg86
(dp211
I0
F10.848466666666669
sI1
Fnan
sI2
Fnan
sI3
Fnan
sI4
Fnan
sI5
Fnan
sI6
Fnan
sI7
Fnan
sI8
Fnan
sI9
Fnan
sI10
Fnan
sI11
Fnan
sI12
Fnan
sI13
Fnan
sI14
Fnan
ssg88
(dp212
I0
F10.708
sI1
F10.661
sI2
F10.669
sI3
F10.659
sI4
F10.645
sI5
F10.699
sI6
F10.698
sI7
F10.692
sI8
F10.656
sI9
F10.715
sI10
F10.65
sI11
F10.645
sI12
F10.666
sI13
F10.648
sI14
F10.671
ssg90
(dp213
I0
F3.235857
sI1
F3.407872
sI2
F-1.84259
sI3
F3.641995
sI4
F1.391044
sI5
F3.13191
sI6
F-2.395467
sI7
F2.701929
sI8
F4.336221
sI9
F2.513026
sI10
F3.033477
sI11
F2.801614
sI12
F2.6382
sI13
F3.616005
sI14
F3.65709
ssg92
(dp214
I0
F0.024342398833155088
sI1
Fnan
sI2
Fnan
sI3
Fnan
sI4
Fnan
sI5
Fnan
sI6
Fnan
sI7
Fnan
sI8
Fnan
sI9
Fnan
sI10
Fnan
sI11
Fnan
sI12
Fnan
sI13
Fnan
sI14
Fnan
ssg94
(dp215
I0
F0.7139950962916428
sI1
F0.7124135120130844
sI2
F0.7151990498253198
sI3
F0.7101659063468074
sI4
F0.7130674674312576
sI5
F0.7153151376024458
sI6
F0.7111194281238963
sI7
F0.7144868129964916
sI8
F0.7135003920644165
sI9
F0.7113756386580172
sI10
F0.7138135446097805
sI11
F0.7111467220024433
sI12
F0.7122483664183705
sI13
F0.7146916434709023
sI14
F0.7160789237760847
ssg96
(dp216
I0
F30.0
sI1
F30.0
sI2
F30.0
sI3
F30.0
sI4
F30.0
sI5
F30.0
sI6
F30.0
sI7
F30.0
sI8
F30.0
sI9
F30.0
sI10
F30.0
sI11
F30.0
sI12
F30.0
sI13
F30.0
sI14
F30.0
ssg98
(dp217
I0
F0.002
sI1
F0.002
sI2
F0.002
sI3
F0.002
sI4
F0.002
sI5
F0.002
sI6
F0.002
sI7
F0.002
sI8
F0.002
sI9
F0.002
sI10
F0.002
sI11
F0.002
sI12
F0.002
sI13
F0.002
sI14
F0.002
ssg100
(dp218
I0
F0.002
sI1
F0.002
sI2
F0.002
sI3
F0.002
sI4
F0.002
sI5
F0.002
sI6
F0.002
sI7
F0.002
sI8
F0.002
sI9
F0.002
sI10
F0.002
sI11
F0.002
sI12
F0.002
sI13
F0.002
sI14
F0.002
ssg102
(dp219
I0
F-1.479388
sI1
F2.906215
sI2
F3.233304
sI3
F2.540218
sI4
F-1.847768
sI5
F5.087399
sI6
F3.890392
sI7
F2.684971
sI8
F2.622535
sI9
F5.026666
sI10
F2.76373
sI11
F3.210643
sI12
F3.465991
sI13
F2.011004
sI14
F3.229411
ssg104
(dp220
I0
S"KIC8462852-20181109at014253_-25-1X1-030-r'_cal.fts.mag.1"
p221
sI1
S"KIC8462852-20181109at023735_-25-1X1-030-r'_cal.fts.mag.1"
p222
sI2
S"KIC8462852-20181109at023630_-25-1X1-030-r'_cal.fts.mag.1"
p223
sI3
S"KIC8462852-20181109at023527_-25-1X1-030-r'_cal.fts.mag.1"
p224
sI4
S"KIC8462852-20181109at021008_-25-1X1-030-r'_cal.fts.mag.1"
p225
sI5
S"KIC8462852-20181109at014149_-25-1X1-030-r'_cal.fts.mag.1"
p226
sI6
S"KIC8462852-20181109at013939_-25-1X1-030-r'_cal.fts.mag.1"
p227
sI7
S"KIC8462852-20181109at014044_-25-1X1-030-r'_cal.fts.mag.1"
p228
sI8
S"KIC8462852-20181109at020656_-25-1X1-030-r'_cal.fts.mag.1"
p229
sI9
S"KIC8462852-20181109at013833_-25-1X1-030-r'_cal.fts.mag.1"
p230
sI10
S"KIC8462852-20181109at020550_-25-1X1-030-r'_cal.fts.mag.1"
p231
sI11
S"KIC8462852-20181109at020904_-25-1X1-030-r'_cal.fts.mag.1"
p232
sI12
S"KIC8462852-20181109at023423_-25-1X1-030-r'_cal.fts.mag.1"
p233
sI13
S"KIC8462852-20181109at020801_-25-1X1-030-r'_cal.fts.mag.1"
p234
sI14
S"KIC8462852-20181109at023317_-25-1X1-030-r'_cal.fts.mag.1"
p235
ssg121
(dp236
I0
F0.0031875837243376124
sI1
Fnan
sI2
Fnan
sI3
Fnan
sI4
Fnan
sI5
Fnan
sI6
Fnan
sI7
Fnan
sI8
Fnan
sI9
Fnan
sI10
Fnan
sI11
Fnan
sI12
Fnan
sI13
Fnan
sI14
Fnan
ssg123
(dp237
I0
F7780.42
sI1
F8102.953333333334
sI2
F8103.696666666667
sI3
F8121.27
sI4
F8272.026666666667
sI5
F7851.29
sI6
F7795.583333333333
sI7
F7887.766666666666
sI8
F8180.576666666666
sI9
F7686.8566666666675
sI10
F8217.266666666666
sI11
F8247.576666666666
sI12
F8107.503333333333
sI13
F8210.13
sI14
F8061.863333333333
ssg125
(dp238
I0
F0.024136121912030312
sI1
Fnan
sI2
Fnan
sI3
Fnan
sI4
Fnan
sI5
Fnan
sI6
Fnan
sI7
Fnan
sI8
Fnan
sI9
Fnan
sI10
Fnan
sI11
Fnan
sI12
Fnan
sI13
Fnan
sI14
Fnan
ssg127
(dp239
I0
S"r'"
p240
sI1
S"r'"
p241
sI2
S"r'"
p242
sI3
S"r'"
p243
sI4
S"r'"
p244
sI5
S"r'"
p245
sI6
S"r'"
p246
sI7
S"r'"
p247
sI8
S"r'"
p248
sI9
S"r'"
p249
sI10
S"r'"
p250
sI11
S"r'"
p251
sI12
S"r'"
p252
sI13
S"r'"
p253
sI14
S"r'"
p254
ssg144
(dp255
I0
F0.0015144277271434941
sI1
Fnan
sI2
Fnan
sI3
Fnan
sI4
Fnan
sI5
Fnan
sI6
Fnan
sI7
Fnan
sI8
Fnan
sI9
Fnan
sI10
Fnan
sI11
Fnan
sI12
Fnan
sI13
Fnan
sI14
Fnan
ssg146
(dp256
I0
F1.183447
sI1
F4.497647
sI2
F4.735438
sI3
F2.475269
sI4
F3.135482
sI5
F1.983733
sI6
F-1.65064
sI7
F-3.034889
sI8
F-4.434761
sI9
F3.71515
sI10
F4.002733
sI11
F3.608297
sI12
F-2.664448
sI13
F3.791887
sI14
F3.163882
ssg148
(dp257
I0
F1.4958096190061219
sI1
Fnan
sI2
Fnan
sI3
Fnan
sI4
Fnan
sI5
Fnan
sI6
Fnan
sI7
Fnan
sI8
Fnan
sI9
Fnan
sI10
Fnan
sI11
Fnan
sI12
Fnan
sI13
Fnan
sI14
Fnan
ssg150
(dp258
I0
F2458431.588900463
sI1
Fnan
sI2
Fnan
sI3
Fnan
sI4
Fnan
sI5
Fnan
sI6
Fnan
sI7
Fnan
sI8
Fnan
sI9
Fnan
sI10
Fnan
sI11
Fnan
sI12
Fnan
sI13
Fnan
sI14
Fnan
ssg152
(dp259
I0
F0.0015144277271434941
sI1
Fnan
sI2
Fnan
sI3
Fnan
sI4
Fnan
sI5
Fnan
sI6
Fnan
sI7
Fnan
sI8
Fnan
sI9
Fnan
sI10
Fnan
sI11
Fnan
sI12
Fnan
sI13
Fnan
sI14
Fnan
ssg154
(dp260
I0
F10.66138
sI1
F4.699043
sI2
F5.143678
sI3
F5.11249
sI4
F5.184444
sI5
F10.59322
sI6
F10.78753
sI7
F10.97995
sI8
F5.667903
sI9
F11.9838
sI10
F6.146381
sI11
F6.385419
sI12
F4.828436
sI13
F5.466716
sI14
F4.801413
ssg156
(dp261
I0
F10.359
sI1
F10.311
sI2
F10.312
sI3
F10.306
sI4
F10.29
sI5
F10.343
sI6
F10.346
sI7
F10.343
sI8
F10.304
sI9
F10.361
sI10
F10.302
sI11
F10.292
sI12
F10.311
sI13
F10.294
sI14
F10.319
ssg158
(dp262
I0
F0.5514630750672732
sI1
Fnan
sI2
Fnan
sI3
Fnan
sI4
Fnan
sI5
Fnan
sI6
Fnan
sI7
Fnan
sI8
Fnan
sI9
Fnan
sI10
Fnan
sI11
Fnan
sI12
Fnan
sI13
Fnan
sI14
Fnan
sssS'z'
p263
(dp264
g3
(dp265
I0
F0.3726321876236414
sI1
Fnan
sI2
Fnan
sI3
Fnan
sI4
Fnan
sI5
Fnan
sI6
Fnan
sI7
Fnan
sI8
Fnan
sI9
Fnan
sI10
Fnan
sI11
Fnan
sI12
Fnan
sI13
Fnan
sI14
Fnan
ssg5
(dp266
I0
S'NoError'
p267
sI1
S'NoError'
p268
sI2
S'NoError'
p269
sI3
S'NoError'
p270
sI4
S'NoError'
p271
sI5
S'NoError'
p272
sI6
S'NoError'
p273
sI7
S'NoError'
p274
sI8
S'NoError'
p275
sI9
S'NoError'
p276
sI10
S'NoError'
p277
sI11
S'NoError'
p278
sI12
S'NoError'
p279
sI13
S'NoError'
p280
sI14
S'NoError'
p281
ssg22
(dp282
I0
F0.007
sI1
F0.007
sI2
F0.007
sI3
F0.007
sI4
F0.007
sI5
F0.008
sI6
F0.007
sI7
F0.007
sI8
F0.007
sI9
F0.008
sI10
F0.007
sI11
F0.007
sI12
F0.008
sI13
F0.007
sI14
F0.007
ssg24
(dp283
I0
F0.9161581260995744
sI1
F0.9213669547332621
sI2
F0.9122011160868495
sI3
F0.9182510924187528
sI4
F0.9201773941215112
sI5
F0.9149728015224124
sI6
F0.9164463527780309
sI7
F0.9286280165491005
sI8
F0.9188076607393835
sI9
F0.9173440711889393
sI10
F0.9135815757427703
sI11
F0.9163704851124996
sI12
F0.9038947684640697
sI13
F0.9161016322549173
sI14
F0.9227739914812356
ssg26
(dp284
I0
F0.005445640247250461
sI1
Fnan
sI2
Fnan
sI3
Fnan
sI4
Fnan
sI5
Fnan
sI6
Fnan
sI7
Fnan
sI8
Fnan
sI9
Fnan
sI10
Fnan
sI11
Fnan
sI12
Fnan
sI13
Fnan
sI14
Fnan
ssg28
(dp285
I0
F0.917138402619554
sI1
Fnan
sI2
Fnan
sI3
Fnan
sI4
Fnan
sI5
Fnan
sI6
Fnan
sI7
Fnan
sI8
Fnan
sI9
Fnan
sI10
Fnan
sI11
Fnan
sI12
Fnan
sI13
Fnan
sI14
Fnan
ssg30
(dp286
I0
F13.225
sI1
F13.239
sI2
F13.259
sI3
F13.277
sI4
F13.345
sI5
F13.389
sI6
F13.229
sI7
F13.253
sI8
F13.278
sI9
F13.435
sI10
F13.233
sI11
F13.26
sI12
F13.389
sI13
F13.343
sI14
F13.225
ssg32
(dp287
I0
F-0.8334544
sI1
F-0.5804704
sI2
F1.712974
sI3
F1.668582
sI4
F-0.7748138
sI5
F-0.8886976
sI6
F-0.5443467
sI7
F1.436109
sI8
F2.598245
sI9
F-0.6064864
sI10
F-0.2127767
sI11
F1.648665
sI12
F-0.6410104
sI13
F-0.953509
sI14
F0.1163528
ssg34
(dp288
I0
F2458431.594884259
sI1
F2458431.5978819444
sI2
F2458431.5767013887
sI3
F2458431.578923611
sI4
F2458431.615451389
sI5
F2458431.613946759
sI6
F2458431.596377315
sI7
F2458431.5759490742
sI8
F2458431.5774421296
sI9
F2458431.616203704
sI10
F2458431.5971296295
sI11
F2458431.5781828705
sI12
F2458431.6169444444
sI13
F2458431.614699074
sI14
F2458431.595636574
ssg36
(dp289
I0
F0.9035921333333334
sI1
Fnan
sI2
Fnan
sI3
Fnan
sI4
Fnan
sI5
Fnan
sI6
Fnan
sI7
Fnan
sI8
Fnan
sI9
Fnan
sI10
Fnan
sI11
Fnan
sI12
Fnan
sI13
Fnan
sI14
Fnan
ssg38
(dp290
I0
F1.8547244666666667
sI1
Fnan
sI2
Fnan
sI3
Fnan
sI4
Fnan
sI5
Fnan
sI6
Fnan
sI7
Fnan
sI8
Fnan
sI9
Fnan
sI10
Fnan
sI11
Fnan
sI12
Fnan
sI13
Fnan
sI14
Fnan
ssg40
(dp291
I0
F0.3750081505201843
sI1
F0.3717489286188045
sI2
F0.3743091032576101
sI3
F0.3677784039067876
sI4
F0.37518923583631303
sI5
F0.36606048421927245
sI6
F0.37466943107122236
sI7
F0.37763141207805906
sI8
F0.3702438765828265
sI9
F0.36875857575503773
sI10
F0.3747442297266143
sI11
F0.37324137947539476
sI12
F0.3691203332212977
sI13
F0.37352230622656235
sI14
F0.375884484908683
ssg42
(dp292
I0
F0.002670768690694329
sI1
Fnan
sI2
Fnan
sI3
Fnan
sI4
Fnan
sI5
Fnan
sI6
Fnan
sI7
Fnan
sI8
Fnan
sI9
Fnan
sI10
Fnan
sI11
Fnan
sI12
Fnan
sI13
Fnan
sI14
Fnan
ssg44
(dp293
I0
F2.41087192
sI1
Fnan
sI2
Fnan
sI3
Fnan
sI4
Fnan
sI5
Fnan
sI6
Fnan
sI7
Fnan
sI8
Fnan
sI9
Fnan
sI10
Fnan
sI11
Fnan
sI12
Fnan
sI13
Fnan
sI14
Fnan
ssg46
(dp294
I0
g267
sI1
g268
sI2
g269
sI3
g270
sI4
g271
sI5
g272
sI6
g273
sI7
g274
sI8
g275
sI9
g276
sI10
g277
sI11
g278
sI12
g279
sI13
g280
sI14
g281
ssg48
(dp295
I0
F0.005226003772542109
sI1
Fnan
sI2
Fnan
sI3
Fnan
sI4
Fnan
sI5
Fnan
sI6
Fnan
sI7
Fnan
sI8
Fnan
sI9
Fnan
sI10
Fnan
sI11
Fnan
sI12
Fnan
sI13
Fnan
sI14
Fnan
ssg50
(dp296
I0
F0.06542112662988765
sI1
Fnan
sI2
Fnan
sI3
Fnan
sI4
Fnan
sI5
Fnan
sI6
Fnan
sI7
Fnan
sI8
Fnan
sI9
Fnan
sI10
Fnan
sI11
Fnan
sI12
Fnan
sI13
Fnan
sI14
Fnan
ssg52
(dp297
I0
F1.286342953333333
sI1
Fnan
sI2
Fnan
sI3
Fnan
sI4
Fnan
sI5
Fnan
sI6
Fnan
sI7
Fnan
sI8
Fnan
sI9
Fnan
sI10
Fnan
sI11
Fnan
sI12
Fnan
sI13
Fnan
sI14
Fnan
ssg54
(dp298
I0
F1.5004184433905872
sI1
F1.503521117341875
sI2
F1.5023900909976837
sI3
F1.5110709747370525
sI4
F1.5237192339502725
sI5
F1.5121115139482728
sI6
F1.4987816904572484
sI7
F1.4884699486286799
sI8
F1.4945644453444942
sI9
F1.5062041890322921
sI10
F1.503296722844205
sI11
F1.499505869084155
sI12
F1.5129906801394564
sI13
F1.5070886633657319
sI14
F1.5015419434279276
ssg56
(dp299
I0
g267
sI1
g268
sI2
g269
sI3
g270
sI4
g271
sI5
g272
sI6
g273
sI7
g274
sI8
g275
sI9
g276
sI10
g277
sI11
g278
sI12
g279
sI13
g280
sI14
g281
ssg58
(dp300
I0
F-0.4177822
sI1
F-0.7274849
sI2
F2.116661
sI3
F2.339085
sI4
F0.2991931
sI5
F-0.4417
sI6
F-0.1311857
sI7
F3.043525
sI8
F2.218195
sI9
F0.3576914
sI10
F-0.4585258
sI11
F1.710379
sI12
F0.02225884
sI13
F0.2969678
sI14
F-0.5938869
ssg60
(dp301
I0
F11.945133333333331
sI1
Fnan
sI2
Fnan
sI3
Fnan
sI4
Fnan
sI5
Fnan
sI6
Fnan
sI7
Fnan
sI8
Fnan
sI9
Fnan
sI10
Fnan
sI11
Fnan
sI12
Fnan
sI13
Fnan
sI14
Fnan
ssg62
(dp302
I0
F0.6893503401940198
sI1
Fnan
sI2
Fnan
sI3
Fnan
sI4
Fnan
sI5
Fnan
sI6
Fnan
sI7
Fnan
sI8
Fnan
sI9
Fnan
sI10
Fnan
sI11
Fnan
sI12
Fnan
sI13
Fnan
sI14
Fnan
ssg64
(dp303
I0
F1.746947
sI1
F-1.437605
sI2
F3.254936
sI3
F2.140563
sI4
F2.364773
sI5
F2.757278
sI6
F-2.313164
sI7
F-2.184291
sI8
F3.44731
sI9
F3.985837
sI10
F3.624842
sI11
F2.662888
sI12
F2.437178
sI13
F3.040087
sI14
F2.293288
ssg66
(dp304
I0
F12.283266666666666
sI1
Fnan
sI2
Fnan
sI3
Fnan
sI4
Fnan
sI5
Fnan
sI6
Fnan
sI7
Fnan
sI8
Fnan
sI9
Fnan
sI10
Fnan
sI11
Fnan
sI12
Fnan
sI13
Fnan
sI14
Fnan
ssg68
(dp305
I0
g267
sI1
g268
sI2
g269
sI3
g270
sI4
g271
sI5
g272
sI6
g273
sI7
g274
sI8
g275
sI9
g276
sI10
g277
sI11
g278
sI12
g279
sI13
g280
sI14
g281
ssg70
(dp306
I0
F3237.824666666667
sI1
F3235.8553333333334
sI2
F3133.7173333333335
sI3
F3150.585
sI4
F2906.5566666666664
sI5
F2848.9093333333335
sI6
F3230.088333333333
sI7
F3163.6793333333335
sI8
F3129.7613333333334
sI9
F2716.9286666666667
sI10
F3211.203
sI11
F3151.0576666666666
sI12
F2801.7723333333333
sI13
F2915.764
sI14
F3244.692666666667
ssg72
(dp307
I0
F1.067425
sI1
F1.0728739999999999
sI2
F1.039584
sI3
F1.042513
sI4
F1.110265
sI5
F1.1067049999999998
sI6
F1.0701200000000002
sI7
F1.038633
sI8
F1.0405520000000001
sI9
F1.112062
sI10
F1.071485
sI11
F1.041523
sI12
F1.113895
sI13
F1.1084690000000001
sI14
F1.068756
ssg74
(dp308
I0
F2650.6659999999997
sI1
F2621.045
sI2
F2579.175333333333
sI3
F2552.9326666666666
sI4
F2328.786666666667
sI5
F2319.616
sI6
F2645.813
sI7
F2556.5033333333336
sI8
F2560.4583333333335
sI9
F2211.703666666667
sI10
F2635.360666666667
sI11
F2580.2169999999996
sI12
F2322.6963333333333
sI13
F2377.1473333333333
sI14
F2625.3886666666667
ssg76
(dp309
I0
F4417.6
sI1
F4402.986666666667
sI2
F4291.496666666667
sI3
F4309.21
sI4
F3988.5966666666664
sI5
F3907.6933333333336
sI6
F4403.346666666666
sI7
F4257.16
sI8
F4252.2
sI9
F3711.7633333333333
sI10
F4394.5599999999995
sI11
F4297.04
sI12
F3876.6366666666668
sI13
F3988.4433333333336
sI14
F4407.086666666667
ssg78
(dp310
I0
F-0.303148
sI1
F-0.4316896
sI2
F1.836858
sI3
F2.967545
sI4
F-0.5799237
sI5
F-0.3906085
sI6
F-0.1176749
sI7
F2.843124
sI8
F2.725484
sI9
F0.2109509
sI10
F-0.4076919
sI11
F2.894388
sI12
F-0.1626329
sI13
F-0.6138078
sI14
F-0.03741099
ssg80
(dp311
I0
F12.442
sI1
F12.454
sI2
F12.471
sI3
F12.482
sI4
F12.582
sI5
F12.586
sI6
F12.444
sI7
F12.481
sI8
F12.479
sI9
F12.638
sI10
F12.448
sI11
F12.471
sI12
F12.585
sI13
F12.56
sI14
F12.452
ssg82
(dp312
I0
F0.003
sI1
F0.003
sI2
F0.003
sI3
F0.003
sI4
F0.003
sI5
F0.003
sI6
F0.003
sI7
F0.003
sI8
F0.003
sI9
F0.003
sI10
F0.003
sI11
F0.003
sI12
F0.003
sI13
F0.003
sI14
F0.003
ssg84
(dp313
I0
F0.37252735569364465
sI1
Fnan
sI2
Fnan
sI3
Fnan
sI4
Fnan
sI5
Fnan
sI6
Fnan
sI7
Fnan
sI8
Fnan
sI9
Fnan
sI10
Fnan
sI11
Fnan
sI12
Fnan
sI13
Fnan
sI14
Fnan
ssg86
(dp314
I0
F12.505
sI1
Fnan
sI2
Fnan
sI3
Fnan
sI4
Fnan
sI5
Fnan
sI6
Fnan
sI7
Fnan
sI8
Fnan
sI9
Fnan
sI10
Fnan
sI11
Fnan
sI12
Fnan
sI13
Fnan
sI14
Fnan
ssg88
(dp315
I0
F12.224
sI1
F12.225
sI2
F12.26
sI3
F12.254
sI4
F12.342
sI5
F12.363
sI6
F12.227
sI7
F12.25
sI8
F12.261
sI9
F12.415
sI10
F12.233
sI11
F12.254
sI12
F12.381
sI13
F12.338
sI14
F12.222
ssg90
(dp316
I0
F2.74507
sI1
F3.618992
sI2
F-2.93372
sI3
F2.343636
sI4
F-3.489823
sI5
F-1.141262
sI6
F3.613136
sI7
F3.674587
sI8
F4.460399
sI9
F3.18364
sI10
F-3.704988
sI11
F1.62301
sI12
F2.996684
sI13
F-2.151507
sI14
F-1.283972
ssg92
(dp317
I0
F0.061801371536637506
sI1
Fnan
sI2
Fnan
sI3
Fnan
sI4
Fnan
sI5
Fnan
sI6
Fnan
sI7
Fnan
sI8
Fnan
sI9
Fnan
sI10
Fnan
sI11
Fnan
sI12
Fnan
sI13
Fnan
sI14
Fnan
ssg94
(dp318
I0
F0.6924935233290344
sI1
F0.6862414486384193
sI2
F0.6947073399725134
sI3
F0.6844511589572277
sI4
F0.6754850991952803
sI5
F0.6866219946434617
sI6
F0.693216880735868
sI7
F0.689006517591586
sI8
F0.6937067854234223
sI9
F0.6880726799998093
sI10
F0.6929904775278082
sI11
F0.6928526223675996
sI12
F0.6955837335908398
sI13
F0.6886083278109357
sI14
F0.6862165131264893
ssg96
(dp319
I0
F30.0
sI1
F30.0
sI2
F30.0
sI3
F30.0
sI4
F30.0
sI5
F30.0
sI6
F30.0
sI7
F30.0
sI8
F30.0
sI9
F30.0
sI10
F30.0
sI11
F30.0
sI12
F30.0
sI13
F30.0
sI14
F30.0
ssg98
(dp320
I0
F0.004
sI1
F0.004
sI2
F0.004
sI3
F0.004
sI4
F0.004
sI5
F0.005
sI6
F0.004
sI7
F0.004
sI8
F0.004
sI9
F0.005
sI10
F0.004
sI11
F0.004
sI12
F0.004
sI13
F0.004
sI14
F0.004
ssg100
(dp321
I0
F0.004
sI1
F0.004
sI2
F0.004
sI3
F0.004
sI4
F0.004
sI5
F0.004
sI6
F0.004
sI7
F0.004
sI8
F0.004
sI9
F0.004
sI10
F0.004
sI11
F0.004
sI12
F0.004
sI13
F0.004
sI14
F0.004
ssg102
(dp322
I0
F0.9083593
sI1
F2.641351
sI2
F2.858816
sI3
F2.98829
sI4
F-3.374372
sI5
F2.438372
sI6
F3.196064
sI7
F-2.903404
sI8
F2.874836
sI9
F2.048822
sI10
F-1.488027
sI11
F4.346036
sI12
F2.967017
sI13
F-2.696202
sI14
F2.489186
ssg104
(dp323
I0
S"KIC8462852-20181109at021637_-25-1X1-030-z'_cal.fts.mag.1"
p324
sI1
S"KIC8462852-20181109at022057_-25-1X1-030-z'_cal.fts.mag.1"
p325
sI2
S"KIC8462852-20181109at015026_-25-1X1-030-z'_cal.fts.mag.1"
p326
sI3
S"KIC8462852-20181109at015339_-25-1X1-030-z'_cal.fts.mag.1"
p327
sI4
S"KIC8462852-20181109at024615_-25-1X1-030-z'_cal.fts.mag.1"
p328
sI5
S"KIC8462852-20181109at024404_-25-1X1-030-z'_cal.fts.mag.1"
p329
sI6
S"KIC8462852-20181109at021847_-25-1X1-030-z'_cal.fts.mag.1"
p330
sI7
S"KIC8462852-20181109at014921_-25-1X1-030-z'_cal.fts.mag.1"
p331
sI8
S"KIC8462852-20181109at015131_-25-1X1-030-z'_cal.fts.mag.1"
p332
sI9
S"KIC8462852-20181109at024720_-25-1X1-030-z'_cal.fts.mag.1"
p333
sI10
S"KIC8462852-20181109at021952_-25-1X1-030-z'_cal.fts.mag.1"
p334
sI11
S"KIC8462852-20181109at015235_-25-1X1-030-z'_cal.fts.mag.1"
p335
sI12
S"KIC8462852-20181109at024824_-25-1X1-030-z'_cal.fts.mag.1"
p336
sI13
S"KIC8462852-20181109at024510_-25-1X1-030-z'_cal.fts.mag.1"
p337
sI14
S"KIC8462852-20181109at021743_-25-1X1-030-z'_cal.fts.mag.1"
p338
ssg121
(dp339
I0
F0.008441192317274806
sI1
Fnan
sI2
Fnan
sI3
Fnan
sI4
Fnan
sI5
Fnan
sI6
Fnan
sI7
Fnan
sI8
Fnan
sI9
Fnan
sI10
Fnan
sI11
Fnan
sI12
Fnan
sI13
Fnan
sI14
Fnan
ssg123
(dp340
I0
F1288.2893333333334
sI1
F1271.3673333333331
sI2
F1248.2446666666665
sI3
F1227.4883333333335
sI4
F1153.5743333333335
sI5
F1107.4816666666666
sI6
F1283.7733333333333
sI7
F1255.9193333333335
sI8
F1227.04
sI9
F1062.0733333333333
sI10
F1279.2673333333332
sI11
F1247.6606666666667
sI12
F1107.497
sI13
F1155.5976666666668
sI14
F1287.676
ssg125
(dp341
I0
F0.06549045732013185
sI1
Fnan
sI2
Fnan
sI3
Fnan
sI4
Fnan
sI5
Fnan
sI6
Fnan
sI7
Fnan
sI8
Fnan
sI9
Fnan
sI10
Fnan
sI11
Fnan
sI12
Fnan
sI13
Fnan
sI14
Fnan
ssg127
(dp342
I0
S"z'"
p343
sI1
S"z'"
p344
sI2
S"z'"
p345
sI3
S"z'"
p346
sI4
S"z'"
p347
sI5
S"z'"
p348
sI6
S"z'"
p349
sI7
S"z'"
p350
sI8
S"z'"
p351
sI9
S"z'"
p352
sI10
S"z'"
p353
sI11
S"z'"
p354
sI12
S"z'"
p355
sI13
S"z'"
p356
sI14
S"z'"
p357
ssg144
(dp358
I0
F0.003388465254854112
sI1
Fnan
sI2
Fnan
sI3
Fnan
sI4
Fnan
sI5
Fnan
sI6
Fnan
sI7
Fnan
sI8
Fnan
sI9
Fnan
sI10
Fnan
sI11
Fnan
sI12
Fnan
sI13
Fnan
sI14
Fnan
ssg146
(dp359
I0
F3.352443
sI1
F1.334771
sI2
F3.417213
sI3
F1.073731
sI4
F3.651272
sI5
F-2.293144
sI6
F4.513008
sI7
F0.8340148
sI8
F1.711987
sI9
F2.713845
sI10
F2.436129
sI11
F2.490517
sI12
F2.48469
sI13
F4.474072
sI14
F3.96853
ssg148
(dp360
I0
F1.5043783684459955
sI1
Fnan
sI2
Fnan
sI3
Fnan
sI4
Fnan
sI5
Fnan
sI6
Fnan
sI7
Fnan
sI8
Fnan
sI9
Fnan
sI10
Fnan
sI11
Fnan
sI12
Fnan
sI13
Fnan
sI14
Fnan
ssg150
(dp361
I0
F2458431.596377315
sI1
Fnan
sI2
Fnan
sI3
Fnan
sI4
Fnan
sI5
Fnan
sI6
Fnan
sI7
Fnan
sI8
Fnan
sI9
Fnan
sI10
Fnan
sI11
Fnan
sI12
Fnan
sI13
Fnan
sI14
Fnan
ssg152
(dp362
I0
F0.003388465254854112
sI1
Fnan
sI2
Fnan
sI3
Fnan
sI4
Fnan
sI5
Fnan
sI6
Fnan
sI7
Fnan
sI8
Fnan
sI9
Fnan
sI10
Fnan
sI11
Fnan
sI12
Fnan
sI13
Fnan
sI14
Fnan
ssg154
(dp363
I0
F-0.04872203
sI1
F-1.004847
sI2
F3.019509
sI3
F3.230636
sI4
F0.7536874
sI5
F0.4660037
sI6
F-0.4686503
sI7
F2.880219
sI8
F2.553987
sI9
F1.245539
sI10
F0.713954
sI11
F2.606867
sI12
F-0.2291584
sI13
F0.1999814
sI14
F0.1409004
ssg156
(dp364
I0
F11.887
sI1
F11.891
sI2
F11.918
sI3
F11.914
sI4
F11.998
sI5
F12.02
sI6
F11.891
sI7
F11.927
sI8
F11.928
sI9
F12.076
sI10
F11.893
sI11
F11.917
sI12
F12.029
sI13
F11.998
sI14
F11.89
ssg158
(dp365
I0
F0.37252735569364465
sI1
Fnan
sI2
Fnan
sI3
Fnan
sI4
Fnan
sI5
Fnan
sI6
Fnan
sI7
Fnan
sI8
Fnan
sI9
Fnan
sI10
Fnan
sI11
Fnan
sI12
Fnan
sI13
Fnan
sI14
Fnan
sssS'g'
p366
(dp367
g3
(dp368
I0
F0.8696259777032848
sI1
Fnan
sI2
Fnan
sI3
Fnan
sI4
Fnan
sI5
Fnan
sI6
Fnan
sI7
Fnan
sI8
Fnan
sI9
Fnan
sI10
Fnan
sI11
Fnan
sI12
Fnan
sI13
Fnan
sI14
Fnan
ssg5
(dp369
I0
S'NoError'
p370
sI1
S'NoError'
p371
sI2
S'NoError'
p372
sI3
S'NoError'
p373
sI4
S'NoError'
p374
sI5
S'NoError'
p375
sI6
S'NoError'
p376
sI7
S'NoError'
p377
sI8
S'NoError'
p378
sI9
S'NoError'
p379
sI10
S'NoError'
p380
sI11
S'NoError'
p381
sI12
S'NoError'
p382
sI13
S'NoError'
p383
sI14
S'NoError'
p384
ssg22
(dp385
I0
F0.002
sI1
F0.002
sI2
F0.002
sI3
F0.002
sI4
F0.002
sI5
F0.002
sI6
F0.002
sI7
F0.002
sI8
F0.002
sI9
F0.002
sI10
F0.002
sI11
F0.002
sI12
F0.002
sI13
F0.002
sI14
F0.002
ssg24
(dp386
I0
F0.8763398921525029
sI1
F0.881579056544564
sI2
F0.8801777155581358
sI3
F0.8808197228400978
sI4
F0.8817331150645893
sI5
F0.8821633426947976
sI6
F0.8806683745351889
sI7
F0.8813771902804519
sI8
F0.8771427894607784
sI9
F0.8806496351780714
sI10
F0.8744246113953603
sI11
F0.8781562983128318
sI12
F0.8830166028726353
sI13
F0.8812846728356845
sI14
F0.8837865972813832
ssg26
(dp387
I0
F0.002591803913488425
sI1
Fnan
sI2
Fnan
sI3
Fnan
sI4
Fnan
sI5
Fnan
sI6
Fnan
sI7
Fnan
sI8
Fnan
sI9
Fnan
sI10
Fnan
sI11
Fnan
sI12
Fnan
sI13
Fnan
sI14
Fnan
ssg28
(dp388
I0
F0.8802213078004715
sI1
Fnan
sI2
Fnan
sI3
Fnan
sI4
Fnan
sI5
Fnan
sI6
Fnan
sI7
Fnan
sI8
Fnan
sI9
Fnan
sI10
Fnan
sI11
Fnan
sI12
Fnan
sI13
Fnan
sI14
Fnan
ssg30
(dp389
I0
F11.505
sI1
F11.459
sI2
F11.458
sI3
F11.456
sI4
F11.488
sI5
F11.466
sI6
F11.443
sI7
F11.507
sI8
F11.461
sI9
F11.462
sI10
F11.448
sI11
F11.449
sI12
F11.515
sI13
F11.504
sI14
F11.474
ssg32
(dp390
I0
F6.110647
sI1
F-4.009227
sI2
F-3.732349
sI3
F-3.512339
sI4
F14.09851
sI5
F-3.902725
sI6
F-3.650909
sI7
F6.544857
sI8
F-3.163407
sI9
F-5.455291
sI10
F-3.664975
sI11
F-3.343447
sI12
F8.457875
sI13
F10.51087
sI14
F-4.374309
ssg34
(dp391
I0
F2458431.5676967595
sI1
F2458431.603472222
sI2
F2458431.585138889
sI3
F2458431.5836689817
sI4
F2458431.5646296297
sI5
F2458431.604224537
sI6
F2458431.5866435184
sI7
F2458431.5669675926
sI8
F2458431.5858912035
sI9
F2458431.6057060184
sI10
F2458431.584421296
sI11
F2458431.602719907
sI12
F2458431.5662268517
sI13
F2458431.565462963
sI14
F2458431.604965278
ssg36
(dp392
I0
F1.7290658666666665
sI1
Fnan
sI2
Fnan
sI3
Fnan
sI4
Fnan
sI5
Fnan
sI6
Fnan
sI7
Fnan
sI8
Fnan
sI9
Fnan
sI10
Fnan
sI11
Fnan
sI12
Fnan
sI13
Fnan
sI14
Fnan
ssg38
(dp393
I0
F1.9847330333333335
sI1
Fnan
sI2
Fnan
sI3
Fnan
sI4
Fnan
sI5
Fnan
sI6
Fnan
sI7
Fnan
sI8
Fnan
sI9
Fnan
sI10
Fnan
sI11
Fnan
sI12
Fnan
sI13
Fnan
sI14
Fnan
ssg40
(dp394
I0
F0.8679542678042214
sI1
F0.8704279185193027
sI2
F0.8681503042806299
sI3
F0.8665040287884864
sI4
F0.8711296164212686
sI5
F0.8692459155110519
sI6
F0.8727652470584804
sI7
F0.866278428158967
sI8
F0.8729023876772243
sI9
F0.870458597103038
sI10
F0.8737398546846246
sI11
F0.8686357026116006
sI12
F0.8702171910774349
sI13
F0.8760118177494517
sI14
F0.8663542281496565
ssg42
(dp395
I0
F0.0023787001430658904
sI1
Fnan
sI2
Fnan
sI3
Fnan
sI4
Fnan
sI5
Fnan
sI6
Fnan
sI7
Fnan
sI8
Fnan
sI9
Fnan
sI10
Fnan
sI11
Fnan
sI12
Fnan
sI13
Fnan
sI14
Fnan
ssg44
(dp396
I0
F1.9093863333333334
sI1
Fnan
sI2
Fnan
sI3
Fnan
sI4
Fnan
sI5
Fnan
sI6
Fnan
sI7
Fnan
sI8
Fnan
sI9
Fnan
sI10
Fnan
sI11
Fnan
sI12
Fnan
sI13
Fnan
sI14
Fnan
ssg46
(dp397
I0
g370
sI1
g371
sI2
g372
sI3
g373
sI4
g374
sI5
g375
sI6
g376
sI7
g377
sI8
g378
sI9
g379
sI10
g380
sI11
g381
sI12
g382
sI13
g383
sI14
g384
ssg48
(dp398
I0
F0.00256334326983991
sI1
Fnan
sI2
Fnan
sI3
Fnan
sI4
Fnan
sI5
Fnan
sI6
Fnan
sI7
Fnan
sI8
Fnan
sI9
Fnan
sI10
Fnan
sI11
Fnan
sI12
Fnan
sI13
Fnan
sI14
Fnan
ssg50
(dp399
I0
F0.02393403633401824
sI1
Fnan
sI2
Fnan
sI3
Fnan
sI4
Fnan
sI5
Fnan
sI6
Fnan
sI7
Fnan
sI8
Fnan
sI9
Fnan
sI10
Fnan
sI11
Fnan
sI12
Fnan
sI13
Fnan
sI14
Fnan
ssg52
(dp400
I0
F1.9611081999999995
sI1
Fnan
sI2
Fnan
sI3
Fnan
sI4
Fnan
sI5
Fnan
sI6
Fnan
sI7
Fnan
sI8
Fnan
sI9
Fnan
sI10
Fnan
sI11
Fnan
sI12
Fnan
sI13
Fnan
sI14
Fnan
ssg54
(dp401
I0
F1.515157323853009
sI1
F1.5134876988368111
sI2
F1.5157874332708308
sI3
F1.514662192305049
sI4
F1.5109122157236308
sI5
F1.5076842301629156
sI6
F1.5098250230407912
sI7
F1.5093911146984766
sI8
F1.5187907479575615
sI9
F1.507033522334946
sI10
F1.514562476357943
sI11
F1.511706100489291
sI12
F1.5127842529397475
sI13
F1.5159395865805434
sI14
F1.516263894259537
ssg56
(dp402
I0
g370
sI1
g371
sI2
g372
sI3
g373
sI4
g374
sI5
g375
sI6
g376
sI7
g377
sI8
g378
sI9
g379
sI10
g380
sI11
g381
sI12
g382
sI13
g383
sI14
g384
ssg58
(dp403
I0
F4.350585
sI1
F-3.447556
sI2
F-3.759903
sI3
F-3.16352
sI4
F13.90262
sI5
F-4.624002
sI6
F-3.361393
sI7
F5.659461
sI8
F-3.952926
sI9
F-5.240014
sI10
F-3.643568
sI11
F-4.486613
sI12
F8.003225
sI13
F10.80898
sI14
F-4.907822
ssg60
(dp404
I0
F11.043666666666667
sI1
Fnan
sI2
Fnan
sI3
Fnan
sI4
Fnan
sI5
Fnan
sI6
Fnan
sI7
Fnan
sI8
Fnan
sI9
Fnan
sI10
Fnan
sI11
Fnan
sI12
Fnan
sI13
Fnan
sI14
Fnan
ssg62
(dp405
I0
F0.7163491954261935
sI1
Fnan
sI2
Fnan
sI3
Fnan
sI4
Fnan
sI5
Fnan
sI6
Fnan
sI7
Fnan
sI8
Fnan
sI9
Fnan
sI10
Fnan
sI11
Fnan
sI12
Fnan
sI13
Fnan
sI14
Fnan
ssg64
(dp406
I0
F3.128356
sI1
F-2.899155
sI2
F3.084331
sI3
F3.649558
sI4
F3.453958
sI5
F3.553736
sI6
F-2.151735
sI7
F0.9398035
sI8
F2.809738
sI9
F3.071417
sI10
F-1.284124
sI11
F4.450837
sI12
F1.890966
sI13
F2.76891
sI14
F3.304399
ssg66
(dp407
I0
F11.416133333333333
sI1
Fnan
sI2
Fnan
sI3
Fnan
sI4
Fnan
sI5
Fnan
sI6
Fnan
sI7
Fnan
sI8
Fnan
sI9
Fnan
sI10
Fnan
sI11
Fnan
sI12
Fnan
sI13
Fnan
sI14
Fnan
ssg68
(dp408
I0
g370
sI1
g371
sI2
g372
sI3
g373
sI4
g374
sI5
g375
sI6
g376
sI7
g377
sI8
g378
sI9
g379
sI10
g380
sI11
g381
sI12
g382
sI13
g383
sI14
g384
ssg70
(dp409
I0
F6611.366666666667
sI1
F6906.1066666666675
sI2
F6928.543333333333
sI3
F6957.533333333334
sI4
F6719.3133333333335
sI5
F6877.473333333333
sI6
F6989.3966666666665
sI7
F6643.1
sI8
F6850.153333333334
sI9
F6886.3
sI10
F6915.320000000001
sI11
F6967.6433333333325
sI12
F6570.953333333334
sI13
F6583.306666666667
sI14
F6855.54
ssg72
(dp410
I0
F1.028986
sI1
F1.0837629999999998
sI2
F1.051418
sI3
F1.0492139999999999
sI4
F1.025837
sI5
F1.085266
sI6
F1.053701
sI7
F1.028208
sI8
F1.05255
sI9
F1.088357
sI10
F1.0503
sI11
F1.082249
sI12
F1.0274450000000002
sI13
F1.026672
sI14
F1.086798
ssg74
(dp411
I0
F5735.14
sI1
F5943.626666666666
sI2
F5968.740000000001
sI3
F5991.303333333333
sI4
F5790.52
sI5
F5934.263333333333
sI6
F6038.223333333333
sI7
F5733.67
sI8
F5920.9366666666665
sI9
F5959.5633333333335
sI10
F6020.666666666667
sI11
F6038.253333333333
sI12
F5643.8133333333335
sI13
F5660.11
sI14
F5867.9400000000005
ssg76
(dp412
I0
F9353.45
sI1
F9723.956666666667
sI2
F9774.769999999999
sI3
F9806.556666666667
sI4
F9450.630000000001
sI5
F9658.026666666667
sI6
F9834.713333333335
sI7
F9340.693333333333
sI8
F9698.306666666667
sI9
F9679.573333333334
sI10
F9796.18
sI11
F9830.546666666667
sI12
F9239.153333333332
sI13
F9280.140000000001
sI14
F9646.076666666666
ssg78
(dp413
I0
F4.708771
sI1
F-4.240764
sI2
F-4.163532
sI3
F-3.845975
sI4
F14.06896
sI5
F-4.522308
sI6
F-3.725464
sI7
F6.466043
sI8
F-3.625227
sI9
F-4.869463
sI10
F-3.45886
sI11
F-4.647901
sI12
F9.055505
sI13
F11.04322
sI14
F-4.63488
ssg80
(dp414
I0
F11.604
sI1
F11.565
sI2
F11.56
sI3
F11.556
sI4
F11.593
sI5
F11.567
sI6
F11.548
sI7
F11.604
sI8
F11.569
sI9
F11.562
sI10
F11.551
sI11
F11.548
sI12
F11.621
sI13
F11.618
sI14
F11.579
ssg82
(dp415
I0
F0.002
sI1
F0.002
sI2
F0.002
sI3
F0.002
sI4
F0.002
sI5
F0.002
sI6
F0.002
sI7
F0.002
sI8
F0.002
sI9
F0.002
sI10
F0.002
sI11
F0.002
sI12
F0.002
sI13
F0.002
sI14
F0.002
ssg84
(dp416
I0
F0.8700517003730293
sI1
Fnan
sI2
Fnan
sI3
Fnan
sI4
Fnan
sI5
Fnan
sI6
Fnan
sI7
Fnan
sI8
Fnan
sI9
Fnan
sI10
Fnan
sI11
Fnan
sI12
Fnan
sI13
Fnan
sI14
Fnan
ssg86
(dp417
I0
F11.576333333333334
sI1
Fnan
sI2
Fnan
sI3
Fnan
sI4
Fnan
sI5
Fnan
sI6
Fnan
sI7
Fnan
sI8
Fnan
sI9
Fnan
sI10
Fnan
sI11
Fnan
sI12
Fnan
sI13
Fnan
sI14
Fnan
ssg88
(dp418
I0
F11.449
sI1
F11.402
sI2
F11.398
sI3
F11.394
sI4
F11.432
sI5
F11.406
sI6
F11.389
sI7
F11.444
sI8
F11.411
sI9
F11.405
sI10
F11.4
sI11
F11.392
sI12
F11.456
sI13
F11.454
sI14
F11.41
ssg90
(dp419
I0
F-2.758025
sI1
F4.034578
sI2
F-1.409276
sI3
F2.673161
sI4
F4.279665
sI5
F4.303037
sI6
F1.930427
sI7
F2.395679
sI8
F-3.210858
sI9
F3.661588
sI10
F3.60529
sI11
F-1.84382
sI12
F3.000573
sI13
F3.284672
sI14
F1.989297
ssg92
(dp420
I0
F0.02434181196057114
sI1
Fnan
sI2
Fnan
sI3
Fnan
sI4
Fnan
sI5
Fnan
sI6
Fnan
sI7
Fnan
sI8
Fnan
sI9
Fnan
sI10
Fnan
sI11
Fnan
sI12
Fnan
sI13
Fnan
sI14
Fnan
ssg94
(dp421
I0
F0.718472390851132
sI1
F0.7148050548614866
sI2
F0.714677367404551
sI3
F0.7147782353033577
sI4
F0.7162078283927196
sI5
F0.7177603741445173
sI6
F0.7178059740852066
sI7
F0.7174354523269195
sI8
F0.7155876337334914
sI9
F0.7194988411919927
sI10
F0.7205417427121045
sI11
F0.7189171373026896
sI12
F0.7139500640096883
sI13
F0.7136040633456284
sI14
F0.7111957717274168
ssg96
(dp422
I0
F30.0
sI1
F30.0
sI2
F30.0
sI3
F30.0
sI4
F30.0
sI5
F30.0
sI6
F30.0
sI7
F30.0
sI8
F30.0
sI9
F30.0
sI10
F30.0
sI11
F30.0
sI12
F30.0
sI13
F30.0
sI14
F30.0
ssg98
(dp423
I0
F0.003
sI1
F0.002
sI2
F0.002
sI3
F0.002
sI4
F0.003
sI5
F0.002
sI6
F0.002
sI7
F0.003
sI8
F0.002
sI9
F0.002
sI10
F0.002
sI11
F0.002
sI12
F0.003
sI13
F0.003
sI14
F0.002
ssg100
(dp424
I0
F0.002
sI1
F0.002
sI2
F0.002
sI3
F0.002
sI4
F0.002
sI5
F0.002
sI6
F0.002
sI7
F0.002
sI8
F0.002
sI9
F0.002
sI10
F0.002
sI11
F0.002
sI12
F0.002
sI13
F0.002
sI14
F0.002
ssg102
(dp425
I0
F4.540548
sI1
F-3.469045
sI2
F3.180585
sI3
F-2.913619
sI4
F3.837499
sI5
F2.451321
sI6
F2.002981
sI7
F3.762384
sI8
F3.954261
sI9
F3.278322
sI10
F3.235733
sI11
F1.762863
sI12
F3.168646
sI13
F2.666745
sI14
F-2.042601
ssg104
(dp426
I0
S"KIC8462852-20181109at013729_-25-1X1-030-g'_cal.fts.mag.1"
p427
sI1
S"KIC8462852-20181109at022900_-25-1X1-030-g'_cal.fts.mag.1"
p428
sI2
S"KIC8462852-20181109at020236_-25-1X1-030-g'_cal.fts.mag.1"
p429
sI3
S"KIC8462852-20181109at020024_-25-1X1-030-g'_cal.fts.mag.1"
p430
sI4
S"KIC8462852-20181109at013253_-25-1X1-030-g'_cal.fts.mag.1"
p431
sI5
S"KIC8462852-20181109at023005_-25-1X1-030-g'_cal.fts.mag.1"
p432
sI6
S"KIC8462852-20181109at020446_-25-1X1-030-g'_cal.fts.mag.1"
p433
sI7
S"KIC8462852-20181109at013626_-25-1X1-030-g'_cal.fts.mag.1"
p434
sI8
S"KIC8462852-20181109at020341_-25-1X1-030-g'_cal.fts.mag.1"
p435
sI9
S"KIC8462852-20181109at023213_-25-1X1-030-g'_cal.fts.mag.1"
p436
sI10
S"KIC8462852-20181109at020133_-25-1X1-030-g'_cal.fts.mag.1"
p437
sI11
S"KIC8462852-20181109at022751_-25-1X1-030-g'_cal.fts.mag.1"
p438
sI12
S"KIC8462852-20181109at013522_-25-1X1-030-g'_cal.fts.mag.1"
p439
sI13
S"KIC8462852-20181109at013416_-25-1X1-030-g'_cal.fts.mag.1"
p440
sI14
S"KIC8462852-20181109at023109_-25-1X1-030-g'_cal.fts.mag.1"
p441
ssg121
(dp442
I0
F0.003419115320356164
sI1
Fnan
sI2
Fnan
sI3
Fnan
sI4
Fnan
sI5
Fnan
sI6
Fnan
sI7
Fnan
sI8
Fnan
sI9
Fnan
sI10
Fnan
sI11
Fnan
sI12
Fnan
sI13
Fnan
sI14
Fnan
ssg123
(dp443
I0
F6278.1900000000005
sI1
F6549.59
sI2
F6560.916666666667
sI3
F6572.546666666666
sI4
F6376.803333333333
sI5
F6510.583333333333
sI6
F6651.15
sI7
F6271.123333333334
sI8
F6537.863333333333
sI9
F6535.820000000001
sI10
F6620.666666666667
sI11
F6612.183333333333
sI12
F6223.1900000000005
sI13
F6284.963333333333
sI14
F6459.986666666667
ssg125
(dp444
I0
F0.025283158331942928
sI1
Fnan
sI2
Fnan
sI3
Fnan
sI4
Fnan
sI5
Fnan
sI6
Fnan
sI7
Fnan
sI8
Fnan
sI9
Fnan
sI10
Fnan
sI11
Fnan
sI12
Fnan
sI13
Fnan
sI14
Fnan
ssg127
(dp445
I0
S"g'"
p446
sI1
S"g'"
p447
sI2
S"g'"
p448
sI3
S"g'"
p449
sI4
S"g'"
p450
sI5
S"g'"
p451
sI6
S"g'"
p452
sI7
S"g'"
p453
sI8
S"g'"
p454
sI9
S"g'"
p455
sI10
S"g'"
p456
sI11
S"g'"
p457
sI12
S"g'"
p458
sI13
S"g'"
p459
sI14
S"g'"
p460
ssg144
(dp461
I0
F0.002894272144017723
sI1
Fnan
sI2
Fnan
sI3
Fnan
sI4
Fnan
sI5
Fnan
sI6
Fnan
sI7
Fnan
sI8
Fnan
sI9
Fnan
sI10
Fnan
sI11
Fnan
sI12
Fnan
sI13
Fnan
sI14
Fnan
ssg146
(dp462
I0
F-2.228766
sI1
F-2.123303
sI2
F3.877406
sI3
F4.337677
sI4
F4.211996
sI5
F3.266986
sI6
F3.218757
sI7
F3.763563
sI8
F-0.693707
sI9
F2.454788
sI10
F1.022024
sI11
F-2.577063
sI12
F3.288059
sI13
F3.976642
sI14
F2.845736
ssg148
(dp463
I0
F1.5129325208540725
sI1
Fnan
sI2
Fnan
sI3
Fnan
sI4
Fnan
sI5
Fnan
sI6
Fnan
sI7
Fnan
sI8
Fnan
sI9
Fnan
sI10
Fnan
sI11
Fnan
sI12
Fnan
sI13
Fnan
sI14
Fnan
ssg150
(dp464
I0
F2458431.585138889
sI1
Fnan
sI2
Fnan
sI3
Fnan
sI4
Fnan
sI5
Fnan
sI6
Fnan
sI7
Fnan
sI8
Fnan
sI9
Fnan
sI10
Fnan
sI11
Fnan
sI12
Fnan
sI13
Fnan
sI14
Fnan
ssg152
(dp465
I0
F0.002894272144017723
sI1
Fnan
sI2
Fnan
sI3
Fnan
sI4
Fnan
sI5
Fnan
sI6
Fnan
sI7
Fnan
sI8
Fnan
sI9
Fnan
sI10
Fnan
sI11
Fnan
sI12
Fnan
sI13
Fnan
sI14
Fnan
ssg154
(dp466
I0
F6.321487
sI1
F-4.473621
sI2
F-2.937082
sI3
F-3.102042
sI4
F15.04336
sI5
F-4.128729
sI6
F-2.879081
sI7
F7.393202
sI8
F-2.383701
sI9
F-4.686794
sI10
F-3.911927
sI11
F-3.893641
sI12
F10.23881
sI13
F12.15621
sI14
F-4.524852
ssg156
(dp467
I0
F11.073
sI1
F11.03
sI2
F11.025
sI3
F11.021
sI4
F11.061
sI5
F11.038
sI6
F11.018
sI7
F11.074
sI8
F11.033
sI9
F11.035
sI10
F11.022
sI11
F11.019
sI12
F11.086
sI13
F11.081
sI14
F11.039
ssg158
(dp468
I0
F0.8700517003730293
sI1
Fnan
sI2
Fnan
sI3
Fnan
sI4
Fnan
sI5
Fnan
sI6
Fnan
sI7
Fnan
sI8
Fnan
sI9
Fnan
sI10
Fnan
sI11
Fnan
sI12
Fnan
sI13
Fnan
sI14
Fnan
sssS'V'
p469
(dp470
g3
(dp471
I0
F0.6930936824773377
sI1
Fnan
sI2
Fnan
sI3
Fnan
sI4
Fnan
sI5
Fnan
sI6
Fnan
sI7
Fnan
sI8
Fnan
sI9
Fnan
sI10
Fnan
sI11
Fnan
sI12
Fnan
sI13
Fnan
sI14
Fnan
ssg5
(dp472
I0
S'NoError'
p473
sI1
S'NoError'
p474
sI2
S'NoError'
p475
sI3
S'NoError'
p476
sI4
S'NoError'
p477
sI5
S'NoError'
p478
sI6
S'NoError'
p479
sI7
S'NoError'
p480
sI8
S'NoError'
p481
sI9
S'NoError'
p482
sI10
S'NoError'
p483
sI11
S'NoError'
p484
sI12
S'NoError'
p485
sI13
S'NoError'
p486
sI14
S'NoError'
p487
ssg22
(dp488
I0
F0.002
sI1
F0.002
sI2
F0.002
sI3
F0.003
sI4
F0.002
sI5
F0.002
sI6
F0.002
sI7
F0.002
sI8
F0.002
sI9
F0.002
sI10
F0.003
sI11
F0.002
sI12
F0.002
sI13
F0.002
sI14
F0.002
ssg24
(dp489
I0
F0.8863271851429295
sI1
F0.8849454386842242
sI2
F0.8877280690790023
sI3
F0.8919189619208161
sI4
F0.885870441201467
sI5
F0.88599213064263
sI6
F0.8898003981800321
sI7
F0.8862658163102796
sI8
F0.8878025952201446
sI9
F0.886617176609212
sI10
F0.8820864206452811
sI11
F0.8834663524046289
sI12
F0.8861742321862477
sI13
F0.8888452311912649
sI14
F0.8858407349686969
ssg26
(dp490
I0
F0.002405922039182374
sI1
Fnan
sI2
Fnan
sI3
Fnan
sI4
Fnan
sI5
Fnan
sI6
Fnan
sI7
Fnan
sI8
Fnan
sI9
Fnan
sI10
Fnan
sI11
Fnan
sI12
Fnan
sI13
Fnan
sI14
Fnan
ssg28
(dp491
I0
F0.8866454122924573
sI1
Fnan
sI2
Fnan
sI3
Fnan
sI4
Fnan
sI5
Fnan
sI6
Fnan
sI7
Fnan
sI8
Fnan
sI9
Fnan
sI10
Fnan
sI11
Fnan
sI12
Fnan
sI13
Fnan
sI14
Fnan
ssg30
(dp492
I0
F11.452
sI1
F11.461
sI2
F11.571
sI3
F11.651
sI4
F11.456
sI5
F11.587
sI6
F11.47
sI7
F11.451
sI8
F11.465
sI9
F11.465
sI10
F11.649
sI11
F11.444
sI12
F11.446
sI13
F11.467
sI14
F11.555
ssg32
(dp493
I0
F-1.8965
sI1
F-0.4289058
sI2
F-0.9639026
sI3
F0.3617433
sI4
F-2.006637
sI5
F-0.9428756
sI6
F-0.6297621
sI7
F-1.123189
sI8
F-0.3118569
sI9
F-0.1754314
sI10
F-0.1741992
sI11
F-2.033439
sI12
F-2.546142
sI13
F-0.05978239
sI14
F-0.4427429
ssg34
(dp494
I0
F2458431.600972222
sI1
F2458431.58125
sI2
F2458431.6193402777
sI3
F2458431.617777778
sI4
F2458431.601736111
sI5
F2458431.6200925927
sI6
F2458431.5820023147
sI7
F2458431.600208333
sI8
F2458431.5827546297
sI9
F2458431.5797453704
sI10
F2458431.6185300928
sI11
F2458431.598715278
sI12
F2458431.5994560183
sI13
F2458431.5804976854
sI14
F2458431.6208449076
ssg36
(dp495
I0
F0.9991025933333333
sI1
Fnan
sI2
Fnan
sI3
Fnan
sI4
Fnan
sI5
Fnan
sI6
Fnan
sI7
Fnan
sI8
Fnan
sI9
Fnan
sI10
Fnan
sI11
Fnan
sI12
Fnan
sI13
Fnan
sI14
Fnan
ssg38
(dp496
I0
F-0.3908253333333332
sI1
Fnan
sI2
Fnan
sI3
Fnan
sI4
Fnan
sI5
Fnan
sI6
Fnan
sI7
Fnan
sI8
Fnan
sI9
Fnan
sI10
Fnan
sI11
Fnan
sI12
Fnan
sI13
Fnan
sI14
Fnan
ssg40
(dp497
I0
F0.6948943097200766
sI1
F0.6955758891896344
sI2
F0.6906174868692992
sI3
F0.6880774066963408
sI4
F0.6928674726361325
sI5
F0.6887631726214404
sI6
F0.6917629481222156
sI7
F0.6940013240573798
sI8
F0.6944082384496892
sI9
F0.697312466134876
sI10
F0.6874517170966731
sI11
F0.6971563402599592
sI12
F0.6943462373414433
sI13
F0.6959129766815715
sI14
F0.687615285902669
ssg42
(dp498
I0
F0.0031357256329888924
sI1
Fnan
sI2
Fnan
sI3
Fnan
sI4
Fnan
sI5
Fnan
sI6
Fnan
sI7
Fnan
sI8
Fnan
sI9
Fnan
sI10
Fnan
sI11
Fnan
sI12
Fnan
sI13
Fnan
sI14
Fnan
ssg44
(dp499
I0
F0.5832507333333332
sI1
Fnan
sI2
Fnan
sI3
Fnan
sI4
Fnan
sI5
Fnan
sI6
Fnan
sI7
Fnan
sI8
Fnan
sI9
Fnan
sI10
Fnan
sI11
Fnan
sI12
Fnan
sI13
Fnan
sI14
Fnan
ssg46
(dp500
I0
g473
sI1
g474
sI2
g475
sI3
g476
sI4
g477
sI5
g478
sI6
g479
sI7
g480
sI8
g481
sI9
g482
sI10
g483
sI11
g484
sI12
g485
sI13
g486
sI14
g487
ssg48
(dp501
I0
F0.0036222068673230664
sI1
Fnan
sI2
Fnan
sI3
Fnan
sI4
Fnan
sI5
Fnan
sI6
Fnan
sI7
Fnan
sI8
Fnan
sI9
Fnan
sI10
Fnan
sI11
Fnan
sI12
Fnan
sI13
Fnan
sI14
Fnan
ssg50
(dp502
I0
F0.07009164069443741
sI1
Fnan
sI2
Fnan
sI3
Fnan
sI4
Fnan
sI5
Fnan
sI6
Fnan
sI7
Fnan
sI8
Fnan
sI9
Fnan
sI10
Fnan
sI11
Fnan
sI12
Fnan
sI13
Fnan
sI14
Fnan
ssg52
(dp503
I0
F1.0496122
sI1
Fnan
sI2
Fnan
sI3
Fnan
sI4
Fnan
sI5
Fnan
sI6
Fnan
sI7
Fnan
sI8
Fnan
sI9
Fnan
sI10
Fnan
sI11
Fnan
sI12
Fnan
sI13
Fnan
sI14
Fnan
ssg54
(dp504
I0
F1.495639507213037
sI1
F1.5060997516200605
sI2
F1.4972960656097853
sI3
F1.5105400942958167
sI4
F1.503336719020602
sI5
F1.504554726930459
sI6
F1.4997500985198495
sI7
F1.504209168771268
sI8
F1.4963973602577658
sI9
F1.5033789511525677
sI10
F1.5206753122639391
sI11
F1.505723951957423
sI12
F1.499799076525583
sI13
F1.5016700714781435
sI14
F1.5107900959087335
ssg56
(dp505
I0
g473
sI1
g474
sI2
g475
sI3
g476
sI4
g477
sI5
g478
sI6
g479
sI7
g480
sI8
g481
sI9
g482
sI10
g483
sI11
g484
sI12
g485
sI13
g486
sI14
g487
ssg58
(dp506
I0
F-1.05395
sI1
F0.2897674
sI2
F0.6030817
sI3
F0.8033158
sI4
F-1.888983
sI5
F-0.9343679
sI6
F-0.2214754
sI7
F-1.086847
sI8
F-0.6815238
sI9
F0.1636112
sI10
F1.033398
sI11
F-1.620111
sI12
F-1.544182
sI13
F0.5148319
sI14
F-0.6697316
ssg60
(dp507
I0
F10.832733333333334
sI1
Fnan
sI2
Fnan
sI3
Fnan
sI4
Fnan
sI5
Fnan
sI6
Fnan
sI7
Fnan
sI8
Fnan
sI9
Fnan
sI10
Fnan
sI11
Fnan
sI12
Fnan
sI13
Fnan
sI14
Fnan
ssg62
(dp508
I0
F0.7160148817969133
sI1
Fnan
sI2
Fnan
sI3
Fnan
sI4
Fnan
sI5
Fnan
sI6
Fnan
sI7
Fnan
sI8
Fnan
sI9
Fnan
sI10
Fnan
sI11
Fnan
sI12
Fnan
sI13
Fnan
sI14
Fnan
ssg64
(dp509
I0
F-1.585424
sI1
F1.507884
sI2
F-3.939442
sI3
F-2.568548
sI4
F3.231193
sI5
F-2.052368
sI6
F-2.840521
sI7
F2.048746
sI8
F-2.027094
sI9
F-2.083523
sI10
F2.165902
sI11
F3.81213
sI12
F2.467025
sI13
F-1.331952
sI14
F-2.666388
ssg66
(dp510
I0
F11.196133333333334
sI1
Fnan
sI2
Fnan
sI3
Fnan
sI4
Fnan
sI5
Fnan
sI6
Fnan
sI7
Fnan
sI8
Fnan
sI9
Fnan
sI10
Fnan
sI11
Fnan
sI12
Fnan
sI13
Fnan
sI14
Fnan
ssg68
(dp511
I0
g473
sI1
g474
sI2
g475
sI3
g476
sI4
g477
sI5
g478
sI6
g479
sI7
g480
sI8
g481
sI9
g482
sI10
g483
sI11
g484
sI12
g485
sI13
g486
sI14
g487
ssg70
(dp512
I0
F8739.74
sI1
F8656.366666666667
sI2
F7895.256666666667
sI3
F7383.746666666667
sI4
F8729.67
sI5
F7789.9366666666665
sI6
F8663.81
sI7
F8764.68
sI8
F8657.08
sI9
F8610.573333333334
sI10
F7343.826666666666
sI11
F8761.076666666666
sI12
F8797.816666666668
sI13
F8626.359999999999
sI14
F8031.6433333333325
ssg72
(dp513
I0
F1.078792
sI1
F1.0457239999999999
sI2
F1.119828
sI3
F1.115939
sI4
F1.08028
sI5
F1.1217549999999998
sI6
F1.046792
sI7
F1.077313
sI8
F1.047874
sI9
F1.043635
sI10
F1.117839
sI11
F1.0744040000000001
sI12
F1.0758450000000002
sI13
F1.04467
sI14
F1.1237
ssg74
(dp514
I0
F7543.97
sI1
F7441.283333333334
sI2
F6791.983333333334
sI3
F6255.6
sI4
F7505.34
sI5
F6690.990000000001
sI6
F7415.86
sI7
F7526.343333333333
sI8
F7450.553333333333
sI9
F7393.406666666667
sI10
F6287.003333333333
sI11
F7551.953333333334
sI12
F7576.576666666666
sI13
F7386.926666666666
sI14
F6873.846666666666
ssg76
(dp515
I0
F12177.28
sI1
F12122.333333333334
sI2
F10995.573333333334
sI3
F10301.390000000001
sI4
F12203.343333333332
sI5
F10893.673333333334
sI6
F12057.743333333334
sI7
F12252.553333333333
sI8
F12051.71
sI9
F12030.023333333334
sI10
F10364.033333333333
sI11
F12281.46
sI12
F12279.15
sI13
F12023.336666666666
sI14
F11259.533333333333
ssg78
(dp516
I0
F-1.803182
sI1
F0.3138856
sI2
F-0.5071675
sI3
F0.6631032
sI4
F-2.246986
sI5
F-0.8729123
sI6
F-0.07826367
sI7
F-1.795646
sI8
F-0.05972131
sI9
F0.150949
sI10
F0.8650391
sI11
F-2.241278
sI12
F-1.718908
sI13
F-0.4197622
sI14
F-0.7898504
ssg80
(dp517
I0
F11.306
sI1
F11.321
sI2
F11.42
sI3
F11.509
sI4
F11.312
sI5
F11.436
sI6
F11.325
sI7
F11.309
sI8
F11.32
sI9
F11.328
sI10
F11.504
sI11
F11.305
sI12
F11.301
sI13
F11.329
sI14
F11.407
ssg82
(dp518
I0
F0.002
sI1
F0.002
sI2
F0.002
sI3
F0.002
sI4
F0.002
sI5
F0.002
sI6
F0.002
sI7
F0.002
sI8
F0.002
sI9
F0.002
sI10
F0.002
sI11
F0.002
sI12
F0.002
sI13
F0.002
sI14
F0.002
ssg84
(dp519
I0
F0.69271755145196
sI1
Fnan
sI2
Fnan
sI3
Fnan
sI4
Fnan
sI5
Fnan
sI6
Fnan
sI7
Fnan
sI8
Fnan
sI9
Fnan
sI10
Fnan
sI11
Fnan
sI12
Fnan
sI13
Fnan
sI14
Fnan
ssg86
(dp520
I0
F11.362133333333333
sI1
Fnan
sI2
Fnan
sI3
Fnan
sI4
Fnan
sI5
Fnan
sI6
Fnan
sI7
Fnan
sI8
Fnan
sI9
Fnan
sI10
Fnan
sI11
Fnan
sI12
Fnan
sI13
Fnan
sI14
Fnan
ssg88
(dp521
I0
F11.146
sI1
F11.157
sI2
F11.257
sI3
F11.329
sI4
F11.148
sI5
F11.271
sI6
F11.156
sI7
F11.143
sI8
F11.157
sI9
F11.162
sI10
F11.335
sI11
F11.144
sI12
F11.139
sI13
F11.16
sI14
F11.238
ssg90
(dp522
I0
F-2.374616
sI1
F1.920214
sI2
F-2.638112
sI3
F-1.512249
sI4
F2.879338
sI5
F-4.304833
sI6
F0.9638189
sI7
F3.328465
sI8
F3.877384
sI9
F4.124458
sI10
F5.108397
sI11
F2.297671
sI12
F3.068639
sI13
F2.297373
sI14
F-4.049409
ssg92
(dp523
I0
F0.06867258411858272
sI1
Fnan
sI2
Fnan
sI3
Fnan
sI4
Fnan
sI5
Fnan
sI6
Fnan
sI7
Fnan
sI8
Fnan
sI9
Fnan
sI10
Fnan
sI11
Fnan
sI12
Fnan
sI13
Fnan
sI14
Fnan
ssg94
(dp524
I0
F0.7213235919839441
sI1
F0.7162414716352162
sI2
F0.7190772807053298
sI3
F0.707441521986165
sI4
F0.7170816623948392
sI5
F0.7162416684998242
sI6
F0.7157629431255635
sI7
F0.7162068588158607
sI8
F0.7195546754139989
sI9
F0.7163946649475087
sI10
F0.7100805329761284
sI11
F0.7177797480373486
sI12
F0.7189437442769278
sI13
F0.7154513488414439
sI14
F0.7126415133135995
ssg96
(dp525
I0
F30.0
sI1
F30.0
sI2
F30.0
sI3
F30.0
sI4
F30.0
sI5
F30.0
sI6
F30.0
sI7
F30.0
sI8
F30.0
sI9
F30.0
sI10
F30.0
sI11
F30.0
sI12
F30.0
sI13
F30.0
sI14
F30.0
ssg98
(dp526
I0
F0.002
sI1
F0.002
sI2
F0.002
sI3
F0.002
sI4
F0.002
sI5
F0.002
sI6
F0.002
sI7
F0.002
sI8
F0.002
sI9
F0.002
sI10
F0.002
sI11
F0.002
sI12
F0.002
sI13
F0.002
sI14
F0.002
ssg100
(dp527
I0
F0.002
sI1
F0.002
sI2
F0.002
sI3
F0.002
sI4
F0.002
sI5
F0.002
sI6
F0.002
sI7
F0.002
sI8
F0.002
sI9
F0.002
sI10
F0.002
sI11
F0.002
sI12
F0.002
sI13
F0.002
sI14
F0.002
ssg102
(dp528
I0
F-3.416647
sI1
F3.59434
sI2
F-2.645018
sI3
F-1.735173
sI4
F2.600465
sI5
F4.271146
sI6
F1.627275
sI7
F1.442654
sI8
F4.130418
sI9
F2.221183
sI10
F-2.044977
sI11
F2.456772
sI12
F1.293797
sI13
F-1.886637
sI14
F3.834585
ssg104
(dp529
I0
S'KIC8462852-20181109at022524_-25-1X1-030-V_cal.fts.mag.1'
p530
sI1
S'KIC8462852-20181109at015700_-25-1X1-030-V_cal.fts.mag.1'
p531
sI2
S'KIC8462852-20181109at025151_-25-1X1-030-V_cal.fts.mag.1'
p532
sI3
S'KIC8462852-20181109at024929_-25-1X1-030-V_cal.fts.mag.1'
p533
sI4
S'KIC8462852-20181109at022630_-25-1X1-030-V_cal.fts.mag.1'
p534
sI5
S'KIC8462852-20181109at025256_-25-1X1-030-V_cal.fts.mag.1'
p535
sI6
S'KIC8462852-20181109at015804_-25-1X1-030-V_cal.fts.mag.1'
p536
sI7
S'KIC8462852-20181109at022418_-25-1X1-030-V_cal.fts.mag.1'
p537
sI8
S'KIC8462852-20181109at015910_-25-1X1-030-V_cal.fts.mag.1'
p538
sI9
S'KIC8462852-20181109at015443_-25-1X1-030-V_cal.fts.mag.1'
p539
sI10
S'KIC8462852-20181109at025041_-25-1X1-030-V_cal.fts.mag.1'
p540
sI11
S'KIC8462852-20181109at022201_-25-1X1-030-V_cal.fts.mag.1'
p541
sI12
S'KIC8462852-20181109at022313_-25-1X1-030-V_cal.fts.mag.1'
p542
sI13
S'KIC8462852-20181109at015555_-25-1X1-030-V_cal.fts.mag.1'
p543
sI14
S'KIC8462852-20181109at025401_-25-1X1-030-V_cal.fts.mag.1'
p544
ssg121
(dp545
I0
F0.006487789435415623
sI1
Fnan
sI2
Fnan
sI3
Fnan
sI4
Fnan
sI5
Fnan
sI6
Fnan
sI7
Fnan
sI8
Fnan
sI9
Fnan
sI10
Fnan
sI11
Fnan
sI12
Fnan
sI13
Fnan
sI14
Fnan
ssg123
(dp546
I0
F6592.46
sI1
F6543.046666666666
sI2
F5912.333333333333
sI3
F5491.026666666667
sI4
F6568.003333333333
sI5
F5825.696666666667
sI6
F6488.14
sI7
F6603.093333333333
sI8
F6518.026666666667
sI9
F6516.153333333334
sI10
F5498.4366666666665
sI11
F6644.943333333333
sI12
F6631.826666666666
sI13
F6503.683333333333
sI14
F5997.156666666667
ssg125
(dp547
I0
F0.07324700546455007
sI1
Fnan
sI2
Fnan
sI3
Fnan
sI4
Fnan
sI5
Fnan
sI6
Fnan
sI7
Fnan
sI8
Fnan
sI9
Fnan
sI10
Fnan
sI11
Fnan
sI12
Fnan
sI13
Fnan
sI14
Fnan
ssg127
(dp548
I0
g469
sI1
g469
sI2
g469
sI3
g469
sI4
g469
sI5
g469
sI6
g469
sI7
g469
sI8
g469
sI9
g469
sI10
g469
sI11
g469
sI12
g469
sI13
g469
sI14
g469
ssg144
(dp549
I0
F0.003457584918575119
sI1
Fnan
sI2
Fnan
sI3
Fnan
sI4
Fnan
sI5
Fnan
sI6
Fnan
sI7
Fnan
sI8
Fnan
sI9
Fnan
sI10
Fnan
sI11
Fnan
sI12
Fnan
sI13
Fnan
sI14
Fnan
ssg146
(dp550
I0
F1.508073
sI1
F-1.719163
sI2
F-2.193464
sI3
F-2.233464
sI4
F4.038856
sI5
F3.233135
sI6
F-3.02813
sI7
F3.754409
sI8
F3.200658
sI9
F-2.1005
sI10
F-3.389745
sI11
F3.045217
sI12
F3.133635
sI13
F-2.34336
sI14
F3.842604
ssg148
(dp551
I0
F1.5039907301016693
sI1
Fnan
sI2
Fnan
sI3
Fnan
sI4
Fnan
sI5
Fnan
sI6
Fnan
sI7
Fnan
sI8
Fnan
sI9
Fnan
sI10
Fnan
sI11
Fnan
sI12
Fnan
sI13
Fnan
sI14
Fnan
ssg150
(dp552
I0
F2458431.600208333
sI1
Fnan
sI2
Fnan
sI3
Fnan
sI4
Fnan
sI5
Fnan
sI6
Fnan
sI7
Fnan
sI8
Fnan
sI9
Fnan
sI10
Fnan
sI11
Fnan
sI12
Fnan
sI13
Fnan
sI14
Fnan
ssg152
(dp553
I0
F0.003457584918575119
sI1
Fnan
sI2
Fnan
sI3
Fnan
sI4
Fnan
sI5
Fnan
sI6
Fnan
sI7
Fnan
sI8
Fnan
sI9
Fnan
sI10
Fnan
sI11
Fnan
sI12
Fnan
sI13
Fnan
sI14
Fnan
ssg154
(dp554
I0
F-0.8220918
sI1
F1.344066
sI2
F1.31677
sI3
F1.698189
sI4
F-0.9901997
sI5
F0.8504306
sI6
F0.6173069
sI7
F-0.9199153
sI8
F0.661424
sI9
F1.536074
sI10
F1.032265
sI11
F-1.660896
sI12
F-0.9854611
sI13
F0.4768112
sI14
F0.5468405
ssg156
(dp555
I0
F10.786
sI1
F10.791
sI2
F10.897
sI3
F10.968
sI4
F10.784
sI5
F10.907
sI6
F10.797
sI7
F10.779
sI8
F10.797
sI9
F10.799
sI10
F10.961
sI11
F10.777
sI12
F10.777
sI13
F10.8
sI14
F10.871
ssg158
(dp556
I0
F0.69271755145196
sI1
Fnan
sI2
Fnan
sI3
Fnan
sI4
Fnan
sI5
Fnan
sI6
Fnan
sI7
Fnan
sI8
Fnan
sI9
Fnan
sI10
Fnan
sI11
Fnan
sI12
Fnan
sI13
Fnan
sI14
Fnan
sss.