(dp0
S'i'
p1
(dp2
S'sigmean'
p3
(dp4
I0
F0.4395767030891339
sI1
Fnan
sI2
Fnan
sI3
Fnan
sI4
Fnan
sI5
Fnan
sI6
Fnan
sI7
Fnan
sI8
Fnan
sI9
Fnan
ssS'ref3flag'
p5
(dp6
I0
S'NoError'
p7
sI1
S'NoError'
p8
sI2
S'NoError'
p9
sI3
S'NoError'
p10
sI4
S'NoError'
p11
sI5
S'NoError'
p12
sI6
S'NoError'
p13
sI7
S'NoError'
p14
sI8
S'NoError'
p15
sI9
S'NoError'
p16
ssS'tabbyerr'
p17
(dp18
I0
F0.003
sI1
F0.003
sI2
F0.003
sI3
F0.003
sI4
F0.003
sI5
F0.003
sI6
F0.003
sI7
F0.003
sI8
F0.003
sI9
F0.003
ssS'ref2rel'
p19
(dp20
I0
F0.9097043574951246
sI1
F0.9112190562181787
sI2
F0.9088066799217566
sI3
F0.9126664110362301
sI4
F0.9080178183700774
sI5
F0.9087744932947576
sI6
F0.9099232435031628
sI7
F0.9141516484701858
sI8
F0.9122568064498567
sI9
F0.9100345480101648
ssS'ref2err'
p21
(dp22
I0
F0.0019660662115914985
sI1
Fnan
sI2
Fnan
sI3
Fnan
sI4
Fnan
sI5
Fnan
sI6
Fnan
sI7
Fnan
sI8
Fnan
sI9
Fnan
ssS'ref2mean'
p23
(dp24
I0
F0.9105555062769495
sI1
Fnan
sI2
Fnan
sI3
Fnan
sI4
Fnan
sI5
Fnan
sI6
Fnan
sI7
Fnan
sI8
Fnan
sI9
Fnan
ssS'tabbymag'
p25
(dp26
I0
F11.919
sI1
F11.924
sI2
F11.931
sI3
F11.913
sI4
F11.918
sI5
F11.919
sI6
F11.958
sI7
F11.925
sI8
F11.916
sI9
F11.925
ssS'tabbybkg'
p27
(dp28
I0
F15.25749
sI1
F14.6797
sI2
F15.24681
sI3
F12.83912
sI4
F14.37078
sI5
F11.98487
sI6
F15.33538
sI7
F11.93279
sI8
F13.01292
sI9
F11.8443
ssS'JD'
p29
(dp30
I0
F2458441.601423611
sI1
F2458441.602175926
sI2
F2458441.602916667
sI3
F2458441.570127315
sI4
F2458441.6006712965
sI5
F2458441.5708564813
sI6
F2458441.5999305556
sI7
F2458441.5715972222
sI8
F2458441.569386574
sI9
F2458441.572337963
ssS'ref3rmsmean'
p31
(dp32
I0
F1.0566394
sI1
Fnan
sI2
Fnan
sI3
Fnan
sI4
Fnan
sI5
Fnan
sI6
Fnan
sI7
Fnan
sI8
Fnan
sI9
Fnan
ssS'ref1rmsmean'
p33
(dp34
I0
F-0.5260552000000001
sI1
Fnan
sI2
Fnan
sI3
Fnan
sI4
Fnan
sI5
Fnan
sI6
Fnan
sI7
Fnan
sI8
Fnan
sI9
Fnan
ssS'relflux'
p35
(dp36
I0
F0.4399875140484055
sI1
F0.4377472453285524
sI2
F0.4400490732905239
sI3
F0.44056060907537187
sI4
F0.44098382869792235
sI5
F0.4399996216536288
sI6
F0.43786318678527003
sI7
F0.4413636819799709
sI8
F0.438758827812035
sI9
F0.4384534422196579
ssS'sigerr'
p37
(dp38
I0
F0.001221712534097865
sI1
Fnan
sI2
Fnan
sI3
Fnan
sI4
Fnan
sI5
Fnan
sI6
Fnan
sI7
Fnan
sI8
Fnan
sI9
Fnan
ssS'tabbyrmsmean'
p39
(dp40
I0
F0.5764112800000001
sI1
Fnan
sI2
Fnan
sI3
Fnan
sI4
Fnan
sI5
Fnan
sI6
Fnan
sI7
Fnan
sI8
Fnan
sI9
Fnan
ssS'tabbyflag'
p41
(dp42
I0
g7
sI1
g8
sI2
g9
sI3
g10
sI4
g11
sI5
g12
sI6
g13
sI7
g14
sI8
g15
sI9
g16
ssS'ref1err'
p43
(dp44
I0
F0.0014711789480407645
sI1
Fnan
sI2
Fnan
sI3
Fnan
sI4
Fnan
sI5
Fnan
sI6
Fnan
sI7
Fnan
sI8
Fnan
sI9
Fnan
ssS'ref2magmeanerr'
p45
(dp46
I0
F0.0120374415886433
sI1
Fnan
sI2
Fnan
sI3
Fnan
sI4
Fnan
sI5
Fnan
sI6
Fnan
sI7
Fnan
sI8
Fnan
sI9
Fnan
ssS'ref2rmsmean'
p47
(dp48
I0
F1.5994264999999999
sI1
Fnan
sI2
Fnan
sI3
Fnan
sI4
Fnan
sI5
Fnan
sI6
Fnan
sI7
Fnan
sI8
Fnan
sI9
Fnan
ssS'ref3rel'
p49
(dp50
I0
F1.4991822968413058
sI1
F1.5014746643979011
sI2
F1.5024656844287156
sI3
F1.4971091478194636
sI4
F1.5021576198954807
sI5
F1.5013705178360839
sI6
F1.5007257742604279
sI7
F1.4992153046072274
sI8
F1.5027597077900434
sI9
F1.5022473825215499
ssS'ref1flag'
p51
(dp52
I0
g7
sI1
g8
sI2
g9
sI3
g10
sI4
g11
sI5
g12
sI6
g13
sI7
g14
sI8
g15
sI9
g16
ssS'ref2bkg'
p53
(dp54
I0
F16.11819
sI1
F15.61412
sI2
F16.52238
sI3
F13.44284
sI4
F16.23048
sI5
F13.32598
sI6
F16.42011
sI7
F12.18497
sI8
F13.14968
sI9
F12.82896
ssS'ref3magmean'
p55
(dp56
I0
F10.7592
sI1
Fnan
sI2
Fnan
sI3
Fnan
sI4
Fnan
sI5
Fnan
sI6
Fnan
sI7
Fnan
sI8
Fnan
sI9
Fnan
ssS'ref1mean'
p57
(dp58
I0
F0.6970211114624664
sI1
Fnan
sI2
Fnan
sI3
Fnan
sI4
Fnan
sI5
Fnan
sI6
Fnan
sI7
Fnan
sI8
Fnan
sI9
Fnan
ssS'ref1rms'
p59
(dp60
I0
F-3.243912
sI1
F-2.751696
sI2
F2.846805
sI3
F-3.111693
sI4
F-3.81758
sI5
F3.314179
sI6
F-1.630046
sI7
F2.669796
sI8
F3.195783
sI9
F-2.732188
ssS'ref2magmean'
p61
(dp62
I0
F11.1013
sI1
Fnan
sI2
Fnan
sI3
Fnan
sI4
Fnan
sI5
Fnan
sI6
Fnan
sI7
Fnan
sI8
Fnan
sI9
Fnan
ssS'ref2flag'
p63
(dp64
I0
g7
sI1
g8
sI2
g9
sI3
g10
sI4
g11
sI5
g12
sI6
g13
sI7
g14
sI8
g15
sI9
g16
ssS'ref2'
p65
(dp66
I0
F9141.173333333334
sI1
F9156.843333333332
sI2
F9038.106666666667
sI3
F9207.296666666667
sI4
F9117.359999999999
sI5
F9138.466666666667
sI6
F8862.356666666667
sI7
F9096.116666666667
sI8
F9216.119999999999
sI9
F9124.576666666666
ssS'airmass'
p67
(dp68
I0
F1.1451559999999998
sI1
F1.147305
sI2
F1.149461
sI3
F1.0720040000000002
sI4
F1.143023
sI5
F1.073375
sI6
F1.140893
sI7
F1.074786
sI8
F1.070656
sI9
F1.076202
ssS'ref1'
p69
(dp70
I0
F7570.27
sI1
F7553.173333333334
sI2
F7480.633333333333
sI3
F7597.4366666666665
sI4
F7557.65
sI5
F7569.33
sI6
F7329.546666666666
sI7
F7477.193333333333
sI8
F7582.759999999999
sI9
F7537.77
ssS'ref3'
p71
(dp72
I0
F12526.75
sI1
F12544.833333333334
sI2
F12409.42
sI3
F12579.26
sI4
F12524.246666666668
sI5
F12542.296666666667
sI6
F12149.803333333333
sI7
F12423.480000000001
sI8
F12622.34
sI9
F12515.483333333334
ssS'ref1bkg'
p73
(dp74
I0
F16.14023
sI1
F16.30971
sI2
F15.34647
sI3
F14.00959
sI4
F16.48854
sI5
F12.57149
sI6
F16.11807
sI7
F13.44121
sI8
F14.35159
sI9
F12.73866
ssS'ref1mag'
p75
(dp76
I0
F11.302
sI1
F11.305
sI2
F11.315
sI3
F11.298
sI4
F11.304
sI5
F11.302
sI6
F11.337
sI7
F11.316
sI8
F11.3
sI9
F11.307
ssS'ref3magerr'
p77
(dp78
I0
F0.002
sI1
F0.002
sI2
F0.002
sI3
F0.002
sI4
F0.002
sI5
F0.002
sI6
F0.002
sI7
F0.002
sI8
F0.002
sI9
F0.002
ssS'tabbymagmean'
p79
(dp80
I0
F0.4395767030891339
sI1
Fnan
sI2
Fnan
sI3
Fnan
sI4
Fnan
sI5
Fnan
sI6
Fnan
sI7
Fnan
sI8
Fnan
sI9
Fnan
ssS'ref1magmean'
p81
(dp82
I0
F11.3086
sI1
Fnan
sI2
Fnan
sI3
Fnan
sI4
Fnan
sI5
Fnan
sI6
Fnan
sI7
Fnan
sI8
Fnan
sI9
Fnan
ssS'ref2mag'
p83
(dp84
I0
F11.097
sI1
F11.096
sI2
F11.11
sI3
F11.09
sI4
F11.1
sI5
F11.098
sI6
F11.131
sI7
F11.103
sI8
F11.089
sI9
F11.099
ssS'ref3rms'
p85
(dp86
I0
F-2.45472
sI1
F2.965341
sI2
F-1.473038
sI3
F-3.13678
sI4
F2.336988
sI5
F3.474454
sI6
F-2.552424
sI7
F3.274651
sI8
F3.464655
sI9
F4.667267
ssS'ref3magmeanerr'
p87
(dp88
I0
F0.011858424103658161
sI1
Fnan
sI2
Fnan
sI3
Fnan
sI4
Fnan
sI5
Fnan
sI6
Fnan
sI7
Fnan
sI8
Fnan
sI9
Fnan
ssS'ref1rel'
p89
(dp90
I0
F0.698753626135838
sI1
F0.6960912236735012
sI2
F0.6975753847607603
sI3
F0.6974426278468052
sI4
F0.6984370538108539
sI5
F0.698253090412407
sI6
F0.697648092025443
sI7
F0.6949194679763978
sI8
F0.6944409083790707
sI9
F0.6966496396035872
ssS'exposure'
p91
(dp92
I0
F30.0
sI1
F30.0
sI2
F30.0
sI3
F30.0
sI4
F30.0
sI5
F30.0
sI6
F30.0
sI7
F30.0
sI8
F30.0
sI9
F30.0
ssS'ref1magerr'
p93
(dp94
I0
F0.002
sI1
F0.002
sI2
F0.002
sI3
F0.002
sI4
F0.002
sI5
F0.002
sI6
F0.002
sI7
F0.002
sI8
F0.002
sI9
F0.002
ssS'ref2magerr'
p95
(dp96
I0
F0.002
sI1
F0.002
sI2
F0.002
sI3
F0.002
sI4
F0.002
sI5
F0.002
sI6
F0.002
sI7
F0.002
sI8
F0.002
sI9
F0.002
ssS'ref2rms'
p97
(dp98
I0
F1.971935
sI1
F4.167852
sI2
F3.701804
sI3
F-3.024398
sI4
F4.042653
sI5
F-2.883302
sI6
F3.139249
sI7
F3.511041
sI8
F3.743354
sI9
F-2.375923
ssS'name'
p99
(dp100
I0
S"KIC8462852-20181119at022603_-35-1X1-030-i'_cal.fts.mag.1"
p101
sI1
S"KIC8462852-20181119at022708_-35-1X1-030-i'_cal.fts.mag.1"
p102
sI2
S"KIC8462852-20181119at022812_-35-1X1-030-i'_cal.fts.mag.1"
p103
sI3
S"KIC8462852-20181119at014059_-35-1X1-030-i'_cal.fts.mag.1"
p104
sI4
S"KIC8462852-20181119at022458_-35-1X1-030-i'_cal.fts.mag.1"
p105
sI5
S"KIC8462852-20181119at014202_-35-1X1-030-i'_cal.fts.mag.1"
p106
sI6
S"KIC8462852-20181119at022352_-35-1X1-030-i'_cal.fts.mag.1"
p107
sI7
S"KIC8462852-20181119at014305_-35-1X1-030-i'_cal.fts.mag.1"
p108
sI8
S"KIC8462852-20181119at013953_-35-1X1-030-i'_cal.fts.mag.1"
p109
sI9
S"KIC8462852-20181119at014410_-35-1X1-030-i'_cal.fts.mag.1"
p110
ssS'ref3err'
p111
(dp112
I0
F0.0018269480164385039
sI1
Fnan
sI2
Fnan
sI3
Fnan
sI4
Fnan
sI5
Fnan
sI6
Fnan
sI7
Fnan
sI8
Fnan
sI9
Fnan
ssS'tabby'
p113
(dp114
I0
F4288.1466666666665
sI1
F4268.743333333334
sI2
F4243.27
sI3
F4315.143333333333
sI4
F4292.133333333333
sI5
F4290.01
sI6
F4136.596666666666
sI7
F4266.043333333333
sI8
F4302.94
sI9
F4264.373333333333
ssS'ref1magmeanerr'
p115
(dp116
I0
F0.011606511582345038
sI1
Fnan
sI2
Fnan
sI3
Fnan
sI4
Fnan
sI5
Fnan
sI6
Fnan
sI7
Fnan
sI8
Fnan
sI9
Fnan
ssS'filter'
p117
(dp118
I0
S"i'"
p119
sI1
S"i'"
p120
sI2
S"i'"
p121
sI3
S"i'"
p122
sI4
S"i'"
p123
sI5
S"i'"
p124
sI6
S"i'"
p125
sI7
S"i'"
p126
sI8
S"i'"
p127
sI9
S"i'"
p128
ssS'tabbymagerr'
p129
(dp130
I0
F0.0012877980845751257
sI1
Fnan
sI2
Fnan
sI3
Fnan
sI4
Fnan
sI5
Fnan
sI6
Fnan
sI7
Fnan
sI8
Fnan
sI9
Fnan
ssS'tabbyrms'
p131
(dp132
I0
F1.836218
sI1
F0.9905213
sI2
F2.136685
sI3
F1.319388
sI4
F0.3012385
sI5
F2.486343
sI6
F-1.390224
sI7
F2.604761
sI8
F-1.872879
sI9
F-2.647939
ssS'ref3mean'
p133
(dp134
I0
F1.5008708100398196
sI1
Fnan
sI2
Fnan
sI3
Fnan
sI4
Fnan
sI5
Fnan
sI6
Fnan
sI7
Fnan
sI8
Fnan
sI9
Fnan
ssS'median_JD'
p135
(dp136
I0
F2458441.5861342596
sI1
Fnan
sI2
Fnan
sI3
Fnan
sI4
Fnan
sI5
Fnan
sI6
Fnan
sI7
Fnan
sI8
Fnan
sI9
Fnan
ssS'error'
p137
(dp138
I0
F0.0012877980845751257
sI1
Fnan
sI2
Fnan
sI3
Fnan
sI4
Fnan
sI5
Fnan
sI6
Fnan
sI7
Fnan
sI8
Fnan
sI9
Fnan
ssS'ref3bkg'
p139
(dp140
I0
F17.1369
sI1
F16.59753
sI2
F17.64013
sI3
F14.31053
sI4
F17.40582
sI5
F14.12085
sI6
F16.81291
sI7
F14.06488
sI8
F13.99061
sI9
F12.00981
ssS'ref3mag'
p141
(dp142
I0
F10.755
sI1
F10.754
sI2
F10.766
sI3
F10.751
sI4
F10.756
sI5
F10.754
sI6
F10.789
sI7
F10.764
sI8
F10.747
sI9
F10.756
ssS'mean'
p143
(dp144
I0
F0.4395767030891339
sI1
Fnan
sI2
Fnan
sI3
Fnan
sI4
Fnan
sI5
Fnan
sI6
Fnan
sI7
Fnan
sI8
Fnan
sI9
Fnan
sssS'r'
p145
(dp146
g3
(dp147
I0
F0.5505161723487615
sI1
Fnan
sI2
Fnan
sI3
Fnan
sI4
Fnan
sI5
Fnan
sI6
Fnan
sI7
Fnan
sI8
Fnan
sI9
Fnan
ssg5
(dp148
I0
S'NoError'
p149
sI1
S'NoError'
p150
sI2
S'NoError'
p151
sI3
S'NoError'
p152
sI4
S'NoError'
p153
sI5
S'NoError'
p154
sI6
S'NoError'
p155
sI7
S'NoError'
p156
sI8
S'NoError'
p157
sI9
S'NoError'
p158
ssg17
(dp159
I0
F0.002
sI1
F0.002
sI2
F0.002
sI3
F0.002
sI4
F0.002
sI5
F0.002
sI6
F0.002
sI7
F0.002
sI8
F0.002
sI9
F0.002
ssg19
(dp160
I0
F0.8934872346196631
sI1
F0.8950928540341019
sI2
F0.8920068045216105
sI3
F0.8913799518640009
sI4
F0.8965912301294869
sI5
F0.8932818973912107
sI6
F0.8935537067906426
sI7
F0.8936981611828363
sI8
F0.888997311188297
sI9
F0.8913977170618809
ssg21
(dp161
I0
F0.002122926360941975
sI1
Fnan
sI2
Fnan
sI3
Fnan
sI4
Fnan
sI5
Fnan
sI6
Fnan
sI7
Fnan
sI8
Fnan
sI9
Fnan
ssg23
(dp162
I0
F0.892948686878373
sI1
Fnan
sI2
Fnan
sI3
Fnan
sI4
Fnan
sI5
Fnan
sI6
Fnan
sI7
Fnan
sI8
Fnan
sI9
Fnan
ssg25
(dp163
I0
F11.24
sI1
F11.204
sI2
F11.194
sI3
F11.238
sI4
F11.2
sI5
F11.243
sI6
F11.191
sI7
F11.289
sI8
F11.195
sI9
F11.212
ssg27
(dp164
I0
F25.96818
sI1
F22.92107
sI2
F23.57673
sI3
F26.32338
sI4
F23.97311
sI5
F26.61064
sI6
F22.83191
sI7
F27.34841
sI8
F23.25687
sI9
F25.28326
ssg29
(dp165
I0
F2458441.5991550926
sI1
F2458441.5671527777
sI2
F2458441.5678935186
sI3
F2458441.5984027777
sI4
F2458441.5656828703
sI5
F2458441.5969097223
sI6
F2458441.568622685
sI7
F2458441.5976504628
sI8
F2458441.5664236112
sI9
F2458441.5961574074
ssg31
(dp166
I0
F0.33317179999999996
sI1
Fnan
sI2
Fnan
sI3
Fnan
sI4
Fnan
sI5
Fnan
sI6
Fnan
sI7
Fnan
sI8
Fnan
sI9
Fnan
ssg33
(dp167
I0
F0.6024974
sI1
Fnan
sI2
Fnan
sI3
Fnan
sI4
Fnan
sI5
Fnan
sI6
Fnan
sI7
Fnan
sI8
Fnan
sI9
Fnan
ssg35
(dp168
I0
F0.5477429853174762
sI1
F0.5506080792247451
sI2
F0.5513418969788264
sI3
F0.5506831116061374
sI4
F0.552720136158038
sI5
F0.5488585843159112
sI6
F0.5541920889821046
sI7
F0.5481221320399339
sI8
F0.5526639640119544
sI9
F0.5519046614858305
ssg37
(dp169
I0
F0.0017728225372260935
sI1
Fnan
sI2
Fnan
sI3
Fnan
sI4
Fnan
sI5
Fnan
sI6
Fnan
sI7
Fnan
sI8
Fnan
sI9
Fnan
ssg39
(dp170
I0
F2.4303988999999997
sI1
Fnan
sI2
Fnan
sI3
Fnan
sI4
Fnan
sI5
Fnan
sI6
Fnan
sI7
Fnan
sI8
Fnan
sI9
Fnan
ssg41
(dp171
I0
g149
sI1
g150
sI2
g151
sI3
g152
sI4
g153
sI5
g154
sI6
g155
sI7
g156
sI8
g157
sI9
g158
ssg43
(dp172
I0
F0.0015992680476673196
sI1
Fnan
sI2
Fnan
sI3
Fnan
sI4
Fnan
sI5
Fnan
sI6
Fnan
sI7
Fnan
sI8
Fnan
sI9
Fnan
ssg45
(dp173
I0
F0.02797697465972889
sI1
Fnan
sI2
Fnan
sI3
Fnan
sI4
Fnan
sI5
Fnan
sI6
Fnan
sI7
Fnan
sI8
Fnan
sI9
Fnan
ssg47
(dp174
I0
F2.0669343000000002
sI1
Fnan
sI2
Fnan
sI3
Fnan
sI4
Fnan
sI5
Fnan
sI6
Fnan
sI7
Fnan
sI8
Fnan
sI9
Fnan
ssg49
(dp175
I0
F1.4973205532559122
sI1
F1.4934533284466311
sI2
F1.495577103361647
sI3
F1.499727767102457
sI4
F1.490950172575346
sI5
F1.4937061006181693
sI6
F1.4957399204976762
sI7
F1.4892399829482244
sI8
F1.497004309436669
sI9
F1.4952985914983057
ssg51
(dp176
I0
g149
sI1
g150
sI2
g151
sI3
g152
sI4
g153
sI5
g154
sI6
g155
sI7
g156
sI8
g157
sI9
g158
ssg53
(dp177
I0
F27.46786
sI1
F23.91158
sI2
F24.42492
sI3
F28.45128
sI4
F24.44723
sI5
F27.56632
sI6
F23.46468
sI7
F29.2093
sI8
F25.85166
sI9
F27.08439
ssg55
(dp178
I0
F10.3024
sI1
Fnan
sI2
Fnan
sI3
Fnan
sI4
Fnan
sI5
Fnan
sI6
Fnan
sI7
Fnan
sI8
Fnan
sI9
Fnan
ssg57
(dp179
I0
F0.7159729373974268
sI1
Fnan
sI2
Fnan
sI3
Fnan
sI4
Fnan
sI5
Fnan
sI6
Fnan
sI7
Fnan
sI8
Fnan
sI9
Fnan
ssg59
(dp180
I0
F-3.40152
sI1
F4.455685
sI2
F1.679067
sI3
F-4.466152
sI4
F2.535891
sI5
F3.905927
sI6
F-2.807646
sI7
F-2.994032
sI8
F2.463524
sI9
F4.65423
ssg61
(dp181
I0
F10.656600000000001
sI1
Fnan
sI2
Fnan
sI3
Fnan
sI4
Fnan
sI5
Fnan
sI6
Fnan
sI7
Fnan
sI8
Fnan
sI9
Fnan
ssg63
(dp182
I0
g149
sI1
g150
sI2
g151
sI3
g152
sI4
g153
sI5
g154
sI6
g155
sI7
g156
sI8
g157
sI9
g158
ssg65
(dp183
I0
F13560.56
sI1
F13954.15
sI2
F14042.393333333333
sI3
F13491.56
sI4
F13969.206666666667
sI5
F13490.593333333332
sI6
F14022.859999999999
sI7
F12955.456666666667
sI8
F13960.230000000001
sI9
F13790.943333333333
ssg67
(dp184
I0
F1.138776
sI1
F1.0666440000000001
sI2
F1.067948
sI3
F1.136672
sI4
F1.064084
sI5
F1.13258
sI6
F1.069286
sI7
F1.134608
sI8
F1.065358
sI9
F1.130595
ssg69
(dp185
I0
F11552.833333333334
sI1
F11884.68
sI2
F12006.146666666667
sI3
F11517.663333333334
sI4
F11886.166666666666
sI5
F11523.046666666667
sI6
F11957.093333333332
sI7
F11088.96
sI8
F11985.93
sI9
F11805.286666666665
ssg71
(dp186
I0
F18801.4
sI1
F19294.543333333335
sI2
F19478.8
sI3
F18753.513333333332
sI4
F19274.536666666667
sI5
F18681.513333333332
sI6
F19429.626666666667
sI7
F17903.95333333333
sI8
F19420.756666666664
sI9
F19137.003333333334
ssg73
(dp187
I0
F27.0618
sI1
F23.80197
sI2
F23.25659
sI3
F27.79835
sI4
F24.94188
sI5
F27.64303
sI6
F23.7177
sI7
F27.99468
sI8
F23.98665
sI9
F26.6585
ssg75
(dp188
I0
F10.843
sI1
F10.813
sI2
F10.801
sI3
F10.847
sI4
F10.812
sI5
F10.846
sI6
F10.806
sI7
F10.888
sI8
F10.803
sI9
F10.82
ssg77
(dp189
I0
F0.001
sI1
F0.001
sI2
F0.001
sI3
F0.001
sI4
F0.001
sI5
F0.001
sI6
F0.001
sI7
F0.001
sI8
F0.001
sI9
F0.001
ssg79
(dp190
I0
F0.5508837640120958
sI1
Fnan
sI2
Fnan
sI3
Fnan
sI4
Fnan
sI5
Fnan
sI6
Fnan
sI7
Fnan
sI8
Fnan
sI9
Fnan
ssg81
(dp191
I0
F10.8279
sI1
Fnan
sI2
Fnan
sI3
Fnan
sI4
Fnan
sI5
Fnan
sI6
Fnan
sI7
Fnan
sI8
Fnan
sI9
Fnan
ssg83
(dp192
I0
F10.669
sI1
F10.638
sI2
F10.631
sI3
F10.675
sI4
F10.637
sI5
F10.675
sI6
F10.633
sI7
F10.719
sI8
F10.638
sI9
F10.651
ssg85
(dp193
I0
F-2.036575
sI1
F-1.526947
sI2
F3.004473
sI3
F3.668548
sI4
F-3.475691
sI5
F2.259438
sI6
F4.292209
sI7
F-3.170068
sI8
F3.62244
sI9
F-3.306109
ssg87
(dp194
I0
F0.02856649163695903
sI1
Fnan
sI2
Fnan
sI3
Fnan
sI4
Fnan
sI5
Fnan
sI6
Fnan
sI7
Fnan
sI8
Fnan
sI9
Fnan
ssg89
(dp195
I0
F0.7139761209354029
sI1
F0.714896064085927
sI2
F0.7163316978174407
sI3
F0.7143828276815828
sI4
F0.7150919526411135
sI5
F0.7163377136633473
sI6
F0.7148702248940936
sI7
F0.7186760861597808
sI8
F0.7181291625492197
sI9
F0.7170375235463613
ssg91
(dp196
I0
F30.0
sI1
F30.0
sI2
F30.0
sI3
F30.0
sI4
F30.0
sI5
F30.0
sI6
F30.0
sI7
F30.0
sI8
F30.0
sI9
F30.0
ssg93
(dp197
I0
F0.002
sI1
F0.002
sI2
F0.002
sI3
F0.002
sI4
F0.002
sI5
F0.002
sI6
F0.002
sI7
F0.002
sI8
F0.002
sI9
F0.002
ssg95
(dp198
I0
F0.002
sI1
F0.002
sI2
F0.002
sI3
F0.002
sI4
F0.002
sI5
F0.002
sI6
F0.002
sI7
F0.002
sI8
F0.002
sI9
F0.002
ssg97
(dp199
I0
F3.076692
sI1
F4.74699
sI2
F2.987506
sI3
F2.713175
sI4
F3.845886
sI5
F2.381325
sI6
F4.679702
sI7
F3.287545
sI8
F-4.098923
sI9
F-2.950555
ssg99
(dp200
I0
S"KIC8462852-20181119at022247_-35-1X1-030-r'_cal.fts.mag.1"
p201
sI1
S"KIC8462852-20181119at013642_-35-1X1-030-r'_cal.fts.mag.1"
p202
sI2
S"KIC8462852-20181119at013746_-35-1X1-030-r'_cal.fts.mag.1"
p203
sI3
S"KIC8462852-20181119at022142_-35-1X1-030-r'_cal.fts.mag.1"
p204
sI4
S"KIC8462852-20181119at013434_-35-1X1-030-r'_cal.fts.mag.1"
p205
sI5
S"KIC8462852-20181119at021933_-35-1X1-030-r'_cal.fts.mag.1"
p206
sI6
S"KIC8462852-20181119at013849_-35-1X1-030-r'_cal.fts.mag.1"
p207
sI7
S"KIC8462852-20181119at022037_-35-1X1-030-r'_cal.fts.mag.1"
p208
sI8
S"KIC8462852-20181119at013539_-35-1X1-030-r'_cal.fts.mag.1"
p209
sI9
S"KIC8462852-20181119at021826_-35-1X1-030-r'_cal.fts.mag.1"
p210
ssg111
(dp211
I0
F0.0030907758867540296
sI1
Fnan
sI2
Fnan
sI3
Fnan
sI4
Fnan
sI5
Fnan
sI6
Fnan
sI7
Fnan
sI8
Fnan
sI9
Fnan
ssg113
(dp212
I0
F8018.006666666667
sI1
F8283.6
sI2
F8367.043333333333
sI3
F8033.133333333333
sI4
F8314.736666666668
sI5
F7994.153333333334
sI6
F8388.543333333333
sI7
F7664.276666666667
sI8
F8357.553333333333
sI9
F8229.493333333334
ssg115
(dp213
I0
F0.027674496883914133
sI1
Fnan
sI2
Fnan
sI3
Fnan
sI4
Fnan
sI5
Fnan
sI6
Fnan
sI7
Fnan
sI8
Fnan
sI9
Fnan
ssg117
(dp214
I0
S"r'"
p215
sI1
S"r'"
p216
sI2
S"r'"
p217
sI3
S"r'"
p218
sI4
S"r'"
p219
sI5
S"r'"
p220
sI6
S"r'"
p221
sI7
S"r'"
p222
sI8
S"r'"
p223
sI9
S"r'"
p224
ssg129
(dp225
I0
F0.0021199377486203807
sI1
Fnan
sI2
Fnan
sI3
Fnan
sI4
Fnan
sI5
Fnan
sI6
Fnan
sI7
Fnan
sI8
Fnan
sI9
Fnan
ssg131
(dp226
I0
F2.677027
sI1
F3.551945
sI2
F2.771892
sI3
F2.643566
sI4
F3.575835
sI5
F1.653416
sI6
F3.627705
sI7
F-2.696785
sI8
F3.338902
sI9
F3.160486
ssg133
(dp227
I0
F1.4948017829741038
sI1
Fnan
sI2
Fnan
sI3
Fnan
sI4
Fnan
sI5
Fnan
sI6
Fnan
sI7
Fnan
sI8
Fnan
sI9
Fnan
ssg135
(dp228
I0
F2458441.582390046
sI1
Fnan
sI2
Fnan
sI3
Fnan
sI4
Fnan
sI5
Fnan
sI6
Fnan
sI7
Fnan
sI8
Fnan
sI9
Fnan
ssg137
(dp229
I0
F0.0021199377486203807
sI1
Fnan
sI2
Fnan
sI3
Fnan
sI4
Fnan
sI5
Fnan
sI6
Fnan
sI7
Fnan
sI8
Fnan
sI9
Fnan
ssg139
(dp230
I0
F29.28977
sI1
F25.65269
sI2
F25.31368
sI3
F28.80279
sI4
F27.18247
sI5
F28.93778
sI6
F25.51443
sI7
F31.35647
sI8
F25.98628
sI9
F27.90606
ssg141
(dp231
I0
F10.315
sI1
F10.286
sI2
F10.276
sI3
F10.317
sI4
F10.288
sI5
F10.321
sI6
F10.279
sI7
F10.368
sI8
F10.279
sI9
F10.295
ssg143
(dp232
I0
F0.5508837640120958
sI1
Fnan
sI2
Fnan
sI3
Fnan
sI4
Fnan
sI5
Fnan
sI6
Fnan
sI7
Fnan
sI8
Fnan
sI9
Fnan
sssS'z'
p233
(dp234
g3
(dp235
I0
F0.3697068585272675
sI1
Fnan
sI2
Fnan
sI3
Fnan
sI4
Fnan
sI5
Fnan
sI6
Fnan
sI7
Fnan
sI8
Fnan
sI9
Fnan
ssg5
(dp236
I0
S'NoError'
p237
sI1
S'NoError'
p238
sI2
S'NoError'
p239
sI3
S'NoError'
p240
sI4
S'NoError'
p241
sI5
S'NoError'
p242
sI6
S'NoError'
p243
sI7
S'NoError'
p244
sI8
S'NoError'
p245
sI9
S'NoError'
p246
ssg17
(dp247
I0
F0.007
sI1
F0.007
sI2
F0.007
sI3
F0.007
sI4
F0.007
sI5
F0.007
sI6
F0.007
sI7
F0.007
sI8
F0.007
sI9
F0.007
ssg19
(dp248
I0
F0.9129093337890603
sI1
F0.9184211428823796
sI2
F0.9157993751124394
sI3
F0.9159986541211652
sI4
F0.9180403277709107
sI5
F0.9176242422642005
sI6
F0.9185312982622126
sI7
F0.9119270822131785
sI8
F0.924237695773851
sI9
F0.9086386855047582
ssg21
(dp249
I0
F0.004305648055653873
sI1
Fnan
sI2
Fnan
sI3
Fnan
sI4
Fnan
sI5
Fnan
sI6
Fnan
sI7
Fnan
sI8
Fnan
sI9
Fnan
ssg23
(dp250
I0
F0.9162127837694156
sI1
Fnan
sI2
Fnan
sI3
Fnan
sI4
Fnan
sI5
Fnan
sI6
Fnan
sI7
Fnan
sI8
Fnan
sI9
Fnan
ssg25
(dp251
I0
F13.288
sI1
F13.284
sI2
F13.275
sI3
F13.314
sI4
F13.304
sI5
F13.313
sI6
F13.291
sI7
F13.292
sI8
F13.3
sI9
F13.293
ssg27
(dp252
I0
F6.941456
sI1
F4.74775
sI2
F7.219237
sI3
F7.568572
sI4
F7.658582
sI5
F4.035927
sI6
F3.873042
sI7
F4.567494
sI8
F8.103784
sI9
F4.795163
ssg29
(dp253
I0
F2458441.6066319444
sI1
F2458441.5731018516
sI2
F2458441.6036689817
sI3
F2458441.605150463
sI4
F2458441.604409722
sI5
F2458441.5753356484
sI6
F2458441.5738425925
sI7
F2458441.5745833335
sI8
F2458441.6058912035
sI9
F2458441.576076389
ssg31
(dp254
I0
F1.0774934999999999
sI1
Fnan
sI2
Fnan
sI3
Fnan
sI4
Fnan
sI5
Fnan
sI6
Fnan
sI7
Fnan
sI8
Fnan
sI9
Fnan
ssg33
(dp255
I0
F0.64388107
sI1
Fnan
sI2
Fnan
sI3
Fnan
sI4
Fnan
sI5
Fnan
sI6
Fnan
sI7
Fnan
sI8
Fnan
sI9
Fnan
ssg35
(dp256
I0
F0.3702972013545039
sI1
F0.37142226798605654
sI2
F0.3717479518577656
sI3
F0.3688029965748196
sI4
F0.3683303116822529
sI5
F0.36652103406926495
sI6
F0.37149411459921006
sI7
F0.36850769881387097
sI8
F0.3678862231566536
sI9
F0.3688729607202741
ssg37
(dp257
I0
F0.0014457374467549819
sI1
Fnan
sI2
Fnan
sI3
Fnan
sI4
Fnan
sI5
Fnan
sI6
Fnan
sI7
Fnan
sI8
Fnan
sI9
Fnan
ssg39
(dp258
I0
F1.2492330000000003
sI1
Fnan
sI2
Fnan
sI3
Fnan
sI4
Fnan
sI5
Fnan
sI6
Fnan
sI7
Fnan
sI8
Fnan
sI9
Fnan
ssg41
(dp259
I0
g237
sI1
g238
sI2
g239
sI3
g240
sI4
g241
sI5
g242
sI6
g243
sI7
g244
sI8
g245
sI9
g246
ssg43
(dp260
I0
F0.003135345958114895
sI1
Fnan
sI2
Fnan
sI3
Fnan
sI4
Fnan
sI5
Fnan
sI6
Fnan
sI7
Fnan
sI8
Fnan
sI9
Fnan
ssg45
(dp261
I0
F0.008430104783848359
sI1
Fnan
sI2
Fnan
sI3
Fnan
sI4
Fnan
sI5
Fnan
sI6
Fnan
sI7
Fnan
sI8
Fnan
sI9
Fnan
ssg47
(dp262
I0
F0.9023372999999999
sI1
Fnan
sI2
Fnan
sI3
Fnan
sI4
Fnan
sI5
Fnan
sI6
Fnan
sI7
Fnan
sI8
Fnan
sI9
Fnan
ssg49
(dp263
I0
F1.5124631001523026
sI1
F1.499710666657278
sI2
F1.5028754064256882
sI3
F1.5135750464883901
sI4
F1.5101659365095756
sI5
F1.5021806828521889
sI6
F1.5048986032276395
sI7
F1.5101923107841277
sI8
F1.4961335193546899
sI9
F1.5062324483674874
ssg51
(dp264
I0
g237
sI1
g238
sI2
g239
sI3
g240
sI4
g241
sI5
g242
sI6
g243
sI7
g244
sI8
g245
sI9
g246
ssg53
(dp265
I0
F7.840605
sI1
F4.905241
sI2
F7.742655
sI3
F8.132384
sI4
F7.583122
sI5
F4.468708
sI6
F4.982393
sI7
F4.323749
sI8
F8.477656
sI9
F4.448348
ssg55
(dp266
I0
F11.938799999999999
sI1
Fnan
sI2
Fnan
sI3
Fnan
sI4
Fnan
sI5
Fnan
sI6
Fnan
sI7
Fnan
sI8
Fnan
sI9
Fnan
ssg57
(dp267
I0
F0.689259607239878
sI1
Fnan
sI2
Fnan
sI3
Fnan
sI4
Fnan
sI5
Fnan
sI6
Fnan
sI7
Fnan
sI8
Fnan
sI9
Fnan
ssg59
(dp268
I0
F3.137244
sI1
F2.955508
sI2
F-0.8693713
sI3
F-4.051593
sI4
F3.383839
sI5
F4.032784
sI6
F-1.374956
sI7
F-2.007406
sI8
F-2.214232
sI9
F3.446994
ssg61
(dp269
I0
F12.278200000000002
sI1
Fnan
sI2
Fnan
sI3
Fnan
sI4
Fnan
sI5
Fnan
sI6
Fnan
sI7
Fnan
sI8
Fnan
sI9
Fnan
ssg63
(dp270
I0
g237
sI1
g238
sI2
g239
sI3
g240
sI4
g241
sI5
g242
sI6
g243
sI7
g244
sI8
g245
sI9
g246
ssg65
(dp271
I0
F3087.589
sI1
F3101.9926666666665
sI2
F3117.942
sI3
F3034.0933333333332
sI4
F3070.153
sI5
F3057.947
sI6
F3080.8213333333333
sI7
F3088.24
sI8
F3098.7696666666666
sI9
F3072.963333333333
ssg67
(dp272
I0
F1.160549
sI1
F1.077659
sI2
F1.1516629999999999
sI3
F1.1560840000000001
sI4
F1.153846
sI5
F1.082054
sI6
F1.079099
sI7
F1.080573
sI8
F1.158308
sI9
F1.083533
ssg69
(dp273
I0
F2522.0773333333336
sI1
F2531.0716666666663
sI2
F2550.0683333333336
sI3
F2463.874333333333
sI4
F2490.066
sI5
F2494.5186666666664
sI6
F2505.0566666666664
sI7
F2530.391
sI8
F2509.9053333333336
sI9
F2538.1006666666667
ssg71
(dp274
I0
F4242.206666666667
sI1
F4223.983333333334
sI2
F4259.156666666667
sI3
F4160.793333333333
sI4
F4198.426666666667
sI5
F4170.403333333334
sI6
F4203.09
sI7
F4242.606666666667
sI8
F4195.663333333333
sI9
F4225.783333333334
ssg73
(dp275
I0
F7.956378
sI1
F4.135622
sI2
F8.451697
sI3
F8.93958
sI4
F7.383589
sI5
F3.899763
sI6
F4.61554
sI7
F4.668256
sI8
F8.762296
sI9
F4.282557
ssg75
(dp276
I0
F12.496
sI1
F12.492
sI2
F12.484
sI3
F12.521
sI4
F12.509
sI5
F12.508
sI6
F12.503
sI7
F12.492
sI8
F12.501
sI9
F12.489
ssg77
(dp277
I0
F0.003
sI1
F0.003
sI2
F0.003
sI3
F0.003
sI4
F0.003
sI5
F0.003
sI6
F0.003
sI7
F0.003
sI8
F0.003
sI9
F0.003
ssg79
(dp278
I0
F0.3693882760814672
sI1
Fnan
sI2
Fnan
sI3
Fnan
sI4
Fnan
sI5
Fnan
sI6
Fnan
sI7
Fnan
sI8
Fnan
sI9
Fnan
ssg81
(dp279
I0
F12.499500000000001
sI1
Fnan
sI2
Fnan
sI3
Fnan
sI4
Fnan
sI5
Fnan
sI6
Fnan
sI7
Fnan
sI8
Fnan
sI9
Fnan
ssg83
(dp280
I0
F12.276
sI1
F12.271
sI2
F12.265
sI3
F12.295
sI4
F12.282
sI5
F12.286
sI6
F12.278
sI7
F12.276
sI8
F12.272
sI9
F12.281
ssg85
(dp281
I0
F4.287121
sI1
F3.936017
sI2
F3.369151
sI3
F3.34808
sI4
F-2.877144
sI5
F-2.242664
sI6
F-3.402013
sI7
F3.145234
sI8
F2.988332
sI9
F-1.777179
ssg87
(dp282
I0
F0.008270429251254242
sI1
Fnan
sI2
Fnan
sI3
Fnan
sI4
Fnan
sI5
Fnan
sI6
Fnan
sI7
Fnan
sI8
Fnan
sI9
Fnan
ssg89
(dp283
I0
F0.6881712527957238
sI1
F0.6909855196540818
sI2
F0.691347221599675
sI3
F0.6848959399870093
sI4
F0.6851588932619985
sI5
F0.6902041410924049
sI6
F0.687832828278067
sI7
F0.6903407246275328
sI8
F0.6881700972051793
sI9
F0.6954894538971075
ssg91
(dp284
I0
F30.0
sI1
F30.0
sI2
F30.0
sI3
F30.0
sI4
F30.0
sI5
F30.0
sI6
F30.0
sI7
F30.0
sI8
F30.0
sI9
F30.0
ssg93
(dp285
I0
F0.004
sI1
F0.004
sI2
F0.004
sI3
F0.004
sI4
F0.004
sI5
F0.004
sI6
F0.004
sI7
F0.004
sI8
F0.004
sI9
F0.004
ssg95
(dp286
I0
F0.004
sI1
F0.004
sI2
F0.004
sI3
F0.004
sI4
F0.004
sI5
F0.004
sI6
F0.004
sI7
F0.004
sI8
F0.004
sI9
F0.004
ssg97
(dp287
I0
F3.219856
sI1
F-2.119426
sI2
F-2.241965
sI3
F3.21714
sI4
F3.78792
sI5
F2.121683
sI6
F3.053397
sI7
F3.313615
sI8
F-2.343765
sI9
F-2.985082
ssg99
(dp288
I0
S"KIC8462852-20181119at023333_-35-1X1-030-z'_cal.fts.mag.1"
p289
sI1
S"KIC8462852-20181119at014515_-35-1X1-030-z'_cal.fts.mag.1"
p290
sI2
S"KIC8462852-20181119at022916_-35-1X1-030-z'_cal.fts.mag.1"
p291
sI3
S"KIC8462852-20181119at023124_-35-1X1-030-z'_cal.fts.mag.1"
p292
sI4
S"KIC8462852-20181119at023021_-35-1X1-030-z'_cal.fts.mag.1"
p293
sI5
S"KIC8462852-20181119at014829_-35-1X1-030-z'_cal.fts.mag.1"
p294
sI6
S"KIC8462852-20181119at014620_-35-1X1-030-z'_cal.fts.mag.1"
p295
sI7
S"KIC8462852-20181119at014724_-35-1X1-030-z'_cal.fts.mag.1"
p296
sI8
S"KIC8462852-20181119at023229_-35-1X1-030-z'_cal.fts.mag.1"
p297
sI9
S"KIC8462852-20181119at014933_-35-1X1-030-z'_cal.fts.mag.1"
p298
ssg111
(dp299
I0
F0.00573833902801899
sI1
Fnan
sI2
Fnan
sI3
Fnan
sI4
Fnan
sI5
Fnan
sI6
Fnan
sI7
Fnan
sI8
Fnan
sI9
Fnan
ssg113
(dp300
I0
F1216.0403333333334
sI1
F1220.3756666666666
sI2
F1230.1346666666666
sI3
F1187.3933333333334
sI4
F1198.135
sI5
F1187.8786666666667
sI6
F1212.1813333333334
sI7
F1211.3139999999999
sI8
F1202.2936666666667
sI9
F1209.5156666666667
ssg115
(dp301
I0
F0.011128042655082299
sI1
Fnan
sI2
Fnan
sI3
Fnan
sI4
Fnan
sI5
Fnan
sI6
Fnan
sI7
Fnan
sI8
Fnan
sI9
Fnan
ssg117
(dp302
I0
S"z'"
p303
sI1
S"z'"
p304
sI2
S"z'"
p305
sI3
S"z'"
p306
sI4
S"z'"
p307
sI5
S"z'"
p308
sI6
S"z'"
p309
sI7
S"z'"
p310
sI8
S"z'"
p311
sI9
S"z'"
p312
ssg129
(dp313
I0
F0.0017621306741187831
sI1
Fnan
sI2
Fnan
sI3
Fnan
sI4
Fnan
sI5
Fnan
sI6
Fnan
sI7
Fnan
sI8
Fnan
sI9
Fnan
ssg131
(dp314
I0
F3.78895
sI1
F3.751568
sI2
F3.603317
sI3
F2.805998
sI4
F-2.537755
sI5
F4.435149
sI6
F1.205599
sI7
F2.619786
sI8
F-3.384358
sI9
F-3.795924
ssg133
(dp315
I0
F1.5058427720819367
sI1
Fnan
sI2
Fnan
sI3
Fnan
sI4
Fnan
sI5
Fnan
sI6
Fnan
sI7
Fnan
sI8
Fnan
sI9
Fnan
ssg135
(dp316
I0
F2458441.5898726853
sI1
Fnan
sI2
Fnan
sI3
Fnan
sI4
Fnan
sI5
Fnan
sI6
Fnan
sI7
Fnan
sI8
Fnan
sI9
Fnan
ssg137
(dp317
I0
F0.0017621306741187831
sI1
Fnan
sI2
Fnan
sI3
Fnan
sI4
Fnan
sI5
Fnan
sI6
Fnan
sI7
Fnan
sI8
Fnan
sI9
Fnan
ssg139
(dp318
I0
F8.532331
sI1
F5.136798
sI2
F8.420292
sI3
F7.343922
sI4
F8.222098
sI5
F5.436307
sI6
F5.502674
sI7
F4.554168
sI8
F9.155737
sI9
F5.248043
ssg141
(dp319
I0
F11.931
sI1
F11.936
sI2
F11.927
sI3
F11.952
sI4
F11.942
sI5
F11.95
sI6
F11.941
sI7
F11.931
sI8
F11.943
sI9
F11.935
ssg143
(dp320
I0
F0.3693882760814672
sI1
Fnan
sI2
Fnan
sI3
Fnan
sI4
Fnan
sI5
Fnan
sI6
Fnan
sI7
Fnan
sI8
Fnan
sI9
Fnan
sssS'g'
p321
(dp322
g3
(dp323
I0
F0.8702760219771153
sI1
Fnan
sI2
Fnan
sI3
Fnan
sI4
Fnan
sI5
Fnan
sI6
Fnan
sI7
Fnan
sI8
Fnan
sI9
Fnan
ssg5
(dp324
I0
S'NoError'
p325
sI1
S'NoError'
p326
sI2
S'NoError'
p327
sI3
S'NoError'
p328
sI4
S'NoError'
p329
sI5
S'NoError'
p330
sI6
S'NoError'
p331
sI7
S'NoError'
p332
sI8
S'NoError'
p333
sI9
S'NoError'
p334
ssg17
(dp335
I0
F0.002
sI1
F0.002
sI2
F0.002
sI3
F0.002
sI4
F0.002
sI5
F0.002
sI6
F0.002
sI7
F0.002
sI8
F0.002
sI9
F0.002
ssg19
(dp336
I0
F0.8760415118585012
sI1
F0.8742865174035547
sI2
F0.8799851703089782
sI3
F0.8792280906970378
sI4
F0.8728573451477951
sI5
F0.8799733922863491
sI6
F0.8802009875395304
sI7
F0.8702167228552802
sI8
F0.8759665196357075
sI9
F0.8782850235844661
ssg21
(dp337
I0
F0.0034361332250297115
sI1
Fnan
sI2
Fnan
sI3
Fnan
sI4
Fnan
sI5
Fnan
sI6
Fnan
sI7
Fnan
sI8
Fnan
sI9
Fnan
ssg23
(dp338
I0
F0.8767041281317202
sI1
Fnan
sI2
Fnan
sI3
Fnan
sI4
Fnan
sI5
Fnan
sI6
Fnan
sI7
Fnan
sI8
Fnan
sI9
Fnan
ssg25
(dp339
I0
F11.421
sI1
F11.417
sI2
F11.399
sI3
F11.403
sI4
F11.4
sI5
F11.46
sI6
F11.406
sI7
F11.413
sI8
F11.432
sI9
F11.428
ssg27
(dp340
I0
F29.76308
sI1
F32.66578
sI2
F28.10551
sI3
F27.72418
sI4
F28.79712
sI5
F28.99694
sI6
F30.47489
sI7
F28.02534
sI8
F29.33324
sI9
F34.91302
ssg29
(dp341
I0
F2458441.564201389
sI1
F2458441.5627314816
sI2
F2458441.593888889
sI3
F2458441.591990741
sI4
F2458441.591238426
sI5
F2458441.5953935185
sI6
F2458441.563460648
sI7
F2458441.5649305554
sI8
F2458441.5946412035
sI9
F2458441.5619907407
ssg31
(dp342
I0
F1.3032285000000001
sI1
Fnan
sI2
Fnan
sI3
Fnan
sI4
Fnan
sI5
Fnan
sI6
Fnan
sI7
Fnan
sI8
Fnan
sI9
Fnan
ssg33
(dp343
I0
F2.7399202
sI1
Fnan
sI2
Fnan
sI3
Fnan
sI4
Fnan
sI5
Fnan
sI6
Fnan
sI7
Fnan
sI8
Fnan
sI9
Fnan
ssg35
(dp344
I0
F0.8680008017604611
sI1
F0.8676323712377001
sI2
F0.8710219827450651
sI3
F0.8725888344126577
sI4
F0.8697376872465679
sI5
F0.8675603761794247
sI6
F0.8757001164550143
sI7
F0.8731902378398625
sI8
F0.869807672141137
sI9
F0.8729442342311625
ssg37
(dp345
I0
F0.00214908181356148
sI1
Fnan
sI2
Fnan
sI3
Fnan
sI4
Fnan
sI5
Fnan
sI6
Fnan
sI7
Fnan
sI8
Fnan
sI9
Fnan
ssg39
(dp346
I0
F3.0275115
sI1
Fnan
sI2
Fnan
sI3
Fnan
sI4
Fnan
sI5
Fnan
sI6
Fnan
sI7
Fnan
sI8
Fnan
sI9
Fnan
ssg41
(dp347
I0
g325
sI1
g326
sI2
g327
sI3
g328
sI4
g329
sI5
g330
sI6
g331
sI7
g332
sI8
g333
sI9
g334
ssg43
(dp348
I0
F0.002955413075885781
sI1
Fnan
sI2
Fnan
sI3
Fnan
sI4
Fnan
sI5
Fnan
sI6
Fnan
sI7
Fnan
sI8
Fnan
sI9
Fnan
ssg45
(dp349
I0
F0.016729548044635997
sI1
Fnan
sI2
Fnan
sI3
Fnan
sI4
Fnan
sI5
Fnan
sI6
Fnan
sI7
Fnan
sI8
Fnan
sI9
Fnan
ssg47
(dp350
I0
F1.6824272999999998
sI1
Fnan
sI2
Fnan
sI3
Fnan
sI4
Fnan
sI5
Fnan
sI6
Fnan
sI7
Fnan
sI8
Fnan
sI9
Fnan
ssg49
(dp351
I0
F1.508557899270335
sI1
F1.5096205737599675
sI2
F1.5139253500062622
sI3
F1.5053269321347045
sI4
F1.521862884142155
sI5
F1.5142937847554003
sI6
F1.5083249725851
sI7
F1.5195715259071583
sI8
F1.5186642917773252
sI9
F1.5144941953695934
ssg51
(dp352
I0
g325
sI1
g326
sI2
g327
sI3
g328
sI4
g329
sI5
g330
sI6
g331
sI7
g332
sI8
g333
sI9
g334
ssg53
(dp353
I0
F29.73686
sI1
F32.35509
sI2
F28.08146
sI3
F27.61517
sI4
F28.61746
sI5
F28.4602
sI6
F31.09199
sI7
F29.11078
sI8
F27.98602
sI9
F34.61808
ssg55
(dp354
I0
F10.989299999999998
sI1
Fnan
sI2
Fnan
sI3
Fnan
sI4
Fnan
sI5
Fnan
sI6
Fnan
sI7
Fnan
sI8
Fnan
sI9
Fnan
ssg57
(dp355
I0
F0.71917111079242
sI1
Fnan
sI2
Fnan
sI3
Fnan
sI4
Fnan
sI5
Fnan
sI6
Fnan
sI7
Fnan
sI8
Fnan
sI9
Fnan
ssg59
(dp356
I0
F3.218284
sI1
F3.640054
sI2
F4.075907
sI3
F5.540505
sI4
F-3.930794
sI5
F1.198806
sI6
F3.775856
sI7
F3.998914
sI8
F3.211786
sI9
F2.669884
ssg61
(dp357
I0
F11.364900000000002
sI1
Fnan
sI2
Fnan
sI3
Fnan
sI4
Fnan
sI5
Fnan
sI6
Fnan
sI7
Fnan
sI8
Fnan
sI9
Fnan
ssg63
(dp358
I0
g325
sI1
g326
sI2
g327
sI3
g328
sI4
g329
sI5
g330
sI6
g331
sI7
g332
sI8
g333
sI9
g334
ssg65
(dp359
I0
F7142.376666666666
sI1
F7164.126666666666
sI2
F7286.88
sI3
F7245.903333333334
sI4
F7253.086666666667
sI5
F6918.6866666666665
sI6
F7200.87
sI7
F7123.3533333333335
sI8
F7057.89
sI9
F7070.009999999999
ssg67
(dp360
I0
F1.0615459999999999
sI1
F1.0591
sI2
F1.124609
sI3
F1.1197409999999999
sI4
F1.117826
sI5
F1.128533
sI6
F1.0603200000000002
sI7
F1.062786
sI8
F1.126566
sI9
F1.0579020000000001
ssg69
(dp361
I0
F6224.026666666667
sI1
F6257.63
sI2
F6286.6866666666665
sI3
F6292.533333333334
sI4
F6303.526666666667
sI5
F5967.8
sI6
F6231.6066666666675
sI7
F6227.59
sI8
F6113.25
sI9
F6115.153333333334
ssg71
(dp362
I0
F10081.996666666668
sI1
F10130.880000000001
sI2
F10274.683333333332
sI3
F10189.886666666665
sI4
F10315.653333333332
sI5
F9756.963333333335
sI6
F10130.269999999999
sI7
F10143.856666666667
sI8
F10001.269999999999
sI9
F9984.426666666666
ssg73
(dp363
I0
F29.78568
sI1
F31.8454
sI2
F28.59772
sI3
F27.48204
sI4
F28.89252
sI5
F29.07979
sI6
F30.38709
sI7
F27.78985
sI8
F28.668
sI9
F35.42358
ssg75
(dp364
I0
F11.515
sI1
F11.509
sI2
F11.504
sI3
F11.503
sI4
F11.501
sI5
F11.56
sI6
F11.514
sI7
F11.514
sI8
F11.534
sI9
F11.534
ssg77
(dp365
I0
F0.002
sI1
F0.002
sI2
F0.002
sI3
F0.002
sI4
F0.002
sI5
F0.002
sI6
F0.002
sI7
F0.002
sI8
F0.002
sI9
F0.002
ssg79
(dp366
I0
F0.8708184314249052
sI1
Fnan
sI2
Fnan
sI3
Fnan
sI4
Fnan
sI5
Fnan
sI6
Fnan
sI7
Fnan
sI8
Fnan
sI9
Fnan
ssg81
(dp367
I0
F11.518800000000002
sI1
Fnan
sI2
Fnan
sI3
Fnan
sI4
Fnan
sI5
Fnan
sI6
Fnan
sI7
Fnan
sI8
Fnan
sI9
Fnan
ssg83
(dp368
I0
F11.365
sI1
F11.362
sI2
F11.344
sI3
F11.35
sI4
F11.349
sI5
F11.4
sI6
F11.357
sI7
F11.368
sI8
F11.378
sI9
F11.376
ssg85
(dp369
I0
F-3.252588
sI1
F4.957439
sI2
F-4.218524
sI3
F3.082398
sI4
F5.949552
sI5
F4.580959
sI6
F4.505009
sI7
F-1.690611
sI8
F-4.217949
sI9
F3.3366
ssg87
(dp370
I0
F0.017365674955689556
sI1
Fnan
sI2
Fnan
sI3
Fnan
sI4
Fnan
sI5
Fnan
sI6
Fnan
sI7
Fnan
sI8
Fnan
sI9
Fnan
ssg89
(dp371
I0
F0.72269992599634
sI1
F0.7236342975294218
sI2
F0.7159597978084336
sI3
F0.7217950357664704
sI4
F0.7175843761893759
sI5
F0.7157502106364669
sI6
F0.7191225351207904
sI7
F0.7213197731422738
sI8
F0.716711725548034
sI9
F0.7171334301865928
ssg91
(dp372
I0
F30.0
sI1
F30.0
sI2
F30.0
sI3
F30.0
sI4
F30.0
sI5
F30.0
sI6
F30.0
sI7
F30.0
sI8
F30.0
sI9
F30.0
ssg93
(dp373
I0
F0.002
sI1
F0.002
sI2
F0.002
sI3
F0.002
sI4
F0.002
sI5
F0.003
sI6
F0.002
sI7
F0.002
sI8
F0.002
sI9
F0.003
ssg95
(dp374
I0
F0.002
sI1
F0.002
sI2
F0.002
sI3
F0.002
sI4
F0.002
sI5
F0.002
sI6
F0.002
sI7
F0.002
sI8
F0.002
sI9
F0.002
ssg97
(dp375
I0
F3.471339
sI1
F2.852792
sI2
F3.472188
sI3
F-2.130278
sI4
F3.089326
sI5
F4.053559
sI6
F-2.599592
sI7
F2.524935
sI8
F-1.71284
sI9
F3.802844
ssg99
(dp376
I0
S"KIC8462852-20181119at013227_-35-1X1-030-g'_cal.fts.mag.1"
p377
sI1
S"KIC8462852-20181119at013020_-35-1X1-030-g'_cal.fts.mag.1"
p378
sI2
S"KIC8462852-20181119at021512_-35-1X1-030-g'_cal.fts.mag.1"
p379
sI3
S"KIC8462852-20181119at021228_-35-1X1-030-g'_cal.fts.mag.1"
p380
sI4
S"KIC8462852-20181119at021113_-35-1X1-030-g'_cal.fts.mag.1"
p381
sI5
S"KIC8462852-20181119at021722_-35-1X1-030-g'_cal.fts.mag.1"
p382
sI6
S"KIC8462852-20181119at013123_-35-1X1-030-g'_cal.fts.mag.1"
p383
sI7
S"KIC8462852-20181119at013330_-35-1X1-030-g'_cal.fts.mag.1"
p384
sI8
S"KIC8462852-20181119at021617_-35-1X1-030-g'_cal.fts.mag.1"
p385
sI9
S"KIC8462852-20181119at012906_-35-1X1-030-g'_cal.fts.mag.1"
p386
ssg111
(dp387
I0
F0.005460078107341338
sI1
Fnan
sI2
Fnan
sI3
Fnan
sI4
Fnan
sI5
Fnan
sI6
Fnan
sI7
Fnan
sI8
Fnan
sI9
Fnan
ssg113
(dp388
I0
F6784.41
sI1
F6811.676666666666
sI2
F6924.116666666667
sI3
F6901.6900000000005
sI4
F6920.87
sI5
F6548.1866666666665
sI6
F6877.966666666666
sI7
F6838.4766666666665
sI8
F6718.513333333333
sI9
F6741.92
ssg115
(dp389
I0
F0.01856400339965049
sI1
Fnan
sI2
Fnan
sI3
Fnan
sI4
Fnan
sI5
Fnan
sI6
Fnan
sI7
Fnan
sI8
Fnan
sI9
Fnan
ssg117
(dp390
I0
S"g'"
p391
sI1
S"g'"
p392
sI2
S"g'"
p393
sI3
S"g'"
p394
sI4
S"g'"
p395
sI5
S"g'"
p396
sI6
S"g'"
p397
sI7
S"g'"
p398
sI8
S"g'"
p399
sI9
S"g'"
p400
ssg129
(dp401
I0
F0.0027496604757493368
sI1
Fnan
sI2
Fnan
sI3
Fnan
sI4
Fnan
sI5
Fnan
sI6
Fnan
sI7
Fnan
sI8
Fnan
sI9
Fnan
ssg131
(dp402
I0
F3.447852
sI1
F4.045443
sI2
F3.502781
sI3
F4.090125
sI4
F2.577636
sI5
F3.936739
sI6
F3.610018
sI7
F3.172284
sI8
F-2.076458
sI9
F3.968695
ssg133
(dp403
I0
F1.5134642409708001
sI1
Fnan
sI2
Fnan
sI3
Fnan
sI4
Fnan
sI5
Fnan
sI6
Fnan
sI7
Fnan
sI8
Fnan
sI9
Fnan
ssg135
(dp404
I0
F2458441.5780844907
sI1
Fnan
sI2
Fnan
sI3
Fnan
sI4
Fnan
sI5
Fnan
sI6
Fnan
sI7
Fnan
sI8
Fnan
sI9
Fnan
ssg137
(dp405
I0
F0.0027496604757493368
sI1
Fnan
sI2
Fnan
sI3
Fnan
sI4
Fnan
sI5
Fnan
sI6
Fnan
sI7
Fnan
sI8
Fnan
sI9
Fnan
ssg139
(dp406
I0
F30.2961
sI1
F32.47547
sI2
F29.01383
sI3
F29.26335
sI4
F28.37424
sI5
F29.53634
sI6
F31.5953
sI7
F30.12486
sI8
F28.85657
sI9
F35.06745
ssg141
(dp407
I0
F10.991
sI1
F10.986
sI2
F10.971
sI3
F10.98
sI4
F10.966
sI5
F11.027
sI6
F10.986
sI7
F10.984
sI8
F11.0
sI9
F11.002
ssg143
(dp408
I0
F0.8708184314249052
sI1
Fnan
sI2
Fnan
sI3
Fnan
sI4
Fnan
sI5
Fnan
sI6
Fnan
sI7
Fnan
sI8
Fnan
sI9
Fnan
sssS'V'
p409
(dp410
g3
(dp411
I0
F0.694102927343803
sI1
Fnan
sI2
Fnan
sI3
Fnan
sI4
Fnan
sI5
Fnan
sI6
Fnan
sI7
Fnan
ssg5
(dp412
I0
S'NoError'
p413
sI1
S'NoError'
p414
sI2
S'NoError'
p415
sI3
S'NoError'
p416
sI4
S'NoError'
p417
sI5
S'NoError'
p418
sI6
S'NoError'
p419
sI7
S'NoError'
p420
ssg17
(dp421
I0
F0.002
sI1
F0.002
sI2
F0.002
sI3
F0.002
sI4
F0.002
sI5
F0.002
sI6
F0.002
sI7
F0.002
ssg19
(dp422
I0
F0.8867505027472884
sI1
F0.885176775759848
sI2
F0.8897617940384646
sI3
F0.8895638460291105
sI4
F0.8886965465024894
sI5
F0.883780092147894
sI6
F0.8867789216945279
sI7
F0.8906369946026148
ssg21
(dp423
I0
F0.0024142553725625343
sI1
Fnan
sI2
Fnan
sI3
Fnan
sI4
Fnan
sI5
Fnan
sI6
Fnan
sI7
Fnan
ssg23
(dp424
I0
F0.8876431841902797
sI1
Fnan
sI2
Fnan
sI3
Fnan
sI4
Fnan
sI5
Fnan
sI6
Fnan
sI7
Fnan
ssg25
(dp425
I0
F11.436
sI1
F11.437
sI2
F11.423
sI3
F11.437
sI4
F11.442
sI5
F11.461
sI6
F11.448
sI7
F11.431
ssg27
(dp426
I0
F23.26836
sI1
F20.66508
sI2
F24.46131
sI3
F20.57364
sI4
F19.42088
sI5
F20.8534
sI6
F20.27287
sI7
F23.70932
ssg29
(dp427
I0
F2458441.6089699073
sI1
F2458441.5783912037
sI2
F2458441.607453704
sI3
F2458441.579884259
sI4
F2458441.5776504627
sI5
F2458441.5791435186
sI6
F2458441.5768981483
sI7
F2458441.6082060183
ssg31
(dp428
I0
F1.2977241249999998
sI1
Fnan
sI2
Fnan
sI3
Fnan
sI4
Fnan
sI5
Fnan
sI6
Fnan
sI7
Fnan
ssg33
(dp429
I0
F1.2059571249999999
sI1
Fnan
sI2
Fnan
sI3
Fnan
sI4
Fnan
sI5
Fnan
sI6
Fnan
sI7
Fnan
ssg35
(dp430
I0
F0.6933727847027972
sI1
F0.6934037223832156
sI2
F0.6961932211113733
sI3
F0.6941153563368053
sI4
F0.6939282666525829
sI5
F0.6957916999654796
sI6
F0.6971856937658768
sI7
F0.6919154402543669
ssg37
(dp431
I0
F0.001365861186157804
sI1
Fnan
sI2
Fnan
sI3
Fnan
sI4
Fnan
sI5
Fnan
sI6
Fnan
sI7
Fnan
ssg39
(dp432
I0
F1.420238375
sI1
Fnan
sI2
Fnan
sI3
Fnan
sI4
Fnan
sI5
Fnan
sI6
Fnan
sI7
Fnan
ssg41
(dp433
I0
g413
sI1
g414
sI2
g415
sI3
g416
sI4
g417
sI5
g418
sI6
g419
sI7
g420
ssg43
(dp434
I0
F0.0017554128133097622
sI1
Fnan
sI2
Fnan
sI3
Fnan
sI4
Fnan
sI5
Fnan
sI6
Fnan
sI7
Fnan
ssg45
(dp435
I0
F0.014322808982279186
sI1
Fnan
sI2
Fnan
sI3
Fnan
sI4
Fnan
sI5
Fnan
sI6
Fnan
sI7
Fnan
ssg47
(dp436
I0
F2.7617325
sI1
Fnan
sI2
Fnan
sI3
Fnan
sI4
Fnan
sI5
Fnan
sI6
Fnan
sI7
Fnan
ssg49
(dp437
I0
F1.5016676600533385
sI1
F1.499167449230125
sI2
F1.49904606693437
sI3
F1.500880950352198
sI4
F1.500737634311379
sI5
F1.505338343745908
sI6
F1.5057576720770232
sI7
F1.4991923949052843
ssg51
(dp438
I0
g413
sI1
g414
sI2
g415
sI3
g416
sI4
g417
sI5
g418
sI6
g419
sI7
g420
ssg53
(dp439
I0
F24.54966
sI1
F20.59531
sI2
F23.80962
sI3
F21.61922
sI4
F19.42192
sI5
F22.72738
sI6
F19.60891
sI7
F24.29422
ssg55
(dp440
I0
F10.77
sI1
Fnan
sI2
Fnan
sI3
Fnan
sI4
Fnan
sI5
Fnan
sI6
Fnan
sI7
Fnan
ssg57
(dp441
I0
F0.7166362305647284
sI1
Fnan
sI2
Fnan
sI3
Fnan
sI4
Fnan
sI5
Fnan
sI6
Fnan
sI7
Fnan
ssg59
(dp442
I0
F4.785217
sI1
F4.570062
sI2
F-2.077045
sI3
F-3.546691
sI4
F-2.662021
sI5
F2.458247
sI6
F4.231085
sI7
F1.888803
ssg61
(dp443
I0
F11.131499999999999
sI1
Fnan
sI2
Fnan
sI3
Fnan
sI4
Fnan
sI5
Fnan
sI6
Fnan
sI7
Fnan
ssg63
(dp444
I0
g413
sI1
g414
sI2
g415
sI3
g416
sI4
g417
sI5
g418
sI6
g419
sI7
g420
ssg65
(dp445
I0
F8894.01
sI1
F8876.933333333332
sI2
F8986.17
sI3
F8896.203333333333
sI4
F8854.033333333333
sI5
F8641.07
sI6
F8752.583333333334
sI7
F8979.99
ssg67
(dp446
I0
F1.167804
sI1
F1.0883209999999999
sI2
F1.163101
sI3
F1.091467
sI4
F1.086768
sI5
F1.089891
sI6
F1.085226
sI7
F1.165457
ssg69
(dp447
I0
F7643.133333333333
sI1
F7660.596666666666
sI2
F7695.6433333333325
sI3
F7612.483333333334
sI4
F7588.17
sI5
F7446.316666666667
sI6
F7502.25
sI7
F7678.316666666667
ssg71
(dp448
I0
F12416.646666666667
sI1
F12396.263333333334
sI2
F12503.403333333332
sI3
F12388.786666666665
sI4
F12337.716666666667
sI5
F12108.480000000001
sI6
F12237.92
sI7
F12487.003333333332
ssg73
(dp449
I0
F23.57145
sI1
F20.38935
sI2
F24.62824
sI3
F21.86544
sI4
F20.69381
sI5
F22.07378
sI6
F20.17772
sI7
F24.27068
ssg75
(dp450
I0
F11.292
sI1
F11.289
sI2
F11.284
sI3
F11.296
sI4
F11.3
sI5
F11.32
sI6
F11.312
sI7
F11.287
ssg77
(dp451
I0
F0.002
sI1
F0.002
sI2
F0.002
sI3
F0.002
sI4
F0.002
sI5
F0.002
sI6
F0.002
sI7
F0.002
ssg79
(dp452
I0
F0.6944882731465623
sI1
Fnan
sI2
Fnan
sI3
Fnan
sI4
Fnan
sI5
Fnan
sI6
Fnan
sI7
Fnan
ssg81
(dp453
I0
F11.2975
sI1
Fnan
sI2
Fnan
sI3
Fnan
sI4
Fnan
sI5
Fnan
sI6
Fnan
sI7
Fnan
ssg83
(dp454
I0
F11.127
sI1
F11.129
sI2
F11.116
sI3
F11.127
sI4
F11.132
sI5
F11.159
sI6
F11.145
sI7
F11.117
ssg85
(dp455
I0
F-1.783127
sI1
F-2.686228
sI2
F3.624682
sI3
F3.745128
sI4
F-3.252807
sI5
F3.982417
sI6
F3.218292
sI7
F3.533436
ssg87
(dp456
I0
F0.011600492600378211
sI1
Fnan
sI2
Fnan
sI3
Fnan
sI4
Fnan
sI5
Fnan
sI6
Fnan
sI7
Fnan
ssg89
(dp457
I0
F0.7173062241003991
sI1
F0.7202111451985197
sI2
F0.7162211379410045
sI3
F0.7152912294845649
sI4
F0.7161437823681386
sI5
F0.717732834366689
sI6
F0.7148232589626642
sI7
F0.715360232095847
ssg91
(dp458
I0
F30.0
sI1
F30.0
sI2
F30.0
sI3
F30.0
sI4
F30.0
sI5
F30.0
sI6
F30.0
sI7
F30.0
ssg93
(dp459
I0
F0.002
sI1
F0.002
sI2
F0.002
sI3
F0.002
sI4
F0.002
sI5
F0.002
sI6
F0.002
sI7
F0.002
ssg95
(dp460
I0
F0.002
sI1
F0.002
sI2
F0.002
sI3
F0.002
sI4
F0.002
sI5
F0.002
sI6
F0.002
sI7
F0.002
ssg97
(dp461
I0
F2.79646
sI1
F4.311869
sI2
F3.562753
sI3
F3.009941
sI4
F3.793016
sI5
F2.169463
sI6
F4.035411
sI7
F-1.585053
ssg99
(dp462
I0
S'KIC8462852-20181119at023655_-35-1X1-030-V_cal.fts.mag.1'
p463
sI1
S'KIC8462852-20181119at015253_-35-1X1-030-V_cal.fts.mag.1'
p464
sI2
S'KIC8462852-20181119at023437_-35-1X1-030-V_cal.fts.mag.1'
p465
sI3
S'KIC8462852-20181119at015502_-35-1X1-030-V_cal.fts.mag.1'
p466
sI4
S'KIC8462852-20181119at015149_-35-1X1-030-V_cal.fts.mag.1'
p467
sI5
S'KIC8462852-20181119at015358_-35-1X1-030-V_cal.fts.mag.1'
p468
sI6
S'KIC8462852-20181119at015037_-35-1X1-030-V_cal.fts.mag.1'
p469
sI7
S'KIC8462852-20181119at023549_-35-1X1-030-V_cal.fts.mag.1'
p470
ssg111
(dp471
I0
F0.002689535301862531
sI1
Fnan
sI2
Fnan
sI3
Fnan
sI4
Fnan
sI5
Fnan
sI6
Fnan
sI7
Fnan
ssg113
(dp472
I0
F6691.923333333334
sI1
F6687.6
sI2
F6772.85
sI3
F6686.0599999999995
sI4
F6657.066666666667
sI5
F6539.483333333334
sI6
F6621.58
sI7
F6722.03
ssg115
(dp473
I0
F0.012649110640673358
sI1
Fnan
sI2
Fnan
sI3
Fnan
sI4
Fnan
sI5
Fnan
sI6
Fnan
sI7
Fnan
ssg117
(dp474
I0
g409
sI1
g409
sI2
g409
sI3
g409
sI4
g409
sI5
g409
sI6
g409
sI7
g409
ssg129
(dp475
I0
F0.0017474289346023895
sI1
Fnan
sI2
Fnan
sI3
Fnan
sI4
Fnan
sI5
Fnan
sI6
Fnan
sI7
Fnan
ssg131
(dp476
I0
F5.363698
sI1
F-3.650979
sI2
F2.071916
sI3
F3.575067
sI4
F5.088646
sI5
F-3.079268
sI6
F5.136883
sI7
F-3.144056
ssg133
(dp477
I0
F1.5014735214512034
sI1
Fnan
sI2
Fnan
sI3
Fnan
sI4
Fnan
sI5
Fnan
sI6
Fnan
sI7
Fnan
ssg135
(dp478
I0
F2458441.579513889
sI1
Fnan
sI2
Fnan
sI3
Fnan
sI4
Fnan
sI5
Fnan
sI6
Fnan
sI7
Fnan
ssg137
(dp479
I0
F0.0017474289346023895
sI1
Fnan
sI2
Fnan
sI3
Fnan
sI4
Fnan
sI5
Fnan
sI6
Fnan
sI7
Fnan
ssg139
(dp480
I0
F25.62163
sI1
F21.84833
sI2
F25.18325
sI3
F22.68077
sI4
F21.48939
sI5
F23.7909
sI6
F21.34973
sI7
F24.97062
ssg141
(dp481
I0
F10.765
sI1
F10.767
sI2
F10.757
sI3
F10.767
sI4
F10.772
sI5
F10.792
sI6
F10.781
sI7
F10.759
ssg143
(dp482
I0
F0.6944882731465623
sI1
Fnan
sI2
Fnan
sI3
Fnan
sI4
Fnan
sI5
Fnan
sI6
Fnan
sI7
Fnan
sss.