(dp0
S'V'
p1
(dp2
S'sigmean'
p3
(dp4
I0
F0.6938408389967877
sI1
Fnan
sI2
Fnan
sI3
Fnan
sI4
Fnan
sI5
Fnan
sI6
Fnan
sI7
Fnan
sI8
Fnan
sI9
Fnan
sI10
Fnan
sI11
Fnan
sI12
Fnan
sI13
Fnan
sI14
Fnan
ssS'ref3flag'
p5
(dp6
I0
S'NoError'
p7
sI1
S'NoError'
p8
sI2
S'NoError'
p9
sI3
S'NoError'
p10
sI4
S'NoError'
p11
sI5
S'NoError'
p12
sI6
S'NoError'
p13
sI7
S'NoError'
p14
sI8
S'NoError'
p15
sI9
S'NoError'
p16
sI10
S'NoError'
p17
sI11
S'NoError'
p18
sI12
S'NoError'
p19
sI13
S'NoError'
p20
sI14
S'NoError'
p21
ssS'tabbyerr'
p22
(dp23
I0
F0.002
sI1
F0.002
sI2
F0.002
sI3
F0.003
sI4
F0.002
sI5
F0.002
sI6
F0.002
sI7
F0.002
sI8
F0.002
sI9
F0.002
sI10
F0.002
sI11
F0.002
sI12
F0.002
sI13
F0.002
sI14
F0.002
ssS'ref2rel'
p24
(dp25
I0
F0.8850513592003724
sI1
F0.8829242348165445
sI2
F0.8944108015657265
sI3
F0.890602371337317
sI4
F0.8909035976360614
sI5
F0.8908663314895469
sI6
F0.8838191401032073
sI7
F0.8898495488671961
sI8
F0.8881753325457252
sI9
F0.8871055643123962
sI10
F0.8867523926462183
sI11
F0.8897489840157666
sI12
F0.8863521884059549
sI13
F0.8886433474043548
sI14
F0.8866804519746
ssS'ref2err'
p26
(dp27
I0
F0.0030467232007580594
sI1
Fnan
sI2
Fnan
sI3
Fnan
sI4
Fnan
sI5
Fnan
sI6
Fnan
sI7
Fnan
sI8
Fnan
sI9
Fnan
sI10
Fnan
sI11
Fnan
sI12
Fnan
sI13
Fnan
sI14
Fnan
ssS'ref2mean'
p28
(dp29
I0
F0.8881257097547325
sI1
Fnan
sI2
Fnan
sI3
Fnan
sI4
Fnan
sI5
Fnan
sI6
Fnan
sI7
Fnan
sI8
Fnan
sI9
Fnan
sI10
Fnan
sI11
Fnan
sI12
Fnan
sI13
Fnan
sI14
Fnan
ssS'tabbymag'
p30
(dp31
I0
F11.397
sI1
F11.391
sI2
F11.542
sI3
F12.071
sI4
F11.469
sI5
F11.59
sI6
F11.39
sI7
F11.465
sI8
F11.411
sI9
F11.416
sI10
F11.425
sI11
F11.572
sI12
F11.394
sI13
F11.425
sI14
F11.396
ssS'tabbybkg'
p32
(dp33
I0
F10.73848
sI1
F11.06686
sI2
F11.17947
sI3
F12.02942
sI4
F10.97425
sI5
F12.00753
sI6
F11.20593
sI7
F11.95148
sI8
F10.80177
sI9
F12.12504
sI10
F11.40216
sI11
F11.56738
sI12
F11.69732
sI13
F11.83803
sI14
F11.90919
ssS'JD'
p34
(dp35
I0
F2458276.816493056
sI1
F2458276.8030208335
sI2
F2458276.792037037
sI3
F2458276.7912152777
sI4
F2458276.8046875
sI5
F2458276.7903819443
sI6
F2458276.8156712963
sI7
F2458276.7937037037
sI8
F2458276.8063425925
sI9
F2458276.8181481482
sI10
F2458276.8038541665
sI11
F2458276.79287037
sI12
F2458276.8055092595
sI13
F2458276.817326389
sI14
F2458276.8189814813
ssS'ref3rmsmean'
p36
(dp37
I0
F2.2206351999999994
sI1
Fnan
sI2
Fnan
sI3
Fnan
sI4
Fnan
sI5
Fnan
sI6
Fnan
sI7
Fnan
sI8
Fnan
sI9
Fnan
sI10
Fnan
sI11
Fnan
sI12
Fnan
sI13
Fnan
sI14
Fnan
ssS'ref1rmsmean'
p38
(dp39
I0
F0.7136968666666668
sI1
Fnan
sI2
Fnan
sI3
Fnan
sI4
Fnan
sI5
Fnan
sI6
Fnan
sI7
Fnan
sI8
Fnan
sI9
Fnan
sI10
Fnan
sI11
Fnan
sI12
Fnan
sI13
Fnan
sI14
Fnan
ssS'relflux'
p40
(dp41
I0
F0.6961122734389986
sI1
F0.6945172174656922
sI2
F0.6906713609194854
sI3
F0.6922156921750006
sI4
F0.6940488349445381
sI5
F0.6965893042067618
sI6
F0.6927854826980128
sI7
F0.6924105891815795
sI8
F0.6951522918159039
sI9
F0.6881837719275942
sI10
F0.6936392969100579
sI11
F0.6921673415279557
sI12
F0.6949976571121921
sI13
F0.6942026365843539
sI14
F0.6942617669744947
ssS'sigerr'
p42
(dp43
I0
F0.001587174893727417
sI1
Fnan
sI2
Fnan
sI3
Fnan
sI4
Fnan
sI5
Fnan
sI6
Fnan
sI7
Fnan
sI8
Fnan
sI9
Fnan
sI10
Fnan
sI11
Fnan
sI12
Fnan
sI13
Fnan
sI14
Fnan
ssS'tabbyrmsmean'
p44
(dp45
I0
F1.6725052666666669
sI1
Fnan
sI2
Fnan
sI3
Fnan
sI4
Fnan
sI5
Fnan
sI6
Fnan
sI7
Fnan
sI8
Fnan
sI9
Fnan
sI10
Fnan
sI11
Fnan
sI12
Fnan
sI13
Fnan
sI14
Fnan
ssS'tabbyflag'
p46
(dp47
I0
g7
sI1
g8
sI2
g9
sI3
g10
sI4
g11
sI5
g12
sI6
g13
sI7
g14
sI8
g15
sI9
g16
sI10
g17
sI11
g18
sI12
g19
sI13
g20
sI14
g21
ssS'ref1err'
p48
(dp49
I0
F0.0033167967844106895
sI1
Fnan
sI2
Fnan
sI3
Fnan
sI4
Fnan
sI5
Fnan
sI6
Fnan
sI7
Fnan
sI8
Fnan
sI9
Fnan
sI10
Fnan
sI11
Fnan
sI12
Fnan
sI13
Fnan
sI14
Fnan
ssS'ref2magmeanerr'
p50
(dp51
I0
F0.17224545055848425
sI1
Fnan
sI2
Fnan
sI3
Fnan
sI4
Fnan
sI5
Fnan
sI6
Fnan
sI7
Fnan
sI8
Fnan
sI9
Fnan
sI10
Fnan
sI11
Fnan
sI12
Fnan
sI13
Fnan
sI14
Fnan
ssS'ref2rmsmean'
p52
(dp53
I0
F2.289185666666667
sI1
Fnan
sI2
Fnan
sI3
Fnan
sI4
Fnan
sI5
Fnan
sI6
Fnan
sI7
Fnan
sI8
Fnan
sI9
Fnan
sI10
Fnan
sI11
Fnan
sI12
Fnan
sI13
Fnan
sI14
Fnan
ssS'ref3rel'
p54
(dp55
I0
F1.5039123924209314
sI1
F1.5006171087978621
sI2
F1.4956126304624835
sI3
F1.5047426189123703
sI4
F1.49934219193533
sI5
F1.4923833040424244
sI6
F1.496518870157313
sI7
F1.5000379412878195
sI8
F1.4966467249336097
sI9
F1.4945857131301539
sI10
F1.5081229787178465
sI11
F1.5002544422580135
sI12
F1.5022407983473214
sI13
F1.5041994594972858
sI14
F1.5074660311551586
ssS'ref1flag'
p56
(dp57
I0
g7
sI1
g8
sI2
g9
sI3
g10
sI4
g11
sI5
g12
sI6
g13
sI7
g14
sI8
g15
sI9
g16
sI10
g17
sI11
g18
sI12
g19
sI13
g20
sI14
g21
ssS'ref2bkg'
p58
(dp59
I0
F11.78025
sI1
F11.56712
sI2
F11.80512
sI3
F12.27471
sI4
F12.72009
sI5
F11.11667
sI6
F11.48716
sI7
F12.26853
sI8
F11.94559
sI9
F12.28859
sI10
F12.85747
sI11
F11.78575
sI12
F11.56461
sI13
F11.92181
sI14
F11.63103
ssS'ref3magmean'
p60
(dp61
I0
F10.819666666666667
sI1
Fnan
sI2
Fnan
sI3
Fnan
sI4
Fnan
sI5
Fnan
sI6
Fnan
sI7
Fnan
sI8
Fnan
sI9
Fnan
sI10
Fnan
sI11
Fnan
sI12
Fnan
sI13
Fnan
sI14
Fnan
ssS'ref1mean'
p62
(dp63
I0
F0.7168345650498359
sI1
Fnan
sI2
Fnan
sI3
Fnan
sI4
Fnan
sI5
Fnan
sI6
Fnan
sI7
Fnan
sI8
Fnan
sI9
Fnan
sI10
Fnan
sI11
Fnan
sI12
Fnan
sI13
Fnan
sI14
Fnan
ssS'ref1rms'
p64
(dp65
I0
F3.405229
sI1
F-2.003777
sI2
F-2.861823
sI3
F3.82451
sI4
F3.303919
sI5
F3.185328
sI6
F1.835406
sI7
F-3.276365
sI8
F1.774288
sI9
F3.133713
sI10
F-2.474922
sI11
F-2.930318
sI12
F3.23692
sI13
F-2.98846
sI14
F3.541805
ssS'ref2magmean'
p66
(dp67
I0
F11.180266666666665
sI1
Fnan
sI2
Fnan
sI3
Fnan
sI4
Fnan
sI5
Fnan
sI6
Fnan
sI7
Fnan
sI8
Fnan
sI9
Fnan
sI10
Fnan
sI11
Fnan
sI12
Fnan
sI13
Fnan
sI14
Fnan
ssS'ref2flag'
p68
(dp69
I0
g7
sI1
g8
sI2
g9
sI3
g10
sI4
g11
sI5
g12
sI6
g13
sI7
g14
sI8
g15
sI9
g16
sI10
g17
sI11
g18
sI12
g19
sI13
g20
sI14
g21
ssS'ref2'
p70
(dp71
I0
F9169.071111111112
sI1
F9231.782222222222
sI2
F8147.453333333334
sI3
F4980.471111111111
sI4
F8649.644444444444
sI5
F7711.248888888889
sI6
F9266.711111111112
sI7
F8695.231111111112
sI8
F9085.815555555555
sI9
F9129.893333333333
sI10
F8984.137777777778
sI11
F7882.973333333333
sI12
F9224.462222222222
sI13
F8986.133333333333
sI14
F9220.25111111111
ssS'airmass'
p72
(dp73
I0
F1.210819
sI1
F1.26464
sI2
F1.315412
sI3
F1.3195459999999999
sI4
F1.257534
sI5
F1.32368
sI6
F1.213902
sI7
F1.307301
sI8
F1.250651
sI9
F1.2048020000000002
sI10
F1.261064
sI11
F1.311348
sI12
F1.254059
sI13
F1.207827
sI14
F1.201802
ssS'ref1'
p74
(dp75
I0
F7891.248888888889
sI1
F7990.104444444445
sI2
F6937.768888888889
sI3
F4244.155555555555
sI4
F7391.846666666666
sI5
F6618.820000000001
sI6
F8028.44
sI7
F7440.811111111111
sI8
F7813.417777777778
sI9
F7875.526666666667
sI10
F7689.822222222222
sI11
F6745.973333333333
sI12
F7929.642222222223
sI13
F7685.5888888888885
sI14
F7896.086666666667
ssS'ref3'
p76
(dp77
I0
F12828.613333333333
sI1
F12921.72888888889
sI2
F11280.824444444444
sI3
F6940.344444444445
sI4
F12025.842222222223
sI5
F10692.977777777778
sI6
F12941.259999999998
sI7
F12102.337777777777
sI8
F12646.09111111111
sI9
F12708.02888888889
sI10
F12573.191111111111
sI11
F10973.571111111112
sI12
F12884.797777777778
sI13
F12538.797777777778
sI14
F12901.148888888887
ssS'ref1bkg'
p78
(dp79
I0
F11.12981
sI1
F11.35279
sI2
F11.93275
sI3
F11.07999
sI4
F11.46635
sI5
F11.92688
sI6
F10.66295
sI7
F12.24609
sI8
F11.11836
sI9
F12.15274
sI10
F12.00466
sI11
F12.4594
sI12
F11.82541
sI13
F12.76438
sI14
F11.05507
ssS'ref1mag'
p80
(dp81
I0
F11.257
sI1
F11.244
sI2
F11.397
sI3
F11.931
sI4
F11.328
sI5
F11.448
sI6
F11.238
sI7
F11.321
sI8
F11.268
sI9
F11.259
sI10
F11.285
sI11
F11.427
sI12
F11.252
sI13
F11.286
sI14
F11.256
ssS'ref3magerr'
p82
(dp83
I0
F0.001
sI1
F0.001
sI2
F0.001
sI3
F0.002
sI4
F0.001
sI5
F0.002
sI6
F0.001
sI7
F0.001
sI8
F0.001
sI9
F0.001
sI10
F0.001
sI11
F0.001
sI12
F0.001
sI13
F0.001
sI14
F0.001
ssS'tabbymagmean'
p84
(dp85
I0
F0.6934637011921748
sI1
Fnan
sI2
Fnan
sI3
Fnan
sI4
Fnan
sI5
Fnan
sI6
Fnan
sI7
Fnan
sI8
Fnan
sI9
Fnan
sI10
Fnan
sI11
Fnan
sI12
Fnan
sI13
Fnan
sI14
Fnan
ssS'ref1magmean'
p86
(dp87
I0
F11.346466666666666
sI1
Fnan
sI2
Fnan
sI3
Fnan
sI4
Fnan
sI5
Fnan
sI6
Fnan
sI7
Fnan
sI8
Fnan
sI9
Fnan
sI10
Fnan
sI11
Fnan
sI12
Fnan
sI13
Fnan
sI14
Fnan
ssS'ref2mag'
p88
(dp89
I0
F11.094
sI1
F11.087
sI2
F11.222
sI3
F11.757
sI4
F11.158
sI5
F11.282
sI6
F11.083
sI7
F11.152
sI8
F11.104
sI9
F11.099
sI10
F11.116
sI11
F11.258
sI12
F11.088
sI13
F11.116
sI14
F11.088
ssS'ref3rms'
p90
(dp91
I0
F-1.1741
sI1
F3.926082
sI2
F2.700535
sI3
F4.832261
sI4
F3.325457
sI5
F4.215452
sI6
F4.871094
sI7
F-1.217042
sI8
F-2.322271
sI9
F2.908483
sI10
F3.834808
sI11
F-3.199901
sI12
F2.575867
sI13
F4.348664
sI14
F3.684139
ssS'ref3magmeanerr'
p92
(dp93
I0
F0.17349914230610014
sI1
Fnan
sI2
Fnan
sI3
Fnan
sI4
Fnan
sI5
Fnan
sI6
Fnan
sI7
Fnan
sI8
Fnan
sI9
Fnan
sI10
Fnan
sI11
Fnan
sI12
Fnan
sI13
Fnan
sI14
Fnan
ssS'ref1rel'
p94
(dp95
I0
F0.7174617772900946
sI1
F0.7213397826078235
sI2
F0.7141928860852881
sI3
F0.7120579184832058
sI4
F0.7150348415821247
sI5
F0.7192717325078224
sI6
F0.723023274826146
sI7
F0.715546240126784
sI8
F0.7190733788455235
sI9
F0.7212706947598291
sI10
F0.7134299673078441
sI11
F0.7155047260338144
sI12
F0.7173141228808402
sI13
F0.7141104284344594
sI14
F0.7138867039759389
ssS'exposure'
p96
(dp97
I0
F45.0
sI1
F45.0
sI2
F45.0
sI3
F45.0
sI4
F45.0
sI5
F45.0
sI6
F45.0
sI7
F45.0
sI8
F45.0
sI9
F45.0
sI10
F45.0
sI11
F45.0
sI12
F45.0
sI13
F45.0
sI14
F45.0
ssS'ref1magerr'
p98
(dp99
I0
F0.002
sI1
F0.002
sI2
F0.002
sI3
F0.003
sI4
F0.002
sI5
F0.002
sI6
F0.002
sI7
F0.002
sI8
F0.002
sI9
F0.002
sI10
F0.002
sI11
F0.002
sI12
F0.002
sI13
F0.002
sI14
F0.002
ssS'ref2magerr'
p100
(dp101
I0
F0.002
sI1
F0.002
sI2
F0.002
sI3
F0.002
sI4
F0.002
sI5
F0.002
sI6
F0.002
sI7
F0.002
sI8
F0.002
sI9
F0.002
sI10
F0.002
sI11
F0.002
sI12
F0.002
sI13
F0.002
sI14
F0.002
ssS'ref2rms'
p102
(dp103
I0
F-1.849114
sI1
F3.915486
sI2
F3.246631
sI3
F3.45096
sI4
F2.514815
sI5
F3.163858
sI6
F2.33487
sI7
F1.671305
sI8
F-3.144131
sI9
F2.227796
sI10
F4.162189
sI11
F3.885867
sI12
F2.157873
sI13
F3.37996
sI14
F3.21942
ssS'name'
p104
(dp105
I0
S'KIC8462852-20180607at073545_-25-1-045-V_cal.fts.mag.1'
p106
sI1
S'KIC8462852-20180607at071620_-25-1-045-V_cal.fts.mag.1'
p107
sI2
S'KIC8462852-20180607at070032_-25-1-045-V_cal.fts.mag.1'
p108
sI3
S'KIC8462852-20180607at065921_-25-1-045-V_cal.fts.mag.1'
p109
sI4
S'KIC8462852-20180607at071845_-25-1-045-V_cal.fts.mag.1'
p110
sI5
S'KIC8462852-20180607at065808_-25-1-045-V_cal.fts.mag.1'
p111
sI6
S'KIC8462852-20180607at073432_-25-1-045-V_cal.fts.mag.1'
p112
sI7
S'KIC8462852-20180607at070256_-25-1-045-V_cal.fts.mag.1'
p113
sI8
S'KIC8462852-20180607at072107_-25-1-045-V_cal.fts.mag.1'
p114
sI9
S'KIC8462852-20180607at073808_-25-1-045-V_cal.fts.mag.1'
p115
sI10
S'KIC8462852-20180607at071733_-25-1-045-V_cal.fts.mag.1'
p116
sI11
S'KIC8462852-20180607at070144_-25-1-045-V_cal.fts.mag.1'
p117
sI12
S'KIC8462852-20180607at071956_-25-1-045-V_cal.fts.mag.1'
p118
sI13
S'KIC8462852-20180607at073657_-25-1-045-V_cal.fts.mag.1'
p119
sI14
S'KIC8462852-20180607at073920_-25-1-045-V_cal.fts.mag.1'
p120
ssS'ref3err'
p121
(dp122
I0
F0.0047057913585289
sI1
Fnan
sI2
Fnan
sI3
Fnan
sI4
Fnan
sI5
Fnan
sI6
Fnan
sI7
Fnan
sI8
Fnan
sI9
Fnan
sI10
Fnan
sI11
Fnan
sI12
Fnan
sI13
Fnan
sI14
Fnan
ssS'tabby'
p123
(dp124
I0
F6935.351111111111
sI1
F6978.42
sI2
F6070.091111111111
sI3
F3729.8822222222225
sI4
F6493.366666666667
sI5
F5810.262222222222
sI6
F6982.448888888889
sI7
F6517.517777777777
sI8
F6846.166666666667
sI9
F6816.104444444445
sI10
F6762.3244444444435
sI11
F5907.075555555556
sI12
F6958.988888888889
sI13
F6759.34
sI14
F6946.664444444445
ssS'ref1magmeanerr'
p125
(dp126
I0
F0.17538442130957688
sI1
Fnan
sI2
Fnan
sI3
Fnan
sI4
Fnan
sI5
Fnan
sI6
Fnan
sI7
Fnan
sI8
Fnan
sI9
Fnan
sI10
Fnan
sI11
Fnan
sI12
Fnan
sI13
Fnan
sI14
Fnan
ssS'filter'
p127
(dp128
I0
g1
sI1
g1
sI2
g1
sI3
g1
sI4
g1
sI5
g1
sI6
g1
sI7
g1
sI8
g1
sI9
g1
sI10
g1
sI11
g1
sI12
g1
sI13
g1
sI14
g1
ssS'tabbymagerr'
p129
(dp130
I0
F0.002156992813688119
sI1
Fnan
sI2
Fnan
sI3
Fnan
sI4
Fnan
sI5
Fnan
sI6
Fnan
sI7
Fnan
sI8
Fnan
sI9
Fnan
sI10
Fnan
sI11
Fnan
sI12
Fnan
sI13
Fnan
sI14
Fnan
ssS'tabbyrms'
p131
(dp132
I0
F2.401829
sI1
F-2.255769
sI2
F3.24031
sI3
F3.776339
sI4
F2.869876
sI5
F-3.631883
sI6
F3.108779
sI7
F1.981126
sI8
F3.502731
sI9
F-2.485412
sI10
F3.810233
sI11
F3.213267
sI12
F2.647124
sI13
F4.632086
sI14
F-1.723057
ssS'ref3mean'
p133
(dp134
I0
F1.5004455470703952
sI1
Fnan
sI2
Fnan
sI3
Fnan
sI4
Fnan
sI5
Fnan
sI6
Fnan
sI7
Fnan
sI8
Fnan
sI9
Fnan
sI10
Fnan
sI11
Fnan
sI12
Fnan
sI13
Fnan
sI14
Fnan
ssS'median_JD'
p135
(dp136
I0
F2458276.8046875
sI1
Fnan
sI2
Fnan
sI3
Fnan
sI4
Fnan
sI5
Fnan
sI6
Fnan
sI7
Fnan
sI8
Fnan
sI9
Fnan
sI10
Fnan
sI11
Fnan
sI12
Fnan
sI13
Fnan
sI14
Fnan
ssS'error'
p137
(dp138
I0
F0.002156992813688119
sI1
Fnan
sI2
Fnan
sI3
Fnan
sI4
Fnan
sI5
Fnan
sI6
Fnan
sI7
Fnan
sI8
Fnan
sI9
Fnan
sI10
Fnan
sI11
Fnan
sI12
Fnan
sI13
Fnan
sI14
Fnan
ssS'ref3bkg'
p139
(dp140
I0
F12.45117
sI1
F13.06369
sI2
F13.29014
sI3
F13.49739
sI4
F14.19441
sI5
F12.53371
sI6
F12.61999
sI7
F13.45384
sI8
F13.64043
sI9
F12.74417
sI10
F14.39747
sI11
F14.02568
sI12
F13.00888
sI13
F13.31581
sI14
F13.64303
ssS'ref3mag'
p141
(dp142
I0
F10.73
sI1
F10.722
sI2
F10.869
sI3
F11.397
sI4
F10.8
sI5
F10.927
sI6
F10.72
sI7
F10.793
sI8
F10.745
sI9
F10.74
sI10
F10.751
sI11
F10.899
sI12
F10.725
sI13
F10.754
sI14
F10.723
ssS'mean'
p143
(dp144
I0
F0.6934637011921748
sI1
Fnan
sI2
Fnan
sI3
Fnan
sI4
Fnan
sI5
Fnan
sI6
Fnan
sI7
Fnan
sI8
Fnan
sI9
Fnan
sI10
Fnan
sI11
Fnan
sI12
Fnan
sI13
Fnan
sI14
Fnan
sss.