(dp0
S'i'
p1
(dp2
S'sigmean'
p3
(dp4
I0
F0.4400188521823367
sI1
Fnan
sI2
Fnan
sI3
Fnan
sI4
Fnan
sI5
Fnan
sI6
Fnan
sI7
Fnan
sI8
Fnan
sI9
Fnan
sI10
Fnan
sI11
Fnan
sI12
Fnan
sI13
Fnan
sI14
Fnan
ssS'ref3flag'
p5
(dp6
I0
S'NoError'
p7
sI1
S'NoError'
p8
sI2
S'NoError'
p9
sI3
S'NoError'
p10
sI4
S'NoError'
p11
sI5
S'NoError'
p12
sI6
S'NoError'
p13
sI7
S'NoError'
p14
sI8
S'NoError'
p15
sI9
S'NoError'
p16
sI10
S'NoError'
p17
sI11
S'NoError'
p18
sI12
S'NoError'
p19
sI13
S'NoError'
p20
sI14
S'NoError'
p21
ssS'tabbyerr'
p22
(dp23
I0
F0.003
sI1
F0.003
sI2
F0.003
sI3
F0.003
sI4
F0.003
sI5
F0.003
sI6
F0.003
sI7
F0.003
sI8
F0.003
sI9
F0.003
sI10
F0.003
sI11
F0.003
sI12
F0.003
sI13
F0.003
sI14
F0.003
ssS'ref2rel'
p24
(dp25
I0
F0.9093498873725249
sI1
F0.9122242820929969
sI2
F0.909256649968936
sI3
F0.9096451688024167
sI4
F0.9148993163415592
sI5
F0.9088779786398767
sI6
F0.9094450154836065
sI7
F0.9094370418480398
sI8
F0.9096736602395714
sI9
F0.9073382702986946
sI10
F0.9080119657226631
sI11
F0.9080248433794285
sI12
F0.9105103851837313
sI13
F0.9078631979700295
sI14
F0.9090803498145095
ssS'ref2err'
p26
(dp27
I0
F0.0018889601799926665
sI1
Fnan
sI2
Fnan
sI3
Fnan
sI4
Fnan
sI5
Fnan
sI6
Fnan
sI7
Fnan
sI8
Fnan
sI9
Fnan
sI10
Fnan
sI11
Fnan
sI12
Fnan
sI13
Fnan
sI14
Fnan
ssS'ref2mean'
p28
(dp29
I0
F0.9095758675439054
sI1
Fnan
sI2
Fnan
sI3
Fnan
sI4
Fnan
sI5
Fnan
sI6
Fnan
sI7
Fnan
sI8
Fnan
sI9
Fnan
sI10
Fnan
sI11
Fnan
sI12
Fnan
sI13
Fnan
sI14
Fnan
ssS'tabbymag'
p30
(dp31
I0
F11.875
sI1
F11.87
sI2
F11.887
sI3
F11.874
sI4
F11.891
sI5
F11.86
sI6
F11.855
sI7
F11.878
sI8
F11.891
sI9
F11.878
sI10
F11.897
sI11
F11.887
sI12
F11.869
sI13
F11.88
sI14
F11.908
ssS'tabbybkg'
p32
(dp33
I0
F11.55255
sI1
F16.79272
sI2
F11.76975
sI3
F11.928
sI4
F11.58886
sI5
F11.55346
sI6
F11.87932
sI7
F19.75523
sI8
F20.78866
sI9
F12.10908
sI10
F11.73977
sI11
F12.14524
sI12
F15.69782
sI13
F19.50863
sI14
F11.96695
ssS'JD'
p34
(dp35
I0
F2458369.662361111
sI1
F2458369.6263194443
sI2
F2458369.6458217595
sI3
F2458369.6616203706
sI4
F2458369.6428587963
sI5
F2458369.6638425924
sI6
F2458369.6645717593
sI7
F2458369.624849537
sI8
F2458369.6241203705
sI9
F2458369.663101852
sI10
F2458369.643599537
sI11
F2458369.6450810186
sI12
F2458369.627048611
sI13
F2458369.625578704
sI14
F2458369.6443518517
ssS'ref3rmsmean'
p36
(dp37
I0
F2.67227572
sI1
Fnan
sI2
Fnan
sI3
Fnan
sI4
Fnan
sI5
Fnan
sI6
Fnan
sI7
Fnan
sI8
Fnan
sI9
Fnan
sI10
Fnan
sI11
Fnan
sI12
Fnan
sI13
Fnan
sI14
Fnan
ssS'ref1rmsmean'
p38
(dp39
I0
F1.4018044666666667
sI1
Fnan
sI2
Fnan
sI3
Fnan
sI4
Fnan
sI5
Fnan
sI6
Fnan
sI7
Fnan
sI8
Fnan
sI9
Fnan
sI10
Fnan
sI11
Fnan
sI12
Fnan
sI13
Fnan
sI14
Fnan
ssS'relflux'
p40
(dp41
I0
F0.4401090958160566
sI1
F0.4407246587720871
sI2
F0.43977016572533195
sI3
F0.4410306073313399
sI4
F0.43708472285364824
sI5
F0.44177373427806915
sI6
F0.43944220273723233
sI7
F0.4402094029735697
sI8
F0.44071407902742454
sI9
F0.4384741157286229
sI10
F0.43952635149610797
sI11
F0.43929945329036724
sI12
F0.4416515690006053
sI13
F0.43930889627799474
sI14
F0.4399844801936366
ssS'sigerr'
p42
(dp43
I0
F0.0008209403742619269
sI1
Fnan
sI2
Fnan
sI3
Fnan
sI4
Fnan
sI5
Fnan
sI6
Fnan
sI7
Fnan
sI8
Fnan
sI9
Fnan
sI10
Fnan
sI11
Fnan
sI12
Fnan
sI13
Fnan
sI14
Fnan
ssS'tabbyrmsmean'
p44
(dp45
I0
F1.1781268
sI1
Fnan
sI2
Fnan
sI3
Fnan
sI4
Fnan
sI5
Fnan
sI6
Fnan
sI7
Fnan
sI8
Fnan
sI9
Fnan
sI10
Fnan
sI11
Fnan
sI12
Fnan
sI13
Fnan
sI14
Fnan
ssS'tabbyflag'
p46
(dp47
I0
g7
sI1
g8
sI2
g9
sI3
g10
sI4
g11
sI5
g12
sI6
g13
sI7
g14
sI8
g15
sI9
g16
sI10
g17
sI11
g18
sI12
g19
sI13
g20
sI14
g21
ssS'ref1err'
p48
(dp49
I0
F0.0017313188042263662
sI1
Fnan
sI2
Fnan
sI3
Fnan
sI4
Fnan
sI5
Fnan
sI6
Fnan
sI7
Fnan
sI8
Fnan
sI9
Fnan
sI10
Fnan
sI11
Fnan
sI12
Fnan
sI13
Fnan
sI14
Fnan
ssS'ref2magmeanerr'
p50
(dp51
I0
F0.013298048549997735
sI1
Fnan
sI2
Fnan
sI3
Fnan
sI4
Fnan
sI5
Fnan
sI6
Fnan
sI7
Fnan
sI8
Fnan
sI9
Fnan
sI10
Fnan
sI11
Fnan
sI12
Fnan
sI13
Fnan
sI14
Fnan
ssS'ref2rmsmean'
p52
(dp53
I0
F0.7274143333333333
sI1
Fnan
sI2
Fnan
sI3
Fnan
sI4
Fnan
sI5
Fnan
sI6
Fnan
sI7
Fnan
sI8
Fnan
sI9
Fnan
sI10
Fnan
sI11
Fnan
sI12
Fnan
sI13
Fnan
sI14
Fnan
ssS'ref3rel'
p54
(dp55
I0
F1.502673977185997
sI1
F1.5002480992274627
sI2
F1.5043619496031704
sI3
F1.496270650568123
sI4
F1.4956514428764165
sI5
F1.5018623430142777
sI6
F1.4951628981850955
sI7
F1.504069950317191
sI8
F1.5021554490910178
sI9
F1.50266117024078
sI10
F1.505980896106515
sI11
F1.4993978137255164
sI12
F1.500533982541841
sI13
F1.5030970787320848
sI14
F1.5011444945890966
ssS'ref1flag'
p56
(dp57
I0
g7
sI1
g8
sI2
g9
sI3
g10
sI4
g11
sI5
g12
sI6
g13
sI7
g14
sI8
g15
sI9
g16
sI10
g17
sI11
g18
sI12
g19
sI13
g20
sI14
g21
ssS'ref2bkg'
p58
(dp59
I0
F13.35466
sI1
F18.93253
sI2
F14.4957
sI3
F13.62332
sI4
F12.74201
sI5
F11.80969
sI6
F12.05005
sI7
F20.85171
sI8
F24.19295
sI9
F12.25922
sI10
F13.44175
sI11
F12.83865
sI12
F18.17625
sI13
F20.53809
sI14
F13.80119
ssS'ref3magmean'
p60
(dp61
I0
F10.715266666666666
sI1
Fnan
sI2
Fnan
sI3
Fnan
sI4
Fnan
sI5
Fnan
sI6
Fnan
sI7
Fnan
sI8
Fnan
sI9
Fnan
sI10
Fnan
sI11
Fnan
sI12
Fnan
sI13
Fnan
sI14
Fnan
ssS'ref1mean'
p62
(dp63
I0
F0.6977767459581182
sI1
Fnan
sI2
Fnan
sI3
Fnan
sI4
Fnan
sI5
Fnan
sI6
Fnan
sI7
Fnan
sI8
Fnan
sI9
Fnan
sI10
Fnan
sI11
Fnan
sI12
Fnan
sI13
Fnan
sI14
Fnan
ssS'ref1rms'
p64
(dp65
I0
F2.35266
sI1
F3.0247
sI2
F3.700556
sI3
F2.251154
sI4
F3.155437
sI5
F-3.642785
sI6
F3.082453
sI7
F-3.521978
sI8
F-1.915577
sI9
F3.552088
sI10
F-2.192532
sI11
F2.086026
sI12
F2.721017
sI13
F3.453028
sI14
F2.92082
ssS'ref2magmean'
p66
(dp67
I0
F11.058133333333332
sI1
Fnan
sI2
Fnan
sI3
Fnan
sI4
Fnan
sI5
Fnan
sI6
Fnan
sI7
Fnan
sI8
Fnan
sI9
Fnan
sI10
Fnan
sI11
Fnan
sI12
Fnan
sI13
Fnan
sI14
Fnan
ssS'ref2flag'
p68
(dp69
I0
g7
sI1
g8
sI2
g9
sI3
g10
sI4
g11
sI5
g12
sI6
g13
sI7
g14
sI8
g15
sI9
g16
sI10
g17
sI11
g18
sI12
g19
sI13
g20
sI14
g21
ssS'ref2'
p70
(dp71
I0
F9519.873333333333
sI1
F9564.03
sI2
F9422.643333333333
sI3
F9504.973333333333
sI4
F9483.663333333334
sI5
F9607.84
sI6
F9711.996666666668
sI7
F9488.976666666666
sI8
F9367.41
sI9
F9513.1
sI10
F9327.713333333335
sI11
F9420.390000000001
sI12
F9541.34
sI13
F9476.5
sI14
F9235.436666666666
ssS'airmass'
p72
(dp73
I0
F1.013423
sI1
F1.051685
sI2
F1.027036
sI3
F1.013893
sI4
F1.030155
sI5
F1.012518
sI6
F1.012084
sI7
F1.053936
sI8
F1.055075
sI9
F1.012965
sI10
F1.029344
sI11
F1.0277889999999998
sI12
F1.0505790000000002
sI13
F1.0528030000000002
sI14
F1.028563
ssS'ref1'
p74
(dp75
I0
F7871.2
sI1
F7881.946666666667
sI2
F7783.73
sI3
F7886.8
sI4
F7803.679999999999
sI5
F7954.266666666666
sI6
F8066.9
sI7
F7837.6066666666675
sI8
F7743.486666666667
sI9
F7892.15
sI10
F7713.490000000001
sI11
F7822.336666666667
sI12
F7884.323333333334
sI13
F7852.733333333334
sI14
F7646.833333333333
ssS'ref3'
p76
(dp77
I0
F13066.556666666667
sI1
F13086.646666666667
sI2
F12942.306666666667
sI3
F13011.4
sI4
F12927.92
sI5
F13187.933333333332
sI6
F13291.173333333334
sI7
F13030.196666666667
sI8
F12851.613333333335
sI9
F13077.096666666668
sI10
F12831.863333333335
sI11
F12926.853333333333
sI12
F13073.9
sI13
F13023.76
sI14
F12671.363333333335
ssS'ref1bkg'
p78
(dp79
I0
F13.32624
sI1
F18.55412
sI2
F12.89777
sI3
F12.52074
sI4
F11.70557
sI5
F13.19153
sI6
F12.62381
sI7
F21.26235
sI8
F23.16576
sI9
F12.91444
sI10
F13.81375
sI11
F12.73463
sI12
F17.08305
sI13
F18.77404
sI14
F12.43128
ssS'ref1mag'
p80
(dp81
I0
F11.26
sI1
F11.258
sI2
F11.272
sI3
F11.258
sI4
F11.269
sI5
F11.248
sI6
F11.233
sI7
F11.265
sI8
F11.278
sI9
F11.257
sI10
F11.282
sI11
F11.267
sI12
F11.258
sI13
F11.262
sI14
F11.291
ssS'ref3magerr'
p82
(dp83
I0
F0.002
sI1
F0.002
sI2
F0.002
sI3
F0.002
sI4
F0.002
sI5
F0.002
sI6
F0.002
sI7
F0.002
sI8
F0.002
sI9
F0.002
sI10
F0.002
sI11
F0.002
sI12
F0.002
sI13
F0.002
sI14
F0.002
ssS'tabbymagmean'
p84
(dp85
I0
F0.4399402357001395
sI1
Fnan
sI2
Fnan
sI3
Fnan
sI4
Fnan
sI5
Fnan
sI6
Fnan
sI7
Fnan
sI8
Fnan
sI9
Fnan
sI10
Fnan
sI11
Fnan
sI12
Fnan
sI13
Fnan
sI14
Fnan
ssS'ref1magmean'
p86
(dp87
I0
F11.263866666666669
sI1
Fnan
sI2
Fnan
sI3
Fnan
sI4
Fnan
sI5
Fnan
sI6
Fnan
sI7
Fnan
sI8
Fnan
sI9
Fnan
sI10
Fnan
sI11
Fnan
sI12
Fnan
sI13
Fnan
sI14
Fnan
ssS'ref2mag'
p88
(dp89
I0
F11.053
sI1
F11.048
sI2
F11.065
sI3
F11.055
sI4
F11.058
sI5
F11.043
sI6
F11.032
sI7
F11.057
sI8
F11.071
sI9
F11.054
sI10
F11.076
sI11
F11.065
sI12
F11.051
sI13
F11.058
sI14
F11.086
ssS'ref3rms'
p90
(dp91
I0
F4.355533
sI1
F3.751026
sI2
F4.541447
sI3
F-2.266275
sI4
F3.506727
sI5
F-1.925451
sI6
F-2.679721
sI7
F5.214193
sI8
F4.188481
sI9
F4.334845
sI10
F3.22684
sI11
F0.9067858
sI12
F3.835984
sI13
F3.921516
sI14
F5.172205
ssS'ref3magmeanerr'
p92
(dp93
I0
F0.012538322208713691
sI1
Fnan
sI2
Fnan
sI3
Fnan
sI4
Fnan
sI5
Fnan
sI6
Fnan
sI7
Fnan
sI8
Fnan
sI9
Fnan
sI10
Fnan
sI11
Fnan
sI12
Fnan
sI13
Fnan
sI14
Fnan
ssS'ref1rel'
p94
(dp95
I0
F0.696984871004404
sI1
F0.6959568389641928
sI2
F0.6960650482115989
sI3
F0.7005391039883273
sI4
F0.6963970268350814
sI5
F0.6978720616628932
sI6
F0.701372897735399
sI7
F0.6960829823238036
sI8
F0.6970141351847599
sI9
F0.6987234433107339
sI10
F0.6961766568043644
sI11
F0.7000717314424912
sI12
F0.6972575425539004
sI13
F0.6980126748164984
sI14
F0.6981241745333259
ssS'exposure'
p96
(dp97
I0
F30.0
sI1
F30.0
sI2
F30.0
sI3
F30.0
sI4
F30.0
sI5
F30.0
sI6
F30.0
sI7
F30.0
sI8
F30.0
sI9
F30.0
sI10
F30.0
sI11
F30.0
sI12
F30.0
sI13
F30.0
sI14
F30.0
ssS'ref1magerr'
p98
(dp99
I0
F0.002
sI1
F0.002
sI2
F0.002
sI3
F0.002
sI4
F0.002
sI5
F0.002
sI6
F0.002
sI7
F0.002
sI8
F0.002
sI9
F0.002
sI10
F0.002
sI11
F0.002
sI12
F0.002
sI13
F0.002
sI14
F0.002
ssS'ref2magerr'
p100
(dp101
I0
F0.002
sI1
F0.002
sI2
F0.002
sI3
F0.002
sI4
F0.002
sI5
F0.002
sI6
F0.002
sI7
F0.002
sI8
F0.002
sI9
F0.002
sI10
F0.002
sI11
F0.002
sI12
F0.002
sI13
F0.002
sI14
F0.002
ssS'ref2rms'
p102
(dp103
I0
F1.424887
sI1
F3.501154
sI2
F-3.422505
sI3
F3.493094
sI4
F4.811038
sI5
F-2.400948
sI6
F-3.056534
sI7
F3.782135
sI8
F-1.688307
sI9
F4.654375
sI10
F1.295145
sI11
F1.109513
sI12
F-2.647068
sI13
F-2.474032
sI14
F2.529268
ssS'name'
p104
(dp105
I0
S"KIC8462852-20180908at035348_-25-1X1-030-i'_cal.fts.mag.1"
p106
sI1
S"KIC8462852-20180908at030154_-25-1X1-030-i'_cal.fts.mag.1"
p107
sI2
S"KIC8462852-20180908at032959_-25-1X1-030-i'_cal.fts.mag.1"
p108
sI3
S"KIC8462852-20180908at035243_-25-1X1-030-i'_cal.fts.mag.1"
p109
sI4
S"KIC8462852-20180908at032542_-25-1X1-030-i'_cal.fts.mag.1"
p110
sI5
S"KIC8462852-20180908at035555_-25-1X1-030-i'_cal.fts.mag.1"
p111
sI6
S"KIC8462852-20180908at035659_-25-1X1-030-i'_cal.fts.mag.1"
p112
sI7
S"KIC8462852-20180908at025947_-25-1X1-030-i'_cal.fts.mag.1"
p113
sI8
S"KIC8462852-20180908at025842_-25-1X1-030-i'_cal.fts.mag.1"
p114
sI9
S"KIC8462852-20180908at035452_-25-1X1-030-i'_cal.fts.mag.1"
p115
sI10
S"KIC8462852-20180908at032647_-25-1X1-030-i'_cal.fts.mag.1"
p116
sI11
S"KIC8462852-20180908at032855_-25-1X1-030-i'_cal.fts.mag.1"
p117
sI12
S"KIC8462852-20180908at030257_-25-1X1-030-i'_cal.fts.mag.1"
p118
sI13
S"KIC8462852-20180908at030050_-25-1X1-030-i'_cal.fts.mag.1"
p119
sI14
S"KIC8462852-20180908at032752_-25-1X1-030-i'_cal.fts.mag.1"
p120
ssS'ref3err'
p121
(dp122
I0
F0.003229172646597204
sI1
Fnan
sI2
Fnan
sI3
Fnan
sI4
Fnan
sI5
Fnan
sI6
Fnan
sI7
Fnan
sI8
Fnan
sI9
Fnan
sI10
Fnan
sI11
Fnan
sI12
Fnan
sI13
Fnan
sI14
Fnan
ssS'tabby'
p123
(dp124
I0
F4468.2266666666665
sI1
F4485.493333333333
sI2
F4419.496666666667
sI3
F4469.576666666666
sI4
F4402.21
sI5
F4528.1866666666665
sI6
F4551.166666666667
sI7
F4454.446666666667
sI8
F4401.633333333333
sI9
F4455.240000000001
sI10
F4376.666666666667
sI11
F4417.826666666666
sI12
F4490.0599999999995
sI13
F4444.78
sI14
F4334.38
ssS'ref1magmeanerr'
p125
(dp126
I0
F0.013994216492469293
sI1
Fnan
sI2
Fnan
sI3
Fnan
sI4
Fnan
sI5
Fnan
sI6
Fnan
sI7
Fnan
sI8
Fnan
sI9
Fnan
sI10
Fnan
sI11
Fnan
sI12
Fnan
sI13
Fnan
sI14
Fnan
ssS'filter'
p127
(dp128
I0
S"i'"
p129
sI1
S"i'"
p130
sI2
S"i'"
p131
sI3
S"i'"
p132
sI4
S"i'"
p133
sI5
S"i'"
p134
sI6
S"i'"
p135
sI7
S"i'"
p136
sI8
S"i'"
p137
sI9
S"i'"
p138
sI10
S"i'"
p139
sI11
S"i'"
p140
sI12
S"i'"
p141
sI13
S"i'"
p142
sI14
S"i'"
p143
ssS'tabbymagerr'
p144
(dp145
I0
F0.0012058570779298582
sI1
Fnan
sI2
Fnan
sI3
Fnan
sI4
Fnan
sI5
Fnan
sI6
Fnan
sI7
Fnan
sI8
Fnan
sI9
Fnan
sI10
Fnan
sI11
Fnan
sI12
Fnan
sI13
Fnan
sI14
Fnan
ssS'tabbyrms'
p146
(dp147
I0
F3.010403
sI1
F3.915975
sI2
F3.926878
sI3
F3.438451
sI4
F-3.322726
sI5
F3.014372
sI6
F-2.241125
sI7
F3.419558
sI8
F2.789127
sI9
F-2.949148
sI10
F3.631284
sI11
F-4.248933
sI12
F4.511218
sI13
F-4.51637
sI14
F3.292938
ssS'ref3mean'
p148
(dp149
I0
F1.5010181464003056
sI1
Fnan
sI2
Fnan
sI3
Fnan
sI4
Fnan
sI5
Fnan
sI6
Fnan
sI7
Fnan
sI8
Fnan
sI9
Fnan
sI10
Fnan
sI11
Fnan
sI12
Fnan
sI13
Fnan
sI14
Fnan
ssS'median_JD'
p150
(dp151
I0
F2458369.6443518517
sI1
Fnan
sI2
Fnan
sI3
Fnan
sI4
Fnan
sI5
Fnan
sI6
Fnan
sI7
Fnan
sI8
Fnan
sI9
Fnan
sI10
Fnan
sI11
Fnan
sI12
Fnan
sI13
Fnan
sI14
Fnan
ssS'error'
p152
(dp153
I0
F0.0012058570779298582
sI1
Fnan
sI2
Fnan
sI3
Fnan
sI4
Fnan
sI5
Fnan
sI6
Fnan
sI7
Fnan
sI8
Fnan
sI9
Fnan
sI10
Fnan
sI11
Fnan
sI12
Fnan
sI13
Fnan
sI14
Fnan
ssS'ref3bkg'
p154
(dp155
I0
F14.90056
sI1
F20.26019
sI2
F14.65101
sI3
F15.57218
sI4
F14.14096
sI5
F14.38575
sI6
F14.29476
sI7
F22.61302
sI8
F23.98413
sI9
F13.41772
sI10
F15.33264
sI11
F14.88429
sI12
F19.42279
sI13
F21.60735
sI14
F16.12651
ssS'ref3mag'
p156
(dp157
I0
F10.71
sI1
F10.708
sI2
F10.72
sI3
F10.714
sI4
F10.721
sI5
F10.7
sI6
F10.691
sI7
F10.713
sI8
F10.728
sI9
F10.709
sI10
F10.729
sI11
F10.721
sI12
F10.709
sI13
F10.713
sI14
F10.743
ssS'mean'
p158
(dp159
I0
F0.4399402357001395
sI1
Fnan
sI2
Fnan
sI3
Fnan
sI4
Fnan
sI5
Fnan
sI6
Fnan
sI7
Fnan
sI8
Fnan
sI9
Fnan
sI10
Fnan
sI11
Fnan
sI12
Fnan
sI13
Fnan
sI14
Fnan
sssS'r'
p160
(dp161
g3
(dp162
I0
F0.5496698384395693
sI1
Fnan
sI2
Fnan
sI3
Fnan
sI4
Fnan
sI5
Fnan
sI6
Fnan
sI7
Fnan
sI8
Fnan
sI9
Fnan
sI10
Fnan
sI11
Fnan
sI12
Fnan
sI13
Fnan
sI14
Fnan
ssg5
(dp163
I0
S'NoError'
p164
sI1
S'NoError'
p165
sI2
S'NoError'
p166
sI3
S'NoError'
p167
sI4
S'NoError'
p168
sI5
S'NoError'
p169
sI6
S'NoError'
p170
sI7
S'NoError'
p171
sI8
S'NoError'
p172
sI9
S'NoError'
p173
sI10
S'NoError'
p174
sI11
S'NoError'
p175
sI12
S'NoError'
p176
sI13
S'NoError'
p177
sI14
S'NoError'
p178
ssg22
(dp179
I0
F0.002
sI1
F0.002
sI2
F0.002
sI3
F0.002
sI4
F0.002
sI5
F0.002
sI6
F0.002
sI7
F0.002
sI8
F0.002
sI9
F0.002
sI10
F0.002
sI11
F0.002
sI12
F0.002
sI13
F0.002
sI14
F0.002
ssg24
(dp180
I0
F0.8934406706199267
sI1
F0.8947157412177754
sI2
F0.8979808890735353
sI3
F0.8932930328026186
sI4
F0.8915971150954382
sI5
F0.8936014247556284
sI6
F0.8934856747165237
sI7
F0.8981627601838786
sI8
F0.8926354187894845
sI9
F0.8940391068015167
sI10
F0.893648156006974
sI11
F0.8909918298508366
sI12
F0.8939311547380114
sI13
F0.8940421648605106
sI14
F0.8940352602014429
ssg26
(dp181
I0
F0.0019222725529175835
sI1
Fnan
sI2
Fnan
sI3
Fnan
sI4
Fnan
sI5
Fnan
sI6
Fnan
sI7
Fnan
sI8
Fnan
sI9
Fnan
sI10
Fnan
sI11
Fnan
sI12
Fnan
sI13
Fnan
sI14
Fnan
ssg28
(dp182
I0
F0.89397335998094
sI1
Fnan
sI2
Fnan
sI3
Fnan
sI4
Fnan
sI5
Fnan
sI6
Fnan
sI7
Fnan
sI8
Fnan
sI9
Fnan
sI10
Fnan
sI11
Fnan
sI12
Fnan
sI13
Fnan
sI14
Fnan
ssg30
(dp183
I0
F11.191
sI1
F11.177
sI2
F11.148
sI3
F11.156
sI4
F11.148
sI5
F11.153
sI6
F11.153
sI7
F11.168
sI8
F11.156
sI9
F11.153
sI10
F11.162
sI11
F11.147
sI12
F11.151
sI13
F11.148
sI14
F11.158
ssg32
(dp184
I0
F13.43588
sI1
F28.73767
sI2
F12.69921
sI3
F39.87854
sI4
F45.79307
sI5
F31.38402
sI6
F12.64408
sI7
F14.1701
sI8
F14.13717
sI9
F12.16209
sI10
F13.2583
sI11
F12.90183
sI12
F12.16429
sI13
F12.63139
sI14
F36.05908
ssg34
(dp185
I0
F2458369.6421064814
sI1
F2458369.6233680556
sI2
F2458369.6601388888
sI3
F2458369.6211574073
sI4
F2458369.620416667
sI5
F2458369.6226157406
sI6
F2458369.6398958336
sI7
F2458369.640636574
sI8
F2458369.641365741
sI9
F2458369.6391782407
sI10
F2458369.6593981483
sI11
F2458369.6608680557
sI12
F2458369.657928241
sI13
F2458369.6586689814
sI14
F2458369.621886574
ssg36
(dp186
I0
F2.3256271333333336
sI1
Fnan
sI2
Fnan
sI3
Fnan
sI4
Fnan
sI5
Fnan
sI6
Fnan
sI7
Fnan
sI8
Fnan
sI9
Fnan
sI10
Fnan
sI11
Fnan
sI12
Fnan
sI13
Fnan
sI14
Fnan
ssg38
(dp187
I0
F1.4978460666666669
sI1
Fnan
sI2
Fnan
sI3
Fnan
sI4
Fnan
sI5
Fnan
sI6
Fnan
sI7
Fnan
sI8
Fnan
sI9
Fnan
sI10
Fnan
sI11
Fnan
sI12
Fnan
sI13
Fnan
sI14
Fnan
ssg40
(dp188
I0
F0.5466189734470321
sI1
F0.5486001746264496
sI2
F0.5489588138228818
sI3
F0.5518426159457616
sI4
F0.5529420184489474
sI5
F0.5501771128389383
sI6
F0.5504247281655978
sI7
F0.5485458228092356
sI8
F0.5489857027135522
sI9
F0.5500291205836976
sI10
F0.5477151923180902
sI11
F0.5492964654336192
sI12
F0.5505725826306838
sI13
F0.5496620681592371
sI14
F0.5508974996666544
ssg42
(dp189
I0
F0.0010863003365277819
sI1
Fnan
sI2
Fnan
sI3
Fnan
sI4
Fnan
sI5
Fnan
sI6
Fnan
sI7
Fnan
sI8
Fnan
sI9
Fnan
sI10
Fnan
sI11
Fnan
sI12
Fnan
sI13
Fnan
sI14
Fnan
ssg44
(dp190
I0
F0.9311988
sI1
Fnan
sI2
Fnan
sI3
Fnan
sI4
Fnan
sI5
Fnan
sI6
Fnan
sI7
Fnan
sI8
Fnan
sI9
Fnan
sI10
Fnan
sI11
Fnan
sI12
Fnan
sI13
Fnan
sI14
Fnan
ssg46
(dp191
I0
g164
sI1
g165
sI2
g166
sI3
g167
sI4
g168
sI5
g169
sI6
g170
sI7
g171
sI8
g172
sI9
g173
sI10
g174
sI11
g175
sI12
g176
sI13
g177
sI14
g178
ssg48
(dp192
I0
F0.001707312334814644
sI1
Fnan
sI2
Fnan
sI3
Fnan
sI4
Fnan
sI5
Fnan
sI6
Fnan
sI7
Fnan
sI8
Fnan
sI9
Fnan
sI10
Fnan
sI11
Fnan
sI12
Fnan
sI13
Fnan
sI14
Fnan
ssg50
(dp193
I0
F0.010487180382779543
sI1
Fnan
sI2
Fnan
sI3
Fnan
sI4
Fnan
sI5
Fnan
sI6
Fnan
sI7
Fnan
sI8
Fnan
sI9
Fnan
sI10
Fnan
sI11
Fnan
sI12
Fnan
sI13
Fnan
sI14
Fnan
ssg52
(dp194
I0
F1.8632986666666664
sI1
Fnan
sI2
Fnan
sI3
Fnan
sI4
Fnan
sI5
Fnan
sI6
Fnan
sI7
Fnan
sI8
Fnan
sI9
Fnan
sI10
Fnan
sI11
Fnan
sI12
Fnan
sI13
Fnan
sI14
Fnan
ssg54
(dp195
I0
F1.4986002727517735
sI1
F1.496960120485708
sI2
F1.4924556847266435
sI3
F1.4953484164283768
sI4
F1.4986094905581024
sI5
F1.5012409073568829
sI6
F1.4979453666972626
sI7
F1.4940054123010706
sI8
F1.4990654638735597
sI9
F1.4947433299164496
sI10
F1.4971526212087114
sI11
F1.500106251630761
sI12
F1.502159500206203
sI13
F1.4985067736740807
sI14
F1.490540112561124
ssg56
(dp196
I0
g164
sI1
g165
sI2
g166
sI3
g167
sI4
g168
sI5
g169
sI6
g170
sI7
g171
sI8
g172
sI9
g173
sI10
g174
sI11
g175
sI12
g176
sI13
g177
sI14
g178
ssg58
(dp197
I0
F16.55494
sI1
F32.43605
sI2
F15.08933
sI3
F43.77136
sI4
F49.13463
sI5
F33.99723
sI6
F14.51
sI7
F15.14685
sI8
F15.37052
sI9
F15.33428
sI10
F14.92928
sI11
F14.66516
sI12
F14.32593
sI13
F14.97663
sI14
F37.96208
ssg60
(dp198
I0
F10.2366
sI1
Fnan
sI2
Fnan
sI3
Fnan
sI4
Fnan
sI5
Fnan
sI6
Fnan
sI7
Fnan
sI8
Fnan
sI9
Fnan
sI10
Fnan
sI11
Fnan
sI12
Fnan
sI13
Fnan
sI14
Fnan
ssg62
(dp199
I0
F0.7136473717352977
sI1
Fnan
sI2
Fnan
sI3
Fnan
sI4
Fnan
sI5
Fnan
sI6
Fnan
sI7
Fnan
sI8
Fnan
sI9
Fnan
sI10
Fnan
sI11
Fnan
sI12
Fnan
sI13
Fnan
sI14
Fnan
ssg64
(dp200
I0
F2.467296
sI1
F-1.702434
sI2
F-3.443634
sI3
F4.77573
sI4
F4.310596
sI5
F3.995065
sI6
F4.252398
sI7
F2.137741
sI8
F-3.391861
sI9
F-2.95838
sI10
F4.094059
sI11
F4.211899
sI12
F-2.706879
sI13
F2.528122
sI14
F3.897973
ssg66
(dp201
I0
F10.590866666666667
sI1
Fnan
sI2
Fnan
sI3
Fnan
sI4
Fnan
sI5
Fnan
sI6
Fnan
sI7
Fnan
sI8
Fnan
sI9
Fnan
sI10
Fnan
sI11
Fnan
sI12
Fnan
sI13
Fnan
sI14
Fnan
ssg68
(dp202
I0
g164
sI1
g165
sI2
g166
sI3
g167
sI4
g168
sI5
g169
sI6
g170
sI7
g171
sI8
g172
sI9
g173
sI10
g174
sI11
g175
sI12
g176
sI13
g177
sI14
g178
ssg70
(dp203
I0
F14216.466666666667
sI1
F14353.383333333333
sI2
F14769.84
sI3
F14543.22
sI4
F14590.946666666667
sI5
F14620.363333333335
sI6
F14623.456666666667
sI7
F14518.81
sI8
F14600.54
sI9
F14637.896666666667
sI10
F14565.05
sI11
F14704.186666666666
sI12
F14641.656666666668
sI13
F14718.19
sI14
F14549.753333333332
ssg72
(dp204
I0
F1.030993
sI1
F1.05627
sI2
F1.0148840000000001
sI3
F1.059859
sI4
F1.061083
sI5
F1.057448
sI6
F1.0335
sI7
F1.0326549999999999
sI8
F1.031819
sI9
F1.034361
sI10
F1.015391
sI11
F1.014389
sI12
F1.01644
sI13
F1.01591
sI14
F1.058658
ssg74
(dp205
I0
F12102.946666666667
sI1
F12205.783333333333
sI2
F12526.43
sI3
F12409.25
sI4
F12460.29
sI5
F12423.019999999999
sI6
F12453.556666666667
sI7
F12297.880000000001
sI8
F12443.18
sI9
F12479.08
sI10
F12406.54
sI11
F12558.140000000001
sI12
F12427.106666666667
sI13
F12518.136666666665
sI14
F12436.473333333333
ssg76
(dp206
I0
F19721.14
sI1
F19879.006666666664
sI2
F20369.236666666668
sI3
F20151.666666666668
sI4
F20269.62
sI5
F20299.316666666666
sI6
F20279.943333333336
sI7
F20032.14
sI8
F20270.153333333332
sI9
F20266.460000000003
sI10
F20190.293333333335
sI11
F20448.193333333336
sI12
F20330.8
sI13
F20406.91
sI14
F20112.02666666667
ssg78
(dp207
I0
F16.42892
sI1
F31.41908
sI2
F15.3188
sI3
F41.54131
sI4
F47.82617
sI5
F31.65641
sI6
F14.24633
sI7
F14.28069
sI8
F15.06714
sI9
F13.6626
sI10
F13.87462
sI11
F13.41349
sI12
F14.11257
sI13
F14.00819
sI14
F37.17923
ssg80
(dp208
I0
F10.793
sI1
F10.784
sI2
F10.755
sI3
F10.766
sI4
F10.761
sI5
F10.764
sI6
F10.762
sI7
F10.775
sI8
F10.763
sI9
F10.76
sI10
F10.766
sI11
F10.753
sI12
F10.764
sI13
F10.756
sI14
F10.763
ssg82
(dp209
I0
F0.001
sI1
F0.001
sI2
F0.001
sI3
F0.001
sI4
F0.001
sI5
F0.001
sI6
F0.001
sI7
F0.001
sI8
F0.001
sI9
F0.001
sI10
F0.001
sI11
F0.001
sI12
F0.001
sI13
F0.001
sI14
F0.001
ssg84
(dp210
I0
F0.5496845927740253
sI1
Fnan
sI2
Fnan
sI3
Fnan
sI4
Fnan
sI5
Fnan
sI6
Fnan
sI7
Fnan
sI8
Fnan
sI9
Fnan
sI10
Fnan
sI11
Fnan
sI12
Fnan
sI13
Fnan
sI14
Fnan
ssg86
(dp211
I0
F10.765666666666668
sI1
Fnan
sI2
Fnan
sI3
Fnan
sI4
Fnan
sI5
Fnan
sI6
Fnan
sI7
Fnan
sI8
Fnan
sI9
Fnan
sI10
Fnan
sI11
Fnan
sI12
Fnan
sI13
Fnan
sI14
Fnan
ssg88
(dp212
I0
F10.618
sI1
F10.608
sI2
F10.577
sI3
F10.593
sI4
F10.59
sI5
F10.588
sI6
F10.587
sI7
F10.595
sI8
F10.589
sI9
F10.586
sI10
F10.592
sI11
F10.581
sI12
F10.586
sI13
F10.58
sI14
F10.593
ssg90
(dp213
I0
F4.546623
sI1
F5.131095
sI2
F1.490745
sI3
F3.0364
sI4
F3.50998
sI5
F4.872783
sI6
F4.361292
sI7
F-2.357253
sI8
F4.241687
sI9
F-2.918079
sI10
F3.881325
sI11
F4.189944
sI12
F2.330447
sI13
F3.269482
sI14
F-4.702064
ssg92
(dp214
I0
F0.010755729370233814
sI1
Fnan
sI2
Fnan
sI3
Fnan
sI4
Fnan
sI5
Fnan
sI6
Fnan
sI7
Fnan
sI8
Fnan
sI9
Fnan
sI10
Fnan
sI11
Fnan
sI12
Fnan
sI13
Fnan
sI14
Fnan
ssg94
(dp215
I0
F0.7132469172349808
sI1
F0.7131131266810955
sI2
F0.7129629568145549
sI3
F0.715335958247834
sI4
F0.7148644552536438
sI5
F0.7115196931930647
sI6
F0.7136013492477332
sI7
F0.711869282899602
sI8
F0.713675514338306
sI9
F0.7150442633379003
sI10
F0.7139356893131924
sI11
F0.7144972829720206
sI12
F0.7106796519966141
sI13
F0.7127744357548685
sI14
F0.7175899987440537
ssg96
(dp216
I0
F30.0
sI1
F30.0
sI2
F30.0
sI3
F30.0
sI4
F30.0
sI5
F30.0
sI6
F30.0
sI7
F30.0
sI8
F30.0
sI9
F30.0
sI10
F30.0
sI11
F30.0
sI12
F30.0
sI13
F30.0
sI14
F30.0
ssg98
(dp217
I0
F0.002
sI1
F0.002
sI2
F0.002
sI3
F0.002
sI4
F0.002
sI5
F0.002
sI6
F0.002
sI7
F0.002
sI8
F0.002
sI9
F0.002
sI10
F0.002
sI11
F0.002
sI12
F0.002
sI13
F0.002
sI14
F0.002
ssg100
(dp218
I0
F0.002
sI1
F0.002
sI2
F0.001
sI3
F0.002
sI4
F0.002
sI5
F0.002
sI6
F0.001
sI7
F0.002
sI8
F0.002
sI9
F0.001
sI10
F0.001
sI11
F0.001
sI12
F0.001
sI13
F0.001
sI14
F0.002
ssg102
(dp219
I0
F3.841382
sI1
F-3.05436
sI2
F1.278156
sI3
F5.034899
sI4
F4.174145
sI5
F2.165261
sI6
F4.064061
sI7
F-2.490387
sI8
F4.417613
sI9
F-2.630676
sI10
F1.861982
sI11
F1.773718
sI12
F1.454023
sI13
F2.92494
sI14
F3.134723
ssg104
(dp220
I0
S"KIC8462852-20180908at032438_-25-1X1-030-r'_cal.fts.mag.1"
p221
sI1
S"KIC8462852-20180908at025739_-25-1X1-030-r'_cal.fts.mag.1"
p222
sI2
S"KIC8462852-20180908at035036_-25-1X1-030-r'_cal.fts.mag.1"
p223
sI3
S"KIC8462852-20180908at025428_-25-1X1-030-r'_cal.fts.mag.1"
p224
sI4
S"KIC8462852-20180908at025323_-25-1X1-030-r'_cal.fts.mag.1"
p225
sI5
S"KIC8462852-20180908at025634_-25-1X1-030-r'_cal.fts.mag.1"
p226
sI6
S"KIC8462852-20180908at032127_-25-1X1-030-r'_cal.fts.mag.1"
p227
sI7
S"KIC8462852-20180908at032231_-25-1X1-030-r'_cal.fts.mag.1"
p228
sI8
S"KIC8462852-20180908at032334_-25-1X1-030-r'_cal.fts.mag.1"
p229
sI9
S"KIC8462852-20180908at032023_-25-1X1-030-r'_cal.fts.mag.1"
p230
sI10
S"KIC8462852-20180908at034932_-25-1X1-030-r'_cal.fts.mag.1"
p231
sI11
S"KIC8462852-20180908at035139_-25-1X1-030-r'_cal.fts.mag.1"
p232
sI12
S"KIC8462852-20180908at034723_-25-1X1-030-r'_cal.fts.mag.1"
p233
sI13
S"KIC8462852-20180908at034829_-25-1X1-030-r'_cal.fts.mag.1"
p234
sI14
S"KIC8462852-20180908at025531_-25-1X1-030-r'_cal.fts.mag.1"
p235
ssg121
(dp236
I0
F0.0032252680166360904
sI1
Fnan
sI2
Fnan
sI3
Fnan
sI4
Fnan
sI5
Fnan
sI6
Fnan
sI7
Fnan
sI8
Fnan
sI9
Fnan
sI10
Fnan
sI11
Fnan
sI12
Fnan
sI13
Fnan
sI14
Fnan
ssg123
(dp237
I0
F8388.88
sI1
F8491.996666666666
sI2
F8722.133333333333
sI3
F8664.69
sI4
F8721.896666666666
sI5
F8682.29
sI6
F8688.813333333334
sI7
F8566.243333333334
sI8
F8658.213333333333
sI9
F8687.423333333334
sI10
F8610.426666666666
sI11
F8735.74
sI12
F8698.966666666667
sI13
F8729.226666666666
sI14
F8648.77
ssg125
(dp238
I0
F0.01077475002472153
sI1
Fnan
sI2
Fnan
sI3
Fnan
sI4
Fnan
sI5
Fnan
sI6
Fnan
sI7
Fnan
sI8
Fnan
sI9
Fnan
sI10
Fnan
sI11
Fnan
sI12
Fnan
sI13
Fnan
sI14
Fnan
ssg127
(dp239
I0
S"r'"
p240
sI1
S"r'"
p241
sI2
S"r'"
p242
sI3
S"r'"
p243
sI4
S"r'"
p244
sI5
S"r'"
p245
sI6
S"r'"
p246
sI7
S"r'"
p247
sI8
S"r'"
p248
sI9
S"r'"
p249
sI10
S"r'"
p250
sI11
S"r'"
p251
sI12
S"r'"
p252
sI13
S"r'"
p253
sI14
S"r'"
p254
ssg144
(dp255
I0
F0.0015890766262093572
sI1
Fnan
sI2
Fnan
sI3
Fnan
sI4
Fnan
sI5
Fnan
sI6
Fnan
sI7
Fnan
sI8
Fnan
sI9
Fnan
sI10
Fnan
sI11
Fnan
sI12
Fnan
sI13
Fnan
sI14
Fnan
ssg146
(dp256
I0
F4.078857
sI1
F2.565877
sI2
F2.917391
sI3
F3.882015
sI4
F4.968689
sI5
F3.992922
sI6
F-2.121719
sI7
F-4.294004
sI8
F-2.039448
sI9
F2.320457
sI10
F3.357313
sI11
F-2.970832
sI12
F-2.490877
sI13
F-2.782218
sI14
F2.583559
ssg148
(dp257
I0
F1.4971626482917808
sI1
Fnan
sI2
Fnan
sI3
Fnan
sI4
Fnan
sI5
Fnan
sI6
Fnan
sI7
Fnan
sI8
Fnan
sI9
Fnan
sI10
Fnan
sI11
Fnan
sI12
Fnan
sI13
Fnan
sI14
Fnan
ssg150
(dp258
I0
F2458369.640636574
sI1
Fnan
sI2
Fnan
sI3
Fnan
sI4
Fnan
sI5
Fnan
sI6
Fnan
sI7
Fnan
sI8
Fnan
sI9
Fnan
sI10
Fnan
sI11
Fnan
sI12
Fnan
sI13
Fnan
sI14
Fnan
ssg152
(dp259
I0
F0.0015890766262093572
sI1
Fnan
sI2
Fnan
sI3
Fnan
sI4
Fnan
sI5
Fnan
sI6
Fnan
sI7
Fnan
sI8
Fnan
sI9
Fnan
sI10
Fnan
sI11
Fnan
sI12
Fnan
sI13
Fnan
sI14
Fnan
ssg154
(dp260
I0
F20.25861
sI1
F33.4016
sI2
F16.84547
sI3
F47.03814
sI4
F51.28207
sI5
F34.85161
sI6
F16.51888
sI7
F18.61613
sI8
F17.45975
sI9
F17.25747
sI10
F17.81018
sI11
F16.93587
sI12
F17.03948
sI13
F16.72933
sI14
F41.30676
ssg156
(dp261
I0
F10.263
sI1
F10.254
sI2
F10.228
sI3
F10.239
sI4
F10.233
sI5
F10.231
sI6
F10.232
sI7
F10.246
sI8
F10.233
sI9
F10.233
sI10
F10.237
sI11
F10.223
sI12
F10.23
sI13
F10.226
sI14
F10.241
ssg158
(dp262
I0
F0.5496845927740253
sI1
Fnan
sI2
Fnan
sI3
Fnan
sI4
Fnan
sI5
Fnan
sI6
Fnan
sI7
Fnan
sI8
Fnan
sI9
Fnan
sI10
Fnan
sI11
Fnan
sI12
Fnan
sI13
Fnan
sI14
Fnan
sssS'z'
p263
(dp264
g3
(dp265
I0
F0.36993614748393233
sI1
Fnan
sI2
Fnan
sI3
Fnan
sI4
Fnan
sI5
Fnan
sI6
Fnan
sI7
Fnan
sI8
Fnan
sI9
Fnan
sI10
Fnan
sI11
Fnan
sI12
Fnan
sI13
Fnan
sI14
Fnan
ssg5
(dp266
I0
S'NoError'
p267
sI1
S'NoError'
p268
sI2
S'NoError'
p269
sI3
S'NoError'
p270
sI4
S'NoError'
p271
sI5
S'NoError'
p272
sI6
S'NoError'
p273
sI7
S'NoError'
p274
sI8
S'NoError'
p275
sI9
S'NoError'
p276
sI10
S'NoError'
p277
sI11
S'NoError'
p278
sI12
S'NoError'
p279
sI13
S'NoError'
p280
sI14
S'NoError'
p281
ssg22
(dp282
I0
F0.007
sI1
F0.007
sI2
F0.007
sI3
F0.007
sI4
F0.007
sI5
F0.007
sI6
F0.007
sI7
F0.007
sI8
F0.007
sI9
F0.007
sI10
F0.007
sI11
F0.007
sI12
F0.007
sI13
F0.007
sI14
F0.007
ssg24
(dp283
I0
F0.9135231612456196
sI1
F0.9127493728529522
sI2
F0.9175740210447066
sI3
F0.9095527018840114
sI4
F0.9141902751048594
sI5
F0.9179409550468522
sI6
F0.9179995526904471
sI7
F0.9113800235657535
sI8
F0.9180390187591727
sI9
F0.9237463155786186
sI10
F0.9175729787696221
sI11
F0.919585844929357
sI12
F0.9165453839651742
sI13
F0.9159058117179294
sI14
F0.9144709540851573
ssg26
(dp284
I0
F0.0035378662642341035
sI1
Fnan
sI2
Fnan
sI3
Fnan
sI4
Fnan
sI5
Fnan
sI6
Fnan
sI7
Fnan
sI8
Fnan
sI9
Fnan
sI10
Fnan
sI11
Fnan
sI12
Fnan
sI13
Fnan
sI14
Fnan
ssg28
(dp285
I0
F0.9160517580826821
sI1
Fnan
sI2
Fnan
sI3
Fnan
sI4
Fnan
sI5
Fnan
sI6
Fnan
sI7
Fnan
sI8
Fnan
sI9
Fnan
sI10
Fnan
sI11
Fnan
sI12
Fnan
sI13
Fnan
sI14
Fnan
ssg30
(dp286
I0
F13.29
sI1
F13.274
sI2
F13.254
sI3
F13.269
sI4
F13.284
sI5
F13.294
sI6
F13.285
sI7
F13.287
sI8
F13.287
sI9
F13.289
sI10
F13.261
sI11
F13.285
sI12
F13.246
sI13
F13.276
sI14
F13.264
ssg32
(dp287
I0
F9.354296
sI1
F8.703824
sI2
F9.616844
sI3
F9.84284
sI4
F9.506434
sI5
F9.783062
sI6
F9.514245
sI7
F8.604119
sI8
F8.688687
sI9
F9.510692
sI10
F8.593292
sI11
F9.503149
sI12
F8.476829
sI13
F9.935544
sI14
F9.676173
ssg34
(dp288
I0
F2458369.665335648
sI1
F2458369.6660648147
sI2
F2458369.6292939815
sI3
F2458369.627800926
sI4
F2458369.647314815
sI5
F2458369.6668055556
sI6
F2458369.648796296
sI7
F2458369.6480555558
sI8
F2458369.668287037
sI9
F2458369.649537037
sI10
F2458369.6675462965
sI11
F2458369.646574074
sI12
F2458369.6300462964
sI13
F2458369.6285532406
sI14
F2458369.630775463
ssg36
(dp289
I0
F0.4684858266666667
sI1
Fnan
sI2
Fnan
sI3
Fnan
sI4
Fnan
sI5
Fnan
sI6
Fnan
sI7
Fnan
sI8
Fnan
sI9
Fnan
sI10
Fnan
sI11
Fnan
sI12
Fnan
sI13
Fnan
sI14
Fnan
ssg38
(dp290
I0
F1.7588481666666669
sI1
Fnan
sI2
Fnan
sI3
Fnan
sI4
Fnan
sI5
Fnan
sI6
Fnan
sI7
Fnan
sI8
Fnan
sI9
Fnan
sI10
Fnan
sI11
Fnan
sI12
Fnan
sI13
Fnan
sI14
Fnan
ssg40
(dp291
I0
F0.3695168160903569
sI1
F0.3703689732543055
sI2
F0.37374037048952147
sI3
F0.37145402557655527
sI4
F0.36740305550040087
sI5
F0.36745786569528827
sI6
F0.36950841257579475
sI7
F0.36797229966513206
sI8
F0.371028183161845
sI9
F0.3676952996686788
sI10
F0.374519116071221
sI11
F0.36855074635302765
sI12
F0.37651310164625273
sI13
F0.3677238748301164
sI14
F0.37216702584280914
ssg42
(dp292
I0
F0.002279492132329536
sI1
Fnan
sI2
Fnan
sI3
Fnan
sI4
Fnan
sI5
Fnan
sI6
Fnan
sI7
Fnan
sI8
Fnan
sI9
Fnan
sI10
Fnan
sI11
Fnan
sI12
Fnan
sI13
Fnan
sI14
Fnan
ssg44
(dp293
I0
F1.0571548733333336
sI1
Fnan
sI2
Fnan
sI3
Fnan
sI4
Fnan
sI5
Fnan
sI6
Fnan
sI7
Fnan
sI8
Fnan
sI9
Fnan
sI10
Fnan
sI11
Fnan
sI12
Fnan
sI13
Fnan
sI14
Fnan
ssg46
(dp294
I0
g267
sI1
g268
sI2
g269
sI3
g270
sI4
g271
sI5
g272
sI6
g273
sI7
g274
sI8
g275
sI9
g276
sI10
g277
sI11
g278
sI12
g279
sI13
g280
sI14
g281
ssg48
(dp295
I0
F0.0028306678705714984
sI1
Fnan
sI2
Fnan
sI3
Fnan
sI4
Fnan
sI5
Fnan
sI6
Fnan
sI7
Fnan
sI8
Fnan
sI9
Fnan
sI10
Fnan
sI11
Fnan
sI12
Fnan
sI13
Fnan
sI14
Fnan
ssg50
(dp296
I0
F0.00794145242803009
sI1
Fnan
sI2
Fnan
sI3
Fnan
sI4
Fnan
sI5
Fnan
sI6
Fnan
sI7
Fnan
sI8
Fnan
sI9
Fnan
sI10
Fnan
sI11
Fnan
sI12
Fnan
sI13
Fnan
sI14
Fnan
ssg52
(dp297
I0
F1.3871263933333333
sI1
Fnan
sI2
Fnan
sI3
Fnan
sI4
Fnan
sI5
Fnan
sI6
Fnan
sI7
Fnan
sI8
Fnan
sI9
Fnan
sI10
Fnan
sI11
Fnan
sI12
Fnan
sI13
Fnan
sI14
Fnan
ssg54
(dp298
I0
F1.5079510473064215
sI1
F1.5024336744288593
sI2
F1.4977525304768056
sI3
F1.508244660826711
sI4
F1.499327281747048
sI5
F1.5025423122052879
sI6
F1.5022541423617104
sI7
F1.5080898011921071
sI8
F1.5003312415466714
sI9
F1.506063176687508
sI10
F1.499654415499389
sI11
F1.5000238350186446
sI12
F1.5017787315250906
sI13
F1.5016255956686477
sI14
F1.5075608317168805
ssg56
(dp299
I0
g267
sI1
g268
sI2
g269
sI3
g270
sI4
g271
sI5
g272
sI6
g273
sI7
g274
sI8
g275
sI9
g276
sI10
g277
sI11
g278
sI12
g279
sI13
g280
sI14
g281
ssg58
(dp300
I0
F9.481037
sI1
F10.13614
sI2
F10.41428
sI3
F11.07715
sI4
F9.22084
sI5
F9.480447
sI6
F9.53438
sI7
F10.94417
sI8
F9.385631
sI9
F9.981965
sI10
F9.607637
sI11
F8.850574
sI12
F9.414083
sI13
F9.370726
sI14
F9.960811
ssg60
(dp301
I0
F11.923733333333333
sI1
Fnan
sI2
Fnan
sI3
Fnan
sI4
Fnan
sI5
Fnan
sI6
Fnan
sI7
Fnan
sI8
Fnan
sI9
Fnan
sI10
Fnan
sI11
Fnan
sI12
Fnan
sI13
Fnan
sI14
Fnan
ssg62
(dp302
I0
F0.6910420093999037
sI1
Fnan
sI2
Fnan
sI3
Fnan
sI4
Fnan
sI5
Fnan
sI6
Fnan
sI7
Fnan
sI8
Fnan
sI9
Fnan
sI10
Fnan
sI11
Fnan
sI12
Fnan
sI13
Fnan
sI14
Fnan
ssg64
(dp303
I0
F2.390936
sI1
F-2.11244
sI2
F3.647913
sI3
F4.967193
sI4
F2.312136
sI5
F3.168689
sI6
F2.801792
sI7
F2.582227
sI8
F4.353753
sI9
F3.067822
sI10
F-2.69085
sI11
F3.506261
sI12
F-2.975858
sI13
F2.134801
sI14
F-0.7716525
ssg66
(dp304
I0
F12.262266666666667
sI1
Fnan
sI2
Fnan
sI3
Fnan
sI4
Fnan
sI5
Fnan
sI6
Fnan
sI7
Fnan
sI8
Fnan
sI9
Fnan
sI10
Fnan
sI11
Fnan
sI12
Fnan
sI13
Fnan
sI14
Fnan
ssg68
(dp305
I0
g267
sI1
g268
sI2
g269
sI3
g270
sI4
g271
sI5
g272
sI6
g273
sI7
g274
sI8
g275
sI9
g276
sI10
g277
sI11
g278
sI12
g279
sI13
g280
sI14
g281
ssg70
(dp306
I0
F3089.0423333333333
sI1
F3126.258333333333
sI2
F3166.4193333333333
sI3
F3122.014333333333
sI4
F3125.599333333333
sI5
F3103.5326666666665
sI6
F3114.6603333333333
sI7
F3103.9686666666666
sI8
F3095.998
sI9
F3130.4603333333334
sI10
F3139.2063333333335
sI11
F3125.835666666667
sI12
F3164.220333333333
sI13
F3150.1549999999997
sI14
F3142.413
ssg72
(dp307
I0
F1.011654
sI1
F1.011247
sI2
F1.047272
sI3
F1.0494350000000001
sI4
F1.025539
sI5
F1.010852
sI6
F1.024106
sI7
F1.024816
sI8
F1.010097
sI9
F1.023413
sI10
F1.010468
sI11
F1.026275
sI12
F1.0462209999999998
sI13
F1.048349
sI14
F1.0451709999999999
ssg74
(dp308
I0
F2527.8906666666667
sI1
F2570.614333333333
sI2
F2590.499666666667
sI3
F2571.4076666666665
sI4
F2568.9590000000003
sI5
F2529.7906666666668
sI6
F2539.0789999999997
sI7
F2548.9926666666665
sI8
F2526.787
sI9
F2521.5823333333333
sI10
F2565.139
sI11
F2545.0919999999996
sI12
F2586.507
sI13
F2578.0016666666666
sI14
F2568.136
ssg76
(dp309
I0
F4235.03
sI1
F4279.586666666667
sI2
F4311.22
sI3
F4293.536666666667
sI4
F4269.003333333333
sI5
F4232.153333333334
sI6
F4246.676666666667
sI7
F4262.586666666667
sI8
F4218.02
sI9
F4256.166666666667
sI10
F4277.2733333333335
sI11
F4253.263333333333
sI12
F4318.16
sI13
F4300.7733333333335
sI14
F4304.5
ssg78
(dp310
I0
F9.834486
sI1
F10.37144
sI2
F8.659722
sI3
F9.400294
sI4
F9.384476
sI5
F8.537454
sI6
F9.549989
sI7
F10.00316
sI8
F9.054081
sI9
F9.866817
sI10
F9.545178
sI11
F9.314867
sI12
F10.35718
sI13
F9.550124
sI14
F9.614685
ssg80
(dp311
I0
F12.493
sI1
F12.475
sI2
F12.467
sI3
F12.475
sI4
F12.476
sI5
F12.492
sI6
F12.488
sI7
F12.484
sI8
F12.494
sI9
F12.496
sI10
F12.477
sI11
F12.486
sI12
F12.468
sI13
F12.472
sI14
F12.476
ssg82
(dp312
I0
F0.003
sI1
F0.003
sI2
F0.003
sI3
F0.003
sI4
F0.003
sI5
F0.003
sI6
F0.003
sI7
F0.003
sI8
F0.003
sI9
F0.003
sI10
F0.003
sI11
F0.003
sI12
F0.003
sI13
F0.003
sI14
F0.003
ssg84
(dp313
I0
F0.37037461109475367
sI1
Fnan
sI2
Fnan
sI3
Fnan
sI4
Fnan
sI5
Fnan
sI6
Fnan
sI7
Fnan
sI8
Fnan
sI9
Fnan
sI10
Fnan
sI11
Fnan
sI12
Fnan
sI13
Fnan
sI14
Fnan
ssg86
(dp314
I0
F12.481266666666665
sI1
Fnan
sI2
Fnan
sI3
Fnan
sI4
Fnan
sI5
Fnan
sI6
Fnan
sI7
Fnan
sI8
Fnan
sI9
Fnan
sI10
Fnan
sI11
Fnan
sI12
Fnan
sI13
Fnan
sI14
Fnan
ssg88
(dp315
I0
F12.275
sI1
F12.262
sI2
F12.249
sI3
F12.264
sI4
F12.263
sI5
F12.27
sI6
F12.266
sI7
F12.27
sI8
F12.273
sI9
F12.261
sI10
F12.258
sI11
F12.263
sI12
F12.249
sI13
F12.254
sI14
F12.257
ssg90
(dp316
I0
F-3.055658
sI1
F2.252323
sI2
F1.668707
sI3
F1.807452
sI4
F2.548051
sI5
F3.077082
sI6
F-3.499883
sI7
F1.906105
sI8
F-0.7224056
sI9
F-2.829729
sI10
F2.752356
sI11
F-3.177667
sI12
F3.808373
sI13
F-2.521617
sI14
F3.013798
ssg92
(dp317
I0
F0.007896352382738387
sI1
Fnan
sI2
Fnan
sI3
Fnan
sI4
Fnan
sI5
Fnan
sI6
Fnan
sI7
Fnan
sI8
Fnan
sI9
Fnan
sI10
Fnan
sI11
Fnan
sI12
Fnan
sI13
Fnan
sI14
Fnan
ssg94
(dp318
I0
F0.6902964775925888
sI1
F0.6942122967286873
sI2
F0.6928656361156404
sI3
F0.6935176271235048
sI4
F0.6948200236857442
sI5
F0.6897216338503767
sI6
F0.689841804552624
sI7
F0.6920446671003987
sI8
F0.6909436099282227
sI9
F0.6827425652691907
sI10
F0.6917403175873333
sI11
F0.6898110460369212
sI12
F0.6913594029636113
sI13
F0.6919947559107288
sI14
F0.6897182765529823
ssg96
(dp319
I0
F30.0
sI1
F30.0
sI2
F30.0
sI3
F30.0
sI4
F30.0
sI5
F30.0
sI6
F30.0
sI7
F30.0
sI8
F30.0
sI9
F30.0
sI10
F30.0
sI11
F30.0
sI12
F30.0
sI13
F30.0
sI14
F30.0
ssg98
(dp320
I0
F0.004
sI1
F0.004
sI2
F0.004
sI3
F0.004
sI4
F0.004
sI5
F0.004
sI6
F0.004
sI7
F0.004
sI8
F0.004
sI9
F0.004
sI10
F0.004
sI11
F0.004
sI12
F0.004
sI13
F0.004
sI14
F0.004
ssg100
(dp321
I0
F0.004
sI1
F0.004
sI2
F0.004
sI3
F0.004
sI4
F0.004
sI5
F0.004
sI6
F0.004
sI7
F0.004
sI8
F0.004
sI9
F0.004
sI10
F0.004
sI11
F0.004
sI12
F0.004
sI13
F0.004
sI14
F0.004
ssg102
(dp322
I0
F3.359337
sI1
F2.994233
sI2
F-3.056175
sI3
F-2.226796
sI4
F1.675462
sI5
F4.505702
sI6
F3.980723
sI7
F-2.948595
sI8
F3.54015
sI9
F1.706175
sI10
F2.555445
sI11
F-1.398665
sI12
F-0.7659811
sI13
F4.360674
sI14
F2.525207
ssg104
(dp323
I0
S"KIC8462852-20180908at035803_-25-1X1-030-z'_cal.fts.mag.1"
p324
sI1
S"KIC8462852-20180908at035908_-25-1X1-030-z'_cal.fts.mag.1"
p325
sI2
S"KIC8462852-20180908at030611_-25-1X1-030-z'_cal.fts.mag.1"
p326
sI3
S"KIC8462852-20180908at030400_-25-1X1-030-z'_cal.fts.mag.1"
p327
sI4
S"KIC8462852-20180908at033208_-25-1X1-030-z'_cal.fts.mag.1"
p328
sI5
S"KIC8462852-20180908at040012_-25-1X1-030-z'_cal.fts.mag.1"
p329
sI6
S"KIC8462852-20180908at033416_-25-1X1-030-z'_cal.fts.mag.1"
p330
sI7
S"KIC8462852-20180908at033312_-25-1X1-030-z'_cal.fts.mag.1"
p331
sI8
S"KIC8462852-20180908at040219_-25-1X1-030-z'_cal.fts.mag.1"
p332
sI9
S"KIC8462852-20180908at033520_-25-1X1-030-z'_cal.fts.mag.1"
p333
sI10
S"KIC8462852-20180908at040116_-25-1X1-030-z'_cal.fts.mag.1"
p334
sI11
S"KIC8462852-20180908at033103_-25-1X1-030-z'_cal.fts.mag.1"
p335
sI12
S"KIC8462852-20180908at030715_-25-1X1-030-z'_cal.fts.mag.1"
p336
sI13
S"KIC8462852-20180908at030507_-25-1X1-030-z'_cal.fts.mag.1"
p337
sI14
S"KIC8462852-20180908at030819_-25-1X1-030-z'_cal.fts.mag.1"
p338
ssg121
(dp339
I0
F0.0035931230497352603
sI1
Fnan
sI2
Fnan
sI3
Fnan
sI4
Fnan
sI5
Fnan
sI6
Fnan
sI7
Fnan
sI8
Fnan
sI9
Fnan
sI10
Fnan
sI11
Fnan
sI12
Fnan
sI13
Fnan
sI14
Fnan
ssg123
(dp340
I0
F1213.4886666666669
sI1
F1231.657
sI2
F1254.29
sI3
F1236.5653333333332
sI4
F1220.2143333333333
sI5
F1208.3823333333335
sI6
F1219.429
sI7
F1216.2156666666667
sI8
F1217.0720000000001
sI9
F1214.4006666666667
sI10
F1246.1023333333333
sI11
F1219.1893333333333
sI12
F1263.6893333333333
sI13
F1229.2923333333333
sI14
F1242.4236666666666
ssg125
(dp341
I0
F0.00972821130722891
sI1
Fnan
sI2
Fnan
sI3
Fnan
sI4
Fnan
sI5
Fnan
sI6
Fnan
sI7
Fnan
sI8
Fnan
sI9
Fnan
sI10
Fnan
sI11
Fnan
sI12
Fnan
sI13
Fnan
sI14
Fnan
ssg127
(dp342
I0
S"z'"
p343
sI1
S"z'"
p344
sI2
S"z'"
p345
sI3
S"z'"
p346
sI4
S"z'"
p347
sI5
S"z'"
p348
sI6
S"z'"
p349
sI7
S"z'"
p350
sI8
S"z'"
p351
sI9
S"z'"
p352
sI10
S"z'"
p353
sI11
S"z'"
p354
sI12
S"z'"
p355
sI13
S"z'"
p356
sI14
S"z'"
p357
ssg144
(dp358
I0
F0.0028425058401997704
sI1
Fnan
sI2
Fnan
sI3
Fnan
sI4
Fnan
sI5
Fnan
sI6
Fnan
sI7
Fnan
sI8
Fnan
sI9
Fnan
sI10
Fnan
sI11
Fnan
sI12
Fnan
sI13
Fnan
sI14
Fnan
ssg146
(dp359
I0
F3.527909
sI1
F3.823579
sI2
F-3.165531
sI3
F3.473607
sI4
F-2.773244
sI5
F-1.363966
sI6
F1.688947
sI7
F0.9267191
sI8
F3.453146
sI9
F-3.173162
sI10
F3.065982
sI11
F1.684602
sI12
F4.224575
sI13
F3.292247
sI14
F-2.828087
ssg148
(dp360
I0
F1.5030422185471857
sI1
Fnan
sI2
Fnan
sI3
Fnan
sI4
Fnan
sI5
Fnan
sI6
Fnan
sI7
Fnan
sI8
Fnan
sI9
Fnan
sI10
Fnan
sI11
Fnan
sI12
Fnan
sI13
Fnan
sI14
Fnan
ssg150
(dp361
I0
F2458369.6480555558
sI1
Fnan
sI2
Fnan
sI3
Fnan
sI4
Fnan
sI5
Fnan
sI6
Fnan
sI7
Fnan
sI8
Fnan
sI9
Fnan
sI10
Fnan
sI11
Fnan
sI12
Fnan
sI13
Fnan
sI14
Fnan
ssg152
(dp362
I0
F0.0028425058401997704
sI1
Fnan
sI2
Fnan
sI3
Fnan
sI4
Fnan
sI5
Fnan
sI6
Fnan
sI7
Fnan
sI8
Fnan
sI9
Fnan
sI10
Fnan
sI11
Fnan
sI12
Fnan
sI13
Fnan
sI14
Fnan
ssg154
(dp363
I0
F11.20059
sI1
F10.75839
sI2
F9.891242
sI3
F10.76283
sI4
F9.88985
sI5
F10.39996
sI6
F11.17611
sI7
F10.05707
sI8
F10.57966
sI9
F11.1223
sI10
F10.30918
sI11
F10.94588
sI12
F10.59193
sI13
F9.90522
sI14
F10.28486
ssg156
(dp364
I0
F11.933
sI1
F11.921
sI2
F11.913
sI3
F11.918
sI4
F11.924
sI5
F11.934
sI6
F11.93
sI7
F11.926
sI8
F11.937
sI9
F11.927
sI10
F11.922
sI11
F11.928
sI12
F11.912
sI13
F11.916
sI14
F11.915
ssg158
(dp365
I0
F0.37037461109475367
sI1
Fnan
sI2
Fnan
sI3
Fnan
sI4
Fnan
sI5
Fnan
sI6
Fnan
sI7
Fnan
sI8
Fnan
sI9
Fnan
sI10
Fnan
sI11
Fnan
sI12
Fnan
sI13
Fnan
sI14
Fnan
sssS'g'
p366
(dp367
g3
(dp368
I0
F0.8691290031631826
sI1
Fnan
sI2
Fnan
sI3
Fnan
sI4
Fnan
sI5
Fnan
sI6
Fnan
sI7
Fnan
sI8
Fnan
sI9
Fnan
sI10
Fnan
sI11
Fnan
sI12
Fnan
sI13
Fnan
sI14
Fnan
ssg5
(dp369
I0
S'NoError'
p370
sI1
S'NoError'
p371
sI2
S'NoError'
p372
sI3
S'NoError'
p373
sI4
S'NoError'
p374
sI5
S'NoError'
p375
sI6
S'NoError'
p376
sI7
S'NoError'
p377
sI8
S'NoError'
p378
sI9
S'NoError'
p379
sI10
S'NoError'
p380
sI11
S'NoError'
p381
sI12
S'NoError'
p382
sI13
S'NoError'
p383
sI14
S'NoError'
p384
ssg22
(dp385
I0
F0.002
sI1
F0.002
sI2
F0.002
sI3
F0.002
sI4
F0.003
sI5
F0.002
sI6
F0.002
sI7
F0.002
sI8
F0.002
sI9
F0.003
sI10
F0.002
sI11
F0.002
sI12
F0.002
sI13
F0.003
sI14
F0.002
ssg24
(dp386
I0
F0.8750890417471355
sI1
F0.8792189890175691
sI2
F0.8736678311077946
sI3
F0.8790489358110221
sI4
F0.8777505356998067
sI5
F0.8767314580923661
sI6
F0.8768295226609719
sI7
F0.8744942001879974
sI8
F0.8751578683321409
sI9
F0.8791668820705927
sI10
F0.8803562520700735
sI11
F0.8760707444274286
sI12
F0.8810435866952653
sI13
F0.8817219503739434
sI14
F0.8779453281794103
ssg26
(dp387
I0
F0.0024614313483158124
sI1
Fnan
sI2
Fnan
sI3
Fnan
sI4
Fnan
sI5
Fnan
sI6
Fnan
sI7
Fnan
sI8
Fnan
sI9
Fnan
sI10
Fnan
sI11
Fnan
sI12
Fnan
sI13
Fnan
sI14
Fnan
ssg28
(dp388
I0
F0.8776195417649013
sI1
Fnan
sI2
Fnan
sI3
Fnan
sI4
Fnan
sI5
Fnan
sI6
Fnan
sI7
Fnan
sI8
Fnan
sI9
Fnan
sI10
Fnan
sI11
Fnan
sI12
Fnan
sI13
Fnan
sI14
Fnan
ssg30
(dp389
I0
F11.372
sI1
F11.371
sI2
F11.36
sI3
F11.372
sI4
F11.425
sI5
F11.374
sI6
F11.363
sI7
F11.352
sI8
F11.363
sI9
F11.374
sI10
F11.349
sI11
F11.359
sI12
F11.359
sI13
F11.361
sI14
F11.35
ssg32
(dp390
I0
F10.41788
sI1
F9.280749
sI2
F11.17957
sI3
F9.101583
sI4
F173.0723
sI5
F9.025171
sI6
F10.86468
sI7
F117.3697
sI8
F10.18857
sI9
F143.6147
sI10
F96.28619
sI11
F10.60455
sI12
F9.227937
sI13
F202.2637
sI14
F7.824049
ssg34
(dp391
I0
F2458369.6376851853
sI1
F2458369.657175926
sI2
F2458369.636215278
sI3
F2458369.656435185
sI4
F2458369.6174421296
sI5
F2458369.6557060187
sI6
F2458369.635462963
sI7
F2458369.618912037
sI8
F2458369.6369444444
sI9
F2458369.6181828706
sI10
F2458369.619664352
sI11
F2458369.6384143517
sI12
F2458369.6542361113
sI13
F2458369.6167013887
sI14
F2458369.654976852
ssg36
(dp392
I0
F1.7098866666666666
sI1
Fnan
sI2
Fnan
sI3
Fnan
sI4
Fnan
sI5
Fnan
sI6
Fnan
sI7
Fnan
sI8
Fnan
sI9
Fnan
sI10
Fnan
sI11
Fnan
sI12
Fnan
sI13
Fnan
sI14
Fnan
ssg38
(dp393
I0
F0.18099799999999996
sI1
Fnan
sI2
Fnan
sI3
Fnan
sI4
Fnan
sI5
Fnan
sI6
Fnan
sI7
Fnan
sI8
Fnan
sI9
Fnan
sI10
Fnan
sI11
Fnan
sI12
Fnan
sI13
Fnan
sI14
Fnan
ssg40
(dp394
I0
F0.8658239099343896
sI1
F0.8656850540866735
sI2
F0.8685674164556226
sI3
F0.8674789017723529
sI4
F0.876853632032099
sI5
F0.8696465099616648
sI6
F0.8676671203167184
sI7
F0.8775862050365628
sI8
F0.8687615571667886
sI9
F0.8743764568301297
sI10
F0.8730395533015134
sI11
F0.8697042469331694
sI12
F0.8727167864795743
sI13
F0.8674220963172804
sI14
F0.8677874315654981
ssg42
(dp395
I0
F0.0026180906761343126
sI1
Fnan
sI2
Fnan
sI3
Fnan
sI4
Fnan
sI5
Fnan
sI6
Fnan
sI7
Fnan
sI8
Fnan
sI9
Fnan
sI10
Fnan
sI11
Fnan
sI12
Fnan
sI13
Fnan
sI14
Fnan
ssg44
(dp396
I0
F1.3503931666666664
sI1
Fnan
sI2
Fnan
sI3
Fnan
sI4
Fnan
sI5
Fnan
sI6
Fnan
sI7
Fnan
sI8
Fnan
sI9
Fnan
sI10
Fnan
sI11
Fnan
sI12
Fnan
sI13
Fnan
sI14
Fnan
ssg46
(dp397
I0
g370
sI1
g371
sI2
g372
sI3
g373
sI4
g374
sI5
g375
sI6
g376
sI7
g377
sI8
g378
sI9
g379
sI10
g380
sI11
g381
sI12
g382
sI13
g383
sI14
g384
ssg48
(dp398
I0
F0.003966280142915244
sI1
Fnan
sI2
Fnan
sI3
Fnan
sI4
Fnan
sI5
Fnan
sI6
Fnan
sI7
Fnan
sI8
Fnan
sI9
Fnan
sI10
Fnan
sI11
Fnan
sI12
Fnan
sI13
Fnan
sI14
Fnan
ssg50
(dp399
I0
F0.020003094998619856
sI1
Fnan
sI2
Fnan
sI3
Fnan
sI4
Fnan
sI5
Fnan
sI6
Fnan
sI7
Fnan
sI8
Fnan
sI9
Fnan
sI10
Fnan
sI11
Fnan
sI12
Fnan
sI13
Fnan
sI14
Fnan
ssg52
(dp400
I0
F-1.3260276000000002
sI1
Fnan
sI2
Fnan
sI3
Fnan
sI4
Fnan
sI5
Fnan
sI6
Fnan
sI7
Fnan
sI8
Fnan
sI9
Fnan
sI10
Fnan
sI11
Fnan
sI12
Fnan
sI13
Fnan
sI14
Fnan
ssg54
(dp401
I0
F1.51624013660654
sI1
F1.5125721824471692
sI2
F1.524115700767732
sI3
F1.515412233925166
sI4
F1.496228544247557
sI5
F1.520513270271937
sI6
F1.5184371605460538
sI7
F1.5132672089021626
sI8
F1.5255917107017805
sI9
F1.5075627824039317
sI10
F1.5013821297023677
sI11
F1.5122542702915176
sI12
F1.510125648602355
sI13
F1.5046005839528842
sI14
F1.5190369963251538
ssg56
(dp402
I0
g370
sI1
g371
sI2
g372
sI3
g373
sI4
g374
sI5
g375
sI6
g376
sI7
g377
sI8
g378
sI9
g379
sI10
g380
sI11
g381
sI12
g382
sI13
g383
sI14
g384
ssg58
(dp403
I0
F10.31871
sI1
F10.40811
sI2
F10.31596
sI3
F9.237595
sI4
F174.2382
sI5
F10.43078
sI6
F10.83263
sI7
F118.2947
sI8
F9.269783
sI9
F142.8631
sI10
F97.04182
sI11
F11.06454
sI12
F8.741156
sI13
F201.6253
sI14
F9.30313
ssg60
(dp404
I0
F10.9378
sI1
Fnan
sI2
Fnan
sI3
Fnan
sI4
Fnan
sI5
Fnan
sI6
Fnan
sI7
Fnan
sI8
Fnan
sI9
Fnan
sI10
Fnan
sI11
Fnan
sI12
Fnan
sI13
Fnan
sI14
Fnan
ssg62
(dp405
I0
F0.7185453833492057
sI1
Fnan
sI2
Fnan
sI3
Fnan
sI4
Fnan
sI5
Fnan
sI6
Fnan
sI7
Fnan
sI8
Fnan
sI9
Fnan
sI10
Fnan
sI11
Fnan
sI12
Fnan
sI13
Fnan
sI14
Fnan
ssg64
(dp406
I0
F-1.17047
sI1
F-2.411182
sI2
F3.113525
sI3
F4.214946
sI4
F-3.849128
sI5
F-2.635327
sI6
F-3.180314
sI7
F-5.733365
sI8
F1.11681
sI9
F5.011176
sI10
F-2.247857
sI11
F1.618984
sI12
F2.156103
sI13
F4.66878
sI14
F2.042289
ssg66
(dp407
I0
F11.312533333333334
sI1
Fnan
sI2
Fnan
sI3
Fnan
sI4
Fnan
sI5
Fnan
sI6
Fnan
sI7
Fnan
sI8
Fnan
sI9
Fnan
sI10
Fnan
sI11
Fnan
sI12
Fnan
sI13
Fnan
sI14
Fnan
ssg68
(dp408
I0
g370
sI1
g371
sI2
g372
sI3
g373
sI4
g374
sI5
g375
sI6
g376
sI7
g377
sI8
g378
sI9
g379
sI10
g380
sI11
g381
sI12
g382
sI13
g383
sI14
g384
ssg70
(dp409
I0
F7485.546666666666
sI1
F7517.873333333334
sI2
F7535.823333333334
sI3
F7498.123333333334
sI4
F7054.4766666666665
sI5
F7452.376666666666
sI6
F7545.756666666667
sI7
F7520.14
sI8
F7524.2733333333335
sI9
F7426.026666666667
sI10
F7615.13
sI11
F7548.3
sI12
F7550.483333333334
sI13
F7587.533333333334
sI14
F7637.136666666667
ssg72
(dp410
I0
F1.036147
sI1
F1.017003
sI2
F1.037971
sI3
F1.01756
sI4
F1.066193
sI5
F1.018133
sI6
F1.038902
sI7
F1.063602
sI8
F1.037053
sI9
F1.064906
sI10
F1.062346
sI11
F1.035253
sI12
F1.019305
sI13
F1.06749
sI14
F1.018712
ssg74
(dp411
I0
F6503.046666666666
sI1
F6499.846666666666
sI2
F6531.153333333334
sI3
F6473.3533333333335
sI4
F6176.046666666666
sI5
F6439.2
sI6
F6527.09
sI7
F6551.6466666666665
sI8
F6498.626666666666
sI9
F6440.783333333334
sI10
F6616.53
sI11
F6562.5633333333335
sI12
F6517.586666666667
sI13
F6564.293333333333
sI14
F6591.123333333334
ssg76
(dp412
I0
F10605.033333333333
sI1
F10601.406666666668
sI2
F10719.85
sI3
F10586.273333333334
sI4
F9897.943333333333
sI5
F10561.163333333334
sI6
F10684.366666666667
sI7
F10647.186666666666
sI8
F10696.609999999999
sI9
F10452.543333333333
sI10
F10683.58
sI11
F10669.606666666667
sI12
F10622.276666666667
sI13
F10646.423333333334
sI14
F10806.626666666667
ssg78
(dp413
I0
F9.71147
sI1
F9.836163
sI2
F10.27952
sI3
F9.330696
sI4
F171.8597
sI5
F10.14217
sI6
F11.16567
sI7
F117.6099
sI8
F10.38949
sI9
F140.9041
sI10
F97.28667
sI11
F9.528262
sI12
F8.727785
sI13
F200.8198
sI14
F9.023533
ssg80
(dp414
I0
F11.467
sI1
F11.468
sI2
F11.463
sI3
F11.472
sI4
F11.523
sI5
F11.478
sI6
F11.463
sI7
F11.459
sI8
F11.468
sI9
F11.478
sI10
F11.448
sI11
F11.457
sI12
F11.465
sI13
F11.457
sI14
F11.453
ssg82
(dp415
I0
F0.002
sI1
F0.002
sI2
F0.002
sI3
F0.002
sI4
F0.002
sI5
F0.002
sI6
F0.002
sI7
F0.002
sI8
F0.002
sI9
F0.002
sI10
F0.002
sI11
F0.002
sI12
F0.002
sI13
F0.002
sI14
F0.002
ssg84
(dp416
I0
F0.8702077918793357
sI1
Fnan
sI2
Fnan
sI3
Fnan
sI4
Fnan
sI5
Fnan
sI6
Fnan
sI7
Fnan
sI8
Fnan
sI9
Fnan
sI10
Fnan
sI11
Fnan
sI12
Fnan
sI13
Fnan
sI14
Fnan
ssg86
(dp417
I0
F11.467933333333333
sI1
Fnan
sI2
Fnan
sI3
Fnan
sI4
Fnan
sI5
Fnan
sI6
Fnan
sI7
Fnan
sI8
Fnan
sI9
Fnan
sI10
Fnan
sI11
Fnan
sI12
Fnan
sI13
Fnan
sI14
Fnan
ssg88
(dp418
I0
F11.314
sI1
F11.31
sI2
F11.307
sI3
F11.313
sI4
F11.379
sI5
F11.319
sI6
F11.306
sI7
F11.309
sI8
F11.309
sI9
F11.323
sI10
F11.296
sI11
F11.305
sI12
F11.305
sI13
F11.3
sI14
F11.293
ssg90
(dp419
I0
F4.064423
sI1
F3.357407
sI2
F3.662789
sI3
F-3.550998
sI4
F-3.230124
sI5
F4.059589
sI6
F2.041015
sI7
F-5.687422
sI8
F3.67389
sI9
F7.045387
sI10
F6.422155
sI11
F-2.393187
sI12
F2.082393
sI13
F5.608057
sI14
F-1.507074
ssg92
(dp420
I0
F0.02181807900408649
sI1
Fnan
sI2
Fnan
sI3
Fnan
sI4
Fnan
sI5
Fnan
sI6
Fnan
sI7
Fnan
sI8
Fnan
sI9
Fnan
sI10
Fnan
sI11
Fnan
sI12
Fnan
sI13
Fnan
sI14
Fnan
ssg94
(dp421
I0
F0.7189428605016165
sI1
F0.717450877371139
sI2
F0.7155203989554298
sI3
F0.71590481591958
sI4
F0.7286330407890633
sI5
F0.7149288812748632
sI6
F0.7160774373989425
sI7
F0.7212559984059295
sI8
F0.713316313790129
sI9
F0.7205031871490095
sI10
F0.7231690102744948
sI11
F0.7204519655752619
sI12
F0.7172918881520106
sI13
F0.7200075609846609
sI14
F0.7147265136959575
ssg96
(dp422
I0
F30.0
sI1
F30.0
sI2
F30.0
sI3
F30.0
sI4
F30.0
sI5
F30.0
sI6
F30.0
sI7
F30.0
sI8
F30.0
sI9
F30.0
sI10
F30.0
sI11
F30.0
sI12
F30.0
sI13
F30.0
sI14
F30.0
ssg98
(dp423
I0
F0.002
sI1
F0.002
sI2
F0.002
sI3
F0.002
sI4
F0.003
sI5
F0.002
sI6
F0.002
sI7
F0.003
sI8
F0.002
sI9
F0.003
sI10
F0.003
sI11
F0.002
sI12
F0.002
sI13
F0.003
sI14
F0.002
ssg100
(dp424
I0
F0.002
sI1
F0.002
sI2
F0.002
sI3
F0.002
sI4
F0.003
sI5
F0.002
sI6
F0.002
sI7
F0.002
sI8
F0.002
sI9
F0.002
sI10
F0.002
sI11
F0.002
sI12
F0.002
sI13
F0.003
sI14
F0.002
ssg102
(dp425
I0
F-2.86671
sI1
F-1.438886
sI2
F1.038009
sI3
F2.903666
sI4
F-5.600645
sI5
F-1.620269
sI6
F-2.998663
sI7
F-3.36169
sI8
F2.715257
sI9
F-6.362639
sI10
F5.834143
sI11
F-2.931701
sI12
F1.279489
sI13
F-4.042398
sI14
F-2.437377
ssg104
(dp426
I0
S"KIC8462852-20180908at031816_-25-1X1-030-g'_cal.fts.mag.1"
p427
sI1
S"KIC8462852-20180908at034620_-25-1X1-030-g'_cal.fts.mag.1"
p428
sI2
S"KIC8462852-20180908at031609_-25-1X1-030-g'_cal.fts.mag.1"
p429
sI3
S"KIC8462852-20180908at034516_-25-1X1-030-g'_cal.fts.mag.1"
p430
sI4
S"KIC8462852-20180908at024907_-25-1X1-030-g'_cal.fts.mag.1"
p431
sI5
S"KIC8462852-20180908at034413_-25-1X1-030-g'_cal.fts.mag.1"
p432
sI6
S"KIC8462852-20180908at031500_-25-1X1-030-g'_cal.fts.mag.1"
p433
sI7
S"KIC8462852-20180908at025114_-25-1X1-030-g'_cal.fts.mag.1"
p434
sI8
S"KIC8462852-20180908at031712_-25-1X1-030-g'_cal.fts.mag.1"
p435
sI9
S"KIC8462852-20180908at025011_-25-1X1-030-g'_cal.fts.mag.1"
p436
sI10
S"KIC8462852-20180908at025219_-25-1X1-030-g'_cal.fts.mag.1"
p437
sI11
S"KIC8462852-20180908at031919_-25-1X1-030-g'_cal.fts.mag.1"
p438
sI12
S"KIC8462852-20180908at034201_-25-1X1-030-g'_cal.fts.mag.1"
p439
sI13
S"KIC8462852-20180908at024753_-25-1X1-030-g'_cal.fts.mag.1"
p440
sI14
S"KIC8462852-20180908at034309_-25-1X1-030-g'_cal.fts.mag.1"
p441
ssg121
(dp442
I0
F0.008220019096695168
sI1
Fnan
sI2
Fnan
sI3
Fnan
sI4
Fnan
sI5
Fnan
sI6
Fnan
sI7
Fnan
sI8
Fnan
sI9
Fnan
sI10
Fnan
sI11
Fnan
sI12
Fnan
sI13
Fnan
sI14
Fnan
ssg123
(dp443
I0
F7097.916666666667
sI1
F7104.136666666667
sI2
F7176.343333333333
sI3
F7101.11
sI4
F6760.093333333333
sI5
F7088.413333333333
sI6
F7160.34
sI7
F7231.009999999999
sI8
F7158.453333333334
sI9
F7088.09
sI10
F7250.663333333333
sI11
F7183.8933333333325
sI12
F7182.5599999999995
sI13
F7170.183333333333
sI14
F7241.653333333334
ssg125
(dp444
I0
F0.017421114720224826
sI1
Fnan
sI2
Fnan
sI3
Fnan
sI4
Fnan
sI5
Fnan
sI6
Fnan
sI7
Fnan
sI8
Fnan
sI9
Fnan
sI10
Fnan
sI11
Fnan
sI12
Fnan
sI13
Fnan
sI14
Fnan
ssg127
(dp445
I0
S"g'"
p446
sI1
S"g'"
p447
sI2
S"g'"
p448
sI3
S"g'"
p449
sI4
S"g'"
p450
sI5
S"g'"
p451
sI6
S"g'"
p452
sI7
S"g'"
p453
sI8
S"g'"
p454
sI9
S"g'"
p455
sI10
S"g'"
p456
sI11
S"g'"
p457
sI12
S"g'"
p458
sI13
S"g'"
p459
sI14
S"g'"
p460
ssg144
(dp461
I0
F0.0038064284209001296
sI1
Fnan
sI2
Fnan
sI3
Fnan
sI4
Fnan
sI5
Fnan
sI6
Fnan
sI7
Fnan
sI8
Fnan
sI9
Fnan
sI10
Fnan
sI11
Fnan
sI12
Fnan
sI13
Fnan
sI14
Fnan
ssg146
(dp462
I0
F2.826755
sI1
F1.926085
sI2
F-0.7688835
sI3
F-3.492821
sI4
F5.753464
sI5
F3.631074
sI6
F-1.918145
sI7
F4.23219
sI8
F3.242641
sI9
F4.448201
sI10
F5.104835
sI11
F-4.076351
sI12
F3.28541
sI13
F-6.455822
sI14
F2.517265
ssg148
(dp463
I0
F1.513156037312954
sI1
Fnan
sI2
Fnan
sI3
Fnan
sI4
Fnan
sI5
Fnan
sI6
Fnan
sI7
Fnan
sI8
Fnan
sI9
Fnan
sI10
Fnan
sI11
Fnan
sI12
Fnan
sI13
Fnan
sI14
Fnan
ssg150
(dp464
I0
F2458369.6369444444
sI1
Fnan
sI2
Fnan
sI3
Fnan
sI4
Fnan
sI5
Fnan
sI6
Fnan
sI7
Fnan
sI8
Fnan
sI9
Fnan
sI10
Fnan
sI11
Fnan
sI12
Fnan
sI13
Fnan
sI14
Fnan
ssg152
(dp465
I0
F0.0038064284209001296
sI1
Fnan
sI2
Fnan
sI3
Fnan
sI4
Fnan
sI5
Fnan
sI6
Fnan
sI7
Fnan
sI8
Fnan
sI9
Fnan
sI10
Fnan
sI11
Fnan
sI12
Fnan
sI13
Fnan
sI14
Fnan
ssg154
(dp466
I0
F11.16454
sI1
F10.5474
sI2
F11.64944
sI3
F11.53081
sI4
F176.3821
sI5
F10.93965
sI6
F11.64208
sI7
F119.4476
sI8
F10.38367
sI9
F143.6354
sI10
F100.6008
sI11
F11.48843
sI12
F10.74156
sI13
F203.8147
sI14
F10.25203
ssg156
(dp467
I0
F10.936
sI1
F10.937
sI2
F10.925
sI3
F10.938
sI4
F11.011
sI5
F10.941
sI6
F10.928
sI7
F10.932
sI8
F10.927
sI9
F10.952
sI10
F10.928
sI11
F10.93
sI12
F10.934
sI13
F10.932
sI14
F10.916
ssg158
(dp468
I0
F0.8702077918793357
sI1
Fnan
sI2
Fnan
sI3
Fnan
sI4
Fnan
sI5
Fnan
sI6
Fnan
sI7
Fnan
sI8
Fnan
sI9
Fnan
sI10
Fnan
sI11
Fnan
sI12
Fnan
sI13
Fnan
sI14
Fnan
sssS'V'
p469
(dp470
g3
(dp471
I0
F0.6929854372648392
sI1
Fnan
sI2
Fnan
sI3
Fnan
sI4
Fnan
sI5
Fnan
sI6
Fnan
sI7
Fnan
sI8
Fnan
sI9
Fnan
sI10
Fnan
sI11
Fnan
sI12
Fnan
sI13
Fnan
sI14
Fnan
ssg5
(dp472
I0
S'NoError'
p473
sI1
S'NoError'
p474
sI2
S'NoError'
p475
sI3
S'NoError'
p476
sI4
S'NoError'
p477
sI5
S'NoError'
p478
sI6
S'NoError'
p479
sI7
S'NoError'
p480
sI8
S'NoError'
p481
sI9
S'NoError'
p482
sI10
S'NoError'
p483
sI11
S'NoError'
p484
sI12
S'NoError'
p485
sI13
S'NoError'
p486
sI14
S'NoError'
p487
ssg22
(dp488
I0
F0.002
sI1
F0.002
sI2
F0.002
sI3
F0.002
sI4
F0.002
sI5
F0.002
sI6
F0.002
sI7
F0.002
sI8
F0.002
sI9
F0.002
sI10
F0.002
sI11
F0.002
sI12
F0.002
sI13
F0.002
sI14
F0.002
ssg24
(dp489
I0
F0.883133390518354
sI1
F0.8867108212818632
sI2
F0.8842699601302382
sI3
F0.8840795656560198
sI4
F0.8812130606107285
sI5
F0.8879173660377097
sI6
F0.8871427759195796
sI7
F0.8834966942534495
sI8
F0.8828206532888052
sI9
F0.8847266434946757
sI10
F0.8850082085656571
sI11
F0.8830062263874837
sI12
F0.8836325008242858
sI13
F0.8848558160344335
sI14
F0.8839393526486751
ssg26
(dp490
I0
F0.0017698554697472078
sI1
Fnan
sI2
Fnan
sI3
Fnan
sI4
Fnan
sI5
Fnan
sI6
Fnan
sI7
Fnan
sI8
Fnan
sI9
Fnan
sI10
Fnan
sI11
Fnan
sI12
Fnan
sI13
Fnan
sI14
Fnan
ssg28
(dp491
I0
F0.8843968690434636
sI1
Fnan
sI2
Fnan
sI3
Fnan
sI4
Fnan
sI5
Fnan
sI6
Fnan
sI7
Fnan
sI8
Fnan
sI9
Fnan
sI10
Fnan
sI11
Fnan
sI12
Fnan
sI13
Fnan
sI14
Fnan
ssg30
(dp492
I0
F11.379
sI1
F11.384
sI2
F11.4
sI3
F11.382
sI4
F11.4
sI5
F11.385
sI6
F11.377
sI7
F11.378
sI8
F11.38
sI9
F11.383
sI10
F11.38
sI11
F11.379
sI12
F11.375
sI13
F11.398
sI14
F11.374
ssg32
(dp493
I0
F9.763132
sI1
F11.31665
sI2
F10.28637
sI3
F10.96687
sI4
F10.0668
sI5
F9.775645
sI6
F11.41227
sI7
F10.71269
sI8
F10.94501
sI9
F9.862479
sI10
F10.42812
sI11
F10.08507
sI12
F10.46459
sI13
F11.37941
sI14
F11.74738
ssg34
(dp494
I0
F2458369.6713310187
sI1
F2458369.6331018517
sI2
F2458369.672083333
sI3
F2458369.6345949075
sI4
F2458369.6533564813
sI5
F2458369.6705902778
sI6
F2458369.6316087963
sI7
F2458369.6338425926
sI8
F2458369.652604167
sI9
F2458369.669849537
sI10
F2458369.651111111
sI11
F2458369.650358796
sI12
F2458369.651851852
sI13
F2458369.6690972224
sI14
F2458369.632349537
ssg36
(dp495
I0
F1.8187199333333335
sI1
Fnan
sI2
Fnan
sI3
Fnan
sI4
Fnan
sI5
Fnan
sI6
Fnan
sI7
Fnan
sI8
Fnan
sI9
Fnan
sI10
Fnan
sI11
Fnan
sI12
Fnan
sI13
Fnan
sI14
Fnan
ssg38
(dp496
I0
F1.1086301333333333
sI1
Fnan
sI2
Fnan
sI3
Fnan
sI4
Fnan
sI5
Fnan
sI6
Fnan
sI7
Fnan
sI8
Fnan
sI9
Fnan
sI10
Fnan
sI11
Fnan
sI12
Fnan
sI13
Fnan
sI14
Fnan
ssg40
(dp497
I0
F0.6933418381311035
sI1
F0.6936817603276437
sI2
F0.6920153752366114
sI3
F0.6938758507894296
sI4
F0.6902349097328674
sI5
F0.691185599006828
sI6
F0.6937387508923188
sI7
F0.6922621637671164
sI8
F0.6914421761006742
sI9
F0.693461692001018
sI10
F0.6930445471531125
sI11
F0.69302072741622
sI12
F0.6933306354698446
sI13
F0.6893136545354288
sI14
F0.694409568150987
ssg42
(dp498
I0
F0.0009379310802691895
sI1
Fnan
sI2
Fnan
sI3
Fnan
sI4
Fnan
sI5
Fnan
sI6
Fnan
sI7
Fnan
sI8
Fnan
sI9
Fnan
sI10
Fnan
sI11
Fnan
sI12
Fnan
sI13
Fnan
sI14
Fnan
ssg44
(dp499
I0
F2.256660866666666
sI1
Fnan
sI2
Fnan
sI3
Fnan
sI4
Fnan
sI5
Fnan
sI6
Fnan
sI7
Fnan
sI8
Fnan
sI9
Fnan
sI10
Fnan
sI11
Fnan
sI12
Fnan
sI13
Fnan
sI14
Fnan
ssg46
(dp500
I0
g473
sI1
g474
sI2
g475
sI3
g476
sI4
g477
sI5
g478
sI6
g479
sI7
g480
sI8
g481
sI9
g482
sI10
g483
sI11
g484
sI12
g485
sI13
g486
sI14
g487
ssg48
(dp501
I0
F0.0015954791992177984
sI1
Fnan
sI2
Fnan
sI3
Fnan
sI4
Fnan
sI5
Fnan
sI6
Fnan
sI7
Fnan
sI8
Fnan
sI9
Fnan
sI10
Fnan
sI11
Fnan
sI12
Fnan
sI13
Fnan
sI14
Fnan
ssg50
(dp502
I0
F0.007149425551349038
sI1
Fnan
sI2
Fnan
sI3
Fnan
sI4
Fnan
sI5
Fnan
sI6
Fnan
sI7
Fnan
sI8
Fnan
sI9
Fnan
sI10
Fnan
sI11
Fnan
sI12
Fnan
sI13
Fnan
sI14
Fnan
ssg52
(dp503
I0
F0.8226285333333333
sI1
Fnan
sI2
Fnan
sI3
Fnan
sI4
Fnan
sI5
Fnan
sI6
Fnan
sI7
Fnan
sI8
Fnan
sI9
Fnan
sI10
Fnan
sI11
Fnan
sI12
Fnan
sI13
Fnan
sI14
Fnan
ssg54
(dp504
I0
F1.5083403033910894
sI1
F1.5073981543403878
sI2
F1.5100927569076035
sI3
F1.5074745799303573
sI4
F1.5094200876707746
sI5
F1.501967140963228
sI6
F1.5043652937449843
sI7
F1.502623637785271
sI8
F1.511637623669857
sI9
F1.5047524288441811
sI10
F1.5047040334291193
sI11
F1.5089186555111733
sI12
F1.5104294426957603
sI13
F1.5080998699138224
sI14
F1.503545447367909
ssg56
(dp505
I0
g473
sI1
g474
sI2
g475
sI3
g476
sI4
g477
sI5
g478
sI6
g479
sI7
g480
sI8
g481
sI9
g482
sI10
g483
sI11
g484
sI12
g485
sI13
g486
sI14
g487
ssg58
(dp506
I0
F11.43572
sI1
F11.48267
sI2
F11.695
sI3
F11.34021
sI4
F10.94197
sI5
F10.75956
sI6
F13.31756
sI7
F11.34727
sI8
F11.08015
sI9
F11.02149
sI10
F10.87645
sI11
F10.66621
sI12
F10.48511
sI13
F11.39837
sI14
F12.44182
ssg60
(dp507
I0
F10.708866666666667
sI1
Fnan
sI2
Fnan
sI3
Fnan
sI4
Fnan
sI5
Fnan
sI6
Fnan
sI7
Fnan
sI8
Fnan
sI9
Fnan
sI10
Fnan
sI11
Fnan
sI12
Fnan
sI13
Fnan
sI14
Fnan
ssg62
(dp508
I0
F0.7162401325844724
sI1
Fnan
sI2
Fnan
sI3
Fnan
sI4
Fnan
sI5
Fnan
sI6
Fnan
sI7
Fnan
sI8
Fnan
sI9
Fnan
sI10
Fnan
sI11
Fnan
sI12
Fnan
sI13
Fnan
sI14
Fnan
ssg64
(dp509
I0
F-4.286726
sI1
F3.64752
sI2
F-2.879522
sI3
F2.563602
sI4
F1.97115
sI5
F2.911208
sI6
F2.315321
sI7
F-1.528134
sI8
F3.212067
sI9
F-2.141104
sI10
F2.906126
sI11
F-3.186554
sI12
F4.514707
sI13
F2.394147
sI14
F4.215644
ssg66
(dp510
I0
F11.0756
sI1
Fnan
sI2
Fnan
sI3
Fnan
sI4
Fnan
sI5
Fnan
sI6
Fnan
sI7
Fnan
sI8
Fnan
sI9
Fnan
sI10
Fnan
sI11
Fnan
sI12
Fnan
sI13
Fnan
sI14
Fnan
ssg68
(dp511
I0
g473
sI1
g474
sI2
g475
sI3
g476
sI4
g477
sI5
g478
sI6
g479
sI7
g480
sI8
g481
sI9
g482
sI10
g483
sI11
g484
sI12
g485
sI13
g486
sI14
g487
ssg70
(dp512
I0
F9344.996666666668
sI1
F9327.619999999999
sI2
F9193.18
sI3
F9321.213333333335
sI4
F9200.576666666666
sI5
F9361.493333333334
sI6
F9387.953333333333
sI7
F9369.943333333333
sI8
F9360.113333333335
sI9
F9326.736666666666
sI10
F9358.359999999999
sI11
F9352.816666666668
sI12
F9384.446666666667
sI13
F9255.913333333334
sI14
F9384.79
ssg72
(dp513
I0
F1.008691
sI1
F1.042008
sI2
F1.008373
sI3
F1.040043
sI4
F1.020038
sI5
F1.009017
sI6
F1.044035
sI7
F1.04102
sI8
F1.020672
sI9
F1.0093530000000002
sI10
F1.021983
sI11
F1.0226520000000001
sI12
F1.021323
sI13
F1.009702
sI14
F1.043013
ssg74
(dp514
I0
F8046.8566666666675
sI1
F7987.96
sI2
F7892.34
sI3
F8017.776666666667
sI4
F7943.1066666666675
sI5
F8027.533333333334
sI6
F8048.826666666666
sI7
F8091.816666666667
sI8
F8047.793333333333
sI9
F8027.196666666667
sI10
F8050.8133333333335
sI11
F8052.46
sI12
F8063.593333333333
sI13
F7948.066666666667
sI14
F8093.963333333333
ssg76
(dp515
I0
F13116.416666666666
sI1
F13050.736666666666
sI2
F12900.359999999999
sI3
F13069.043333333333
sI4
F12938.51
sI5
F13058.873333333333
sI6
F13115.643333333333
sI7
F13119.226666666666
sI8
F13157.223333333333
sI9
F13056.686666666666
sI10
F13097.826666666666
sI11
F13131.573333333334
sI12
F13177.016666666666
sI13
F12972.66
sI14
F13140.05
ssg78
(dp516
I0
F10.7703
sI1
F11.65057
sI2
F11.51797
sI3
F11.22646
sI4
F10.61428
sI5
F10.64746
sI6
F12.47774
sI7
F10.17249
sI8
F9.99244
sI9
F11.00925
sI10
F10.00392
sI11
F10.76421
sI12
F9.944375
sI13
F10.96651
sI14
F11.78716
ssg80
(dp517
I0
F11.236
sI1
F11.244
sI2
F11.257
sI3
F11.24
sI4
F11.25
sI5
F11.239
sI6
F11.236
sI7
F11.23
sI8
F11.236
sI9
F11.239
sI10
F11.235
sI11
F11.235
sI12
F11.234
sI13
F11.249
sI14
F11.23
ssg82
(dp518
I0
F0.002
sI1
F0.002
sI2
F0.002
sI3
F0.002
sI4
F0.002
sI5
F0.002
sI6
F0.002
sI7
F0.002
sI8
F0.002
sI9
F0.002
sI10
F0.002
sI11
F0.002
sI12
F0.002
sI13
F0.002
sI14
F0.002
ssg84
(dp519
I0
F0.6925572832474136
sI1
Fnan
sI2
Fnan
sI3
Fnan
sI4
Fnan
sI5
Fnan
sI6
Fnan
sI7
Fnan
sI8
Fnan
sI9
Fnan
sI10
Fnan
sI11
Fnan
sI12
Fnan
sI13
Fnan
sI14
Fnan
ssg86
(dp520
I0
F11.239333333333333
sI1
Fnan
sI2
Fnan
sI3
Fnan
sI4
Fnan
sI5
Fnan
sI6
Fnan
sI7
Fnan
sI8
Fnan
sI9
Fnan
sI10
Fnan
sI11
Fnan
sI12
Fnan
sI13
Fnan
sI14
Fnan
ssg88
(dp521
I0
F11.074
sI1
F11.076
sI2
F11.091
sI3
F11.076
sI4
F11.09
sI5
F11.072
sI6
F11.069
sI7
F11.071
sI8
F11.072
sI9
F11.076
sI10
F11.072
sI11
F11.073
sI12
F11.069
sI13
F11.084
sI14
F11.069
ssg90
(dp522
I0
F1.797027
sI1
F3.140062
sI2
F1.683716
sI3
F-2.319307
sI4
F4.415378
sI5
F-3.847256
sI6
F2.94029
sI7
F1.891936
sI8
F-1.501853
sI9
F4.905729
sI10
F2.965017
sI11
F1.801918
sI12
F2.625176
sI13
F4.928069
sI14
F1.854897
ssg92
(dp523
I0
F0.006610237370567081
sI1
Fnan
sI2
Fnan
sI3
Fnan
sI4
Fnan
sI5
Fnan
sI6
Fnan
sI7
Fnan
sI8
Fnan
sI9
Fnan
sI10
Fnan
sI11
Fnan
sI12
Fnan
sI13
Fnan
sI14
Fnan
ssg94
(dp524
I0
F0.7165049275616969
sI1
F0.7139004993962172
sI2
F0.7144477526009865
sI3
F0.7161844355811314
sI4
F0.7175640789758567
sI5
F0.7160929571475935
sI6
F0.7153369113292853
sI7
F0.7196189691897626
sI8
F0.7148086341176227
sI9
F0.717244770572032
sI10
F0.7170240836378275
sI11
F0.7162711552325858
sI12
F0.714811199450863
sI13
F0.7151216182415066
sI14
F0.7186699957321191
ssg96
(dp525
I0
F30.0
sI1
F30.0
sI2
F30.0
sI3
F30.0
sI4
F30.0
sI5
F30.0
sI6
F30.0
sI7
F30.0
sI8
F30.0
sI9
F30.0
sI10
F30.0
sI11
F30.0
sI12
F30.0
sI13
F30.0
sI14
F30.0
ssg98
(dp526
I0
F0.002
sI1
F0.002
sI2
F0.002
sI3
F0.002
sI4
F0.002
sI5
F0.002
sI6
F0.002
sI7
F0.002
sI8
F0.002
sI9
F0.002
sI10
F0.002
sI11
F0.002
sI12
F0.002
sI13
F0.002
sI14
F0.002
ssg100
(dp527
I0
F0.002
sI1
F0.002
sI2
F0.002
sI3
F0.002
sI4
F0.002
sI5
F0.002
sI6
F0.002
sI7
F0.002
sI8
F0.002
sI9
F0.002
sI10
F0.002
sI11
F0.002
sI12
F0.002
sI13
F0.002
sI14
F0.002
ssg102
(dp528
I0
F-1.946768
sI1
F2.508884
sI2
F-2.615614
sI3
F2.003773
sI4
F3.106829
sI5
F3.139992
sI6
F-3.28745
sI7
F2.532281
sI8
F1.225897
sI9
F-3.194094
sI10
F3.671982
sI11
F-2.257229
sI12
F3.419983
sI13
F1.689826
sI14
F2.341136
ssg104
(dp529
I0
S'KIC8462852-20180908at040643_-25-1X1-030-V_cal.fts.mag.1'
p530
sI1
S'KIC8462852-20180908at031140_-25-1X1-030-V_cal.fts.mag.1'
p531
sI2
S'KIC8462852-20180908at040748_-25-1X1-030-V_cal.fts.mag.1'
p532
sI3
S'KIC8462852-20180908at031349_-25-1X1-030-V_cal.fts.mag.1'
p533
sI4
S'KIC8462852-20180908at034050_-25-1X1-030-V_cal.fts.mag.1'
p534
sI5
S'KIC8462852-20180908at040539_-25-1X1-030-V_cal.fts.mag.1'
p535
sI6
S'KIC8462852-20180908at030924_-25-1X1-030-V_cal.fts.mag.1'
p536
sI7
S'KIC8462852-20180908at031244_-25-1X1-030-V_cal.fts.mag.1'
p537
sI8
S'KIC8462852-20180908at033945_-25-1X1-030-V_cal.fts.mag.1'
p538
sI9
S'KIC8462852-20180908at040434_-25-1X1-030-V_cal.fts.mag.1'
p539
sI10
S'KIC8462852-20180908at033736_-25-1X1-030-V_cal.fts.mag.1'
p540
sI11
S'KIC8462852-20180908at033624_-25-1X1-030-V_cal.fts.mag.1'
p541
sI12
S'KIC8462852-20180908at033840_-25-1X1-030-V_cal.fts.mag.1'
p542
sI13
S'KIC8462852-20180908at040323_-25-1X1-030-V_cal.fts.mag.1'
p543
sI14
S'KIC8462852-20180908at031035_-25-1X1-030-V_cal.fts.mag.1'
p544
ssg121
(dp545
I0
F0.003039521058850445
sI1
Fnan
sI2
Fnan
sI3
Fnan
sI4
Fnan
sI5
Fnan
sI6
Fnan
sI7
Fnan
sI8
Fnan
sI9
Fnan
sI10
Fnan
sI11
Fnan
sI12
Fnan
sI13
Fnan
sI14
Fnan
ssg123
(dp546
I0
F7050.886666666667
sI1
F7021.52
sI2
F6916.8966666666665
sI3
F7033.133333333333
sI4
F6921.259999999999
sI5
F7015.05
sI6
F7065.133333333333
sI7
F7056.6866666666665
sI8
F7044.673333333334
sI9
F7029.533333333334
sI10
F7047.570000000001
sI11
F7054.223333333333
sI12
F7077.763333333333
sI13
F6933.723333333333
sI14
F7087.33
ssg125
(dp547
I0
F0.007631388814501173
sI1
Fnan
sI2
Fnan
sI3
Fnan
sI4
Fnan
sI5
Fnan
sI6
Fnan
sI7
Fnan
sI8
Fnan
sI9
Fnan
sI10
Fnan
sI11
Fnan
sI12
Fnan
sI13
Fnan
sI14
Fnan
ssg127
(dp548
I0
g469
sI1
g469
sI2
g469
sI3
g469
sI4
g469
sI5
g469
sI6
g469
sI7
g469
sI8
g469
sI9
g469
sI10
g469
sI11
g469
sI12
g469
sI13
g469
sI14
g469
ssg144
(dp549
I0
F0.0014573445377495946
sI1
Fnan
sI2
Fnan
sI3
Fnan
sI4
Fnan
sI5
Fnan
sI6
Fnan
sI7
Fnan
sI8
Fnan
sI9
Fnan
sI10
Fnan
sI11
Fnan
sI12
Fnan
sI13
Fnan
sI14
Fnan
ssg146
(dp550
I0
F3.05693
sI1
F1.765475
sI2
F2.675939
sI3
F3.736256
sI4
F1.578556
sI5
F3.944769
sI6
F2.731303
sI7
F2.747585
sI8
F1.970962
sI9
F3.957188
sI10
F-1.910532
sI11
F2.274095
sI12
F4.291293
sI13
F-1.555734
sI14
F2.585828
ssg148
(dp551
I0
F1.506917963744368
sI1
Fnan
sI2
Fnan
sI3
Fnan
sI4
Fnan
sI5
Fnan
sI6
Fnan
sI7
Fnan
sI8
Fnan
sI9
Fnan
sI10
Fnan
sI11
Fnan
sI12
Fnan
sI13
Fnan
sI14
Fnan
ssg150
(dp552
I0
F2458369.651851852
sI1
Fnan
sI2
Fnan
sI3
Fnan
sI4
Fnan
sI5
Fnan
sI6
Fnan
sI7
Fnan
sI8
Fnan
sI9
Fnan
sI10
Fnan
sI11
Fnan
sI12
Fnan
sI13
Fnan
sI14
Fnan
ssg152
(dp553
I0
F0.0014573445377495946
sI1
Fnan
sI2
Fnan
sI3
Fnan
sI4
Fnan
sI5
Fnan
sI6
Fnan
sI7
Fnan
sI8
Fnan
sI9
Fnan
sI10
Fnan
sI11
Fnan
sI12
Fnan
sI13
Fnan
sI14
Fnan
ssg154
(dp554
I0
F11.96484
sI1
F12.62217
sI2
F13.0659
sI3
F13.237
sI4
F12.45485
sI5
F13.47849
sI6
F14.61275
sI7
F12.85944
sI8
F12.48771
sI9
F12.48455
sI10
F12.67668
sI11
F11.48772
sI12
F12.21091
sI13
F11.91281
sI14
F14.09249
ssg156
(dp555
I0
F10.705
sI1
F10.711
sI2
F10.723
sI3
F10.709
sI4
F10.72
sI5
F10.71
sI6
F10.706
sI7
F10.705
sI8
F10.702
sI9
F10.71
sI10
F10.707
sI11
F10.704
sI12
F10.7
sI13
F10.717
sI14
F10.704
ssg158
(dp556
I0
F0.6925572832474136
sI1
Fnan
sI2
Fnan
sI3
Fnan
sI4
Fnan
sI5
Fnan
sI6
Fnan
sI7
Fnan
sI8
Fnan
sI9
Fnan
sI10
Fnan
sI11
Fnan
sI12
Fnan
sI13
Fnan
sI14
Fnan
sss.