(dp0
S'i'
p1
(dp2
S'sigmean'
p3
(dp4
I0
F0.4369520557498912
sI1
Fnan
sI2
Fnan
sI3
Fnan
sI4
Fnan
sI5
Fnan
sI6
Fnan
sI7
Fnan
sI8
Fnan
sI9
Fnan
sI10
Fnan
sI11
Fnan
sI12
Fnan
sI13
Fnan
sI14
Fnan
ssS'ref3flag'
p5
(dp6
I0
S'NoError'
p7
sI1
S'NoError'
p8
sI2
S'NoError'
p9
sI3
S'NoError'
p10
sI4
S'NoError'
p11
sI5
S'NoError'
p12
sI6
S'NoError'
p13
sI7
S'NoError'
p14
sI8
S'NoError'
p15
sI9
S'NoError'
p16
sI10
S'NoError'
p17
sI11
S'NoError'
p18
sI12
S'NoError'
p19
sI13
S'NoError'
p20
sI14
S'NoError'
p21
ssS'tabbyerr'
p22
(dp23
I0
F0.003
sI1
F0.003
sI2
F0.003
sI3
F0.003
sI4
F0.003
sI5
F0.003
sI6
F0.003
sI7
F0.003
sI8
F0.003
sI9
F0.003
sI10
F0.003
sI11
F0.003
sI12
F0.003
sI13
F0.003
sI14
F0.003
ssS'ref2rel'
p24
(dp25
I0
F0.9097048088433343
sI1
F0.9078869608596201
sI2
F0.9119349811529204
sI3
F0.9059905849360778
sI4
F0.9115050099504143
sI5
F0.9124106054683008
sI6
F0.9103270560313504
sI7
F0.9089349676918085
sI8
F0.9079519397967482
sI9
F0.9069732041457972
sI10
F0.9123337567334229
sI11
F0.9075790755146428
sI12
F0.913208954317918
sI13
F0.9103230003539028
sI14
F0.9114242061349941
ssS'ref2err'
p26
(dp27
I0
F0.002246110937650014
sI1
Fnan
sI2
Fnan
sI3
Fnan
sI4
Fnan
sI5
Fnan
sI6
Fnan
sI7
Fnan
sI8
Fnan
sI9
Fnan
sI10
Fnan
sI11
Fnan
sI12
Fnan
sI13
Fnan
sI14
Fnan
ssS'ref2mean'
p28
(dp29
I0
F0.9098992741287504
sI1
Fnan
sI2
Fnan
sI3
Fnan
sI4
Fnan
sI5
Fnan
sI6
Fnan
sI7
Fnan
sI8
Fnan
sI9
Fnan
sI10
Fnan
sI11
Fnan
sI12
Fnan
sI13
Fnan
sI14
Fnan
ssS'tabbymag'
p30
(dp31
I0
F11.998
sI1
F12.003
sI2
F12.001
sI3
F12.018
sI4
F12.063
sI5
F12.033
sI6
F12.025
sI7
F12.009
sI8
F12.014
sI9
F12.01
sI10
F11.997
sI11
F12.007
sI12
F12.024
sI13
F12.028
sI14
F12.018
ssS'tabbybkg'
p32
(dp33
I0
F7.876868
sI1
F9.437216
sI2
F9.553505
sI3
F7.904284
sI4
F10.42053
sI5
F7.948891
sI6
F8.233356
sI7
F7.622032
sI8
F10.35933
sI9
F8.1631
sI10
F9.12582
sI11
F8.242095
sI12
F7.636976
sI13
F8.279568
sI14
F8.309182
ssS'JD'
p34
(dp35
I0
F2458337.7270833333
sI1
F2458337.7071064813
sI2
F2458337.7081712964
sI3
F2458337.7458912036
sI4
F2458337.7074421295
sI5
F2458337.7466203705
sI6
F2458337.7444097223
sI7
F2458337.747361111
sI8
F2458337.708912037
sI9
F2458337.725613426
sI10
F2458337.706701389
sI11
F2458337.727835648
sI12
F2458337.726354167
sI13
F2458337.745150463
sI14
F2458337.7285648147
ssS'ref3rmsmean'
p36
(dp37
I0
F1.5570161333333337
sI1
Fnan
sI2
Fnan
sI3
Fnan
sI4
Fnan
sI5
Fnan
sI6
Fnan
sI7
Fnan
sI8
Fnan
sI9
Fnan
sI10
Fnan
sI11
Fnan
sI12
Fnan
sI13
Fnan
sI14
Fnan
ssS'ref1rmsmean'
p38
(dp39
I0
F1.4866515333333334
sI1
Fnan
sI2
Fnan
sI3
Fnan
sI4
Fnan
sI5
Fnan
sI6
Fnan
sI7
Fnan
sI8
Fnan
sI9
Fnan
sI10
Fnan
sI11
Fnan
sI12
Fnan
sI13
Fnan
sI14
Fnan
ssS'relflux'
p40
(dp41
I0
F0.43660330002007475
sI1
F0.43536094270244247
sI2
F0.4399849322374558
sI3
F0.4364794736750221
sI4
F0.4337221903863225
sI5
F0.43894387771215604
sI6
F0.43638847444553125
sI7
F0.43804607829862924
sI8
F0.437903027801203
sI9
F0.43684411511589255
sI10
F0.43925409094625717
sI11
F0.43625308936205665
sI12
F0.43584707874263257
sI13
F0.4361582729661173
sI14
F0.43629490296057055
ssS'sigerr'
p42
(dp43
I0
F0.0011550991706287268
sI1
Fnan
sI2
Fnan
sI3
Fnan
sI4
Fnan
sI5
Fnan
sI6
Fnan
sI7
Fnan
sI8
Fnan
sI9
Fnan
sI10
Fnan
sI11
Fnan
sI12
Fnan
sI13
Fnan
sI14
Fnan
ssS'tabbyrmsmean'
p44
(dp45
I0
F1.815467466666667
sI1
Fnan
sI2
Fnan
sI3
Fnan
sI4
Fnan
sI5
Fnan
sI6
Fnan
sI7
Fnan
sI8
Fnan
sI9
Fnan
sI10
Fnan
sI11
Fnan
sI12
Fnan
sI13
Fnan
sI14
Fnan
ssS'tabbyflag'
p46
(dp47
I0
g7
sI1
g8
sI2
g9
sI3
g10
sI4
g11
sI5
g12
sI6
g13
sI7
g14
sI8
g15
sI9
g16
sI10
g17
sI11
g18
sI12
g19
sI13
g20
sI14
g21
ssS'ref1err'
p48
(dp49
I0
F0.0014531500732935733
sI1
Fnan
sI2
Fnan
sI3
Fnan
sI4
Fnan
sI5
Fnan
sI6
Fnan
sI7
Fnan
sI8
Fnan
sI9
Fnan
sI10
Fnan
sI11
Fnan
sI12
Fnan
sI13
Fnan
sI14
Fnan
ssS'ref2magmeanerr'
p50
(dp51
I0
F0.014740614447360086
sI1
Fnan
sI2
Fnan
sI3
Fnan
sI4
Fnan
sI5
Fnan
sI6
Fnan
sI7
Fnan
sI8
Fnan
sI9
Fnan
sI10
Fnan
sI11
Fnan
sI12
Fnan
sI13
Fnan
sI14
Fnan
ssS'ref2rmsmean'
p52
(dp53
I0
F1.1490098666666664
sI1
Fnan
sI2
Fnan
sI3
Fnan
sI4
Fnan
sI5
Fnan
sI6
Fnan
sI7
Fnan
sI8
Fnan
sI9
Fnan
sI10
Fnan
sI11
Fnan
sI12
Fnan
sI13
Fnan
sI14
Fnan
ssS'ref3rel'
p54
(dp55
I0
F1.5043750077231082
sI1
F1.5063272860874897
sI2
F1.5039236675168286
sI3
F1.5071025447401916
sI4
F1.5008829203979093
sI5
F1.5039272137498518
sI6
F1.5023091832299842
sI7
F1.5022135502703295
sI8
F1.5079740888803177
sI9
F1.5061759025456127
sI10
F1.4979766275958024
sI11
F1.5047824775262744
sI12
F1.5010661305818338
sI13
F1.500218938927735
sI14
F1.5055690901062408
ssS'ref1flag'
p56
(dp57
I0
g7
sI1
g8
sI2
g9
sI3
g10
sI4
g11
sI5
g12
sI6
g13
sI7
g14
sI8
g15
sI9
g16
sI10
g17
sI11
g18
sI12
g19
sI13
g20
sI14
g21
ssS'ref2bkg'
p58
(dp59
I0
F9.833496
sI1
F11.82244
sI2
F11.47044
sI3
F10.84017
sI4
F13.22719
sI5
F11.91105
sI6
F10.07023
sI7
F9.969427
sI8
F12.27614
sI9
F10.33092
sI10
F10.71632
sI11
F9.851235
sI12
F10.20162
sI13
F10.03342
sI14
F10.42777
ssS'ref3magmean'
p60
(dp61
I0
F10.8432
sI1
Fnan
sI2
Fnan
sI3
Fnan
sI4
Fnan
sI5
Fnan
sI6
Fnan
sI7
Fnan
sI8
Fnan
sI9
Fnan
sI10
Fnan
sI11
Fnan
sI12
Fnan
sI13
Fnan
sI14
Fnan
ssS'ref1mean'
p62
(dp63
I0
F0.6959352044181731
sI1
Fnan
sI2
Fnan
sI3
Fnan
sI4
Fnan
sI5
Fnan
sI6
Fnan
sI7
Fnan
sI8
Fnan
sI9
Fnan
sI10
Fnan
sI11
Fnan
sI12
Fnan
sI13
Fnan
sI14
Fnan
ssS'ref1rms'
p64
(dp65
I0
F3.129174
sI1
F2.051031
sI2
F3.64986
sI3
F2.726492
sI4
F3.89343
sI5
F2.644235
sI6
F2.817883
sI7
F-2.999374
sI8
F2.938692
sI9
F3.412133
sI10
F-1.532295
sI11
F-1.708188
sI12
F2.330214
sI13
F1.658279
sI14
F-2.711793
ssS'ref2magmean'
p66
(dp67
I0
F11.187
sI1
Fnan
sI2
Fnan
sI3
Fnan
sI4
Fnan
sI5
Fnan
sI6
Fnan
sI7
Fnan
sI8
Fnan
sI9
Fnan
sI10
Fnan
sI11
Fnan
sI12
Fnan
sI13
Fnan
sI14
Fnan
ssS'ref2flag'
p68
(dp69
I0
g7
sI1
g8
sI2
g9
sI3
g10
sI4
g11
sI5
g12
sI6
g13
sI7
g14
sI8
g15
sI9
g16
sI10
g17
sI11
g18
sI12
g19
sI13
g20
sI14
g21
ssS'ref2'
p70
(dp71
I0
F8570.906666666668
sI1
F8541.57
sI2
F8496.583333333334
sI3
F8393.306666666667
sI4
F8132.973333333333
sI5
F8266.25
sI6
F8364.203333333333
sI7
F8446.31
sI8
F8405.793333333333
sI9
F8450.766666666666
sI10
F8543.7
sI11
F8491.390000000001
sI12
F8399.986666666668
sI13
F8346.92
sI14
F8425.123333333333
ssS'airmass'
p72
(dp73
I0
F1.033706
sI1
F1.062237
sI2
F1.0604360000000002
sI3
F1.016015
sI4
F1.061674
sI5
F1.015492
sI6
F1.017097
sI7
F1.014982
sI8
F1.063491
sI9
F1.0354649999999999
sI10
F1.062916
sI11
F1.0328540000000002
sI12
F1.0345879999999998
sI13
F1.016549
sI14
F1.032
ssS'ref1'
p74
(dp75
I0
F7074.78
sI1
F7063.33
sI2
F6989.3533333333335
sI3
F6959.406666666667
sI4
F6707.926666666666
sI5
F6794.47
sI6
F6905.986666666667
sI7
F6990.429999999999
sI8
F6943.086666666667
sI9
F6999.6066666666675
sI10
F7049.903333333334
sI11
F7032.293333333333
sI12
F6907.706666666667
sI13
F6900.863333333333
sI14
F6929.27
ssS'ref3'
p76
(dp77
I0
F11768.49
sI1
F11753.043333333333
sI2
F11644.833333333334
sI3
F11569.056666666667
sI4
F11137.226666666666
sI5
F11325.113333333335
sI6
F11470.273333333334
sI7
F11594.640000000001
sI8
F11572.856666666667
sI9
F11635.49
sI10
F11679.426666666666
sI11
F11679.883333333333
sI12
F11488.93
sI13
F11437.506666666666
sI14
F11558.55
ssS'ref1bkg'
p78
(dp79
I0
F8.674142
sI1
F10.76878
sI2
F11.44404
sI3
F8.501881
sI4
F12.78523
sI5
F10.0865
sI6
F9.981875
sI7
F9.999282
sI8
F10.95691
sI9
F10.46569
sI10
F10.69761
sI11
F9.265008
sI12
F9.660829
sI13
F10.10681
sI14
F10.32281
ssS'ref1mag'
p80
(dp81
I0
F11.376
sI1
F11.377
sI2
F11.389
sI3
F11.394
sI4
F11.434
sI5
F11.42
sI6
F11.402
sI7
F11.389
sI8
F11.396
sI9
F11.387
sI10
F11.38
sI11
F11.382
sI12
F11.402
sI13
F11.403
sI14
F11.398
ssS'ref3magerr'
p82
(dp83
I0
F0.002
sI1
F0.002
sI2
F0.002
sI3
F0.002
sI4
F0.002
sI5
F0.002
sI6
F0.002
sI7
F0.002
sI8
F0.002
sI9
F0.002
sI10
F0.002
sI11
F0.002
sI12
F0.002
sI13
F0.002
sI14
F0.002
ssS'tabbymagmean'
p84
(dp85
I0
F0.4369389231581576
sI1
Fnan
sI2
Fnan
sI3
Fnan
sI4
Fnan
sI5
Fnan
sI6
Fnan
sI7
Fnan
sI8
Fnan
sI9
Fnan
sI10
Fnan
sI11
Fnan
sI12
Fnan
sI13
Fnan
sI14
Fnan
ssS'ref1magmean'
p86
(dp87
I0
F11.395266666666664
sI1
Fnan
sI2
Fnan
sI3
Fnan
sI4
Fnan
sI5
Fnan
sI6
Fnan
sI7
Fnan
sI8
Fnan
sI9
Fnan
sI10
Fnan
sI11
Fnan
sI12
Fnan
sI13
Fnan
sI14
Fnan
ssS'ref2mag'
p88
(dp89
I0
F11.167
sI1
F11.171
sI2
F11.177
sI3
F11.19
sI4
F11.224
sI5
F11.207
sI6
F11.194
sI7
F11.183
sI8
F11.189
sI9
F11.183
sI10
F11.171
sI11
F11.178
sI12
F11.189
sI13
F11.196
sI14
F11.186
ssS'ref3rms'
p90
(dp91
I0
F-2.412773
sI1
F1.968793
sI2
F1.035968
sI3
F3.716766
sI4
F3.756285
sI5
F3.433196
sI6
F-2.590854
sI7
F-2.764499
sI8
F4.670398
sI9
F4.142933
sI10
F1.824525
sI11
F3.292863
sI12
F3.030715
sI13
F2.490551
sI14
F-2.239625
ssS'ref3magmeanerr'
p92
(dp93
I0
F0.01569895355930259
sI1
Fnan
sI2
Fnan
sI3
Fnan
sI4
Fnan
sI5
Fnan
sI6
Fnan
sI7
Fnan
sI8
Fnan
sI9
Fnan
sI10
Fnan
sI11
Fnan
sI12
Fnan
sI13
Fnan
sI14
Fnan
ssS'ref1rel'
p94
(dp95
I0
F0.6956725527256707
sI1
F0.6960792880343947
sI2
F0.6940279771780369
sI3
F0.6972527801901879
sI4
F0.6961968912275605
sI5
F0.6936189058818265
sI6
F0.6963618735928331
sI7
F0.6976146340368096
sI8
F0.6950506332176265
sI9
F0.6969548167013698
sI10
F0.6972120038147744
sI11
F0.6972582461328668
sI12
F0.6946287505185048
sI13
F0.6976055914685759
sI14
F0.69349312155156
ssS'exposure'
p96
(dp97
I0
F30.0
sI1
F30.0
sI2
F30.0
sI3
F30.0
sI4
F30.0
sI5
F30.0
sI6
F30.0
sI7
F30.0
sI8
F30.0
sI9
F30.0
sI10
F30.0
sI11
F30.0
sI12
F30.0
sI13
F30.0
sI14
F30.0
ssS'ref1magerr'
p98
(dp99
I0
F0.002
sI1
F0.002
sI2
F0.002
sI3
F0.002
sI4
F0.002
sI5
F0.002
sI6
F0.002
sI7
F0.002
sI8
F0.002
sI9
F0.002
sI10
F0.002
sI11
F0.002
sI12
F0.002
sI13
F0.002
sI14
F0.002
ssS'ref2magerr'
p100
(dp101
I0
F0.002
sI1
F0.002
sI2
F0.002
sI3
F0.002
sI4
F0.002
sI5
F0.002
sI6
F0.002
sI7
F0.002
sI8
F0.002
sI9
F0.002
sI10
F0.002
sI11
F0.002
sI12
F0.002
sI13
F0.002
sI14
F0.002
ssS'ref2rms'
p102
(dp103
I0
F-3.144355
sI1
F-1.825206
sI2
F3.555437
sI3
F-2.580366
sI4
F3.131286
sI5
F-1.594994
sI6
F3.794434
sI7
F4.476154
sI8
F1.601649
sI9
F1.716127
sI10
F3.533157
sI11
F-1.022417
sI12
F3.896563
sI13
F3.969184
sI14
F-2.271505
ssS'name'
p104
(dp105
I0
S"KIC8462852-20180807at052700_-25-1X1-030-i'_cal.fts.mag.1"
p106
sI1
S"KIC8462852-20180807at045814_-25-1X1-030-i'_cal.fts.mag.1"
p107
sI2
S"KIC8462852-20180807at045946_-25-1X1-030-i'_cal.fts.mag.1"
p108
sI3
S"KIC8462852-20180807at055405_-25-1X1-030-i'_cal.fts.mag.1"
p109
sI4
S"KIC8462852-20180807at045843_-25-1X1-030-i'_cal.fts.mag.1"
p110
sI5
S"KIC8462852-20180807at055508_-25-1X1-030-i'_cal.fts.mag.1"
p111
sI6
S"KIC8462852-20180807at055155_-25-1X1-030-i'_cal.fts.mag.1"
p112
sI7
S"KIC8462852-20180807at055612_-25-1X1-030-i'_cal.fts.mag.1"
p113
sI8
S"KIC8462852-20180807at050050_-25-1X1-030-i'_cal.fts.mag.1"
p114
sI9
S"KIC8462852-20180807at052452_-25-1X1-030-i'_cal.fts.mag.1"
p115
sI10
S"KIC8462852-20180807at045738_-25-1X1-030-i'_cal.fts.mag.1"
p116
sI11
S"KIC8462852-20180807at052805_-25-1X1-030-i'_cal.fts.mag.1"
p117
sI12
S"KIC8462852-20180807at052557_-25-1X1-030-i'_cal.fts.mag.1"
p118
sI13
S"KIC8462852-20180807at055301_-25-1X1-030-i'_cal.fts.mag.1"
p119
sI14
S"KIC8462852-20180807at052908_-25-1X1-030-i'_cal.fts.mag.1"
p120
ssS'ref3err'
p121
(dp122
I0
F0.0028279459404360395
sI1
Fnan
sI2
Fnan
sI3
Fnan
sI4
Fnan
sI5
Fnan
sI6
Fnan
sI7
Fnan
sI8
Fnan
sI9
Fnan
sI10
Fnan
sI11
Fnan
sI12
Fnan
sI13
Fnan
sI14
Fnan
ssS'tabby'
p123
(dp124
I0
F3989.7066666666665
sI1
F3970.1933333333336
sI2
F3979.0433333333335
sI3
F3916.9333333333334
sI4
F3755.7633333333333
sI5
F3860.633333333333
sI6
F3889.7433333333333
sI7
F3946.9966666666664
sI8
F3929.7033333333334
sI9
F3944.1
sI10
F3993.2633333333333
sI11
F3955.8799999999997
sI12
F3893.076666666667
sI13
F3879.67
sI14
F3913.9933333333333
ssS'ref1magmeanerr'
p125
(dp126
I0
F0.01588560294582409
sI1
Fnan
sI2
Fnan
sI3
Fnan
sI4
Fnan
sI5
Fnan
sI6
Fnan
sI7
Fnan
sI8
Fnan
sI9
Fnan
sI10
Fnan
sI11
Fnan
sI12
Fnan
sI13
Fnan
sI14
Fnan
ssS'filter'
p127
(dp128
I0
S"i'"
p129
sI1
S"i'"
p130
sI2
S"i'"
p131
sI3
S"i'"
p132
sI4
S"i'"
p133
sI5
S"i'"
p134
sI6
S"i'"
p135
sI7
S"i'"
p136
sI8
S"i'"
p137
sI9
S"i'"
p138
sI10
S"i'"
p139
sI11
S"i'"
p140
sI12
S"i'"
p141
sI13
S"i'"
p142
sI14
S"i'"
p143
ssS'tabbymagerr'
p144
(dp145
I0
F0.0016250953005670496
sI1
Fnan
sI2
Fnan
sI3
Fnan
sI4
Fnan
sI5
Fnan
sI6
Fnan
sI7
Fnan
sI8
Fnan
sI9
Fnan
sI10
Fnan
sI11
Fnan
sI12
Fnan
sI13
Fnan
sI14
Fnan
ssS'tabbyrms'
p146
(dp147
I0
F1.387666
sI1
F1.958023
sI2
F-3.040489
sI3
F2.849655
sI4
F3.992035
sI5
F3.059831
sI6
F4.069326
sI7
F3.086074
sI8
F3.305297
sI9
F2.052589
sI10
F3.015013
sI11
F-2.081856
sI12
F3.228287
sI13
F2.986995
sI14
F-2.636434
ssS'ref3mean'
p148
(dp149
I0
F1.5036549753253003
sI1
Fnan
sI2
Fnan
sI3
Fnan
sI4
Fnan
sI5
Fnan
sI6
Fnan
sI7
Fnan
sI8
Fnan
sI9
Fnan
sI10
Fnan
sI11
Fnan
sI12
Fnan
sI13
Fnan
sI14
Fnan
ssS'median_JD'
p150
(dp151
I0
F2458337.7270833333
sI1
Fnan
sI2
Fnan
sI3
Fnan
sI4
Fnan
sI5
Fnan
sI6
Fnan
sI7
Fnan
sI8
Fnan
sI9
Fnan
sI10
Fnan
sI11
Fnan
sI12
Fnan
sI13
Fnan
sI14
Fnan
ssS'error'
p152
(dp153
I0
F0.0016250953005670496
sI1
Fnan
sI2
Fnan
sI3
Fnan
sI4
Fnan
sI5
Fnan
sI6
Fnan
sI7
Fnan
sI8
Fnan
sI9
Fnan
sI10
Fnan
sI11
Fnan
sI12
Fnan
sI13
Fnan
sI14
Fnan
ssS'ref3bkg'
p154
(dp155
I0
F11.74576
sI1
F12.6854
sI2
F12.67838
sI3
F11.62544
sI4
F14.50923
sI5
F14.6049
sI6
F13.15172
sI7
F12.0788
sI8
F13.02055
sI9
F12.7058
sI10
F12.6265
sI11
F11.60909
sI12
F12.48071
sI13
F12.01909
sI14
F12.41171
ssS'ref3mag'
p156
(dp157
I0
F10.823
sI1
F10.825
sI2
F10.835
sI3
F10.842
sI4
F10.883
sI5
F10.865
sI6
F10.851
sI7
F10.839
sI8
F10.841
sI9
F10.836
sI10
F10.831
sI11
F10.831
sI12
F10.849
sI13
F10.854
sI14
F10.843
ssS'mean'
p158
(dp159
I0
F0.4369389231581576
sI1
Fnan
sI2
Fnan
sI3
Fnan
sI4
Fnan
sI5
Fnan
sI6
Fnan
sI7
Fnan
sI8
Fnan
sI9
Fnan
sI10
Fnan
sI11
Fnan
sI12
Fnan
sI13
Fnan
sI14
Fnan
sssS'r'
p160
(dp161
g3
(dp162
I0
F0.5455946923162525
sI1
Fnan
sI2
Fnan
sI3
Fnan
sI4
Fnan
sI5
Fnan
sI6
Fnan
sI7
Fnan
sI8
Fnan
sI9
Fnan
sI10
Fnan
sI11
Fnan
sI12
Fnan
sI13
Fnan
sI14
Fnan
ssg5
(dp163
I0
S'NoError'
p164
sI1
S'NoError'
p165
sI2
S'NoError'
p166
sI3
S'NoError'
p167
sI4
S'NoError'
p168
sI5
S'NoError'
p169
sI6
S'NoError'
p170
sI7
S'NoError'
p171
sI8
S'NoError'
p172
sI9
S'NoError'
p173
sI10
S'NoError'
p174
sI11
S'NoError'
p175
sI12
S'NoError'
p176
sI13
S'NoError'
p177
sI14
S'NoError'
p178
ssg22
(dp179
I0
F0.002
sI1
F0.002
sI2
F0.002
sI3
F0.002
sI4
F0.002
sI5
F0.002
sI6
F0.002
sI7
F0.002
sI8
F0.002
sI9
F0.002
sI10
F0.002
sI11
F0.002
sI12
F0.002
sI13
F0.002
sI14
F0.002
ssg24
(dp180
I0
F0.891224552072889
sI1
F0.8957389535498435
sI2
F0.8962927809517018
sI3
F0.8956449453593651
sI4
F0.8935221177326218
sI5
F0.8932941219184548
sI6
F0.8933385027931291
sI7
F0.8976886695081081
sI8
F0.8958177229978476
sI9
F0.8942632454974431
sI10
F0.8929947520636954
sI11
F0.894653205576398
sI12
F0.8946119335846431
sI13
F0.8965396622242556
sI14
F0.8989994335944224
ssg26
(dp181
I0
F0.0019969791887321014
sI1
Fnan
sI2
Fnan
sI3
Fnan
sI4
Fnan
sI5
Fnan
sI6
Fnan
sI7
Fnan
sI8
Fnan
sI9
Fnan
sI10
Fnan
sI11
Fnan
sI12
Fnan
sI13
Fnan
sI14
Fnan
ssg28
(dp182
I0
F0.894974973294988
sI1
Fnan
sI2
Fnan
sI3
Fnan
sI4
Fnan
sI5
Fnan
sI6
Fnan
sI7
Fnan
sI8
Fnan
sI9
Fnan
sI10
Fnan
sI11
Fnan
sI12
Fnan
sI13
Fnan
sI14
Fnan
ssg30
(dp183
I0
F11.417
sI1
F11.397
sI2
F11.38
sI3
F11.408
sI4
F11.398
sI5
F11.386
sI6
F11.381
sI7
F11.365
sI8
F11.398
sI9
F11.375
sI10
F11.399
sI11
F11.402
sI12
F11.416
sI13
F11.367
sI14
F11.383
ssg32
(dp184
I0
F10.07327
sI1
F8.973357
sI2
F9.192559
sI3
F9.842033
sI4
F9.931314
sI5
F9.271155
sI6
F8.567286
sI7
F8.48924
sI8
F10.0462
sI9
F8.28737
sI10
F9.817367
sI11
F9.383727
sI12
F9.944855
sI13
F9.001648
sI14
F8.988593
ssg34
(dp185
I0
F2458337.703726852
sI1
F2458337.7219097223
sI2
F2458337.742928241
sI3
F2458337.7407175926
sI4
F2458337.705196759
sI5
F2458337.7436574074
sI6
F2458337.7414583336
sI7
F2458337.7241319446
sI8
F2458337.724872685
sI9
F2458337.7421875
sI10
F2458337.7226504628
sI11
F2458337.7044560187
sI12
F2458337.702986111
sI13
F2458337.7234027777
sI14
F2458337.705949074
ssg36
(dp186
I0
F1.3865664
sI1
Fnan
sI2
Fnan
sI3
Fnan
sI4
Fnan
sI5
Fnan
sI6
Fnan
sI7
Fnan
sI8
Fnan
sI9
Fnan
sI10
Fnan
sI11
Fnan
sI12
Fnan
sI13
Fnan
sI14
Fnan
ssg38
(dp187
I0
F1.6950479333333335
sI1
Fnan
sI2
Fnan
sI3
Fnan
sI4
Fnan
sI5
Fnan
sI6
Fnan
sI7
Fnan
sI8
Fnan
sI9
Fnan
sI10
Fnan
sI11
Fnan
sI12
Fnan
sI13
Fnan
sI14
Fnan
ssg40
(dp188
I0
F0.5436924031544592
sI1
F0.5456248073922252
sI2
F0.5458788318176261
sI3
F0.5458989580247721
sI4
F0.5444609886447419
sI5
F0.54411462975732
sI6
F0.5460797934303274
sI7
F0.5461795240257593
sI8
F0.545407348829209
sI9
F0.5474837961254053
sI10
F0.5452275436093038
sI11
F0.5466185756577113
sI12
F0.5446537710255646
sI13
F0.5462789988140693
sI14
F0.5463072290826515
ssg42
(dp189
I0
F0.0007497173806820397
sI1
Fnan
sI2
Fnan
sI3
Fnan
sI4
Fnan
sI5
Fnan
sI6
Fnan
sI7
Fnan
sI8
Fnan
sI9
Fnan
sI10
Fnan
sI11
Fnan
sI12
Fnan
sI13
Fnan
sI14
Fnan
ssg44
(dp190
I0
F0.47400800000000004
sI1
Fnan
sI2
Fnan
sI3
Fnan
sI4
Fnan
sI5
Fnan
sI6
Fnan
sI7
Fnan
sI8
Fnan
sI9
Fnan
sI10
Fnan
sI11
Fnan
sI12
Fnan
sI13
Fnan
sI14
Fnan
ssg46
(dp191
I0
g164
sI1
g165
sI2
g166
sI3
g167
sI4
g168
sI5
g169
sI6
g170
sI7
g171
sI8
g172
sI9
g173
sI10
g174
sI11
g175
sI12
g176
sI13
g177
sI14
g178
ssg48
(dp192
I0
F0.0013268622155728838
sI1
Fnan
sI2
Fnan
sI3
Fnan
sI4
Fnan
sI5
Fnan
sI6
Fnan
sI7
Fnan
sI8
Fnan
sI9
Fnan
sI10
Fnan
sI11
Fnan
sI12
Fnan
sI13
Fnan
sI14
Fnan
ssg50
(dp193
I0
F0.015895492023421644
sI1
Fnan
sI2
Fnan
sI3
Fnan
sI4
Fnan
sI5
Fnan
sI6
Fnan
sI7
Fnan
sI8
Fnan
sI9
Fnan
sI10
Fnan
sI11
Fnan
sI12
Fnan
sI13
Fnan
sI14
Fnan
ssg52
(dp194
I0
F2.158612066666666
sI1
Fnan
sI2
Fnan
sI3
Fnan
sI4
Fnan
sI5
Fnan
sI6
Fnan
sI7
Fnan
sI8
Fnan
sI9
Fnan
sI10
Fnan
sI11
Fnan
sI12
Fnan
sI13
Fnan
sI14
Fnan
ssg54
(dp195
I0
F1.504302478764228
sI1
F1.5009049554433485
sI2
F1.500028026888937
sI3
F1.496888684704561
sI4
F1.5036909968918728
sI5
F1.5024391938426593
sI6
F1.5008662102288075
sI7
F1.4896992282810426
sI8
F1.5005716750829519
sI9
F1.5014823677680404
sI10
F1.5034388555052556
sI11
F1.5016912278876282
sI12
F1.4985395475975172
sI13
F1.497537268395701
sI14
F1.49282636953355
ssg56
(dp196
I0
g164
sI1
g165
sI2
g166
sI3
g167
sI4
g168
sI5
g169
sI6
g170
sI7
g171
sI8
g172
sI9
g173
sI10
g174
sI11
g175
sI12
g176
sI13
g177
sI14
g178
ssg58
(dp197
I0
F11.869
sI1
F11.76862
sI2
F11.31957
sI3
F12.51396
sI4
F10.76721
sI5
F10.5152
sI6
F11.64439
sI7
F9.778215
sI8
F11.85635
sI9
F10.87024
sI10
F11.86192
sI11
F11.39112
sI12
F11.43774
sI13
F10.92939
sI14
F10.73311
ssg60
(dp198
I0
F10.460799999999999
sI1
Fnan
sI2
Fnan
sI3
Fnan
sI4
Fnan
sI5
Fnan
sI6
Fnan
sI7
Fnan
sI8
Fnan
sI9
Fnan
sI10
Fnan
sI11
Fnan
sI12
Fnan
sI13
Fnan
sI14
Fnan
ssg62
(dp199
I0
F0.7112668570493682
sI1
Fnan
sI2
Fnan
sI3
Fnan
sI4
Fnan
sI5
Fnan
sI6
Fnan
sI7
Fnan
sI8
Fnan
sI9
Fnan
sI10
Fnan
sI11
Fnan
sI12
Fnan
sI13
Fnan
sI14
Fnan
ssg64
(dp200
I0
F4.263621
sI1
F1.848228
sI2
F-1.284837
sI3
F4.500665
sI4
F3.21328
sI5
F4.618032
sI6
F2.275014
sI7
F-3.044074
sI8
F4.018223
sI9
F2.235883
sI10
F2.522082
sI11
F3.275197
sI12
F-1.719626
sI13
F-3.724895
sI14
F2.428926
ssg66
(dp201
I0
F10.815333333333333
sI1
Fnan
sI2
Fnan
sI3
Fnan
sI4
Fnan
sI5
Fnan
sI6
Fnan
sI7
Fnan
sI8
Fnan
sI9
Fnan
sI10
Fnan
sI11
Fnan
sI12
Fnan
sI13
Fnan
sI14
Fnan
ssg68
(dp202
I0
g164
sI1
g165
sI2
g166
sI3
g167
sI4
g168
sI5
g169
sI6
g170
sI7
g171
sI8
g172
sI9
g173
sI10
g174
sI11
g175
sI12
g176
sI13
g177
sI14
g178
ssg70
(dp203
I0
F11584.82
sI1
F11804.173333333334
sI2
F11980.246666666668
sI3
F11677.480000000001
sI4
F11790.186666666666
sI5
F11932.94
sI6
F11943.146666666667
sI7
F12161.793333333333
sI8
F11798.043333333333
sI9
F11983.853333333333
sI10
F11764.656666666668
sI11
F11718.756666666666
sI12
F11604.546666666667
sI13
F12123.176666666666
sI14
F11970.140000000001
ssg72
(dp204
I0
F1.068131
sI1
F1.04011
sI2
F1.018249
sI3
F1.020038
sI4
F1.065494
sI5
F1.017678
sI6
F1.0194299999999998
sI7
F1.037285
sI8
F1.036383
sI9
F1.01883
sI10
F1.039145
sI11
F1.066807
sI12
F1.069448
sI13
F1.038203
sI14
F1.06421
ssg74
(dp205
I0
F9864.443333333333
sI1
F9996.163333333334
sI2
F10141.366666666667
sI3
F9915.21
sI4
F10004.286666666665
sI5
F10137.193333333333
sI6
F10155.03
sI7
F10337.33
sI8
F9991.723333333333
sI9
F10169.893333333333
sI10
F9993.066666666668
sI11
F9937.106666666667
sI12
F9860.263333333334
sI13
F10274.04
sI14
F10132.336666666666
ssg76
(dp206
I0
F16133.09
sI1
F16360.116666666667
sI2
F16591.52
sI3
F16160.926666666666
sI4
F16386.076666666668
sI5
F16579.516666666666
sI6
F16583.20333333333
sI7
F16758.463333333333
sI8
F16348.553333333333
sI9
F16631.73
sI10
F16355.703333333333
sI11
F16260.21
sI12
F16082.933333333332
sI13
F16770.333333333332
sI14
F16497.58
ssg78
(dp207
I0
F10.64731
sI1
F10.63938
sI2
F11.43919
sI3
F10.47289
sI4
F10.23005
sI5
F10.66118
sI6
F10.98459
sI7
F9.882822
sI8
F10.66027
sI9
F9.69206
sI10
F11.1201
sI11
F9.978319
sI12
F11.3873
sI13
F9.96327
sI14
F9.250345
ssg80
(dp208
I0
F11.015
sI1
F11.0
sI2
F10.985
sI3
F11.009
sI4
F11.0
sI5
F10.985
sI6
F10.983
sI7
F10.964
sI8
F11.001
sI9
F10.982
sI10
F11.001
sI11
F11.007
sI12
F11.015
sI13
F10.971
sI14
F10.986
ssg82
(dp209
I0
F0.001
sI1
F0.001
sI2
F0.001
sI3
F0.001
sI4
F0.001
sI5
F0.001
sI6
F0.001
sI7
F0.001
sI8
F0.001
sI9
F0.001
sI10
F0.001
sI11
F0.001
sI12
F0.001
sI13
F0.001
sI14
F0.001
ssg84
(dp210
I0
F0.5455938132927431
sI1
Fnan
sI2
Fnan
sI3
Fnan
sI4
Fnan
sI5
Fnan
sI6
Fnan
sI7
Fnan
sI8
Fnan
sI9
Fnan
sI10
Fnan
sI11
Fnan
sI12
Fnan
sI13
Fnan
sI14
Fnan
ssg86
(dp211
I0
F10.993599999999999
sI1
Fnan
sI2
Fnan
sI3
Fnan
sI4
Fnan
sI5
Fnan
sI6
Fnan
sI7
Fnan
sI8
Fnan
sI9
Fnan
sI10
Fnan
sI11
Fnan
sI12
Fnan
sI13
Fnan
sI14
Fnan
ssg88
(dp212
I0
F10.84
sI1
F10.82
sI2
F10.804
sI3
F10.832
sI4
F10.821
sI5
F10.808
sI6
F10.807
sI7
F10.788
sI8
F10.82
sI9
F10.804
sI10
F10.824
sI11
F10.828
sI12
F10.838
sI13
F10.791
sI14
F10.805
ssg90
(dp213
I0
F3.408213
sI1
F4.009047
sI2
F3.011986
sI3
F4.601334
sI4
F3.607916
sI5
F3.808594
sI6
F-2.841293
sI7
F-2.132929
sI8
F5.365794
sI9
F3.803761
sI10
F-3.067647
sI11
F-2.860671
sI12
F1.469599
sI13
F-5.087067
sI14
F3.701859
ssg92
(dp214
I0
F0.01449236252060256
sI1
Fnan
sI2
Fnan
sI3
Fnan
sI4
Fnan
sI5
Fnan
sI6
Fnan
sI7
Fnan
sI8
Fnan
sI9
Fnan
sI10
Fnan
sI11
Fnan
sI12
Fnan
sI13
Fnan
sI14
Fnan
ssg94
(dp215
I0
F0.7117739637175626
sI1
F0.7098466414976791
sI2
F0.709887266334015
sI3
F0.7123403374857898
sI4
F0.710121604721894
sI5
F0.7110711961333391
sI6
F0.7119754192176707
sI7
F0.7148850799733566
sI8
F0.7099773696737048
sI9
F0.7107940603459071
sI10
F0.7107353296093413
sI11
F0.7103269241537393
sI12
F0.712254299295807
sI13
F0.7111659331109306
sI14
F0.7118474304697858
ssg96
(dp216
I0
F30.0
sI1
F30.0
sI2
F30.0
sI3
F30.0
sI4
F30.0
sI5
F30.0
sI6
F30.0
sI7
F30.0
sI8
F30.0
sI9
F30.0
sI10
F30.0
sI11
F30.0
sI12
F30.0
sI13
F30.0
sI14
F30.0
ssg98
(dp217
I0
F0.002
sI1
F0.002
sI2
F0.002
sI3
F0.002
sI4
F0.002
sI5
F0.002
sI6
F0.002
sI7
F0.002
sI8
F0.002
sI9
F0.002
sI10
F0.002
sI11
F0.002
sI12
F0.002
sI13
F0.002
sI14
F0.002
ssg100
(dp218
I0
F0.002
sI1
F0.002
sI2
F0.002
sI3
F0.002
sI4
F0.002
sI5
F0.002
sI6
F0.002
sI7
F0.002
sI8
F0.002
sI9
F0.002
sI10
F0.002
sI11
F0.002
sI12
F0.002
sI13
F0.002
sI14
F0.002
ssg102
(dp219
I0
F3.873996
sI1
F3.746001
sI2
F3.167179
sI3
F1.925149
sI4
F2.496778
sI5
F4.202226
sI6
F2.201354
sI7
F4.533052
sI8
F4.242813
sI9
F-1.440041
sI10
F3.567899
sI11
F3.229695
sI12
F1.25057
sI13
F-1.974215
sI14
F-2.643275
ssg104
(dp220
I0
S"KIC8462852-20180807at045322_-25-1X1-030-r'_cal.fts.mag.1"
p221
sI1
S"KIC8462852-20180807at051931_-25-1X1-030-r'_cal.fts.mag.1"
p222
sI2
S"KIC8462852-20180807at054949_-25-1X1-030-r'_cal.fts.mag.1"
p223
sI3
S"KIC8462852-20180807at054636_-25-1X1-030-r'_cal.fts.mag.1"
p224
sI4
S"KIC8462852-20180807at045529_-25-1X1-030-r'_cal.fts.mag.1"
p225
sI5
S"KIC8462852-20180807at055052_-25-1X1-030-r'_cal.fts.mag.1"
p226
sI6
S"KIC8462852-20180807at054742_-25-1X1-030-r'_cal.fts.mag.1"
p227
sI7
S"KIC8462852-20180807at052245_-25-1X1-030-r'_cal.fts.mag.1"
p228
sI8
S"KIC8462852-20180807at052348_-25-1X1-030-r'_cal.fts.mag.1"
p229
sI9
S"KIC8462852-20180807at054845_-25-1X1-030-r'_cal.fts.mag.1"
p230
sI10
S"KIC8462852-20180807at052037_-25-1X1-030-r'_cal.fts.mag.1"
p231
sI11
S"KIC8462852-20180807at045425_-25-1X1-030-r'_cal.fts.mag.1"
p232
sI12
S"KIC8462852-20180807at045217_-25-1X1-030-r'_cal.fts.mag.1"
p233
sI13
S"KIC8462852-20180807at052142_-25-1X1-030-r'_cal.fts.mag.1"
p234
sI14
S"KIC8462852-20180807at045634_-25-1X1-030-r'_cal.fts.mag.1"
p235
ssg121
(dp236
I0
F0.004058330432178397
sI1
Fnan
sI2
Fnan
sI3
Fnan
sI4
Fnan
sI5
Fnan
sI6
Fnan
sI7
Fnan
sI8
Fnan
sI9
Fnan
sI10
Fnan
sI11
Fnan
sI12
Fnan
sI13
Fnan
sI14
Fnan
ssg123
(dp237
I0
F6811.08
sI1
F6940.429999999999
sI2
F7044.2266666666665
sI3
F6869.886666666667
sI4
F6929.2733333333335
sI5
F7009.946666666667
sI6
F7041.04
sI7
F7147.23
sI8
F6933.64
sI9
F7078.14
sI10
F6926.83
sI11
F6908.543333333333
sI12
F6816.84
sI13
F7132.136666666667
sI14
F7029.163333333333
ssg125
(dp238
I0
F0.015500230413034005
sI1
Fnan
sI2
Fnan
sI3
Fnan
sI4
Fnan
sI5
Fnan
sI6
Fnan
sI7
Fnan
sI8
Fnan
sI9
Fnan
sI10
Fnan
sI11
Fnan
sI12
Fnan
sI13
Fnan
sI14
Fnan
ssg127
(dp239
I0
S"r'"
p240
sI1
S"r'"
p241
sI2
S"r'"
p242
sI3
S"r'"
p243
sI4
S"r'"
p244
sI5
S"r'"
p245
sI6
S"r'"
p246
sI7
S"r'"
p247
sI8
S"r'"
p248
sI9
S"r'"
p249
sI10
S"r'"
p250
sI11
S"r'"
p251
sI12
S"r'"
p252
sI13
S"r'"
p253
sI14
S"r'"
p254
ssg144
(dp255
I0
F0.0010175037952984516
sI1
Fnan
sI2
Fnan
sI3
Fnan
sI4
Fnan
sI5
Fnan
sI6
Fnan
sI7
Fnan
sI8
Fnan
sI9
Fnan
sI10
Fnan
sI11
Fnan
sI12
Fnan
sI13
Fnan
sI14
Fnan
ssg146
(dp256
I0
F-3.706008
sI1
F4.05801
sI2
F-3.083109
sI3
F5.150455
sI4
F2.769147
sI5
F-2.838787
sI6
F4.220086
sI7
F3.036897
sI8
F1.120412
sI9
F3.022641
sI10
F-3.366505
sI11
F-1.919465
sI12
F-2.884688
sI13
F-3.104542
sI14
F4.635576
ssg148
(dp257
I0
F1.499660472454407
sI1
Fnan
sI2
Fnan
sI3
Fnan
sI4
Fnan
sI5
Fnan
sI6
Fnan
sI7
Fnan
sI8
Fnan
sI9
Fnan
sI10
Fnan
sI11
Fnan
sI12
Fnan
sI13
Fnan
sI14
Fnan
ssg150
(dp258
I0
F2458337.7234027777
sI1
Fnan
sI2
Fnan
sI3
Fnan
sI4
Fnan
sI5
Fnan
sI6
Fnan
sI7
Fnan
sI8
Fnan
sI9
Fnan
sI10
Fnan
sI11
Fnan
sI12
Fnan
sI13
Fnan
sI14
Fnan
ssg152
(dp259
I0
F0.0010175037952984516
sI1
Fnan
sI2
Fnan
sI3
Fnan
sI4
Fnan
sI5
Fnan
sI6
Fnan
sI7
Fnan
sI8
Fnan
sI9
Fnan
sI10
Fnan
sI11
Fnan
sI12
Fnan
sI13
Fnan
sI14
Fnan
ssg154
(dp260
I0
F13.99774
sI1
F13.72803
sI2
F14.17227
sI3
F13.87558
sI4
F12.36033
sI5
F13.14035
sI6
F13.42541
sI7
F12.45706
sI8
F13.51145
sI9
F11.99771
sI10
F13.92398
sI11
F13.66559
sI12
F13.66861
sI13
F13.65815
sI14
F11.78076
ssg156
(dp261
I0
F10.481
sI1
F10.466
sI2
F10.45
sI3
F10.479
sI4
F10.464
sI5
F10.451
sI6
F10.451
sI7
F10.439
sI8
F10.466
sI9
F10.448
sI10
F10.466
sI11
F10.472
sI12
F10.484
sI13
F10.439
sI14
F10.456
ssg158
(dp262
I0
F0.5455938132927431
sI1
Fnan
sI2
Fnan
sI3
Fnan
sI4
Fnan
sI5
Fnan
sI6
Fnan
sI7
Fnan
sI8
Fnan
sI9
Fnan
sI10
Fnan
sI11
Fnan
sI12
Fnan
sI13
Fnan
sI14
Fnan
sssS'z'
p263
(dp264
g3
(dp265
I0
F0.36861722289135407
sI1
Fnan
sI2
Fnan
sI3
Fnan
sI4
Fnan
sI5
Fnan
sI6
Fnan
sI7
Fnan
sI8
Fnan
sI9
Fnan
sI10
Fnan
sI11
Fnan
sI12
Fnan
sI13
Fnan
sI14
Fnan
ssg5
(dp266
I0
S'NoError'
p267
sI1
S'NoError'
p268
sI2
S'NoError'
p269
sI3
S'NoError'
p270
sI4
S'NoError'
p271
sI5
S'NoError'
p272
sI6
S'NoError'
p273
sI7
S'NoError'
p274
sI8
S'NoError'
p275
sI9
S'NoError'
p276
sI10
S'NoError'
p277
sI11
S'NoError'
p278
sI12
S'NoError'
p279
sI13
S'NoError'
p280
sI14
S'NoError'
p281
ssg22
(dp282
I0
F0.007
sI1
F0.007
sI2
F0.007
sI3
F0.007
sI4
F0.007
sI5
F0.007
sI6
F0.007
sI7
F0.007
sI8
F0.007
sI9
F0.007
sI10
F0.007
sI11
F0.008
sI12
F0.007
sI13
F0.007
sI14
F0.007
ssg24
(dp283
I0
F0.9130368752118108
sI1
F0.9160951173919294
sI2
F0.912214061920109
sI3
F0.9169148956365349
sI4
F0.9160872539149225
sI5
F0.9168385644307453
sI6
F0.9172645082865731
sI7
F0.9106824831487611
sI8
F0.9201851187240814
sI9
F0.9178884637211812
sI10
F0.9224229301219325
sI11
F0.9227519985652551
sI12
F0.9206802909718097
sI13
F0.9124774897635933
sI14
F0.9133314892162556
ssg26
(dp284
I0
F0.003766938123439856
sI1
Fnan
sI2
Fnan
sI3
Fnan
sI4
Fnan
sI5
Fnan
sI6
Fnan
sI7
Fnan
sI8
Fnan
sI9
Fnan
sI10
Fnan
sI11
Fnan
sI12
Fnan
sI13
Fnan
sI14
Fnan
ssg28
(dp285
I0
F0.9165914360683665
sI1
Fnan
sI2
Fnan
sI3
Fnan
sI4
Fnan
sI5
Fnan
sI6
Fnan
sI7
Fnan
sI8
Fnan
sI9
Fnan
sI10
Fnan
sI11
Fnan
sI12
Fnan
sI13
Fnan
sI14
Fnan
ssg30
(dp286
I0
F13.33
sI1
F13.336
sI2
F13.327
sI3
F13.34
sI4
F13.343
sI5
F13.348
sI6
F13.346
sI7
F13.338
sI8
F13.318
sI9
F13.331
sI10
F13.346
sI11
F13.377
sI12
F13.333
sI13
F13.344
sI14
F13.307
ssg32
(dp287
I0
F4.713855
sI1
F5.594486
sI2
F5.250292
sI3
F5.25843
sI4
F4.84345
sI5
F5.466414
sI6
F6.326568
sI7
F6.379075
sI8
F4.666879
sI9
F5.43858
sI10
F5.75707
sI11
F6.137253
sI12
F7.485955
sI13
F5.74585
sI14
F3.726017
ssg34
(dp288
I0
F2458337.7293287036
sI1
F2458337.7300694445
sI2
F2458337.732291667
sI3
F2458337.7495949073
sI4
F2458337.748113426
sI5
F2458337.750335648
sI6
F2458337.708587963
sI7
F2458337.7093402776
sI8
F2458337.7315625
sI9
F2458337.730810185
sI10
F2458337.7100810185
sI11
F2458337.7133564814
sI12
F2458337.707858796
sI13
F2458337.748854167
sI14
F2458337.751076389
ssg36
(dp289
I0
F1.4233503999999997
sI1
Fnan
sI2
Fnan
sI3
Fnan
sI4
Fnan
sI5
Fnan
sI6
Fnan
sI7
Fnan
sI8
Fnan
sI9
Fnan
sI10
Fnan
sI11
Fnan
sI12
Fnan
sI13
Fnan
sI14
Fnan
ssg38
(dp290
I0
F1.7840001333333333
sI1
Fnan
sI2
Fnan
sI3
Fnan
sI4
Fnan
sI5
Fnan
sI6
Fnan
sI7
Fnan
sI8
Fnan
sI9
Fnan
sI10
Fnan
sI11
Fnan
sI12
Fnan
sI13
Fnan
sI14
Fnan
ssg40
(dp291
I0
F0.36930049276707305
sI1
F0.3692580794494485
sI2
F0.3683537406935049
sI3
F0.3688798683223336
sI4
F0.36482366981166586
sI5
F0.367445600404087
sI6
F0.367483135939317
sI7
F0.3723748329456154
sI8
F0.3705279106276928
sI9
F0.36935004456378073
sI10
F0.37038822387877274
sI11
F0.3665720768817454
sI12
F0.36563062119875
sI13
F0.3664592699154828
sI14
F0.37461373980166435
ssg42
(dp292
I0
F0.0018161205223734625
sI1
Fnan
sI2
Fnan
sI3
Fnan
sI4
Fnan
sI5
Fnan
sI6
Fnan
sI7
Fnan
sI8
Fnan
sI9
Fnan
sI10
Fnan
sI11
Fnan
sI12
Fnan
sI13
Fnan
sI14
Fnan
ssg44
(dp293
I0
F0.8247919333333332
sI1
Fnan
sI2
Fnan
sI3
Fnan
sI4
Fnan
sI5
Fnan
sI6
Fnan
sI7
Fnan
sI8
Fnan
sI9
Fnan
sI10
Fnan
sI11
Fnan
sI12
Fnan
sI13
Fnan
sI14
Fnan
ssg46
(dp294
I0
g267
sI1
g268
sI2
g269
sI3
g270
sI4
g271
sI5
g272
sI6
g273
sI7
g274
sI8
g275
sI9
g276
sI10
g277
sI11
g278
sI12
g279
sI13
g280
sI14
g281
ssg48
(dp295
I0
F0.0041540670709632075
sI1
Fnan
sI2
Fnan
sI3
Fnan
sI4
Fnan
sI5
Fnan
sI6
Fnan
sI7
Fnan
sI8
Fnan
sI9
Fnan
sI10
Fnan
sI11
Fnan
sI12
Fnan
sI13
Fnan
sI14
Fnan
ssg50
(dp296
I0
F0.012020617209413076
sI1
Fnan
sI2
Fnan
sI3
Fnan
sI4
Fnan
sI5
Fnan
sI6
Fnan
sI7
Fnan
sI8
Fnan
sI9
Fnan
sI10
Fnan
sI11
Fnan
sI12
Fnan
sI13
Fnan
sI14
Fnan
ssg52
(dp297
I0
F1.2948126000000002
sI1
Fnan
sI2
Fnan
sI3
Fnan
sI4
Fnan
sI5
Fnan
sI6
Fnan
sI7
Fnan
sI8
Fnan
sI9
Fnan
sI10
Fnan
sI11
Fnan
sI12
Fnan
sI13
Fnan
sI14
Fnan
ssg54
(dp298
I0
F1.5242813077385604
sI1
F1.509871926575282
sI2
F1.5105309837907428
sI3
F1.5116328752123303
sI4
F1.5114230934042727
sI5
F1.5086138459000011
sI6
F1.5153060398354372
sI7
F1.5098926967048858
sI8
F1.5004184145781623
sI9
F1.5073266733483326
sI10
F1.5128832519168007
sI11
F1.50988338819763
sI12
F1.5093609719149446
sI13
F1.5096353449636024
sI14
F1.5015707066953727
ssg56
(dp299
I0
g267
sI1
g268
sI2
g269
sI3
g270
sI4
g271
sI5
g272
sI6
g273
sI7
g274
sI8
g275
sI9
g276
sI10
g277
sI11
g278
sI12
g279
sI13
g280
sI14
g281
ssg58
(dp300
I0
F5.793508
sI1
F6.620151
sI2
F6.746836
sI3
F6.016133
sI4
F5.763105
sI5
F6.079557
sI6
F7.74231
sI7
F7.403813
sI8
F5.469049
sI9
F6.107973
sI10
F7.109875
sI11
F7.404918
sI12
F7.646544
sI13
F6.088604
sI14
F6.314147
ssg60
(dp301
I0
F11.977399999999998
sI1
Fnan
sI2
Fnan
sI3
Fnan
sI4
Fnan
sI5
Fnan
sI6
Fnan
sI7
Fnan
sI8
Fnan
sI9
Fnan
sI10
Fnan
sI11
Fnan
sI12
Fnan
sI13
Fnan
sI14
Fnan
ssg62
(dp302
I0
F0.686395841439859
sI1
Fnan
sI2
Fnan
sI3
Fnan
sI4
Fnan
sI5
Fnan
sI6
Fnan
sI7
Fnan
sI8
Fnan
sI9
Fnan
sI10
Fnan
sI11
Fnan
sI12
Fnan
sI13
Fnan
sI14
Fnan
ssg64
(dp303
I0
F3.17347
sI1
F-1.294544
sI2
F-2.708152
sI3
F2.610436
sI4
F3.575139
sI5
F1.872146
sI6
F3.006988
sI7
F3.311348
sI8
F1.954945
sI9
F3.300278
sI10
F-3.966155
sI11
F2.541772
sI12
F2.937029
sI13
F3.695574
sI14
F2.749728
ssg66
(dp304
I0
F12.318266666666664
sI1
Fnan
sI2
Fnan
sI3
Fnan
sI4
Fnan
sI5
Fnan
sI6
Fnan
sI7
Fnan
sI8
Fnan
sI9
Fnan
sI10
Fnan
sI11
Fnan
sI12
Fnan
sI13
Fnan
sI14
Fnan
ssg68
(dp305
I0
g267
sI1
g268
sI2
g269
sI3
g270
sI4
g271
sI5
g272
sI6
g273
sI7
g274
sI8
g275
sI9
g276
sI10
g277
sI11
g278
sI12
g279
sI13
g280
sI14
g281
ssg70
(dp306
I0
F2977.923333333333
sI1
F2967.7916666666665
sI2
F2992.9466666666663
sI3
F2962.449333333333
sI4
F2985.7470000000003
sI5
F2953.199666666667
sI6
F2957.99
sI7
F2926.8723333333332
sI8
F3018.226666666667
sI9
F2985.4590000000003
sI10
F2945.6659999999997
sI11
F2895.0196666666666
sI12
F3015.9683333333332
sI13
F2961.838666666667
sI14
F2998.5703333333336
ssg72
(dp307
I0
F1.03115
sI1
F1.0303309999999999
sI2
F1.027965
sI3
F1.013511
sI4
F1.0144739999999999
sI5
F1.013047
sI6
F1.059742
sI7
F1.0585229999999999
sI8
F1.028736
sI9
F1.029523
sI10
F1.053323
sI11
F1.0521909999999999
sI12
F1.0609790000000001
sI13
F1.0139850000000001
sI14
F1.012597
ssg74
(dp308
I0
F2413.8373333333334
sI1
F2415.3183333333336
sI2
F2450.6093333333333
sI3
F2404.9826666666663
sI4
F2427.5706666666665
sI5
F2402.383333333333
sI6
F2394.3633333333332
sI7
F2403.625666666667
sI8
F2454.4156666666668
sI9
F2426.365
sI10
F2367.614666666667
sI11
F2330.0946666666664
sI12
F2436.635
sI13
F2425.4446666666668
sI14
F2464.5756666666666
ssg76
(dp309
I0
F4109.28
sI1
F4063.9033333333336
sI2
F4111.33
sI3
F4056.7933333333335
sI4
F4090.9066666666668
sI5
F4039.7533333333336
sI6
F4055.226666666667
sI7
F4024.24
sI8
F4105.626666666667
sI9
F4078.6933333333336
sI10
F4019.186666666667
sI11
F3944.6566666666668
sI12
F4114.973333333333
sI13
F4066.4166666666665
sI14
F4101.65
ssg78
(dp310
I0
F5.799868
sI1
F6.440908
sI2
F5.947124
sI3
F6.429822
sI4
F5.41801
sI5
F6.08919
sI6
F7.635094
sI7
F7.11259
sI8
F5.881315
sI9
F5.526015
sI10
F7.07615
sI11
F7.118117
sI12
F7.215481
sI13
F5.315175
sI14
F5.996457
ssg80
(dp311
I0
F12.543
sI1
F12.543
sI2
F12.527
sI3
F12.547
sI4
F12.537
sI5
F12.548
sI6
F12.552
sI7
F12.548
sI8
F12.525
sI9
F12.538
sI10
F12.564
sI11
F12.582
sI12
F12.533
sI13
F12.538
sI14
F12.521
ssg82
(dp312
I0
F0.003
sI1
F0.003
sI2
F0.003
sI3
F0.003
sI4
F0.003
sI5
F0.003
sI6
F0.003
sI7
F0.003
sI8
F0.003
sI9
F0.003
sI10
F0.003
sI11
F0.003
sI12
F0.003
sI13
F0.003
sI14
F0.003
ssg84
(dp313
I0
F0.36876408714672887
sI1
Fnan
sI2
Fnan
sI3
Fnan
sI4
Fnan
sI5
Fnan
sI6
Fnan
sI7
Fnan
sI8
Fnan
sI9
Fnan
sI10
Fnan
sI11
Fnan
sI12
Fnan
sI13
Fnan
sI14
Fnan
ssg86
(dp314
I0
F12.543066666666668
sI1
Fnan
sI2
Fnan
sI3
Fnan
sI4
Fnan
sI5
Fnan
sI6
Fnan
sI7
Fnan
sI8
Fnan
sI9
Fnan
sI10
Fnan
sI11
Fnan
sI12
Fnan
sI13
Fnan
sI14
Fnan
ssg88
(dp315
I0
F12.315
sI1
F12.319
sI2
F12.31
sI3
F12.321
sI4
F12.312
sI5
F12.324
sI6
F12.323
sI7
F12.334
sI8
F12.301
sI9
F12.312
sI10
F12.327
sI11
F12.346
sI12
F12.301
sI13
F12.321
sI14
F12.308
ssg90
(dp316
I0
F-1.053051
sI1
F3.275207
sI2
F4.23577
sI3
F3.834922
sI4
F4.116959
sI5
F-2.54021
sI6
F3.127123
sI7
F3.153456
sI8
F1.842418
sI9
F-1.653991
sI10
F-2.380978
sI11
F4.246443
sI12
F1.337548
sI13
F3.01195
sI14
F-3.20331
ssg92
(dp317
I0
F0.012298664271258928
sI1
Fnan
sI2
Fnan
sI3
Fnan
sI4
Fnan
sI5
Fnan
sI6
Fnan
sI7
Fnan
sI8
Fnan
sI9
Fnan
sI10
Fnan
sI11
Fnan
sI12
Fnan
sI13
Fnan
sI14
Fnan
ssg94
(dp318
I0
F0.6811819048510438
sI1
F0.6869804032550711
sI2
F0.6898969306281709
sI3
F0.6852541736696379
sI4
F0.6860786979307215
sI5
F0.6870869383315841
sI6
F0.6828145905468959
sI7
F0.6915801533346918
sI8
F0.6890696795180136
sI9
F0.6869514941094371
sI10
F0.6798750181745888
sI11
F0.6813464711220009
sI12
F0.683397821465842
sI13
F0.6901982217872373
sI14
F0.6942251228729475
ssg96
(dp319
I0
F30.0
sI1
F30.0
sI2
F30.0
sI3
F30.0
sI4
F30.0
sI5
F30.0
sI6
F30.0
sI7
F30.0
sI8
F30.0
sI9
F30.0
sI10
F30.0
sI11
F30.0
sI12
F30.0
sI13
F30.0
sI14
F30.0
ssg98
(dp320
I0
F0.004
sI1
F0.004
sI2
F0.004
sI3
F0.004
sI4
F0.004
sI5
F0.004
sI6
F0.004
sI7
F0.004
sI8
F0.004
sI9
F0.004
sI10
F0.004
sI11
F0.005
sI12
F0.004
sI13
F0.004
sI14
F0.004
ssg100
(dp321
I0
F0.004
sI1
F0.004
sI2
F0.004
sI3
F0.004
sI4
F0.004
sI5
F0.004
sI6
F0.004
sI7
F0.004
sI8
F0.004
sI9
F0.004
sI10
F0.004
sI11
F0.004
sI12
F0.004
sI13
F0.004
sI14
F0.004
ssg102
(dp322
I0
F2.885635
sI1
F-1.819072
sI2
F-1.880021
sI3
F-1.571707
sI4
F3.12861
sI5
F-2.346708
sI6
F-2.210958
sI7
F3.866757
sI8
F4.399097
sI9
F3.907793
sI10
F3.133083
sI11
F3.443041
sI12
F3.194626
sI13
F-2.083448
sI14
F3.375461
ssg104
(dp323
I0
S"KIC8462852-20180807at053013_-25-1X1-030-z'_cal.fts.mag.1"
p324
sI1
S"KIC8462852-20180807at053118_-25-1X1-030-z'_cal.fts.mag.1"
p325
sI2
S"KIC8462852-20180807at053430_-25-1X1-030-z'_cal.fts.mag.1"
p326
sI3
S"KIC8462852-20180807at055925_-25-1X1-030-z'_cal.fts.mag.1"
p327
sI4
S"KIC8462852-20180807at055715_-25-1X1-030-z'_cal.fts.mag.1"
p328
sI5
S"KIC8462852-20180807at060029_-25-1X1-030-z'_cal.fts.mag.1"
p329
sI6
S"KIC8462852-20180807at050022_-25-1X1-030-z'_cal.fts.mag.1"
p330
sI7
S"KIC8462852-20180807at050127_-25-1X1-030-z'_cal.fts.mag.1"
p331
sI8
S"KIC8462852-20180807at053327_-25-1X1-030-z'_cal.fts.mag.1"
p332
sI9
S"KIC8462852-20180807at053222_-25-1X1-030-z'_cal.fts.mag.1"
p333
sI10
S"KIC8462852-20180807at050231_-25-1X1-030-z'_cal.fts.mag.1"
p334
sI11
S"KIC8462852-20180807at050714_-25-1X1-030-z'_cal.fts.mag.1"
p335
sI12
S"KIC8462852-20180807at045917_-25-1X1-030-z'_cal.fts.mag.1"
p336
sI13
S"KIC8462852-20180807at055821_-25-1X1-030-z'_cal.fts.mag.1"
p337
sI14
S"KIC8462852-20180807at060133_-25-1X1-030-z'_cal.fts.mag.1"
p338
ssg121
(dp339
I0
F0.005460543011577422
sI1
Fnan
sI2
Fnan
sI3
Fnan
sI4
Fnan
sI5
Fnan
sI6
Fnan
sI7
Fnan
sI8
Fnan
sI9
Fnan
sI10
Fnan
sI11
Fnan
sI12
Fnan
sI13
Fnan
sI14
Fnan
ssg123
(dp340
I0
F1169.5796666666668
sI1
F1162.7953333333332
sI2
F1173.1926666666666
sI3
F1158.8023333333333
sI4
F1155.7886666666668
sI5
F1150.7583333333334
sI6
F1152.3756666666666
sI7
F1161.1563333333334
sI8
F1183.0053333333335
sI9
F1168.441
sI10
F1152.212
sI11
F1120.4606666666666
sI12
F1166.0663333333332
sI13
F1154.7986666666666
sI14
F1194.368
ssg125
(dp341
I0
F0.015489474152591873
sI1
Fnan
sI2
Fnan
sI3
Fnan
sI4
Fnan
sI5
Fnan
sI6
Fnan
sI7
Fnan
sI8
Fnan
sI9
Fnan
sI10
Fnan
sI11
Fnan
sI12
Fnan
sI13
Fnan
sI14
Fnan
ssg127
(dp342
I0
S"z'"
p343
sI1
S"z'"
p344
sI2
S"z'"
p345
sI3
S"z'"
p346
sI4
S"z'"
p347
sI5
S"z'"
p348
sI6
S"z'"
p349
sI7
S"z'"
p350
sI8
S"z'"
p351
sI9
S"z'"
p352
sI10
S"z'"
p353
sI11
S"z'"
p354
sI12
S"z'"
p355
sI13
S"z'"
p356
sI14
S"z'"
p357
ssg144
(dp358
I0
F0.002576037130315055
sI1
Fnan
sI2
Fnan
sI3
Fnan
sI4
Fnan
sI5
Fnan
sI6
Fnan
sI7
Fnan
sI8
Fnan
sI9
Fnan
sI10
Fnan
sI11
Fnan
sI12
Fnan
sI13
Fnan
sI14
Fnan
ssg146
(dp359
I0
F3.338984
sI1
F-2.676347
sI2
F2.917113
sI3
F-2.942888
sI4
F3.268565
sI5
F-2.784276
sI6
F4.421407
sI7
F3.682818
sI8
F1.745118
sI9
F3.869395
sI10
F3.051136
sI11
F-3.609567
sI12
F-3.4212
sI13
F-2.033236
sI14
F3.544857
ssg148
(dp360
I0
F1.5101754347184235
sI1
Fnan
sI2
Fnan
sI3
Fnan
sI4
Fnan
sI5
Fnan
sI6
Fnan
sI7
Fnan
sI8
Fnan
sI9
Fnan
sI10
Fnan
sI11
Fnan
sI12
Fnan
sI13
Fnan
sI14
Fnan
ssg150
(dp361
I0
F2458337.730810185
sI1
Fnan
sI2
Fnan
sI3
Fnan
sI4
Fnan
sI5
Fnan
sI6
Fnan
sI7
Fnan
sI8
Fnan
sI9
Fnan
sI10
Fnan
sI11
Fnan
sI12
Fnan
sI13
Fnan
sI14
Fnan
ssg152
(dp362
I0
F0.002576037130315055
sI1
Fnan
sI2
Fnan
sI3
Fnan
sI4
Fnan
sI5
Fnan
sI6
Fnan
sI7
Fnan
sI8
Fnan
sI9
Fnan
sI10
Fnan
sI11
Fnan
sI12
Fnan
sI13
Fnan
sI14
Fnan
ssg154
(dp363
I0
F6.575756
sI1
F6.520632
sI2
F7.231969
sI3
F7.094109
sI4
F6.431108
sI5
F6.826824
sI6
F8.37785
sI7
F8.634311
sI8
F7.163702
sI9
F7.035025
sI10
F8.032951
sI11
F7.91756
sI12
F8.610144
sI13
F5.946418
sI14
F7.594051
ssg156
(dp364
I0
F11.966
sI1
F11.978
sI2
F11.965
sI3
F11.98
sI4
F11.97
sI5
F11.984
sI6
F11.98
sI7
F11.988
sI8
F11.967
sI9
F11.974
sI10
F11.99
sI11
F12.01
sI12
F11.964
sI13
F11.977
sI14
F11.968
ssg158
(dp365
I0
F0.36876408714672887
sI1
Fnan
sI2
Fnan
sI3
Fnan
sI4
Fnan
sI5
Fnan
sI6
Fnan
sI7
Fnan
sI8
Fnan
sI9
Fnan
sI10
Fnan
sI11
Fnan
sI12
Fnan
sI13
Fnan
sI14
Fnan
sssS'g'
p366
(dp367
g3
(dp368
I0
F0.8571726156976903
sI1
Fnan
sI2
Fnan
sI3
Fnan
sI4
Fnan
sI5
Fnan
sI6
Fnan
sI7
Fnan
sI8
Fnan
sI9
Fnan
sI10
Fnan
sI11
Fnan
sI12
Fnan
sI13
Fnan
sI14
Fnan
ssg5
(dp369
I0
S'NoError'
p370
sI1
S'NoError'
p371
sI2
S'NoError'
p372
sI3
S'NoError'
p373
sI4
S'NoError'
p374
sI5
S'NoError'
p375
sI6
S'NoError'
p376
sI7
S'NoError'
p377
sI8
S'NoError'
p378
sI9
S'NoError'
p379
sI10
S'NoError'
p380
sI11
S'NoError'
p381
sI12
S'NoError'
p382
sI13
S'NoError'
p383
sI14
S'NoError'
p384
ssg22
(dp385
I0
F0.003
sI1
F0.003
sI2
F0.003
sI3
F0.003
sI4
F0.003
sI5
F0.003
sI6
F0.003
sI7
F0.003
sI8
F0.003
sI9
F0.003
sI10
F0.003
sI11
F0.003
sI12
F0.003
sI13
F0.003
sI14
F0.003
ssg24
(dp386
I0
F0.8782550132334307
sI1
F0.8770132272574703
sI2
F0.8721665680784589
sI3
F0.8765231992723626
sI4
F0.8789177468619224
sI5
F0.8843890994608489
sI6
F0.8789622396662241
sI7
F0.8788496852264737
sI8
F0.8769436852180118
sI9
F0.8764493508296882
sI10
F0.8753577668641019
sI11
F0.8785582102226324
sI12
F0.884619068396352
sI13
F0.873656921389801
sI14
F0.8764547083840537
ssg26
(dp387
I0
F0.0033368148437514914
sI1
Fnan
sI2
Fnan
sI3
Fnan
sI4
Fnan
sI5
Fnan
sI6
Fnan
sI7
Fnan
sI8
Fnan
sI9
Fnan
sI10
Fnan
sI11
Fnan
sI12
Fnan
sI13
Fnan
sI14
Fnan
ssg28
(dp388
I0
F0.8778077660241222
sI1
Fnan
sI2
Fnan
sI3
Fnan
sI4
Fnan
sI5
Fnan
sI6
Fnan
sI7
Fnan
sI8
Fnan
sI9
Fnan
sI10
Fnan
sI11
Fnan
sI12
Fnan
sI13
Fnan
sI14
Fnan
ssg30
(dp389
I0
F11.798
sI1
F11.737
sI2
F11.753
sI3
F11.791
sI4
F11.816
sI5
F11.778
sI6
F11.746
sI7
F11.771
sI8
F11.762
sI9
F11.725
sI10
F11.728
sI11
F11.818
sI12
F11.777
sI13
F11.716
sI14
F11.769
ssg32
(dp390
I0
F6.027151
sI1
F6.724174
sI2
F6.652879
sI3
F7.69187
sI4
F6.9348
sI5
F5.635799
sI6
F6.552914
sI7
F6.098221
sI8
F6.442634
sI9
F6.238359
sI10
F5.495759
sI11
F6.896208
sI12
F5.563681
sI13
F5.332134
sI14
F5.648795
ssg34
(dp391
I0
F2458337.700034722
sI1
F2458337.7399652777
sI2
F2458337.7384837964
sI3
F2458337.7203935185
sI4
F2458337.7015046296
sI5
F2458337.7022337965
sI6
F2458337.7188310185
sI7
F2458337.7195717595
sI8
F2458337.7211458334
sI9
F2458337.7392361113
sI10
F2458337.737002315
sI11
F2458337.7180902776
sI12
F2458337.699305556
sI13
F2458337.7377546295
sI14
F2458337.700775463
ssg36
(dp392
I0
F1.5187118666666666
sI1
Fnan
sI2
Fnan
sI3
Fnan
sI4
Fnan
sI5
Fnan
sI6
Fnan
sI7
Fnan
sI8
Fnan
sI9
Fnan
sI10
Fnan
sI11
Fnan
sI12
Fnan
sI13
Fnan
sI14
Fnan
ssg38
(dp393
I0
F2.1711662666666665
sI1
Fnan
sI2
Fnan
sI3
Fnan
sI4
Fnan
sI5
Fnan
sI6
Fnan
sI7
Fnan
sI8
Fnan
sI9
Fnan
sI10
Fnan
sI11
Fnan
sI12
Fnan
sI13
Fnan
sI14
Fnan
ssg40
(dp394
I0
F0.8582279175851844
sI1
F0.8615757791310841
sI2
F0.8555151070989894
sI3
F0.8589808820717342
sI4
F0.853649459566567
sI5
F0.8579092819013957
sI6
F0.8557103411519905
sI7
F0.8536649460129957
sI8
F0.8612410964392704
sI9
F0.8567195244562821
sI10
F0.8586692466802075
sI11
F0.8599011915164547
sI12
F0.8540181871455059
sI13
F0.8607332475270896
sI14
F0.8554761906139975
ssg42
(dp395
I0
F0.002485347890078811
sI1
Fnan
sI2
Fnan
sI3
Fnan
sI4
Fnan
sI5
Fnan
sI6
Fnan
sI7
Fnan
sI8
Fnan
sI9
Fnan
sI10
Fnan
sI11
Fnan
sI12
Fnan
sI13
Fnan
sI14
Fnan
ssg44
(dp396
I0
F1.1221452
sI1
Fnan
sI2
Fnan
sI3
Fnan
sI4
Fnan
sI5
Fnan
sI6
Fnan
sI7
Fnan
sI8
Fnan
sI9
Fnan
sI10
Fnan
sI11
Fnan
sI12
Fnan
sI13
Fnan
sI14
Fnan
ssg46
(dp397
I0
g370
sI1
g371
sI2
g372
sI3
g373
sI4
g374
sI5
g375
sI6
g376
sI7
g377
sI8
g378
sI9
g379
sI10
g380
sI11
g381
sI12
g382
sI13
g383
sI14
g384
ssg48
(dp398
I0
F0.003149978724767123
sI1
Fnan
sI2
Fnan
sI3
Fnan
sI4
Fnan
sI5
Fnan
sI6
Fnan
sI7
Fnan
sI8
Fnan
sI9
Fnan
sI10
Fnan
sI11
Fnan
sI12
Fnan
sI13
Fnan
sI14
Fnan
ssg50
(dp399
I0
F0.030019517460669335
sI1
Fnan
sI2
Fnan
sI3
Fnan
sI4
Fnan
sI5
Fnan
sI6
Fnan
sI7
Fnan
sI8
Fnan
sI9
Fnan
sI10
Fnan
sI11
Fnan
sI12
Fnan
sI13
Fnan
sI14
Fnan
ssg52
(dp400
I0
F0.7335580666666668
sI1
Fnan
sI2
Fnan
sI3
Fnan
sI4
Fnan
sI5
Fnan
sI6
Fnan
sI7
Fnan
sI8
Fnan
sI9
Fnan
sI10
Fnan
sI11
Fnan
sI12
Fnan
sI13
Fnan
sI14
Fnan
ssg54
(dp401
I0
F1.52035869930892
sI1
F1.5315105160611815
sI2
F1.5308056219382553
sI3
F1.5406945094523317
sI4
F1.5237121747519549
sI5
F1.5194103217725234
sI6
F1.5215379470190964
sI7
F1.5295350647387265
sI8
F1.5239563007584047
sI9
F1.5264124005710789
sI10
F1.5216211767311187
sI11
F1.5197783009480306
sI12
F1.5130932980622505
sI13
F1.529911320901326
sI14
F1.5221940063509496
ssg56
(dp402
I0
g370
sI1
g371
sI2
g372
sI3
g373
sI4
g374
sI5
g375
sI6
g376
sI7
g377
sI8
g378
sI9
g379
sI10
g380
sI11
g381
sI12
g382
sI13
g383
sI14
g384
ssg58
(dp403
I0
F6.084714
sI1
F6.421246
sI2
F6.424029
sI3
F7.870333
sI4
F6.407267
sI5
F6.140698
sI6
F4.554054
sI7
F7.024858
sI8
F5.774914
sI9
F6.957648
sI10
F6.09081
sI11
F6.96275
sI12
F4.656288
sI13
F6.488155
sI14
F5.940335
ssg60
(dp404
I0
F11.315866666666668
sI1
Fnan
sI2
Fnan
sI3
Fnan
sI4
Fnan
sI5
Fnan
sI6
Fnan
sI7
Fnan
sI8
Fnan
sI9
Fnan
sI10
Fnan
sI11
Fnan
sI12
Fnan
sI13
Fnan
sI14
Fnan
ssg62
(dp405
I0
F0.7113426057330366
sI1
Fnan
sI2
Fnan
sI3
Fnan
sI4
Fnan
sI5
Fnan
sI6
Fnan
sI7
Fnan
sI8
Fnan
sI9
Fnan
sI10
Fnan
sI11
Fnan
sI12
Fnan
sI13
Fnan
sI14
Fnan
ssg64
(dp406
I0
F3.04125
sI1
F2.303022
sI2
F4.066133
sI3
F-2.603528
sI4
F3.98843
sI5
F2.81795
sI6
F-3.447736
sI7
F3.223116
sI8
F4.033681
sI9
F4.411947
sI10
F3.106464
sI11
F3.431049
sI12
F-1.326361
sI13
F2.870081
sI14
F2.651996
ssg66
(dp407
I0
F11.6952
sI1
Fnan
sI2
Fnan
sI3
Fnan
sI4
Fnan
sI5
Fnan
sI6
Fnan
sI7
Fnan
sI8
Fnan
sI9
Fnan
sI10
Fnan
sI11
Fnan
sI12
Fnan
sI13
Fnan
sI14
Fnan
ssg68
(dp408
I0
g370
sI1
g371
sI2
g372
sI3
g373
sI4
g374
sI5
g375
sI6
g376
sI7
g377
sI8
g378
sI9
g379
sI10
g380
sI11
g381
sI12
g382
sI13
g383
sI14
g384
ssg70
(dp409
I0
F5114.083333333333
sI1
F5382.516666666666
sI2
F5320.223333333333
sI3
F5136.48
sI4
F5058.740000000001
sI5
F5237.866666666667
sI6
F5384.759999999999
sI7
F5274.1
sI8
F5264.5633333333335
sI9
F5470.183333333333
sI10
F5438.36
sI11
F5010.990000000001
sI12
F5264.583333333333
sI13
F5478.466666666666
sI14
F5264.426666666666
ssg72
(dp410
I0
F1.074918
sI1
F1.020683
sI2
F1.02197
sI3
F1.042101
sI4
F1.07217
sI5
F1.070814
sI6
F1.044233
sI7
F1.043212
sI8
F1.041108
sI9
F1.0213139999999998
sI10
F1.023313
sI11
F1.045267
sI12
F1.0763209999999999
sI13
F1.022635
sI14
F1.073533
ssg74
(dp411
I0
F4407.7266666666665
sI1
F4617.266666666666
sI2
F4603.993333333333
sI3
F4385.156666666667
sI4
F4346.133333333333
sI5
F4470.026666666667
sI6
F4632.056666666667
sI7
F4515.506666666667
sI8
F4537.59
sI9
F4711.713333333333
sI10
F4706.863333333333
sI11
F4318.173333333333
sI12
F4508.61
sI13
F4731.38
sI14
F4546.179999999999
ssg76
(dp412
I0
F7238.283333333334
sI1
F7657.386666666667
sI2
F7596.0233333333335
sI3
F7334.966666666666
sI4
F7165.16
sI5
F7375.136666666667
sI6
F7620.483333333334
sI7
F7486.7733333333335
sI8
F7469.026666666667
sI9
F7770.886666666667
sI10
F7718.593333333333
sI11
F7089.13
sI12
F7393.876666666666
sI13
F7810.08
sI14
F7466.823333333334
ssg78
(dp413
I0
F5.402298
sI1
F5.706744
sI2
F5.933384
sI3
F7.654558
sI4
F5.445511
sI5
F5.053123
sI6
F5.160184
sI7
F6.327078
sI8
F5.23845
sI9
F4.509524
sI10
F5.069151
sI11
F6.887959
sI12
F4.521984
sI13
F5.392007
sI14
F4.22493
ssg80
(dp414
I0
F11.889
sI1
F11.839
sI2
F11.842
sI3
F11.895
sI4
F11.905
sI5
F11.874
sI6
F11.836
sI7
F11.863
sI8
F11.858
sI9
F11.817
sI10
F11.818
sI11
F11.912
sI12
F11.865
sI13
F11.813
sI14
F11.856
ssg82
(dp415
I0
F0.002
sI1
F0.002
sI2
F0.002
sI3
F0.002
sI4
F0.002
sI5
F0.002
sI6
F0.002
sI7
F0.002
sI8
F0.002
sI9
F0.002
sI10
F0.002
sI11
F0.002
sI12
F0.002
sI13
F0.002
sI14
F0.002
ssg84
(dp416
I0
F0.8574661599265833
sI1
Fnan
sI2
Fnan
sI3
Fnan
sI4
Fnan
sI5
Fnan
sI6
Fnan
sI7
Fnan
sI8
Fnan
sI9
Fnan
sI10
Fnan
sI11
Fnan
sI12
Fnan
sI13
Fnan
sI14
Fnan
ssg86
(dp417
I0
F11.8588
sI1
Fnan
sI2
Fnan
sI3
Fnan
sI4
Fnan
sI5
Fnan
sI6
Fnan
sI7
Fnan
sI8
Fnan
sI9
Fnan
sI10
Fnan
sI11
Fnan
sI12
Fnan
sI13
Fnan
sI14
Fnan
ssg88
(dp418
I0
F11.728
sI1
F11.673
sI2
F11.685
sI3
F11.723
sI4
F11.74
sI5
F11.702
sI6
F11.672
sI7
F11.695
sI8
F11.697
sI9
F11.655
sI10
F11.661
sI11
F11.75
sI12
F11.697
sI13
F11.653
sI14
F11.697
ssg90
(dp419
I0
F3.88519
sI1
F3.222776
sI2
F2.511505
sI3
F2.601435
sI4
F3.641411
sI5
F2.810056
sI6
F3.647851
sI7
F1.577807
sI8
F-1.204202
sI9
F2.569801
sI10
F2.009584
sI11
F2.541275
sI12
F-4.034394
sI13
F-1.079671
sI14
F-1.919746
ssg92
(dp420
I0
F0.03186997392680526
sI1
Fnan
sI2
Fnan
sI3
Fnan
sI4
Fnan
sI5
Fnan
sI6
Fnan
sI7
Fnan
sI8
Fnan
sI9
Fnan
sI10
Fnan
sI11
Fnan
sI12
Fnan
sI13
Fnan
sI14
Fnan
ssg94
(dp421
I0
F0.7136651276003788
sI1
F0.708174983914758
sI2
F0.7128995678311087
sI3
F0.7032314347921145
sI4
F0.7110878415781106
sI5
F0.7087965567809517
sI6
F0.7123367933907685
sI7
F0.7077112277059407
sI8
F0.712696105340285
sI9
F0.7116816591609791
sI10
F0.7154944179072865
sI11
F0.7137405799832287
sI12
F0.7123473155502328
sI13
F0.7120989403406042
sI14
F0.7141765341188021
ssg96
(dp422
I0
F30.0
sI1
F30.0
sI2
F30.0
sI3
F30.0
sI4
F30.0
sI5
F30.0
sI6
F30.0
sI7
F30.0
sI8
F30.0
sI9
F30.0
sI10
F30.0
sI11
F30.0
sI12
F30.0
sI13
F30.0
sI14
F30.0
ssg98
(dp423
I0
F0.003
sI1
F0.003
sI2
F0.003
sI3
F0.003
sI4
F0.003
sI5
F0.003
sI6
F0.003
sI7
F0.003
sI8
F0.003
sI9
F0.003
sI10
F0.003
sI11
F0.003
sI12
F0.003
sI13
F0.003
sI14
F0.003
ssg100
(dp424
I0
F0.003
sI1
F0.003
sI2
F0.003
sI3
F0.003
sI4
F0.003
sI5
F0.003
sI6
F0.003
sI7
F0.003
sI8
F0.003
sI9
F0.003
sI10
F0.003
sI11
F0.003
sI12
F0.003
sI13
F0.003
sI14
F0.003
ssg102
(dp425
I0
F-2.654327
sI1
F4.21772
sI2
F-2.556257
sI3
F-2.915762
sI4
F-2.933611
sI5
F1.388554
sI6
F3.014124
sI7
F1.560305
sI8
F4.963823
sI9
F-4.211946
sI10
F3.133733
sI11
F3.792044
sI12
F4.610219
sI13
F-2.261271
sI14
F1.856023
ssg104
(dp426
I0
S"KIC8462852-20180807at044803_-25-1X1-030-g'_cal.fts.mag.1"
p427
sI1
S"KIC8462852-20180807at054533_-25-1X1-030-g'_cal.fts.mag.1"
p428
sI2
S"KIC8462852-20180807at054325_-25-1X1-030-g'_cal.fts.mag.1"
p429
sI3
S"KIC8462852-20180807at051722_-25-1X1-030-g'_cal.fts.mag.1"
p430
sI4
S"KIC8462852-20180807at045010_-25-1X1-030-g'_cal.fts.mag.1"
p431
sI5
S"KIC8462852-20180807at045113_-25-1X1-030-g'_cal.fts.mag.1"
p432
sI6
S"KIC8462852-20180807at051507_-25-1X1-030-g'_cal.fts.mag.1"
p433
sI7
S"KIC8462852-20180807at051611_-25-1X1-030-g'_cal.fts.mag.1"
p434
sI8
S"KIC8462852-20180807at051827_-25-1X1-030-g'_cal.fts.mag.1"
p435
sI9
S"KIC8462852-20180807at054429_-25-1X1-030-g'_cal.fts.mag.1"
p436
sI10
S"KIC8462852-20180807at054112_-25-1X1-030-g'_cal.fts.mag.1"
p437
sI11
S"KIC8462852-20180807at051357_-25-1X1-030-g'_cal.fts.mag.1"
p438
sI12
S"KIC8462852-20180807at044649_-25-1X1-030-g'_cal.fts.mag.1"
p439
sI13
S"KIC8462852-20180807at054222_-25-1X1-030-g'_cal.fts.mag.1"
p440
sI14
S"KIC8462852-20180807at044907_-25-1X1-030-g'_cal.fts.mag.1"
p441
ssg121
(dp442
I0
F0.006681121360047969
sI1
Fnan
sI2
Fnan
sI3
Fnan
sI4
Fnan
sI5
Fnan
sI6
Fnan
sI7
Fnan
sI8
Fnan
sI9
Fnan
sI10
Fnan
sI11
Fnan
sI12
Fnan
sI13
Fnan
sI14
Fnan
ssg123
(dp443
I0
F4794.66
sI1
F5070.996666666667
sI2
F4996.276666666667
sI3
F4826.5
sI4
F4715.0
sI5
F4885.23
sI6
F5030.806666666667
sI7
F4916.08
sI8
F4958.216666666666
sI9
F5126.833333333333
sI10
F5113.036666666667
sI11
F4706.036666666667
sI12
F4886.996666666667
sI13
F5170.116666666667
sI14
F4926.8099999999995
ssg125
(dp444
I0
F0.031832597847399724
sI1
Fnan
sI2
Fnan
sI3
Fnan
sI4
Fnan
sI5
Fnan
sI6
Fnan
sI7
Fnan
sI8
Fnan
sI9
Fnan
sI10
Fnan
sI11
Fnan
sI12
Fnan
sI13
Fnan
sI14
Fnan
ssg127
(dp445
I0
S"g'"
p446
sI1
S"g'"
p447
sI2
S"g'"
p448
sI3
S"g'"
p449
sI4
S"g'"
p450
sI5
S"g'"
p451
sI6
S"g'"
p452
sI7
S"g'"
p453
sI8
S"g'"
p454
sI9
S"g'"
p455
sI10
S"g'"
p456
sI11
S"g'"
p457
sI12
S"g'"
p458
sI13
S"g'"
p459
sI14
S"g'"
p460
ssg144
(dp461
I0
F0.0027330344581553037
sI1
Fnan
sI2
Fnan
sI3
Fnan
sI4
Fnan
sI5
Fnan
sI6
Fnan
sI7
Fnan
sI8
Fnan
sI9
Fnan
sI10
Fnan
sI11
Fnan
sI12
Fnan
sI13
Fnan
sI14
Fnan
ssg146
(dp462
I0
F-2.617708
sI1
F2.669231
sI2
F3.021778
sI3
F-3.572799
sI4
F-3.701761
sI5
F3.018305
sI6
F-3.428653
sI7
F-2.339647
sI8
F3.192126
sI9
F4.254617
sI10
F3.754542
sI11
F2.914545
sI12
F4.571835
sI13
F2.354769
sI14
F2.740998
ssg148
(dp463
I0
F1.5249687772910767
sI1
Fnan
sI2
Fnan
sI3
Fnan
sI4
Fnan
sI5
Fnan
sI6
Fnan
sI7
Fnan
sI8
Fnan
sI9
Fnan
sI10
Fnan
sI11
Fnan
sI12
Fnan
sI13
Fnan
sI14
Fnan
ssg150
(dp464
I0
F2458337.7195717595
sI1
Fnan
sI2
Fnan
sI3
Fnan
sI4
Fnan
sI5
Fnan
sI6
Fnan
sI7
Fnan
sI8
Fnan
sI9
Fnan
sI10
Fnan
sI11
Fnan
sI12
Fnan
sI13
Fnan
sI14
Fnan
ssg152
(dp465
I0
F0.0027330344581553037
sI1
Fnan
sI2
Fnan
sI3
Fnan
sI4
Fnan
sI5
Fnan
sI6
Fnan
sI7
Fnan
sI8
Fnan
sI9
Fnan
sI10
Fnan
sI11
Fnan
sI12
Fnan
sI13
Fnan
sI14
Fnan
ssg154
(dp466
I0
F5.725701
sI1
F7.413381
sI2
F8.067995
sI3
F8.612941
sI4
F7.770433
sI5
F6.248089
sI6
F6.208503
sI7
F8.011687
sI8
F8.289504
sI9
F6.787793
sI10
F8.445345
sI11
F8.946704
sI12
F6.875401
sI13
F6.710017
sI14
F6.16899
ssg156
(dp467
I0
F11.351
sI1
F11.29
sI2
F11.299
sI3
F11.337
sI4
F11.362
sI5
F11.331
sI6
F11.295
sI7
F11.314
sI8
F11.317
sI9
F11.274
sI10
F11.281
sI11
F11.374
sI12
F11.328
sI13
F11.268
sI14
F11.317
ssg158
(dp468
I0
F0.8574661599265833
sI1
Fnan
sI2
Fnan
sI3
Fnan
sI4
Fnan
sI5
Fnan
sI6
Fnan
sI7
Fnan
sI8
Fnan
sI9
Fnan
sI10
Fnan
sI11
Fnan
sI12
Fnan
sI13
Fnan
sI14
Fnan
sssS'V'
p469
(dp470
g3
(dp471
I0
F0.6873753618412665
sI1
Fnan
sI2
Fnan
sI3
Fnan
sI4
Fnan
sI5
Fnan
sI6
Fnan
sI7
Fnan
sI8
Fnan
sI9
Fnan
sI10
Fnan
sI11
Fnan
sI12
Fnan
sI13
Fnan
sI14
Fnan
ssg5
(dp472
I0
S'NoError'
p473
sI1
S'NoError'
p474
sI2
S'NoError'
p475
sI3
S'NoError'
p476
sI4
S'NoError'
p477
sI5
S'NoError'
p478
sI6
S'NoError'
p479
sI7
S'NoError'
p480
sI8
S'NoError'
p481
sI9
S'NoError'
p482
sI10
S'NoError'
p483
sI11
S'NoError'
p484
sI12
S'NoError'
p485
sI13
S'NoError'
p486
sI14
S'NoError'
p487
ssg22
(dp488
I0
F0.003
sI1
F0.003
sI2
F0.003
sI3
F0.003
sI4
F0.003
sI5
F0.003
sI6
F0.003
sI7
F0.003
sI8
F0.003
sI9
F0.003
sI10
F0.003
sI11
F0.003
sI12
F0.003
sI13
F0.003
sI14
F0.003
ssg24
(dp489
I0
F0.8850018994475382
sI1
F0.8821431317543351
sI2
F0.8839437915577099
sI3
F0.8893914818824883
sI4
F0.8823816687516826
sI5
F0.8875622546353141
sI6
F0.8887234380513475
sI7
F0.8831375092231997
sI8
F0.8891162470114372
sI9
F0.8837468924986112
sI10
F0.8872473297693901
sI11
F0.8857171594449883
sI12
F0.8803733532463973
sI13
F0.8800662555623717
sI14
F0.8819894114848128
ssg26
(dp490
I0
F0.003126853182044195
sI1
Fnan
sI2
Fnan
sI3
Fnan
sI4
Fnan
sI5
Fnan
sI6
Fnan
sI7
Fnan
sI8
Fnan
sI9
Fnan
sI10
Fnan
sI11
Fnan
sI12
Fnan
sI13
Fnan
sI14
Fnan
ssg28
(dp491
I0
F0.8847027882881083
sI1
Fnan
sI2
Fnan
sI3
Fnan
sI4
Fnan
sI5
Fnan
sI6
Fnan
sI7
Fnan
sI8
Fnan
sI9
Fnan
sI10
Fnan
sI11
Fnan
sI12
Fnan
sI13
Fnan
sI14
Fnan
ssg30
(dp492
I0
F11.696
sI1
F11.685
sI2
F11.717
sI3
F11.711
sI4
F11.71
sI5
F11.719
sI6
F11.712
sI7
F11.679
sI8
F11.709
sI9
F11.739
sI10
F11.721
sI11
F11.702
sI12
F11.702
sI13
F11.697
sI14
F11.69
ssg32
(dp493
I0
F6.818974
sI1
F6.448154
sI2
F7.287995
sI3
F7.138062
sI4
F6.271728
sI5
F6.167993
sI6
F6.959482
sI7
F6.549387
sI8
F6.873802
sI9
F6.580668
sI10
F7.57883
sI11
F5.450687
sI12
F7.706898
sI13
F7.135536
sI14
F6.736125
ssg34
(dp494
I0
F2458337.752650463
sI1
F2458337.7338657407
sI2
F2458337.75494213
sI3
F2458337.736122685
sI4
F2458337.716435185
sI5
F2458337.7149189813
sI6
F2458337.714178241
sI7
F2458337.751898148
sI8
F2458337.7353703706
sI9
F2458337.7171875
sI10
F2458337.7541435184
sI11
F2458337.715671296
sI12
F2458337.733113426
sI13
F2458337.753391204
sI14
F2458337.7346296296
ssg36
(dp495
I0
F1.0793038666666666
sI1
Fnan
sI2
Fnan
sI3
Fnan
sI4
Fnan
sI5
Fnan
sI6
Fnan
sI7
Fnan
sI8
Fnan
sI9
Fnan
sI10
Fnan
sI11
Fnan
sI12
Fnan
sI13
Fnan
sI14
Fnan
ssg38
(dp496
I0
F2.070661533333334
sI1
Fnan
sI2
Fnan
sI3
Fnan
sI4
Fnan
sI5
Fnan
sI6
Fnan
sI7
Fnan
sI8
Fnan
sI9
Fnan
sI10
Fnan
sI11
Fnan
sI12
Fnan
sI13
Fnan
sI14
Fnan
ssg40
(dp497
I0
F0.6876245312575271
sI1
F0.6868264220278231
sI2
F0.6835425786662088
sI3
F0.6858400327947648
sI4
F0.6858688562633282
sI5
F0.6876785237883503
sI6
F0.6897956665176243
sI7
F0.6907883864570639
sI8
F0.6850386863609035
sI9
F0.689163927350755
sI10
F0.6865101292544721
sI11
F0.6862977975809585
sI12
F0.6838029987578277
sI13
F0.6882870045569361
sI14
F0.689572764341754
ssg42
(dp498
I0
F0.0015046721066819604
sI1
Fnan
sI2
Fnan
sI3
Fnan
sI4
Fnan
sI5
Fnan
sI6
Fnan
sI7
Fnan
sI8
Fnan
sI9
Fnan
sI10
Fnan
sI11
Fnan
sI12
Fnan
sI13
Fnan
sI14
Fnan
ssg44
(dp499
I0
F0.6054459333333334
sI1
Fnan
sI2
Fnan
sI3
Fnan
sI4
Fnan
sI5
Fnan
sI6
Fnan
sI7
Fnan
sI8
Fnan
sI9
Fnan
sI10
Fnan
sI11
Fnan
sI12
Fnan
sI13
Fnan
sI14
Fnan
ssg46
(dp500
I0
g473
sI1
g474
sI2
g475
sI3
g476
sI4
g477
sI5
g478
sI6
g479
sI7
g480
sI8
g481
sI9
g482
sI10
g483
sI11
g484
sI12
g485
sI13
g486
sI14
g487
ssg48
(dp501
I0
F0.00325257778850473
sI1
Fnan
sI2
Fnan
sI3
Fnan
sI4
Fnan
sI5
Fnan
sI6
Fnan
sI7
Fnan
sI8
Fnan
sI9
Fnan
sI10
Fnan
sI11
Fnan
sI12
Fnan
sI13
Fnan
sI14
Fnan
ssg50
(dp502
I0
F0.014056010407346426
sI1
Fnan
sI2
Fnan
sI3
Fnan
sI4
Fnan
sI5
Fnan
sI6
Fnan
sI7
Fnan
sI8
Fnan
sI9
Fnan
sI10
Fnan
sI11
Fnan
sI12
Fnan
sI13
Fnan
sI14
Fnan
ssg52
(dp503
I0
F1.5251158933333335
sI1
Fnan
sI2
Fnan
sI3
Fnan
sI4
Fnan
sI5
Fnan
sI6
Fnan
sI7
Fnan
sI8
Fnan
sI9
Fnan
sI10
Fnan
sI11
Fnan
sI12
Fnan
sI13
Fnan
sI14
Fnan
ssg54
(dp504
I0
F1.5105262139146718
sI1
F1.5157501031869842
sI2
F1.5147944343307564
sI3
F1.5045957274170985
sI4
F1.5081689167936154
sI5
F1.516635871562263
sI6
F1.5100974602913881
sI7
F1.5058467694279163
sI8
F1.5072251334669415
sI9
F1.5188998625227412
sI10
F1.504672593930184
sI11
F1.5094541892410909
sI12
F1.5143912533465957
sI13
F1.507800714073405
sI14
F1.5100753649334282
ssg56
(dp505
I0
g473
sI1
g474
sI2
g475
sI3
g476
sI4
g477
sI5
g478
sI6
g479
sI7
g480
sI8
g481
sI9
g482
sI10
g483
sI11
g484
sI12
g485
sI13
g486
sI14
g487
ssg58
(dp506
I0
F8.140407
sI1
F7.063845
sI2
F8.776249
sI3
F8.34486
sI4
F6.952588
sI5
F6.305181
sI6
F6.676643
sI7
F8.620631
sI8
F6.987109
sI9
F7.878284
sI10
F8.117792
sI11
F7.222863
sI12
F7.387298
sI13
F8.329901
sI14
F7.987756
ssg60
(dp507
I0
F11.021266666666666
sI1
Fnan
sI2
Fnan
sI3
Fnan
sI4
Fnan
sI5
Fnan
sI6
Fnan
sI7
Fnan
sI8
Fnan
sI9
Fnan
sI10
Fnan
sI11
Fnan
sI12
Fnan
sI13
Fnan
sI14
Fnan
ssg62
(dp508
I0
F0.7137735896961278
sI1
Fnan
sI2
Fnan
sI3
Fnan
sI4
Fnan
sI5
Fnan
sI6
Fnan
sI7
Fnan
sI8
Fnan
sI9
Fnan
sI10
Fnan
sI11
Fnan
sI12
Fnan
sI13
Fnan
sI14
Fnan
ssg64
(dp509
I0
F2.291258
sI1
F2.146617
sI2
F4.162895
sI3
F2.9809
sI4
F2.905545
sI5
F2.107795
sI6
F2.007009
sI7
F2.725138
sI8
F-3.122321
sI9
F-2.804878
sI10
F2.459007
sI11
F2.417645
sI12
F3.958684
sI13
F2.956612
sI14
F3.868017
ssg66
(dp510
I0
F11.389000000000001
sI1
Fnan
sI2
Fnan
sI3
Fnan
sI4
Fnan
sI5
Fnan
sI6
Fnan
sI7
Fnan
sI8
Fnan
sI9
Fnan
sI10
Fnan
sI11
Fnan
sI12
Fnan
sI13
Fnan
sI14
Fnan
ssg68
(dp511
I0
g473
sI1
g474
sI2
g475
sI3
g476
sI4
g477
sI5
g478
sI6
g479
sI7
g480
sI8
g481
sI9
g482
sI10
g483
sI11
g484
sI12
g485
sI13
g486
sI14
g487
ssg70
(dp512
I0
F7047.13
sI1
F7113.02
sI2
F6949.3966666666665
sI3
F6993.22
sI4
F6965.1900000000005
sI5
F6912.846666666666
sI6
F6947.173333333334
sI7
F7117.546666666666
sI8
F7017.429999999999
sI9
F6752.52
sI10
F6914.4766666666665
sI11
F7030.16
sI12
F7026.576666666666
sI13
F7008.0599999999995
sI14
F7049.963333333333
ssg72
(dp513
I0
F1.011688
sI1
F1.026341
sI2
F1.010458
sI3
F1.024155
sI4
F1.047621
sI5
F1.049826
sI6
F1.0509469999999999
sI7
F1.0121129999999998
sI8
F1.024865
sI9
F1.046537
sI10
F1.010867
sI11
F1.0487229999999998
sI12
F1.027112
sI13
F1.0112729999999999
sI14
F1.0256
ssg74
(dp514
I0
F6040.83
sI1
F6107.316666666667
sI2
F5952.076666666666
sI3
F5972.083333333333
sI4
F6005.929999999999
sI5
F5877.786666666667
sI6
F5919.263333333333
sI7
F6138.206666666667
sI8
F5985.79
sI9
F5770.763333333333
sI10
F5926.0
sI11
F6022.96
sI12
F6056.37
sI13
F6068.093333333333
sI14
F6075.946666666667
ssg76
(dp515
I0
F9884.853333333333
sI1
F10019.363333333335
sI2
F9771.54
sI3
F9753.769999999999
sI4
F9781.32
sI5
F9699.366666666667
sI6
F9714.786666666665
sI7
F9980.566666666668
sI8
F9799.390000000001
sI9
F9510.806666666667
sI10
F9660.356666666667
sI11
F9851.543333333333
sI12
F9906.35
sI13
F9858.116666666667
sI14
F9910.556666666667
ssg78
(dp516
I0
F7.21588
sI1
F6.580023
sI2
F7.393188
sI3
F6.60623
sI4
F6.112996
sI5
F6.714025
sI6
F6.126735
sI7
F6.931695
sI8
F7.130186
sI9
F6.792571
sI10
F8.471835
sI11
F6.411893
sI12
F6.401355
sI13
F6.73726
sI14
F6.544783
ssg80
(dp517
I0
F11.547
sI1
F11.535
sI2
F11.563
sI3
F11.56
sI4
F11.554
sI5
F11.577
sI6
F11.569
sI7
F11.53
sI8
F11.557
sI9
F11.597
sI10
F11.568
sI11
F11.55
sI12
F11.544
sI13
F11.542
sI14
F11.541
ssg82
(dp518
I0
F0.002
sI1
F0.002
sI2
F0.002
sI3
F0.002
sI4
F0.002
sI5
F0.002
sI6
F0.002
sI7
F0.002
sI8
F0.002
sI9
F0.002
sI10
F0.002
sI11
F0.002
sI12
F0.002
sI13
F0.002
sI14
F0.002
ssg84
(dp519
I0
F0.68710922039842
sI1
Fnan
sI2
Fnan
sI3
Fnan
sI4
Fnan
sI5
Fnan
sI6
Fnan
sI7
Fnan
sI8
Fnan
sI9
Fnan
sI10
Fnan
sI11
Fnan
sI12
Fnan
sI13
Fnan
sI14
Fnan
ssg86
(dp520
I0
F11.5556
sI1
Fnan
sI2
Fnan
sI3
Fnan
sI4
Fnan
sI5
Fnan
sI6
Fnan
sI7
Fnan
sI8
Fnan
sI9
Fnan
sI10
Fnan
sI11
Fnan
sI12
Fnan
sI13
Fnan
sI14
Fnan
ssg88
(dp521
I0
F11.38
sI1
F11.37
sI2
F11.395
sI3
F11.388
sI4
F11.393
sI5
F11.401
sI6
F11.395
sI7
F11.369
sI8
F11.385
sI9
F11.426
sI10
F11.401
sI11
F11.383
sI12
F11.383
sI13
F11.386
sI14
F11.38
ssg90
(dp522
I0
F3.04761
sI1
F3.139948
sI2
F4.002179
sI3
F-3.739735
sI4
F2.869932
sI5
F3.050017
sI6
F-2.45631
sI7
F3.546386
sI8
F1.516831
sI9
F-2.9026
sI10
F-2.53548
sI11
F-3.119559
sI12
F3.111909
sI13
F1.858995
sI14
F4.799435
ssg92
(dp523
I0
F0.014464077012015873
sI1
Fnan
sI2
Fnan
sI3
Fnan
sI4
Fnan
sI5
Fnan
sI6
Fnan
sI7
Fnan
sI8
Fnan
sI9
Fnan
sI10
Fnan
sI11
Fnan
sI12
Fnan
sI13
Fnan
sI14
Fnan
ssg94
(dp524
I0
F0.71354074488222
sI1
F0.7129558740124695
sI2
F0.7119310102444419
sI3
F0.7132127425087533
sI4
F0.7172754203711698
sI5
F0.7076464223912367
sI6
F0.7105122486590213
sI7
F0.7179981261090405
sI8
F0.7118813188224646
sI9
F0.7096657961327305
sI10
F0.7150599804925138
sI11
F0.7135488500271794
sI12
F0.7153364706790203
sI13
F0.7195576630388274
sI14
F0.7164811770708288
ssg96
(dp525
I0
F30.0
sI1
F30.0
sI2
F30.0
sI3
F30.0
sI4
F30.0
sI5
F30.0
sI6
F30.0
sI7
F30.0
sI8
F30.0
sI9
F30.0
sI10
F30.0
sI11
F30.0
sI12
F30.0
sI13
F30.0
sI14
F30.0
ssg98
(dp526
I0
F0.002
sI1
F0.002
sI2
F0.003
sI3
F0.002
sI4
F0.002
sI5
F0.002
sI6
F0.002
sI7
F0.002
sI8
F0.002
sI9
F0.003
sI10
F0.002
sI11
F0.002
sI12
F0.002
sI13
F0.002
sI14
F0.002
ssg100
(dp527
I0
F0.002
sI1
F0.002
sI2
F0.002
sI3
F0.002
sI4
F0.002
sI5
F0.002
sI6
F0.002
sI7
F0.002
sI8
F0.002
sI9
F0.002
sI10
F0.002
sI11
F0.002
sI12
F0.002
sI13
F0.002
sI14
F0.002
ssg102
(dp528
I0
F-3.175244
sI1
F3.5701
sI2
F0.9633284
sI3
F3.176954
sI4
F2.692834
sI5
F3.568397
sI6
F3.688329
sI7
F-3.842448
sI8
F2.646114
sI9
F-1.513879
sI10
F2.321148
sI11
F3.324194
sI12
F1.207791
sI13
F1.753335
sI14
F2.495785
ssg104
(dp529
I0
S'KIC8462852-20180807at060349_-25-1X1-030-V_cal.fts.mag.1'
p530
sI1
S'KIC8462852-20180807at053646_-25-1X1-030-V_cal.fts.mag.1'
p531
sI2
S'KIC8462852-20180807at060707_-25-1X1-030-V_cal.fts.mag.1'
p532
sI3
S'KIC8462852-20180807at054001_-25-1X1-030-V_cal.fts.mag.1'
p533
sI4
S'KIC8462852-20180807at051140_-25-1X1-030-V_cal.fts.mag.1'
p534
sI5
S'KIC8462852-20180807at050929_-25-1X1-030-V_cal.fts.mag.1'
p535
sI6
S'KIC8462852-20180807at050817_-25-1X1-030-V_cal.fts.mag.1'
p536
sI7
S'KIC8462852-20180807at060237_-25-1X1-030-V_cal.fts.mag.1'
p537
sI8
S'KIC8462852-20180807at053856_-25-1X1-030-V_cal.fts.mag.1'
p538
sI9
S'KIC8462852-20180807at051245_-25-1X1-030-V_cal.fts.mag.1'
p539
sI10
S'KIC8462852-20180807at060558_-25-1X1-030-V_cal.fts.mag.1'
p540
sI11
S'KIC8462852-20180807at051034_-25-1X1-030-V_cal.fts.mag.1'
p541
sI12
S'KIC8462852-20180807at053534_-25-1X1-030-V_cal.fts.mag.1'
p542
sI13
S'KIC8462852-20180807at060453_-25-1X1-030-V_cal.fts.mag.1'
p543
sI14
S'KIC8462852-20180807at053752_-25-1X1-030-V_cal.fts.mag.1'
p544
ssg121
(dp545
I0
F0.004508486137069427
sI1
Fnan
sI2
Fnan
sI3
Fnan
sI4
Fnan
sI5
Fnan
sI6
Fnan
sI7
Fnan
sI8
Fnan
sI9
Fnan
sI10
Fnan
sI11
Fnan
sI12
Fnan
sI13
Fnan
sI14
Fnan
ssg123
(dp546
I0
F5265.556666666667
sI1
F5320.546666666666
sI2
F5165.990000000001
sI3
F5193.883333333333
sI4
F5201.73
sI5
F5155.296666666666
sI6
F5192.1433333333325
sI7
F5350.46
sI8
F5206.89
sI9
F5061.7
sI10
F5149.016666666666
sI11
F5239.806666666667
sI12
F5240.05
sI13
F5261.786666666667
sI14
F5295.1066666666675
ssg125
(dp547
I0
F0.017528751891025818
sI1
Fnan
sI2
Fnan
sI3
Fnan
sI4
Fnan
sI5
Fnan
sI6
Fnan
sI7
Fnan
sI8
Fnan
sI9
Fnan
sI10
Fnan
sI11
Fnan
sI12
Fnan
sI13
Fnan
sI14
Fnan
ssg127
(dp548
I0
g469
sI1
g469
sI2
g469
sI3
g469
sI4
g469
sI5
g469
sI6
g469
sI7
g469
sI8
g469
sI9
g469
sI10
g469
sI11
g469
sI12
g469
sI13
g469
sI14
g469
ssg144
(dp549
I0
F0.0021581528256569235
sI1
Fnan
sI2
Fnan
sI3
Fnan
sI4
Fnan
sI5
Fnan
sI6
Fnan
sI7
Fnan
sI8
Fnan
sI9
Fnan
sI10
Fnan
sI11
Fnan
sI12
Fnan
sI13
Fnan
sI14
Fnan
ssg146
(dp550
I0
F3.105139
sI1
F3.009547
sI2
F-3.779239
sI3
F-2.980223
sI4
F-2.197725
sI5
F2.83707
sI6
F3.380642
sI7
F3.234592
sI8
F-1.659839
sI9
F-2.459836
sI10
F-1.577493
sI11
F4.120258
sI12
F-3.071525
sI13
F3.354124
sI14
F3.766197
ssg148
(dp551
I0
F1.5105956405626053
sI1
Fnan
sI2
Fnan
sI3
Fnan
sI4
Fnan
sI5
Fnan
sI6
Fnan
sI7
Fnan
sI8
Fnan
sI9
Fnan
sI10
Fnan
sI11
Fnan
sI12
Fnan
sI13
Fnan
sI14
Fnan
ssg150
(dp552
I0
F2458337.7346296296
sI1
Fnan
sI2
Fnan
sI3
Fnan
sI4
Fnan
sI5
Fnan
sI6
Fnan
sI7
Fnan
sI8
Fnan
sI9
Fnan
sI10
Fnan
sI11
Fnan
sI12
Fnan
sI13
Fnan
sI14
Fnan
ssg152
(dp553
I0
F0.0021581528256569235
sI1
Fnan
sI2
Fnan
sI3
Fnan
sI4
Fnan
sI5
Fnan
sI6
Fnan
sI7
Fnan
sI8
Fnan
sI9
Fnan
sI10
Fnan
sI11
Fnan
sI12
Fnan
sI13
Fnan
sI14
Fnan
ssg154
(dp554
I0
F9.793053
sI1
F8.195947
sI2
F9.562851
sI3
F10.49022
sI4
F8.187731
sI5
F8.725101
sI6
F9.418808
sI7
F9.216597
sI8
F9.470326
sI9
F9.120776
sI10
F10.7893
sI11
F8.1783
sI12
F9.61167
sI13
F9.351234
sI14
F8.03182
ssg156
(dp555
I0
F11.013
sI1
F10.998
sI2
F11.025
sI3
F11.027
sI4
F11.024
sI5
F11.033
sI6
F11.031
sI7
F11.002
sI8
F11.022
sI9
F11.054
sI10
F11.038
sI11
F11.016
sI12
F11.01
sI13
F11.016
sI14
F11.01
ssg158
(dp556
I0
F0.68710922039842
sI1
Fnan
sI2
Fnan
sI3
Fnan
sI4
Fnan
sI5
Fnan
sI6
Fnan
sI7
Fnan
sI8
Fnan
sI9
Fnan
sI10
Fnan
sI11
Fnan
sI12
Fnan
sI13
Fnan
sI14
Fnan
sss.