(dp0
S'i'
p1
(dp2
S'sigmean'
p3
(dp4
I0
F0.44053450985958487
sI1
Fnan
sI2
Fnan
sI3
Fnan
sI4
Fnan
sI5
Fnan
sI6
Fnan
sI7
Fnan
sI8
Fnan
sI9
Fnan
ssS'ref3flag'
p5
(dp6
I0
S'NoError'
p7
sI1
S'NoError'
p8
sI2
S'NoError'
p9
sI3
S'NoError'
p10
sI4
S'NoError'
p11
sI5
S'NoError'
p12
sI6
S'NoError'
p13
sI7
S'NoError'
p14
sI8
S'NoError'
p15
sI9
S'NoError'
p16
ssS'tabbyerr'
p17
(dp18
I0
F0.003
sI1
F0.003
sI2
F0.003
sI3
F0.003
sI4
F0.003
sI5
F0.003
sI6
F0.003
sI7
F0.003
sI8
F0.003
sI9
F0.003
ssS'ref2rel'
p19
(dp20
I0
F0.9101231598119947
sI1
F0.9094460042664605
sI2
F0.9072607231355055
sI3
F0.9070743717265316
sI4
F0.9169549343956896
sI5
F0.9094307275891466
sI6
F0.9102382552646088
sI7
F0.899792026970818
sI8
F0.9093483298735611
sI9
F0.9133778571176401
ssS'ref2err'
p21
(dp22
I0
F0.004426423239763609
sI1
Fnan
sI2
Fnan
sI3
Fnan
sI4
Fnan
sI5
Fnan
sI6
Fnan
sI7
Fnan
sI8
Fnan
sI9
Fnan
ssS'ref2mean'
p23
(dp24
I0
F0.9093046390151956
sI1
Fnan
sI2
Fnan
sI3
Fnan
sI4
Fnan
sI5
Fnan
sI6
Fnan
sI7
Fnan
sI8
Fnan
sI9
Fnan
ssS'tabbymag'
p25
(dp26
I0
F11.843
sI1
F11.817
sI2
F11.854
sI3
F11.843
sI4
F11.855
sI5
F11.86
sI6
F11.81
sI7
F11.86
sI8
F11.814
sI9
F11.828
ssS'tabbybkg'
p27
(dp28
I0
F31.72242
sI1
F30.08849
sI2
F14.39364
sI3
F14.64755
sI4
F14.25721
sI5
F14.42547
sI6
F28.76352
sI7
F14.7026
sI8
F30.60697
sI9
F26.98877
ssS'JD'
p29
(dp30
I0
F2458380.696458333
sI1
F2458380.6971875
sI2
F2458380.6597800925
sI3
F2458380.6605092594
sI4
F2458380.66125
sI5
F2458380.659050926
sI6
F2458380.6986574074
sI7
F2458380.661979167
sI8
F2458380.6979282405
sI9
F2458380.6993981483
ssS'ref3rmsmean'
p31
(dp32
I0
F2.6777845
sI1
Fnan
sI2
Fnan
sI3
Fnan
sI4
Fnan
sI5
Fnan
sI6
Fnan
sI7
Fnan
sI8
Fnan
sI9
Fnan
ssS'ref1rmsmean'
p33
(dp34
I0
F-1.1150097
sI1
Fnan
sI2
Fnan
sI3
Fnan
sI4
Fnan
sI5
Fnan
sI6
Fnan
sI7
Fnan
sI8
Fnan
sI9
Fnan
ssS'relflux'
p35
(dp36
I0
F0.4383210471800145
sI1
F0.4419166625165942
sI2
F0.4401573040659153
sI3
F0.4385896637938741
sI4
F0.43698725647049186
sI5
F0.4403614604894554
sI6
F0.4419975166834885
sI7
F0.43962417867140524
sI8
F0.44134544312544227
sI9
F0.44249731221007405
ssS'sigerr'
p37
(dp38
I0
F0.0014237554871005653
sI1
Fnan
sI2
Fnan
sI3
Fnan
sI4
Fnan
sI5
Fnan
sI6
Fnan
sI7
Fnan
sI8
Fnan
sI9
Fnan
ssS'tabbyrmsmean'
p39
(dp40
I0
F0.8857274
sI1
Fnan
sI2
Fnan
sI3
Fnan
sI4
Fnan
sI5
Fnan
sI6
Fnan
sI7
Fnan
sI8
Fnan
sI9
Fnan
ssS'tabbyflag'
p41
(dp42
I0
g7
sI1
g8
sI2
g9
sI3
g10
sI4
g11
sI5
g12
sI6
g13
sI7
g14
sI8
g15
sI9
g16
ssS'ref1err'
p43
(dp44
I0
F0.002391913791150603
sI1
Fnan
sI2
Fnan
sI3
Fnan
sI4
Fnan
sI5
Fnan
sI6
Fnan
sI7
Fnan
sI8
Fnan
sI9
Fnan
ssS'ref2magmeanerr'
p45
(dp46
I0
F0.01817843655421306
sI1
Fnan
sI2
Fnan
sI3
Fnan
sI4
Fnan
sI5
Fnan
sI6
Fnan
sI7
Fnan
sI8
Fnan
sI9
Fnan
ssS'ref2rmsmean'
p47
(dp48
I0
F1.1914566
sI1
Fnan
sI2
Fnan
sI3
Fnan
sI4
Fnan
sI5
Fnan
sI6
Fnan
sI7
Fnan
sI8
Fnan
sI9
Fnan
ssS'ref3rel'
p49
(dp50
I0
F1.4972272800983948
sI1
F1.4968482473544735
sI2
F1.5051176981153884
sI3
F1.4981958314034272
sI4
F1.4947857775292417
sI5
F1.5031838770095414
sI6
F1.4992739172526535
sI7
F1.5215772362664075
sI8
F1.4991170859350929
sI9
F1.4983908190888429
ssS'ref1flag'
p51
(dp52
I0
g7
sI1
g8
sI2
g9
sI3
g10
sI4
g11
sI5
g12
sI6
g13
sI7
g14
sI8
g15
sI9
g16
ssS'ref2bkg'
p53
(dp54
I0
F32.95543
sI1
F32.05049
sI2
F17.51355
sI3
F16.89699
sI4
F17.63254
sI5
F17.84288
sI6
F31.83522
sI7
F17.82566
sI8
F32.82529
sI9
F29.54036
ssS'ref3magmean'
p55
(dp56
I0
F10.6739
sI1
Fnan
sI2
Fnan
sI3
Fnan
sI4
Fnan
sI5
Fnan
sI6
Fnan
sI7
Fnan
sI8
Fnan
sI9
Fnan
ssS'ref1mean'
p57
(dp58
I0
F0.6978124773979452
sI1
Fnan
sI2
Fnan
sI3
Fnan
sI4
Fnan
sI5
Fnan
sI6
Fnan
sI7
Fnan
sI8
Fnan
sI9
Fnan
ssS'ref1rms'
p59
(dp60
I0
F-2.465288
sI1
F-3.100818
sI2
F1.648235
sI3
F-2.69055
sI4
F-2.58024
sI5
F4.178042
sI6
F-2.143114
sI7
F3.187865
sI8
F-3.799574
sI9
F-3.384655
ssS'ref2magmean'
p61
(dp62
I0
F11.0173
sI1
Fnan
sI2
Fnan
sI3
Fnan
sI4
Fnan
sI5
Fnan
sI6
Fnan
sI7
Fnan
sI8
Fnan
sI9
Fnan
ssS'ref2flag'
p63
(dp64
I0
g7
sI1
g8
sI2
g9
sI3
g10
sI4
g11
sI5
g12
sI6
g13
sI7
g14
sI8
g15
sI9
g16
ssS'ref2'
p65
(dp66
I0
F9847.119999999999
sI1
F10000.836666666666
sI2
F9684.876666666667
sI3
F9819.113333333335
sI4
F9822.84
sI5
F9645.763333333334
sI6
F10069.196666666667
sI7
F9590.373333333333
sI8
F10038.826666666666
sI9
F9917.563333333334
ssS'airmass'
p67
(dp68
I0
F1.019189
sI1
F1.019796
sI2
F1.004643
sI3
F1.0046389999999998
sI4
F1.0046469999999998
sI5
F1.004659
sI6
F1.021048
sI7
F1.004667
sI8
F1.020413
sI9
F1.021702
ssS'ref1'
p69
(dp70
I0
F8159.266666666666
sI1
F8297.976666666666
sI2
F8023.28
sI3
F8172.553333333333
sI4
F8059.66
sI5
F7971.6466666666665
sI6
F8330.91
sI7
F7962.693333333333
sI8
F8318.943333333333
sI9
F8167.206666666667
ssS'ref3'
p71
(dp72
I0
F13479.826666666666
sI1
F13695.273333333334
sI2
F13326.43
sI3
F13477.519999999999
sI4
F13365.253333333332
sI5
F13241.103333333333
sI6
F13793.4
sI7
F13354.173333333334
sI8
F13760.223333333333
sI9
F13549.026666666667
ssS'ref1bkg'
p73
(dp74
I0
F33.11674
sI1
F33.04403
sI2
F17.04667
sI3
F16.67446
sI4
F17.31724
sI5
F16.4863
sI6
F30.5325
sI7
F16.58009
sI8
F32.99435
sI9
F29.24886
ssS'ref1mag'
p75
(dp76
I0
F11.221
sI1
F11.203
sI2
F11.239
sI3
F11.219
sI4
F11.234
sI5
F11.246
sI6
F11.198
sI7
F11.247
sI8
F11.2
sI9
F11.22
ssS'ref3magerr'
p77
(dp78
I0
F0.002
sI1
F0.002
sI2
F0.002
sI3
F0.002
sI4
F0.002
sI5
F0.002
sI6
F0.002
sI7
F0.002
sI8
F0.002
sI9
F0.002
ssS'tabbymagmean'
p79
(dp80
I0
F0.4401797845206755
sI1
Fnan
sI2
Fnan
sI3
Fnan
sI4
Fnan
sI5
Fnan
sI6
Fnan
sI7
Fnan
sI8
Fnan
sI9
Fnan
ssS'ref1magmean'
p81
(dp82
I0
F11.2227
sI1
Fnan
sI2
Fnan
sI3
Fnan
sI4
Fnan
sI5
Fnan
sI6
Fnan
sI7
Fnan
sI8
Fnan
sI9
Fnan
ssS'ref2mag'
p83
(dp84
I0
F11.017
sI1
F11.0
sI2
F11.035
sI3
F11.02
sI4
F11.019
sI5
F11.039
sI6
F10.993
sI7
F11.045
sI8
F10.996
sI9
F11.009
ssS'ref3rms'
p85
(dp86
I0
F4.757794
sI1
F-3.176663
sI2
F4.994874
sI3
F4.351642
sI4
F4.634668
sI5
F4.848324
sI6
F2.236299
sI7
F4.526778
sI8
F4.19232
sI9
F-4.588191
ssS'ref3magmeanerr'
p87
(dp88
I0
F0.01535107669043304
sI1
Fnan
sI2
Fnan
sI3
Fnan
sI4
Fnan
sI5
Fnan
sI6
Fnan
sI7
Fnan
sI8
Fnan
sI9
Fnan
ssS'ref1rel'
p89
(dp90
I0
F0.6995571930831355
sI1
F0.700366150112121
sI2
F0.6973337165266003
sI3
F0.7016081007413089
sI4
F0.6951550422141939
sI5
F0.6966131959231349
sI6
F0.6982400210985701
sI7
F0.694081556634227
sI8
F0.6990987735504848
sI9
F0.6960710240956753
ssS'exposure'
p91
(dp92
I0
F30.0
sI1
F30.0
sI2
F30.0
sI3
F30.0
sI4
F30.0
sI5
F30.0
sI6
F30.0
sI7
F30.0
sI8
F30.0
sI9
F30.0
ssS'ref1magerr'
p93
(dp94
I0
F0.002
sI1
F0.002
sI2
F0.002
sI3
F0.002
sI4
F0.002
sI5
F0.002
sI6
F0.002
sI7
F0.002
sI8
F0.002
sI9
F0.002
ssS'ref2magerr'
p95
(dp96
I0
F0.002
sI1
F0.002
sI2
F0.002
sI3
F0.002
sI4
F0.002
sI5
F0.002
sI6
F0.002
sI7
F0.002
sI8
F0.002
sI9
F0.002
ssS'ref2rms'
p97
(dp98
I0
F4.55207
sI1
F2.993175
sI2
F3.890239
sI3
F-2.89787
sI4
F-2.690464
sI5
F4.262854
sI6
F-3.170074
sI7
F2.901607
sI8
F-1.731247
sI9
F3.804276
ssS'name'
p99
(dp100
I0
S"KIC8462852-20180919at044252_-25-1X1-030-i'_cal.fts.mag.1"
p101
sI1
S"KIC8462852-20180919at044357_-25-1X1-030-i'_cal.fts.mag.1"
p102
sI2
S"KIC8462852-20180919at035005_-25-1X1-030-i'_cal.fts.mag.1"
p103
sI3
S"KIC8462852-20180919at035108_-25-1X1-030-i'_cal.fts.mag.1"
p104
sI4
S"KIC8462852-20180919at035212_-25-1X1-030-i'_cal.fts.mag.1"
p105
sI5
S"KIC8462852-20180919at034900_-25-1X1-030-i'_cal.fts.mag.1"
p106
sI6
S"KIC8462852-20180919at044604_-25-1X1-030-i'_cal.fts.mag.1"
p107
sI7
S"KIC8462852-20180919at035315_-25-1X1-030-i'_cal.fts.mag.1"
p108
sI8
S"KIC8462852-20180919at044501_-25-1X1-030-i'_cal.fts.mag.1"
p109
sI9
S"KIC8462852-20180919at044708_-25-1X1-030-i'_cal.fts.mag.1"
p110
ssS'ref3err'
p111
(dp112
I0
F0.007710369406643499
sI1
Fnan
sI2
Fnan
sI3
Fnan
sI4
Fnan
sI5
Fnan
sI6
Fnan
sI7
Fnan
sI8
Fnan
sI9
Fnan
ssS'tabby'
p113
(dp114
I0
F4600.3566666666675
sI1
F4712.906666666667
sI2
F4553.366666666667
sI3
F4600.6866666666665
sI4
F4551.623333333334
sI5
F4529.633333333333
sI6
F4743.15
sI7
F4529.1900000000005
sI8
F4725.043333333333
sI9
F4665.956666666667
ssS'ref1magmeanerr'
p115
(dp116
I0
F0.01845143776391325
sI1
Fnan
sI2
Fnan
sI3
Fnan
sI4
Fnan
sI5
Fnan
sI6
Fnan
sI7
Fnan
sI8
Fnan
sI9
Fnan
ssS'filter'
p117
(dp118
I0
S"i'"
p119
sI1
S"i'"
p120
sI2
S"i'"
p121
sI3
S"i'"
p122
sI4
S"i'"
p123
sI5
S"i'"
p124
sI6
S"i'"
p125
sI7
S"i'"
p126
sI8
S"i'"
p127
sI9
S"i'"
p128
ssS'tabbymagerr'
p129
(dp130
I0
F0.0018125618189987723
sI1
Fnan
sI2
Fnan
sI3
Fnan
sI4
Fnan
sI5
Fnan
sI6
Fnan
sI7
Fnan
sI8
Fnan
sI9
Fnan
ssS'tabbyrms'
p131
(dp132
I0
F-3.153265
sI1
F4.525142
sI2
F3.636619
sI3
F2.929339
sI4
F3.194475
sI5
F2.945884
sI6
F-3.482601
sI7
F4.6118
sI8
F-3.703187
sI9
F-2.646932
ssS'ref3mean'
p133
(dp134
I0
F1.5013717770053465
sI1
Fnan
sI2
Fnan
sI3
Fnan
sI4
Fnan
sI5
Fnan
sI6
Fnan
sI7
Fnan
sI8
Fnan
sI9
Fnan
ssS'median_JD'
p135
(dp136
I0
F2458380.67921875
sI1
Fnan
sI2
Fnan
sI3
Fnan
sI4
Fnan
sI5
Fnan
sI6
Fnan
sI7
Fnan
sI8
Fnan
sI9
Fnan
ssS'error'
p137
(dp138
I0
F0.0018125618189987723
sI1
Fnan
sI2
Fnan
sI3
Fnan
sI4
Fnan
sI5
Fnan
sI6
Fnan
sI7
Fnan
sI8
Fnan
sI9
Fnan
ssS'ref3bkg'
p139
(dp140
I0
F35.12209
sI1
F34.91176
sI2
F19.45759
sI3
F19.1081
sI4
F19.1434
sI5
F19.83006
sI6
F32.07845
sI7
F19.40825
sI8
F32.44842
sI9
F31.90068
ssS'ref3mag'
p141
(dp142
I0
F10.676
sI1
F10.659
sI2
F10.688
sI3
F10.676
sI4
F10.685
sI5
F10.695
sI6
F10.651
sI7
F10.686
sI8
F10.653
sI9
F10.67
ssS'mean'
p143
(dp144
I0
F0.4401797845206755
sI1
Fnan
sI2
Fnan
sI3
Fnan
sI4
Fnan
sI5
Fnan
sI6
Fnan
sI7
Fnan
sI8
Fnan
sI9
Fnan
sssS'r'
p145
(dp146
g3
(dp147
I0
F0.5499784976707107
sI1
Fnan
sI2
Fnan
sI3
Fnan
sI4
Fnan
sI5
Fnan
sI6
Fnan
sI7
Fnan
sI8
Fnan
sI9
Fnan
ssg5
(dp148
I0
S'NoError'
p149
sI1
S'NoError'
p150
sI2
S'NoError'
p151
sI3
S'NoError'
p152
sI4
S'NoError'
p153
sI5
S'NoError'
p154
sI6
S'NoError'
p155
sI7
S'NoError'
p156
sI8
S'NoError'
p157
sI9
S'NoError'
p158
ssg17
(dp159
I0
F0.002
sI1
F0.002
sI2
F0.002
sI3
F0.002
sI4
F0.002
sI5
F0.002
sI6
F0.002
sI7
F0.002
sI8
F0.002
sI9
F0.002
ssg19
(dp160
I0
F0.8955318019050046
sI1
F0.8957252031596974
sI2
F0.8938407812042168
sI3
F0.8950587809827122
sI4
F0.8948820099347038
sI5
F0.8947634925818096
sI6
F0.9000415713316728
sI7
F0.893850883136539
sI8
F0.893877833017325
sI9
F0.8921885003537883
ssg21
(dp161
I0
F0.002058095529347854
sI1
Fnan
sI2
Fnan
sI3
Fnan
sI4
Fnan
sI5
Fnan
sI6
Fnan
sI7
Fnan
sI8
Fnan
sI9
Fnan
ssg23
(dp162
I0
F0.8949760857607469
sI1
Fnan
sI2
Fnan
sI3
Fnan
sI4
Fnan
sI5
Fnan
sI6
Fnan
sI7
Fnan
sI8
Fnan
sI9
Fnan
ssg25
(dp163
I0
F11.11
sI1
F11.127
sI2
F11.134
sI3
F11.124
sI4
F11.125
sI5
F11.139
sI6
F11.104
sI7
F11.121
sI8
F11.121
sI9
F11.132
ssg27
(dp164
I0
F33.15589
sI1
F22.42682
sI2
F23.76763
sI3
F23.48304
sI4
F31.70728
sI5
F23.2907
sI6
F33.37946
sI7
F22.31329
sI8
F31.40444
sI9
F32.34281
ssg29
(dp165
I0
F2458380.6927662035
sI1
F2458380.656828704
sI2
F2458380.658298611
sI3
F2458380.6575694443
sI4
F2458380.694224537
sI5
F2458380.6553703705
sI6
F2458380.6934953704
sI7
F2458380.656099537
sI8
F2458380.694965278
sI9
F2458380.6956944442
ssg31
(dp166
I0
F3.7848099
sI1
Fnan
sI2
Fnan
sI3
Fnan
sI4
Fnan
sI5
Fnan
sI6
Fnan
sI7
Fnan
sI8
Fnan
sI9
Fnan
ssg33
(dp167
I0
F1.5445832
sI1
Fnan
sI2
Fnan
sI3
Fnan
sI4
Fnan
sI5
Fnan
sI6
Fnan
sI7
Fnan
sI8
Fnan
sI9
Fnan
ssg35
(dp168
I0
F0.5490306185576823
sI1
F0.5509763976427162
sI2
F0.5479483673500173
sI3
F0.548446275977774
sI4
F0.5484702971349442
sI5
F0.5523157839916489
sI6
F0.552345741275811
sI7
F0.550899821718589
sI8
F0.5501975997845782
sI9
F0.5491540732733453
ssg37
(dp169
I0
F0.0015258227097156415
sI1
Fnan
sI2
Fnan
sI3
Fnan
sI4
Fnan
sI5
Fnan
sI6
Fnan
sI7
Fnan
sI8
Fnan
sI9
Fnan
ssg39
(dp170
I0
F3.2788910000000002
sI1
Fnan
sI2
Fnan
sI3
Fnan
sI4
Fnan
sI5
Fnan
sI6
Fnan
sI7
Fnan
sI8
Fnan
sI9
Fnan
ssg41
(dp171
I0
g149
sI1
g150
sI2
g151
sI3
g152
sI4
g153
sI5
g154
sI6
g155
sI7
g156
sI8
g157
sI9
g158
ssg43
(dp172
I0
F0.002571183163100497
sI1
Fnan
sI2
Fnan
sI3
Fnan
sI4
Fnan
sI5
Fnan
sI6
Fnan
sI7
Fnan
sI8
Fnan
sI9
Fnan
ssg45
(dp173
I0
F0.011343622780125448
sI1
Fnan
sI2
Fnan
sI3
Fnan
sI4
Fnan
sI5
Fnan
sI6
Fnan
sI7
Fnan
sI8
Fnan
sI9
Fnan
ssg47
(dp174
I0
F3.2044907
sI1
Fnan
sI2
Fnan
sI3
Fnan
sI4
Fnan
sI5
Fnan
sI6
Fnan
sI7
Fnan
sI8
Fnan
sI9
Fnan
ssg49
(dp175
I0
F1.4871897779978946
sI1
F1.4964397856256908
sI2
F1.4983714814982154
sI3
F1.495626859068624
sI4
F1.4957217115447776
sI5
F1.4977669380513534
sI6
F1.4853067929942096
sI7
F1.490842691604703
sI8
F1.5038179138821852
sI9
F1.4962674424290543
ssg51
(dp176
I0
g149
sI1
g150
sI2
g151
sI3
g152
sI4
g153
sI5
g154
sI6
g155
sI7
g156
sI8
g157
sI9
g158
ssg53
(dp177
I0
F36.02682
sI1
F24.53732
sI2
F26.57263
sI3
F25.96671
sI4
F34.49051
sI5
F26.35662
sI6
F34.69845
sI7
F24.94207
sI8
F35.845
sI9
F36.19732
ssg55
(dp178
I0
F10.2036
sI1
Fnan
sI2
Fnan
sI3
Fnan
sI4
Fnan
sI5
Fnan
sI6
Fnan
sI7
Fnan
sI8
Fnan
sI9
Fnan
ssg57
(dp179
I0
F0.7142331225004719
sI1
Fnan
sI2
Fnan
sI3
Fnan
sI4
Fnan
sI5
Fnan
sI6
Fnan
sI7
Fnan
sI8
Fnan
sI9
Fnan
ssg59
(dp180
I0
F1.075212
sI1
F3.538565
sI2
F-2.384809
sI3
F-2.763629
sI4
F3.878605
sI5
F3.750543
sI6
F4.288301
sI7
F-3.209211
sI8
F3.156347
sI9
F4.115908
ssg61
(dp181
I0
F10.556300000000002
sI1
Fnan
sI2
Fnan
sI3
Fnan
sI4
Fnan
sI5
Fnan
sI6
Fnan
sI7
Fnan
sI8
Fnan
sI9
Fnan
ssg63
(dp182
I0
g149
sI1
g150
sI2
g151
sI3
g152
sI4
g153
sI5
g154
sI6
g155
sI7
g156
sI8
g157
sI9
g158
ssg65
(dp183
I0
F15272.736666666666
sI1
F14984.99
sI2
F14947.609999999999
sI3
F15080.706666666667
sI4
F15074.28
sI5
F14778.456666666667
sI6
F15310.536666666665
sI7
F15049.983333333334
sI8
F15072.79
sI9
F14924.936666666666
ssg67
(dp184
I0
F1.016335
sI1
F1.00478
sI2
F1.004688
sI3
F1.004728
sI4
F1.017432
sI5
F1.00492
sI6
F1.016877
sI7
F1.004845
sI8
F1.017998
sI9
F1.018581
ssg69
(dp185
I0
F13048.916666666666
sI1
F12725.42
sI2
F12718.640000000001
sI3
F12827.533333333333
sI4
F12825.116666666667
sI5
F12559.94
sI6
F12998.236666666666
sI7
F12865.606666666667
sI8
F12780.99
sI9
F12751.35
ssg71
(dp186
I0
F21059.836666666666
sI1
F20733.48
sI2
F20727.16
sI3
F20870.156666666666
sI4
F20864.866666666665
sI5
F20473.27333333333
sI6
F21023.606666666667
sI7
F20808.876666666667
sI8
F20943.506666666664
sI9
F20705.563333333335
ssg73
(dp187
I0
F36.89555
sI1
F25.00025
sI2
F26.16979
sI3
F24.7785
sI4
F34.04972
sI5
F25.63026
sI6
F35.06835
sI7
F24.85824
sI8
F34.77781
sI9
F34.39148
ssg75
(dp188
I0
F10.711
sI1
F10.738
sI2
F10.739
sI3
F10.73
sI4
F10.73
sI5
F10.753
sI6
F10.715
sI7
F10.726
sI8
F10.734
sI9
F10.736
ssg77
(dp189
I0
F0.001
sI1
F0.001
sI2
F0.001
sI3
F0.001
sI4
F0.001
sI5
F0.001
sI6
F0.001
sI7
F0.001
sI8
F0.001
sI9
F0.001
ssg79
(dp190
I0
F0.5499784976707107
sI1
Fnan
sI2
Fnan
sI3
Fnan
sI4
Fnan
sI5
Fnan
sI6
Fnan
sI7
Fnan
sI8
Fnan
sI9
Fnan
ssg81
(dp191
I0
F10.731200000000001
sI1
Fnan
sI2
Fnan
sI3
Fnan
sI4
Fnan
sI5
Fnan
sI6
Fnan
sI7
Fnan
sI8
Fnan
sI9
Fnan
ssg83
(dp192
I0
F10.54
sI1
F10.561
sI2
F10.564
sI3
F10.554
sI4
F10.554
sI5
F10.576
sI6
F10.538
sI7
F10.556
sI8
F10.555
sI9
F10.565
ssg85
(dp193
I0
F5.691902
sI1
F4.116101
sI2
F4.370816
sI3
F2.580942
sI4
F3.865398
sI5
F-1.888672
sI6
F4.92871
sI7
F3.641765
sI8
F5.325573
sI9
F5.215564
ssg87
(dp194
I0
F0.009167575712501262
sI1
Fnan
sI2
Fnan
sI3
Fnan
sI4
Fnan
sI5
Fnan
sI6
Fnan
sI7
Fnan
sI8
Fnan
sI9
Fnan
ssg89
(dp195
I0
F0.7183040159005161
sI1
F0.7125400388090531
sI2
F0.7130327679757993
sI3
F0.7136147588110772
sI4
F0.7137129206555081
sI5
F0.7125857369269538
sI6
F0.71548331537196
sI7
F0.7175691958231057
sI8
F0.7097337140622176
sI9
F0.7157547606685284
ssg91
(dp196
I0
F30.0
sI1
F30.0
sI2
F30.0
sI3
F30.0
sI4
F30.0
sI5
F30.0
sI6
F30.0
sI7
F30.0
sI8
F30.0
sI9
F30.0
ssg93
(dp197
I0
F0.002
sI1
F0.002
sI2
F0.002
sI3
F0.002
sI4
F0.002
sI5
F0.002
sI6
F0.002
sI7
F0.002
sI8
F0.002
sI9
F0.002
ssg95
(dp198
I0
F0.001
sI1
F0.001
sI2
F0.001
sI3
F0.001
sI4
F0.001
sI5
F0.002
sI6
F0.001
sI7
F0.001
sI8
F0.001
sI9
F0.001
ssg97
(dp199
I0
F4.292515
sI1
F4.700585
sI2
F3.035871
sI3
F1.888453
sI4
F3.785233
sI5
F4.334943
sI6
F2.005946
sI7
F2.407923
sI8
F3.273013
sI9
F2.320425
ssg99
(dp200
I0
S"KIC8462852-20180919at043733_-25-1X1-030-r'_cal.fts.mag.1"
p201
sI1
S"KIC8462852-20180919at034550_-25-1X1-030-r'_cal.fts.mag.1"
p202
sI2
S"KIC8462852-20180919at034757_-25-1X1-030-r'_cal.fts.mag.1"
p203
sI3
S"KIC8462852-20180919at034654_-25-1X1-030-r'_cal.fts.mag.1"
p204
sI4
S"KIC8462852-20180919at043941_-25-1X1-030-r'_cal.fts.mag.1"
p205
sI5
S"KIC8462852-20180919at034342_-25-1X1-030-r'_cal.fts.mag.1"
p206
sI6
S"KIC8462852-20180919at043838_-25-1X1-030-r'_cal.fts.mag.1"
p207
sI7
S"KIC8462852-20180919at034447_-25-1X1-030-r'_cal.fts.mag.1"
p208
sI8
S"KIC8462852-20180919at044045_-25-1X1-030-r'_cal.fts.mag.1"
p209
sI9
S"KIC8462852-20180919at044148_-25-1X1-030-r'_cal.fts.mag.1"
p210
ssg111
(dp211
I0
F0.005506674572015945
sI1
Fnan
sI2
Fnan
sI3
Fnan
sI4
Fnan
sI5
Fnan
sI6
Fnan
sI7
Fnan
sI8
Fnan
sI9
Fnan
ssg113
(dp212
I0
F9037.316666666668
sI1
F8897.146666666667
sI2
F8839.03
sI3
F8917.443333333333
sI4
F8915.25
sI5
F8802.380000000001
sI6
F9082.843333333332
sI7
F8947.433333333332
sI8
F8949.383333333333
sI9
F8856.363333333335
ssg115
(dp213
I0
F0.012081206709412574
sI1
Fnan
sI2
Fnan
sI3
Fnan
sI4
Fnan
sI5
Fnan
sI6
Fnan
sI7
Fnan
sI8
Fnan
sI9
Fnan
ssg117
(dp214
I0
S"r'"
p215
sI1
S"r'"
p216
sI2
S"r'"
p217
sI3
S"r'"
p218
sI4
S"r'"
p219
sI5
S"r'"
p220
sI6
S"r'"
p221
sI7
S"r'"
p222
sI8
S"r'"
p223
sI9
S"r'"
p224
ssg129
(dp225
I0
F0.0016083583561037852
sI1
Fnan
sI2
Fnan
sI3
Fnan
sI4
Fnan
sI5
Fnan
sI6
Fnan
sI7
Fnan
sI8
Fnan
sI9
Fnan
ssg131
(dp226
I0
F4.769906
sI1
F4.037688
sI2
F3.036512
sI3
F1.444302
sI4
F4.460041
sI5
F4.721978
sI6
F-3.402872
sI7
F4.535338
sI8
F5.3942
sI9
F3.791817
ssg133
(dp227
I0
F1.4947351394696708
sI1
Fnan
sI2
Fnan
sI3
Fnan
sI4
Fnan
sI5
Fnan
sI6
Fnan
sI7
Fnan
sI8
Fnan
sI9
Fnan
ssg135
(dp228
I0
F2458380.675532407
sI1
Fnan
sI2
Fnan
sI3
Fnan
sI4
Fnan
sI5
Fnan
sI6
Fnan
sI7
Fnan
sI8
Fnan
sI9
Fnan
ssg137
(dp229
I0
F0.0016083583561037852
sI1
Fnan
sI2
Fnan
sI3
Fnan
sI4
Fnan
sI5
Fnan
sI6
Fnan
sI7
Fnan
sI8
Fnan
sI9
Fnan
ssg139
(dp230
I0
F40.39017
sI1
F28.74749
sI2
F29.11009
sI3
F28.52944
sI4
F38.89137
sI5
F31.51034
sI6
F37.76056
sI7
F28.74647
sI8
F38.70967
sI9
F39.25463
ssg141
(dp231
I0
F10.191
sI1
F10.208
sI2
F10.209
sI3
F10.201
sI4
F10.201
sI5
F10.222
sI6
F10.193
sI7
F10.204
sI8
F10.197
sI9
F10.21
ssg143
(dp232
I0
F0.5499784976707107
sI1
Fnan
sI2
Fnan
sI3
Fnan
sI4
Fnan
sI5
Fnan
sI6
Fnan
sI7
Fnan
sI8
Fnan
sI9
Fnan
sssS'z'
p233
(dp234
g3
(dp235
I0
F0.37015292583159654
sI1
Fnan
sI2
Fnan
sI3
Fnan
sI4
Fnan
sI5
Fnan
sI6
Fnan
sI7
Fnan
sI8
Fnan
sI9
Fnan
sI10
Fnan
sI11
Fnan
sI12
Fnan
sI13
Fnan
sI14
Fnan
ssg5
(dp236
I0
S'NoError'
p237
sI1
S'NoError'
p238
sI2
S'NoError'
p239
sI3
S'NoError'
p240
sI4
S'NoError'
p241
sI5
S'NoError'
p242
sI6
S'NoError'
p243
sI7
S'NoError'
p244
sI8
S'NoError'
p245
sI9
S'NoError'
p246
sI10
S'NoError'
p247
sI11
S'NoError'
p248
sI12
S'NoError'
p249
sI13
S'NoError'
p250
sI14
S'NoError'
p251
ssg17
(dp252
I0
F0.007
sI1
F0.007
sI2
F0.007
sI3
F0.007
sI4
F0.007
sI5
F0.007
sI6
F0.007
sI7
F0.007
sI8
F0.007
sI9
F0.007
sI10
F0.007
sI11
F0.007
sI12
F0.006
sI13
F0.007
sI14
F0.007
ssg19
(dp253
I0
F0.9204212296924609
sI1
F0.909569447082654
sI2
F0.9151562325246744
sI3
F0.9169966437298854
sI4
F0.922566802262792
sI5
F0.907700808534151
sI6
F0.9121795694679586
sI7
F0.9219499342475286
sI8
F0.9183598432941081
sI9
F0.916759685116229
sI10
F0.9129259045180584
sI11
F0.9137104688144516
sI12
F0.9123183401530797
sI13
F0.9117154690019874
sI14
F0.9229818266542403
ssg21
(dp254
I0
F0.004815392740458977
sI1
Fnan
sI2
Fnan
sI3
Fnan
sI4
Fnan
sI5
Fnan
sI6
Fnan
sI7
Fnan
sI8
Fnan
sI9
Fnan
sI10
Fnan
sI11
Fnan
sI12
Fnan
sI13
Fnan
sI14
Fnan
ssg23
(dp255
I0
F0.9156874803396173
sI1
Fnan
sI2
Fnan
sI3
Fnan
sI4
Fnan
sI5
Fnan
sI6
Fnan
sI7
Fnan
sI8
Fnan
sI9
Fnan
sI10
Fnan
sI11
Fnan
sI12
Fnan
sI13
Fnan
sI14
Fnan
ssg25
(dp256
I0
F13.191
sI1
F13.191
sI2
F13.198
sI3
F13.182
sI4
F13.216
sI5
F13.203
sI6
F13.239
sI7
F13.192
sI8
F13.19
sI9
F13.217
sI10
F13.206
sI11
F13.211
sI12
F13.19
sI13
F13.216
sI14
F13.229
ssg27
(dp257
I0
F13.15235
sI1
F27.43253
sI2
F7.887811
sI3
F15.21886
sI4
F12.72858
sI5
F8.332172
sI6
F8.083458
sI7
F8.098747
sI8
F24.78333
sI9
F25.96919
sI10
F12.04183
sI11
F13.03176
sI12
F7.728232
sI13
F26.33942
sI14
F27.38812
ssg29
(dp258
I0
F2458380.7008912037
sI1
F2458380.6836342593
sI2
F2458380.6627314813
sI3
F2458380.700162037
sI4
F2458380.702372685
sI5
F2458380.664212963
sI6
F2458380.663472222
sI7
F2458380.6656712964
sI8
F2458380.681412037
sI9
F2458380.684375
sI10
F2458380.703101852
sI11
F2458380.7016319446
sI12
F2458380.6649421295
sI13
F2458380.682152778
sI14
F2458380.6828935184
ssg31
(dp259
I0
F1.0059505333333334
sI1
Fnan
sI2
Fnan
sI3
Fnan
sI4
Fnan
sI5
Fnan
sI6
Fnan
sI7
Fnan
sI8
Fnan
sI9
Fnan
sI10
Fnan
sI11
Fnan
sI12
Fnan
sI13
Fnan
sI14
Fnan
ssg33
(dp260
I0
F1.8536283466666668
sI1
Fnan
sI2
Fnan
sI3
Fnan
sI4
Fnan
sI5
Fnan
sI6
Fnan
sI7
Fnan
sI8
Fnan
sI9
Fnan
sI10
Fnan
sI11
Fnan
sI12
Fnan
sI13
Fnan
sI14
Fnan
ssg35
(dp261
I0
F0.3721211431130669
sI1
F0.3732253198814224
sI2
F0.3691475881316637
sI3
F0.3693193786334201
sI4
F0.3689930277119496
sI5
F0.3671819803608271
sI6
F0.3733948695381859
sI7
F0.3691776937623988
sI8
F0.37447556284320416
sI9
F0.36516027445043464
sI10
F0.3684733787170775
sI11
F0.3677877612018612
sI12
F0.3711426827602286
sI13
F0.3737770654711268
sI14
F0.36824614652752663
ssg37
(dp262
I0
F0.0021981958155473645
sI1
Fnan
sI2
Fnan
sI3
Fnan
sI4
Fnan
sI5
Fnan
sI6
Fnan
sI7
Fnan
sI8
Fnan
sI9
Fnan
sI10
Fnan
sI11
Fnan
sI12
Fnan
sI13
Fnan
sI14
Fnan
ssg39
(dp263
I0
F1.6687638666666667
sI1
Fnan
sI2
Fnan
sI3
Fnan
sI4
Fnan
sI5
Fnan
sI6
Fnan
sI7
Fnan
sI8
Fnan
sI9
Fnan
sI10
Fnan
sI11
Fnan
sI12
Fnan
sI13
Fnan
sI14
Fnan
ssg41
(dp264
I0
g237
sI1
g238
sI2
g239
sI3
g240
sI4
g241
sI5
g242
sI6
g243
sI7
g244
sI8
g245
sI9
g246
sI10
g247
sI11
g248
sI12
g249
sI13
g250
sI14
g251
ssg43
(dp265
I0
F0.0030285379542080654
sI1
Fnan
sI2
Fnan
sI3
Fnan
sI4
Fnan
sI5
Fnan
sI6
Fnan
sI7
Fnan
sI8
Fnan
sI9
Fnan
sI10
Fnan
sI11
Fnan
sI12
Fnan
sI13
Fnan
sI14
Fnan
ssg45
(dp266
I0
F0.017802354044446227
sI1
Fnan
sI2
Fnan
sI3
Fnan
sI4
Fnan
sI5
Fnan
sI6
Fnan
sI7
Fnan
sI8
Fnan
sI9
Fnan
sI10
Fnan
sI11
Fnan
sI12
Fnan
sI13
Fnan
sI14
Fnan
ssg47
(dp267
I0
F0.5396390666666666
sI1
Fnan
sI2
Fnan
sI3
Fnan
sI4
Fnan
sI5
Fnan
sI6
Fnan
sI7
Fnan
sI8
Fnan
sI9
Fnan
sI10
Fnan
sI11
Fnan
sI12
Fnan
sI13
Fnan
sI14
Fnan
ssg49
(dp268
I0
F1.4902708662420527
sI1
F1.508712362407841
sI2
F1.5102638352813782
sI3
F1.5056579796811058
sI4
F1.502871485550659
sI5
F1.517872042950313
sI6
F1.5071096720903712
sI7
F1.4962795898514178
sI8
F1.493898785873954
sI9
F1.508489337137195
sI10
F1.5082084232979271
sI11
F1.514181128632966
sI12
F1.5044232069386883
sI13
F1.5096595832209836
sI14
F1.5002596156126498
ssg51
(dp269
I0
g237
sI1
g238
sI2
g239
sI3
g240
sI4
g241
sI5
g242
sI6
g243
sI7
g244
sI8
g245
sI9
g246
sI10
g247
sI11
g248
sI12
g249
sI13
g250
sI14
g251
ssg53
(dp270
I0
F14.35167
sI1
F27.75899
sI2
F8.809582
sI3
F14.96099
sI4
F13.55307
sI5
F9.611041
sI6
F9.80511
sI7
F8.702862
sI8
F25.70889
sI9
F25.7269
sI10
F13.21407
sI11
F13.74819
sI12
F9.226619
sI13
F28.24954
sI14
F28.75329
ssg55
(dp271
I0
F11.850333333333333
sI1
Fnan
sI2
Fnan
sI3
Fnan
sI4
Fnan
sI5
Fnan
sI6
Fnan
sI7
Fnan
sI8
Fnan
sI9
Fnan
sI10
Fnan
sI11
Fnan
sI12
Fnan
sI13
Fnan
sI14
Fnan
ssg57
(dp272
I0
F0.6900838914274122
sI1
Fnan
sI2
Fnan
sI3
Fnan
sI4
Fnan
sI5
Fnan
sI6
Fnan
sI7
Fnan
sI8
Fnan
sI9
Fnan
sI10
Fnan
sI11
Fnan
sI12
Fnan
sI13
Fnan
sI14
Fnan
ssg59
(dp273
I0
F3.69708
sI1
F3.133381
sI2
F3.350409
sI3
F4.973621
sI4
F3.074536
sI5
F-2.796728
sI6
F4.437467
sI7
F-0.7120808
sI8
F3.566143
sI9
F2.275305
sI10
F3.047227
sI11
F-3.229114
sI12
F-2.717241
sI13
F2.656891
sI14
F3.047529
ssg61
(dp274
I0
F12.190066666666668
sI1
Fnan
sI2
Fnan
sI3
Fnan
sI4
Fnan
sI5
Fnan
sI6
Fnan
sI7
Fnan
sI8
Fnan
sI9
Fnan
sI10
Fnan
sI11
Fnan
sI12
Fnan
sI13
Fnan
sI14
Fnan
ssg63
(dp275
I0
g237
sI1
g238
sI2
g239
sI3
g240
sI4
g241
sI5
g242
sI6
g243
sI7
g244
sI8
g245
sI9
g246
sI10
g247
sI11
g248
sI12
g249
sI13
g250
sI14
g251
ssg65
(dp276
I0
F3378.733333333333
sI1
F3341.5333333333333
sI2
F3368.4933333333333
sI3
F3424.116666666667
sI4
F3332.4179999999997
sI5
F3353.9166666666665
sI6
F3201.190666666667
sI7
F3404.6600000000003
sI8
F3355.2766666666666
sI9
F3351.0666666666666
sI10
F3346.5333333333333
sI11
F3338.9033333333336
sI12
F3368.516666666667
sI13
F3265.2413333333334
sI14
F3301.1983333333333
ssg67
(dp277
I0
F1.023044
sI1
F1.0106469999999999
sI2
F1.0047
sI3
F1.022374
sI4
F1.024427
sI5
F1.0048
sI6
F1.004744
sI7
F1.004947
sI8
F1.009551
sI9
F1.011036
sI10
F1.025141
sI11
F1.023726
sI12
F1.004868
sI13
F1.0099049999999998
sI14
F1.010268
ssg69
(dp278
I0
F2764.311
sI1
F2751.322333333333
sI2
F2745.0433333333335
sI3
F2789.9683333333332
sI4
F2695.0080000000003
sI5
F2754.226666666667
sI6
F2626.949666666667
sI7
F2767.8673333333336
sI8
F2748.1533333333336
sI9
F2726.6163333333334
sI10
F2740.8923333333337
sI11
F2720.746
sI12
F2768.3203333333336
sI13
F2677.2683333333334
sI14
F2672.3766666666666
ssg71
(dp279
I0
F4577.4
sI1
F4596.183333333333
sI2
F4616.526666666667
sI3
F4678.1433333333325
sI4
F4529.223333333333
sI5
F4635.6900000000005
sI6
F4391.823333333334
sI7
F4617.913333333333
sI8
F4558.953333333334
sI9
F4584.0599999999995
sI10
F4590.553333333333
sI11
F4587.703333333334
sI12
F4616.2
sI13
F4485.583333333333
sI14
F4480.956666666667
ssg73
(dp280
I0
F13.58932
sI1
F27.42219
sI2
F8.04676
sI3
F15.16407
sI4
F13.61506
sI5
F9.263984
sI6
F8.553731
sI7
F8.681645
sI8
F24.53882
sI9
F27.12638
sI10
F12.44512
sI11
F14.54932
sI12
F8.044905
sI13
F26.7634
sI14
F27.59509
ssg75
(dp281
I0
F12.396
sI1
F12.401
sI2
F12.404
sI3
F12.386
sI4
F12.424
sI5
F12.4
sI6
F12.451
sI7
F12.395
sI8
F12.402
sI9
F12.411
sI10
F12.405
sI11
F12.413
sI12
F12.394
sI13
F12.431
sI14
F12.433
ssg77
(dp282
I0
F0.003
sI1
F0.003
sI2
F0.003
sI3
F0.003
sI4
F0.003
sI5
F0.003
sI6
F0.003
sI7
F0.003
sI8
F0.003
sI9
F0.003
sI10
F0.003
sI11
F0.003
sI12
F0.003
sI13
F0.003
sI14
F0.003
ssg79
(dp283
I0
F0.3701082582069597
sI1
Fnan
sI2
Fnan
sI3
Fnan
sI4
Fnan
sI5
Fnan
sI6
Fnan
sI7
Fnan
sI8
Fnan
sI9
Fnan
sI10
Fnan
sI11
Fnan
sI12
Fnan
sI13
Fnan
sI14
Fnan
ssg81
(dp284
I0
F12.409733333333334
sI1
Fnan
sI2
Fnan
sI3
Fnan
sI4
Fnan
sI5
Fnan
sI6
Fnan
sI7
Fnan
sI8
Fnan
sI9
Fnan
sI10
Fnan
sI11
Fnan
sI12
Fnan
sI13
Fnan
sI14
Fnan
ssg83
(dp285
I0
F12.178
sI1
F12.19
sI2
F12.181
sI3
F12.164
sI4
F12.193
sI5
F12.186
sI6
F12.237
sI7
F12.17
sI8
F12.186
sI9
F12.187
sI10
F12.189
sI11
F12.191
sI12
F12.181
sI13
F12.215
sI14
F12.203
ssg85
(dp286
I0
F-2.883409
sI1
F4.3722
sI2
F-2.402075
sI3
F3.562964
sI4
F-3.839672
sI5
F-4.546094
sI6
F2.438436
sI7
F3.778965
sI8
F2.133521
sI9
F5.127448
sI10
F1.831634
sI11
F3.231612
sI12
F3.99223
sI13
F-3.458784
sI14
F1.750282
ssg87
(dp287
I0
F0.01720326657796072
sI1
Fnan
sI2
Fnan
sI3
Fnan
sI4
Fnan
sI5
Fnan
sI6
Fnan
sI7
Fnan
sI8
Fnan
sI9
Fnan
sI10
Fnan
sI11
Fnan
sI12
Fnan
sI13
Fnan
sI14
Fnan
ssg89
(dp288
I0
F0.6948880528229794
sI1
F0.6932276494289918
sI2
F0.68754826746416
sI3
F0.6886889172486031
sI4
F0.6856095020700513
sI5
F0.689452380217299
sI6
F0.6919385810869482
sI7
F0.6900198273870563
sI8
F0.6944840706760692
sI9
F0.6872269209733263
sI10
F0.690654505473461
sI11
F0.6864844225061417
sI12
F0.6934047753729521
sI13
F0.6908344462615033
sI14
F0.6867960524216407
ssg91
(dp289
I0
F30.0
sI1
F30.0
sI2
F30.0
sI3
F30.0
sI4
F30.0
sI5
F30.0
sI6
F30.0
sI7
F30.0
sI8
F30.0
sI9
F30.0
sI10
F30.0
sI11
F30.0
sI12
F30.0
sI13
F30.0
sI14
F30.0
ssg93
(dp290
I0
F0.004
sI1
F0.004
sI2
F0.004
sI3
F0.004
sI4
F0.004
sI5
F0.004
sI6
F0.004
sI7
F0.004
sI8
F0.004
sI9
F0.004
sI10
F0.004
sI11
F0.004
sI12
F0.004
sI13
F0.004
sI14
F0.004
ssg95
(dp291
I0
F0.004
sI1
F0.004
sI2
F0.003
sI3
F0.003
sI4
F0.004
sI5
F0.004
sI6
F0.004
sI7
F0.003
sI8
F0.004
sI9
F0.004
sI10
F0.004
sI11
F0.004
sI12
F0.004
sI13
F0.004
sI14
F0.004
ssg97
(dp292
I0
F3.13075
sI1
F-2.563665
sI2
F-2.035655
sI3
F4.066385
sI4
F-2.607578
sI5
F-3.592151
sI6
F1.646974
sI7
F3.07966
sI8
F3.840995
sI9
F-2.532291
sI10
F2.772988
sI11
F3.311414
sI12
F1.529083
sI13
F1.996968
sI14
F-3.949291
ssg99
(dp293
I0
S"KIC8462852-20180919at044917_-25-1X1-030-z'_cal.fts.mag.1"
p294
sI1
S"KIC8462852-20180919at042425_-25-1X1-030-z'_cal.fts.mag.1"
p295
sI2
S"KIC8462852-20180919at035418_-25-1X1-030-z'_cal.fts.mag.1"
p296
sI3
S"KIC8462852-20180919at044812_-25-1X1-030-z'_cal.fts.mag.1"
p297
sI4
S"KIC8462852-20180919at045125_-25-1X1-030-z'_cal.fts.mag.1"
p298
sI5
S"KIC8462852-20180919at035628_-25-1X1-030-z'_cal.fts.mag.1"
p299
sI6
S"KIC8462852-20180919at035524_-25-1X1-030-z'_cal.fts.mag.1"
p300
sI7
S"KIC8462852-20180919at035834_-25-1X1-030-z'_cal.fts.mag.1"
p301
sI8
S"KIC8462852-20180919at042113_-25-1X1-030-z'_cal.fts.mag.1"
p302
sI9
S"KIC8462852-20180919at042530_-25-1X1-030-z'_cal.fts.mag.1"
p303
sI10
S"KIC8462852-20180919at045228_-25-1X1-030-z'_cal.fts.mag.1"
p304
sI11
S"KIC8462852-20180919at045021_-25-1X1-030-z'_cal.fts.mag.1"
p305
sI12
S"KIC8462852-20180919at035731_-25-1X1-030-z'_cal.fts.mag.1"
p306
sI13
S"KIC8462852-20180919at042218_-25-1X1-030-z'_cal.fts.mag.1"
p307
sI14
S"KIC8462852-20180919at042322_-25-1X1-030-z'_cal.fts.mag.1"
p308
ssg111
(dp309
I0
F0.007480625458730787
sI1
Fnan
sI2
Fnan
sI3
Fnan
sI4
Fnan
sI5
Fnan
sI6
Fnan
sI7
Fnan
sI8
Fnan
sI9
Fnan
sI10
Fnan
sI11
Fnan
sI12
Fnan
sI13
Fnan
sI14
Fnan
ssg113
(dp310
I0
F1329.768
sI1
F1329.8066666666666
sI2
F1320.3256666666666
sI3
F1340.9036666666666
sI4
F1298.4433333333334
sI5
F1314.9806666666666
sI6
F1272.0273333333332
sI7
F1327.8633333333335
sI8
F1330.934
sI9
F1297.7483333333332
sI10
F1311.517
sI11
F1305.3220000000001
sI12
F1330.3036666666667
sI13
F1299.2606666666666
sI14
F1283.2803333333334
ssg115
(dp311
I0
F0.017758163783240164
sI1
Fnan
sI2
Fnan
sI3
Fnan
sI4
Fnan
sI5
Fnan
sI6
Fnan
sI7
Fnan
sI8
Fnan
sI9
Fnan
sI10
Fnan
sI11
Fnan
sI12
Fnan
sI13
Fnan
sI14
Fnan
ssg117
(dp312
I0
S"z'"
p313
sI1
S"z'"
p314
sI2
S"z'"
p315
sI3
S"z'"
p316
sI4
S"z'"
p317
sI5
S"z'"
p318
sI6
S"z'"
p319
sI7
S"z'"
p320
sI8
S"z'"
p321
sI9
S"z'"
p322
sI10
S"z'"
p323
sI11
S"z'"
p324
sI12
S"z'"
p325
sI13
S"z'"
p326
sI14
S"z'"
p327
ssg129
(dp328
I0
F0.0027567925664612816
sI1
Fnan
sI2
Fnan
sI3
Fnan
sI4
Fnan
sI5
Fnan
sI6
Fnan
sI7
Fnan
sI8
Fnan
sI9
Fnan
sI10
Fnan
sI11
Fnan
sI12
Fnan
sI13
Fnan
sI14
Fnan
ssg131
(dp329
I0
F4.316955
sI1
F-3.9867
sI2
F2.7486
sI3
F3.361019
sI4
F-1.158758
sI5
F-3.44297
sI6
F3.286272
sI7
F2.449974
sI8
F4.567885
sI9
F-1.882841
sI10
F1.802156
sI11
F2.888442
sI12
F3.582526
sI13
F3.376649
sI14
F3.122249
ssg133
(dp330
I0
F1.5052105276513004
sI1
Fnan
sI2
Fnan
sI3
Fnan
sI4
Fnan
sI5
Fnan
sI6
Fnan
sI7
Fnan
sI8
Fnan
sI9
Fnan
sI10
Fnan
sI11
Fnan
sI12
Fnan
sI13
Fnan
sI14
Fnan
ssg135
(dp331
I0
F2458380.6828935184
sI1
Fnan
sI2
Fnan
sI3
Fnan
sI4
Fnan
sI5
Fnan
sI6
Fnan
sI7
Fnan
sI8
Fnan
sI9
Fnan
sI10
Fnan
sI11
Fnan
sI12
Fnan
sI13
Fnan
sI14
Fnan
ssg137
(dp332
I0
F0.0027567925664612816
sI1
Fnan
sI2
Fnan
sI3
Fnan
sI4
Fnan
sI5
Fnan
sI6
Fnan
sI7
Fnan
sI8
Fnan
sI9
Fnan
sI10
Fnan
sI11
Fnan
sI12
Fnan
sI13
Fnan
sI14
Fnan
ssg139
(dp333
I0
F16.03227
sI1
F28.41768
sI2
F9.583758
sI3
F16.33094
sI4
F15.40972
sI5
F10.41091
sI6
F10.74993
sI7
F8.32692
sI8
F24.6378
sI9
F25.51726
sI10
F13.77851
sI11
F15.1584
sI12
F9.238202
sI13
F27.86069
sI14
F29.11912
ssg141
(dp334
I0
F11.848
sI1
F11.844
sI2
F11.839
sI3
F11.825
sI4
F11.86
sI5
F11.835
sI6
F11.893
sI7
F11.839
sI8
F11.853
sI9
F11.847
sI10
F11.845
sI11
F11.846
sI12
F11.839
sI13
F11.87
sI14
F11.872
ssg143
(dp335
I0
F0.3701082582069597
sI1
Fnan
sI2
Fnan
sI3
Fnan
sI4
Fnan
sI5
Fnan
sI6
Fnan
sI7
Fnan
sI8
Fnan
sI9
Fnan
sI10
Fnan
sI11
Fnan
sI12
Fnan
sI13
Fnan
sI14
Fnan
sssS'g'
p336
(dp337
g3
(dp338
I0
F0.8725165125195214
sI1
Fnan
sI2
Fnan
sI3
Fnan
sI4
Fnan
sI5
Fnan
sI6
Fnan
sI7
Fnan
sI8
Fnan
sI9
Fnan
ssg5
(dp339
I0
S'NoError'
p340
sI1
S'NoError'
p341
sI2
S'NoError'
p342
sI3
S'NoError'
p343
sI4
S'NoError'
p344
sI5
S'NoError'
p345
sI6
S'NoError'
p346
sI7
S'NoError'
p347
sI8
S'NoError'
p348
sI9
S'NoError'
p349
ssg17
(dp350
I0
F0.002
sI1
F0.002
sI2
F0.002
sI3
F0.002
sI4
F0.002
sI5
F0.002
sI6
F0.002
sI7
F0.002
sI8
F0.002
sI9
F0.002
ssg19
(dp351
I0
F0.8781460693054601
sI1
F0.8752739859456015
sI2
F0.8803942520108272
sI3
F0.8768984324589818
sI4
F0.8783769941722414
sI5
F0.8800360684380131
sI6
F0.8737509670056891
sI7
F0.8779435334730613
sI8
F0.8766452400541612
sI9
F0.8821299215625211
ssg21
(dp352
I0
F0.0024859340625818667
sI1
Fnan
sI2
Fnan
sI3
Fnan
sI4
Fnan
sI5
Fnan
sI6
Fnan
sI7
Fnan
sI8
Fnan
sI9
Fnan
ssg23
(dp353
I0
F0.8779595464426558
sI1
Fnan
sI2
Fnan
sI3
Fnan
sI4
Fnan
sI5
Fnan
sI6
Fnan
sI7
Fnan
sI8
Fnan
sI9
Fnan
ssg25
(dp354
I0
F11.327
sI1
F11.301
sI2
F11.3
sI3
F11.319
sI4
F11.36
sI5
F11.381
sI6
F11.352
sI7
F11.306
sI8
F11.31
sI9
F11.358
ssg27
(dp355
I0
F23.84587
sI1
F29.90372
sI2
F29.64709
sI3
F32.26392
sI4
F23.91762
sI5
F25.38754
sI6
F24.89273
sI7
F30.37109
sI8
F27.91508
sI9
F24.92803
ssg29
(dp356
I0
F2458380.6524074073
sI1
F2458380.689803241
sI2
F2458380.691273148
sI3
F2458380.6920023146
sI4
F2458380.6546180556
sI5
F2458380.653136574
sI6
F2458380.6538773146
sI7
F2458380.6890625
sI8
F2458380.6905324073
sI9
F2458380.651666667
ssg31
(dp357
I0
F2.6252843999999995
sI1
Fnan
sI2
Fnan
sI3
Fnan
sI4
Fnan
sI5
Fnan
sI6
Fnan
sI7
Fnan
sI8
Fnan
sI9
Fnan
ssg33
(dp358
I0
F1.5827094000000002
sI1
Fnan
sI2
Fnan
sI3
Fnan
sI4
Fnan
sI5
Fnan
sI6
Fnan
sI7
Fnan
sI8
Fnan
sI9
Fnan
ssg35
(dp359
I0
F0.8746204974451206
sI1
F0.8743529099869125
sI2
F0.8779802314945252
sI3
F0.8803140776627019
sI4
F0.8672201950621566
sI5
F0.8649530043888604
sI6
F0.8704451621241716
sI7
F0.8653003194594894
sI8
F0.8734713282139644
sI9
F0.8765073993573125
ssg37
(dp360
I0
F0.0050686662425088735
sI1
Fnan
sI2
Fnan
sI3
Fnan
sI4
Fnan
sI5
Fnan
sI6
Fnan
sI7
Fnan
sI8
Fnan
sI9
Fnan
ssg39
(dp361
I0
F0.2637239999999999
sI1
Fnan
sI2
Fnan
sI3
Fnan
sI4
Fnan
sI5
Fnan
sI6
Fnan
sI7
Fnan
sI8
Fnan
sI9
Fnan
ssg41
(dp362
I0
g340
sI1
g341
sI2
g342
sI3
g343
sI4
g344
sI5
g345
sI6
g346
sI7
g347
sI8
g348
sI9
g349
ssg43
(dp363
I0
F0.003579069329922257
sI1
Fnan
sI2
Fnan
sI3
Fnan
sI4
Fnan
sI5
Fnan
sI6
Fnan
sI7
Fnan
sI8
Fnan
sI9
Fnan
ssg45
(dp364
I0
F0.02598204508245384
sI1
Fnan
sI2
Fnan
sI3
Fnan
sI4
Fnan
sI5
Fnan
sI6
Fnan
sI7
Fnan
sI8
Fnan
sI9
Fnan
ssg47
(dp365
I0
F-0.1276865599999999
sI1
Fnan
sI2
Fnan
sI3
Fnan
sI4
Fnan
sI5
Fnan
sI6
Fnan
sI7
Fnan
sI8
Fnan
sI9
Fnan
ssg49
(dp366
I0
F1.5144121119150398
sI1
F1.512625956735322
sI2
F1.4985256220844099
sI3
F1.5184961164795172
sI4
F1.5157740375785684
sI5
F1.507180992816373
sI6
F1.5170059208212212
sI7
F1.5183885276258557
sI8
F1.5056042573883561
sI9
F1.5125480998007401
ssg51
(dp367
I0
g340
sI1
g341
sI2
g342
sI3
g343
sI4
g344
sI5
g345
sI6
g346
sI7
g347
sI8
g348
sI9
g349
ssg53
(dp368
I0
F23.90307
sI1
F30.11678
sI2
F30.41392
sI3
F31.72017
sI4
F24.94118
sI5
F24.71847
sI6
F24.89303
sI7
F29.22193
sI8
F28.4087
sI9
F25.30798
ssg55
(dp369
I0
F10.905800000000001
sI1
Fnan
sI2
Fnan
sI3
Fnan
sI4
Fnan
sI5
Fnan
sI6
Fnan
sI7
Fnan
sI8
Fnan
sI9
Fnan
ssg57
(dp370
I0
F0.7188952699629105
sI1
Fnan
sI2
Fnan
sI3
Fnan
sI4
Fnan
sI5
Fnan
sI6
Fnan
sI7
Fnan
sI8
Fnan
sI9
Fnan
ssg59
(dp371
I0
F-4.064997
sI1
F4.597882
sI2
F3.153024
sI3
F3.145749
sI4
F2.530492
sI5
F4.785708
sI6
F3.056695
sI7
F-2.840131
sI8
F-2.506018
sI9
F3.96869
ssg61
(dp372
I0
F11.279799999999998
sI1
Fnan
sI2
Fnan
sI3
Fnan
sI4
Fnan
sI5
Fnan
sI6
Fnan
sI7
Fnan
sI8
Fnan
sI9
Fnan
ssg63
(dp373
I0
g340
sI1
g341
sI2
g342
sI3
g343
sI4
g344
sI5
g345
sI6
g346
sI7
g347
sI8
g348
sI9
g349
ssg65
(dp374
I0
F7744.9
sI1
F7915.2733333333335
sI2
F7919.376666666666
sI3
F7739.533333333334
sI4
F7574.833333333333
sI5
F7459.6066666666675
sI6
F7574.873333333334
sI7
F7975.52
sI8
F7865.233333333334
sI9
F7534.633333333333
ssg67
(dp375
I0
F1.005348
sI1
F1.014282
sI2
F1.0152729999999999
sI3
F1.015795
sI4
F1.00501
sI5
F1.005223
sI6
F1.00511
sI7
F1.013803
sI8
F1.0147709999999999
sI9
F1.005484
ssg69
(dp376
I0
F6700.820000000001
sI1
F6889.413333333333
sI2
F6892.52
sI3
F6693.676666666666
sI4
F6545.626666666666
sI5
F6461.866666666667
sI6
F6592.6433333333325
sI7
F6885.92
sI8
F6859.286666666667
sI9
F6482.23
ssg71
(dp377
I0
F10938.386666666665
sI1
F11196.976666666666
sI2
F11098.003333333332
sI3
F10958.386666666665
sI4
F10701.713333333335
sI5
F10491.09
sI6
F10746.103333333333
sI7
F11282.72
sI8
F11084.65
sI9
F10600.59
ssg73
(dp378
I0
F23.61018
sI1
F28.22223
sI2
F29.48761
sI3
F31.19635
sI4
F22.76065
sI5
F23.22096
sI6
F24.77315
sI7
F30.43005
sI8
F28.69946
sI9
F23.34398
ssg75
(dp379
I0
F11.435
sI1
F11.405
sI2
F11.404
sI3
F11.436
sI4
F11.46
sI5
F11.474
sI6
F11.452
sI7
F11.405
sI8
F11.409
sI9
F11.471
ssg77
(dp380
I0
F0.002
sI1
F0.002
sI2
F0.002
sI3
F0.002
sI4
F0.002
sI5
F0.002
sI6
F0.002
sI7
F0.002
sI8
F0.002
sI9
F0.002
ssg79
(dp381
I0
F0.8725165125195214
sI1
Fnan
sI2
Fnan
sI3
Fnan
sI4
Fnan
sI5
Fnan
sI6
Fnan
sI7
Fnan
sI8
Fnan
sI9
Fnan
ssg81
(dp382
I0
F11.435100000000002
sI1
Fnan
sI2
Fnan
sI3
Fnan
sI4
Fnan
sI5
Fnan
sI6
Fnan
sI7
Fnan
sI8
Fnan
sI9
Fnan
ssg83
(dp383
I0
F11.277
sI1
F11.254
sI2
F11.253
sI3
F11.278
sI4
F11.302
sI5
F11.318
sI6
F11.302
sI7
F11.246
sI8
F11.261
sI9
F11.307
ssg85
(dp384
I0
F4.72685
sI1
F2.456752
sI2
F4.29678
sI3
F4.217375
sI4
F-3.853206
sI5
F4.05829
sI6
F2.431541
sI7
F3.358657
sI8
F1.563829
sI9
F2.995976
ssg87
(dp385
I0
F0.026477663542440164
sI1
Fnan
sI2
Fnan
sI3
Fnan
sI4
Fnan
sI5
Fnan
sI6
Fnan
sI7
Fnan
sI8
Fnan
sI9
Fnan
ssg89
(dp386
I0
F0.7173063411755177
sI1
F0.7209421531565706
sI2
F0.7248653600022718
sI3
F0.7159808862875301
sI4
F0.7162870301537634
sI5
F0.7199572012896807
sI6
F0.7196825205643148
sI7
F0.7151141537336746
sI8
F0.7239397252225828
sI9
F0.7148773280431984
ssg91
(dp387
I0
F30.0
sI1
F30.0
sI2
F30.0
sI3
F30.0
sI4
F30.0
sI5
F30.0
sI6
F30.0
sI7
F30.0
sI8
F30.0
sI9
F30.0
ssg93
(dp388
I0
F0.002
sI1
F0.002
sI2
F0.002
sI3
F0.002
sI4
F0.002
sI5
F0.002
sI6
F0.002
sI7
F0.002
sI8
F0.002
sI9
F0.002
ssg95
(dp389
I0
F0.002
sI1
F0.002
sI2
F0.002
sI3
F0.002
sI4
F0.002
sI5
F0.002
sI6
F0.002
sI7
F0.002
sI8
F0.002
sI9
F0.002
ssg97
(dp390
I0
F3.094523
sI1
F-3.031364
sI2
F3.869429
sI3
F4.325554
sI4
F-2.129338
sI5
F-3.170856
sI6
F-0.5620356
sI7
F3.690516
sI8
F-3.129926
sI9
F-4.233368
ssg99
(dp391
I0
S"KIC8462852-20180919at033928_-25-1X1-030-g'_cal.fts.mag.1"
p392
sI1
S"KIC8462852-20180919at043319_-25-1X1-030-g'_cal.fts.mag.1"
p393
sI2
S"KIC8462852-20180919at043526_-25-1X1-030-g'_cal.fts.mag.1"
p394
sI3
S"KIC8462852-20180919at043629_-25-1X1-030-g'_cal.fts.mag.1"
p395
sI4
S"KIC8462852-20180919at034239_-25-1X1-030-g'_cal.fts.mag.1"
p396
sI5
S"KIC8462852-20180919at034031_-25-1X1-030-g'_cal.fts.mag.1"
p397
sI6
S"KIC8462852-20180919at034134_-25-1X1-030-g'_cal.fts.mag.1"
p398
sI7
S"KIC8462852-20180919at043210_-25-1X1-030-g'_cal.fts.mag.1"
p399
sI8
S"KIC8462852-20180919at043422_-25-1X1-030-g'_cal.fts.mag.1"
p400
sI9
S"KIC8462852-20180919at033813_-25-1X1-030-g'_cal.fts.mag.1"
p401
ssg111
(dp402
I0
F0.0064505090777583025
sI1
Fnan
sI2
Fnan
sI3
Fnan
sI4
Fnan
sI5
Fnan
sI6
Fnan
sI7
Fnan
sI8
Fnan
sI9
Fnan
ssg113
(dp403
I0
F7400.486666666667
sI1
F7578.21
sI2
F7582.793333333333
sI3
F7450.86
sI4
F7175.429999999999
sI5
F7038.573333333334
sI6
F7228.6466666666665
sI7
F7540.85
sI8
F7514.5233333333335
sI9
F7192.46
ssg115
(dp404
I0
F0.028223118970880177
sI1
Fnan
sI2
Fnan
sI3
Fnan
sI4
Fnan
sI5
Fnan
sI6
Fnan
sI7
Fnan
sI8
Fnan
sI9
Fnan
ssg117
(dp405
I0
S"g'"
p406
sI1
S"g'"
p407
sI2
S"g'"
p408
sI3
S"g'"
p409
sI4
S"g'"
p410
sI5
S"g'"
p411
sI6
S"g'"
p412
sI7
S"g'"
p413
sI8
S"g'"
p414
sI9
S"g'"
p415
ssg129
(dp416
I0
F0.005342843341845137
sI1
Fnan
sI2
Fnan
sI3
Fnan
sI4
Fnan
sI5
Fnan
sI6
Fnan
sI7
Fnan
sI8
Fnan
sI9
Fnan
ssg131
(dp417
I0
F3.024827
sI1
F3.480766
sI2
F-1.413519
sI3
F-3.426371
sI4
F2.18403
sI5
F-2.559764
sI6
F-3.54189
sI7
F4.272302
sI8
F3.442802
sI9
F-2.825943
ssg133
(dp418
I0
F1.5120561643245405
sI1
Fnan
sI2
Fnan
sI3
Fnan
sI4
Fnan
sI5
Fnan
sI6
Fnan
sI7
Fnan
sI8
Fnan
sI9
Fnan
ssg135
(dp419
I0
F2458380.6718402775
sI1
Fnan
sI2
Fnan
sI3
Fnan
sI4
Fnan
sI5
Fnan
sI6
Fnan
sI7
Fnan
sI8
Fnan
sI9
Fnan
ssg137
(dp420
I0
F0.005342843341845137
sI1
Fnan
sI2
Fnan
sI3
Fnan
sI4
Fnan
sI5
Fnan
sI6
Fnan
sI7
Fnan
sI8
Fnan
sI9
Fnan
ssg139
(dp421
I0
F25.09616
sI1
F30.75031
sI2
F30.79713
sI3
F33.24344
sI4
F27.91102
sI5
F28.37735
sI6
F27.25921
sI7
F31.29029
sI8
F31.56732
sI9
F27.93244
ssg141
(dp422
I0
F10.903
sI1
F10.877
sI2
F10.887
sI3
F10.901
sI4
F10.926
sI5
F10.948
sI6
F10.922
sI7
F10.869
sI8
F10.888
sI9
F10.937
ssg143
(dp423
I0
F0.8725165125195214
sI1
Fnan
sI2
Fnan
sI3
Fnan
sI4
Fnan
sI5
Fnan
sI6
Fnan
sI7
Fnan
sI8
Fnan
sI9
Fnan
sssS'V'
p424
(dp425
g3
(dp426
I0
F0.6919602733463562
sI1
Fnan
sI2
Fnan
sI3
Fnan
sI4
Fnan
sI5
Fnan
sI6
Fnan
sI7
Fnan
sI8
Fnan
sI9
Fnan
sI10
Fnan
sI11
Fnan
sI12
Fnan
sI13
Fnan
sI14
Fnan
ssg5
(dp427
I0
S'NoError'
p428
sI1
S'NoError'
p429
sI2
S'NoError'
p430
sI3
S'NoError'
p431
sI4
S'NoError'
p432
sI5
S'NoError'
p433
sI6
S'NoError'
p434
sI7
S'NoError'
p435
sI8
S'NoError'
p436
sI9
S'NoError'
p437
sI10
S'NoError'
p438
sI11
S'NoError'
p439
sI12
S'NoError'
p440
sI13
S'NoError'
p441
sI14
S'NoError'
p442
ssg17
(dp443
I0
F0.002
sI1
F0.002
sI2
F0.002
sI3
F0.002
sI4
F0.002
sI5
F0.002
sI6
F0.002
sI7
F0.002
sI8
F0.002
sI9
F0.002
sI10
F0.002
sI11
F0.002
sI12
F0.002
sI13
F0.002
sI14
F0.002
ssg19
(dp444
I0
F0.8853605392716122
sI1
F0.8896433653025279
sI2
F0.8844977950084497
sI3
F0.8820113447352057
sI4
F0.8871952774780627
sI5
F0.8844200284739654
sI6
F0.8787076368955428
sI7
F0.8854704564398236
sI8
F0.8897638130733174
sI9
F0.8755398763956325
sI10
F0.8837268655845152
sI11
F0.8826413925914737
sI12
F0.8893735010426411
sI13
F0.8869271191249298
sI14
F0.8878862606016938
ssg21
(dp445
I0
F0.004019283974177421
sI1
Fnan
sI2
Fnan
sI3
Fnan
sI4
Fnan
sI5
Fnan
sI6
Fnan
sI7
Fnan
sI8
Fnan
sI9
Fnan
sI10
Fnan
sI11
Fnan
sI12
Fnan
sI13
Fnan
sI14
Fnan
ssg23
(dp446
I0
F0.8848776848012929
sI1
Fnan
sI2
Fnan
sI3
Fnan
sI4
Fnan
sI5
Fnan
sI6
Fnan
sI7
Fnan
sI8
Fnan
sI9
Fnan
sI10
Fnan
sI11
Fnan
sI12
Fnan
sI13
Fnan
sI14
Fnan
ssg25
(dp447
I0
F11.36
sI1
F11.351
sI2
F11.399
sI3
F11.39
sI4
F11.343
sI5
F11.349
sI6
F11.355
sI7
F11.374
sI8
F11.383
sI9
F11.374
sI10
F11.338
sI11
F11.33
sI12
F11.371
sI13
F11.336
sI14
F11.367
ssg27
(dp448
I0
F20.66505
sI1
F22.91512
sI2
F21.1926
sI3
F22.17918
sI4
F30.91271
sI5
F30.46342
sI6
F19.77677
sI7
F22.14443
sI8
F32.26702
sI9
F33.89499
sI10
F20.36734
sI11
F29.61969
sI12
F22.88964
sI13
F20.45431
sI14
F22.61349
ssg29
(dp449
I0
F2458380.6664814814
sI1
F2458380.703935185
sI2
F2458380.6679629628
sI3
F2458380.6694444446
sI4
F2458380.6874421295
sI5
F2458380.686689815
sI6
F2458380.6672106483
sI7
F2458380.6687037037
sI8
F2458380.6859375
sI9
F2458380.685185185
sI10
F2458380.706898148
sI11
F2458380.6881828704
sI12
F2458380.704664352
sI13
F2458380.7061574073
sI14
F2458380.705416667
ssg31
(dp450
I0
F1.2958932666666667
sI1
Fnan
sI2
Fnan
sI3
Fnan
sI4
Fnan
sI5
Fnan
sI6
Fnan
sI7
Fnan
sI8
Fnan
sI9
Fnan
sI10
Fnan
sI11
Fnan
sI12
Fnan
sI13
Fnan
sI14
Fnan
ssg33
(dp451
I0
F2.2633560000000004
sI1
Fnan
sI2
Fnan
sI3
Fnan
sI4
Fnan
sI5
Fnan
sI6
Fnan
sI7
Fnan
sI8
Fnan
sI9
Fnan
sI10
Fnan
sI11
Fnan
sI12
Fnan
sI13
Fnan
sI14
Fnan
ssg35
(dp452
I0
F0.6927765116479063
sI1
F0.6937639214816194
sI2
F0.69255614713284
sI3
F0.69499510590027
sI4
F0.7004988854346378
sI5
F0.6925463206035992
sI6
F0.6997170774824907
sI7
F0.694113444446585
sI8
F0.6903985166374305
sI9
F0.6914048608537582
sI10
F0.6895865816028061
sI11
F0.6961600918154166
sI12
F0.6891337666920118
sI13
F0.6890750583561289
sI14
F0.6889732263322593
ssg37
(dp453
I0
F0.002315844636206939
sI1
Fnan
sI2
Fnan
sI3
Fnan
sI4
Fnan
sI5
Fnan
sI6
Fnan
sI7
Fnan
sI8
Fnan
sI9
Fnan
sI10
Fnan
sI11
Fnan
sI12
Fnan
sI13
Fnan
sI14
Fnan
ssg39
(dp454
I0
F2.1634091133333326
sI1
Fnan
sI2
Fnan
sI3
Fnan
sI4
Fnan
sI5
Fnan
sI6
Fnan
sI7
Fnan
sI8
Fnan
sI9
Fnan
sI10
Fnan
sI11
Fnan
sI12
Fnan
sI13
Fnan
sI14
Fnan
ssg41
(dp455
I0
g428
sI1
g429
sI2
g430
sI3
g431
sI4
g432
sI5
g433
sI6
g434
sI7
g435
sI8
g436
sI9
g437
sI10
g438
sI11
g439
sI12
g440
sI13
g441
sI14
g442
ssg43
(dp456
I0
F0.0031444469376736674
sI1
Fnan
sI2
Fnan
sI3
Fnan
sI4
Fnan
sI5
Fnan
sI6
Fnan
sI7
Fnan
sI8
Fnan
sI9
Fnan
sI10
Fnan
sI11
Fnan
sI12
Fnan
sI13
Fnan
sI14
Fnan
ssg45
(dp457
I0
F0.02087650764444493
sI1
Fnan
sI2
Fnan
sI3
Fnan
sI4
Fnan
sI5
Fnan
sI6
Fnan
sI7
Fnan
sI8
Fnan
sI9
Fnan
sI10
Fnan
sI11
Fnan
sI12
Fnan
sI13
Fnan
sI14
Fnan
ssg47
(dp458
I0
F1.3428359733333333
sI1
Fnan
sI2
Fnan
sI3
Fnan
sI4
Fnan
sI5
Fnan
sI6
Fnan
sI7
Fnan
sI8
Fnan
sI9
Fnan
sI10
Fnan
sI11
Fnan
sI12
Fnan
sI13
Fnan
sI14
Fnan
ssg49
(dp459
I0
F1.504445057377277
sI1
F1.503423190490746
sI2
F1.5108631464315163
sI3
F1.5035750030211295
sI4
F1.5007298107948464
sI5
F1.5100084324457574
sI6
F1.5087870750815067
sI7
F1.4978773027296388
sI8
F1.4888693391327272
sI9
F1.5072337693311002
sI10
F1.5031721713087949
sI11
F1.5082763732191384
sI12
F1.5011216633417168
sI13
F1.4995325323341697
sI14
F1.502697081512486
ssg51
(dp460
I0
g428
sI1
g429
sI2
g430
sI3
g431
sI4
g432
sI5
g433
sI6
g434
sI7
g435
sI8
g436
sI9
g437
sI10
g438
sI11
g439
sI12
g440
sI13
g441
sI14
g442
ssg53
(dp461
I0
F21.27208
sI1
F22.66402
sI2
F24.00104
sI3
F23.34237
sI4
F31.67157
sI5
F32.52462
sI6
F22.03442
sI7
F22.45181
sI8
F32.94074
sI9
F34.96816
sI10
F22.56844
sI11
F30.3069
sI12
F24.75404
sI13
F21.52888
sI14
F23.11502
ssg55
(dp462
I0
F10.688866666666664
sI1
Fnan
sI2
Fnan
sI3
Fnan
sI4
Fnan
sI5
Fnan
sI6
Fnan
sI7
Fnan
sI8
Fnan
sI9
Fnan
sI10
Fnan
sI11
Fnan
sI12
Fnan
sI13
Fnan
sI14
Fnan
ssg57
(dp463
I0
F0.7179528133350638
sI1
Fnan
sI2
Fnan
sI3
Fnan
sI4
Fnan
sI5
Fnan
sI6
Fnan
sI7
Fnan
sI8
Fnan
sI9
Fnan
sI10
Fnan
sI11
Fnan
sI12
Fnan
sI13
Fnan
sI14
Fnan
ssg59
(dp464
I0
F-2.654226
sI1
F3.051122
sI2
F-2.319893
sI3
F-1.323545
sI4
F4.45266
sI5
F4.297713
sI6
F4.596737
sI7
F3.365288
sI8
F-2.616758
sI9
F3.185736
sI10
F3.50338
sI11
F4.333386
sI12
F3.401825
sI13
F4.382829
sI14
F4.294086
ssg61
(dp465
I0
F11.053400000000003
sI1
Fnan
sI2
Fnan
sI3
Fnan
sI4
Fnan
sI5
Fnan
sI6
Fnan
sI7
Fnan
sI8
Fnan
sI9
Fnan
sI10
Fnan
sI11
Fnan
sI12
Fnan
sI13
Fnan
sI14
Fnan
ssg63
(dp466
I0
g428
sI1
g429
sI2
g430
sI3
g431
sI4
g432
sI5
g433
sI6
g434
sI7
g435
sI8
g436
sI9
g437
sI10
g438
sI11
g439
sI12
g440
sI13
g441
sI14
g442
ssg65
(dp467
I0
F9538.69
sI1
F9639.359999999999
sI2
F9200.35
sI3
F9227.71
sI4
F9594.376666666667
sI5
F9633.980000000001
sI6
F9441.413333333334
sI7
F9398.023333333334
sI8
F9398.226666666666
sI9
F9358.123333333333
sI10
F9764.55
sI11
F9739.58
sI12
F9517.353333333333
sI13
F9811.026666666667
sI14
F9547.963333333335
ssg67
(dp468
I0
F1.005048
sI1
F1.025942
sI2
F1.0052729999999999
sI3
F1.0055479999999999
sI4
F1.012782
sI5
F1.0123389999999999
sI6
F1.005154
sI7
F1.005403
sI8
F1.011908
sI9
F1.011484
sI10
F1.028995
sI11
F1.0132430000000001
sI12
F1.0266870000000001
sI13
F1.0282129999999998
sI14
F1.027447
ssg69
(dp469
I0
F8202.363333333333
sI1
F8234.316666666668
sI2
F7891.6900000000005
sI3
F7984.3966666666665
sI4
F8243.58
sI5
F8269.09
sI6
F8189.026666666667
sI7
F8112.716666666666
sI8
F8099.386666666667
sI9
F8168.47
sI10
F8426.46
sI11
F8393.966666666667
sI12
F8145.403333333334
sI13
F8439.79
sI14
F8184.166666666667
ssg71
(dp470
I0
F13345.22
sI1
F13435.85
sI2
F12911.866666666667
sI3
F12939.846666666668
sI4
F13384.976666666666
sI5
F13516.893333333333
sI6
F13300.29
sI7
F13114.47
sI8
F13025.83
sI9
F13208.336666666666
sI10
F13672.109999999999
sI11
F13675.2
sI12
F13256.973333333333
sI13
F13683.846666666668
sI14
F13323.01
ssg73
(dp471
I0
F22.24259
sI1
F22.49819
sI2
F23.82242
sI3
F22.5754
sI4
F30.6571
sI5
F29.88388
sI6
F19.88232
sI7
F21.98684
sI8
F31.19521
sI9
F34.22576
sI10
F20.40072
sI11
F29.94306
sI12
F22.90893
sI13
F20.55562
sI14
F22.31855
ssg75
(dp472
I0
F11.215
sI1
F11.211
sI2
F11.257
sI3
F11.244
sI4
F11.21
sI5
F11.206
sI6
F11.217
sI7
F11.227
sI8
F11.229
sI9
F11.22
sI10
F11.186
sI11
F11.19
sI12
F11.223
sI13
F11.184
sI14
F11.218
ssg77
(dp473
I0
F0.002
sI1
F0.002
sI2
F0.002
sI3
F0.002
sI4
F0.002
sI5
F0.002
sI6
F0.002
sI7
F0.002
sI8
F0.002
sI9
F0.002
sI10
F0.002
sI11
F0.002
sI12
F0.002
sI13
F0.002
sI14
F0.002
ssg79
(dp474
I0
F0.693046634427984
sI1
Fnan
sI2
Fnan
sI3
Fnan
sI4
Fnan
sI5
Fnan
sI6
Fnan
sI7
Fnan
sI8
Fnan
sI9
Fnan
sI10
Fnan
sI11
Fnan
sI12
Fnan
sI13
Fnan
sI14
Fnan
ssg81
(dp475
I0
F11.2158
sI1
Fnan
sI2
Fnan
sI3
Fnan
sI4
Fnan
sI5
Fnan
sI6
Fnan
sI7
Fnan
sI8
Fnan
sI9
Fnan
sI10
Fnan
sI11
Fnan
sI12
Fnan
sI13
Fnan
sI14
Fnan
ssg83
(dp476
I0
F11.051
sI1
F11.04
sI2
F11.09
sI3
F11.087
sI4
F11.045
sI5
F11.04
sI6
F11.062
sI7
F11.067
sI8
F11.067
sI9
F11.072
sI10
F11.026
sI11
F11.029
sI12
F11.054
sI13
F11.021
sI14
F11.05
ssg85
(dp477
I0
F3.77793
sI1
F-2.726301
sI2
F-2.464732
sI3
F3.104592
sI4
F4.16487
sI5
F2.769142
sI6
F4.140157
sI7
F4.134701
sI8
F-4.492622
sI9
F-2.934045
sI10
F3.698999
sI11
F2.815826
sI12
F3.81631
sI13
F-3.48586
sI14
F3.119432
ssg87
(dp478
I0
F0.020818489950270722
sI1
Fnan
sI2
Fnan
sI3
Fnan
sI4
Fnan
sI5
Fnan
sI6
Fnan
sI7
Fnan
sI8
Fnan
sI9
Fnan
sI10
Fnan
sI11
Fnan
sI12
Fnan
sI13
Fnan
sI14
Fnan
ssg89
(dp479
I0
F0.7168672952597116
sI1
F0.713693757644387
sI2
F0.7137855167543131
sI3
F0.7203677686925953
sI4
F0.7174771091614704
sI5
F0.7143652752048806
sI6
F0.7201770726349873
sI7
F0.7207301782654609
sI8
F0.7223837138002239
sI9
F0.7239478411766844
sI10
F0.7190836919595198
sI11
F0.7169801865886989
sI12
F0.7153145252153814
sI13
F0.7184367313039355
sI14
F0.7156815363637052
ssg91
(dp480
I0
F30.0
sI1
F30.0
sI2
F30.0
sI3
F30.0
sI4
F30.0
sI5
F30.0
sI6
F30.0
sI7
F30.0
sI8
F30.0
sI9
F30.0
sI10
F30.0
sI11
F30.0
sI12
F30.0
sI13
F30.0
sI14
F30.0
ssg93
(dp481
I0
F0.002
sI1
F0.002
sI2
F0.002
sI3
F0.002
sI4
F0.002
sI5
F0.002
sI6
F0.002
sI7
F0.002
sI8
F0.002
sI9
F0.002
sI10
F0.002
sI11
F0.002
sI12
F0.002
sI13
F0.002
sI14
F0.002
ssg95
(dp482
I0
F0.002
sI1
F0.002
sI2
F0.002
sI3
F0.002
sI4
F0.002
sI5
F0.002
sI6
F0.002
sI7
F0.002
sI8
F0.002
sI9
F0.002
sI10
F0.002
sI11
F0.002
sI12
F0.002
sI13
F0.002
sI14
F0.002
ssg97
(dp483
I0
F0.5704876
sI1
F3.748003
sI2
F-4.155599
sI3
F2.424155
sI4
F5.05687
sI5
F3.426186
sI6
F-3.496357
sI7
F-2.911646
sI8
F5.06909
sI9
F2.184909
sI10
F1.995125
sI11
F4.601462
sI12
F-3.847905
sI13
F1.820244
sI14
F3.657515
ssg99
(dp484
I0
S'KIC8462852-20180919at035937_-25-1X1-030-V_cal.fts.mag.1'
p485
sI1
S'KIC8462852-20180919at045332_-25-1X1-030-V_cal.fts.mag.1'
p486
sI2
S'KIC8462852-20180919at040152_-25-1X1-030-V_cal.fts.mag.1'
p487
sI3
S'KIC8462852-20180919at040400_-25-1X1-030-V_cal.fts.mag.1'
p488
sI4
S'KIC8462852-20180919at042954_-25-1X1-030-V_cal.fts.mag.1'
p489
sI5
S'KIC8462852-20180919at042850_-25-1X1-030-V_cal.fts.mag.1'
p490
sI6
S'KIC8462852-20180919at040047_-25-1X1-030-V_cal.fts.mag.1'
p491
sI7
S'KIC8462852-20180919at040256_-25-1X1-030-V_cal.fts.mag.1'
p492
sI8
S'KIC8462852-20180919at042745_-25-1X1-030-V_cal.fts.mag.1'
p493
sI9
S'KIC8462852-20180919at042633_-25-1X1-030-V_cal.fts.mag.1'
p494
sI10
S'KIC8462852-20180919at045756_-25-1X1-030-V_cal.fts.mag.1'
p495
sI11
S'KIC8462852-20180919at043059_-25-1X1-030-V_cal.fts.mag.1'
p496
sI12
S'KIC8462852-20180919at045443_-25-1X1-030-V_cal.fts.mag.1'
p497
sI13
S'KIC8462852-20180919at045652_-25-1X1-030-V_cal.fts.mag.1'
p498
sI14
S'KIC8462852-20180919at045548_-25-1X1-030-V_cal.fts.mag.1'
p499
ssg111
(dp500
I0
F0.0055898179758677915
sI1
Fnan
sI2
Fnan
sI3
Fnan
sI4
Fnan
sI5
Fnan
sI6
Fnan
sI7
Fnan
sI8
Fnan
sI9
Fnan
sI10
Fnan
sI11
Fnan
sI12
Fnan
sI13
Fnan
sI14
Fnan
ssg113
(dp501
I0
F7178.613333333333
sI1
F7240.473333333333
sI2
F6926.463333333333
sI3
F6985.153333333334
sI4
F7290.543333333333
sI5
F7253.259999999999
sI6
F7214.253333333333
sI7
F7085.79
sI8
F7024.446666666667
sI9
F7083.426666666666
sI10
F7324.126666666666
sI11
F7381.326666666666
sI12
F7102.61
sI13
F7335.126666666666
sI14
F7132.053333333333
ssg115
(dp502
I0
F0.01997569952288465
sI1
Fnan
sI2
Fnan
sI3
Fnan
sI4
Fnan
sI5
Fnan
sI6
Fnan
sI7
Fnan
sI8
Fnan
sI9
Fnan
sI10
Fnan
sI11
Fnan
sI12
Fnan
sI13
Fnan
sI14
Fnan
ssg117
(dp503
I0
g424
sI1
g424
sI2
g424
sI3
g424
sI4
g424
sI5
g424
sI6
g424
sI7
g424
sI8
g424
sI9
g424
sI10
g424
sI11
g424
sI12
g424
sI13
g424
sI14
g424
ssg129
(dp504
I0
F0.0036360690482698
sI1
Fnan
sI2
Fnan
sI3
Fnan
sI4
Fnan
sI5
Fnan
sI6
Fnan
sI7
Fnan
sI8
Fnan
sI9
Fnan
sI10
Fnan
sI11
Fnan
sI12
Fnan
sI13
Fnan
sI14
Fnan
ssg131
(dp505
I0
F3.898289
sI1
F-4.852888
sI2
F5.388668
sI3
F2.751272
sI4
F4.424339
sI5
F4.303163
sI6
F3.637791
sI7
F-2.135349
sI8
F-0.3258943
sI9
F-2.990183
sI10
F3.814798
sI11
F4.248714
sI12
F2.874784
sI13
F3.526045
sI14
F3.887588
ssg133
(dp506
I0
F1.5033741299035033
sI1
Fnan
sI2
Fnan
sI3
Fnan
sI4
Fnan
sI5
Fnan
sI6
Fnan
sI7
Fnan
sI8
Fnan
sI9
Fnan
sI10
Fnan
sI11
Fnan
sI12
Fnan
sI13
Fnan
sI14
Fnan
ssg135
(dp507
I0
F2458380.686689815
sI1
Fnan
sI2
Fnan
sI3
Fnan
sI4
Fnan
sI5
Fnan
sI6
Fnan
sI7
Fnan
sI8
Fnan
sI9
Fnan
sI10
Fnan
sI11
Fnan
sI12
Fnan
sI13
Fnan
sI14
Fnan
ssg137
(dp508
I0
F0.0036360690482698
sI1
Fnan
sI2
Fnan
sI3
Fnan
sI4
Fnan
sI5
Fnan
sI6
Fnan
sI7
Fnan
sI8
Fnan
sI9
Fnan
sI10
Fnan
sI11
Fnan
sI12
Fnan
sI13
Fnan
sI14
Fnan
ssg139
(dp509
I0
F23.083
sI1
F26.11866
sI2
F27.17863
sI3
F25.91466
sI4
F34.5717
sI5
F33.60889
sI6
F23.90358
sI7
F24.99719
sI8
F36.25911
sI9
F37.75615
sI10
F23.13264
sI11
F32.85408
sI12
F26.17088
sI13
F24.51904
sI14
F25.7063
ssg141
(dp510
I0
F10.687
sI1
F10.679
sI2
F10.723
sI3
F10.72
sI4
F10.683
sI5
F10.673
sI6
F10.69
sI7
F10.706
sI8
F10.713
sI9
F10.698
sI10
F10.66
sI11
F10.66
sI12
F10.694
sI13
F10.659
sI14
F10.688
ssg143
(dp511
I0
F0.693046634427984
sI1
Fnan
sI2
Fnan
sI3
Fnan
sI4
Fnan
sI5
Fnan
sI6
Fnan
sI7
Fnan
sI8
Fnan
sI9
Fnan
sI10
Fnan
sI11
Fnan
sI12
Fnan
sI13
Fnan
sI14
Fnan
sss.