(dp0
S'i'
p1
(dp2
S'median_JD'
p3
(dp4
I0
F2458380.6792013887
sI256
Fnan
sI258
Fnan
sI259
Fnan
sI257
Fnan
sI140
Fnan
sI141
Fnan
sI142
Fnan
sI143
Fnan
sI144
Fnan
sI145
Fnan
sI146
Fnan
sI147
Fnan
sI148
Fnan
sI149
Fnan
sI150
Fnan
sI151
Fnan
sI152
Fnan
sI153
Fnan
sI154
Fnan
sI155
Fnan
sI156
Fnan
sI157
Fnan
sI158
Fnan
sI159
Fnan
sI40
Fnan
sI41
Fnan
sI42
Fnan
sI43
Fnan
sI44
Fnan
sI45
Fnan
sI46
Fnan
sI47
Fnan
sI48
Fnan
sI49
Fnan
sI50
Fnan
sI51
Fnan
sI52
Fnan
sI53
Fnan
sI54
Fnan
sI55
Fnan
sI56
Fnan
sI57
Fnan
sI58
Fnan
sI59
Fnan
sI240
Fnan
sI241
Fnan
sI242
Fnan
sI243
Fnan
sI244
Fnan
sI245
Fnan
sI246
Fnan
sI247
Fnan
sI248
Fnan
sI249
Fnan
sI250
Fnan
sI251
Fnan
sI252
Fnan
sI253
Fnan
sI254
Fnan
sI255
Fnan
ssS'airmass'
p5
(dp6
I0
Fnan
sI256
F1.021702
sI258
F1.021702
sI259
F1.021702
sI257
F1.021702
sI140
F1.007975
sI141
F1.007975
sI142
F1.007975
sI143
F1.007975
sI144
F1.0082659999999999
sI145
F1.0082659999999999
sI146
F1.0082659999999999
sI147
F1.0082659999999999
sI148
F1.00857
sI149
F1.00857
sI150
F1.00857
sI151
F1.00857
sI152
F1.00888
sI153
F1.00888
sI154
F1.00888
sI155
F1.00888
sI156
F1.0092020000000002
sI157
F1.0092020000000002
sI158
F1.0092020000000002
sI159
F1.0092020000000002
sI40
F1.004659
sI41
F1.004659
sI42
F1.004659
sI43
F1.004659
sI44
F1.004643
sI45
F1.004643
sI46
F1.004643
sI47
F1.004643
sI48
F1.0046389999999998
sI49
F1.0046389999999998
sI50
F1.0046389999999998
sI51
F1.0046389999999998
sI52
F1.0046469999999998
sI53
F1.0046469999999998
sI54
F1.0046469999999998
sI55
F1.0046469999999998
sI56
F1.004667
sI57
F1.004667
sI58
F1.004667
sI59
F1.004667
sI240
F1.019189
sI241
F1.019189
sI242
F1.019189
sI243
F1.019189
sI244
F1.019796
sI245
F1.019796
sI246
F1.019796
sI247
F1.019796
sI248
F1.020413
sI249
F1.020413
sI250
F1.020413
sI251
F1.020413
sI252
F1.021048
sI253
F1.021048
sI254
F1.021048
sI255
F1.021048
ssS'ref2flux'
p7
(dp8
I0
Fnan
sI256
Fnan
sI258
F9898.68
sI259
Fnan
sI257
Fnan
sI140
Fnan
sI141
Fnan
sI142
F9593.716666666667
sI143
Fnan
sI144
Fnan
sI145
Fnan
sI146
F9731.93
sI147
Fnan
sI148
Fnan
sI149
Fnan
sI150
F9844.323333333334
sI151
Fnan
sI152
Fnan
sI153
Fnan
sI154
F9588.156666666668
sI155
Fnan
sI156
Fnan
sI157
Fnan
sI158
F9659.72
sI159
Fnan
sI40
Fnan
sI41
Fnan
sI42
F9627.630000000001
sI43
Fnan
sI44
Fnan
sI45
Fnan
sI46
F9667.109999999999
sI47
Fnan
sI48
Fnan
sI49
Fnan
sI50
F9798.130000000001
sI51
Fnan
sI52
Fnan
sI53
Fnan
sI54
F9804.359999999999
sI55
Fnan
sI56
Fnan
sI57
Fnan
sI58
F9570.936666666666
sI59
Fnan
sI240
Fnan
sI241
Fnan
sI242
F9830.533333333333
sI243
Fnan
sI244
Fnan
sI245
Fnan
sI246
F9978.85
sI247
Fnan
sI248
Fnan
sI249
Fnan
sI250
F10019.03
sI251
Fnan
sI252
Fnan
sI253
Fnan
sI254
F10050.743333333334
sI255
Fnan
ssS'totalflux'
p9
(dp10
I0
Fnan
sI256
F139773.0
sI258
F296960.4
sI259
F405614.3
sI257
F244469.9
sI140
F150181.5
sI141
F238336.5
sI142
F287811.5
sI143
F395142.1
sI144
F150883.5
sI145
F242259.0
sI146
F291957.9
sI147
F399979.0
sI148
F152923.2
sI149
F245225.7
sI150
F295329.7
sI151
F403295.4
sI152
F151175.1
sI153
F239551.4
sI154
F287644.7
sI155
F396676.2
sI156
F149761.6
sI157
F241390.1
sI158
F289791.6
sI159
F399558.1
sI40
F135507.9
sI41
F238624.1
sI42
F288828.9
sI43
F396392.1
sI44
F136284.4
sI45
F240232.5
sI46
F290013.3
sI47
F398953.3
sI48
F137754.5
sI49
F244756.0
sI50
F293943.9
sI51
F403470.8
sI52
F136141.4
sI53
F241349.2
sI54
F294130.8
sI55
F400008.6
sI56
F135560.2
sI57
F238458.5
sI58
F287128.1
sI59
F399621.2
sI240
F137608.0
sI241
F244028.4
sI242
F294916.0
sI243
F403484.6
sI244
F141184.0
sI245
F248336.9
sI246
F299365.5
sI247
F409948.8
sI248
F141530.2
sI249
F248860.2
sI250
F300570.9
sI251
F411828.4
sI252
F141947.8
sI253
F249176.7
sI254
F301522.3
sI255
F413031.4
ssS'mean'
p11
(dp12
I0
F0.15188276603879675
sI256
Fnan
sI258
Fnan
sI259
Fnan
sI257
Fnan
sI140
Fnan
sI141
Fnan
sI142
Fnan
sI143
Fnan
sI144
Fnan
sI145
Fnan
sI146
Fnan
sI147
Fnan
sI148
Fnan
sI149
Fnan
sI150
Fnan
sI151
Fnan
sI152
Fnan
sI153
Fnan
sI154
Fnan
sI155
Fnan
sI156
Fnan
sI157
Fnan
sI158
Fnan
sI159
Fnan
sI40
Fnan
sI41
Fnan
sI42
Fnan
sI43
Fnan
sI44
Fnan
sI45
Fnan
sI46
Fnan
sI47
Fnan
sI48
Fnan
sI49
Fnan
sI50
Fnan
sI51
Fnan
sI52
Fnan
sI53
Fnan
sI54
Fnan
sI55
Fnan
sI56
Fnan
sI57
Fnan
sI58
Fnan
sI59
Fnan
sI240
Fnan
sI241
Fnan
sI242
Fnan
sI243
Fnan
sI244
Fnan
sI245
Fnan
sI246
Fnan
sI247
Fnan
sI248
Fnan
sI249
Fnan
sI250
Fnan
sI251
Fnan
sI252
Fnan
sI253
Fnan
sI254
Fnan
sI255
Fnan
ssS'error'
p13
(dp14
I0
F0.007605655239572061
sI256
Fnan
sI258
Fnan
sI259
Fnan
sI257
Fnan
sI140
Fnan
sI141
Fnan
sI142
Fnan
sI143
Fnan
sI144
Fnan
sI145
Fnan
sI146
Fnan
sI147
Fnan
sI148
Fnan
sI149
Fnan
sI150
Fnan
sI151
Fnan
sI152
Fnan
sI153
Fnan
sI154
Fnan
sI155
Fnan
sI156
Fnan
sI157
Fnan
sI158
Fnan
sI159
Fnan
sI40
Fnan
sI41
Fnan
sI42
Fnan
sI43
Fnan
sI44
Fnan
sI45
Fnan
sI46
Fnan
sI47
Fnan
sI48
Fnan
sI49
Fnan
sI50
Fnan
sI51
Fnan
sI52
Fnan
sI53
Fnan
sI54
Fnan
sI55
Fnan
sI56
Fnan
sI57
Fnan
sI58
Fnan
sI59
Fnan
sI240
Fnan
sI241
Fnan
sI242
Fnan
sI243
Fnan
sI244
Fnan
sI245
Fnan
sI246
Fnan
sI247
Fnan
sI248
Fnan
sI249
Fnan
sI250
Fnan
sI251
Fnan
sI252
Fnan
sI253
Fnan
sI254
Fnan
sI255
Fnan
ssS'magerror'
p15
(dp16
I0
Fnan
sI256
F0.003
sI258
F0.002
sI259
F0.002
sI257
F0.002
sI140
F0.003
sI141
F0.002
sI142
F0.002
sI143
F0.002
sI144
F0.003
sI145
F0.002
sI146
F0.002
sI147
F0.002
sI148
F0.003
sI149
F0.002
sI150
F0.002
sI151
F0.002
sI152
F0.003
sI153
F0.002
sI154
F0.002
sI155
F0.002
sI156
F0.003
sI157
F0.002
sI158
F0.002
sI159
F0.002
sI40
F0.003
sI41
F0.002
sI42
F0.002
sI43
F0.002
sI44
F0.003
sI45
F0.002
sI46
F0.002
sI47
F0.002
sI48
F0.003
sI49
F0.002
sI50
F0.002
sI51
F0.002
sI52
F0.003
sI53
F0.002
sI54
F0.002
sI55
F0.002
sI56
F0.003
sI57
F0.002
sI58
F0.002
sI59
F0.002
sI240
F0.003
sI241
F0.002
sI242
F0.002
sI243
F0.002
sI244
F0.003
sI245
F0.002
sI246
F0.002
sI247
F0.002
sI248
F0.003
sI249
F0.002
sI250
F0.002
sI251
F0.002
sI252
F0.003
sI253
F0.002
sI254
F0.002
sI255
F0.002
ssS'filter'
p17
(dp18
I0
Fnan
sI256
S"i'"
p19
sI258
g19
sI259
g19
sI257
g19
sI140
g19
sI141
g19
sI142
g19
sI143
g19
sI144
g19
sI145
g19
sI146
g19
sI147
g19
sI148
g19
sI149
g19
sI150
g19
sI151
g19
sI152
g19
sI153
g19
sI154
g19
sI155
g19
sI156
g19
sI157
g19
sI158
g19
sI159
g19
sI40
g19
sI41
g19
sI42
g19
sI43
g19
sI44
g19
sI45
g19
sI46
g19
sI47
g19
sI48
g19
sI49
g19
sI50
g19
sI51
g19
sI52
g19
sI53
g19
sI54
g19
sI55
g19
sI56
g19
sI57
g19
sI58
g19
sI59
g19
sI240
g19
sI241
g19
sI242
g19
sI243
g19
sI244
g19
sI245
g19
sI246
g19
sI247
g19
sI248
g19
sI249
g19
sI250
g19
sI251
g19
sI252
g19
sI253
g19
sI254
g19
sI255
g19
ssS'ref1flux'
p20
(dp21
I0
Fnan
sI256
Fnan
sI258
Fnan
sI259
Fnan
sI257
F8148.996666666667
sI140
Fnan
sI141
F7944.55
sI142
Fnan
sI143
Fnan
sI144
Fnan
sI145
F8075.3
sI146
Fnan
sI147
Fnan
sI148
Fnan
sI149
F8174.1900000000005
sI150
Fnan
sI151
Fnan
sI152
Fnan
sI153
F7985.046666666666
sI154
Fnan
sI155
Fnan
sI156
Fnan
sI157
F8046.336666666667
sI158
Fnan
sI159
Fnan
sI40
Fnan
sI41
F7954.136666666667
sI42
Fnan
sI43
Fnan
sI44
Fnan
sI45
F8007.75
sI46
Fnan
sI47
Fnan
sI48
Fnan
sI49
F8158.533333333334
sI50
Fnan
sI51
Fnan
sI52
Fnan
sI53
F8044.973333333333
sI54
Fnan
sI55
Fnan
sI56
Fnan
sI57
F7948.616666666667
sI58
Fnan
sI59
Fnan
sI240
Fnan
sI241
F8134.28
sI242
Fnan
sI243
Fnan
sI244
Fnan
sI245
F8277.896666666666
sI246
Fnan
sI247
Fnan
sI248
Fnan
sI249
F8295.34
sI250
Fnan
sI251
Fnan
sI252
Fnan
sI253
F8305.890000000001
sI254
Fnan
sI255
Fnan
ssS'flag'
p22
(dp23
I0
Fnan
sI256
S'NoError'
p24
sI258
g24
sI259
g24
sI257
g24
sI140
g24
sI141
g24
sI142
g24
sI143
g24
sI144
g24
sI145
g24
sI146
g24
sI147
g24
sI148
g24
sI149
g24
sI150
g24
sI151
g24
sI152
g24
sI153
g24
sI154
g24
sI155
g24
sI156
g24
sI157
g24
sI158
g24
sI159
g24
sI40
g24
sI41
g24
sI42
g24
sI43
g24
sI44
g24
sI45
g24
sI46
g24
sI47
g24
sI48
g24
sI49
g24
sI50
g24
sI51
g24
sI52
g24
sI53
g24
sI54
g24
sI55
g24
sI56
g24
sI57
g24
sI58
g24
sI59
g24
sI240
g24
sI241
g24
sI242
g24
sI243
g24
sI244
g24
sI245
g24
sI246
g24
sI247
g24
sI248
g24
sI249
g24
sI250
g24
sI251
g24
sI252
g24
sI253
g24
sI254
g24
sI255
g24
ssS'magnitude'
p25
(dp26
I0
Fnan
sI256
F11.829
sI258
F11.011
sI259
F10.673
sI257
F11.222000000000001
sI140
F11.751
sI141
F11.25
sI142
F11.045
sI143
F10.700999999999999
sI144
F11.745999999999999
sI145
F11.232000000000001
sI146
F11.03
sI147
F10.687999999999999
sI148
F11.732000000000001
sI149
F11.219000000000001
sI150
F11.017000000000001
sI151
F10.679
sI152
F11.744000000000002
sI153
F11.244000000000002
sI154
F11.046
sI155
F10.697000000000001
sI156
F11.754000000000001
sI157
F11.235999999999999
sI158
F11.038
sI159
F10.689
sI40
F11.863
sI41
F11.249
sI42
F11.040999999999999
sI43
F10.697000000000001
sI44
F11.857000000000001
sI45
F11.241
sI46
F11.037
sI47
F10.69
sI48
F11.845
sI49
F11.220999999999998
sI50
F11.022
sI51
F10.677999999999999
sI52
F11.857999999999999
sI53
F11.235999999999999
sI54
F11.020999999999999
sI55
F10.687999999999999
sI56
F11.862
sI57
F11.249
sI58
F11.048
sI59
F10.689
sI240
F11.845999999999998
sI241
F11.224
sI242
F11.019
sI243
F10.677999999999999
sI244
F11.818
sI245
F11.205
sI246
F11.002
sI247
F10.661
sI248
F11.815999999999999
sI249
F11.203
sI250
F10.998
sI251
F10.655999999999999
sI252
F11.812000000000001
sI253
F11.202
sI254
F10.995
sI255
F10.652999999999999
ssS'tabbyflux'
p27
(dp28
I0
Fnan
sI256
F4659.1
sI258
Fnan
sI259
Fnan
sI257
Fnan
sI140
F5006.05
sI141
Fnan
sI142
Fnan
sI143
Fnan
sI144
F5029.45
sI145
Fnan
sI146
Fnan
sI147
Fnan
sI148
F5097.4400000000005
sI149
Fnan
sI150
Fnan
sI151
Fnan
sI152
F5039.17
sI153
Fnan
sI154
Fnan
sI155
Fnan
sI156
F4992.053333333333
sI157
Fnan
sI158
Fnan
sI159
Fnan
sI40
F4516.929999999999
sI41
Fnan
sI42
Fnan
sI43
Fnan
sI44
F4542.8133333333335
sI45
Fnan
sI46
Fnan
sI47
Fnan
sI48
F4591.816666666667
sI49
Fnan
sI50
Fnan
sI51
Fnan
sI52
F4538.046666666666
sI53
Fnan
sI54
Fnan
sI55
Fnan
sI56
F4518.673333333334
sI57
Fnan
sI58
Fnan
sI59
Fnan
sI240
F4586.933333333333
sI241
Fnan
sI242
Fnan
sI243
Fnan
sI244
F4706.133333333333
sI245
Fnan
sI246
Fnan
sI247
Fnan
sI248
F4717.673333333334
sI249
Fnan
sI250
Fnan
sI251
Fnan
sI252
F4731.593333333333
sI253
Fnan
sI254
Fnan
sI255
Fnan
ssS'ref3flux'
p29
(dp30
I0
Fnan
sI256
Fnan
sI258
Fnan
sI259
F13520.476666666666
sI257
Fnan
sI140
Fnan
sI141
Fnan
sI142
Fnan
sI143
F13171.403333333332
sI144
Fnan
sI145
Fnan
sI146
Fnan
sI147
F13332.633333333333
sI148
Fnan
sI149
Fnan
sI150
Fnan
sI151
F13443.18
sI152
Fnan
sI153
Fnan
sI154
Fnan
sI155
F13222.54
sI156
Fnan
sI157
Fnan
sI158
Fnan
sI159
F13318.603333333333
sI40
Fnan
sI41
Fnan
sI42
Fnan
sI43
F13213.07
sI44
Fnan
sI45
Fnan
sI46
Fnan
sI47
F13298.443333333333
sI48
Fnan
sI49
Fnan
sI50
Fnan
sI51
F13449.026666666667
sI52
Fnan
sI53
Fnan
sI54
Fnan
sI55
F13333.619999999999
sI56
Fnan
sI57
Fnan
sI58
Fnan
sI59
F13320.706666666667
sI240
Fnan
sI241
Fnan
sI242
Fnan
sI243
F13449.486666666666
sI244
Fnan
sI245
Fnan
sI246
Fnan
sI247
F13664.96
sI248
Fnan
sI249
Fnan
sI250
Fnan
sI251
F13727.613333333335
sI252
Fnan
sI253
Fnan
sI254
Fnan
sI255
F13767.713333333335
ssS'JD'
p31
(dp32
I0
Fnan
sI256
F2458380.6993981483
sI258
F2458380.6993981483
sI259
F2458380.6993981483
sI257
F2458380.6993981483
sI140
F2458380.6777314814
sI141
F2458380.6777314814
sI142
F2458380.6777314814
sI143
F2458380.6777314814
sI144
F2458380.6784606483
sI145
F2458380.6784606483
sI146
F2458380.6784606483
sI147
F2458380.6784606483
sI148
F2458380.6792013887
sI149
F2458380.6792013887
sI150
F2458380.6792013887
sI151
F2458380.6792013887
sI152
F2458380.6799421296
sI153
F2458380.6799421296
sI154
F2458380.6799421296
sI155
F2458380.6799421296
sI156
F2458380.680671296
sI157
F2458380.680671296
sI158
F2458380.680671296
sI159
F2458380.680671296
sI40
F2458380.659050926
sI41
F2458380.659050926
sI42
F2458380.659050926
sI43
F2458380.659050926
sI44
F2458380.6597800925
sI45
F2458380.6597800925
sI46
F2458380.6597800925
sI47
F2458380.6597800925
sI48
F2458380.66050926
sI49
F2458380.66050926
sI50
F2458380.66050926
sI51
F2458380.66050926
sI52
F2458380.66125
sI53
F2458380.66125
sI54
F2458380.66125
sI55
F2458380.66125
sI56
F2458380.661979167
sI57
F2458380.661979167
sI58
F2458380.661979167
sI59
F2458380.661979167
sI240
F2458380.6964583327
sI241
F2458380.6964583327
sI242
F2458380.6964583327
sI243
F2458380.6964583327
sI244
F2458380.6971875
sI245
F2458380.6971875
sI246
F2458380.6971875
sI247
F2458380.6971875
sI248
F2458380.6979282405
sI249
F2458380.6979282405
sI250
F2458380.6979282405
sI251
F2458380.6979282405
sI252
F2458380.6986574074
sI253
F2458380.6986574074
sI254
F2458380.6986574074
sI255
F2458380.6986574074
ssS'relflux'
p33
(dp34
I0
Fnan
sI256
F0.14758861409483778
sI258
Fnan
sI259
Fnan
sI257
Fnan
sI140
F0.16301217173613394
sI141
Fnan
sI142
Fnan
sI143
Fnan
sI144
F0.16151162727218132
sI145
Fnan
sI146
Fnan
sI147
Fnan
sI148
F0.1620205227351611
sI149
Fnan
sI150
Fnan
sI151
Fnan
sI152
F0.16363203009766608
sI153
Fnan
sI154
Fnan
sI155
Fnan
sI156
F0.16090598038248713
sI157
Fnan
sI158
Fnan
sI159
Fnan
sI40
F0.1466781606570192
sI41
Fnan
sI42
Fnan
sI43
Fnan
sI44
F0.14666867413022677
sI45
Fnan
sI46
Fnan
sI47
Fnan
sI48
F0.14620970488681084
sI49
Fnan
sI50
Fnan
sI51
Fnan
sI52
F0.14552972639110728
sI53
Fnan
sI54
Fnan
sI55
Fnan
sI56
F0.14651865235031528
sI57
Fnan
sI58
Fnan
sI59
Fnan
sI240
F0.14601418250075074
sI241
Fnan
sI242
Fnan
sI243
Fnan
sI244
F0.1474273723042377
sI245
Fnan
sI246
Fnan
sI247
Fnan
sI248
F0.14723412356392837
sI249
Fnan
sI250
Fnan
sI251
Fnan
sI252
F0.1472899474790875
sI253
Fnan
sI254
Fnan
sI255
Fnan
ssS'exposure'
p35
(dp36
I0
Fnan
sI256
F30.0
sI258
F30.0
sI259
F30.0
sI257
F30.0
sI140
F30.0
sI141
F30.0
sI142
F30.0
sI143
F30.0
sI144
F30.0
sI145
F30.0
sI146
F30.0
sI147
F30.0
sI148
F30.0
sI149
F30.0
sI150
F30.0
sI151
F30.0
sI152
F30.0
sI153
F30.0
sI154
F30.0
sI155
F30.0
sI156
F30.0
sI157
F30.0
sI158
F30.0
sI159
F30.0
sI40
F30.0
sI41
F30.0
sI42
F30.0
sI43
F30.0
sI44
F30.0
sI45
F30.0
sI46
F30.0
sI47
F30.0
sI48
F30.0
sI49
F30.0
sI50
F30.0
sI51
F30.0
sI52
F30.0
sI53
F30.0
sI54
F30.0
sI55
F30.0
sI56
F30.0
sI57
F30.0
sI58
F30.0
sI59
F30.0
sI240
F30.0
sI241
F30.0
sI242
F30.0
sI243
F30.0
sI244
F30.0
sI245
F30.0
sI246
F30.0
sI247
F30.0
sI248
F30.0
sI249
F30.0
sI250
F30.0
sI251
F30.0
sI252
F30.0
sI253
F30.0
sI254
F30.0
sI255
F30.0
sssS'r'
p37
(dp38
g3
(dp39
I0
F2458380.6754976846
sI128
Fnan
sI130
Fnan
sI131
Fnan
sI132
Fnan
sI133
Fnan
sI134
Fnan
sI129
Fnan
sI136
Fnan
sI137
Fnan
sI138
Fnan
sI139
Fnan
sI20
Fnan
sI21
Fnan
sI22
Fnan
sI23
Fnan
sI24
Fnan
sI25
Fnan
sI26
Fnan
sI27
Fnan
sI28
Fnan
sI29
Fnan
sI30
Fnan
sI31
Fnan
sI32
Fnan
sI33
Fnan
sI34
Fnan
sI35
Fnan
sI36
Fnan
sI37
Fnan
sI38
Fnan
sI39
Fnan
sI135
Fnan
sI220
Fnan
sI221
Fnan
sI222
Fnan
sI223
Fnan
sI224
Fnan
sI225
Fnan
sI226
Fnan
sI227
Fnan
sI228
Fnan
sI229
Fnan
sI230
Fnan
sI231
Fnan
sI232
Fnan
sI233
Fnan
sI234
Fnan
sI235
Fnan
sI236
Fnan
sI237
Fnan
sI238
Fnan
sI239
Fnan
sI120
Fnan
sI121
Fnan
sI122
Fnan
sI123
Fnan
sI124
Fnan
sI125
Fnan
sI126
Fnan
sI127
Fnan
ssg5
(dp40
I0
Fnan
sI128
F1.0071700000000001
sI130
F1.0071700000000001
sI131
F1.0071700000000001
sI132
F1.007426
sI133
F1.007426
sI134
F1.007426
sI129
F1.0071700000000001
sI136
F1.007692
sI137
F1.007692
sI138
F1.007692
sI139
F1.007692
sI20
F1.00492
sI21
F1.00492
sI22
F1.00492
sI23
F1.00492
sI24
F1.004845
sI25
F1.004845
sI26
F1.004845
sI27
F1.004845
sI28
F1.00478
sI29
F1.00478
sI30
F1.00478
sI31
F1.00478
sI32
F1.004728
sI33
F1.004728
sI34
F1.004728
sI35
F1.004728
sI36
F1.004688
sI37
F1.004688
sI38
F1.004688
sI39
F1.004688
sI135
F1.007426
sI220
F1.016335
sI221
F1.016335
sI222
F1.016335
sI223
F1.016335
sI224
F1.016877
sI225
F1.016877
sI226
F1.016877
sI227
F1.016877
sI228
F1.017432
sI229
F1.017432
sI230
F1.017432
sI231
F1.017432
sI232
F1.017998
sI233
F1.017998
sI234
F1.017998
sI235
F1.017998
sI236
F1.018581
sI237
F1.018581
sI238
F1.018581
sI239
F1.018581
sI120
F1.006699
sI121
F1.006699
sI122
F1.006699
sI123
F1.006699
sI124
F1.0069299999999999
sI125
F1.0069299999999999
sI126
F1.0069299999999999
sI127
F1.0069299999999999
ssg7
(dp41
I0
Fnan
sI128
Fnan
sI130
F14643.913333333334
sI131
Fnan
sI132
Fnan
sI133
Fnan
sI134
F14928.416666666666
sI129
Fnan
sI136
Fnan
sI137
Fnan
sI138
F15069.516666666666
sI139
Fnan
sI20
Fnan
sI21
Fnan
sI22
F14738.743333333334
sI23
Fnan
sI24
Fnan
sI25
Fnan
sI26
F15006.813333333334
sI27
Fnan
sI28
Fnan
sI29
Fnan
sI30
F14942.5
sI31
Fnan
sI32
Fnan
sI33
Fnan
sI34
F15038.386666666665
sI35
Fnan
sI36
Fnan
sI37
Fnan
sI38
F14902.83
sI39
Fnan
sI135
Fnan
sI220
Fnan
sI221
Fnan
sI222
F15235.8
sI223
Fnan
sI224
Fnan
sI225
Fnan
sI226
F15266.82
sI227
Fnan
sI228
Fnan
sI229
Fnan
sI230
F15030.796666666667
sI231
Fnan
sI232
Fnan
sI233
Fnan
sI234
F15029.993333333334
sI235
Fnan
sI236
Fnan
sI237
Fnan
sI238
F14878.793333333333
sI239
Fnan
sI120
Fnan
sI121
Fnan
sI122
F14720.543333333333
sI123
Fnan
sI124
Fnan
sI125
Fnan
sI126
F14557.476666666666
sI127
Fnan
ssg9
(dp42
I0
Fnan
sI128
F275674.7
sI130
F439317.4
sI131
F607763.7
sI132
F277920.0
sI133
F379710.3
sI134
F447852.5
sI129
F373828.6
sI136
F281223.4
sI137
F383831.2
sI138
F452085.5
sI139
F617715.1
sI20
F263107.6
sI21
F375730.2
sI22
F442162.3
sI23
F612343.8
sI24
F267543.8
sI25
F384763.0
sI26
F450204.4
sI27
F622420.9
sI28
F265893.7
sI29
F380774.2
sI30
F448275.0
sI31
F620068.4
sI32
F266608.1
sI33
F383885.2
sI34
F451151.6
sI35
F624208.7
sI36
F264575.0
sI37
F380558.9
sI38
F447084.9
sI39
F619993.6
sI135
F618970.1
sI220
F270233.5
sI221
F390365.8
sI222
F457074.0
sI223
F629806.4
sI224
F271629.8
sI225
F388870.7
sI226
F458004.6
sI227
F628638.0
sI228
F266664.2
sI229
F383510.7
sI230
F450923.9
sI231
F624021.0
sI232
F267733.3
sI233
F382429.1
sI234
F450899.8
sI235
F626265.3
sI236
F264892.0
sI237
F381468.1
sI238
F446363.8
sI239
F619213.8
sI120
F275063.0
sI121
F371551.8
sI122
F441616.3
sI123
F612276.2
sI124
F274613.7
sI125
F374866.8
sI126
F436724.3
sI127
F603544.4
ssg11
(dp43
I0
F0.18663104219709128
sI128
Fnan
sI130
Fnan
sI131
Fnan
sI132
Fnan
sI133
Fnan
sI134
Fnan
sI129
Fnan
sI136
Fnan
sI137
Fnan
sI138
Fnan
sI139
Fnan
sI20
Fnan
sI21
Fnan
sI22
Fnan
sI23
Fnan
sI24
Fnan
sI25
Fnan
sI26
Fnan
sI27
Fnan
sI28
Fnan
sI29
Fnan
sI30
Fnan
sI31
Fnan
sI32
Fnan
sI33
Fnan
sI34
Fnan
sI35
Fnan
sI36
Fnan
sI37
Fnan
sI38
Fnan
sI39
Fnan
sI135
Fnan
sI220
Fnan
sI221
Fnan
sI222
Fnan
sI223
Fnan
sI224
Fnan
sI225
Fnan
sI226
Fnan
sI227
Fnan
sI228
Fnan
sI229
Fnan
sI230
Fnan
sI231
Fnan
sI232
Fnan
sI233
Fnan
sI234
Fnan
sI235
Fnan
sI236
Fnan
sI237
Fnan
sI238
Fnan
sI239
Fnan
sI120
Fnan
sI121
Fnan
sI122
Fnan
sI123
Fnan
sI124
Fnan
sI125
Fnan
sI126
Fnan
sI127
Fnan
ssg13
(dp44
I0
F0.004934533104327919
sI128
Fnan
sI130
Fnan
sI131
Fnan
sI132
Fnan
sI133
Fnan
sI134
Fnan
sI129
Fnan
sI136
Fnan
sI137
Fnan
sI138
Fnan
sI139
Fnan
sI20
Fnan
sI21
Fnan
sI22
Fnan
sI23
Fnan
sI24
Fnan
sI25
Fnan
sI26
Fnan
sI27
Fnan
sI28
Fnan
sI29
Fnan
sI30
Fnan
sI31
Fnan
sI32
Fnan
sI33
Fnan
sI34
Fnan
sI35
Fnan
sI36
Fnan
sI37
Fnan
sI38
Fnan
sI39
Fnan
sI135
Fnan
sI220
Fnan
sI221
Fnan
sI222
Fnan
sI223
Fnan
sI224
Fnan
sI225
Fnan
sI226
Fnan
sI227
Fnan
sI228
Fnan
sI229
Fnan
sI230
Fnan
sI231
Fnan
sI232
Fnan
sI233
Fnan
sI234
Fnan
sI235
Fnan
sI236
Fnan
sI237
Fnan
sI238
Fnan
sI239
Fnan
sI120
Fnan
sI121
Fnan
sI122
Fnan
sI123
Fnan
sI124
Fnan
sI125
Fnan
sI126
Fnan
sI127
Fnan
ssg15
(dp45
I0
Fnan
sI128
F0.002
sI130
F0.002
sI131
F0.001
sI132
F0.002
sI133
F0.002
sI134
F0.002
sI129
F0.002
sI136
F0.002
sI137
F0.002
sI138
F0.002
sI139
F0.001
sI20
F0.002
sI21
F0.002
sI22
F0.002
sI23
F0.001
sI24
F0.002
sI25
F0.002
sI26
F0.001
sI27
F0.001
sI28
F0.002
sI29
F0.002
sI30
F0.001
sI31
F0.001
sI32
F0.002
sI33
F0.002
sI34
F0.001
sI35
F0.001
sI36
F0.002
sI37
F0.002
sI38
F0.001
sI39
F0.001
sI135
F0.001
sI220
F0.002
sI221
F0.002
sI222
F0.001
sI223
F0.001
sI224
F0.002
sI225
F0.002
sI226
F0.001
sI227
F0.001
sI228
F0.002
sI229
F0.002
sI230
F0.001
sI231
F0.001
sI232
F0.002
sI233
F0.002
sI234
F0.002
sI235
F0.001
sI236
F0.002
sI237
F0.002
sI238
F0.002
sI239
F0.001
sI120
F0.002
sI121
F0.002
sI122
F0.002
sI123
F0.001
sI124
F0.002
sI125
F0.002
sI126
F0.002
sI127
F0.001
ssg17
(dp46
I0
Fnan
sI128
S"r'"
p47
sI130
g47
sI131
g47
sI132
g47
sI133
g47
sI134
g47
sI129
g47
sI136
g47
sI137
g47
sI138
g47
sI139
g47
sI20
g47
sI21
g47
sI22
g47
sI23
g47
sI24
g47
sI25
g47
sI26
g47
sI27
g47
sI28
g47
sI29
g47
sI30
g47
sI31
g47
sI32
g47
sI33
g47
sI34
g47
sI35
g47
sI36
g47
sI37
g47
sI38
g47
sI39
g47
sI135
g47
sI220
g47
sI221
g47
sI222
g47
sI223
g47
sI224
g47
sI225
g47
sI226
g47
sI227
g47
sI228
g47
sI229
g47
sI230
g47
sI231
g47
sI232
g47
sI233
g47
sI234
g47
sI235
g47
sI236
g47
sI237
g47
sI238
g47
sI239
g47
sI120
g47
sI121
g47
sI122
g47
sI123
g47
sI124
g47
sI125
g47
sI126
g47
sI127
g47
ssg20
(dp48
I0
Fnan
sI128
Fnan
sI130
Fnan
sI131
Fnan
sI132
Fnan
sI133
F12657.01
sI134
Fnan
sI129
F12460.953333333333
sI136
Fnan
sI137
F12794.373333333333
sI138
Fnan
sI139
Fnan
sI20
Fnan
sI21
F12524.34
sI22
Fnan
sI23
Fnan
sI24
Fnan
sI25
F12825.433333333332
sI26
Fnan
sI27
Fnan
sI28
Fnan
sI29
F12692.473333333333
sI30
Fnan
sI31
Fnan
sI32
Fnan
sI33
F12796.173333333334
sI34
Fnan
sI35
Fnan
sI36
Fnan
sI37
F12685.296666666667
sI38
Fnan
sI39
Fnan
sI135
Fnan
sI220
Fnan
sI221
F13012.193333333333
sI222
Fnan
sI223
Fnan
sI224
Fnan
sI225
F12962.356666666667
sI226
Fnan
sI227
Fnan
sI228
Fnan
sI229
F12783.69
sI230
Fnan
sI231
Fnan
sI232
Fnan
sI233
F12747.636666666665
sI234
Fnan
sI235
Fnan
sI236
Fnan
sI237
F12715.603333333333
sI238
Fnan
sI239
Fnan
sI120
Fnan
sI121
F12385.06
sI122
Fnan
sI123
Fnan
sI124
Fnan
sI125
F12495.56
sI126
Fnan
sI127
Fnan
ssg22
(dp49
I0
Fnan
sI128
g24
sI130
g24
sI131
g24
sI132
g24
sI133
g24
sI134
g24
sI129
g24
sI136
g24
sI137
g24
sI138
g24
sI139
g24
sI20
g24
sI21
g24
sI22
g24
sI23
g24
sI24
g24
sI25
g24
sI26
g24
sI27
g24
sI28
g24
sI29
g24
sI30
g24
sI31
g24
sI32
g24
sI33
g24
sI34
g24
sI35
g24
sI36
g24
sI37
g24
sI38
g24
sI39
g24
sI135
g24
sI220
g24
sI221
g24
sI222
g24
sI223
g24
sI224
g24
sI225
g24
sI226
g24
sI227
g24
sI228
g24
sI229
g24
sI230
g24
sI231
g24
sI232
g24
sI233
g24
sI234
g24
sI235
g24
sI236
g24
sI237
g24
sI238
g24
sI239
g24
sI120
g24
sI121
g24
sI122
g24
sI123
g24
sI124
g24
sI125
g24
sI126
g24
sI127
g24
ssg25
(dp50
I0
Fnan
sI128
F11.092
sI130
F10.585999999999999
sI131
F10.232999999999999
sI132
F11.083
sI133
F10.744000000000002
sI134
F10.565
sI129
F10.761
sI136
F11.07
sI137
F10.732000000000001
sI138
F10.555
sI139
F10.216000000000001
sI20
F11.142000000000001
sI21
F10.755999999999998
sI22
F10.579
sI23
F10.225
sI24
F11.124
sI25
F10.73
sI26
F10.559000000000001
sI27
F10.208
sI28
F11.130999999999998
sI29
F10.741
sI30
F10.564
sI31
F10.212
sI32
F11.128
sI33
F10.732000000000001
sI34
F10.557
sI35
F10.204
sI36
F11.136
sI37
F10.742
sI38
F10.567
sI39
F10.212
sI135
F10.214
sI220
F11.113
sI221
F10.714
sI222
F10.543
sI223
F10.195
sI224
F11.107999999999999
sI225
F10.718
sI226
F10.540999999999999
sI227
F10.197000000000001
sI228
F11.128
sI229
F10.732999999999999
sI230
F10.558
sI231
F10.205
sI232
F11.124
sI233
F10.735999999999999
sI234
F10.558
sI235
F10.201
sI236
F11.135
sI237
F10.739
sI238
F10.569
sI239
F10.213
sI120
F11.094000000000001
sI121
F10.767999999999999
sI122
F10.58
sI123
F10.225
sI124
F11.095999999999998
sI125
F10.758
sI126
F10.592
sI127
F10.241
ssg27
(dp51
I0
Fnan
sI128
F9189.156666666668
sI130
Fnan
sI131
Fnan
sI132
F9264.0
sI133
Fnan
sI134
Fnan
sI129
Fnan
sI136
F9374.113333333335
sI137
Fnan
sI138
Fnan
sI139
Fnan
sI20
F8770.253333333332
sI21
Fnan
sI22
Fnan
sI23
Fnan
sI24
F8918.126666666667
sI25
Fnan
sI26
Fnan
sI27
Fnan
sI28
F8863.123333333333
sI29
Fnan
sI30
Fnan
sI31
Fnan
sI32
F8886.936666666666
sI33
Fnan
sI34
Fnan
sI35
Fnan
sI36
F8819.166666666666
sI37
Fnan
sI38
Fnan
sI39
Fnan
sI135
Fnan
sI220
F9007.783333333333
sI221
Fnan
sI222
Fnan
sI223
Fnan
sI224
F9054.326666666666
sI225
Fnan
sI226
Fnan
sI227
Fnan
sI228
F8888.806666666667
sI229
Fnan
sI230
Fnan
sI231
Fnan
sI232
F8924.443333333333
sI233
Fnan
sI234
Fnan
sI235
Fnan
sI236
F8829.733333333334
sI237
Fnan
sI238
Fnan
sI239
Fnan
sI120
F9168.766666666666
sI121
Fnan
sI122
Fnan
sI123
Fnan
sI124
F9153.79
sI125
Fnan
sI126
Fnan
sI127
Fnan
ssg29
(dp52
I0
Fnan
sI128
Fnan
sI130
Fnan
sI131
F20258.789999999997
sI132
Fnan
sI133
Fnan
sI134
Fnan
sI129
Fnan
sI136
Fnan
sI137
Fnan
sI138
Fnan
sI139
F20590.503333333334
sI20
Fnan
sI21
Fnan
sI22
Fnan
sI23
F20411.460000000003
sI24
Fnan
sI25
Fnan
sI26
Fnan
sI27
F20747.363333333335
sI28
Fnan
sI29
Fnan
sI30
Fnan
sI31
F20668.946666666667
sI32
Fnan
sI33
Fnan
sI34
Fnan
sI35
F20806.956666666665
sI36
Fnan
sI37
Fnan
sI38
Fnan
sI39
F20666.45333333333
sI135
F20632.336666666666
sI220
Fnan
sI221
Fnan
sI222
Fnan
sI223
F20993.54666666667
sI224
Fnan
sI225
Fnan
sI226
Fnan
sI227
F20954.6
sI228
Fnan
sI229
Fnan
sI230
Fnan
sI231
F20800.7
sI232
Fnan
sI233
Fnan
sI234
Fnan
sI235
F20875.510000000002
sI236
Fnan
sI237
Fnan
sI238
Fnan
sI239
F20640.460000000003
sI120
Fnan
sI121
Fnan
sI122
Fnan
sI123
F20409.206666666665
sI124
Fnan
sI125
Fnan
sI126
Fnan
sI127
F20118.146666666667
ssg31
(dp53
I0
Fnan
sI128
F2458380.6754976846
sI130
F2458380.6754976846
sI131
F2458380.6754976846
sI132
F2458380.676238426
sI133
F2458380.676238426
sI134
F2458380.676238426
sI129
F2458380.6754976846
sI136
F2458380.6769791665
sI137
F2458380.6769791665
sI138
F2458380.6769791665
sI139
F2458380.6769791665
sI20
F2458380.6553703705
sI21
F2458380.6553703705
sI22
F2458380.6553703705
sI23
F2458380.6553703705
sI24
F2458380.656099537
sI25
F2458380.656099537
sI26
F2458380.656099537
sI27
F2458380.656099537
sI28
F2458380.6568287043
sI29
F2458380.6568287043
sI30
F2458380.6568287043
sI31
F2458380.6568287043
sI32
F2458380.6575694443
sI33
F2458380.6575694443
sI34
F2458380.6575694443
sI35
F2458380.6575694443
sI36
F2458380.658298611
sI37
F2458380.658298611
sI38
F2458380.658298611
sI39
F2458380.658298611
sI135
F2458380.676238426
sI220
F2458380.6927662035
sI221
F2458380.6927662035
sI222
F2458380.6927662035
sI223
F2458380.6927662035
sI224
F2458380.6934953704
sI225
F2458380.6934953704
sI226
F2458380.6934953704
sI227
F2458380.6934953704
sI228
F2458380.694224537
sI229
F2458380.694224537
sI230
F2458380.694224537
sI231
F2458380.694224537
sI232
F2458380.6949652773
sI233
F2458380.6949652773
sI234
F2458380.6949652773
sI235
F2458380.6949652773
sI236
F2458380.6956944442
sI237
F2458380.6956944442
sI238
F2458380.6956944442
sI239
F2458380.6956944442
sI120
F2458380.6740277773
sI121
F2458380.6740277773
sI122
F2458380.6740277773
sI123
F2458380.6740277773
sI124
F2458380.6747569446
sI125
F2458380.6747569446
sI126
F2458380.6747569446
sI127
F2458380.6747569446
ssg33
(dp54
I0
Fnan
sI128
F0.19401282150442076
sI130
Fnan
sI131
Fnan
sI132
F0.19212836431165858
sI133
Fnan
sI134
Fnan
sI129
Fnan
sI136
F0.19346260861932166
sI137
Fnan
sI138
Fnan
sI139
Fnan
sI20
F0.18396093009246092
sI21
Fnan
sI22
Fnan
sI23
Fnan
sI24
F0.1835775681745215
sI25
Fnan
sI26
Fnan
sI27
Fnan
sI28
F0.18348662662022738
sI29
Fnan
sI30
Fnan
sI31
Fnan
sI32
F0.18270270492525076
sI33
Fnan
sI34
Fnan
sI35
Fnan
sI36
F0.18276330799411508
sI37
Fnan
sI38
Fnan
sI39
Fnan
sI135
Fnan
sI220
F0.1829305771779951
sI221
Fnan
sI222
Fnan
sI223
Fnan
sI224
F0.18409173268719434
sI225
Fnan
sI226
Fnan
sI227
Fnan
sI228
F0.1828401221127335
sI229
Fnan
sI230
Fnan
sI231
Fnan
sI232
F0.18342995607957333
sI233
Fnan
sI234
Fnan
sI235
Fnan
sI236
F0.1830571073187253
sI237
Fnan
sI238
Fnan
sI239
Fnan
sI120
F0.19296650174264965
sI121
Fnan
sI122
Fnan
sI123
Fnan
sI124
F0.19405470359552143
sI125
Fnan
sI126
Fnan
sI127
Fnan
ssg35
(dp55
I0
Fnan
sI128
F30.0
sI130
F30.0
sI131
F30.0
sI132
F30.0
sI133
F30.0
sI134
F30.0
sI129
F30.0
sI136
F30.0
sI137
F30.0
sI138
F30.0
sI139
F30.0
sI20
F30.0
sI21
F30.0
sI22
F30.0
sI23
F30.0
sI24
F30.0
sI25
F30.0
sI26
F30.0
sI27
F30.0
sI28
F30.0
sI29
F30.0
sI30
F30.0
sI31
F30.0
sI32
F30.0
sI33
F30.0
sI34
F30.0
sI35
F30.0
sI36
F30.0
sI37
F30.0
sI38
F30.0
sI39
F30.0
sI135
F30.0
sI220
F30.0
sI221
F30.0
sI222
F30.0
sI223
F30.0
sI224
F30.0
sI225
F30.0
sI226
F30.0
sI227
F30.0
sI228
F30.0
sI229
F30.0
sI230
F30.0
sI231
F30.0
sI232
F30.0
sI233
F30.0
sI234
F30.0
sI235
F30.0
sI236
F30.0
sI237
F30.0
sI238
F30.0
sI239
F30.0
sI120
F30.0
sI121
F30.0
sI122
F30.0
sI123
F30.0
sI124
F30.0
sI125
F30.0
sI126
F30.0
sI127
F30.0
sssS'z'
p56
(dp57
g3
(dp58
I0
F2458380.6828935184
sI260
Fnan
sI261
Fnan
sI262
Fnan
sI263
Fnan
sI264
Fnan
sI265
Fnan
sI266
Fnan
sI267
Fnan
sI268
Fnan
sI269
Fnan
sI270
Fnan
sI271
Fnan
sI272
Fnan
sI273
Fnan
sI274
Fnan
sI275
Fnan
sI276
Fnan
sI277
Fnan
sI278
Fnan
sI279
Fnan
sI160
Fnan
sI161
Fnan
sI162
Fnan
sI163
Fnan
sI164
Fnan
sI165
Fnan
sI166
Fnan
sI167
Fnan
sI168
Fnan
sI169
Fnan
sI170
Fnan
sI171
Fnan
sI172
Fnan
sI173
Fnan
sI174
Fnan
sI175
Fnan
sI176
Fnan
sI177
Fnan
sI178
Fnan
sI179
Fnan
sI60
Fnan
sI61
Fnan
sI62
Fnan
sI63
Fnan
sI64
Fnan
sI65
Fnan
sI66
Fnan
sI67
Fnan
sI68
Fnan
sI69
Fnan
sI70
Fnan
sI71
Fnan
sI72
Fnan
sI73
Fnan
sI74
Fnan
sI75
Fnan
sI76
Fnan
sI77
Fnan
sI78
Fnan
sI79
Fnan
ssg5
(dp59
I0
Fnan
sI260
F1.022374
sI261
F1.022374
sI262
F1.022374
sI263
F1.022374
sI264
F1.023044
sI265
F1.023044
sI266
F1.023044
sI267
F1.023044
sI268
F1.023726
sI269
F1.023726
sI270
F1.023726
sI271
F1.023726
sI272
F1.024427
sI273
F1.024427
sI274
F1.024427
sI275
F1.024427
sI276
F1.025141
sI277
F1.025141
sI278
F1.025141
sI279
F1.025141
sI160
F1.009551
sI161
F1.009551
sI162
F1.009551
sI163
F1.009551
sI164
F1.0099049999999998
sI165
F1.0099049999999998
sI166
F1.0099049999999998
sI167
F1.0099049999999998
sI168
F1.010268
sI169
F1.010268
sI170
F1.010268
sI171
F1.010268
sI172
F1.0106469999999999
sI173
F1.0106469999999999
sI174
F1.0106469999999999
sI175
F1.0106469999999999
sI176
F1.011036
sI177
F1.011036
sI178
F1.011036
sI179
F1.011036
sI60
F1.0047
sI61
F1.0047
sI62
F1.0047
sI63
F1.0047
sI64
F1.004744
sI65
F1.004744
sI66
F1.004744
sI67
F1.004744
sI68
F1.0048
sI69
F1.0048
sI70
F1.0048
sI71
F1.0048
sI72
F1.004868
sI73
F1.004868
sI74
F1.004868
sI75
F1.004868
sI76
F1.004947
sI77
F1.004947
sI78
F1.004947
sI79
F1.004947
ssg7
(dp60
I0
Fnan
sI260
Fnan
sI261
Fnan
sI262
F3409.6666666666665
sI263
Fnan
sI264
Fnan
sI265
Fnan
sI266
F3362.616666666667
sI267
Fnan
sI268
Fnan
sI269
Fnan
sI270
F3324.3269999999998
sI271
Fnan
sI272
Fnan
sI273
Fnan
sI274
F3324.085666666667
sI275
Fnan
sI276
Fnan
sI277
Fnan
sI278
F3332.875333333333
sI279
Fnan
sI160
Fnan
sI161
Fnan
sI162
F3341.0333333333333
sI163
Fnan
sI164
Fnan
sI165
Fnan
sI166
F3255.8126666666667
sI167
Fnan
sI168
Fnan
sI169
Fnan
sI170
F3292.0043333333333
sI171
Fnan
sI172
Fnan
sI173
Fnan
sI174
F3329.912333333333
sI175
Fnan
sI176
Fnan
sI177
Fnan
sI178
F3339.4566666666665
sI179
Fnan
sI60
Fnan
sI61
Fnan
sI62
F3352.27
sI63
Fnan
sI64
Fnan
sI65
Fnan
sI66
F3184.596
sI67
Fnan
sI68
Fnan
sI69
Fnan
sI70
F3339.5133333333333
sI71
Fnan
sI72
Fnan
sI73
Fnan
sI74
F3353.9966666666664
sI75
Fnan
sI76
Fnan
sI77
Fnan
sI78
F3392.6133333333332
sI79
Fnan
ssg9
(dp61
I0
Fnan
sI260
F40286.25
sI261
F83410.45
sI262
F102290.0
sI263
F139714.5
sI264
F39858.79
sI265
F82511.58
sI266
F100878.5
sI267
F136979.5
sI268
F39062.7
sI269
F81475.21
sI270
F99729.81
sI271
F137282.3
sI272
F38998.34
sI273
F80480.07
sI274
F99722.57
sI275
F135350.5
sI276
F39142.84
sI277
F81971.32
sI278
F99986.26
sI279
F137258.9
sI160
F39914.4
sI161
F82199.46
sI162
F100231.0
sI163
F136119.9
sI164
F38791.6
sI165
F79892.61
sI166
F97674.38
sI167
F133874.2
sI168
F38329.43
sI169
F79968.72
sI170
F98760.13
sI171
F133776.9
sI172
F39480.0
sI173
F82192.6
sI174
F99897.37
sI175
F137453.0
sI176
F38693.23
sI177
F81426.13
sI178
F100183.7
sI179
F136871.7
sI60
F39573.3
sI61
F82042.98
sI62
F100568.1
sI63
F138002.1
sI64
F38140.32
sI65
F78623.73
sI66
F95537.88
sI67
F131191.3
sI68
F39305.57
sI69
F82382.48
sI70
F100185.4
sI71
F138562.3
sI72
F39740.78
sI73
F82879.32
sI74
F100619.9
sI75
F137773.4
sI76
F39752.27
sI77
F82670.98
sI78
F101778.4
sI79
F137772.5
ssg11
(dp62
I0
F0.1234950890517703
sI260
Fnan
sI261
Fnan
sI262
Fnan
sI263
Fnan
sI264
Fnan
sI265
Fnan
sI266
Fnan
sI267
Fnan
sI268
Fnan
sI269
Fnan
sI270
Fnan
sI271
Fnan
sI272
Fnan
sI273
Fnan
sI274
Fnan
sI275
Fnan
sI276
Fnan
sI277
Fnan
sI278
Fnan
sI279
Fnan
sI160
Fnan
sI161
Fnan
sI162
Fnan
sI163
Fnan
sI164
Fnan
sI165
Fnan
sI166
Fnan
sI167
Fnan
sI168
Fnan
sI169
Fnan
sI170
Fnan
sI171
Fnan
sI172
Fnan
sI173
Fnan
sI174
Fnan
sI175
Fnan
sI176
Fnan
sI177
Fnan
sI178
Fnan
sI179
Fnan
sI60
Fnan
sI61
Fnan
sI62
Fnan
sI63
Fnan
sI64
Fnan
sI65
Fnan
sI66
Fnan
sI67
Fnan
sI68
Fnan
sI69
Fnan
sI70
Fnan
sI71
Fnan
sI72
Fnan
sI73
Fnan
sI74
Fnan
sI75
Fnan
sI76
Fnan
sI77
Fnan
sI78
Fnan
sI79
Fnan
ssg13
(dp63
I0
F0.0010276136767769944
sI260
Fnan
sI261
Fnan
sI262
Fnan
sI263
Fnan
sI264
Fnan
sI265
Fnan
sI266
Fnan
sI267
Fnan
sI268
Fnan
sI269
Fnan
sI270
Fnan
sI271
Fnan
sI272
Fnan
sI273
Fnan
sI274
Fnan
sI275
Fnan
sI276
Fnan
sI277
Fnan
sI278
Fnan
sI279
Fnan
sI160
Fnan
sI161
Fnan
sI162
Fnan
sI163
Fnan
sI164
Fnan
sI165
Fnan
sI166
Fnan
sI167
Fnan
sI168
Fnan
sI169
Fnan
sI170
Fnan
sI171
Fnan
sI172
Fnan
sI173
Fnan
sI174
Fnan
sI175
Fnan
sI176
Fnan
sI177
Fnan
sI178
Fnan
sI179
Fnan
sI60
Fnan
sI61
Fnan
sI62
Fnan
sI63
Fnan
sI64
Fnan
sI65
Fnan
sI66
Fnan
sI67
Fnan
sI68
Fnan
sI69
Fnan
sI70
Fnan
sI71
Fnan
sI72
Fnan
sI73
Fnan
sI74
Fnan
sI75
Fnan
sI76
Fnan
sI77
Fnan
sI78
Fnan
sI79
Fnan
ssg15
(dp64
I0
Fnan
sI260
F0.006999999999999999
sI261
F0.004
sI262
F0.003
sI263
F0.003
sI264
F0.006999999999999999
sI265
F0.004
sI266
F0.004
sI267
F0.003
sI268
F0.006999999999999999
sI269
F0.004
sI270
F0.004
sI271
F0.003
sI272
F0.006999999999999999
sI273
F0.004
sI274
F0.004
sI275
F0.003
sI276
F0.006999999999999999
sI277
F0.004
sI278
F0.004
sI279
F0.003
sI160
F0.006999999999999999
sI161
F0.004
sI162
F0.004
sI163
F0.003
sI164
F0.006999999999999999
sI165
F0.004
sI166
F0.004
sI167
F0.003
sI168
F0.006999999999999999
sI169
F0.004
sI170
F0.004
sI171
F0.003
sI172
F0.006999999999999999
sI173
F0.004
sI174
F0.004
sI175
F0.003
sI176
F0.006999999999999999
sI177
F0.004
sI178
F0.004
sI179
F0.003
sI60
F0.006999999999999999
sI61
F0.004
sI62
F0.003
sI63
F0.003
sI64
F0.006999999999999999
sI65
F0.004
sI66
F0.004
sI67
F0.003
sI68
F0.006999999999999999
sI69
F0.004
sI70
F0.004
sI71
F0.003
sI72
F0.006
sI73
F0.004
sI74
F0.004
sI75
F0.003
sI76
F0.006999999999999999
sI77
F0.004
sI78
F0.003
sI79
F0.003
ssg17
(dp65
I0
Fnan
sI260
S"z'"
p66
sI261
g66
sI262
g66
sI263
g66
sI264
g66
sI265
g66
sI266
g66
sI267
g66
sI268
g66
sI269
g66
sI270
g66
sI271
g66
sI272
g66
sI273
g66
sI274
g66
sI275
g66
sI276
g66
sI277
g66
sI278
g66
sI279
g66
sI160
g66
sI161
g66
sI162
g66
sI163
g66
sI164
g66
sI165
g66
sI166
g66
sI167
g66
sI168
g66
sI169
g66
sI170
g66
sI171
g66
sI172
g66
sI173
g66
sI174
g66
sI175
g66
sI176
g66
sI177
g66
sI178
g66
sI179
g66
sI60
g66
sI61
g66
sI62
g66
sI63
g66
sI64
g66
sI65
g66
sI66
g66
sI67
g66
sI68
g66
sI69
g66
sI70
g66
sI71
g66
sI72
g66
sI73
g66
sI74
g66
sI75
g66
sI76
g66
sI77
g66
sI78
g66
sI79
g66
ssg20
(dp67
I0
Fnan
sI260
Fnan
sI261
F2780.3483333333334
sI262
Fnan
sI263
Fnan
sI264
Fnan
sI265
F2750.386
sI266
Fnan
sI267
Fnan
sI268
Fnan
sI269
F2715.8403333333335
sI270
Fnan
sI271
Fnan
sI272
Fnan
sI273
F2682.6690000000003
sI274
Fnan
sI275
Fnan
sI276
Fnan
sI277
F2732.3773333333334
sI278
Fnan
sI279
Fnan
sI160
Fnan
sI161
F2739.9820000000004
sI162
Fnan
sI163
Fnan
sI164
Fnan
sI165
F2663.087
sI166
Fnan
sI167
Fnan
sI168
Fnan
sI169
F2665.6240000000003
sI170
Fnan
sI171
Fnan
sI172
Fnan
sI173
F2739.7533333333336
sI174
Fnan
sI175
Fnan
sI176
Fnan
sI177
F2714.2043333333336
sI178
Fnan
sI179
Fnan
sI60
Fnan
sI61
F2734.766
sI62
Fnan
sI63
Fnan
sI64
Fnan
sI65
F2620.7909999999997
sI66
Fnan
sI67
Fnan
sI68
Fnan
sI69
F2746.0826666666667
sI70
Fnan
sI71
Fnan
sI72
Fnan
sI73
F2762.6440000000002
sI74
Fnan
sI75
Fnan
sI76
Fnan
sI77
F2755.699333333333
sI78
Fnan
sI79
Fnan
ssg22
(dp68
I0
Fnan
sI260
g24
sI261
g24
sI262
g24
sI263
g24
sI264
g24
sI265
g24
sI266
g24
sI267
g24
sI268
g24
sI269
g24
sI270
g24
sI271
g24
sI272
g24
sI273
g24
sI274
g24
sI275
g24
sI276
g24
sI277
g24
sI278
g24
sI279
g24
sI160
g24
sI161
g24
sI162
g24
sI163
g24
sI164
g24
sI165
g24
sI166
g24
sI167
g24
sI168
g24
sI169
g24
sI170
g24
sI171
g24
sI172
g24
sI173
g24
sI174
g24
sI175
g24
sI176
g24
sI177
g24
sI178
g24
sI179
g24
sI60
g24
sI61
g24
sI62
g24
sI63
g24
sI64
g24
sI65
g24
sI66
g24
sI67
g24
sI68
g24
sI69
g24
sI70
g24
sI71
g24
sI72
g24
sI73
g24
sI74
g24
sI75
g24
sI76
g24
sI77
g24
sI78
g24
sI79
g24
ssg25
(dp69
I0
Fnan
sI260
F13.18
sI261
F12.39
sI262
F12.168
sI263
F11.83
sI264
F13.190999999999999
sI265
F12.402000000000001
sI266
F12.183
sI267
F11.850999999999999
sI268
F13.213
sI269
F12.415
sI270
F12.196
sI271
F11.849
sI272
F13.215
sI273
F12.429
sI274
F12.196
sI275
F11.864
sI276
F13.210999999999999
sI277
F12.409
sI278
F12.193
sI279
F11.849
sI160
F13.19
sI161
F12.405999999999999
sI162
F12.19
sI163
F11.857999999999999
sI164
F13.220999999999998
sI165
F12.437000000000001
sI166
F12.218
sI167
F11.876
sI168
F13.234000000000002
sI169
F12.436
sI170
F12.206
sI171
F11.877
sI172
F13.202
sI173
F12.405999999999999
sI174
F12.194
sI175
F11.847000000000001
sI176
F13.224
sI177
F12.415999999999999
sI178
F12.190999999999999
sI179
F11.852
sI60
F13.199000000000002
sI61
F12.408
sI62
F12.187000000000001
sI63
F11.843
sI64
F13.239
sI65
F12.454
sI66
F12.242
sI67
F11.898
sI68
F13.207
sI69
F12.402999999999999
sI70
F12.190999999999999
sI71
F11.839
sI72
F13.195
sI73
F12.397
sI74
F12.186
sI75
F11.845
sI76
F13.194
sI77
F12.399000000000001
sI78
F12.174000000000001
sI79
F11.845
ssg27
(dp70
I0
Fnan
sI260
F1342.875
sI261
Fnan
sI262
Fnan
sI263
Fnan
sI264
F1328.6263333333334
sI265
Fnan
sI266
Fnan
sI267
Fnan
sI268
F1302.09
sI269
Fnan
sI270
Fnan
sI271
Fnan
sI272
F1299.9446666666665
sI273
Fnan
sI274
Fnan
sI275
Fnan
sI276
F1304.7613333333331
sI277
Fnan
sI278
Fnan
sI279
Fnan
sI160
F1330.48
sI161
Fnan
sI162
Fnan
sI163
Fnan
sI164
F1293.0533333333333
sI165
Fnan
sI166
Fnan
sI167
Fnan
sI168
F1277.6476666666667
sI169
Fnan
sI170
Fnan
sI171
Fnan
sI172
F1316.0
sI173
Fnan
sI174
Fnan
sI175
Fnan
sI176
F1289.7743333333335
sI177
Fnan
sI178
Fnan
sI179
Fnan
sI60
F1319.1100000000001
sI61
Fnan
sI62
Fnan
sI63
Fnan
sI64
F1271.344
sI65
Fnan
sI66
Fnan
sI67
Fnan
sI68
F1310.1856666666667
sI69
Fnan
sI70
Fnan
sI71
Fnan
sI72
F1324.6926666666666
sI73
Fnan
sI74
Fnan
sI75
Fnan
sI76
F1325.0756666666666
sI77
Fnan
sI78
Fnan
sI79
Fnan
ssg29
(dp71
I0
Fnan
sI260
Fnan
sI261
Fnan
sI262
Fnan
sI263
F4657.15
sI264
Fnan
sI265
Fnan
sI266
Fnan
sI267
F4565.983333333334
sI268
Fnan
sI269
Fnan
sI270
Fnan
sI271
F4576.076666666666
sI272
Fnan
sI273
Fnan
sI274
Fnan
sI275
F4511.683333333333
sI276
Fnan
sI277
Fnan
sI278
Fnan
sI279
F4575.296666666666
sI160
Fnan
sI161
Fnan
sI162
Fnan
sI163
F4537.33
sI164
Fnan
sI165
Fnan
sI166
Fnan
sI167
F4462.473333333333
sI168
Fnan
sI169
Fnan
sI170
Fnan
sI171
F4459.23
sI172
Fnan
sI173
Fnan
sI174
Fnan
sI175
F4581.766666666666
sI176
Fnan
sI177
Fnan
sI178
Fnan
sI179
F4562.39
sI60
Fnan
sI61
Fnan
sI62
Fnan
sI63
F4600.070000000001
sI64
Fnan
sI65
Fnan
sI66
Fnan
sI67
F4373.043333333333
sI68
Fnan
sI69
Fnan
sI70
Fnan
sI71
F4618.743333333333
sI72
Fnan
sI73
Fnan
sI74
Fnan
sI75
F4592.446666666667
sI76
Fnan
sI77
Fnan
sI78
Fnan
sI79
F4592.416666666667
ssg31
(dp72
I0
Fnan
sI260
F2458380.700162037
sI261
F2458380.700162037
sI262
F2458380.700162037
sI263
F2458380.700162037
sI264
F2458380.700891204
sI265
F2458380.700891204
sI266
F2458380.700891204
sI267
F2458380.700891204
sI268
F2458380.7016319446
sI269
F2458380.7016319446
sI270
F2458380.7016319446
sI271
F2458380.7016319446
sI272
F2458380.7023726846
sI273
F2458380.7023726846
sI274
F2458380.7023726846
sI275
F2458380.7023726846
sI276
F2458380.703101852
sI277
F2458380.703101852
sI278
F2458380.703101852
sI279
F2458380.703101852
sI160
F2458380.681412037
sI161
F2458380.681412037
sI162
F2458380.681412037
sI163
F2458380.681412037
sI164
F2458380.6821527774
sI165
F2458380.6821527774
sI166
F2458380.6821527774
sI167
F2458380.6821527774
sI168
F2458380.6828935184
sI169
F2458380.6828935184
sI170
F2458380.6828935184
sI171
F2458380.6828935184
sI172
F2458380.6836342597
sI173
F2458380.6836342597
sI174
F2458380.6836342597
sI175
F2458380.6836342597
sI176
F2458380.684375
sI177
F2458380.684375
sI178
F2458380.684375
sI179
F2458380.684375
sI60
F2458380.6627314813
sI61
F2458380.6627314813
sI62
F2458380.6627314813
sI63
F2458380.6627314813
sI64
F2458380.6634722226
sI65
F2458380.6634722226
sI66
F2458380.6634722226
sI67
F2458380.6634722226
sI68
F2458380.664212963
sI69
F2458380.664212963
sI70
F2458380.664212963
sI71
F2458380.664212963
sI72
F2458380.664942129
sI73
F2458380.664942129
sI74
F2458380.664942129
sI75
F2458380.664942129
sI76
F2458380.6656712964
sI77
F2458380.6656712964
sI78
F2458380.6656712964
sI79
F2458380.6656712964
ssg33
(dp73
I0
Fnan
sI260
F0.12379962875092249
sI261
Fnan
sI262
Fnan
sI263
Fnan
sI264
F0.12441502716955835
sI265
Fnan
sI266
Fnan
sI267
Fnan
sI268
F0.12265072279800654
sI269
Fnan
sI270
Fnan
sI271
Fnan
sI272
F0.12358723478397328
sI273
Fnan
sI274
Fnan
sI275
Fnan
sI276
F0.1226216140219327
sI277
Fnan
sI278
Fnan
sI279
Fnan
sI160
F0.12530012522980666
sI161
Fnan
sI162
Fnan
sI163
Fnan
sI164
F0.1245551367177861
sI165
Fnan
sI166
Fnan
sI167
Fnan
sI168
F0.12265191920468664
sI169
Fnan
sI170
Fnan
sI171
Fnan
sI172
F0.1235514585096333
sI173
Fnan
sI174
Fnan
sI175
Fnan
sI176
F0.12149285391840464
sI177
Fnan
sI178
Fnan
sI179
Fnan
sI60
F0.12343004738607441
sI61
Fnan
sI62
Fnan
sI63
Fnan
sI64
F0.12490570337122381
sI65
Fnan
sI66
Fnan
sI67
Fnan
sI68
F0.12239762080287814
sI69
Fnan
sI70
Fnan
sI71
Fnan
sI72
F0.12369799829191794
sI73
Fnan
sI74
Fnan
sI75
Fnan
sI76
F0.12336924481974967
sI77
Fnan
sI78
Fnan
sI79
Fnan
ssg35
(dp74
I0
Fnan
sI260
F30.0
sI261
F30.0
sI262
F30.0
sI263
F30.0
sI264
F30.0
sI265
F30.0
sI266
F30.0
sI267
F30.0
sI268
F30.0
sI269
F30.0
sI270
F30.0
sI271
F30.0
sI272
F30.0
sI273
F30.0
sI274
F30.0
sI275
F30.0
sI276
F30.0
sI277
F30.0
sI278
F30.0
sI279
F30.0
sI160
F30.0
sI161
F30.0
sI162
F30.0
sI163
F30.0
sI164
F30.0
sI165
F30.0
sI166
F30.0
sI167
F30.0
sI168
F30.0
sI169
F30.0
sI170
F30.0
sI171
F30.0
sI172
F30.0
sI173
F30.0
sI174
F30.0
sI175
F30.0
sI176
F30.0
sI177
F30.0
sI178
F30.0
sI179
F30.0
sI60
F30.0
sI61
F30.0
sI62
F30.0
sI63
F30.0
sI64
F30.0
sI65
F30.0
sI66
F30.0
sI67
F30.0
sI68
F30.0
sI69
F30.0
sI70
F30.0
sI71
F30.0
sI72
F30.0
sI73
F30.0
sI74
F30.0
sI75
F30.0
sI76
F30.0
sI77
F30.0
sI78
F30.0
sI79
F30.0
sssS'g'
p75
(dp76
g3
(dp77
I0
F2458380.671817129
sI1
Fnan
sI2
Fnan
sI3
Fnan
sI4
Fnan
sI5
Fnan
sI6
Fnan
sI7
Fnan
sI8
Fnan
sI9
Fnan
sI10
Fnan
sI11
Fnan
sI12
Fnan
sI13
Fnan
sI14
Fnan
sI15
Fnan
sI16
Fnan
sI17
Fnan
sI18
Fnan
sI19
Fnan
sI200
Fnan
sI201
Fnan
sI202
Fnan
sI203
Fnan
sI204
Fnan
sI205
Fnan
sI206
Fnan
sI207
Fnan
sI208
Fnan
sI209
Fnan
sI210
Fnan
sI211
Fnan
sI212
Fnan
sI213
Fnan
sI214
Fnan
sI215
Fnan
sI216
Fnan
sI217
Fnan
sI218
Fnan
sI219
Fnan
sI100
Fnan
sI101
Fnan
sI102
Fnan
sI103
Fnan
sI104
Fnan
sI105
Fnan
sI106
Fnan
sI107
Fnan
sI108
Fnan
sI109
Fnan
sI110
Fnan
sI111
Fnan
sI112
Fnan
sI113
Fnan
sI114
Fnan
sI115
Fnan
sI116
Fnan
sI117
Fnan
sI118
Fnan
sI119
Fnan
ssg5
(dp78
I0
F1.005484
sI1
F1.005484
sI2
F1.005484
sI3
F1.005484
sI4
F1.005348
sI5
F1.005348
sI6
F1.005348
sI7
F1.005348
sI8
F1.005223
sI9
F1.005223
sI10
F1.005223
sI11
F1.005223
sI12
F1.00511
sI13
F1.00511
sI14
F1.00511
sI15
F1.00511
sI16
F1.00501
sI17
F1.00501
sI18
F1.00501
sI19
F1.00501
sI200
F1.013803
sI201
F1.013803
sI202
F1.013803
sI203
F1.013803
sI204
F1.014282
sI205
F1.014282
sI206
F1.014282
sI207
F1.014282
sI208
F1.0147709999999999
sI209
F1.0147709999999999
sI210
F1.0147709999999999
sI211
F1.0147709999999999
sI212
F1.0152729999999999
sI213
F1.0152729999999999
sI214
F1.0152729999999999
sI215
F1.0152729999999999
sI216
F1.015795
sI217
F1.015795
sI218
F1.015795
sI219
F1.015795
sI100
F1.005737
sI101
F1.005737
sI102
F1.005737
sI103
F1.005737
sI104
F1.0059049999999998
sI105
F1.0059049999999998
sI106
F1.0059049999999998
sI107
F1.0059049999999998
sI108
F1.0060850000000001
sI109
F1.0060850000000001
sI110
F1.0060850000000001
sI111
F1.0060850000000001
sI112
F1.006275
sI113
F1.006275
sI114
F1.006275
sI115
F1.006275
sI116
F1.006478
sI117
F1.006478
sI118
F1.006478
sI119
F1.006478
ssg7
(dp79
I0
Fnan
sI1
Fnan
sI2
F7519.1433333333325
sI3
Fnan
sI4
Fnan
sI5
Fnan
sI6
F7728.4400000000005
sI7
Fnan
sI8
Fnan
sI9
Fnan
sI10
F7438.45
sI11
Fnan
sI12
Fnan
sI13
Fnan
sI14
F7558.0
sI15
Fnan
sI16
Fnan
sI17
Fnan
sI18
F7553.246666666667
sI19
Fnan
sI200
Fnan
sI201
Fnan
sI202
F7957.786666666667
sI203
Fnan
sI204
Fnan
sI205
Fnan
sI206
F7895.679999999999
sI207
Fnan
sI208
Fnan
sI209
Fnan
sI210
F7841.320000000001
sI211
Fnan
sI212
Fnan
sI213
Fnan
sI214
F7898.713333333333
sI215
Fnan
sI216
Fnan
sI217
Fnan
sI218
F7717.83
sI219
Fnan
sI100
Fnan
sI101
Fnan
sI102
F7727.666666666667
sI103
Fnan
sI104
Fnan
sI105
Fnan
sI106
F7644.9766666666665
sI107
Fnan
sI108
Fnan
sI109
Fnan
sI110
F7882.116666666667
sI111
Fnan
sI112
Fnan
sI113
Fnan
sI114
F7656.48
sI115
Fnan
sI116
Fnan
sI117
Fnan
sI118
F7658.15
sI119
Fnan
ssg9
(dp80
I0
F215094.1
sI1
F193835.8
sI2
F225574.3
sI3
F317374.5
sI4
F221504.4
sI5
F200509.5
sI6
F231853.2
sI7
F327488.3
sI8
F210365.3
sI9
F193436.7
sI10
F223153.5
sI11
F314027.7
sI12
F216209.8
sI13
F197386.4
sI14
F226740.0
sI15
F321579.2
sI16
F214682.6
sI17
F195705.2
sI18
F226597.4
sI19
F320352.4
sI200
F225633.1
sI201
F206104.3
sI202
F238733.6
sI203
F337670.2
sI204
F226931.2
sI205
F206253.4
sI206
F236870.4
sI207
F334913.5
sI208
F224886.6
sI209
F205101.5
sI210
F235239.6
sI211
F331692.7
sI212
F226882.3
sI213
F206282.7
sI214
F236961.4
sI215
F332059.7
sI216
F222938.5
sI217
F200451.2
sI218
F231534.9
sI219
F327789.3
sI100
F226920.6
sI101
F200078.8
sI102
F231830.0
sI103
F325551.9
sI104
F235074.1
sI105
F199378.7
sI106
F229349.3
sI107
F326471.3
sI108
F238655.6
sI109
F203920.9
sI110
F236463.5
sI111
F333619.6
sI112
F233222.3
sI113
F199167.0
sI114
F229694.4
sI115
F324076.6
sI116
F231581.8
sI117
F199425.8
sI118
F229744.5
sI119
F325929.6
ssg11
(dp81
I0
F0.2962263126374504
sI1
Fnan
sI2
Fnan
sI3
Fnan
sI4
Fnan
sI5
Fnan
sI6
Fnan
sI7
Fnan
sI8
Fnan
sI9
Fnan
sI10
Fnan
sI11
Fnan
sI12
Fnan
sI13
Fnan
sI14
Fnan
sI15
Fnan
sI16
Fnan
sI17
Fnan
sI18
Fnan
sI19
Fnan
sI200
Fnan
sI201
Fnan
sI202
Fnan
sI203
Fnan
sI204
Fnan
sI205
Fnan
sI206
Fnan
sI207
Fnan
sI208
Fnan
sI209
Fnan
sI210
Fnan
sI211
Fnan
sI212
Fnan
sI213
Fnan
sI214
Fnan
sI215
Fnan
sI216
Fnan
sI217
Fnan
sI218
Fnan
sI219
Fnan
sI100
Fnan
sI101
Fnan
sI102
Fnan
sI103
Fnan
sI104
Fnan
sI105
Fnan
sI106
Fnan
sI107
Fnan
sI108
Fnan
sI109
Fnan
sI110
Fnan
sI111
Fnan
sI112
Fnan
sI113
Fnan
sI114
Fnan
sI115
Fnan
sI116
Fnan
sI117
Fnan
sI118
Fnan
sI119
Fnan
ssg13
(dp82
I0
F0.008472168842138807
sI1
Fnan
sI2
Fnan
sI3
Fnan
sI4
Fnan
sI5
Fnan
sI6
Fnan
sI7
Fnan
sI8
Fnan
sI9
Fnan
sI10
Fnan
sI11
Fnan
sI12
Fnan
sI13
Fnan
sI14
Fnan
sI15
Fnan
sI16
Fnan
sI17
Fnan
sI18
Fnan
sI19
Fnan
sI200
Fnan
sI201
Fnan
sI202
Fnan
sI203
Fnan
sI204
Fnan
sI205
Fnan
sI206
Fnan
sI207
Fnan
sI208
Fnan
sI209
Fnan
sI210
Fnan
sI211
Fnan
sI212
Fnan
sI213
Fnan
sI214
Fnan
sI215
Fnan
sI216
Fnan
sI217
Fnan
sI218
Fnan
sI219
Fnan
sI100
Fnan
sI101
Fnan
sI102
Fnan
sI103
Fnan
sI104
Fnan
sI105
Fnan
sI106
Fnan
sI107
Fnan
sI108
Fnan
sI109
Fnan
sI110
Fnan
sI111
Fnan
sI112
Fnan
sI113
Fnan
sI114
Fnan
sI115
Fnan
sI116
Fnan
sI117
Fnan
sI118
Fnan
sI119
Fnan
ssg15
(dp83
I0
F0.002
sI1
F0.002
sI2
F0.002
sI3
F0.002
sI4
F0.002
sI5
F0.002
sI6
F0.002
sI7
F0.002
sI8
F0.002
sI9
F0.002
sI10
F0.002
sI11
F0.002
sI12
F0.002
sI13
F0.002
sI14
F0.002
sI15
F0.002
sI16
F0.002
sI17
F0.002
sI18
F0.002
sI19
F0.002
sI200
F0.002
sI201
F0.002
sI202
F0.002
sI203
F0.002
sI204
F0.002
sI205
F0.002
sI206
F0.002
sI207
F0.002
sI208
F0.002
sI209
F0.002
sI210
F0.002
sI211
F0.002
sI212
F0.002
sI213
F0.002
sI214
F0.002
sI215
F0.002
sI216
F0.002
sI217
F0.002
sI218
F0.002
sI219
F0.002
sI100
F0.002
sI101
F0.002
sI102
F0.002
sI103
F0.002
sI104
F0.002
sI105
F0.002
sI106
F0.002
sI107
F0.002
sI108
F0.002
sI109
F0.002
sI110
F0.002
sI111
F0.002
sI112
F0.002
sI113
F0.002
sI114
F0.002
sI115
F0.002
sI116
F0.002
sI117
F0.002
sI118
F0.002
sI119
F0.002
ssg17
(dp84
I0
S"g'"
p85
sI1
g85
sI2
g85
sI3
g85
sI4
g85
sI5
g85
sI6
g85
sI7
g85
sI8
g85
sI9
g85
sI10
g85
sI11
g85
sI12
g85
sI13
g85
sI14
g85
sI15
g85
sI16
g85
sI17
g85
sI18
g85
sI19
g85
sI200
g85
sI201
g85
sI202
g85
sI203
g85
sI204
g85
sI205
g85
sI206
g85
sI207
g85
sI208
g85
sI209
g85
sI210
g85
sI211
g85
sI212
g85
sI213
g85
sI214
g85
sI215
g85
sI216
g85
sI217
g85
sI218
g85
sI219
g85
sI100
g85
sI101
g85
sI102
g85
sI103
g85
sI104
g85
sI105
g85
sI106
g85
sI107
g85
sI108
g85
sI109
g85
sI110
g85
sI111
g85
sI112
g85
sI113
g85
sI114
g85
sI115
g85
sI116
g85
sI117
g85
sI118
g85
sI119
g85
ssg20
(dp86
I0
Fnan
sI1
F6461.193333333333
sI2
Fnan
sI3
Fnan
sI4
Fnan
sI5
F6683.65
sI6
Fnan
sI7
Fnan
sI8
Fnan
sI9
F6447.89
sI10
Fnan
sI11
Fnan
sI12
Fnan
sI13
F6579.546666666666
sI14
Fnan
sI15
Fnan
sI16
Fnan
sI17
F6523.506666666667
sI18
Fnan
sI19
Fnan
sI200
Fnan
sI201
F6870.1433333333325
sI202
Fnan
sI203
Fnan
sI204
Fnan
sI205
F6875.113333333333
sI206
Fnan
sI207
Fnan
sI208
Fnan
sI209
F6836.716666666666
sI210
Fnan
sI211
Fnan
sI212
Fnan
sI213
F6876.09
sI214
Fnan
sI215
Fnan
sI216
Fnan
sI217
F6681.706666666667
sI218
Fnan
sI219
Fnan
sI100
Fnan
sI101
F6669.293333333333
sI102
Fnan
sI103
Fnan
sI104
Fnan
sI105
F6645.956666666667
sI106
Fnan
sI107
Fnan
sI108
Fnan
sI109
F6797.363333333333
sI110
Fnan
sI111
Fnan
sI112
Fnan
sI113
F6638.9
sI114
Fnan
sI115
Fnan
sI116
Fnan
sI117
F6647.526666666667
sI118
Fnan
sI119
Fnan
ssg22
(dp87
I0
g24
sI1
g24
sI2
g24
sI3
g24
sI4
g24
sI5
g24
sI6
g24
sI7
g24
sI8
g24
sI9
g24
sI10
g24
sI11
g24
sI12
g24
sI13
g24
sI14
g24
sI15
g24
sI16
g24
sI17
g24
sI18
g24
sI19
g24
sI200
g24
sI201
g24
sI202
g24
sI203
g24
sI204
g24
sI205
g24
sI206
g24
sI207
g24
sI208
g24
sI209
g24
sI210
g24
sI211
g24
sI212
g24
sI213
g24
sI214
g24
sI215
g24
sI216
g24
sI217
g24
sI218
g24
sI219
g24
sI100
g24
sI101
g24
sI102
g24
sI103
g24
sI104
g24
sI105
g24
sI106
g24
sI107
g24
sI108
g24
sI109
g24
sI110
g24
sI111
g24
sI112
g24
sI113
g24
sI114
g24
sI115
g24
sI116
g24
sI117
g24
sI118
g24
sI119
g24
ssg25
(dp88
I0
F11.360999999999999
sI1
F11.474
sI2
F11.31
sI3
F10.939
sI4
F11.329
sI5
F11.437000000000001
sI6
F11.28
sI7
F10.905
sI8
F11.385
sI9
F11.475999999999999
sI10
F11.321
sI11
F10.95
sI12
F11.356
sI13
F11.455
sI14
F11.304
sI15
F10.925
sI16
F11.363
sI17
F11.464
sI18
F11.305
sI19
F10.929
sI200
F11.309000000000001
sI201
F11.408
sI202
F11.248
sI203
F10.872
sI204
F11.302999999999999
sI205
F11.407
sI206
F11.257
sI207
F10.88
sI208
F11.312999999999999
sI209
F11.413
sI210
F11.264000000000001
sI211
F10.890999999999998
sI212
F11.302999999999999
sI213
F11.407
sI214
F11.255999999999998
sI215
F10.89
sI216
F11.322000000000001
sI217
F11.437999999999999
sI218
F11.280999999999999
sI219
F10.904000000000002
sI100
F11.302999999999999
sI101
F11.44
sI102
F11.28
sI103
F10.911
sI104
F11.265
sI105
F11.444
sI106
F11.292
sI107
F10.908
sI108
F11.248
sI109
F11.419
sI110
F11.258
sI111
F10.885
sI112
F11.273
sI113
F11.445
sI114
F11.29
sI115
F10.915999999999999
sI116
F11.280999999999999
sI117
F11.443
sI118
F11.29
sI119
F10.91
ssg27
(dp89
I0
F7169.803333333333
sI1
Fnan
sI2
Fnan
sI3
Fnan
sI4
F7383.48
sI5
Fnan
sI6
Fnan
sI7
Fnan
sI8
F7012.176666666666
sI9
Fnan
sI10
Fnan
sI11
Fnan
sI12
F7206.993333333333
sI13
Fnan
sI14
Fnan
sI15
Fnan
sI16
F7156.086666666667
sI17
Fnan
sI18
Fnan
sI19
Fnan
sI200
F7521.1033333333335
sI201
Fnan
sI202
Fnan
sI203
Fnan
sI204
F7564.373333333334
sI205
Fnan
sI206
Fnan
sI207
Fnan
sI208
F7496.22
sI209
Fnan
sI210
Fnan
sI211
Fnan
sI212
F7562.743333333333
sI213
Fnan
sI214
Fnan
sI215
Fnan
sI216
F7431.283333333334
sI217
Fnan
sI218
Fnan
sI219
Fnan
sI100
F7564.02
sI101
Fnan
sI102
Fnan
sI103
Fnan
sI104
F7835.803333333333
sI105
Fnan
sI106
Fnan
sI107
Fnan
sI108
F7955.1866666666665
sI109
Fnan
sI110
Fnan
sI111
Fnan
sI112
F7774.076666666666
sI113
Fnan
sI114
Fnan
sI115
Fnan
sI116
F7719.3933333333325
sI117
Fnan
sI118
Fnan
sI119
Fnan
ssg29
(dp90
I0
Fnan
sI1
Fnan
sI2
Fnan
sI3
F10579.15
sI4
Fnan
sI5
Fnan
sI6
Fnan
sI7
F10916.276666666667
sI8
Fnan
sI9
Fnan
sI10
Fnan
sI11
F10467.59
sI12
Fnan
sI13
Fnan
sI14
Fnan
sI15
F10719.306666666667
sI16
Fnan
sI17
Fnan
sI18
Fnan
sI19
F10678.413333333334
sI200
Fnan
sI201
Fnan
sI202
Fnan
sI203
F11255.673333333334
sI204
Fnan
sI205
Fnan
sI206
Fnan
sI207
F11163.783333333333
sI208
Fnan
sI209
Fnan
sI210
Fnan
sI211
F11056.423333333334
sI212
Fnan
sI213
Fnan
sI214
Fnan
sI215
F11068.656666666668
sI216
Fnan
sI217
Fnan
sI218
Fnan
sI219
F10926.31
sI100
Fnan
sI101
Fnan
sI102
Fnan
sI103
F10851.730000000001
sI104
Fnan
sI105
Fnan
sI106
Fnan
sI107
F10882.376666666667
sI108
Fnan
sI109
Fnan
sI110
Fnan
sI111
F11120.653333333332
sI112
Fnan
sI113
Fnan
sI114
Fnan
sI115
F10802.553333333333
sI116
Fnan
sI117
Fnan
sI118
Fnan
sI119
F10864.32
ssg31
(dp91
I0
F2458380.651666667
sI1
F2458380.651666667
sI2
F2458380.651666667
sI3
F2458380.651666667
sI4
F2458380.6524074073
sI5
F2458380.6524074073
sI6
F2458380.6524074073
sI7
F2458380.6524074073
sI8
F2458380.653136574
sI9
F2458380.653136574
sI10
F2458380.653136574
sI11
F2458380.653136574
sI12
F2458380.653877314
sI13
F2458380.653877314
sI14
F2458380.653877314
sI15
F2458380.653877314
sI16
F2458380.654618056
sI17
F2458380.654618056
sI18
F2458380.654618056
sI19
F2458380.654618056
sI200
F2458380.6890625
sI201
F2458380.6890625
sI202
F2458380.6890625
sI203
F2458380.6890625
sI204
F2458380.689803241
sI205
F2458380.689803241
sI206
F2458380.689803241
sI207
F2458380.689803241
sI208
F2458380.6905324077
sI209
F2458380.6905324077
sI210
F2458380.6905324077
sI211
F2458380.6905324077
sI212
F2458380.691273148
sI213
F2458380.691273148
sI214
F2458380.691273148
sI215
F2458380.691273148
sI216
F2458380.692002314
sI217
F2458380.692002314
sI218
F2458380.692002314
sI219
F2458380.692002314
sI100
F2458380.670335648
sI101
F2458380.670335648
sI102
F2458380.670335648
sI103
F2458380.670335648
sI104
F2458380.671087963
sI105
F2458380.671087963
sI106
F2458380.671087963
sI107
F2458380.671087963
sI108
F2458380.671817129
sI109
F2458380.671817129
sI110
F2458380.671817129
sI111
F2458380.671817129
sI112
F2458380.6725462964
sI113
F2458380.6725462964
sI114
F2458380.6725462964
sI115
F2458380.6725462964
sI116
F2458380.673275463
sI117
F2458380.673275463
sI118
F2458380.673275463
sI119
F2458380.673275463
ssg33
(dp92
I0
F0.2919362049641103
sI1
Fnan
sI2
Fnan
sI3
Fnan
sI4
F0.2915103092579992
sI5
Fnan
sI6
Fnan
sI7
Fnan
sI8
F0.28792793059135285
sI9
Fnan
sI10
Fnan
sI11
Fnan
sI12
F0.2899398904876133
sI13
Fnan
sI14
Fnan
sI15
Fnan
sI16
F0.2890744693027045
sI17
Fnan
sI18
Fnan
sI19
Fnan
sI200
F0.288346024788753
sI201
Fnan
sI202
Fnan
sI203
Fnan
sI204
F0.2916713633138155
sI205
Fnan
sI206
Fnan
sI207
Fnan
sI208
F0.29129113259030887
sI209
Fnan
sI210
Fnan
sI211
Fnan
sI212
F0.29263664127532973
sI213
Fnan
sI214
Fnan
sI215
Fnan
sI216
F0.2934268469339755
sI217
Fnan
sI218
Fnan
sI219
Fnan
sI100
F0.2995806911170441
sI101
Fnan
sI102
Fnan
sI103
Fnan
sI104
F0.31127425568323486
sI105
Fnan
sI106
Fnan
sI107
Fnan
sI108
F0.30833897499237733
sI109
Fnan
sI110
Fnan
sI111
Fnan
sI112
F0.30974967394393693
sI113
Fnan
sI114
Fnan
sI115
Fnan
sI116
F0.30669028031920015
sI117
Fnan
sI118
Fnan
sI119
Fnan
ssg35
(dp93
I0
F30.0
sI1
F30.0
sI2
F30.0
sI3
F30.0
sI4
F30.0
sI5
F30.0
sI6
F30.0
sI7
F30.0
sI8
F30.0
sI9
F30.0
sI10
F30.0
sI11
F30.0
sI12
F30.0
sI13
F30.0
sI14
F30.0
sI15
F30.0
sI16
F30.0
sI17
F30.0
sI18
F30.0
sI19
F30.0
sI200
F30.0
sI201
F30.0
sI202
F30.0
sI203
F30.0
sI204
F30.0
sI205
F30.0
sI206
F30.0
sI207
F30.0
sI208
F30.0
sI209
F30.0
sI210
F30.0
sI211
F30.0
sI212
F30.0
sI213
F30.0
sI214
F30.0
sI215
F30.0
sI216
F30.0
sI217
F30.0
sI218
F30.0
sI219
F30.0
sI100
F30.0
sI101
F30.0
sI102
F30.0
sI103
F30.0
sI104
F30.0
sI105
F30.0
sI106
F30.0
sI107
F30.0
sI108
F30.0
sI109
F30.0
sI110
F30.0
sI111
F30.0
sI112
F30.0
sI113
F30.0
sI114
F30.0
sI115
F30.0
sI116
F30.0
sI117
F30.0
sI118
F30.0
sI119
F30.0
sssS'V'
p94
(dp95
g3
(dp96
I0
F2458380.6866898155
sI280
Fnan
sI281
Fnan
sI282
Fnan
sI283
Fnan
sI284
Fnan
sI285
Fnan
sI286
Fnan
sI287
Fnan
sI288
Fnan
sI289
Fnan
sI290
Fnan
sI291
Fnan
sI292
Fnan
sI293
Fnan
sI294
Fnan
sI295
Fnan
sI296
Fnan
sI297
Fnan
sI298
Fnan
sI299
Fnan
sI180
Fnan
sI181
Fnan
sI182
Fnan
sI183
Fnan
sI184
Fnan
sI185
Fnan
sI186
Fnan
sI187
Fnan
sI188
Fnan
sI189
Fnan
sI190
Fnan
sI191
Fnan
sI192
Fnan
sI193
Fnan
sI194
Fnan
sI195
Fnan
sI196
Fnan
sI197
Fnan
sI198
Fnan
sI199
Fnan
sI80
Fnan
sI81
Fnan
sI82
Fnan
sI83
Fnan
sI84
Fnan
sI85
Fnan
sI86
Fnan
sI87
Fnan
sI88
Fnan
sI89
Fnan
sI90
Fnan
sI91
Fnan
sI92
Fnan
sI93
Fnan
sI94
Fnan
sI95
Fnan
sI96
Fnan
sI97
Fnan
sI98
Fnan
sI99
Fnan
ssg5
(dp97
I0
Fnan
sI280
F1.025942
sI281
F1.025942
sI282
F1.025942
sI283
F1.025942
sI284
F1.0266870000000001
sI285
F1.0266870000000001
sI286
F1.0266870000000001
sI287
F1.0266870000000001
sI288
F1.027447
sI289
F1.027447
sI290
F1.027447
sI291
F1.027447
sI292
F1.0282129999999998
sI293
F1.0282129999999998
sI294
F1.0282129999999998
sI295
F1.0282129999999998
sI296
F1.028995
sI297
F1.028995
sI298
F1.028995
sI299
F1.028995
sI180
F1.011484
sI181
F1.011484
sI182
F1.011484
sI183
F1.011484
sI184
F1.011908
sI185
F1.011908
sI186
F1.011908
sI187
F1.011908
sI188
F1.0123389999999999
sI189
F1.0123389999999999
sI190
F1.0123389999999999
sI191
F1.0123389999999999
sI192
F1.012782
sI193
F1.012782
sI194
F1.012782
sI195
F1.012782
sI196
F1.0132430000000001
sI197
F1.0132430000000001
sI198
F1.0132430000000001
sI199
F1.0132430000000001
sI80
F1.005048
sI81
F1.005048
sI82
F1.005048
sI83
F1.005048
sI84
F1.005154
sI85
F1.005154
sI86
F1.005154
sI87
F1.005154
sI88
F1.0052729999999999
sI89
F1.0052729999999999
sI90
F1.0052729999999999
sI91
F1.0052729999999999
sI92
F1.005403
sI93
F1.005403
sI94
F1.005403
sI95
F1.005403
sI96
F1.0055479999999999
sI97
F1.0055479999999999
sI98
F1.0055479999999999
sI99
F1.0055479999999999
ssg7
(dp98
I0
Fnan
sI280
Fnan
sI281
Fnan
sI282
F9600.153333333332
sI283
Fnan
sI284
Fnan
sI285
Fnan
sI286
F9483.519999999999
sI287
Fnan
sI288
Fnan
sI289
Fnan
sI290
F9510.82
sI291
Fnan
sI292
Fnan
sI293
Fnan
sI294
F9771.716666666667
sI295
Fnan
sI296
Fnan
sI297
Fnan
sI298
F9725.609999999999
sI299
Fnan
sI180
Fnan
sI181
Fnan
sI182
F9331.156666666668
sI183
Fnan
sI184
Fnan
sI185
Fnan
sI186
F9364.59
sI187
Fnan
sI188
Fnan
sI189
Fnan
sI190
F9598.186666666666
sI191
Fnan
sI192
Fnan
sI193
Fnan
sI194
F9559.74
sI195
Fnan
sI196
Fnan
sI197
Fnan
sI198
F9705.923333333334
sI199
Fnan
sI80
Fnan
sI81
Fnan
sI82
F9506.16
sI83
Fnan
sI84
Fnan
sI85
Fnan
sI86
F9406.543333333333
sI87
Fnan
sI88
Fnan
sI89
Fnan
sI90
F9170.446666666667
sI91
Fnan
sI92
Fnan
sI93
Fnan
sI94
F9369.06
sI95
Fnan
sI96
Fnan
sI97
Fnan
sI98
F9196.890000000001
sI99
Fnan
ssg9
(dp99
I0
Fnan
sI280
F216611.2
sI281
F246231.8
sI282
F288004.6
sI283
F401684.4
sI284
F212413.7
sI285
F243694.6
sI286
F284505.6
sI287
F396211.7
sI288
F213424.4
sI289
F244801.1
sI290
F285324.6
sI291
F398255.2
sI292
F219261.5
sI293
F252307.2
sI294
F293151.5
sI295
F409131.3
sI296
F219115.3
sI297
F251936.0
sI298
F291768.3
sI299
F408700.2
sI180
F211879.9
sI181
F244210.0
sI182
F279934.7
sI183
F394814.3
sI184
F209942.4
sI185
F241993.9
sI186
F280937.7
sI187
F389090.7
sI188
F216941.6
sI189
F247003.6
sI190
F287945.6
sI191
F403772.7
sI192
F217815.8
sI193
F246203.0
sI194
F286792.2
sI195
F400067.1
sI196
F220589.2
sI197
F250884.7
sI198
F291177.7
sI199
F408824.9
sI80
F214701.8
sI81
F245340.8
sI82
F285184.8
sI83
F398669.1
sI84
F215722.2
sI85
F244803.0
sI86
F282196.3
sI87
F397403.4
sI88
F207015.6
sI89
F235909.9
sI90
F275113.4
sI91
F385730.2
sI92
F211720.3
sI93
F242424.7
sI94
F281071.8
sI95
F391832.5
sI96
F209552.5
sI97
F238701.3
sI98
F275906.7
sI99
F386670.8
ssg11
(dp100
I0
F0.23114962714329543
sI280
Fnan
sI281
Fnan
sI282
Fnan
sI283
Fnan
sI284
Fnan
sI285
Fnan
sI286
Fnan
sI287
Fnan
sI288
Fnan
sI289
Fnan
sI290
Fnan
sI291
Fnan
sI292
Fnan
sI293
Fnan
sI294
Fnan
sI295
Fnan
sI296
Fnan
sI297
Fnan
sI298
Fnan
sI299
Fnan
sI180
Fnan
sI181
Fnan
sI182
Fnan
sI183
Fnan
sI184
Fnan
sI185
Fnan
sI186
Fnan
sI187
Fnan
sI188
Fnan
sI189
Fnan
sI190
Fnan
sI191
Fnan
sI192
Fnan
sI193
Fnan
sI194
Fnan
sI195
Fnan
sI196
Fnan
sI197
Fnan
sI198
Fnan
sI199
Fnan
sI80
Fnan
sI81
Fnan
sI82
Fnan
sI83
Fnan
sI84
Fnan
sI85
Fnan
sI86
Fnan
sI87
Fnan
sI88
Fnan
sI89
Fnan
sI90
Fnan
sI91
Fnan
sI92
Fnan
sI93
Fnan
sI94
Fnan
sI95
Fnan
sI96
Fnan
sI97
Fnan
sI98
Fnan
sI99
Fnan
ssg13
(dp101
I0
F0.0012221943122728944
sI280
Fnan
sI281
Fnan
sI282
Fnan
sI283
Fnan
sI284
Fnan
sI285
Fnan
sI286
Fnan
sI287
Fnan
sI288
Fnan
sI289
Fnan
sI290
Fnan
sI291
Fnan
sI292
Fnan
sI293
Fnan
sI294
Fnan
sI295
Fnan
sI296
Fnan
sI297
Fnan
sI298
Fnan
sI299
Fnan
sI180
Fnan
sI181
Fnan
sI182
Fnan
sI183
Fnan
sI184
Fnan
sI185
Fnan
sI186
Fnan
sI187
Fnan
sI188
Fnan
sI189
Fnan
sI190
Fnan
sI191
Fnan
sI192
Fnan
sI193
Fnan
sI194
Fnan
sI195
Fnan
sI196
Fnan
sI197
Fnan
sI198
Fnan
sI199
Fnan
sI80
Fnan
sI81
Fnan
sI82
Fnan
sI83
Fnan
sI84
Fnan
sI85
Fnan
sI86
Fnan
sI87
Fnan
sI88
Fnan
sI89
Fnan
sI90
Fnan
sI91
Fnan
sI92
Fnan
sI93
Fnan
sI94
Fnan
sI95
Fnan
sI96
Fnan
sI97
Fnan
sI98
Fnan
sI99
Fnan
ssg15
(dp102
I0
Fnan
sI280
F0.002
sI281
F0.002
sI282
F0.002
sI283
F0.002
sI284
F0.002
sI285
F0.002
sI286
F0.002
sI287
F0.002
sI288
F0.002
sI289
F0.002
sI290
F0.002
sI291
F0.002
sI292
F0.002
sI293
F0.002
sI294
F0.002
sI295
F0.002
sI296
F0.002
sI297
F0.002
sI298
F0.002
sI299
F0.002
sI180
F0.002
sI181
F0.002
sI182
F0.002
sI183
F0.002
sI184
F0.002
sI185
F0.002
sI186
F0.002
sI187
F0.002
sI188
F0.002
sI189
F0.002
sI190
F0.002
sI191
F0.002
sI192
F0.002
sI193
F0.002
sI194
F0.002
sI195
F0.002
sI196
F0.002
sI197
F0.002
sI198
F0.002
sI199
F0.002
sI80
F0.002
sI81
F0.002
sI82
F0.002
sI83
F0.002
sI84
F0.002
sI85
F0.002
sI86
F0.002
sI87
F0.002
sI88
F0.002
sI89
F0.002
sI90
F0.002
sI91
F0.002
sI92
F0.002
sI93
F0.002
sI94
F0.002
sI95
F0.002
sI96
F0.002
sI97
F0.002
sI98
F0.002
sI99
F0.002
ssg17
(dp103
I0
Fnan
sI280
g94
sI281
g94
sI282
g94
sI283
g94
sI284
g94
sI285
g94
sI286
g94
sI287
g94
sI288
g94
sI289
g94
sI290
g94
sI291
g94
sI292
g94
sI293
g94
sI294
g94
sI295
g94
sI296
g94
sI297
g94
sI298
g94
sI299
g94
sI180
g94
sI181
g94
sI182
g94
sI183
g94
sI184
g94
sI185
g94
sI186
g94
sI187
g94
sI188
g94
sI189
g94
sI190
g94
sI191
g94
sI192
g94
sI193
g94
sI194
g94
sI195
g94
sI196
g94
sI197
g94
sI198
g94
sI199
g94
sI80
g94
sI81
g94
sI82
g94
sI83
g94
sI84
g94
sI85
g94
sI86
g94
sI87
g94
sI88
g94
sI89
g94
sI90
g94
sI91
g94
sI92
g94
sI93
g94
sI94
g94
sI95
g94
sI96
g94
sI97
g94
sI98
g94
sI99
g94
ssg20
(dp104
I0
Fnan
sI280
Fnan
sI281
F8207.726666666666
sI282
Fnan
sI283
Fnan
sI284
Fnan
sI285
F8123.153333333334
sI286
Fnan
sI287
Fnan
sI288
Fnan
sI289
F8160.036666666667
sI290
Fnan
sI291
Fnan
sI292
Fnan
sI293
F8410.24
sI294
Fnan
sI295
Fnan
sI296
Fnan
sI297
F8397.866666666667
sI298
Fnan
sI299
Fnan
sI180
Fnan
sI181
F8140.333333333333
sI182
Fnan
sI183
Fnan
sI184
Fnan
sI185
F8066.463333333333
sI186
Fnan
sI187
Fnan
sI188
Fnan
sI189
F8233.453333333333
sI190
Fnan
sI191
Fnan
sI192
Fnan
sI193
F8206.766666666666
sI194
Fnan
sI195
Fnan
sI196
Fnan
sI197
F8362.823333333334
sI198
Fnan
sI199
Fnan
sI80
Fnan
sI81
F8178.026666666667
sI82
Fnan
sI83
Fnan
sI84
Fnan
sI85
F8160.1
sI86
Fnan
sI87
Fnan
sI88
Fnan
sI89
F7863.663333333333
sI90
Fnan
sI91
Fnan
sI92
Fnan
sI93
F8080.823333333334
sI94
Fnan
sI95
Fnan
sI96
Fnan
sI97
F7956.71
sI98
Fnan
sI99
Fnan
ssg22
(dp105
I0
Fnan
sI280
g24
sI281
g24
sI282
g24
sI283
g24
sI284
g24
sI285
g24
sI286
g24
sI287
g24
sI288
g24
sI289
g24
sI290
g24
sI291
g24
sI292
g24
sI293
g24
sI294
g24
sI295
g24
sI296
g24
sI297
g24
sI298
g24
sI299
g24
sI180
g24
sI181
g24
sI182
g24
sI183
g24
sI184
g24
sI185
g24
sI186
g24
sI187
g24
sI188
g24
sI189
g24
sI190
g24
sI191
g24
sI192
g24
sI193
g24
sI194
g24
sI195
g24
sI196
g24
sI197
g24
sI198
g24
sI199
g24
sI80
g24
sI81
g24
sI82
g24
sI83
g24
sI84
g24
sI85
g24
sI86
g24
sI87
g24
sI88
g24
sI89
g24
sI90
g24
sI91
g24
sI92
g24
sI93
g24
sI94
g24
sI95
g24
sI96
g24
sI97
g24
sI98
g24
sI99
g24
ssg25
(dp106
I0
Fnan
sI280
F11.354000000000001
sI281
F11.214
sI282
F11.044
sI283
F10.683
sI284
F11.375
sI285
F11.225999999999999
sI286
F11.058
sI287
F10.698
sI288
F11.37
sI289
F11.220999999999998
sI290
F11.054
sI291
F10.692
sI292
F11.34
sI293
F11.187999999999999
sI294
F11.025
sI295
F10.663
sI296
F11.341
sI297
F11.19
sI298
F11.03
sI299
F10.664000000000001
sI180
F11.378
sI181
F11.222999999999999
sI182
F11.075
sI183
F10.702
sI184
F11.388
sI185
F11.232999999999999
sI186
F11.071
sI187
F10.718
sI188
F11.352
sI189
F11.210999999999999
sI190
F11.045
sI191
F10.677
sI192
F11.347999999999999
sI193
F11.215
sI194
F11.049000000000001
sI195
F10.687000000000001
sI196
F11.334000000000001
sI197
F11.194
sI198
F11.032
sI199
F10.664000000000001
sI80
F11.363
sI81
F11.218
sI82
F11.055
sI83
F10.690999999999999
sI84
F11.357999999999999
sI85
F11.220999999999998
sI86
F11.065999999999999
sI87
F10.695
sI88
F11.402999999999999
sI89
F11.261
sI90
F11.094000000000001
sI91
F10.727
sI92
F11.378
sI93
F11.231
sI94
F11.071
sI95
F10.71
sI96
F11.39
sI97
F11.248
sI98
F11.091
sI99
F10.724
ssg27
(dp107
I0
Fnan
sI280
F7220.373333333334
sI281
Fnan
sI282
Fnan
sI283
Fnan
sI284
F7080.456666666667
sI285
Fnan
sI286
Fnan
sI287
Fnan
sI288
F7114.1466666666665
sI289
Fnan
sI290
Fnan
sI291
Fnan
sI292
F7308.716666666666
sI293
Fnan
sI294
Fnan
sI295
Fnan
sI296
F7303.843333333333
sI297
Fnan
sI298
Fnan
sI299
Fnan
sI180
F7062.663333333333
sI181
Fnan
sI182
Fnan
sI183
Fnan
sI184
F6998.08
sI185
Fnan
sI186
Fnan
sI187
Fnan
sI188
F7231.386666666667
sI189
Fnan
sI190
Fnan
sI191
Fnan
sI192
F7260.526666666667
sI193
Fnan
sI194
Fnan
sI195
Fnan
sI196
F7352.973333333333
sI197
Fnan
sI198
Fnan
sI199
Fnan
sI80
F7156.7266666666665
sI81
Fnan
sI82
Fnan
sI83
Fnan
sI84
F7190.740000000001
sI85
Fnan
sI86
Fnan
sI87
Fnan
sI88
F6900.52
sI89
Fnan
sI90
Fnan
sI91
Fnan
sI92
F7057.343333333333
sI93
Fnan
sI94
Fnan
sI95
Fnan
sI96
F6985.083333333333
sI97
Fnan
sI98
Fnan
sI99
Fnan
ssg29
(dp108
I0
Fnan
sI280
Fnan
sI281
Fnan
sI282
Fnan
sI283
F13389.480000000001
sI284
Fnan
sI285
Fnan
sI286
Fnan
sI287
F13207.056666666667
sI288
Fnan
sI289
Fnan
sI290
Fnan
sI291
F13275.173333333334
sI292
Fnan
sI293
Fnan
sI294
Fnan
sI295
F13637.71
sI296
Fnan
sI297
Fnan
sI298
Fnan
sI299
F13623.34
sI180
Fnan
sI181
Fnan
sI182
Fnan
sI183
F13160.476666666666
sI184
Fnan
sI185
Fnan
sI186
Fnan
sI187
F12969.69
sI188
Fnan
sI189
Fnan
sI190
Fnan
sI191
F13459.09
sI192
Fnan
sI193
Fnan
sI194
Fnan
sI195
F13335.57
sI196
Fnan
sI197
Fnan
sI198
Fnan
sI199
F13627.496666666668
sI80
Fnan
sI81
Fnan
sI82
Fnan
sI83
F13288.97
sI84
Fnan
sI85
Fnan
sI86
Fnan
sI87
F13246.78
sI88
Fnan
sI89
Fnan
sI90
Fnan
sI91
F12857.673333333334
sI92
Fnan
sI93
Fnan
sI94
Fnan
sI95
F13061.083333333334
sI96
Fnan
sI97
Fnan
sI98
Fnan
sI99
F12889.026666666667
ssg31
(dp109
I0
Fnan
sI280
F2458380.7039351845
sI281
F2458380.7039351845
sI282
F2458380.7039351845
sI283
F2458380.7039351845
sI284
F2458380.704664352
sI285
F2458380.704664352
sI286
F2458380.704664352
sI287
F2458380.704664352
sI288
F2458380.705416667
sI289
F2458380.705416667
sI290
F2458380.705416667
sI291
F2458380.705416667
sI292
F2458380.7061574077
sI293
F2458380.7061574077
sI294
F2458380.7061574077
sI295
F2458380.7061574077
sI296
F2458380.706898148
sI297
F2458380.706898148
sI298
F2458380.706898148
sI299
F2458380.706898148
sI180
F2458380.6851851847
sI181
F2458380.6851851847
sI182
F2458380.6851851847
sI183
F2458380.6851851847
sI184
F2458380.6859375
sI185
F2458380.6859375
sI186
F2458380.6859375
sI187
F2458380.6859375
sI188
F2458380.6866898155
sI189
F2458380.6866898155
sI190
F2458380.6866898155
sI191
F2458380.6866898155
sI192
F2458380.687442129
sI193
F2458380.687442129
sI194
F2458380.687442129
sI195
F2458380.687442129
sI196
F2458380.6881828704
sI197
F2458380.6881828704
sI198
F2458380.6881828704
sI199
F2458380.6881828704
sI80
F2458380.6664814814
sI81
F2458380.6664814814
sI82
F2458380.6664814814
sI83
F2458380.6664814814
sI84
F2458380.6672106483
sI85
F2458380.6672106483
sI86
F2458380.6672106483
sI87
F2458380.6672106483
sI88
F2458380.6679629628
sI89
F2458380.6679629628
sI90
F2458380.6679629628
sI91
F2458380.6679629628
sI92
F2458380.668703704
sI93
F2458380.668703704
sI94
F2458380.668703704
sI95
F2458380.668703704
sI96
F2458380.6694444446
sI97
F2458380.6694444446
sI98
F2458380.6694444446
sI99
F2458380.6694444446
ssg33
(dp110
I0
Fnan
sI280
F0.23144180575963266
sI281
Fnan
sI282
Fnan
sI283
Fnan
sI284
F0.22978252443526528
sI285
Fnan
sI286
Fnan
sI287
Fnan
sI288
F0.22988883118987047
sI289
Fnan
sI290
Fnan
sI291
Fnan
sI292
F0.22969180485863042
sI293
Fnan
sI294
Fnan
sI295
Fnan
sI296
F0.23006537663356275
sI297
Fnan
sI298
Fnan
sI299
Fnan
sI180
F0.2305651285857149
sI181
Fnan
sI182
Fnan
sI183
Fnan
sI184
F0.23019437134377088
sI185
Fnan
sI186
Fnan
sI187
Fnan
sI188
F0.2311031627151769
sI189
Fnan
sI190
Fnan
sI191
Fnan
sI192
F0.23344186127764457
sI193
Fnan
sI194
Fnan
sI195
Fnan
sI196
F0.23198248625257695
sI197
Fnan
sI198
Fnan
sI199
Fnan
sI80
F0.23106223055297234
sI81
Fnan
sI82
Fnan
sI83
Fnan
sI84
F0.23336387918382326
sI85
Fnan
sI86
Fnan
sI87
Fnan
sI88
F0.23085006080266207
sI89
Fnan
sI90
Fnan
sI91
Fnan
sI92
F0.2313051372785086
sI93
Fnan
sI94
Fnan
sI95
Fnan
sI96
F0.23250574627961954
sI97
Fnan
sI98
Fnan
sI99
Fnan
ssg35
(dp111
I0
Fnan
sI280
F30.0
sI281
F30.0
sI282
F30.0
sI283
F30.0
sI284
F30.0
sI285
F30.0
sI286
F30.0
sI287
F30.0
sI288
F30.0
sI289
F30.0
sI290
F30.0
sI291
F30.0
sI292
F30.0
sI293
F30.0
sI294
F30.0
sI295
F30.0
sI296
F30.0
sI297
F30.0
sI298
F30.0
sI299
F30.0
sI180
F30.0
sI181
F30.0
sI182
F30.0
sI183
F30.0
sI184
F30.0
sI185
F30.0
sI186
F30.0
sI187
F30.0
sI188
F30.0
sI189
F30.0
sI190
F30.0
sI191
F30.0
sI192
F30.0
sI193
F30.0
sI194
F30.0
sI195
F30.0
sI196
F30.0
sI197
F30.0
sI198
F30.0
sI199
F30.0
sI80
F30.0
sI81
F30.0
sI82
F30.0
sI83
F30.0
sI84
F30.0
sI85
F30.0
sI86
F30.0
sI87
F30.0
sI88
F30.0
sI89
F30.0
sI90
F30.0
sI91
F30.0
sI92
F30.0
sI93
F30.0
sI94
F30.0
sI95
F30.0
sI96
F30.0
sI97
F30.0
sI98
F30.0
sI99
F30.0
sss.