(dp0
S'r'
p1
(dp2
S'sigmean'
p3
(dp4
I0
F0.5490459708326758
sI1
Fnan
sI2
Fnan
sI3
Fnan
sI4
Fnan
sI5
Fnan
sI6
Fnan
sI7
Fnan
sI8
Fnan
sI9
Fnan
sI10
Fnan
sI11
Fnan
ssS'ref3flag'
p5
(dp6
I0
S'NoError'
p7
sI1
S'NoError'
p8
sI2
S'NoError'
p9
sI3
S'NoError'
p10
sI4
S'NoError'
p11
sI5
S'NoError'
p12
sI6
S'NoError'
p13
sI7
S'NoError'
p14
sI8
S'NoError'
p15
sI9
S'NoError'
p16
sI10
S'NoError'
p17
sI11
S'NoError'
p18
ssS'tabbyerr'
p19
(dp20
I0
F0.002
sI1
F0.002
sI2
F0.002
sI3
F0.002
sI4
F0.002
sI5
F0.002
sI6
F0.002
sI7
F0.002
sI8
F0.002
sI9
F0.002
sI10
F0.002
sI11
F0.002
ssS'ref2rel'
p21
(dp22
I0
F0.8998136349154616
sI1
F0.9006924135027318
sI2
F0.897381961563961
sI3
F0.8972233288712205
sI4
F0.9014020320315087
sI5
F0.8921985766330862
sI6
F0.8992230249738945
sI7
F0.8966862048920424
sI8
F0.8932867180865216
sI9
F0.9015912662169187
sI10
F0.9013664735735902
sI11
F0.8990057709369056
ssS'ref2err'
p23
(dp24
I0
F0.0031069378537621297
sI1
Fnan
sI2
Fnan
sI3
Fnan
sI4
Fnan
sI5
Fnan
sI6
Fnan
sI7
Fnan
sI8
Fnan
sI9
Fnan
sI10
Fnan
sI11
Fnan
ssS'ref2mean'
p25
(dp26
I0
F0.8983226171831536
sI1
Fnan
sI2
Fnan
sI3
Fnan
sI4
Fnan
sI5
Fnan
sI6
Fnan
sI7
Fnan
sI8
Fnan
sI9
Fnan
sI10
Fnan
sI11
Fnan
ssS'tabbymag'
p27
(dp28
I0
F11.235
sI1
F11.232
sI2
F11.287
sI3
F11.306
sI4
F11.218
sI5
F11.219
sI6
F11.272
sI7
F11.3
sI8
F11.284
sI9
F11.235
sI10
F11.237
sI11
F11.216
ssS'tabbybkg'
p29
(dp30
I0
F16.95902
sI1
F16.02769
sI2
F16.54187
sI3
F17.87445
sI4
F15.33998
sI5
F15.46066
sI6
F15.69683
sI7
F16.35742
sI8
F17.15553
sI9
F15.67274
sI10
F15.51232
sI11
F15.48239
ssS'JD'
p31
(dp32
I0
F2458285.789074074
sI1
F2458285.7772685187
sI2
F2458285.7688078703
sI3
F2458285.769641204
sI4
F2458285.7797569446
sI5
F2458285.7874189815
sI6
F2458285.7780902777
sI7
F2458285.767974537
sI8
F2458285.767152778
sI9
F2458285.7899074075
sI10
F2458285.778923611
sI11
F2458285.788252315
ssS'ref3rmsmean'
p33
(dp34
I0
F1.9694967166666666
sI1
Fnan
sI2
Fnan
sI3
Fnan
sI4
Fnan
sI5
Fnan
sI6
Fnan
sI7
Fnan
sI8
Fnan
sI9
Fnan
sI10
Fnan
sI11
Fnan
ssS'ref1rmsmean'
p35
(dp36
I0
F0.7991115833333332
sI1
Fnan
sI2
Fnan
sI3
Fnan
sI4
Fnan
sI5
Fnan
sI6
Fnan
sI7
Fnan
sI8
Fnan
sI9
Fnan
sI10
Fnan
sI11
Fnan
ssS'relflux'
p37
(dp38
I0
F0.5487373592436436
sI1
F0.5490329110517097
sI2
F0.5522951970834897
sI3
F0.5482928675407811
sI4
F0.5527445808294844
sI5
F0.5521064634437266
sI6
F0.5488786701810606
sI7
F0.5482120637634175
sI8
F0.5492339710347691
sI9
F0.5486130761699688
sI10
F0.5498550874671629
sI11
F0.5474972384305171
ssS'sigerr'
p39
(dp40
I0
F0.0011844224506568693
sI1
Fnan
sI2
Fnan
sI3
Fnan
sI4
Fnan
sI5
Fnan
sI6
Fnan
sI7
Fnan
sI8
Fnan
sI9
Fnan
sI10
Fnan
sI11
Fnan
ssS'tabbyrmsmean'
p41
(dp42
I0
F2.029695583333333
sI1
Fnan
sI2
Fnan
sI3
Fnan
sI4
Fnan
sI5
Fnan
sI6
Fnan
sI7
Fnan
sI8
Fnan
sI9
Fnan
sI10
Fnan
sI11
Fnan
ssS'tabbyflag'
p43
(dp44
I0
g7
sI1
g8
sI2
g9
sI3
g10
sI4
g11
sI5
g12
sI6
g13
sI7
g14
sI8
g15
sI9
g16
sI10
g17
sI11
g18
ssS'ref1err'
p45
(dp46
I0
F0.0034443200624410886
sI1
Fnan
sI2
Fnan
sI3
Fnan
sI4
Fnan
sI5
Fnan
sI6
Fnan
sI7
Fnan
sI8
Fnan
sI9
Fnan
sI10
Fnan
sI11
Fnan
ssS'ref2magmeanerr'
p47
(dp48
I0
F0.034286117872804944
sI1
Fnan
sI2
Fnan
sI3
Fnan
sI4
Fnan
sI5
Fnan
sI6
Fnan
sI7
Fnan
sI8
Fnan
sI9
Fnan
sI10
Fnan
sI11
Fnan
ssS'ref2rmsmean'
p49
(dp50
I0
F1.6972009083333335
sI1
Fnan
sI2
Fnan
sI3
Fnan
sI4
Fnan
sI5
Fnan
sI6
Fnan
sI7
Fnan
sI8
Fnan
sI9
Fnan
sI10
Fnan
sI11
Fnan
ssS'ref3rel'
p51
(dp52
I0
F1.483851072531264
sI1
F1.4944564763145713
sI2
F1.49345787834134
sI3
F1.5058437861975964
sI4
F1.490735806324344
sI5
F1.4916982155444494
sI6
F1.4941107982633048
sI7
F1.4963810403864193
sI8
F1.497898229781839
sI9
F1.4898993219566534
sI10
F1.486304683620923
sI11
F1.4863703951875478
ssS'ref1flag'
p53
(dp54
I0
g7
sI1
g8
sI2
g9
sI3
g10
sI4
g11
sI5
g12
sI6
g13
sI7
g14
sI8
g15
sI9
g16
sI10
g17
sI11
g18
ssS'ref2bkg'
p55
(dp56
I0
F18.72089
sI1
F17.16365
sI2
F18.18077
sI3
F20.50565
sI4
F16.68801
sI5
F17.824
sI6
F19.08718
sI7
F18.4751
sI8
F18.91553
sI9
F17.66091
sI10
F18.18953
sI11
F18.26218
ssS'ref3magmean'
p57
(dp58
I0
F10.33375
sI1
Fnan
sI2
Fnan
sI3
Fnan
sI4
Fnan
sI5
Fnan
sI6
Fnan
sI7
Fnan
sI8
Fnan
sI9
Fnan
sI10
Fnan
sI11
Fnan
ssS'ref1mean'
p59
(dp60
I0
F0.712598451903713
sI1
Fnan
sI2
Fnan
sI3
Fnan
sI4
Fnan
sI5
Fnan
sI6
Fnan
sI7
Fnan
sI8
Fnan
sI9
Fnan
sI10
Fnan
sI11
Fnan
ssS'ref1rms'
p61
(dp62
I0
F4.481537
sI1
F-2.964033
sI2
F3.677075
sI3
F0.932068
sI4
F3.604509
sI5
F1.264809
sI6
F-3.312428
sI7
F3.665628
sI8
F-2.669182
sI9
F1.415581
sI10
F-2.046976
sI11
F1.540751
ssS'ref2magmean'
p63
(dp64
I0
F10.682416666666667
sI1
Fnan
sI2
Fnan
sI3
Fnan
sI4
Fnan
sI5
Fnan
sI6
Fnan
sI7
Fnan
sI8
Fnan
sI9
Fnan
sI10
Fnan
sI11
Fnan
ssS'ref2flag'
p65
(dp66
I0
g7
sI1
g8
sI2
g9
sI3
g10
sI4
g11
sI5
g12
sI6
g13
sI7
g14
sI8
g15
sI9
g16
sI10
g17
sI11
g18
ssS'ref2'
p67
(dp68
I0
F13660.137777777776
sI1
F13700.473333333335
sI2
F12917.395555555557
sI3
F12786.937777777777
sI4
F13792.893333333332
sI5
F13698.442222222222
sI6
F13192.62888888889
sI7
F12847.584444444445
sI8
F12985.682222222222
sI9
F13689.442222222222
sI10
F13631.026666666665
sI11
F13926.355555555556
ssS'airmass'
p69
(dp70
I0
F1.221496
sI1
F1.269824
sI2
F1.308892
sI3
F1.304909
sI4
F1.259088
sI5
F1.2278719999999999
sI6
F1.2662
sI7
F1.31292
sI8
F1.317004
sI9
F1.218342
sI10
F1.262629
sI11
F1.22466
ssS'ref1'
p71
(dp72
I0
F11612.06
sI1
F11552.417777777777
sI2
F10959.5
sI3
F10768.186666666666
sI4
F11643.631111111112
sI5
F11736.517777777779
sI6
F11154.002222222221
sI7
F10893.124444444444
sI8
F11062.82888888889
sI9
F11558.697777777777
sI10
F11539.622222222222
sI11
F11835.702222222222
ssS'ref3'
p73
(dp74
I0
F18750.088888888888
sI1
F18869.673333333336
sI2
F17829.568888888887
sI3
F17735.16888888889
sI4
F18959.568888888887
sI5
F18970.642222222225
sI6
F18188.28222222222
sI7
F17762.573333333334
sI8
F18011.11111111111
sI9
F18808.59333333333
sI10
F18705.626666666667
sI11
F19145.98
ssS'ref1bkg'
p75
(dp76
I0
F16.47876
sI1
F17.69389
sI2
F16.67103
sI3
F18.81859
sI4
F17.05958
sI5
F15.93293
sI6
F18.34624
sI7
F17.91773
sI8
F18.22549
sI9
F16.70777
sI10
F17.92489
sI11
F17.44772
ssS'ref1mag'
p77
(dp78
I0
F10.838
sI1
F10.843
sI2
F10.901
sI3
F10.92
sI4
F10.835
sI5
F10.826
sI6
F10.881
sI7
F10.907
sI8
F10.89
sI9
F10.843
sI10
F10.845
sI11
F10.817
ssS'ref3magerr'
p79
(dp80
I0
F0.001
sI1
F0.001
sI2
F0.001
sI3
F0.001
sI4
F0.001
sI5
F0.001
sI6
F0.001
sI7
F0.001
sI8
F0.001
sI9
F0.001
sI10
F0.001
sI11
F0.001
ssS'tabbymagmean'
p81
(dp82
I0
F0.5496249571866443
sI1
Fnan
sI2
Fnan
sI3
Fnan
sI4
Fnan
sI5
Fnan
sI6
Fnan
sI7
Fnan
sI8
Fnan
sI9
Fnan
sI10
Fnan
sI11
Fnan
ssS'ref1magmean'
p83
(dp84
I0
F10.862166666666667
sI1
Fnan
sI2
Fnan
sI3
Fnan
sI4
Fnan
sI5
Fnan
sI6
Fnan
sI7
Fnan
sI8
Fnan
sI9
Fnan
sI10
Fnan
sI11
Fnan
ssS'ref2mag'
p85
(dp86
I0
F10.661
sI1
F10.658
sI2
F10.722
sI3
F10.733
sI4
F10.651
sI5
F10.658
sI6
F10.699
sI7
F10.728
sI8
F10.716
sI9
F10.659
sI10
F10.664
sI11
F10.64
ssS'ref3rms'
p87
(dp88
I0
F3.157774
sI1
F4.091035
sI2
F4.917802
sI3
F3.103092
sI4
F-1.110532
sI5
F3.374014
sI6
F4.626361
sI7
F3.207279
sI8
F-2.640815
sI9
F0.6820086
sI10
F2.463173
sI11
F-2.237231
ssS'ref3magmeanerr'
p89
(dp90
I0
F0.031302410595526235
sI1
Fnan
sI2
Fnan
sI3
Fnan
sI4
Fnan
sI5
Fnan
sI6
Fnan
sI7
Fnan
sI8
Fnan
sI9
Fnan
sI10
Fnan
sI11
Fnan
ssS'ref1rel'
p91
(dp92
I0
F0.7165676512804395
sI1
F0.7093869055002378
sI2
F0.712883382019862
sI3
F0.705599176640494
sI4
F0.7110079866429722
sI5
F0.7185091334736586
sI6
F0.7108781630162992
sI7
F0.7117326557756317
sI8
F0.7138047326329169
sI9
F0.7113474756354504
sI10
F0.7137177804560824
sI11
F0.7157463797705111
ssS'exposure'
p93
(dp94
I0
F45.0
sI1
F45.0
sI2
F45.0
sI3
F45.0
sI4
F45.0
sI5
F45.0
sI6
F45.0
sI7
F45.0
sI8
F45.0
sI9
F45.0
sI10
F45.0
sI11
F45.0
ssS'ref1magerr'
p95
(dp96
I0
F0.001
sI1
F0.001
sI2
F0.001
sI3
F0.002
sI4
F0.001
sI5
F0.001
sI6
F0.001
sI7
F0.001
sI8
F0.001
sI9
F0.001
sI10
F0.001
sI11
F0.001
ssS'ref2magerr'
p97
(dp98
I0
F0.001
sI1
F0.001
sI2
F0.001
sI3
F0.001
sI4
F0.001
sI5
F0.001
sI6
F0.001
sI7
F0.001
sI8
F0.001
sI9
F0.001
sI10
F0.001
sI11
F0.001
ssS'ref2rms'
p99
(dp100
I0
F-4.242235
sI1
F2.59054
sI2
F2.856821
sI3
F1.182119
sI4
F3.242433
sI5
F-1.021371
sI6
F2.171177
sI7
F2.246955
sI8
F4.557175
sI9
F4.371373
sI10
F0.2259539
sI11
F2.18547
ssS'name'
p101
(dp102
I0
S"KIC8462852-20180616at065616_-25-1-045-r'_cal.fts.mag.1"
p103
sI1
S"KIC8462852-20180616at063915_-25-1-045-r'_cal.fts.mag.1"
p104
sI2
S"KIC8462852-20180616at062705_-25-1-045-r'_cal.fts.mag.1"
p105
sI3
S"KIC8462852-20180616at062816_-25-1-045-r'_cal.fts.mag.1"
p106
sI4
S"KIC8462852-20180616at064251_-25-1-045-r'_cal.fts.mag.1"
p107
sI5
S"KIC8462852-20180616at065352_-25-1-045-r'_cal.fts.mag.1"
p108
sI6
S"KIC8462852-20180616at064027_-25-1-045-r'_cal.fts.mag.1"
p109
sI7
S"KIC8462852-20180616at062553_-25-1-045-r'_cal.fts.mag.1"
p110
sI8
S"KIC8462852-20180616at062441_-25-1-045-r'_cal.fts.mag.1"
p111
sI9
S"KIC8462852-20180616at065728_-25-1-045-r'_cal.fts.mag.1"
p112
sI10
S"KIC8462852-20180616at064139_-25-1-045-r'_cal.fts.mag.1"
p113
sI11
S"KIC8462852-20180616at065505_-25-1-045-r'_cal.fts.mag.1"
p114
ssS'ref3err'
p115
(dp116
I0
F0.005960415475137415
sI1
Fnan
sI2
Fnan
sI3
Fnan
sI4
Fnan
sI5
Fnan
sI6
Fnan
sI7
Fnan
sI8
Fnan
sI9
Fnan
sI10
Fnan
sI11
Fnan
ssS'tabby'
p117
(dp118
I0
F8052.224444444444
sI1
F8074.913333333333
sI2
F7678.093333333333
sI3
F7546.39111111111
sI4
F8179.9
sI5
F8172.206666666666
sI6
F7782.168888888888
sI7
F7584.2
sI8
F7700.19111111111
sI9
F8056.7
sI10
F8041.864444444445
sI11
F8195.675555555556
ssS'ref1magmeanerr'
p119
(dp120
I0
F0.035280263174995795
sI1
Fnan
sI2
Fnan
sI3
Fnan
sI4
Fnan
sI5
Fnan
sI6
Fnan
sI7
Fnan
sI8
Fnan
sI9
Fnan
sI10
Fnan
sI11
Fnan
ssS'filter'
p121
(dp122
I0
S"r'"
p123
sI1
S"r'"
p124
sI2
S"r'"
p125
sI3
S"r'"
p126
sI4
S"r'"
p127
sI5
S"r'"
p128
sI6
S"r'"
p129
sI7
S"r'"
p130
sI8
S"r'"
p131
sI9
S"r'"
p132
sI10
S"r'"
p133
sI11
S"r'"
p134
ssS'tabbymagerr'
p135
(dp136
I0
F0.0017643708684733318
sI1
Fnan
sI2
Fnan
sI3
Fnan
sI4
Fnan
sI5
Fnan
sI6
Fnan
sI7
Fnan
sI8
Fnan
sI9
Fnan
sI10
Fnan
sI11
Fnan
ssS'tabbyrms'
p137
(dp138
I0
F2.612867
sI1
F3.087326
sI2
F-2.137108
sI3
F-3.062743
sI4
F2.809937
sI5
F2.290053
sI6
F3.109388
sI7
F3.4112
sI8
F3.012957
sI9
F2.705292
sI10
F2.855527
sI11
F3.661651
ssS'ref3mean'
p139
(dp140
I0
F1.4925839753708543
sI1
Fnan
sI2
Fnan
sI3
Fnan
sI4
Fnan
sI5
Fnan
sI6
Fnan
sI7
Fnan
sI8
Fnan
sI9
Fnan
sI10
Fnan
sI11
Fnan
ssS'median_JD'
p141
(dp142
I0
F2458285.7785069444
sI1
Fnan
sI2
Fnan
sI3
Fnan
sI4
Fnan
sI5
Fnan
sI6
Fnan
sI7
Fnan
sI8
Fnan
sI9
Fnan
sI10
Fnan
sI11
Fnan
ssS'error'
p143
(dp144
I0
F0.0017643708684733318
sI1
Fnan
sI2
Fnan
sI3
Fnan
sI4
Fnan
sI5
Fnan
sI6
Fnan
sI7
Fnan
sI8
Fnan
sI9
Fnan
sI10
Fnan
sI11
Fnan
ssS'ref3bkg'
p145
(dp146
I0
F20.41204
sI1
F18.84955
sI2
F19.60899
sI3
F22.49868
sI4
F18.77168
sI5
F19.64396
sI6
F21.69676
sI7
F21.16799
sI8
F22.35728
sI9
F19.49568
sI10
F20.06051
sI11
F20.03708
ssS'ref3mag'
p147
(dp148
I0
F10.317
sI1
F10.311
sI2
F10.372
sI3
F10.378
sI4
F10.305
sI5
F10.305
sI6
F10.351
sI7
F10.376
sI8
F10.361
sI9
F10.314
sI10
F10.32
sI11
F10.295
ssS'mean'
p149
(dp150
I0
F0.5496249571866443
sI1
Fnan
sI2
Fnan
sI3
Fnan
sI4
Fnan
sI5
Fnan
sI6
Fnan
sI7
Fnan
sI8
Fnan
sI9
Fnan
sI10
Fnan
sI11
Fnan
sssS'z'
p151
(dp152
g3
(dp153
I0
F0.3746930613386931
sI1
Fnan
sI2
Fnan
sI3
Fnan
sI4
Fnan
sI5
Fnan
sI6
Fnan
sI7
Fnan
sI8
Fnan
sI9
Fnan
sI10
Fnan
sI11
Fnan
ssg5
(dp154
I0
S'NoError'
p155
sI1
S'NoError'
p156
sI2
S'NoError'
p157
sI3
S'NoError'
p158
sI4
S'NoError'
p159
sI5
S'NoError'
p160
sI6
S'NoError'
p161
sI7
S'NoError'
p162
sI8
S'NoError'
p163
sI9
S'NoError'
p164
sI10
S'NoError'
p165
sI11
S'NoError'
p166
ssg19
(dp167
I0
F0.007
sI1
F0.007
sI2
F0.007
sI3
F0.007
sI4
F0.007
sI5
F0.007
sI6
F0.007
sI7
F0.007
sI8
F0.007
sI9
F0.007
sI10
F0.007
sI11
F0.007
ssg21
(dp168
I0
F0.9158433952815491
sI1
F0.915995977781034
sI2
F0.9159067628305635
sI3
F0.9158633858012071
sI4
F0.9168570555046
sI5
F0.9240338467790652
sI6
F0.9158015777853297
sI7
F0.9216523515725382
sI8
F0.9182447514286081
sI9
F0.9140005768636141
sI10
F0.9200600830390915
sI11
F0.9192965826645387
ssg23
(dp169
I0
F0.002938504720554541
sI1
Fnan
sI2
Fnan
sI3
Fnan
sI4
Fnan
sI5
Fnan
sI6
Fnan
sI7
Fnan
sI8
Fnan
sI9
Fnan
sI10
Fnan
sI11
Fnan
ssg25
(dp170
I0
F0.9177963622776448
sI1
Fnan
sI2
Fnan
sI3
Fnan
sI4
Fnan
sI5
Fnan
sI6
Fnan
sI7
Fnan
sI8
Fnan
sI9
Fnan
sI10
Fnan
sI11
Fnan
ssg27
(dp171
I0
F13.349
sI1
F13.338
sI2
F13.327
sI3
F13.336
sI4
F13.341
sI5
F13.331
sI6
F13.368
sI7
F13.373
sI8
F13.38
sI9
F13.328
sI10
F13.373
sI11
F13.343
ssg29
(dp172
I0
F15.84617
sI1
F13.19959
sI2
F13.5996
sI3
F15.26881
sI4
F14.45152
sI5
F15.30387
sI6
F14.84763
sI7
F14.34673
sI8
F14.58771
sI9
F14.70561
sI10
F14.16126
sI11
F14.29795
ssg31
(dp173
I0
F2458285.780613426
sI1
F2458285.790763889
sI2
F2458285.791585648
sI3
F2458285.7721412037
sI4
F2458285.793240741
sI5
F2458285.7822685186
sI6
F2458285.781435185
sI7
F2458285.7713194443
sI8
F2458285.7704861113
sI9
F2458285.7729629627
sI10
F2458285.7924189814
sI11
F2458285.783101852
ssg33
(dp174
I0
F1.0510686083333334
sI1
Fnan
sI2
Fnan
sI3
Fnan
sI4
Fnan
sI5
Fnan
sI6
Fnan
sI7
Fnan
sI8
Fnan
sI9
Fnan
sI10
Fnan
sI11
Fnan
ssg35
(dp175
I0
F0.53714
sI1
Fnan
sI2
Fnan
sI3
Fnan
sI4
Fnan
sI5
Fnan
sI6
Fnan
sI7
Fnan
sI8
Fnan
sI9
Fnan
sI10
Fnan
sI11
Fnan
ssg37
(dp176
I0
F0.37015325539807303
sI1
F0.3741600634822416
sI2
F0.37825919255762736
sI3
F0.37796393251050325
sI4
F0.37234240882895514
sI5
F0.37102563692529983
sI6
F0.3724682034189524
sI7
F0.3758657064791855
sI8
F0.3772589613208364
sI9
F0.3759370673277783
sI10
F0.3726509439939957
sI11
F0.3736915578802488
ssg39
(dp177
I0
F0.0023799404364642585
sI1
Fnan
sI2
Fnan
sI3
Fnan
sI4
Fnan
sI5
Fnan
sI6
Fnan
sI7
Fnan
sI8
Fnan
sI9
Fnan
sI10
Fnan
sI11
Fnan
ssg41
(dp178
I0
F1.3968709166666666
sI1
Fnan
sI2
Fnan
sI3
Fnan
sI4
Fnan
sI5
Fnan
sI6
Fnan
sI7
Fnan
sI8
Fnan
sI9
Fnan
sI10
Fnan
sI11
Fnan
ssg43
(dp179
I0
g155
sI1
g156
sI2
g157
sI3
g158
sI4
g159
sI5
g160
sI6
g161
sI7
g162
sI8
g163
sI9
g164
sI10
g165
sI11
g166
ssg45
(dp180
I0
F0.003144280952760827
sI1
Fnan
sI2
Fnan
sI3
Fnan
sI4
Fnan
sI5
Fnan
sI6
Fnan
sI7
Fnan
sI8
Fnan
sI9
Fnan
sI10
Fnan
sI11
Fnan
ssg47
(dp181
I0
F0.020238726753579506
sI1
Fnan
sI2
Fnan
sI3
Fnan
sI4
Fnan
sI5
Fnan
sI6
Fnan
sI7
Fnan
sI8
Fnan
sI9
Fnan
sI10
Fnan
sI11
Fnan
ssg49
(dp182
I0
F1.3139425833333334
sI1
Fnan
sI2
Fnan
sI3
Fnan
sI4
Fnan
sI5
Fnan
sI6
Fnan
sI7
Fnan
sI8
Fnan
sI9
Fnan
sI10
Fnan
sI11
Fnan
ssg51
(dp183
I0
F1.511080681565977
sI1
F1.4948726869523212
sI2
F1.5001725213079498
sI3
F1.5071682809846247
sI4
F1.5050199952323715
sI5
F1.5024965447030583
sI6
F1.5087230324148988
sI7
F1.4993776144849233
sI8
F1.5039864586195908
sI9
F1.5017615486815326
sI10
F1.499649110442327
sI11
F1.5031441449867529
ssg53
(dp184
I0
g155
sI1
g156
sI2
g157
sI3
g158
sI4
g159
sI5
g160
sI6
g161
sI7
g162
sI8
g163
sI9
g164
sI10
g165
sI11
g166
ssg55
(dp185
I0
F15.56221
sI1
F14.6386
sI2
F15.45978
sI3
F16.50982
sI4
F14.71393
sI5
F15.45091
sI6
F16.27542
sI7
F15.37049
sI8
F15.7379
sI9
F15.80415
sI10
F15.01402
sI11
F16.30277
ssg57
(dp186
I0
F12.007750000000001
sI1
Fnan
sI2
Fnan
sI3
Fnan
sI4
Fnan
sI5
Fnan
sI6
Fnan
sI7
Fnan
sI8
Fnan
sI9
Fnan
sI10
Fnan
sI11
Fnan
ssg59
(dp187
I0
F0.6895120393789465
sI1
Fnan
sI2
Fnan
sI3
Fnan
sI4
Fnan
sI5
Fnan
sI6
Fnan
sI7
Fnan
sI8
Fnan
sI9
Fnan
sI10
Fnan
sI11
Fnan
ssg61
(dp188
I0
F-1.380113
sI1
F-1.637948
sI2
F2.501505
sI3
F4.052845
sI4
F1.937268
sI5
F-2.577621
sI6
F-2.674564
sI7
F4.414466
sI8
F-3.347309
sI9
F-0.347015
sI10
F1.585713
sI11
F3.918453
ssg63
(dp189
I0
F12.344833333333334
sI1
Fnan
sI2
Fnan
sI3
Fnan
sI4
Fnan
sI5
Fnan
sI6
Fnan
sI7
Fnan
sI8
Fnan
sI9
Fnan
sI10
Fnan
sI11
Fnan
ssg65
(dp190
I0
g155
sI1
g156
sI2
g157
sI3
g158
sI4
g159
sI5
g160
sI6
g161
sI7
g162
sI8
g163
sI9
g164
sI10
g165
sI11
g166
ssg67
(dp191
I0
F2926.14
sI1
F2924.1044444444447
sI2
F2920.826666666667
sI3
F2899.262222222222
sI4
F2932.231111111111
sI5
F2986.188888888889
sI6
F2856.5133333333333
sI7
F2830.9555555555557
sI8
F2795.0911111111113
sI9
F2932.957777777778
sI10
F2850.9666666666667
sI11
F2922.462222222222
ssg69
(dp192
I0
F1.25547
sI1
F1.215155
sI2
F1.212076
sI3
F1.2930540000000001
sI4
F1.20602
sI5
F1.248489
sI6
F1.251966
sI7
F1.296912
sI8
F1.300825
sI9
F1.289207
sI10
F1.2090450000000001
sI11
F1.245039
ssg71
(dp193
I0
F2380.5933333333332
sI1
F2402.9222222222224
sI2
F2392.5266666666666
sI3
F2364.5133333333333
sI4
F2390.7044444444446
sI5
F2409.7133333333336
sI6
F2327.5911111111113
sI7
F2298.0555555555557
sI8
F2275.128888888889
sI9
F2407.6711111111113
sI10
F2320.017777777778
sI11
F2375.9222222222224
ssg73
(dp194
I0
F4009.451111111111
sI1
F3981.6133333333337
sI2
F3985.473333333333
sI3
F3966.6977777777774
sI4
F4005.562222222222
sI5
F4053.6622222222218
sI6
F3910.688888888889
sI7
F3845.1622222222218
sI8
F3812.771111111111
sI9
F4010.1755555555555
sI10
F3877.331111111111
sI11
F3982.1177777777775
ssg75
(dp195
I0
F15.78208
sI1
F14.23965
sI2
F14.2093
sI3
F15.44293
sI4
F14.08589
sI5
F16.26754
sI6
F16.24673
sI7
F14.54706
sI8
F15.98918
sI9
F15.27199
sI10
F14.96362
sI11
F15.76267
ssg77
(dp196
I0
F12.558
sI1
F12.548
sI2
F12.553
sI3
F12.566
sI4
F12.554
sI5
F12.545
sI6
F12.583
sI7
F12.597
sI8
F12.607
sI9
F12.546
sI10
F12.586
sI11
F12.56
ssg79
(dp197
I0
F0.003
sI1
F0.003
sI2
F0.003
sI3
F0.003
sI4
F0.003
sI5
F0.003
sI6
F0.003
sI7
F0.003
sI8
F0.003
sI9
F0.003
sI10
F0.003
sI11
F0.003
ssg81
(dp198
I0
F0.3743147441769748
sI1
Fnan
sI2
Fnan
sI3
Fnan
sI4
Fnan
sI5
Fnan
sI6
Fnan
sI7
Fnan
sI8
Fnan
sI9
Fnan
sI10
Fnan
sI11
Fnan
ssg83
(dp199
I0
F12.566916666666666
sI1
Fnan
sI2
Fnan
sI3
Fnan
sI4
Fnan
sI5
Fnan
sI6
Fnan
sI7
Fnan
sI8
Fnan
sI9
Fnan
sI10
Fnan
sI11
Fnan
ssg85
(dp200
I0
F12.334
sI1
F12.335
sI2
F12.336
sI3
F12.344
sI4
F12.332
sI5
F12.312
sI6
F12.36
sI7
F12.37
sI8
F12.384
sI9
F12.332
sI10
F12.363
sI11
F12.336
ssg87
(dp201
I0
F0.5195327
sI1
F2.711568
sI2
F-3.626937
sI3
F-3.28444
sI4
F3.008776
sI5
F-2.232755
sI6
F1.633691
sI7
F3.15638
sI8
F3.529859
sI9
F3.399643
sI10
F4.382133
sI11
F-0.5846274
ssg89
(dp202
I0
F0.02073260497600111
sI1
Fnan
sI2
Fnan
sI3
Fnan
sI4
Fnan
sI5
Fnan
sI6
Fnan
sI7
Fnan
sI8
Fnan
sI9
Fnan
sI10
Fnan
sI11
Fnan
ssg91
(dp203
I0
F0.6864860673575528
sI1
F0.6959225093022755
sI2
F0.692853385073532
sI3
F0.6887640864011249
sI4
F0.6891829518639773
sI5
F0.6845921299471928
sI6
F0.6879035189661509
sI7
F0.688440687252372
sI8
F0.6886126896646352
sI9
F0.6935402203936104
sI10
F0.6896299344658415
sI11
F0.6882162918590914
ssg93
(dp204
I0
F45.0
sI1
F45.0
sI2
F45.0
sI3
F45.0
sI4
F45.0
sI5
F45.0
sI6
F45.0
sI7
F45.0
sI8
F45.0
sI9
F45.0
sI10
F45.0
sI11
F45.0
ssg95
(dp205
I0
F0.004
sI1
F0.004
sI2
F0.004
sI3
F0.004
sI4
F0.004
sI5
F0.004
sI6
F0.004
sI7
F0.004
sI8
F0.004
sI9
F0.004
sI10
F0.004
sI11
F0.004
ssg97
(dp206
I0
F0.003
sI1
F0.003
sI2
F0.003
sI3
F0.004
sI4
F0.004
sI5
F0.003
sI6
F0.003
sI7
F0.003
sI8
F0.004
sI9
F0.003
sI10
F0.004
sI11
F0.003
ssg99
(dp207
I0
F-2.044465
sI1
F-1.905535
sI2
F3.781397
sI3
F2.13
sI4
F3.695654
sI5
F3.019464
sI6
F2.697809
sI7
F-1.582578
sI8
F2.975672
sI9
F-3.238876
sI10
F2.76985
sI11
F3.468919
ssg101
(dp208
I0
S"KIC8462852-20180616at064403_-25-1-045-z'_cal.fts.mag.1"
p209
sI1
S"KIC8462852-20180616at065841_-25-1-045-z'_cal.fts.mag.1"
p210
sI2
S"KIC8462852-20180616at065953_-25-1-045-z'_cal.fts.mag.1"
p211
sI3
S"KIC8462852-20180616at063153_-25-1-045-z'_cal.fts.mag.1"
p212
sI4
S"KIC8462852-20180616at070216_-25-1-045-z'_cal.fts.mag.1"
p213
sI5
S"KIC8462852-20180616at064628_-25-1-045-z'_cal.fts.mag.1"
p214
sI6
S"KIC8462852-20180616at064516_-25-1-045-z'_cal.fts.mag.1"
p215
sI7
S"KIC8462852-20180616at063042_-25-1-045-z'_cal.fts.mag.1"
p216
sI8
S"KIC8462852-20180616at062929_-25-1-045-z'_cal.fts.mag.1"
p217
sI9
S"KIC8462852-20180616at063304_-25-1-045-z'_cal.fts.mag.1"
p218
sI10
S"KIC8462852-20180616at070105_-25-1-045-z'_cal.fts.mag.1"
p219
sI11
S"KIC8462852-20180616at064740_-25-1-045-z'_cal.fts.mag.1"
p220
ssg115
(dp221
I0
F0.00447730354729959
sI1
Fnan
sI2
Fnan
sI3
Fnan
sI4
Fnan
sI5
Fnan
sI6
Fnan
sI7
Fnan
sI8
Fnan
sI9
Fnan
sI10
Fnan
sI11
Fnan
ssg117
(dp222
I0
F1149.472
sI1
F1160.9737777777777
sI2
F1172.4555555555555
sI3
F1162.9286666666667
sI4
F1157.7984444444444
sI5
F1168.676888888889
sI6
F1129.1737777777778
sI7
F1124.3613333333333
sI8
F1117.0626666666667
sI9
F1171.7713333333334
sI10
F1123.9544444444443
sI11
F1156.015111111111
ssg119
(dp223
I0
F0.021103460867972674
sI1
Fnan
sI2
Fnan
sI3
Fnan
sI4
Fnan
sI5
Fnan
sI6
Fnan
sI7
Fnan
sI8
Fnan
sI9
Fnan
sI10
Fnan
sI11
Fnan
ssg121
(dp224
I0
S"z'"
p225
sI1
S"z'"
p226
sI2
S"z'"
p227
sI3
S"z'"
p228
sI4
S"z'"
p229
sI5
S"z'"
p230
sI6
S"z'"
p231
sI7
S"z'"
p232
sI8
S"z'"
p233
sI9
S"z'"
p234
sI10
S"z'"
p235
sI11
S"z'"
p236
ssg135
(dp237
I0
F0.002716910557844174
sI1
Fnan
sI2
Fnan
sI3
Fnan
sI4
Fnan
sI5
Fnan
sI6
Fnan
sI7
Fnan
sI8
Fnan
sI9
Fnan
sI10
Fnan
sI11
Fnan
ssg137
(dp238
I0
F3.227238
sI1
F2.926315
sI2
F2.231093
sI3
F-2.519777
sI4
F2.856041
sI5
F1.183859
sI6
F2.831704
sI7
F3.446463
sI8
F-2.992752
sI9
F2.467023
sI10
F3.662895
sI11
F-2.557651
ssg139
(dp239
I0
F1.5031210516980273
sI1
Fnan
sI2
Fnan
sI3
Fnan
sI4
Fnan
sI5
Fnan
sI6
Fnan
sI7
Fnan
sI8
Fnan
sI9
Fnan
sI10
Fnan
sI11
Fnan
ssg141
(dp240
I0
F2458285.781851852
sI1
Fnan
sI2
Fnan
sI3
Fnan
sI4
Fnan
sI5
Fnan
sI6
Fnan
sI7
Fnan
sI8
Fnan
sI9
Fnan
sI10
Fnan
sI11
Fnan
ssg143
(dp241
I0
F0.002716910557844174
sI1
Fnan
sI2
Fnan
sI3
Fnan
sI4
Fnan
sI5
Fnan
sI6
Fnan
sI7
Fnan
sI8
Fnan
sI9
Fnan
sI10
Fnan
sI11
Fnan
ssg145
(dp242
I0
F16.55317
sI1
F15.41573
sI2
F16.27063
sI3
F17.50961
sI4
F15.68797
sI5
F16.59035
sI6
F15.85637
sI7
F15.55673
sI8
F16.91728
sI9
F16.28178
sI10
F15.75697
sI11
F16.88678
ssg147
(dp243
I0
F11.992
sI1
F12.0
sI2
F11.999
sI3
F12.004
sI4
F11.993
sI5
F11.98
sI6
F12.019
sI7
F12.038
sI8
F12.047
sI9
F11.992
sI10
F12.029
sI11
F12.0
ssg149
(dp244
I0
F0.3743147441769748
sI1
Fnan
sI2
Fnan
sI3
Fnan
sI4
Fnan
sI5
Fnan
sI6
Fnan
sI7
Fnan
sI8
Fnan
sI9
Fnan
sI10
Fnan
sI11
Fnan
sssS'g'
p245
(dp246
g3
(dp247
I0
F0.86535487073966
sI1
Fnan
sI2
Fnan
sI3
Fnan
sI4
Fnan
sI5
Fnan
sI6
Fnan
sI7
Fnan
sI8
Fnan
sI9
Fnan
sI10
Fnan
ssg5
(dp248
I0
S'NoError'
p249
sI1
S'NoError'
p250
sI2
S'NoError'
p251
sI3
S'NoError'
p252
sI4
S'NoError'
p253
sI5
S'NoError'
p254
sI6
S'NoError'
p255
sI7
S'NoError'
p256
sI8
S'NoError'
p257
sI9
S'NoError'
p258
sI10
S'NoError'
p259
ssg19
(dp260
I0
F0.002
sI1
F0.002
sI2
F0.002
sI3
F0.002
sI4
F0.002
sI5
F0.002
sI6
F0.002
sI7
F0.002
sI8
F0.002
sI9
F0.002
sI10
F0.002
ssg21
(dp261
I0
F0.8777188030150761
sI1
F0.8798103251441306
sI2
F0.8808804145497721
sI3
F0.8754519865928717
sI4
F0.8805701250553684
sI5
F0.8826384700850015
sI6
F0.8843951958339561
sI7
F0.8796858526333068
sI8
F0.8824134034414729
sI9
F0.8798395674969128
sI10
F0.8807873771328458
ssg23
(dp262
I0
F0.0024140307251065635
sI1
Fnan
sI2
Fnan
sI3
Fnan
sI4
Fnan
sI5
Fnan
sI6
Fnan
sI7
Fnan
sI8
Fnan
sI9
Fnan
sI10
Fnan
ssg25
(dp263
I0
F0.8803810473618832
sI1
Fnan
sI2
Fnan
sI3
Fnan
sI4
Fnan
sI5
Fnan
sI6
Fnan
sI7
Fnan
sI8
Fnan
sI9
Fnan
sI10
Fnan
ssg27
(dp264
I0
F11.494
sI1
F11.47
sI2
F11.499
sI3
F11.44
sI4
F11.456
sI5
F11.446
sI6
F11.479
sI7
F11.437
sI8
F11.445
sI9
F11.44
sI10
F11.439
ssg29
(dp265
I0
F11.12051
sI1
F10.76562
sI2
F11.24099
sI3
F11.61193
sI4
F11.40048
sI5
F10.70917
sI6
F11.72497
sI7
F10.64614
sI8
F11.28275
sI9
F10.73277
sI10
F10.47762
ssg31
(dp266
I0
F2458285.7662962964
sI1
F2458285.7638194445
sI2
F2458285.765462963
sI3
F2458285.784085648
sI4
F2458285.7857407406
sI5
F2458285.776412037
sI6
F2458285.764641204
sI7
F2458285.7747569443
sI8
F2458285.7755787037
sI9
F2458285.7849074076
sI10
F2458285.7739236113
ssg33
(dp267
I0
F2.072896481818182
sI1
Fnan
sI2
Fnan
sI3
Fnan
sI4
Fnan
sI5
Fnan
sI6
Fnan
sI7
Fnan
sI8
Fnan
sI9
Fnan
sI10
Fnan
ssg35
(dp268
I0
F1.6192167272727274
sI1
Fnan
sI2
Fnan
sI3
Fnan
sI4
Fnan
sI5
Fnan
sI6
Fnan
sI7
Fnan
sI8
Fnan
sI9
Fnan
sI10
Fnan
ssg37
(dp269
I0
F0.8659315273023953
sI1
F0.8627776333053582
sI2
F0.862028827489265
sI3
F0.8625691031058565
sI4
F0.8663671423468994
sI5
F0.8690072923755371
sI6
F0.8680503615494677
sI7
F0.8665347075049181
sI8
F0.8632402134127665
sI9
F0.8688621237246339
sI10
F0.8635346460191627
ssg39
(dp270
I0
F0.0025028371329084247
sI1
Fnan
sI2
Fnan
sI3
Fnan
sI4
Fnan
sI5
Fnan
sI6
Fnan
sI7
Fnan
sI8
Fnan
sI9
Fnan
sI10
Fnan
ssg41
(dp271
I0
F0.804575818181818
sI1
Fnan
sI2
Fnan
sI3
Fnan
sI4
Fnan
sI5
Fnan
sI6
Fnan
sI7
Fnan
sI8
Fnan
sI9
Fnan
sI10
Fnan
ssg43
(dp272
I0
g249
sI1
g250
sI2
g251
sI3
g252
sI4
g253
sI5
g254
sI6
g255
sI7
g256
sI8
g257
sI9
g258
sI10
g259
ssg45
(dp273
I0
F0.0028007563943674815
sI1
Fnan
sI2
Fnan
sI3
Fnan
sI4
Fnan
sI5
Fnan
sI6
Fnan
sI7
Fnan
sI8
Fnan
sI9
Fnan
sI10
Fnan
ssg47
(dp274
I0
F0.022659936612283865
sI1
Fnan
sI2
Fnan
sI3
Fnan
sI4
Fnan
sI5
Fnan
sI6
Fnan
sI7
Fnan
sI8
Fnan
sI9
Fnan
sI10
Fnan
ssg49
(dp275
I0
F1.239238181818182
sI1
Fnan
sI2
Fnan
sI3
Fnan
sI4
Fnan
sI5
Fnan
sI6
Fnan
sI7
Fnan
sI8
Fnan
sI9
Fnan
sI10
Fnan
ssg51
(dp276
I0
F1.5129262190025574
sI1
F1.515637621160981
sI2
F1.5179010435157017
sI3
F1.5241928528983342
sI4
F1.5162023944577603
sI5
F1.517302167088407
sI6
F1.5123752022365784
sI7
F1.505689754002406
sI8
F1.5130493155347675
sI9
F1.5140065930731197
sI10
F1.5109971888555893
ssg53
(dp277
I0
g249
sI1
g250
sI2
g251
sI3
g252
sI4
g253
sI5
g254
sI6
g255
sI7
g256
sI8
g257
sI9
g258
sI10
g259
ssg55
(dp278
I0
F11.81275
sI1
F11.40029
sI2
F12.40566
sI3
F11.16059
sI4
F12.2565
sI5
F9.776072
sI6
F11.84313
sI7
F11.57412
sI8
F11.14731
sI9
F11.37851
sI10
F11.63201
ssg57
(dp279
I0
F11.022545454545455
sI1
Fnan
sI2
Fnan
sI3
Fnan
sI4
Fnan
sI5
Fnan
sI6
Fnan
sI7
Fnan
sI8
Fnan
sI9
Fnan
sI10
Fnan
ssg59
(dp280
I0
F0.7152299808394958
sI1
Fnan
sI2
Fnan
sI3
Fnan
sI4
Fnan
sI5
Fnan
sI6
Fnan
sI7
Fnan
sI8
Fnan
sI9
Fnan
sI10
Fnan
ssg61
(dp281
I0
F4.140653
sI1
F-2.53807
sI2
F-3.638415
sI3
F3.55176
sI4
F3.047962
sI5
F4.665184
sI6
F3.076742
sI7
F3.548645
sI8
F3.574842
sI9
F1.37962
sI10
F-2.997539
ssg63
(dp282
I0
F11.395545454545454
sI1
Fnan
sI2
Fnan
sI3
Fnan
sI4
Fnan
sI5
Fnan
sI6
Fnan
sI7
Fnan
sI8
Fnan
sI9
Fnan
sI10
Fnan
ssg65
(dp283
I0
g249
sI1
g250
sI2
g251
sI3
g252
sI4
g253
sI5
g254
sI6
g255
sI7
g256
sI8
g257
sI9
g258
sI10
g259
ssg67
(dp284
I0
F6701.74
sI1
F6892.22
sI2
F6723.022222222222
sI3
F7064.028888888889
sI4
F6953.5022222222215
sI5
F7012.064444444445
sI6
F6816.946666666666
sI7
F7074.5088888888895
sI8
F7063.522222222222
sI9
F7036.315555555556
sI10
F7087.3711111111115
ssg69
(dp285
I0
F1.321268
sI1
F1.3338780000000001
sI2
F1.3254540000000001
sI3
F1.241101
sI4
F1.234465
sI5
F1.273579
sI6
F1.32966
sI7
F1.2810190000000001
sI8
F1.277298
sI9
F1.237773
sI10
F1.2847709999999999
ssg71
(dp286
I0
F5807.804444444445
sI1
F5941.7155555555555
sI2
F5777.242222222222
sI3
F6103.266666666666
sI4
F5984.708888888889
sI5
F6009.811111111111
sI6
F5842.868888888888
sI7
F6137.544444444445
sI8
F6072.1177777777775
sI9
F6071.717777777778
sI10
F6117.2155555555555
ssg73
(dp287
I0
F9463.00888888889
sI1
F9725.797777777778
sI2
F9487.082222222223
sI3
F10034.74888888889
sI4
F9808.473333333333
sI5
F9879.06
sI6
F9573.195555555556
sI7
F9946.626666666667
sI8
F9937.435555555556
sI9
F9922.824444444444
sI10
F9976.046666666665
ssg75
(dp288
I0
F9.682078
sI1
F10.02023
sI2
F12.5463
sI3
F10.9191
sI4
F11.26728
sI5
F10.43893
sI6
F11.50055
sI7
F9.694468
sI8
F10.56189
sI9
F10.44153
sI10
F10.80807
ssg77
(dp289
I0
F11.59
sI1
F11.565
sI2
F11.596
sI3
F11.536
sI4
F11.557
sI5
F11.553
sI6
F11.583
sI7
F11.53
sI8
F11.542
sI9
F11.542
sI10
F11.534
ssg79
(dp290
I0
F0.002
sI1
F0.002
sI2
F0.002
sI3
F0.002
sI4
F0.002
sI5
F0.002
sI6
F0.002
sI7
F0.002
sI8
F0.002
sI9
F0.002
sI10
F0.002
ssg81
(dp291
I0
F0.86535487073966
sI1
Fnan
sI2
Fnan
sI3
Fnan
sI4
Fnan
sI5
Fnan
sI6
Fnan
sI7
Fnan
sI8
Fnan
sI9
Fnan
sI10
Fnan
ssg83
(dp292
I0
F11.55709090909091
sI1
Fnan
sI2
Fnan
sI3
Fnan
sI4
Fnan
sI5
Fnan
sI6
Fnan
sI7
Fnan
sI8
Fnan
sI9
Fnan
sI10
Fnan
ssg85
(dp293
I0
F11.435
sI1
F11.404
sI2
F11.431
sI3
F11.377
sI4
F11.394
sI5
F11.385
sI6
F11.416
sI7
F11.376
sI8
F11.377
sI9
F11.382
sI10
F11.374
ssg87
(dp294
I0
F2.451946
sI1
F2.581741
sI2
F-1.631299
sI3
F-0.9894177
sI4
F4.269441
sI5
F3.770321
sI6
F-1.630223
sI7
F3.644376
sI8
F4.991596
sI9
F1.819119
sI10
F3.524261
ssg89
(dp295
I0
F0.022695213752523584
sI1
Fnan
sI2
Fnan
sI3
Fnan
sI4
Fnan
sI5
Fnan
sI6
Fnan
sI7
Fnan
sI8
Fnan
sI9
Fnan
sI10
Fnan
ssg91
(dp296
I0
F0.7185765129251759
sI1
F0.7150931759744577
sI2
F0.7127951879671212
sI3
F0.7138833834777014
sI4
F0.7140815674206529
sI5
F0.7115939653251161
sI6
F0.7129735434469825
sI7
F0.7211674478958252
sI8
F0.7143265523210391
sI9
F0.7160407635974204
sI10
F0.7169976888829619
ssg93
(dp297
I0
F45.0
sI1
F45.0
sI2
F45.0
sI3
F45.0
sI4
F45.0
sI5
F45.0
sI6
F45.0
sI7
F45.0
sI8
F45.0
sI9
F45.0
sI10
F45.0
ssg95
(dp298
I0
F0.002
sI1
F0.002
sI2
F0.002
sI3
F0.002
sI4
F0.002
sI5
F0.002
sI6
F0.002
sI7
F0.002
sI8
F0.002
sI9
F0.002
sI10
F0.002
ssg97
(dp299
I0
F0.002
sI1
F0.002
sI2
F0.002
sI3
F0.002
sI4
F0.002
sI5
F0.002
sI6
F0.002
sI7
F0.002
sI8
F0.002
sI9
F0.002
sI10
F0.002
ssg99
(dp300
I0
F1.964463
sI1
F3.218417
sI2
F-1.825076
sI3
F4.433958
sI4
F-1.767292
sI5
F2.453061
sI6
F2.771045
sI7
F1.181836
sI8
F1.461846
sI9
F3.492489
sI10
F-3.753127
ssg101
(dp301
I0
S"KIC8462852-20180616at062327_-25-1-045-g'_cal.fts.mag.1"
p302
sI1
S"KIC8462852-20180616at061949_-25-1-045-g'_cal.fts.mag.1"
p303
sI2
S"KIC8462852-20180616at062216_-25-1-045-g'_cal.fts.mag.1"
p304
sI3
S"KIC8462852-20180616at064855_-25-1-045-g'_cal.fts.mag.1"
p305
sI4
S"KIC8462852-20180616at065128_-25-1-045-g'_cal.fts.mag.1"
p306
sI5
S"KIC8462852-20180616at063802_-25-1-045-g'_cal.fts.mag.1"
p307
sI6
S"KIC8462852-20180616at062105_-25-1-045-g'_cal.fts.mag.1"
p308
sI7
S"KIC8462852-20180616at063539_-25-1-045-g'_cal.fts.mag.1"
p309
sI8
S"KIC8462852-20180616at063650_-25-1-045-g'_cal.fts.mag.1"
p310
sI9
S"KIC8462852-20180616at065016_-25-1-045-g'_cal.fts.mag.1"
p311
sI10
S"KIC8462852-20180616at063418_-25-1-045-g'_cal.fts.mag.1"
p312
ssg115
(dp313
I0
F0.004655504407924528
sI1
Fnan
sI2
Fnan
sI3
Fnan
sI4
Fnan
sI5
Fnan
sI6
Fnan
sI7
Fnan
sI8
Fnan
sI9
Fnan
sI10
Fnan
ssg117
(dp314
I0
F6342.242222222223
sI1
F6488.011111111111
sI2
F6317.908888888889
sI3
F6671.122222222222
sI4
F6568.993333333334
sI5
F6633.693333333334
sI6
F6433.124444444444
sI7
F6689.266666666666
sI8
F6639.202222222221
sI9
F6670.213333333333
sI10
F6672.426666666667
ssg119
(dp315
I0
F0.023483843575763136
sI1
Fnan
sI2
Fnan
sI3
Fnan
sI4
Fnan
sI5
Fnan
sI6
Fnan
sI7
Fnan
sI8
Fnan
sI9
Fnan
sI10
Fnan
ssg121
(dp316
I0
S"g'"
p317
sI1
S"g'"
p318
sI2
S"g'"
p319
sI3
S"g'"
p320
sI4
S"g'"
p321
sI5
S"g'"
p322
sI6
S"g'"
p323
sI7
S"g'"
p324
sI8
S"g'"
p325
sI9
S"g'"
p326
sI10
S"g'"
p327
ssg135
(dp328
I0
F0.0026249977305231693
sI1
Fnan
sI2
Fnan
sI3
Fnan
sI4
Fnan
sI5
Fnan
sI6
Fnan
sI7
Fnan
sI8
Fnan
sI9
Fnan
sI10
Fnan
ssg137
(dp329
I0
F3.295537
sI1
F3.442096
sI2
F1.993569
sI3
F4.176418
sI4
F4.211874
sI5
F-1.16845
sI6
F-2.103798
sI7
F-3.10729
sI8
F-3.54452
sI9
F2.908209
sI10
F-1.253311
ssg139
(dp330
I0
F1.5145709410751094
sI1
Fnan
sI2
Fnan
sI3
Fnan
sI4
Fnan
sI5
Fnan
sI6
Fnan
sI7
Fnan
sI8
Fnan
sI9
Fnan
sI10
Fnan
ssg141
(dp331
I0
F2458285.7747569443
sI1
Fnan
sI2
Fnan
sI3
Fnan
sI4
Fnan
sI5
Fnan
sI6
Fnan
sI7
Fnan
sI8
Fnan
sI9
Fnan
sI10
Fnan
ssg143
(dp332
I0
F0.0026249977305231693
sI1
Fnan
sI2
Fnan
sI3
Fnan
sI4
Fnan
sI5
Fnan
sI6
Fnan
sI7
Fnan
sI8
Fnan
sI9
Fnan
sI10
Fnan
ssg145
(dp333
I0
F12.33324
sI1
F12.39824
sI2
F12.75361
sI3
F12.88905
sI4
F13.10452
sI5
F11.66914
sI6
F13.27618
sI7
F11.61547
sI8
F11.40405
sI9
F12.69114
sI10
F11.68805
ssg147
(dp334
I0
F11.06
sI1
F11.03
sI2
F11.057
sI3
F10.996
sI4
F11.021
sI5
F11.013
sI6
F11.047
sI7
F11.006
sI8
F11.007
sI9
F11.008
sI10
F11.003
ssg149
(dp335
I0
F0.86535487073966
sI1
Fnan
sI2
Fnan
sI3
Fnan
sI4
Fnan
sI5
Fnan
sI6
Fnan
sI7
Fnan
sI8
Fnan
sI9
Fnan
sI10
Fnan
sssS'V'
p336
(dp337
g3
(dp338
I0
F0.6887551741066683
sI1
Fnan
sI2
Fnan
sI3
Fnan
sI4
Fnan
sI5
Fnan
sI6
Fnan
sI7
Fnan
ssg5
(dp339
I0
S'NoError'
p340
sI1
S'NoError'
p341
sI2
S'NoError'
p342
sI3
S'NoError'
p343
sI4
S'NoError'
p344
sI5
S'NoError'
p345
sI6
S'NoError'
p346
sI7
S'NoError'
p347
ssg19
(dp348
I0
F0.002
sI1
F0.002
sI2
F0.002
sI3
F0.002
sI4
F0.002
sI5
F0.002
sI6
F0.002
sI7
F0.002
ssg21
(dp349
I0
F0.8902861715577259
sI1
F0.8851261443256112
sI2
F0.8927902048959515
sI3
F0.8868629777800241
sI4
F0.8846863380733897
sI5
F0.8826827191898833
sI6
F0.891538155103066
sI7
F0.8898182513215362
ssg23
(dp350
I0
F0.003640986074910562
sI1
Fnan
sI2
Fnan
sI3
Fnan
sI4
Fnan
sI5
Fnan
sI6
Fnan
sI7
Fnan
ssg25
(dp351
I0
F0.8879738702808985
sI1
Fnan
sI2
Fnan
sI3
Fnan
sI4
Fnan
sI5
Fnan
sI6
Fnan
sI7
Fnan
ssg27
(dp352
I0
F11.616
sI1
F11.593
sI2
F11.586
sI3
F11.575
sI4
F11.69
sI5
F11.588
sI6
F11.569
sI7
F11.52
ssg29
(dp353
I0
F13.83317
sI1
F15.09491
sI2
F14.28021
sI3
F13.64762
sI4
F14.3747
sI5
F13.37424
sI6
F13.282
sI7
F13.27922
ssg31
(dp354
I0
F2458285.732037037
sI1
F2458285.7457175925
sI2
F2458285.7474189815
sI3
F2458285.7312037037
sI4
F2458285.73287037
sI5
F2458285.7337152776
sI6
F2458285.746574074
sI7
F2458285.744872685
ssg33
(dp355
I0
F1.698785875
sI1
Fnan
sI2
Fnan
sI3
Fnan
sI4
Fnan
sI5
Fnan
sI6
Fnan
sI7
Fnan
ssg35
(dp356
I0
F1.918526625
sI1
Fnan
sI2
Fnan
sI3
Fnan
sI4
Fnan
sI5
Fnan
sI6
Fnan
sI7
Fnan
ssg37
(dp357
I0
F0.6964307314077669
sI1
F0.6842824292682005
sI2
F0.6911748146568436
sI3
F0.6922855200354356
sI4
F0.6843266417047051
sI5
F0.6921188324747067
sI6
F0.6888824038116627
sI7
F0.6882155767951241
ssg39
(dp358
I0
F0.003152253132226637
sI1
Fnan
sI2
Fnan
sI3
Fnan
sI4
Fnan
sI5
Fnan
sI6
Fnan
sI7
Fnan
ssg41
(dp359
I0
F3.1565765
sI1
Fnan
sI2
Fnan
sI3
Fnan
sI4
Fnan
sI5
Fnan
sI6
Fnan
sI7
Fnan
ssg43
(dp360
I0
g340
sI1
g341
sI2
g342
sI3
g343
sI4
g344
sI5
g345
sI6
g346
sI7
g347
ssg45
(dp361
I0
F0.0034570487078632597
sI1
Fnan
sI2
Fnan
sI3
Fnan
sI4
Fnan
sI5
Fnan
sI6
Fnan
sI7
Fnan
ssg47
(dp362
I0
F0.04847974540244316
sI1
Fnan
sI2
Fnan
sI3
Fnan
sI4
Fnan
sI5
Fnan
sI6
Fnan
sI7
Fnan
ssg49
(dp363
I0
F0.02766500000000005
sI1
Fnan
sI2
Fnan
sI3
Fnan
sI4
Fnan
sI5
Fnan
sI6
Fnan
sI7
Fnan
ssg51
(dp364
I0
F1.5030984311442388
sI1
F1.5123685374478308
sI2
F1.4985938908039398
sI3
F1.5035542808923354
sI4
F1.5057913554604687
sI5
F1.5029778387687986
sI6
F1.5096201661720066
sI7
F1.502893881224222
ssg53
(dp365
I0
g340
sI1
g341
sI2
g342
sI3
g343
sI4
g344
sI5
g345
sI6
g346
sI7
g347
ssg55
(dp366
I0
F14.46947
sI1
F16.76564
sI2
F14.9384
sI3
F14.35102
sI4
F16.10979
sI5
F14.80112
sI6
F14.41707
sI7
F13.88242
ssg57
(dp367
I0
F10.914000000000001
sI1
Fnan
sI2
Fnan
sI3
Fnan
sI4
Fnan
sI5
Fnan
sI6
Fnan
sI7
Fnan
ssg59
(dp368
I0
F0.7143142501595205
sI1
Fnan
sI2
Fnan
sI3
Fnan
sI4
Fnan
sI5
Fnan
sI6
Fnan
sI7
Fnan
ssg61
(dp369
I0
F3.525461
sI1
F2.792399
sI2
F2.734039
sI3
F2.917717
sI4
F2.049417
sI5
F-3.093322
sI6
F1.543915
sI7
F2.878587
ssg63
(dp370
I0
F11.276499999999999
sI1
Fnan
sI2
Fnan
sI3
Fnan
sI4
Fnan
sI5
Fnan
sI6
Fnan
sI7
Fnan
ssg65
(dp371
I0
g340
sI1
g341
sI2
g342
sI3
g343
sI4
g344
sI5
g345
sI6
g346
sI7
g347
ssg67
(dp372
I0
F7520.793333333334
sI1
F7787.877777777778
sI2
F7808.304444444445
sI3
F7837.202222222221
sI4
F7118.26
sI5
F7723.293333333334
sI6
F7949.828888888888
sI7
F8317.76
ssg69
(dp373
I0
F1.533233
sI1
F1.437868
sI2
F1.4271559999999999
sI3
F1.539617
sI4
F1.52696
sI5
F1.52065
sI6
F1.432482
sI7
F1.443317
ssg71
(dp374
I0
F6418.877777777778
sI1
F6666.80888888889
sI2
F6654.773333333333
sI3
F6725.831111111112
sI4
F6122.931111111112
sI5
F6677.531111111111
sI6
F6743.379999999999
sI7
F7105.586666666667
ssg73
(dp375
I0
F10476.34888888889
sI1
F10930.406666666666
sI2
F10837.14
sI3
F10948.155555555555
sI4
F9969.235555555555
sI5
F10822.06
sI6
F11090.582222222223
sI7
F11589.826666666668
ssg75
(dp376
I0
F13.7548
sI1
F15.29372
sI2
F13.44834
sI3
F13.74953
sI4
F14.40717
sI5
F14.20384
sI6
F14.20805
sI7
F13.51721
ssg77
(dp377
I0
F11.481
sI1
F11.44
sI2
F11.442
sI3
F11.431
sI4
F11.533
sI5
F11.438
sI6
F11.428
sI7
F11.371
ssg79
(dp378
I0
F0.002
sI1
F0.001
sI2
F0.001
sI3
F0.001
sI4
F0.002
sI5
F0.001
sI6
F0.001
sI7
F0.001
ssg81
(dp379
I0
F0.6897146187693056
sI1
Fnan
sI2
Fnan
sI3
Fnan
sI4
Fnan
sI5
Fnan
sI6
Fnan
sI7
Fnan
ssg83
(dp380
I0
F11.4455
sI1
Fnan
sI2
Fnan
sI3
Fnan
sI4
Fnan
sI5
Fnan
sI6
Fnan
sI7
Fnan
ssg85
(dp381
I0
F11.309
sI1
F11.271
sI2
F11.269
sI3
F11.265
sI4
F11.369
sI5
F11.28
sI6
F11.249
sI7
F11.2
ssg87
(dp382
I0
F-2.386392
sI1
F2.651662
sI2
F3.480139
sI3
F2.365543
sI4
F2.877976
sI5
F3.018848
sI6
F-1.970096
sI7
F3.552607
ssg89
(dp383
I0
F0.047153245608638414
sI1
Fnan
sI2
Fnan
sI3
Fnan
sI4
Fnan
sI5
Fnan
sI6
Fnan
sI7
Fnan
ssg91
(dp384
I0
F0.7133218928338498
sI1
F0.7123311870461065
sI2
F0.7138229773134932
sI3
F0.7160716543889799
sI4
F0.7166563515646854
sI5
F0.720129834259771
sI6
F0.7083229412063347
sI7
F0.7138571626629445
ssg93
(dp385
I0
F45.0
sI1
F45.0
sI2
F45.0
sI3
F45.0
sI4
F45.0
sI5
F45.0
sI6
F45.0
sI7
F45.0
ssg95
(dp386
I0
F0.002
sI1
F0.002
sI2
F0.002
sI3
F0.002
sI4
F0.002
sI5
F0.002
sI6
F0.002
sI7
F0.002
ssg97
(dp387
I0
F0.002
sI1
F0.002
sI2
F0.002
sI3
F0.002
sI4
F0.002
sI5
F0.002
sI6
F0.002
sI7
F0.002
ssg99
(dp388
I0
F-2.290551
sI1
F-3.721715
sI2
F-1.384336
sI3
F3.425187
sI4
F-2.831664
sI5
F3.198153
sI6
F1.734589
sI7
F2.091657
ssg101
(dp389
I0
S'KIC8462852-20180616at053408_-25-1-045-V_cal.fts.mag.1'
p390
sI1
S'KIC8462852-20180616at055350_-25-1-045-V_cal.fts.mag.1'
p391
sI2
S'KIC8462852-20180616at055617_-25-1-045-V_cal.fts.mag.1'
p392
sI3
S'KIC8462852-20180616at053254_-25-1-045-V_cal.fts.mag.1'
p393
sI4
S'KIC8462852-20180616at053520_-25-1-045-V_cal.fts.mag.1'
p394
sI5
S'KIC8462852-20180616at053633_-25-1-045-V_cal.fts.mag.1'
p395
sI6
S'KIC8462852-20180616at055504_-25-1-045-V_cal.fts.mag.1'
p396
sI7
S'KIC8462852-20180616at055236_-25-1-045-V_cal.fts.mag.1'
p397
ssg115
(dp398
I0
F0.0043323534179614594
sI1
Fnan
sI2
Fnan
sI3
Fnan
sI4
Fnan
sI5
Fnan
sI6
Fnan
sI7
Fnan
ssg117
(dp399
I0
F5668.022222222222
sI1
F5790.191111111111
sI2
F5828.957777777778
sI3
F5887.0088888888895
sI4
F5294.504444444445
sI5
F5819.077777777778
sI6
F5920.666666666667
sI7
F6196.962222222222
ssg119
(dp400
I0
F0.04641736128402177
sI1
Fnan
sI2
Fnan
sI3
Fnan
sI4
Fnan
sI5
Fnan
sI6
Fnan
sI7
Fnan
ssg121
(dp401
I0
g336
sI1
g336
sI2
g336
sI3
g336
sI4
g336
sI5
g336
sI6
g336
sI7
g336
ssg135
(dp402
I0
F0.004159443748259924
sI1
Fnan
sI2
Fnan
sI3
Fnan
sI4
Fnan
sI5
Fnan
sI6
Fnan
sI7
Fnan
ssg137
(dp403
I0
F2.648322
sI1
F2.775004
sI2
F2.412685
sI3
F2.676763
sI4
F2.842347
sI5
F4.15253
sI6
F3.943525
sI7
F3.801436
ssg139
(dp404
I0
F1.50486229773923
sI1
Fnan
sI2
Fnan
sI3
Fnan
sI4
Fnan
sI5
Fnan
sI6
Fnan
sI7
Fnan
ssg141
(dp405
I0
F2458285.7392939813
sI1
Fnan
sI2
Fnan
sI3
Fnan
sI4
Fnan
sI5
Fnan
sI6
Fnan
sI7
Fnan
ssg143
(dp406
I0
F0.004159443748259924
sI1
Fnan
sI2
Fnan
sI3
Fnan
sI4
Fnan
sI5
Fnan
sI6
Fnan
sI7
Fnan
ssg145
(dp407
I0
F16.45347
sI1
F17.72684
sI2
F17.17163
sI3
F16.66418
sI4
F17.33351
sI5
F16.24678
sI6
F15.89329
sI7
F15.07127
ssg147
(dp408
I0
F10.949
sI1
F10.903
sI2
F10.913
sI3
F10.902
sI4
F11.003
sI5
F10.914
sI6
F10.888
sI7
F10.84
ssg149
(dp409
I0
F0.6897146187693056
sI1
Fnan
sI2
Fnan
sI3
Fnan
sI4
Fnan
sI5
Fnan
sI6
Fnan
sI7
Fnan
sss.