(dp0
S'r'
p1
(dp2
S'sigmean'
p3
(dp4
I0
F0.5501767930873377
sI1
Fnan
sI2
Fnan
sI3
Fnan
sI4
Fnan
sI5
Fnan
sI6
Fnan
sI7
Fnan
ssS'ref3flag'
p5
(dp6
I0
S'NoError'
p7
sI1
S'NoError'
p8
sI2
S'NoError'
p9
sI3
S'NoError'
p10
sI4
S'NoError'
p11
sI5
S'NoError'
p12
sI6
S'NoError'
p13
sI7
S'NoError'
p14
ssS'tabbyerr'
p15
(dp16
I0
F0.002
sI1
F0.002
sI2
F0.002
sI3
F0.002
sI4
F0.002
sI5
F0.002
sI6
F0.002
sI7
F0.002
ssS'ref2rel'
p17
(dp18
I0
F0.8951493923570748
sI1
F0.8977229466429948
sI2
F0.8981500715928755
sI3
F0.897475180244412
sI4
F0.8928560341169232
sI5
F0.8955307879315247
sI6
F0.8966379057446339
sI7
F0.8965774902923866
ssS'ref2err'
p19
(dp20
I0
F0.0017231612822180679
sI1
Fnan
sI2
Fnan
sI3
Fnan
sI4
Fnan
sI5
Fnan
sI6
Fnan
sI7
Fnan
ssS'ref2mean'
p21
(dp22
I0
F0.8962624761153533
sI1
Fnan
sI2
Fnan
sI3
Fnan
sI4
Fnan
sI5
Fnan
sI6
Fnan
sI7
Fnan
ssS'tabbymag'
p23
(dp24
I0
F11.159
sI1
F11.167
sI2
F11.15
sI3
F11.162
sI4
F11.161
sI5
F11.173
sI6
F11.194
sI7
F11.174
ssS'tabbybkg'
p25
(dp26
I0
F12.59038
sI1
F12.90254
sI2
F12.35544
sI3
F11.87931
sI4
F12.06128
sI5
F12.51119
sI6
F13.23877
sI7
F12.30816
ssS'JD'
p27
(dp28
I0
F2458281.8236574074
sI1
F2458281.8346412037
sI2
F2458281.832152778
sI3
F2458281.822824074
sI4
F2458281.821990741
sI5
F2458281.824479167
sI6
F2458281.8329861113
sI7
F2458281.8338078703
ssS'ref3rmsmean'
p29
(dp30
I0
F2.9385995
sI1
Fnan
sI2
Fnan
sI3
Fnan
sI4
Fnan
sI5
Fnan
sI6
Fnan
sI7
Fnan
ssS'ref1rmsmean'
p31
(dp32
I0
F1.63925225
sI1
Fnan
sI2
Fnan
sI3
Fnan
sI4
Fnan
sI5
Fnan
sI6
Fnan
sI7
Fnan
ssS'relflux'
p33
(dp34
I0
F0.5502139266821992
sI1
F0.5491176605899464
sI2
F0.5510740070692712
sI3
F0.5499961448532372
sI4
F0.5503580567411567
sI5
F0.5508770583648198
sI6
F0.5472828168741225
sI7
F0.5496006973107332
ssS'sigerr'
p35
(dp36
I0
F0.0006342466374281902
sI1
Fnan
sI2
Fnan
sI3
Fnan
sI4
Fnan
sI5
Fnan
sI6
Fnan
sI7
Fnan
ssS'tabbyrmsmean'
p37
(dp38
I0
F1.2746407499999999
sI1
Fnan
sI2
Fnan
sI3
Fnan
sI4
Fnan
sI5
Fnan
sI6
Fnan
sI7
Fnan
ssS'tabbyflag'
p39
(dp40
I0
g7
sI1
g8
sI2
g9
sI3
g10
sI4
g11
sI5
g12
sI6
g13
sI7
g14
ssS'ref1err'
p41
(dp42
I0
F0.0018467180176974147
sI1
Fnan
sI2
Fnan
sI3
Fnan
sI4
Fnan
sI5
Fnan
sI6
Fnan
sI7
Fnan
ssS'ref2magmeanerr'
p43
(dp44
I0
F0.011513191192217673
sI1
Fnan
sI2
Fnan
sI3
Fnan
sI4
Fnan
sI5
Fnan
sI6
Fnan
sI7
Fnan
ssS'ref2rmsmean'
p45
(dp46
I0
F1.9315464000000002
sI1
Fnan
sI2
Fnan
sI3
Fnan
sI4
Fnan
sI5
Fnan
sI6
Fnan
sI7
Fnan
ssS'ref3rel'
p47
(dp48
I0
F1.4941843130474741
sI1
F1.4891512041534958
sI2
F1.4904033877754417
sI3
F1.495751305001204
sI4
F1.496609416799853
sI5
F1.4973075769966393
sI6
F1.4966900204419344
sI7
F1.4988404330587646
ssS'ref1flag'
p49
(dp50
I0
g7
sI1
g8
sI2
g9
sI3
g10
sI4
g11
sI5
g12
sI6
g13
sI7
g14
ssS'ref2bkg'
p51
(dp52
I0
F14.03482
sI1
F14.99893
sI2
F13.73916
sI3
F14.72054
sI4
F15.27885
sI5
F15.53717
sI6
F16.27861
sI7
F14.79118
ssS'ref3magmean'
p53
(dp54
I0
F10.24725
sI1
Fnan
sI2
Fnan
sI3
Fnan
sI4
Fnan
sI5
Fnan
sI6
Fnan
sI7
Fnan
ssS'ref1mean'
p55
(dp56
I0
F0.7130193261407743
sI1
Fnan
sI2
Fnan
sI3
Fnan
sI4
Fnan
sI5
Fnan
sI6
Fnan
sI7
Fnan
ssS'ref1rms'
p57
(dp58
I0
F3.302099
sI1
F-2.916863
sI2
F3.123144
sI3
F2.530971
sI4
F3.910694
sI5
F-2.848227
sI6
F2.988799
sI7
F3.023401
ssS'ref2magmean'
p59
(dp60
I0
F10.598624999999998
sI1
Fnan
sI2
Fnan
sI3
Fnan
sI4
Fnan
sI5
Fnan
sI6
Fnan
sI7
Fnan
ssS'ref2flag'
p61
(dp62
I0
g7
sI1
g8
sI2
g9
sI3
g10
sI4
g11
sI5
g12
sI6
g13
sI7
g14
ssS'ref2'
p63
(dp64
I0
F14566.42888888889
sI1
F14515.497777777779
sI2
F14700.237777777777
sI3
F14551.47111111111
sI4
F14507.98
sI5
F14367.042222222222
sI6
F14188.575555555555
sI7
F14398.640000000001
ssS'airmass'
p65
(dp66
I0
F1.1432870000000002
sI1
F1.114213
sI2
F1.120442
sI3
F1.145657
sI4
F1.148051
sI5
F1.140952
sI6
F1.1183450000000001
sI7
F1.116269
ssS'ref1'
p67
(dp68
I0
F12399.335555555555
sI1
F12341.451111111111
sI2
F12479.84
sI3
F12326.324444444444
sI4
F12378.577777777778
sI5
F12198.042222222222
sI6
F12028.773333333334
sI7
F12191.746666666666
ssS'ref3'
p69
(dp70
I0
F20145.911111111112
sI1
F19997.02888888889
sI2
F20254.64
sI3
F20101.248888888887
sI4
F20119.337777777775
sI5
F19888.051111111112
sI6
F19619.62222222222
sI7
F19927.373333333333
ssS'ref1bkg'
p71
(dp72
I0
F12.61094
sI1
F13.73843
sI2
F13.52386
sI3
F14.3847
sI4
F12.89437
sI5
F14.41092
sI6
F15.50495
sI7
F14.96632
ssS'ref1mag'
p73
(dp74
I0
F10.767
sI1
F10.772
sI2
F10.759
sI3
F10.773
sI4
F10.768
sI5
F10.784
sI6
F10.799
sI7
F10.785
ssS'ref3magerr'
p75
(dp76
I0
F0.001
sI1
F0.001
sI2
F0.001
sI3
F0.001
sI4
F0.001
sI5
F0.001
sI6
F0.001
sI7
F0.001
ssS'tabbymagmean'
p77
(dp78
I0
F0.5498150460606857
sI1
Fnan
sI2
Fnan
sI3
Fnan
sI4
Fnan
sI5
Fnan
sI6
Fnan
sI7
Fnan
ssS'ref1magmean'
p79
(dp80
I0
F10.775875
sI1
Fnan
sI2
Fnan
sI3
Fnan
sI4
Fnan
sI5
Fnan
sI6
Fnan
sI7
Fnan
ssS'ref2mag'
p81
(dp82
I0
F10.592
sI1
F10.595
sI2
F10.582
sI3
F10.593
sI4
F10.596
sI5
F10.607
sI6
F10.62
sI7
F10.604
ssS'ref3rms'
p83
(dp84
I0
F3.093604
sI1
F2.979423
sI2
F-2.231527
sI3
F4.113312
sI4
F4.795263
sI5
F2.144958
sI6
F4.380022
sI7
F4.233741
ssS'ref3magmeanerr'
p85
(dp86
I0
F0.010593124454771929
sI1
Fnan
sI2
Fnan
sI3
Fnan
sI4
Fnan
sI5
Fnan
sI6
Fnan
sI7
Fnan
ssS'ref1rel'
p87
(dp88
I0
F0.7144050533934361
sI1
F0.7151867627837801
sI2
F0.7140542775940666
sI3
F0.7114203124282563
sI4
F0.7149602436560525
sI5
F0.7121885264491404
sI6
F0.7115891484307324
sI7
F0.7103502843907302
ssS'exposure'
p89
(dp90
I0
F45.0
sI1
F45.0
sI2
F45.0
sI3
F45.0
sI4
F45.0
sI5
F45.0
sI6
F45.0
sI7
F45.0
ssS'ref1magerr'
p91
(dp92
I0
F0.001
sI1
F0.001
sI2
F0.001
sI3
F0.001
sI4
F0.001
sI5
F0.001
sI6
F0.001
sI7
F0.001
ssS'ref2magerr'
p93
(dp94
I0
F0.001
sI1
F0.001
sI2
F0.001
sI3
F0.001
sI4
F0.001
sI5
F0.001
sI6
F0.001
sI7
F0.001
ssS'ref2rms'
p95
(dp96
I0
F3.648299
sI1
F3.443364
sI2
F3.982281
sI3
F-0.5978452
sI4
F-2.420616
sI5
F4.031538
sI6
F-0.7458316
sI7
F4.111182
ssS'name'
p97
(dp98
I0
S"KIC8462852-20180612at074603_-25-1-045-r'_cal.fts.mag.1"
p99
sI1
S"KIC8462852-20180612at080153_-25-1-045-r'_cal.fts.mag.1"
p100
sI2
S"KIC8462852-20180612at075817_-25-1-045-r'_cal.fts.mag.1"
p101
sI3
S"KIC8462852-20180612at074452_-25-1-045-r'_cal.fts.mag.1"
p102
sI4
S"KIC8462852-20180612at074339_-25-1-045-r'_cal.fts.mag.1"
p103
sI5
S"KIC8462852-20180612at074715_-25-1-045-r'_cal.fts.mag.1"
p104
sI6
S"KIC8462852-20180612at075930_-25-1-045-r'_cal.fts.mag.1"
p105
sI7
S"KIC8462852-20180612at080041_-25-1-045-r'_cal.fts.mag.1"
p106
ssS'ref3err'
p107
(dp108
I0
F0.0034214912977124346
sI1
Fnan
sI2
Fnan
sI3
Fnan
sI4
Fnan
sI5
Fnan
sI6
Fnan
sI7
Fnan
ssS'tabby'
p109
(dp110
I0
F8640.5
sI1
F8576.115555555556
sI2
F8713.346666666666
sI3
F8612.764444444445
sI4
F8623.357777777777
sI5
F8529.988888888889
sI6
F8361.928888888888
sI7
F8522.064444444444
ssS'ref1magmeanerr'
p111
(dp112
I0
F0.012721607041340434
sI1
Fnan
sI2
Fnan
sI3
Fnan
sI4
Fnan
sI5
Fnan
sI6
Fnan
sI7
Fnan
ssS'filter'
p113
(dp114
I0
S"r'"
p115
sI1
S"r'"
p116
sI2
S"r'"
p117
sI3
S"r'"
p118
sI4
S"r'"
p119
sI5
S"r'"
p120
sI6
S"r'"
p121
sI7
S"r'"
p122
ssS'tabbymagerr'
p123
(dp124
I0
F0.001203808991252711
sI1
Fnan
sI2
Fnan
sI3
Fnan
sI4
Fnan
sI5
Fnan
sI6
Fnan
sI7
Fnan
ssS'tabbyrms'
p125
(dp126
I0
F3.202885
sI1
F-1.612907
sI2
F2.993381
sI3
F-1.322827
sI4
F3.144951
sI5
F3.253235
sI6
F-2.967993
sI7
F3.506401
ssS'ref3mean'
p127
(dp128
I0
F1.494867207159351
sI1
Fnan
sI2
Fnan
sI3
Fnan
sI4
Fnan
sI5
Fnan
sI6
Fnan
sI7
Fnan
ssS'median_JD'
p129
(dp130
I0
F2458281.8283159724
sI1
Fnan
sI2
Fnan
sI3
Fnan
sI4
Fnan
sI5
Fnan
sI6
Fnan
sI7
Fnan
ssS'error'
p131
(dp132
I0
F0.001203808991252711
sI1
Fnan
sI2
Fnan
sI3
Fnan
sI4
Fnan
sI5
Fnan
sI6
Fnan
sI7
Fnan
ssS'ref3bkg'
p133
(dp134
I0
F16.93084
sI1
F17.51043
sI2
F16.30684
sI3
F17.04178
sI4
F16.52071
sI5
F18.05752
sI6
F18.83479
sI7
F18.23957
ssS'ref3mag'
p135
(dp136
I0
F10.24
sI1
F10.248
sI2
F10.234
sI3
F10.242
sI4
F10.241
sI5
F10.254
sI6
F10.268
sI7
F10.251
ssS'mean'
p137
(dp138
I0
F0.5498150460606857
sI1
Fnan
sI2
Fnan
sI3
Fnan
sI4
Fnan
sI5
Fnan
sI6
Fnan
sI7
Fnan
sssS'z'
p139
(dp140
g3
(dp141
I0
F0.3738458298435283
sI1
Fnan
sI2
Fnan
sI3
Fnan
sI4
Fnan
sI5
Fnan
sI6
Fnan
sI7
Fnan
ssg5
(dp142
I0
S'NoError'
p143
sI1
S'NoError'
p144
sI2
S'NoError'
p145
sI3
S'NoError'
p146
sI4
S'NoError'
p147
sI5
S'NoError'
p148
sI6
S'NoError'
p149
sI7
S'NoError'
p150
ssg15
(dp151
I0
F0.006
sI1
F0.007
sI2
F0.006
sI3
F0.006
sI4
F0.006
sI5
F0.006
sI6
F0.006
sI7
F0.006
ssg17
(dp152
I0
F0.9182078903769376
sI1
F0.9166563446556854
sI2
F0.9149711242900019
sI3
F0.9196565259710159
sI4
F0.9215827230622536
sI5
F0.9224295110572428
sI6
F0.9245535831127288
sI7
F0.9211262447599309
ssg19
(dp153
I0
F0.003165147101448223
sI1
Fnan
sI2
Fnan
sI3
Fnan
sI4
Fnan
sI5
Fnan
sI6
Fnan
sI7
Fnan
ssg21
(dp154
I0
F0.9198979934107246
sI1
Fnan
sI2
Fnan
sI3
Fnan
sI4
Fnan
sI5
Fnan
sI6
Fnan
sI7
Fnan
ssg23
(dp155
I0
F13.238
sI1
F13.265
sI2
F13.262
sI3
F13.262
sI4
F13.232
sI5
F13.276
sI6
F13.232
sI7
F13.265
ssg25
(dp156
I0
F8.146224
sI1
F7.565501
sI2
F8.59027
sI3
F8.813396
sI4
F8.343265
sI5
F8.978303
sI6
F8.352544
sI7
F8.790285
ssg27
(dp157
I0
F2458281.827002315
sI1
F2458281.838009259
sI2
F2458281.8261689814
sI3
F2458281.8253472224
sI4
F2458281.8278356483
sI5
F2458281.8371759257
sI6
F2458281.8355092593
sI7
F2458281.8363425927
ssg29
(dp158
I0
F2.3070277499999996
sI1
Fnan
sI2
Fnan
sI3
Fnan
sI4
Fnan
sI5
Fnan
sI6
Fnan
sI7
Fnan
ssg31
(dp159
I0
F1.15698075
sI1
Fnan
sI2
Fnan
sI3
Fnan
sI4
Fnan
sI5
Fnan
sI6
Fnan
sI7
Fnan
ssg33
(dp160
I0
F0.37536924506548264
sI1
F0.3735175375511676
sI2
F0.37309979973697993
sI3
F0.371947881009089
sI4
F0.3762201537416133
sI5
F0.37083980614632694
sI6
F0.37706691276330945
sI7
F0.3727053027342578
ssg35
(dp161
I0
F0.00202907337749193
sI1
Fnan
sI2
Fnan
sI3
Fnan
sI4
Fnan
sI5
Fnan
sI6
Fnan
sI7
Fnan
ssg37
(dp162
I0
F-1.1664219999999998
sI1
Fnan
sI2
Fnan
sI3
Fnan
sI4
Fnan
sI5
Fnan
sI6
Fnan
sI7
Fnan
ssg39
(dp163
I0
g143
sI1
g144
sI2
g145
sI3
g146
sI4
g147
sI5
g148
sI6
g149
sI7
g150
ssg41
(dp164
I0
F0.003704153283788969
sI1
Fnan
sI2
Fnan
sI3
Fnan
sI4
Fnan
sI5
Fnan
sI6
Fnan
sI7
Fnan
ssg43
(dp165
I0
F0.012421180068162131
sI1
Fnan
sI2
Fnan
sI3
Fnan
sI4
Fnan
sI5
Fnan
sI6
Fnan
sI7
Fnan
ssg45
(dp166
I0
F0.699599375
sI1
Fnan
sI2
Fnan
sI3
Fnan
sI4
Fnan
sI5
Fnan
sI6
Fnan
sI7
Fnan
ssg47
(dp167
I0
F1.503883824712966
sI1
F1.5127770207834108
sI2
F1.4934242450924757
sI3
F1.5016745239888538
sI4
F1.494736553862326
sI5
F1.4939677104157467
sI6
F1.49053576326456
sI7
F1.5006408026724622
ssg49
(dp168
I0
g143
sI1
g144
sI2
g145
sI3
g146
sI4
g147
sI5
g148
sI6
g149
sI7
g150
ssg51
(dp169
I0
F9.128132
sI1
F8.770958
sI2
F9.152127
sI3
F9.387809
sI4
F9.302756
sI5
F9.177473
sI6
F8.83998
sI7
F9.091902
ssg53
(dp170
I0
F11.913375
sI1
Fnan
sI2
Fnan
sI3
Fnan
sI4
Fnan
sI5
Fnan
sI6
Fnan
sI7
Fnan
ssg55
(dp171
I0
F0.6901924052243839
sI1
Fnan
sI2
Fnan
sI3
Fnan
sI4
Fnan
sI5
Fnan
sI6
Fnan
sI7
Fnan
ssg57
(dp172
I0
F-2.110406
sI1
F2.570534
sI2
F1.692576
sI3
F1.777073
sI4
F2.016371
sI5
F-3.28423
sI6
F3.222055
sI7
F3.371873
ssg59
(dp173
I0
F12.247
sI1
Fnan
sI2
Fnan
sI3
Fnan
sI4
Fnan
sI5
Fnan
sI6
Fnan
sI7
Fnan
ssg61
(dp174
I0
g143
sI1
g144
sI2
g145
sI3
g146
sI4
g147
sI5
g148
sI6
g149
sI7
g150
ssg63
(dp175
I0
F3200.915555555556
sI1
F3132.8777777777777
sI2
F3141.0155555555557
sI3
F3163.1555555555556
sI4
F3220.6111111111113
sI5
F3138.9333333333334
sI6
F3218.5333333333333
sI7
F3152.4133333333334
ssg65
(dp176
I0
F1.133964
sI1
F1.106155
sI2
F1.136255
sI3
F1.138556
sI4
F1.131702
sI5
F1.108099
sI6
F1.112107
sI7
F1.110092
ssg67
(dp177
I0
F2605.788888888889
sI1
F2542.588888888889
sI2
F2587.942222222222
sI3
F2572.471111111111
sI4
F2622.4133333333334
sI5
F2553.58
sI6
F2614.8888888888887
sI7
F2559.173333333333
ssg69
(dp178
I0
F4366.304444444445
sI1
F4292.857777777778
sI2
F4277.8822222222225
sI3
F4306.522222222222
sI4
F4366.891111111111
sI5
F4252.2155555555555
sI6
F4347.462222222222
sI7
F4285.5199999999995
ssg71
(dp179
I0
F8.855924
sI1
F8.609221
sI2
F8.542336
sI3
F9.28244
sI4
F8.179714
sI5
F8.856749
sI6
F8.42557
sI7
F8.998536
ssg73
(dp180
I0
F12.46
sI1
F12.487
sI2
F12.468
sI3
F12.474
sI4
F12.453
sI5
F12.482
sI6
F12.456
sI7
F12.48
ssg75
(dp181
I0
F0.003
sI1
F0.003
sI2
F0.003
sI3
F0.003
sI4
F0.003
sI5
F0.003
sI6
F0.003
sI7
F0.003
ssg77
(dp182
I0
F0.3738458298435283
sI1
Fnan
sI2
Fnan
sI3
Fnan
sI4
Fnan
sI5
Fnan
sI6
Fnan
sI7
Fnan
ssg79
(dp183
I0
F12.469999999999999
sI1
Fnan
sI2
Fnan
sI3
Fnan
sI4
Fnan
sI5
Fnan
sI6
Fnan
sI7
Fnan
ssg81
(dp184
I0
F12.237
sI1
F12.26
sI2
F12.257
sI3
F12.25
sI4
F12.23
sI5
F12.258
sI6
F12.231
sI7
F12.253
ssg83
(dp185
I0
F2.532891
sI1
F3.016688
sI2
F3.465446
sI3
F3.103314
sI4
F2.146097
sI5
F-2.781507
sI6
F2.819213
sI7
F4.15408
ssg85
(dp186
I0
F0.010702970215252041
sI1
Fnan
sI2
Fnan
sI3
Fnan
sI4
Fnan
sI5
Fnan
sI6
Fnan
sI7
Fnan
ssg87
(dp187
I0
F0.688704408987419
sI1
F0.684804588007892
sI2
F0.6976621864164307
sI3
F0.6887769961815994
sI4
F0.6912454867302253
sI5
F0.6909832391115258
sI6
F0.6912213653017095
sI7
F0.6881409710582689
ssg89
(dp188
I0
F45.0
sI1
F45.0
sI2
F45.0
sI3
F45.0
sI4
F45.0
sI5
F45.0
sI6
F45.0
sI7
F45.0
ssg91
(dp189
I0
F0.004
sI1
F0.004
sI2
F0.004
sI3
F0.004
sI4
F0.004
sI5
F0.004
sI6
F0.004
sI7
F0.004
ssg93
(dp190
I0
F0.003
sI1
F0.003
sI2
F0.003
sI3
F0.003
sI4
F0.003
sI5
F0.003
sI6
F0.003
sI7
F0.003
ssg95
(dp191
I0
F-1.320019
sI1
F2.856434
sI2
F2.043448
sI3
F3.470427
sI4
F-3.737801
sI5
F1.991373
sI6
F-1.784669
sI7
F2.077602
ssg97
(dp192
I0
S"KIC8462852-20180612at075053_-25-1-045-z'_cal.fts.mag.1"
p193
sI1
S"KIC8462852-20180612at080644_-25-1-045-z'_cal.fts.mag.1"
p194
sI2
S"KIC8462852-20180612at074941_-25-1-045-z'_cal.fts.mag.1"
p195
sI3
S"KIC8462852-20180612at074828_-25-1-045-z'_cal.fts.mag.1"
p196
sI4
S"KIC8462852-20180612at075205_-25-1-045-z'_cal.fts.mag.1"
p197
sI5
S"KIC8462852-20180612at080532_-25-1-045-z'_cal.fts.mag.1"
p198
sI6
S"KIC8462852-20180612at080306_-25-1-045-z'_cal.fts.mag.1"
p199
sI7
S"KIC8462852-20180612at080419_-25-1-045-z'_cal.fts.mag.1"
p200
ssg107
(dp201
I0
F0.00726754483211914
sI1
Fnan
sI2
Fnan
sI3
Fnan
sI4
Fnan
sI5
Fnan
sI6
Fnan
sI7
Fnan
ssg109
(dp202
I0
F1272.8782222222221
sI1
F1241.1146666666668
sI2
F1244.5166666666667
sI3
F1245.052
sI4
F1280.392
sI5
F1229.3004444444443
sI6
F1279.624888888889
sI7
F1241.9915555555556
ssg111
(dp203
I0
F0.012750350135248466
sI1
Fnan
sI2
Fnan
sI3
Fnan
sI4
Fnan
sI5
Fnan
sI6
Fnan
sI7
Fnan
ssg113
(dp204
I0
S"z'"
p205
sI1
S"z'"
p206
sI2
S"z'"
p207
sI3
S"z'"
p208
sI4
S"z'"
p209
sI5
S"z'"
p210
sI6
S"z'"
p211
sI7
S"z'"
p212
ssg123
(dp213
I0
F0.0021691706831997223
sI1
Fnan
sI2
Fnan
sI3
Fnan
sI4
Fnan
sI5
Fnan
sI6
Fnan
sI7
Fnan
ssg125
(dp214
I0
F-1.940289
sI1
F3.280869
sI2
F-2.505509
sI3
F-3.096176
sI4
F-2.010259
sI5
F1.263
sI6
F-1.327922
sI7
F-2.99509
ssg127
(dp215
I0
F1.4989550555991
sI1
Fnan
sI2
Fnan
sI3
Fnan
sI4
Fnan
sI5
Fnan
sI6
Fnan
sI7
Fnan
ssg129
(dp216
I0
F2458281.831672454
sI1
Fnan
sI2
Fnan
sI3
Fnan
sI4
Fnan
sI5
Fnan
sI6
Fnan
sI7
Fnan
ssg131
(dp217
I0
F0.0021691706831997223
sI1
Fnan
sI2
Fnan
sI3
Fnan
sI4
Fnan
sI5
Fnan
sI6
Fnan
sI7
Fnan
ssg133
(dp218
I0
F9.773301
sI1
F9.659642
sI2
F9.966481
sI3
F10.13439
sI4
F10.32891
sI5
F10.21861
sI6
F10.09359
sI7
F9.767015
ssg135
(dp219
I0
F11.9
sI1
F11.918
sI2
F11.922
sI3
F11.915
sI4
F11.9
sI5
F11.928
sI6
F11.904
sI7
F11.92
ssg137
(dp220
I0
F0.3738458298435283
sI1
Fnan
sI2
Fnan
sI3
Fnan
sI4
Fnan
sI5
Fnan
sI6
Fnan
sI7
Fnan
sssS'g'
p221
(dp222
g3
(dp223
I0
F0.8669473652363947
sI1
Fnan
sI2
Fnan
sI3
Fnan
sI4
Fnan
sI5
Fnan
sI6
Fnan
sI7
Fnan
ssg5
(dp224
I0
S'NoError'
p225
sI1
S'NoError'
p226
sI2
S'NoError'
p227
sI3
S'NoError'
p228
sI4
S'NoError'
p229
sI5
S'NoError'
p230
sI6
S'NoError'
p231
sI7
S'NoError'
p232
ssg15
(dp233
I0
F0.002
sI1
F0.002
sI2
F0.002
sI3
F0.002
sI4
F0.002
sI5
F0.002
sI6
F0.002
sI7
F0.002
ssg17
(dp234
I0
F0.8815418818355258
sI1
F0.8784695278304318
sI2
F0.8831828889706406
sI3
F0.8795105122590348
sI4
F0.884025767645668
sI5
F0.879026965791126
sI6
F0.8846896043748186
sI7
F0.8804291046140005
ssg19
(dp235
I0
F0.002379484787771712
sI1
Fnan
sI2
Fnan
sI3
Fnan
sI4
Fnan
sI5
Fnan
sI6
Fnan
sI7
Fnan
ssg21
(dp236
I0
F0.8813595316651557
sI1
Fnan
sI2
Fnan
sI3
Fnan
sI4
Fnan
sI5
Fnan
sI6
Fnan
sI7
Fnan
ssg23
(dp237
I0
F11.368
sI1
F11.361
sI2
F11.36
sI3
F11.358
sI4
F11.364
sI5
F11.38
sI6
F11.352
sI7
F11.35
ssg25
(dp238
I0
F9.122997
sI1
F8.375423
sI2
F8.516487
sI3
F8.649203
sI4
F8.586212
sI5
F8.59381
sI6
F8.830136
sI7
F7.273539
ssg27
(dp239
I0
F2458281.8186574075
sI1
F2458281.820300926
sI2
F2458281.8211342595
sI3
F2458281.8312847223
sI4
F2458281.82962963
sI5
F2458281.8194791665
sI6
F2458281.830462963
sI7
F2458281.8288078704
ssg29
(dp240
I0
F1.557691325
sI1
Fnan
sI2
Fnan
sI3
Fnan
sI4
Fnan
sI5
Fnan
sI6
Fnan
sI7
Fnan
ssg31
(dp241
I0
F0.369411625
sI1
Fnan
sI2
Fnan
sI3
Fnan
sI4
Fnan
sI5
Fnan
sI6
Fnan
sI7
Fnan
ssg33
(dp242
I0
F0.8674892760493096
sI1
F0.8638068983309348
sI2
F0.8680351619942586
sI3
F0.8659556328611946
sI4
F0.8675054175430801
sI5
F0.8674849294976865
sI6
F0.865213773472839
sI7
F0.8707609040436323
ssg35
(dp243
I0
F0.0010055048760263408
sI1
Fnan
sI2
Fnan
sI3
Fnan
sI4
Fnan
sI5
Fnan
sI6
Fnan
sI7
Fnan
ssg37
(dp244
I0
F1.220972875
sI1
Fnan
sI2
Fnan
sI3
Fnan
sI4
Fnan
sI5
Fnan
sI6
Fnan
sI7
Fnan
ssg39
(dp245
I0
g225
sI1
g226
sI2
g227
sI3
g228
sI4
g229
sI5
g230
sI6
g231
sI7
g232
ssg41
(dp246
I0
F0.0024953250781306613
sI1
Fnan
sI2
Fnan
sI3
Fnan
sI4
Fnan
sI5
Fnan
sI6
Fnan
sI7
Fnan
ssg43
(dp247
I0
F0.010480423928175943
sI1
Fnan
sI2
Fnan
sI3
Fnan
sI4
Fnan
sI5
Fnan
sI6
Fnan
sI7
Fnan
ssg45
(dp248
I0
F1.0917516250000001
sI1
Fnan
sI2
Fnan
sI3
Fnan
sI4
Fnan
sI5
Fnan
sI6
Fnan
sI7
Fnan
ssg47
(dp249
I0
F1.5131637835727036
sI1
F1.5177443239533543
sI2
F1.5148732697211347
sI3
F1.5152982266055746
sI4
F1.5077442180198841
sI5
F1.507092737401574
sI6
F1.5104585938152404
sI7
F1.5165800031597512
ssg49
(dp250
I0
g225
sI1
g226
sI2
g227
sI3
g228
sI4
g229
sI5
g230
sI6
g231
sI7
g232
ssg51
(dp251
I0
F8.169656
sI1
F8.69488
sI2
F8.196185
sI3
F8.328681
sI4
F8.436206
sI5
F9.377614
sI6
F8.125745
sI7
F8.634679
ssg53
(dp252
I0
F10.928625
sI1
Fnan
sI2
Fnan
sI3
Fnan
sI4
Fnan
sI5
Fnan
sI6
Fnan
sI7
Fnan
ssg55
(dp253
I0
F0.7153751854745551
sI1
Fnan
sI2
Fnan
sI3
Fnan
sI4
Fnan
sI5
Fnan
sI6
Fnan
sI7
Fnan
ssg57
(dp254
I0
F-3.552296
sI1
F1.768894
sI2
F2.327044
sI3
F-3.538745
sI4
F1.70137
sI5
F3.678164
sI6
F3.747223
sI7
F-3.176361
ssg59
(dp255
I0
F11.300125000000001
sI1
Fnan
sI2
Fnan
sI3
Fnan
sI4
Fnan
sI5
Fnan
sI6
Fnan
sI7
Fnan
ssg61
(dp256
I0
g225
sI1
g226
sI2
g227
sI3
g228
sI4
g229
sI5
g230
sI6
g231
sI7
g232
ssg63
(dp257
I0
F7535.213333333333
sI1
F7602.482222222223
sI2
F7602.291111111111
sI3
F7606.2844444444445
sI4
F7579.8422222222225
sI5
F7438.613333333333
sI6
F7692.388888888889
sI7
F7627.522222222222
ssg65
(dp258
I0
F1.15798
sI1
F1.153025
sI2
F1.150566
sI3
F1.122635
sI4
F1.126954
sI5
F1.1554870000000002
sI6
F1.124787
sI7
F1.129141
ssg67
(dp259
I0
F6486.76
sI1
F6560.544444444445
sI2
F6519.388888888889
sI3
F6562.024444444444
sI4
F6519.422222222222
sI5
F6455.097777777778
sI6
F6597.72
sI7
F6564.875555555556
ssg69
(dp260
I0
F10608.771111111111
sI1
F10747.926666666666
sI2
F10696.277777777777
sI3
F10734.606666666667
sI4
F10629.042222222222
sI5
F10469.555555555555
sI6
F10792.308888888889
sI7
F10761.953333333335
ssg71
(dp261
I0
F7.992688
sI1
F8.246789
sI2
F8.23069
sI3
F8.105017
sI4
F8.040401
sI5
F7.538915
sI6
F8.360546
sI7
F7.461436
ssg73
(dp262
I0
F11.47
sI1
F11.458
sI2
F11.464
sI3
F11.457
sI4
F11.464
sI5
F11.475
sI6
F11.452
sI7
F11.457
ssg75
(dp263
I0
F0.001
sI1
F0.001
sI2
F0.002
sI3
F0.001
sI4
F0.001
sI5
F0.002
sI6
F0.001
sI7
F0.001
ssg77
(dp264
I0
F0.8670314992241169
sI1
Fnan
sI2
Fnan
sI3
Fnan
sI4
Fnan
sI5
Fnan
sI6
Fnan
sI7
Fnan
ssg79
(dp265
I0
F11.462125
sI1
Fnan
sI2
Fnan
sI3
Fnan
sI4
Fnan
sI5
Fnan
sI6
Fnan
sI7
Fnan
ssg81
(dp266
I0
F11.307
sI1
F11.298
sI2
F11.298
sI3
F11.297
sI4
F11.301
sI5
F11.321
sI6
F11.285
sI7
F11.294
ssg83
(dp267
I0
F-2.067602
sI1
F3.001017
sI2
F2.877363
sI3
F3.276241
sI4
F0.6933146
sI5
F-2.164449
sI6
F3.585716
sI7
F3.25993
ssg85
(dp268
I0
F0.010875102626773292
sI1
Fnan
sI2
Fnan
sI3
Fnan
sI4
Fnan
sI5
Fnan
sI6
Fnan
sI7
Fnan
ssg87
(dp269
I0
F0.715031477221774
sI1
F0.7150297831692277
sI2
F0.7125572418778106
sI3
F0.7155622270140515
sI4
F0.7160704701172736
sI5
F0.7209109784287145
sI6
F0.7138574922151824
sI7
F0.7139818137524072
ssg89
(dp270
I0
F45.0
sI1
F45.0
sI2
F45.0
sI3
F45.0
sI4
F45.0
sI5
F45.0
sI6
F45.0
sI7
F45.0
ssg91
(dp271
I0
F0.002
sI1
F0.002
sI2
F0.002
sI3
F0.002
sI4
F0.002
sI5
F0.002
sI6
F0.002
sI7
F0.002
ssg93
(dp272
I0
F0.002
sI1
F0.002
sI2
F0.002
sI3
F0.002
sI4
F0.002
sI5
F0.002
sI6
F0.002
sI7
F0.002
ssg95
(dp273
I0
F1.729006
sI1
F-2.227235
sI2
F2.209342
sI3
F3.445357
sI4
F-1.467871
sI5
F-1.479164
sI6
F2.641146
sI7
F3.883432
ssg97
(dp274
I0
S"KIC8462852-20180612at073847_-25-1-045-g'_cal.fts.mag.1"
p275
sI1
S"KIC8462852-20180612at074114_-25-1-045-g'_cal.fts.mag.1"
p276
sI2
S"KIC8462852-20180612at074226_-25-1-045-g'_cal.fts.mag.1"
p277
sI3
S"KIC8462852-20180612at075703_-25-1-045-g'_cal.fts.mag.1"
p278
sI4
S"KIC8462852-20180612at075440_-25-1-045-g'_cal.fts.mag.1"
p279
sI5
S"KIC8462852-20180612at074003_-25-1-045-g'_cal.fts.mag.1"
p280
sI6
S"KIC8462852-20180612at075552_-25-1-045-g'_cal.fts.mag.1"
p281
sI7
S"KIC8462852-20180612at075320_-25-1-045-g'_cal.fts.mag.1"
p282
ssg107
(dp283
I0
F0.004017535156799568
sI1
Fnan
sI2
Fnan
sI3
Fnan
sI4
Fnan
sI5
Fnan
sI6
Fnan
sI7
Fnan
ssg109
(dp284
I0
F7122.302222222222
sI1
F7172.751111111111
sI2
F7180.953333333334
sI3
F7188.273333333333
sI4
F7150.6466666666665
sI5
F7044.922222222222
sI6
F7233.884444444444
sI7
F7243.091111111111
ssg111
(dp285
I0
F0.0076239753409883424
sI1
Fnan
sI2
Fnan
sI3
Fnan
sI4
Fnan
sI5
Fnan
sI6
Fnan
sI7
Fnan
ssg113
(dp286
I0
S"g'"
p287
sI1
S"g'"
p288
sI2
S"g'"
p289
sI3
S"g'"
p290
sI4
S"g'"
p291
sI5
S"g'"
p292
sI6
S"g'"
p293
sI7
S"g'"
p294
ssg123
(dp295
I0
F0.0020844739908514012
sI1
Fnan
sI2
Fnan
sI3
Fnan
sI4
Fnan
sI5
Fnan
sI6
Fnan
sI7
Fnan
ssg125
(dp296
I0
F3.244555
sI1
F-3.146002
sI2
F-3.682409
sI3
F1.440857
sI4
F1.660065
sI5
F2.758476
sI6
F3.548977
sI7
F3.943264
ssg127
(dp297
I0
F1.512869394531152
sI1
Fnan
sI2
Fnan
sI3
Fnan
sI4
Fnan
sI5
Fnan
sI6
Fnan
sI7
Fnan
ssg129
(dp298
I0
F2458281.824971065
sI1
Fnan
sI2
Fnan
sI3
Fnan
sI4
Fnan
sI5
Fnan
sI6
Fnan
sI7
Fnan
ssg131
(dp299
I0
F0.0020844739908514012
sI1
Fnan
sI2
Fnan
sI3
Fnan
sI4
Fnan
sI5
Fnan
sI6
Fnan
sI7
Fnan
ssg133
(dp300
I0
F9.597342
sI1
F9.233038
sI2
F10.26101
sI3
F9.071339
sI4
F10.49114
sI5
F9.982011
sI6
F8.627032
sI7
F8.632733
ssg135
(dp301
I0
F10.936
sI1
F10.922
sI2
F10.927
sI3
F10.923
sI4
F10.934
sI5
F10.95
sI6
F10.917
sI7
F10.92
ssg137
(dp302
I0
F0.8670314992241169
sI1
Fnan
sI2
Fnan
sI3
Fnan
sI4
Fnan
sI5
Fnan
sI6
Fnan
sI7
Fnan
sssS'V'
p303
(dp304
g3
(dp305
I0
F0.6924433981176131
sI1
Fnan
sI2
Fnan
sI3
Fnan
sI4
Fnan
sI5
Fnan
sI6
Fnan
sI7
Fnan
ssg5
(dp306
I0
S'NoError'
p307
sI1
S'NoError'
p308
sI2
S'NoError'
p309
sI3
S'NoError'
p310
sI4
S'NoError'
p311
sI5
S'NoError'
p312
sI6
S'NoError'
p313
sI7
S'NoError'
p314
ssg15
(dp315
I0
F0.002
sI1
F0.002
sI2
F0.002
sI3
F0.002
sI4
F0.002
sI5
F0.002
sI6
F0.002
sI7
F0.002
ssg17
(dp316
I0
F0.8888506141709028
sI1
F0.885532523663433
sI2
F0.8880264389180048
sI3
F0.8868965783703552
sI4
F0.8854278723303364
sI5
F0.8880946786960714
sI6
F0.8887161186412222
sI7
F0.8881280658712485
ssg19
(dp317
I0
F0.0013545568292302004
sI1
Fnan
sI2
Fnan
sI3
Fnan
sI4
Fnan
sI5
Fnan
sI6
Fnan
sI7
Fnan
ssg21
(dp318
I0
F0.8874591113326968
sI1
Fnan
sI2
Fnan
sI3
Fnan
sI4
Fnan
sI5
Fnan
sI6
Fnan
sI7
Fnan
ssg23
(dp319
I0
F11.411
sI1
F11.396
sI2
F11.403
sI3
F11.402
sI4
F11.394
sI5
F11.393
sI6
F11.394
sI7
F11.392
ssg25
(dp320
I0
F10.06586
sI1
F10.20556
sI2
F10.0447
sI3
F10.38504
sI4
F10.59522
sI5
F10.42469
sI6
F9.909019
sI7
F9.537873
ssg27
(dp321
I0
F2458281.788113426
sI1
F2458281.8024884257
sI2
F2458281.7872916665
sI3
F2458281.7889467594
sI4
F2458281.803321759
sI5
F2458281.8016550927
sI6
F2458281.7897800924
sI7
F2458281.8008217593
ssg29
(dp322
I0
F1.179589625
sI1
Fnan
sI2
Fnan
sI3
Fnan
sI4
Fnan
sI5
Fnan
sI6
Fnan
sI7
Fnan
ssg31
(dp323
I0
F0.888007125
sI1
Fnan
sI2
Fnan
sI3
Fnan
sI4
Fnan
sI5
Fnan
sI6
Fnan
sI7
Fnan
ssg33
(dp324
I0
F0.689803678191831
sI1
F0.6921142273988323
sI2
F0.693077899461128
sI3
F0.6929670395852875
sI4
F0.6918984168252936
sI5
F0.6917386555748535
sI6
F0.6945969914738251
sI7
F0.6928641498602844
ssg35
(dp325
I0
F0.0005409627826396627
sI1
Fnan
sI2
Fnan
sI3
Fnan
sI4
Fnan
sI5
Fnan
sI6
Fnan
sI7
Fnan
ssg37
(dp326
I0
F1.1226022500000001
sI1
Fnan
sI2
Fnan
sI3
Fnan
sI4
Fnan
sI5
Fnan
sI6
Fnan
sI7
Fnan
ssg39
(dp327
I0
g307
sI1
g308
sI2
g309
sI3
g310
sI4
g311
sI5
g312
sI6
g313
sI7
g314
ssg41
(dp328
I0
F0.0023674874153819755
sI1
Fnan
sI2
Fnan
sI3
Fnan
sI4
Fnan
sI5
Fnan
sI6
Fnan
sI7
Fnan
ssg43
(dp329
I0
F0.005617256574928227
sI1
Fnan
sI2
Fnan
sI3
Fnan
sI4
Fnan
sI5
Fnan
sI6
Fnan
sI7
Fnan
ssg45
(dp330
I0
F0.25661625000000005
sI1
Fnan
sI2
Fnan
sI3
Fnan
sI4
Fnan
sI5
Fnan
sI6
Fnan
sI7
Fnan
ssg47
(dp331
I0
F1.5015025591777607
sI1
F1.4996619760240733
sI2
F1.4949126898090017
sI3
F1.4961377408055017
sI4
F1.5023821857570614
sI5
F1.5033654769531406
sI6
F1.5032574463507633
sI7
F1.4996404275895914
ssg49
(dp332
I0
g307
sI1
g308
sI2
g309
sI3
g310
sI4
g311
sI5
g312
sI6
g313
sI7
g314
ssg51
(dp333
I0
F10.54562
sI1
F11.11855
sI2
F10.07354
sI3
F11.24026
sI4
F11.11341
sI5
F10.4923
sI6
F11.43084
sI7
F10.80044
ssg53
(dp334
I0
F10.726374999999999
sI1
Fnan
sI2
Fnan
sI3
Fnan
sI4
Fnan
sI5
Fnan
sI6
Fnan
sI7
Fnan
ssg55
(dp335
I0
F0.717622253863166
sI1
Fnan
sI2
Fnan
sI3
Fnan
sI4
Fnan
sI5
Fnan
sI6
Fnan
sI7
Fnan
ssg57
(dp336
I0
F-1.598959
sI1
F2.24867
sI2
F3.332857
sI3
F-2.300664
sI4
F1.599051
sI5
F3.965331
sI6
F-3.709955
sI7
F3.567726
ssg59
(dp337
I0
F11.087125
sI1
Fnan
sI2
Fnan
sI3
Fnan
sI4
Fnan
sI5
Fnan
sI6
Fnan
sI7
Fnan
ssg61
(dp338
I0
g307
sI1
g308
sI2
g309
sI3
g310
sI4
g311
sI5
g312
sI6
g313
sI7
g314
ssg63
(dp339
I0
F9163.017777777777
sI1
F9235.32888888889
sI2
F9186.053333333333
sI3
F9181.833333333334
sI4
F9253.297777777778
sI5
F9286.122222222222
sI6
F9240.002222222221
sI7
F9278.075555555555
ssg65
(dp340
I0
F1.270139
sI1
F1.212121
sI2
F1.273816
sI3
F1.2665
sI4
F1.209085
sI5
F1.2152290000000001
sI6
F1.262877
sI7
F1.2183620000000002
ssg67
(dp341
I0
F7847.22
sI1
F7962.662222222222
sI2
F7910.08
sI3
F7915.528888888889
sI4
F7966.182222222223
sI5
F7953.633333333333
sI6
F7906.3533333333335
sI7
F7964.626666666667
ssg69
(dp342
I0
F12770.457777777778
sI1
F12895.586666666668
sI2
F12778.613333333333
sI3
F12790.004444444443
sI4
F12935.12
sI5
F12958.826666666666
sI6
F12887.693333333333
sI7
F12928.926666666666
ssg71
(dp343
I0
F11.21022
sI1
F10.39579
sI2
F9.464932
sI3
F9.169193
sI4
F9.859357
sI5
F10.77876
sI6
F10.31087
sI7
F10.15197
ssg73
(dp344
I0
F11.263
sI1
F11.247
sI2
F11.255
sI3
F11.254
sI4
F11.247
sI5
F11.249
sI6
F11.255
sI7
F11.247
ssg75
(dp345
I0
F0.001
sI1
F0.001
sI2
F0.001
sI3
F0.001
sI4
F0.001
sI5
F0.001
sI6
F0.001
sI7
F0.001
ssg77
(dp346
I0
F0.6923826322964168
sI1
Fnan
sI2
Fnan
sI3
Fnan
sI4
Fnan
sI5
Fnan
sI6
Fnan
sI7
Fnan
ssg79
(dp347
I0
F11.252125
sI1
Fnan
sI2
Fnan
sI3
Fnan
sI4
Fnan
sI5
Fnan
sI6
Fnan
sI7
Fnan
ssg81
(dp348
I0
F11.095
sI1
F11.086
sI2
F11.092
sI3
F11.093
sI4
F11.084
sI5
F11.08
sI6
F11.086
sI7
F11.081
ssg83
(dp349
I0
F1.410661
sI1
F-3.345343
sI2
F2.930062
sI3
F-4.256571
sI4
F2.10653
sI5
F4.470542
sI6
F4.158965
sI7
F1.961871
ssg85
(dp350
I0
F0.006323143431644168
sI1
Fnan
sI2
Fnan
sI3
Fnan
sI4
Fnan
sI5
Fnan
sI6
Fnan
sI7
Fnan
ssg87
(dp351
I0
F0.7155473358632731
sI1
F0.7195962771836923
sI2
F0.720254954927611
sI3
F0.720515868444525
sI4
F0.718048695675862
sI5
F0.7150956716565968
sI6
F0.7146115431209737
sI7
F0.7173076840327941
ssg89
(dp352
I0
F45.0
sI1
F45.0
sI2
F45.0
sI3
F45.0
sI4
F45.0
sI5
F45.0
sI6
F45.0
sI7
F45.0
ssg91
(dp353
I0
F0.002
sI1
F0.002
sI2
F0.002
sI3
F0.002
sI4
F0.002
sI5
F0.002
sI6
F0.002
sI7
F0.002
ssg93
(dp354
I0
F0.002
sI1
F0.002
sI2
F0.002
sI3
F0.002
sI4
F0.002
sI5
F0.002
sI6
F0.002
sI7
F0.002
ssg95
(dp355
I0
F3.49656
sI1
F-1.508279
sI2
F2.98011
sI3
F-1.584697
sI4
F-2.460429
sI5
F3.180916
sI6
F-4.129903
sI7
F2.078652
ssg97
(dp356
I0
S'KIC8462852-20180612at065453_-25-1-045-V_cal.fts.mag.1'
p357
sI1
S'KIC8462852-20180612at071535_-25-1-045-V_cal.fts.mag.1'
p358
sI2
S'KIC8462852-20180612at065340_-25-1-045-V_cal.fts.mag.1'
p359
sI3
S'KIC8462852-20180612at065605_-25-1-045-V_cal.fts.mag.1'
p360
sI4
S'KIC8462852-20180612at071647_-25-1-045-V_cal.fts.mag.1'
p361
sI5
S'KIC8462852-20180612at071423_-25-1-045-V_cal.fts.mag.1'
p362
sI6
S'KIC8462852-20180612at065717_-25-1-045-V_cal.fts.mag.1'
p363
sI7
S'KIC8462852-20180612at071309_-25-1-045-V_cal.fts.mag.1'
p364
ssg107
(dp365
I0
F0.0031807153383128345
sI1
Fnan
sI2
Fnan
sI3
Fnan
sI4
Fnan
sI5
Fnan
sI6
Fnan
sI7
Fnan
ssg109
(dp366
I0
F6847.611111111111
sI1
F6942.731111111111
sI2
F6901.8422222222225
sI3
F6903.653333333334
sI4
F6954.639999999999
sI5
F6963.1755555555565
sI6
F6953.8533333333335
sI7
F6968.28
ssg111
(dp367
I0
F0.005693040864574487
sI1
Fnan
sI2
Fnan
sI3
Fnan
sI4
Fnan
sI5
Fnan
sI6
Fnan
sI7
Fnan
ssg113
(dp368
I0
g303
sI1
g303
sI2
g303
sI3
g303
sI4
g303
sI5
g303
sI6
g303
sI7
g303
ssg123
(dp369
I0
F0.001380082303109605
sI1
Fnan
sI2
Fnan
sI3
Fnan
sI4
Fnan
sI5
Fnan
sI6
Fnan
sI7
Fnan
ssg125
(dp370
I0
F1.902194
sI1
F1.218472
sI2
F3.041386
sI3
F2.249013
sI4
F-3.726711
sI5
F3.405756
sI6
F2.520578
sI7
F-1.62987
ssg127
(dp371
I0
F1.5001075628083618
sI1
Fnan
sI2
Fnan
sI3
Fnan
sI4
Fnan
sI5
Fnan
sI6
Fnan
sI7
Fnan
ssg129
(dp372
I0
F2458281.795300926
sI1
Fnan
sI2
Fnan
sI3
Fnan
sI4
Fnan
sI5
Fnan
sI6
Fnan
sI7
Fnan
ssg131
(dp373
I0
F0.001380082303109605
sI1
Fnan
sI2
Fnan
sI3
Fnan
sI4
Fnan
sI5
Fnan
sI6
Fnan
sI7
Fnan
ssg133
(dp374
I0
F12.55604
sI1
F12.52678
sI2
F12.18809
sI3
F12.59818
sI4
F11.85733
sI5
F11.76099
sI6
F10.98168
sI7
F11.95893
ssg135
(dp375
I0
F10.734
sI1
F10.724
sI2
F10.734
sI3
F10.733
sI4
F10.721
sI5
F10.719
sI6
F10.725
sI7
F10.721
ssg137
(dp376
I0
F0.6923826322964168
sI1
Fnan
sI2
Fnan
sI3
Fnan
sI4
Fnan
sI5
Fnan
sI6
Fnan
sI7
Fnan
sss.