(dp0
S'i'
p1
(dp2
S'sigmean'
p3
(dp4
I0
F0.4427658394002861
sI1
Fnan
sI2
Fnan
sI3
Fnan
sI4
Fnan
sI5
Fnan
sI6
Fnan
sI7
Fnan
sI8
Fnan
sI9
Fnan
sI10
Fnan
sI11
Fnan
sI12
Fnan
sI13
Fnan
sI14
Fnan
ssS'ref3flag'
p5
(dp6
I0
S'NoError'
p7
sI1
S'NoError'
p8
sI2
S'NoError'
p9
sI3
S'NoError'
p10
sI4
S'NoError'
p11
sI5
S'NoError'
p12
sI6
S'NoError'
p13
sI7
S'NoError'
p14
sI8
S'NoError'
p15
sI9
S'NoError'
p16
sI10
S'NoError'
p17
sI11
S'NoError'
p18
sI12
S'NoError'
p19
sI13
S'NoError'
p20
sI14
S'NoError'
p21
ssS'tabbyerr'
p22
(dp23
I0
F0.003
sI1
F0.004
sI2
F0.004
sI3
F0.003
sI4
F0.005
sI5
F0.003
sI6
F0.004
sI7
F0.004
sI8
F0.003
sI9
F0.003
sI10
F0.003
sI11
F0.003
sI12
F0.003
sI13
F0.004
sI14
F0.003
ssS'ref2rel'
p24
(dp25
I0
F0.9089883293141346
sI1
F0.9108849438181215
sI2
F0.9123460188694864
sI3
F0.911381265103712
sI4
F0.9096645766011486
sI5
F0.9096148251142304
sI6
F0.9068786414148163
sI7
F0.9080467452691808
sI8
F0.9104521688268148
sI9
F0.9060953548360053
sI10
F0.9110902409498413
sI11
F0.9050612994337873
sI12
F0.9107776294399033
sI13
F0.9141678896536438
sI14
F0.9084998445097152
ssS'ref2err'
p26
(dp27
I0
F0.002417990320103091
sI1
Fnan
sI2
Fnan
sI3
Fnan
sI4
Fnan
sI5
Fnan
sI6
Fnan
sI7
Fnan
sI8
Fnan
sI9
Fnan
sI10
Fnan
sI11
Fnan
sI12
Fnan
sI13
Fnan
sI14
Fnan
ssS'ref2mean'
p28
(dp29
I0
F0.909596651543636
sI1
Fnan
sI2
Fnan
sI3
Fnan
sI4
Fnan
sI5
Fnan
sI6
Fnan
sI7
Fnan
sI8
Fnan
sI9
Fnan
sI10
Fnan
sI11
Fnan
sI12
Fnan
sI13
Fnan
sI14
Fnan
ssS'tabbymag'
p30
(dp31
I0
F11.92
sI1
F12.183
sI2
F12.313
sI3
F11.936
sI4
F12.583
sI5
F12.037
sI6
F12.452
sI7
F12.13
sI8
F11.992
sI9
F12.005
sI10
F11.916
sI11
F11.972
sI12
F11.937
sI13
F12.257
sI14
F11.923
ssS'tabbybkg'
p32
(dp33
I0
F23.5749
sI1
F37.85461
sI2
F40.65156
sI3
F24.09646
sI4
F45.51381
sI5
F25.59615
sI6
F42.60642
sI7
F27.42232
sI8
F23.8124
sI9
F23.03498
sI10
F23.5176
sI11
F24.14409
sI12
F25.5852
sI13
F39.56654
sI14
F24.37087
ssS'JD'
p34
(dp35
I0
F2458438.571215278
sI1
F2458438.593761574
sI2
F2458438.5922800926
sI3
F2458438.5726851854
sI4
F2458438.5915509257
sI5
F2458438.612777778
sI6
F2458438.594502315
sI7
F2458438.6142708333
sI8
F2458438.615
sI9
F2458438.6135300924
sI10
F2458438.570486111
sI11
F2458438.573425926
sI12
F2458438.6157407407
sI13
F2458438.5930208336
sI14
F2458438.5719560185
ssS'ref3rmsmean'
p36
(dp37
I0
F1.8930601333333335
sI1
Fnan
sI2
Fnan
sI3
Fnan
sI4
Fnan
sI5
Fnan
sI6
Fnan
sI7
Fnan
sI8
Fnan
sI9
Fnan
sI10
Fnan
sI11
Fnan
sI12
Fnan
sI13
Fnan
sI14
Fnan
ssS'ref1rmsmean'
p38
(dp39
I0
F1.7726529333333334
sI1
Fnan
sI2
Fnan
sI3
Fnan
sI4
Fnan
sI5
Fnan
sI6
Fnan
sI7
Fnan
sI8
Fnan
sI9
Fnan
sI10
Fnan
sI11
Fnan
sI12
Fnan
sI13
Fnan
sI14
Fnan
ssS'relflux'
p40
(dp41
I0
F0.4423316627810435
sI1
F0.4425426454290937
sI2
F0.44386111434267367
sI3
F0.4427258057073178
sI4
F0.44449547155881663
sI5
F0.44209240664973987
sI6
F0.4414905536553572
sI7
F0.43765732655577294
sI8
F0.4424082249070632
sI9
F0.4434441446087206
sI10
F0.4405857679142462
sI11
F0.44463835204426755
sI12
F0.44350470092990935
sI13
F0.44059648381759614
sI14
F0.4440044172581592
ssS'sigerr'
p42
(dp43
I0
F0.0012576663215144684
sI1
Fnan
sI2
Fnan
sI3
Fnan
sI4
Fnan
sI5
Fnan
sI6
Fnan
sI7
Fnan
sI8
Fnan
sI9
Fnan
sI10
Fnan
sI11
Fnan
sI12
Fnan
sI13
Fnan
sI14
Fnan
ssS'tabbyrmsmean'
p44
(dp45
I0
F2.844358133333333
sI1
Fnan
sI2
Fnan
sI3
Fnan
sI4
Fnan
sI5
Fnan
sI6
Fnan
sI7
Fnan
sI8
Fnan
sI9
Fnan
sI10
Fnan
sI11
Fnan
sI12
Fnan
sI13
Fnan
sI14
Fnan
ssS'tabbyflag'
p46
(dp47
I0
g7
sI1
g8
sI2
g9
sI3
g10
sI4
g11
sI5
g12
sI6
g13
sI7
g14
sI8
g15
sI9
g16
sI10
g17
sI11
g18
sI12
g19
sI13
g20
sI14
g21
ssS'ref1err'
p48
(dp49
I0
F0.004433182601208372
sI1
Fnan
sI2
Fnan
sI3
Fnan
sI4
Fnan
sI5
Fnan
sI6
Fnan
sI7
Fnan
sI8
Fnan
sI9
Fnan
sI10
Fnan
sI11
Fnan
sI12
Fnan
sI13
Fnan
sI14
Fnan
ssS'ref2magmeanerr'
p50
(dp51
I0
F0.21130799006820974
sI1
Fnan
sI2
Fnan
sI3
Fnan
sI4
Fnan
sI5
Fnan
sI6
Fnan
sI7
Fnan
sI8
Fnan
sI9
Fnan
sI10
Fnan
sI11
Fnan
sI12
Fnan
sI13
Fnan
sI14
Fnan
ssS'ref2rmsmean'
p52
(dp53
I0
F1.9969626
sI1
Fnan
sI2
Fnan
sI3
Fnan
sI4
Fnan
sI5
Fnan
sI6
Fnan
sI7
Fnan
sI8
Fnan
sI9
Fnan
sI10
Fnan
sI11
Fnan
sI12
Fnan
sI13
Fnan
sI14
Fnan
ssS'ref3rel'
p54
(dp55
I0
F1.5010723241222845
sI1
F1.5049314716248938
sI2
F1.4877398769837975
sI3
F1.4977341814562377
sI4
F1.4905949975085717
sI5
F1.5002423844460928
sI6
F1.4809652276715077
sI7
F1.5076731608575866
sI8
F1.49348480758804
sI9
F1.4985326003730925
sI10
F1.4960218313743625
sI11
F1.507027886492395
sI12
F1.4942906734301928
sI13
F1.498888560462202
sI14
F1.49821485769958
ssS'ref1flag'
p56
(dp57
I0
g7
sI1
g8
sI2
g9
sI3
g10
sI4
g11
sI5
g12
sI6
g13
sI7
g14
sI8
g15
sI9
g16
sI10
g17
sI11
g18
sI12
g19
sI13
g20
sI14
g21
ssS'ref2bkg'
p58
(dp59
I0
F24.98869
sI1
F40.45701
sI2
F41.69807
sI3
F26.50394
sI4
F46.64508
sI5
F26.37133
sI6
F44.05695
sI7
F28.41793
sI8
F23.8046
sI9
F24.58489
sI10
F25.11183
sI11
F27.12868
sI12
F26.25104
sI13
F40.98177
sI14
F25.10649
ssS'ref3magmean'
p60
(dp61
I0
F10.946799999999998
sI1
Fnan
sI2
Fnan
sI3
Fnan
sI4
Fnan
sI5
Fnan
sI6
Fnan
sI7
Fnan
sI8
Fnan
sI9
Fnan
sI10
Fnan
sI11
Fnan
sI12
Fnan
sI13
Fnan
sI14
Fnan
ssS'ref1mean'
p62
(dp63
I0
F0.7000664849334115
sI1
Fnan
sI2
Fnan
sI3
Fnan
sI4
Fnan
sI5
Fnan
sI6
Fnan
sI7
Fnan
sI8
Fnan
sI9
Fnan
sI10
Fnan
sI11
Fnan
sI12
Fnan
sI13
Fnan
sI14
Fnan
ssS'ref1rms'
p64
(dp65
I0
F3.570924
sI1
F3.351294
sI2
F2.19965
sI3
F-2.27324
sI4
F-3.193703
sI5
F3.43549
sI6
F3.703734
sI7
F-1.38399
sI8
F4.487359
sI9
F3.286963
sI10
F3.454879
sI11
F2.383415
sI12
F2.617271
sI13
F2.508101
sI14
F-1.558353
ssS'ref2magmean'
p66
(dp67
I0
F11.287933333333331
sI1
Fnan
sI2
Fnan
sI3
Fnan
sI4
Fnan
sI5
Fnan
sI6
Fnan
sI7
Fnan
sI8
Fnan
sI9
Fnan
sI10
Fnan
sI11
Fnan
sI12
Fnan
sI13
Fnan
sI14
Fnan
ssS'ref2flag'
p68
(dp69
I0
g7
sI1
g8
sI2
g9
sI3
g10
sI4
g11
sI5
g12
sI6
g13
sI7
g14
sI8
g15
sI9
g16
sI10
g17
sI11
g18
sI12
g19
sI13
g20
sI14
g21
ssS'ref2'
p70
(dp71
I0
F9084.156666666668
sI1
F7137.296666666666
sI2
F6319.066666666667
sI3
F8954.433333333332
sI4
F4909.423333333334
sI5
F8160.066666666667
sI6
F5565.133333333333
sI7
F7562.706666666667
sI8
F8509.146666666666
sI9
F8357.890000000001
sI10
F9164.35
sI11
F8584.996666666666
sI12
F8931.26
sI13
F6708.703333333334
sI14
F9017.4
ssS'airmass'
p72
(dp73
I0
F1.059582
sI1
F1.104131
sI2
F1.100738
sI3
F1.0620379999999998
sI4
F1.099069
sI5
F1.154403
sI6
F1.105858
sI7
F1.1588200000000002
sI8
F1.16108
sI9
F1.1566049999999999
sI10
F1.0583770000000001
sI11
F1.063303
sI12
F1.163391
sI13
F1.102411
sI14
F1.060797
ssS'ref1'
p74
(dp75
I0
F7523.073333333334
sI1
F5877.75
sI2
F5247.973333333333
sI3
F7401.6866666666665
sI4
F4088.0933333333332
sI5
F6754.256666666667
sI6
F4683.916666666667
sI7
F6246.9
sI8
F7063.429999999999
sI9
F6966.27
sI10
F7587.076666666666
sI11
F7129.78
sI12
F7406.043333333333
sI13
F5515.683333333333
sI14
F7487.3533333333335
ssS'ref3'
p76
(dp77
I0
F12464.326666666666
sI1
F9793.376666666667
sI2
F8604.373333333333
sI3
F12248.56
sI4
F6705.826666666666
sI5
F11187.55
sI6
F7589.243333333333
sI7
F10410.186666666666
sI8
F11628.703333333333
sI9
F11481.876666666667
sI10
F12530.25
sI11
F11841.303333333333
sI12
F12206.34
sI13
F9161.496666666668
sI14
F12363.833333333334
ssS'ref1bkg'
p78
(dp79
I0
F21.22353
sI1
F34.98151
sI2
F36.9091
sI3
F23.37231
sI4
F41.79753
sI5
F24.29597
sI6
F39.49342
sI7
F26.39406
sI8
F23.24567
sI9
F21.87315
sI10
F21.62957
sI11
F24.03568
sI12
F24.39234
sI13
F37.06717
sI14
F22.71739
ssS'ref1mag'
p80
(dp81
I0
F11.309
sI1
F11.577
sI2
F11.7
sI3
F11.327
sI4
F11.971
sI5
F11.426
sI6
F11.823
sI7
F11.511
sI8
F11.377
sI9
F11.392
sI10
F11.3
sI11
F11.367
sI12
F11.326
sI13
F11.646
sI14
F11.314
ssS'ref3magerr'
p82
(dp83
I0
F0.002
sI1
F0.002
sI2
F0.002
sI3
F0.002
sI4
F0.002
sI5
F0.002
sI6
F0.002
sI7
F0.002
sI8
F0.002
sI9
F0.002
sI10
F0.002
sI11
F0.002
sI12
F0.002
sI13
F0.002
sI14
F0.002
ssS'tabbymagmean'
p84
(dp85
I0
F0.44242527187731856
sI1
Fnan
sI2
Fnan
sI3
Fnan
sI4
Fnan
sI5
Fnan
sI6
Fnan
sI7
Fnan
sI8
Fnan
sI9
Fnan
sI10
Fnan
sI11
Fnan
sI12
Fnan
sI13
Fnan
sI14
Fnan
ssS'ref1magmean'
p86
(dp87
I0
F11.491066666666663
sI1
Fnan
sI2
Fnan
sI3
Fnan
sI4
Fnan
sI5
Fnan
sI6
Fnan
sI7
Fnan
sI8
Fnan
sI9
Fnan
sI10
Fnan
sI11
Fnan
sI12
Fnan
sI13
Fnan
sI14
Fnan
ssS'ref2mag'
p88
(dp89
I0
F11.104
sI1
F11.366
sI2
F11.498
sI3
F11.12
sI4
F11.772
sI5
F11.221
sI6
F11.636
sI7
F11.303
sI8
F11.175
sI9
F11.195
sI10
F11.095
sI11
F11.166
sI12
F11.123
sI13
F11.433
sI14
F11.112
ssS'ref3rms'
p90
(dp91
I0
F3.762616
sI1
F-4.610819
sI2
F3.762476
sI3
F4.665723
sI4
F3.932833
sI5
F4.132095
sI6
F-2.214439
sI7
F3.497474
sI8
F-1.431899
sI9
F-3.316345
sI10
F2.30918
sI11
F4.154324
sI12
F4.227654
sI13
F3.323096
sI14
F2.201933
ssS'ref3magmeanerr'
p92
(dp93
I0
F0.21327922676957684
sI1
Fnan
sI2
Fnan
sI3
Fnan
sI4
Fnan
sI5
Fnan
sI6
Fnan
sI7
Fnan
sI8
Fnan
sI9
Fnan
sI10
Fnan
sI11
Fnan
sI12
Fnan
sI13
Fnan
sI14
Fnan
ssS'ref1rel'
p94
(dp95
I0
F0.6982462029423572
sI1
F0.6943315111310793
sI2
F0.7033195206109762
sI3
F0.6981737484235717
sI4
F0.7039182683684524
sI5
F0.6982003812700446
sI6
F0.7121457421142215
sI7
F0.6951468396481516
sI8
F0.7015078570949729
sI9
F0.7022532187038489
sI10
F0.6994437940009649
sI11
F0.6980980402716106
sI12
F0.7007459061892868
sI13
F0.6950994106354467
sI14
F0.7003668325961864
ssS'exposure'
p96
(dp97
I0
F30.0
sI1
F30.0
sI2
F30.0
sI3
F30.0
sI4
F30.0
sI5
F30.0
sI6
F30.0
sI7
F30.0
sI8
F30.0
sI9
F30.0
sI10
F30.0
sI11
F30.0
sI12
F30.0
sI13
F30.0
sI14
F30.0
ssS'ref1magerr'
p98
(dp99
I0
F0.002
sI1
F0.003
sI2
F0.003
sI3
F0.002
sI4
F0.003
sI5
F0.002
sI6
F0.003
sI7
F0.002
sI8
F0.002
sI9
F0.002
sI10
F0.002
sI11
F0.002
sI12
F0.002
sI13
F0.003
sI14
F0.002
ssS'ref2magerr'
p100
(dp101
I0
F0.002
sI1
F0.002
sI2
F0.002
sI3
F0.002
sI4
F0.003
sI5
F0.002
sI6
F0.003
sI7
F0.002
sI8
F0.002
sI9
F0.002
sI10
F0.002
sI11
F0.002
sI12
F0.002
sI13
F0.002
sI14
F0.002
ssS'ref2rms'
p102
(dp103
I0
F-4.357005
sI1
F2.51172
sI2
F3.820537
sI3
F3.029872
sI4
F2.419615
sI5
F3.152134
sI6
F2.811849
sI7
F4.385063
sI8
F3.35398
sI9
F2.355329
sI10
F-2.457052
sI11
F3.220478
sI12
F-3.02411
sI13
F4.794127
sI14
F3.937902
ssS'name'
p104
(dp105
I0
S"KIC8462852-20181116at014233_-25-1X1-030-i'_cal.fts.mag.1"
p106
sI1
S"KIC8462852-20181116at021501_-25-1X1-030-i'_cal.fts.mag.1"
p107
sI2
S"KIC8462852-20181116at021253_-25-1X1-030-i'_cal.fts.mag.1"
p108
sI3
S"KIC8462852-20181116at014440_-25-1X1-030-i'_cal.fts.mag.1"
p109
sI4
S"KIC8462852-20181116at021149_-25-1X1-030-i'_cal.fts.mag.1"
p110
sI5
S"KIC8462852-20181116at024223_-25-1X1-030-i'_cal.fts.mag.1"
p111
sI6
S"KIC8462852-20181116at021605_-25-1X1-030-i'_cal.fts.mag.1"
p112
sI7
S"KIC8462852-20181116at024433_-25-1X1-030-i'_cal.fts.mag.1"
p113
sI8
S"KIC8462852-20181116at024536_-25-1X1-030-i'_cal.fts.mag.1"
p114
sI9
S"KIC8462852-20181116at024329_-25-1X1-030-i'_cal.fts.mag.1"
p115
sI10
S"KIC8462852-20181116at014128_-25-1X1-030-i'_cal.fts.mag.1"
p116
sI11
S"KIC8462852-20181116at014544_-25-1X1-030-i'_cal.fts.mag.1"
p117
sI12
S"KIC8462852-20181116at024640_-25-1X1-030-i'_cal.fts.mag.1"
p118
sI13
S"KIC8462852-20181116at021357_-25-1X1-030-i'_cal.fts.mag.1"
p119
sI14
S"KIC8462852-20181116at014337_-25-1X1-030-i'_cal.fts.mag.1"
p120
ssS'ref3err'
p121
(dp122
I0
F0.0071542362866202054
sI1
Fnan
sI2
Fnan
sI3
Fnan
sI4
Fnan
sI5
Fnan
sI6
Fnan
sI7
Fnan
sI8
Fnan
sI9
Fnan
sI10
Fnan
sI11
Fnan
sI12
Fnan
sI13
Fnan
sI14
Fnan
ssS'tabby'
p123
(dp124
I0
F4286.423333333333
sI1
F3364.5666666666666
sI2
F2984.4353333333333
sI3
F4221.343333333333
sI4
F2326.688333333333
sI5
F3846.48
sI6
F2625.146
sI7
F3533.3233333333333
sI8
F4011.3566666666666
sI9
F3962.326666666667
sI10
F4300.363333333333
sI11
F4084.163333333333
sI12
F4219.746666666667
sI13
F3140.8483333333334
sI14
F4272.593333333333
ssS'ref1magmeanerr'
p125
(dp126
I0
F0.20934915014555625
sI1
Fnan
sI2
Fnan
sI3
Fnan
sI4
Fnan
sI5
Fnan
sI6
Fnan
sI7
Fnan
sI8
Fnan
sI9
Fnan
sI10
Fnan
sI11
Fnan
sI12
Fnan
sI13
Fnan
sI14
Fnan
ssS'filter'
p127
(dp128
I0
S"i'"
p129
sI1
S"i'"
p130
sI2
S"i'"
p131
sI3
S"i'"
p132
sI4
S"i'"
p133
sI5
S"i'"
p134
sI6
S"i'"
p135
sI7
S"i'"
p136
sI8
S"i'"
p137
sI9
S"i'"
p138
sI10
S"i'"
p139
sI11
S"i'"
p140
sI12
S"i'"
p141
sI13
S"i'"
p142
sI14
S"i'"
p143
ssS'tabbymagerr'
p144
(dp145
I0
F0.0018225032624869092
sI1
Fnan
sI2
Fnan
sI3
Fnan
sI4
Fnan
sI5
Fnan
sI6
Fnan
sI7
Fnan
sI8
Fnan
sI9
Fnan
sI10
Fnan
sI11
Fnan
sI12
Fnan
sI13
Fnan
sI14
Fnan
ssS'tabbyrms'
p146
(dp147
I0
F4.243701
sI1
F4.40911
sI2
F-1.633798
sI3
F2.599803
sI4
F-2.620608
sI5
F3.087581
sI6
F3.368537
sI7
F2.543303
sI8
F4.796376
sI9
F3.783847
sI10
F3.039675
sI11
F4.972302
sI12
F3.573102
sI13
F3.263475
sI14
F3.238966
ssS'ref3mean'
p148
(dp149
I0
F1.4971609894727225
sI1
Fnan
sI2
Fnan
sI3
Fnan
sI4
Fnan
sI5
Fnan
sI6
Fnan
sI7
Fnan
sI8
Fnan
sI9
Fnan
sI10
Fnan
sI11
Fnan
sI12
Fnan
sI13
Fnan
sI14
Fnan
ssS'median_JD'
p150
(dp151
I0
F2458438.5930208336
sI1
Fnan
sI2
Fnan
sI3
Fnan
sI4
Fnan
sI5
Fnan
sI6
Fnan
sI7
Fnan
sI8
Fnan
sI9
Fnan
sI10
Fnan
sI11
Fnan
sI12
Fnan
sI13
Fnan
sI14
Fnan
ssS'error'
p152
(dp153
I0
F0.0018225032624869092
sI1
Fnan
sI2
Fnan
sI3
Fnan
sI4
Fnan
sI5
Fnan
sI6
Fnan
sI7
Fnan
sI8
Fnan
sI9
Fnan
sI10
Fnan
sI11
Fnan
sI12
Fnan
sI13
Fnan
sI14
Fnan
ssS'ref3bkg'
p154
(dp155
I0
F23.67151
sI1
F37.41567
sI2
F38.52154
sI3
F24.61834
sI4
F42.71007
sI5
F25.23325
sI6
F41.81309
sI7
F27.03746
sI8
F23.79003
sI9
F23.31498
sI10
F23.49895
sI11
F25.66633
sI12
F24.56675
sI13
F38.51149
sI14
F25.05886
ssS'ref3mag'
p156
(dp157
I0
F10.761
sI1
F11.023
sI2
F11.163
sI3
F10.78
sI4
F11.434
sI5
F10.878
sI6
F11.3
sI7
F10.956
sI8
F10.836
sI9
F10.85
sI10
F10.755
sI11
F10.817
sI12
F10.784
sI13
F11.095
sI14
F10.77
ssS'mean'
p158
(dp159
I0
F0.44242527187731856
sI1
Fnan
sI2
Fnan
sI3
Fnan
sI4
Fnan
sI5
Fnan
sI6
Fnan
sI7
Fnan
sI8
Fnan
sI9
Fnan
sI10
Fnan
sI11
Fnan
sI12
Fnan
sI13
Fnan
sI14
Fnan
sssS'r'
p160
(dp161
g3
(dp162
I0
F0.5510625194697422
sI1
Fnan
sI2
Fnan
sI3
Fnan
sI4
Fnan
sI5
Fnan
sI6
Fnan
sI7
Fnan
sI8
Fnan
sI9
Fnan
sI10
Fnan
sI11
Fnan
sI12
Fnan
sI13
Fnan
sI14
Fnan
ssg5
(dp163
I0
S'NoError'
p164
sI1
S'NoError'
p165
sI2
S'NoError'
p166
sI3
S'NoError'
p167
sI4
S'NoError'
p168
sI5
S'NoError'
p169
sI6
S'NoError'
p170
sI7
S'NoError'
p171
sI8
S'NoError'
p172
sI9
S'NoError'
p173
sI10
S'NoError'
p174
sI11
S'NoError'
p175
sI12
S'NoError'
p176
sI13
S'NoError'
p177
sI14
S'NoError'
p178
ssg22
(dp179
I0
F0.002
sI1
F0.002
sI2
F0.003
sI3
F0.003
sI4
F0.002
sI5
F0.002
sI6
F0.002
sI7
F0.002
sI8
F0.003
sI9
F0.002
sI10
F0.002
sI11
F0.002
sI12
F0.002
sI13
F0.003
sI14
F0.004
ssg24
(dp180
I0
F0.8954959743029082
sI1
F0.896217709530649
sI2
F0.8872329771221831
sI3
F0.8883493496927399
sI4
F0.8938498231043241
sI5
F0.8978528356795534
sI6
F0.8976327999654086
sI7
F0.8941107144778707
sI8
F0.8967074528714243
sI9
F0.8935822971818691
sI10
F0.8943597195772083
sI11
F0.8930795001444131
sI12
F0.8928238041244608
sI13
F0.8934966018398633
sI14
F0.8956615809805475
ssg26
(dp181
I0
F0.0029978625113757217
sI1
Fnan
sI2
Fnan
sI3
Fnan
sI4
Fnan
sI5
Fnan
sI6
Fnan
sI7
Fnan
sI8
Fnan
sI9
Fnan
sI10
Fnan
sI11
Fnan
sI12
Fnan
sI13
Fnan
sI14
Fnan
ssg28
(dp182
I0
F0.8940302093730284
sI1
Fnan
sI2
Fnan
sI3
Fnan
sI4
Fnan
sI5
Fnan
sI6
Fnan
sI7
Fnan
sI8
Fnan
sI9
Fnan
sI10
Fnan
sI11
Fnan
sI12
Fnan
sI13
Fnan
sI14
Fnan
ssg30
(dp183
I0
F11.394
sI1
F11.328
sI2
F11.531
sI3
F11.772
sI4
F11.214
sI5
F11.215
sI6
F11.275
sI7
F11.203
sI8
F11.62
sI9
F11.214
sI10
F11.21
sI11
F11.472
sI12
F11.213
sI13
F11.699
sI14
F12.453
ssg32
(dp184
I0
F37.93856
sI1
F32.60555
sI2
F37.93681
sI3
F46.16077
sI4
F31.05924
sI5
F27.53294
sI6
F29.32425
sI7
F27.91904
sI8
F44.81765
sI9
F27.71532
sI10
F26.67994
sI11
F37.24863
sI12
F32.01701
sI13
F47.05379
sI14
F59.76813
ssg34
(dp185
I0
F2458438.6105439817
sI1
F2458438.5892939814
sI2
F2458438.612025463
sI3
F2458438.6098032407
sI4
F2458438.588564815
sI5
F2458438.5689814813
sI6
F2458438.5667708335
sI7
F2458438.569722222
sI8
F2458438.590787037
sI9
F2458438.568240741
sI10
F2458438.5675
sI11
F2458438.611284722
sI12
F2458438.587824074
sI13
F2458438.5900578704
sI14
F2458438.6090625
ssg36
(dp186
I0
F2.1403198666666663
sI1
Fnan
sI2
Fnan
sI3
Fnan
sI4
Fnan
sI5
Fnan
sI6
Fnan
sI7
Fnan
sI8
Fnan
sI9
Fnan
sI10
Fnan
sI11
Fnan
sI12
Fnan
sI13
Fnan
sI14
Fnan
ssg38
(dp187
I0
F1.0181353333333336
sI1
Fnan
sI2
Fnan
sI3
Fnan
sI4
Fnan
sI5
Fnan
sI6
Fnan
sI7
Fnan
sI8
Fnan
sI9
Fnan
sI10
Fnan
sI11
Fnan
sI12
Fnan
sI13
Fnan
sI14
Fnan
ssg40
(dp188
I0
F0.5500585409358202
sI1
F0.549152580986573
sI2
F0.552699823519878
sI3
F0.5499165815144437
sI4
F0.5527137882493182
sI5
F0.5508100313197088
sI6
F0.5514826455234741
sI7
F0.5526762471175952
sI8
F0.5491834336808682
sI9
F0.5521860067063606
sI10
F0.5525611232222892
sI11
F0.5568235104081939
sI12
F0.55091861366685
sI13
F0.5521430278446096
sI14
F0.5483728282886015
ssg42
(dp189
I0
F0.001456082905433577
sI1
Fnan
sI2
Fnan
sI3
Fnan
sI4
Fnan
sI5
Fnan
sI6
Fnan
sI7
Fnan
sI8
Fnan
sI9
Fnan
sI10
Fnan
sI11
Fnan
sI12
Fnan
sI13
Fnan
sI14
Fnan
ssg44
(dp190
I0
F2.0455826666666663
sI1
Fnan
sI2
Fnan
sI3
Fnan
sI4
Fnan
sI5
Fnan
sI6
Fnan
sI7
Fnan
sI8
Fnan
sI9
Fnan
sI10
Fnan
sI11
Fnan
sI12
Fnan
sI13
Fnan
sI14
Fnan
ssg46
(dp191
I0
g164
sI1
g165
sI2
g166
sI3
g167
sI4
g168
sI5
g169
sI6
g170
sI7
g171
sI8
g172
sI9
g173
sI10
g174
sI11
g175
sI12
g176
sI13
g177
sI14
g178
ssg48
(dp192
I0
F0.004546317973703942
sI1
Fnan
sI2
Fnan
sI3
Fnan
sI4
Fnan
sI5
Fnan
sI6
Fnan
sI7
Fnan
sI8
Fnan
sI9
Fnan
sI10
Fnan
sI11
Fnan
sI12
Fnan
sI13
Fnan
sI14
Fnan
ssg50
(dp193
I0
F0.3365112606903797
sI1
Fnan
sI2
Fnan
sI3
Fnan
sI4
Fnan
sI5
Fnan
sI6
Fnan
sI7
Fnan
sI8
Fnan
sI9
Fnan
sI10
Fnan
sI11
Fnan
sI12
Fnan
sI13
Fnan
sI14
Fnan
ssg52
(dp194
I0
F1.9890962666666667
sI1
Fnan
sI2
Fnan
sI3
Fnan
sI4
Fnan
sI5
Fnan
sI6
Fnan
sI7
Fnan
sI8
Fnan
sI9
Fnan
sI10
Fnan
sI11
Fnan
sI12
Fnan
sI13
Fnan
sI14
Fnan
ssg54
(dp195
I0
F1.4977312694503226
sI1
F1.4969347519333427
sI2
F1.489384585961563
sI3
F1.491074541107805
sI4
F1.4936030101882758
sI5
F1.4931033485213865
sI6
F1.4899936045260447
sI7
F1.4949643755390782
sI8
F1.4916582359280521
sI9
F1.492237225160516
sI10
F1.491423132153836
sI11
F1.4755329975206868
sI12
F1.4977287002308945
sI13
F1.4938511828729302
sI14
F1.4890996390190203
ssg56
(dp196
I0
g164
sI1
g165
sI2
g166
sI3
g167
sI4
g168
sI5
g169
sI6
g170
sI7
g171
sI8
g172
sI9
g173
sI10
g174
sI11
g175
sI12
g176
sI13
g177
sI14
g178
ssg58
(dp197
I0
F37.83372
sI1
F34.77179
sI2
F37.05829
sI3
F47.28556
sI4
F33.08153
sI5
F29.17966
sI6
F30.99122
sI7
F30.03578
sI8
F46.45757
sI9
F29.07063
sI10
F27.96722
sI11
F37.5217
sI12
F33.27463
sI13
F47.7342
sI14
F59.33633
ssg60
(dp198
I0
F10.538533333333332
sI1
Fnan
sI2
Fnan
sI3
Fnan
sI4
Fnan
sI5
Fnan
sI6
Fnan
sI7
Fnan
sI8
Fnan
sI9
Fnan
sI10
Fnan
sI11
Fnan
sI12
Fnan
sI13
Fnan
sI14
Fnan
ssg62
(dp199
I0
F0.716792211705235
sI1
Fnan
sI2
Fnan
sI3
Fnan
sI4
Fnan
sI5
Fnan
sI6
Fnan
sI7
Fnan
sI8
Fnan
sI9
Fnan
sI10
Fnan
sI11
Fnan
sI12
Fnan
sI13
Fnan
sI14
Fnan
ssg64
(dp200
I0
F3.317355
sI1
F-1.767123
sI2
F-2.475981
sI3
F-3.377178
sI4
F3.929808
sI5
F3.522168
sI6
F3.496386
sI7
F4.870099
sI8
F3.280282
sI9
F3.76919
sI10
F4.408005
sI11
F3.144345
sI12
F-5.141217
sI13
F-2.980453
sI14
F-2.723656
ssg66
(dp201
I0
F10.8906
sI1
Fnan
sI2
Fnan
sI3
Fnan
sI4
Fnan
sI5
Fnan
sI6
Fnan
sI7
Fnan
sI8
Fnan
sI9
Fnan
sI10
Fnan
sI11
Fnan
sI12
Fnan
sI13
Fnan
sI14
Fnan
ssg68
(dp202
I0
g164
sI1
g165
sI2
g166
sI3
g167
sI4
g168
sI5
g169
sI6
g170
sI7
g171
sI8
g172
sI9
g173
sI10
g174
sI11
g175
sI12
g176
sI13
g177
sI14
g178
ssg70
(dp203
I0
F11732.673333333334
sI1
F12496.166666666666
sI2
F10232.140000000001
sI3
F8239.19
sI4
F13764.31
sI5
F13842.406666666668
sI6
F13078.596666666668
sI7
F13903.716666666667
sI8
F9553.213333333335
sI9
F13779.436666666666
sI10
F13831.256666666666
sI11
F10765.67
sI12
F13812.616666666667
sI13
F8812.28
sI14
F4437.6866666666665
ssg72
(dp204
I0
F1.147786
sI1
F1.094125
sI2
F1.152124
sI3
F1.145651
sI4
F1.092502
sI5
F1.0559610000000001
sI6
F1.052505
sI7
F1.057159
sI8
F1.097392
sI9
F1.054806
sI10
F1.053648
sI11
F1.149944
sI12
F1.090934
sI13
F1.095744
sI14
F1.1435440000000001
ssg74
(dp205
I0
F9959.34
sI1
F10599.843333333332
sI2
F8852.843333333332
sI3
F7107.733333333334
sI4
F11746.386666666665
sI5
F11737.640000000001
sI6
F11115.596666666668
sI7
F11850.123333333333
sI8
F8123.503333333333
sI9
F11774.57
sI10
F11809.416666666666
sI11
F9303.06
sI12
F11777.723333333333
sI13
F7523.653333333334
sI14
F3786.2
ssg76
(dp206
I0
F16244.403333333332
sI1
F17286.61
sI2
F14212.44
sI3
F11441.703333333333
sI4
F19051.42666666667
sI5
F19096.826666666668
sI6
F18024.596666666668
sI7
F19250.536666666667
sI8
F13183.81
sI9
F19066.32
sI10
F19120.54666666667
sI11
F14806.036666666665
sI12
F19163.693333333336
sI13
F12201.726666666666
sI14
F6123.093333333333
ssg78
(dp207
I0
F36.18353
sI1
F31.90081
sI2
F37.48526
sI3
F46.076
sI4
F30.29101
sI5
F27.45189
sI6
F29.25273
sI7
F26.9505
sI8
F42.98734
sI9
F26.88274
sI10
F25.94692
sI11
F35.40281
sI12
F31.7002
sI13
F46.42721
sI14
F58.95227
ssg80
(dp208
I0
F11.004
sI1
F10.937
sI2
F11.132
sI3
F11.371
sI4
F10.825
sI5
F10.826
sI6
F10.885
sI7
F10.816
sI8
F11.226
sI9
F10.823
sI10
F10.819
sI11
F11.078
sI12
F10.822
sI13
F11.309
sI14
F12.054
ssg82
(dp209
I0
F0.001
sI1
F0.001
sI2
F0.002
sI3
F0.002
sI4
F0.001
sI5
F0.001
sI6
F0.001
sI7
F0.001
sI8
F0.002
sI9
F0.001
sI10
F0.001
sI11
F0.002
sI12
F0.001
sI13
F0.002
sI14
F0.003
ssg84
(dp210
I0
F0.5514465855323056
sI1
Fnan
sI2
Fnan
sI3
Fnan
sI4
Fnan
sI5
Fnan
sI6
Fnan
sI7
Fnan
sI8
Fnan
sI9
Fnan
sI10
Fnan
sI11
Fnan
sI12
Fnan
sI13
Fnan
sI14
Fnan
ssg86
(dp211
I0
F11.0618
sI1
Fnan
sI2
Fnan
sI3
Fnan
sI4
Fnan
sI5
Fnan
sI6
Fnan
sI7
Fnan
sI8
Fnan
sI9
Fnan
sI10
Fnan
sI11
Fnan
sI12
Fnan
sI13
Fnan
sI14
Fnan
ssg88
(dp212
I0
F10.827
sI1
F10.758
sI2
F10.975
sI3
F11.21
sI4
F10.653
sI5
F10.647
sI6
F10.709
sI7
F10.642
sI8
F11.05
sI9
F10.652
sI10
F10.648
sI11
F10.92
sI12
F10.649
sI13
F11.137
sI14
F11.882
ssg90
(dp213
I0
F5.242467
sI1
F5.013186
sI2
F-3.169549
sI3
F4.615949
sI4
F4.560986
sI5
F3.689064
sI6
F3.979599
sI7
F3.450387
sI8
F-2.670743
sI9
F4.588424
sI10
F-1.945751
sI11
F-2.391964
sI12
F1.434499
sI13
F2.461507
sI14
F3.246737
ssg92
(dp214
I0
F0.3369115752297766
sI1
Fnan
sI2
Fnan
sI3
Fnan
sI4
Fnan
sI5
Fnan
sI6
Fnan
sI7
Fnan
sI8
Fnan
sI9
Fnan
sI10
Fnan
sI11
Fnan
sI12
Fnan
sI13
Fnan
sI14
Fnan
ssg94
(dp215
I0
F0.7119643069689315
sI1
F0.7118102822962667
sI2
F0.7243195287735221
sI3
F0.7222978360738368
sI4
F0.7158996176732686
sI5
F0.7126844684707294
sI6
F0.7147559768246733
sI7
F0.7148478485817203
sI8
F0.7145617272973434
sI9
F0.7169614096270375
sI10
F0.7167690670647159
sI11
F0.7276057184033604
sI12
F0.7143142051571769
sI13
F0.7160608115031847
sI14
F0.7170303708627583
ssg96
(dp216
I0
F30.0
sI1
F30.0
sI2
F30.0
sI3
F30.0
sI4
F30.0
sI5
F30.0
sI6
F30.0
sI7
F30.0
sI8
F30.0
sI9
F30.0
sI10
F30.0
sI11
F30.0
sI12
F30.0
sI13
F30.0
sI14
F30.0
ssg98
(dp217
I0
F0.002
sI1
F0.002
sI2
F0.002
sI3
F0.002
sI4
F0.002
sI5
F0.002
sI6
F0.002
sI7
F0.002
sI8
F0.002
sI9
F0.002
sI10
F0.002
sI11
F0.002
sI12
F0.002
sI13
F0.002
sI14
F0.004
ssg100
(dp218
I0
F0.002
sI1
F0.002
sI2
F0.002
sI3
F0.002
sI4
F0.002
sI5
F0.002
sI6
F0.002
sI7
F0.002
sI8
F0.002
sI9
F0.002
sI10
F0.002
sI11
F0.002
sI12
F0.002
sI13
F0.002
sI14
F0.003
ssg102
(dp219
I0
F5.003633
sI1
F-3.441559
sI2
F3.542608
sI3
F4.379937
sI4
F2.086113
sI5
F1.792034
sI6
F2.87363
sI7
F-3.244101
sI8
F-0.394455
sI9
F-2.13182
sI10
F3.173903
sI11
F5.164448
sI12
F2.973555
sI13
F2.176528
sI14
F5.88199
ssg104
(dp220
I0
S"KIC8462852-20181116at023911_-25-1X1-030-r'_cal.fts.mag.1"
p221
sI1
S"KIC8462852-20181116at020835_-25-1X1-030-r'_cal.fts.mag.1"
p222
sI2
S"KIC8462852-20181116at024119_-25-1X1-030-r'_cal.fts.mag.1"
p223
sI3
S"KIC8462852-20181116at023807_-25-1X1-030-r'_cal.fts.mag.1"
p224
sI4
S"KIC8462852-20181116at020732_-25-1X1-030-r'_cal.fts.mag.1"
p225
sI5
S"KIC8462852-20181116at013920_-25-1X1-030-r'_cal.fts.mag.1"
p226
sI6
S"KIC8462852-20181116at013607_-25-1X1-030-r'_cal.fts.mag.1"
p227
sI7
S"KIC8462852-20181116at014024_-25-1X1-030-r'_cal.fts.mag.1"
p228
sI8
S"KIC8462852-20181116at021044_-25-1X1-030-r'_cal.fts.mag.1"
p229
sI9
S"KIC8462852-20181116at013816_-25-1X1-030-r'_cal.fts.mag.1"
p230
sI10
S"KIC8462852-20181116at013712_-25-1X1-030-r'_cal.fts.mag.1"
p231
sI11
S"KIC8462852-20181116at024015_-25-1X1-030-r'_cal.fts.mag.1"
p232
sI12
S"KIC8462852-20181116at020626_-25-1X1-030-r'_cal.fts.mag.1"
p233
sI13
S"KIC8462852-20181116at020941_-25-1X1-030-r'_cal.fts.mag.1"
p234
sI14
S"KIC8462852-20181116at023702_-25-1X1-030-r'_cal.fts.mag.1"
p235
ssg121
(dp236
I0
F0.0053293877554865966
sI1
Fnan
sI2
Fnan
sI3
Fnan
sI4
Fnan
sI5
Fnan
sI6
Fnan
sI7
Fnan
sI8
Fnan
sI9
Fnan
sI10
Fnan
sI11
Fnan
sI12
Fnan
sI13
Fnan
sI14
Fnan
ssg123
(dp237
I0
F6955.75
sI1
F7392.073333333334
sI2
F6134.493333333333
sI3
F4910.503333333333
sI4
F8210.033333333333
sI5
F8202.823333333334
sI6
F7760.9766666666665
sI7
F8290.95
sI8
F5649.363333333333
sI9
F8212.906666666668
sI10
F8244.436666666666
sI11
F6473.03
sI12
F8218.609999999999
sI13
F5252.29
sI14
F2622.498
ssg125
(dp238
I0
F0.3347786475525924
sI1
Fnan
sI2
Fnan
sI3
Fnan
sI4
Fnan
sI5
Fnan
sI6
Fnan
sI7
Fnan
sI8
Fnan
sI9
Fnan
sI10
Fnan
sI11
Fnan
sI12
Fnan
sI13
Fnan
sI14
Fnan
ssg127
(dp239
I0
S"r'"
p240
sI1
S"r'"
p241
sI2
S"r'"
p242
sI3
S"r'"
p243
sI4
S"r'"
p244
sI5
S"r'"
p245
sI6
S"r'"
p246
sI7
S"r'"
p247
sI8
S"r'"
p248
sI9
S"r'"
p249
sI10
S"r'"
p250
sI11
S"r'"
p251
sI12
S"r'"
p252
sI13
S"r'"
p253
sI14
S"r'"
p254
ssg144
(dp255
I0
F0.0020815327366368137
sI1
Fnan
sI2
Fnan
sI3
Fnan
sI4
Fnan
sI5
Fnan
sI6
Fnan
sI7
Fnan
sI8
Fnan
sI9
Fnan
sI10
Fnan
sI11
Fnan
sI12
Fnan
sI13
Fnan
sI14
Fnan
ssg146
(dp256
I0
F2.959025
sI1
F-2.956269
sI2
F3.135649
sI3
F5.805769
sI4
F4.544709
sI5
F3.226744
sI6
F3.096717
sI7
F3.848132
sI8
F3.277054
sI9
F2.945312
sI10
F-1.987584
sI11
F4.829743
sI12
F-2.973992
sI13
F-2.114146
sI14
F3.046877
ssg148
(dp257
I0
F1.4918880400075836
sI1
Fnan
sI2
Fnan
sI3
Fnan
sI4
Fnan
sI5
Fnan
sI6
Fnan
sI7
Fnan
sI8
Fnan
sI9
Fnan
sI10
Fnan
sI11
Fnan
sI12
Fnan
sI13
Fnan
sI14
Fnan
ssg150
(dp258
I0
F2458438.5892939814
sI1
Fnan
sI2
Fnan
sI3
Fnan
sI4
Fnan
sI5
Fnan
sI6
Fnan
sI7
Fnan
sI8
Fnan
sI9
Fnan
sI10
Fnan
sI11
Fnan
sI12
Fnan
sI13
Fnan
sI14
Fnan
ssg152
(dp259
I0
F0.0020815327366368137
sI1
Fnan
sI2
Fnan
sI3
Fnan
sI4
Fnan
sI5
Fnan
sI6
Fnan
sI7
Fnan
sI8
Fnan
sI9
Fnan
sI10
Fnan
sI11
Fnan
sI12
Fnan
sI13
Fnan
sI14
Fnan
ssg154
(dp260
I0
F36.72615
sI1
F33.5576
sI2
F38.54275
sI3
F46.77426
sI4
F32.69307
sI5
F29.67229
sI6
F31.10063
sI7
F29.67232
sI8
F46.2741
sI9
F29.07391
sI10
F29.91925
sI11
F38.29707
sI12
F33.31858
sI13
F47.72569
sI14
F59.97823
ssg156
(dp261
I0
F10.473
sI1
F10.406
sI2
F10.618
sI3
F10.854
sI4
F10.3
sI5
F10.298
sI6
F10.36
sI7
F10.289
sI8
F10.7
sI9
F10.299
sI10
F10.296
sI11
F10.574
sI12
F10.294
sI13
F10.784
sI14
F11.533
ssg158
(dp262
I0
F0.5514465855323056
sI1
Fnan
sI2
Fnan
sI3
Fnan
sI4
Fnan
sI5
Fnan
sI6
Fnan
sI7
Fnan
sI8
Fnan
sI9
Fnan
sI10
Fnan
sI11
Fnan
sI12
Fnan
sI13
Fnan
sI14
Fnan
sssS'z'
p263
(dp264
g3
(dp265
I0
F0.3739816423930126
sI1
Fnan
sI2
Fnan
sI3
Fnan
sI4
Fnan
sI5
Fnan
sI6
Fnan
sI7
Fnan
sI8
Fnan
sI9
Fnan
sI10
Fnan
sI11
Fnan
sI12
Fnan
sI13
Fnan
sI14
Fnan
ssg5
(dp266
I0
S'NoError'
p267
sI1
S'NoError'
p268
sI2
S'NoError'
p269
sI3
S'NoError'
p270
sI4
S'NoError'
p271
sI5
S'NoError'
p272
sI6
S'NoError'
p273
sI7
S'NoError'
p274
sI8
S'NoError'
p275
sI9
S'NoError'
p276
sI10
S'NoError'
p277
sI11
S'NoError'
p278
sI12
S'NoError'
p279
sI13
S'NoError'
p280
sI14
S'NoError'
p281
ssg22
(dp282
I0
F0.007
sI1
F0.012
sI2
F0.007
sI3
F0.009
sI4
F0.013
sI5
F0.008
sI6
F0.008
sI7
F0.007
sI8
F0.007
sI9
F0.012
sI10
F0.007
sI11
F0.013
sI12
F0.008
sI13
F0.007
sI14
F0.008
ssg24
(dp283
I0
F0.9172224985507877
sI1
F0.9138729766266485
sI2
F0.9107702161206028
sI3
F0.9016859824040966
sI4
F0.9108139966449553
sI5
F0.9126080112247523
sI6
F0.9131587895859697
sI7
F0.9141069194961109
sI8
F0.9156840897472579
sI9
F0.9235000547678477
sI10
F0.9185361005622311
sI11
F0.9113936149301158
sI12
F0.9189604652616455
sI13
F0.9080733795714705
sI14
F0.9123127614464043
ssg26
(dp284
I0
F0.00510431292163525
sI1
Fnan
sI2
Fnan
sI3
Fnan
sI4
Fnan
sI5
Fnan
sI6
Fnan
sI7
Fnan
sI8
Fnan
sI9
Fnan
sI10
Fnan
sI11
Fnan
sI12
Fnan
sI13
Fnan
sI14
Fnan
ssg28
(dp285
I0
F0.91351332379606
sI1
Fnan
sI2
Fnan
sI3
Fnan
sI4
Fnan
sI5
Fnan
sI6
Fnan
sI7
Fnan
sI8
Fnan
sI9
Fnan
sI10
Fnan
sI11
Fnan
sI12
Fnan
sI13
Fnan
sI14
Fnan
ssg30
(dp286
I0
F13.258
sI1
F13.966
sI2
F13.276
sI3
F13.629
sI4
F13.974
sI5
F13.385
sI6
F13.388
sI7
F13.267
sI8
F13.274
sI9
F14.021
sI10
F13.25
sI11
F14.048
sI12
F13.366
sI13
F13.244
sI14
F13.503
ssg32
(dp287
I0
F12.42766
sI1
F22.51472
sI2
F15.34665
sI3
F19.75855
sI4
F21.79613
sI5
F14.18456
sI6
F12.4565
sI7
F13.20861
sI8
F12.49214
sI9
F20.2772
sI10
F11.91026
sI11
F22.92971
sI12
F15.24183
sI13
F12.09502
sI14
F14.52385
ssg34
(dp288
I0
F2458438.5741898147
sI1
F2458438.59525463
sI2
F2458438.6165046296
sI3
F2458438.596736111
sI4
F2458438.5982175926
sI5
F2458438.617986111
sI6
F2458438.619479167
sI7
F2458438.577141204
sI8
F2458438.576412037
sI9
F2458438.5959953703
sI10
F2458438.5749305557
sI11
F2458438.5974768517
sI12
F2458438.6172453705
sI13
F2458438.575671296
sI14
F2458438.618726852
ssg36
(dp289
I0
F1.8324379333333332
sI1
Fnan
sI2
Fnan
sI3
Fnan
sI4
Fnan
sI5
Fnan
sI6
Fnan
sI7
Fnan
sI8
Fnan
sI9
Fnan
sI10
Fnan
sI11
Fnan
sI12
Fnan
sI13
Fnan
sI14
Fnan
ssg38
(dp290
I0
F0.8658825333333333
sI1
Fnan
sI2
Fnan
sI3
Fnan
sI4
Fnan
sI5
Fnan
sI6
Fnan
sI7
Fnan
sI8
Fnan
sI9
Fnan
sI10
Fnan
sI11
Fnan
sI12
Fnan
sI13
Fnan
sI14
Fnan
ssg40
(dp291
I0
F0.3731392787713045
sI1
F0.37506226754649075
sI2
F0.37420239391657717
sI3
F0.36788264268138704
sI4
F0.37708276490094905
sI5
F0.37628851058000296
sI6
F0.36900261042776455
sI7
F0.37360844414682964
sI8
F0.37516674623894036
sI9
F0.3738120312141302
sI10
F0.3723278097586769
sI11
F0.3739358041596784
sI12
F0.37333812613135614
sI13
F0.37821375847941846
sI14
F0.36981553135121553
ssg42
(dp292
I0
F0.0018015047875840394
sI1
Fnan
sI2
Fnan
sI3
Fnan
sI4
Fnan
sI5
Fnan
sI6
Fnan
sI7
Fnan
sI8
Fnan
sI9
Fnan
sI10
Fnan
sI11
Fnan
sI12
Fnan
sI13
Fnan
sI14
Fnan
ssg44
(dp293
I0
F0.9162069999999998
sI1
Fnan
sI2
Fnan
sI3
Fnan
sI4
Fnan
sI5
Fnan
sI6
Fnan
sI7
Fnan
sI8
Fnan
sI9
Fnan
sI10
Fnan
sI11
Fnan
sI12
Fnan
sI13
Fnan
sI14
Fnan
ssg46
(dp294
I0
g267
sI1
g268
sI2
g269
sI3
g270
sI4
g271
sI5
g272
sI6
g273
sI7
g274
sI8
g275
sI9
g276
sI10
g277
sI11
g278
sI12
g279
sI13
g280
sI14
g281
ssg48
(dp295
I0
F0.004976875118838854
sI1
Fnan
sI2
Fnan
sI3
Fnan
sI4
Fnan
sI5
Fnan
sI6
Fnan
sI7
Fnan
sI8
Fnan
sI9
Fnan
sI10
Fnan
sI11
Fnan
sI12
Fnan
sI13
Fnan
sI14
Fnan
ssg50
(dp296
I0
F0.3178847050650372
sI1
Fnan
sI2
Fnan
sI3
Fnan
sI4
Fnan
sI5
Fnan
sI6
Fnan
sI7
Fnan
sI8
Fnan
sI9
Fnan
sI10
Fnan
sI11
Fnan
sI12
Fnan
sI13
Fnan
sI14
Fnan
ssg52
(dp297
I0
F0.5657516
sI1
Fnan
sI2
Fnan
sI3
Fnan
sI4
Fnan
sI5
Fnan
sI6
Fnan
sI7
Fnan
sI8
Fnan
sI9
Fnan
sI10
Fnan
sI11
Fnan
sI12
Fnan
sI13
Fnan
sI14
Fnan
ssg54
(dp298
I0
F1.5057234204361922
sI1
F1.50282299095836
sI2
F1.4988465154685144
sI3
F1.516426690769081
sI4
F1.5074003738089858
sI5
F1.510555661063262
sI6
F1.5146353789609779
sI7
F1.505938570832917
sI8
F1.511659693779574
sI9
F1.4999287397597156
sI10
F1.4982220344540762
sI11
F1.491687567055372
sI12
F1.4901625480623284
sI13
F1.5161256679013018
sI14
F1.4922774076862095
ssg56
(dp299
I0
g267
sI1
g268
sI2
g269
sI3
g270
sI4
g271
sI5
g272
sI6
g273
sI7
g274
sI8
g275
sI9
g276
sI10
g277
sI11
g278
sI12
g279
sI13
g280
sI14
g281
ssg58
(dp300
I0
F13.60075
sI1
F23.84853
sI2
F14.65718
sI3
F20.53774
sI4
F22.37597
sI5
F14.38997
sI6
F13.39027
sI7
F14.59404
sI8
F12.88682
sI9
F21.11613
sI10
F12.89446
sI11
F22.86716
sI12
F14.36637
sI13
F13.45151
sI14
F14.67892
ssg60
(dp301
I0
F12.179466666666665
sI1
Fnan
sI2
Fnan
sI3
Fnan
sI4
Fnan
sI5
Fnan
sI6
Fnan
sI7
Fnan
sI8
Fnan
sI9
Fnan
sI10
Fnan
sI11
Fnan
sI12
Fnan
sI13
Fnan
sI14
Fnan
ssg62
(dp302
I0
F0.692566341211664
sI1
Fnan
sI2
Fnan
sI3
Fnan
sI4
Fnan
sI5
Fnan
sI6
Fnan
sI7
Fnan
sI8
Fnan
sI9
Fnan
sI10
Fnan
sI11
Fnan
sI12
Fnan
sI13
Fnan
sI14
Fnan
ssg64
(dp303
I0
F4.37116
sI1
F-3.346209
sI2
F3.553859
sI3
F-2.820895
sI4
F3.930115
sI5
F3.016626
sI6
F-2.460757
sI7
F-1.389624
sI8
F2.061605
sI9
F-2.268809
sI10
F4.128806
sI11
F3.265125
sI12
F-1.980752
sI13
F-1.24404
sI14
F4.172028
ssg66
(dp304
I0
F12.520399999999999
sI1
Fnan
sI2
Fnan
sI3
Fnan
sI4
Fnan
sI5
Fnan
sI6
Fnan
sI7
Fnan
sI8
Fnan
sI9
Fnan
sI10
Fnan
sI11
Fnan
sI12
Fnan
sI13
Fnan
sI14
Fnan
ssg68
(dp305
I0
g267
sI1
g268
sI2
g269
sI3
g270
sI4
g271
sI5
g272
sI6
g273
sI7
g274
sI8
g275
sI9
g276
sI10
g277
sI11
g278
sI12
g279
sI13
g280
sI14
g281
ssg70
(dp306
I0
F3157.962666666667
sI1
F1633.8073333333334
sI2
F3083.8776666666668
sI3
F2249.8886666666667
sI4
F1608.2236666666665
sI5
F2778.1836666666663
sI6
F2825.961333333333
sI7
F3121.999333333333
sI8
F3091.648
sI9
F1569.5790000000002
sI10
F3193.650666666667
sI11
F1516.137
sI12
F2861.9100000000003
sI13
F3135.375333333333
sI14
F2534.3096666666665
ssg72
(dp307
I0
F1.064614
sI1
F1.10762
sI2
F1.1657540000000002
sI3
F1.111168
sI4
F1.114802
sI5
F1.170396
sI6
F1.175183
sI7
F1.06986
sI8
F1.068523
sI9
F1.1093790000000001
sI10
F1.0659020000000001
sI11
F1.112965
sI12
F1.168061
sI13
F1.06721
sI14
F1.172793
ssg74
(dp308
I0
F2572.0316666666668
sI1
F1340.5793333333334
sI2
F2549.921333333333
sI3
F1868.0943333333335
sI4
F1322.5066666666667
sI5
F2273.229
sI6
F2304.2326666666663
sI7
F2555.6293333333333
sI8
F2514.9886666666666
sI9
F1269.779
sI10
F2607.8303333333333
sI11
F1258.0006666666666
sI12
F2347.2980000000002
sI13
F2575.985
sI14
F2098.828
ssg76
(dp309
I0
F4313.893333333333
sI1
F2234.9883333333332
sI2
F4222.1
sI3
F3122.3096666666665
sI4
F2208.892
sI5
F3815.2200000000003
sI6
F3885.186666666667
sI7
F4275.08
sI8
F4237.663333333333
sI9
F2129.4173333333333
sI10
F4345.953333333334
sI11
F2069.0733333333333
sI12
F3881.2833333333333
sI13
F4329.570000000001
sI14
F3456.963333333333
ssg78
(dp310
I0
F11.184
sI1
F21.3833
sI2
F13.63507
sI3
F16.39673
sI4
F19.8663
sI5
F14.2406
sI6
F12.41861
sI7
F12.53892
sI8
F12.33324
sI9
F18.54014
sI10
F10.24041
sI11
F20.19485
sI12
F14.25062
sI13
F11.55824
sI14
F13.48309
ssg80
(dp311
I0
F12.474
sI1
F13.182
sI2
F12.484
sI3
F12.822
sI4
F13.197
sI5
F12.608
sI6
F12.594
sI7
F12.481
sI8
F12.499
sI9
F13.241
sI10
F12.459
sI11
F13.251
sI12
F12.574
sI13
F12.473
sI14
F12.695
ssg82
(dp312
I0
F0.003
sI1
F0.005
sI2
F0.003
sI3
F0.004
sI4
F0.005
sI5
F0.003
sI6
F0.003
sI7
F0.003
sI8
F0.003
sI9
F0.005
sI10
F0.003
sI11
F0.005
sI12
F0.003
sI13
F0.003
sI14
F0.004
ssg84
(dp313
I0
F0.3735252480203149
sI1
Fnan
sI2
Fnan
sI3
Fnan
sI4
Fnan
sI5
Fnan
sI6
Fnan
sI7
Fnan
sI8
Fnan
sI9
Fnan
sI10
Fnan
sI11
Fnan
sI12
Fnan
sI13
Fnan
sI14
Fnan
ssg86
(dp314
I0
F12.7356
sI1
Fnan
sI2
Fnan
sI3
Fnan
sI4
Fnan
sI5
Fnan
sI6
Fnan
sI7
Fnan
sI8
Fnan
sI9
Fnan
sI10
Fnan
sI11
Fnan
sI12
Fnan
sI13
Fnan
sI14
Fnan
ssg88
(dp315
I0
F12.251
sI1
F12.967
sI2
F12.277
sI3
F12.62
sI4
F12.984
sI5
F12.391
sI6
F12.372
sI7
F12.264
sI8
F12.275
sI9
F13.011
sI10
F12.239
sI11
F13.048
sI12
F12.358
sI13
F12.259
sI14
F12.49
ssg90
(dp316
I0
F3.264325
sI1
F1.411658
sI2
F-3.378669
sI3
F2.289567
sI4
F2.592997
sI5
F2.924044
sI6
F-1.796189
sI7
F3.820629
sI8
F2.070092
sI9
F3.154685
sI10
F4.526927
sI11
F3.882208
sI12
F-2.909485
sI13
F2.883104
sI14
F2.750676
ssg92
(dp317
I0
F0.3187443818365761
sI1
Fnan
sI2
Fnan
sI3
Fnan
sI4
Fnan
sI5
Fnan
sI6
Fnan
sI7
Fnan
sI8
Fnan
sI9
Fnan
sI10
Fnan
sI11
Fnan
sI12
Fnan
sI13
Fnan
sI14
Fnan
ssg94
(dp318
I0
F0.6884585748618995
sI1
F0.6930215234077581
sI2
F0.6980369909881555
sI3
F0.6954673738466469
sI4
F0.6929350756727571
sI5
F0.6895464360820013
sI6
F0.6866880797939984
sI7
F0.6909833511767122
sI8
F0.686282394698838
sI9
F0.6865532623308899
sI10
F0.6917685155170836
sI11
F0.7017723088491972
sI12
F0.69619774607283
sI13
F0.690155087538931
sI14
F0.7006283973372605
ssg96
(dp319
I0
F30.0
sI1
F30.0
sI2
F30.0
sI3
F30.0
sI4
F30.0
sI5
F30.0
sI6
F30.0
sI7
F30.0
sI8
F30.0
sI9
F30.0
sI10
F30.0
sI11
F30.0
sI12
F30.0
sI13
F30.0
sI14
F30.0
ssg98
(dp320
I0
F0.004
sI1
F0.007
sI2
F0.004
sI3
F0.005
sI4
F0.007
sI5
F0.005
sI6
F0.005
sI7
F0.004
sI8
F0.004
sI9
F0.007
sI10
F0.004
sI11
F0.007
sI12
F0.004
sI13
F0.004
sI14
F0.005
ssg100
(dp321
I0
F0.004
sI1
F0.006
sI2
F0.004
sI3
F0.005
sI4
F0.006
sI5
F0.004
sI6
F0.004
sI7
F0.004
sI8
F0.004
sI9
F0.006
sI10
F0.004
sI11
F0.006
sI12
F0.004
sI13
F0.004
sI14
F0.004
ssg102
(dp322
I0
F-1.658921
sI1
F-3.418163
sI2
F-1.661514
sI3
F-3.733722
sI4
F1.463915
sI5
F3.093683
sI6
F4.059
sI7
F-2.441961
sI8
F-3.832523
sI9
F3.806633
sI10
F3.883357
sI11
F3.415036
sI12
F4.03464
sI13
F-1.535064
sI14
F3.011878
ssg104
(dp323
I0
S"KIC8462852-20181116at014648_-25-1X1-030-z'_cal.fts.mag.1"
p324
sI1
S"KIC8462852-20181116at021709_-25-1X1-030-z'_cal.fts.mag.1"
p325
sI2
S"KIC8462852-20181116at024745_-25-1X1-030-z'_cal.fts.mag.1"
p326
sI3
S"KIC8462852-20181116at021918_-25-1X1-030-z'_cal.fts.mag.1"
p327
sI4
S"KIC8462852-20181116at022126_-25-1X1-030-z'_cal.fts.mag.1"
p328
sI5
S"KIC8462852-20181116at024954_-25-1X1-030-z'_cal.fts.mag.1"
p329
sI6
S"KIC8462852-20181116at025202_-25-1X1-030-z'_cal.fts.mag.1"
p330
sI7
S"KIC8462852-20181116at015105_-25-1X1-030-z'_cal.fts.mag.1"
p331
sI8
S"KIC8462852-20181116at015002_-25-1X1-030-z'_cal.fts.mag.1"
p332
sI9
S"KIC8462852-20181116at021814_-25-1X1-030-z'_cal.fts.mag.1"
p333
sI10
S"KIC8462852-20181116at014754_-25-1X1-030-z'_cal.fts.mag.1"
p334
sI11
S"KIC8462852-20181116at022022_-25-1X1-030-z'_cal.fts.mag.1"
p335
sI12
S"KIC8462852-20181116at024850_-25-1X1-030-z'_cal.fts.mag.1"
p336
sI13
S"KIC8462852-20181116at014858_-25-1X1-030-z'_cal.fts.mag.1"
p337
sI14
S"KIC8462852-20181116at025058_-25-1X1-030-z'_cal.fts.mag.1"
p338
ssg121
(dp339
I0
F0.008833822680896292
sI1
Fnan
sI2
Fnan
sI3
Fnan
sI4
Fnan
sI5
Fnan
sI6
Fnan
sI7
Fnan
sI8
Fnan
sI9
Fnan
sI10
Fnan
sI11
Fnan
sI12
Fnan
sI13
Fnan
sI14
Fnan
ssg123
(dp340
I0
F1249.2563333333335
sI1
F651.2800000000001
sI2
F1229.367
sI3
F887.8593333333333
sI4
F646.0210000000001
sI5
F1112.1373333333333
sI6
F1108.8996666666667
sI7
F1239.4720000000002
sI8
F1231.0846666666666
sI9
F619.1293333333334
sI10
F1259.3906666666667
sI11
F603.6833333333333
sI12
F1131.2756666666667
sI13
F1265.8726666666666
sI14
F997.2816666666666
ssg125
(dp341
I0
F0.31654311374146604
sI1
Fnan
sI2
Fnan
sI3
Fnan
sI4
Fnan
sI5
Fnan
sI6
Fnan
sI7
Fnan
sI8
Fnan
sI9
Fnan
sI10
Fnan
sI11
Fnan
sI12
Fnan
sI13
Fnan
sI14
Fnan
ssg127
(dp342
I0
S"z'"
p343
sI1
S"z'"
p344
sI2
S"z'"
p345
sI3
S"z'"
p346
sI4
S"z'"
p347
sI5
S"z'"
p348
sI6
S"z'"
p349
sI7
S"z'"
p350
sI8
S"z'"
p351
sI9
S"z'"
p352
sI10
S"z'"
p353
sI11
S"z'"
p354
sI12
S"z'"
p355
sI13
S"z'"
p356
sI14
S"z'"
p357
ssg144
(dp358
I0
F0.002875015031103449
sI1
Fnan
sI2
Fnan
sI3
Fnan
sI4
Fnan
sI5
Fnan
sI6
Fnan
sI7
Fnan
sI8
Fnan
sI9
Fnan
sI10
Fnan
sI11
Fnan
sI12
Fnan
sI13
Fnan
sI14
Fnan
ssg146
(dp359
I0
F-3.174794
sI1
F3.787616
sI2
F-3.335055
sI3
F-1.971022
sI4
F1.39654
sI5
F2.708932
sI6
F3.862802
sI7
F4.357546
sI8
F3.286949
sI9
F3.340716
sI10
F3.233814
sI11
F-3.03029
sI12
F-3.196422
sI13
F4.549903
sI14
F-2.07413
ssg148
(dp360
I0
F1.504160884066458
sI1
Fnan
sI2
Fnan
sI3
Fnan
sI4
Fnan
sI5
Fnan
sI6
Fnan
sI7
Fnan
sI8
Fnan
sI9
Fnan
sI10
Fnan
sI11
Fnan
sI12
Fnan
sI13
Fnan
sI14
Fnan
ssg150
(dp361
I0
F2458438.596736111
sI1
Fnan
sI2
Fnan
sI3
Fnan
sI4
Fnan
sI5
Fnan
sI6
Fnan
sI7
Fnan
sI8
Fnan
sI9
Fnan
sI10
Fnan
sI11
Fnan
sI12
Fnan
sI13
Fnan
sI14
Fnan
ssg152
(dp362
I0
F0.002875015031103449
sI1
Fnan
sI2
Fnan
sI3
Fnan
sI4
Fnan
sI5
Fnan
sI6
Fnan
sI7
Fnan
sI8
Fnan
sI9
Fnan
sI10
Fnan
sI11
Fnan
sI12
Fnan
sI13
Fnan
sI14
Fnan
ssg154
(dp363
I0
F11.9694
sI1
F21.65771
sI2
F14.97543
sI3
F17.39554
sI4
F20.65059
sI5
F13.83118
sI6
F13.03951
sI7
F12.55581
sI8
F11.56813
sI9
F18.40968
sI10
F11.89165
sI11
F21.2795
sI12
F14.63921
sI13
F12.01012
sI14
F14.09255
ssg156
(dp364
I0
F11.913
sI1
F12.627
sI2
F11.936
sI3
F12.264
sI4
F12.64
sI5
F12.046
sI6
F12.026
sI7
F11.923
sI8
F11.932
sI9
F12.679
sI10
F11.905
sI11
F12.711
sI12
F12.028
sI13
F11.909
sI14
F12.153
ssg158
(dp365
I0
F0.3735252480203149
sI1
Fnan
sI2
Fnan
sI3
Fnan
sI4
Fnan
sI5
Fnan
sI6
Fnan
sI7
Fnan
sI8
Fnan
sI9
Fnan
sI10
Fnan
sI11
Fnan
sI12
Fnan
sI13
Fnan
sI14
Fnan
sssS'g'
p366
(dp367
g3
(dp368
I0
F0.8696303370870038
sI1
Fnan
sI2
Fnan
sI3
Fnan
sI4
Fnan
sI5
Fnan
sI6
Fnan
sI7
Fnan
sI8
Fnan
sI9
Fnan
sI10
Fnan
sI11
Fnan
sI12
Fnan
sI13
Fnan
sI14
Fnan
ssg5
(dp369
I0
S'NoError'
p370
sI1
S'NoError'
p371
sI2
S'NoError'
p372
sI3
S'NoError'
p373
sI4
S'NoError'
p374
sI5
S'NoError'
p375
sI6
S'NoError'
p376
sI7
S'NoError'
p377
sI8
S'NoError'
p378
sI9
S'NoError'
p379
sI10
S'NoError'
p380
sI11
S'NoError'
p381
sI12
S'NoError'
p382
sI13
S'NoError'
p383
sI14
S'NoError'
p384
ssg22
(dp385
I0
F0.005
sI1
F0.002
sI2
F0.002
sI3
F0.002
sI4
F0.003
sI5
F0.002
sI6
F0.003
sI7
F0.007
sI8
F0.002
sI9
F0.002
sI10
F0.002
sI11
F0.002
sI12
F0.005
sI13
F0.01
sI14
F0.002
ssg24
(dp386
I0
F0.8887100639921544
sI1
F0.8750068679360953
sI2
F0.881344416537613
sI3
F0.8755280012885542
sI4
F0.8747893257617081
sI5
F0.8790064801260516
sI6
F0.8844050819726668
sI7
F0.8676863731797111
sI8
F0.8730080192174139
sI9
F0.8787618366541724
sI10
F0.8783993329288561
sI11
F0.8828824579577264
sI12
F0.8834813611546262
sI13
F0.8528060122213176
sI14
F0.8794994301066685
ssg26
(dp387
I0
F0.008459271665785022
sI1
Fnan
sI2
Fnan
sI3
Fnan
sI4
Fnan
sI5
Fnan
sI6
Fnan
sI7
Fnan
sI8
Fnan
sI9
Fnan
sI10
Fnan
sI11
Fnan
sI12
Fnan
sI13
Fnan
sI14
Fnan
ssg28
(dp388
I0
F0.8770210040690223
sI1
Fnan
sI2
Fnan
sI3
Fnan
sI4
Fnan
sI5
Fnan
sI6
Fnan
sI7
Fnan
sI8
Fnan
sI9
Fnan
sI10
Fnan
sI11
Fnan
sI12
Fnan
sI13
Fnan
sI14
Fnan
ssg30
(dp389
I0
F12.676
sI1
F11.422
sI2
F11.444
sI3
F11.442
sI4
F11.549
sI5
F11.448
sI6
F12.077
sI7
F13.171
sI8
F11.456
sI9
F11.421
sI10
F11.447
sI11
F11.499
sI12
F12.582
sI13
F13.53
sI14
F11.443
ssg32
(dp390
I0
F44.85096
sI1
F20.67726
sI2
F24.23652
sI3
F25.39658
sI4
F30.89433
sI5
F19.79618
sI6
F35.22628
sI7
F52.64528
sI8
F22.74377
sI9
F20.8119
sI10
F27.45329
sI11
F25.57974
sI12
F45.19453
sI13
F56.54208
sI14
F22.19683
ssg34
(dp391
I0
F2458438.6075694445
sI1
F2458438.585601852
sI2
F2458438.5660069445
sI3
F2458438.5645138887
sI4
F2458438.5630208333
sI5
F2458438.5841550925
sI6
F2458438.6083101854
sI7
F2458438.606087963
sI8
F2458438.587071759
sI9
F2458438.5848842594
sI10
F2458438.563761574
sI11
F2458438.5652662036
sI12
F2458438.6068287035
sI13
F2458438.605347222
sI14
F2458438.5863425927
ssg36
(dp392
I0
F0.41406953333333335
sI1
Fnan
sI2
Fnan
sI3
Fnan
sI4
Fnan
sI5
Fnan
sI6
Fnan
sI7
Fnan
sI8
Fnan
sI9
Fnan
sI10
Fnan
sI11
Fnan
sI12
Fnan
sI13
Fnan
sI14
Fnan
ssg38
(dp393
I0
F1.7436100266666665
sI1
Fnan
sI2
Fnan
sI3
Fnan
sI4
Fnan
sI5
Fnan
sI6
Fnan
sI7
Fnan
sI8
Fnan
sI9
Fnan
sI10
Fnan
sI11
Fnan
sI12
Fnan
sI13
Fnan
sI14
Fnan
ssg40
(dp394
I0
F0.8663665966395078
sI1
F0.8766394997298634
sI2
F0.8668496069932791
sI3
F0.8668379598758781
sI4
F0.8711780523228991
sI5
F0.8696169263199932
sI6
F0.8747109450073369
sI7
F0.8711698646264863
sI8
F0.8686193940532099
sI9
F0.8722986340104961
sI10
F0.8739349884696098
sI11
F0.8689512463602623
sI12
F0.8766130722389082
sI13
F0.8657766507803545
sI14
F0.868883516671735
ssg42
(dp395
I0
F0.0027638016898438042
sI1
Fnan
sI2
Fnan
sI3
Fnan
sI4
Fnan
sI5
Fnan
sI6
Fnan
sI7
Fnan
sI8
Fnan
sI9
Fnan
sI10
Fnan
sI11
Fnan
sI12
Fnan
sI13
Fnan
sI14
Fnan
ssg44
(dp396
I0
F1.1509111466666664
sI1
Fnan
sI2
Fnan
sI3
Fnan
sI4
Fnan
sI5
Fnan
sI6
Fnan
sI7
Fnan
sI8
Fnan
sI9
Fnan
sI10
Fnan
sI11
Fnan
sI12
Fnan
sI13
Fnan
sI14
Fnan
ssg46
(dp397
I0
g370
sI1
g371
sI2
g372
sI3
g373
sI4
g374
sI5
g375
sI6
g376
sI7
g377
sI8
g378
sI9
g379
sI10
g380
sI11
g381
sI12
g382
sI13
g383
sI14
g384
ssg48
(dp398
I0
F0.0057144615607529325
sI1
Fnan
sI2
Fnan
sI3
Fnan
sI4
Fnan
sI5
Fnan
sI6
Fnan
sI7
Fnan
sI8
Fnan
sI9
Fnan
sI10
Fnan
sI11
Fnan
sI12
Fnan
sI13
Fnan
sI14
Fnan
ssg50
(dp399
I0
F0.7272859004218225
sI1
Fnan
sI2
Fnan
sI3
Fnan
sI4
Fnan
sI5
Fnan
sI6
Fnan
sI7
Fnan
sI8
Fnan
sI9
Fnan
sI10
Fnan
sI11
Fnan
sI12
Fnan
sI13
Fnan
sI14
Fnan
ssg52
(dp400
I0
F1.1306567333333333
sI1
Fnan
sI2
Fnan
sI3
Fnan
sI4
Fnan
sI5
Fnan
sI6
Fnan
sI7
Fnan
sI8
Fnan
sI9
Fnan
sI10
Fnan
sI11
Fnan
sI12
Fnan
sI13
Fnan
sI14
Fnan
ssg54
(dp401
I0
F1.528109395012575
sI1
F1.5201177513438602
sI2
F1.5062638696704513
sI3
F1.5159126727865535
sI4
F1.5198083021979731
sI5
F1.5095880200655962
sI6
F1.5050328911102129
sI7
F1.514550567717222
sI8
F1.5199562000151035
sI9
F1.5221217088722168
sI10
F1.5081399066699426
sI11
F1.507743360458605
sI12
F1.5007600252482962
sI13
F1.5527730021816069
sI14
F1.5093155837368488
ssg56
(dp402
I0
g370
sI1
g371
sI2
g372
sI3
g373
sI4
g374
sI5
g375
sI6
g376
sI7
g377
sI8
g378
sI9
g379
sI10
g380
sI11
g381
sI12
g382
sI13
g383
sI14
g384
ssg58
(dp403
I0
F44.8677
sI1
F22.11068
sI2
F23.99501
sI3
F25.98003
sI4
F30.99922
sI5
F21.31705
sI6
F34.90247
sI7
F53.43632
sI8
F22.79694
sI9
F20.00567
sI10
F27.07785
sI11
F26.09075
sI12
F44.68346
sI13
F56.87899
sI14
F21.48993
ssg60
(dp404
I0
F11.477066666666667
sI1
Fnan
sI2
Fnan
sI3
Fnan
sI4
Fnan
sI5
Fnan
sI6
Fnan
sI7
Fnan
sI8
Fnan
sI9
Fnan
sI10
Fnan
sI11
Fnan
sI12
Fnan
sI13
Fnan
sI14
Fnan
ssg62
(dp405
I0
F0.7174104122160164
sI1
Fnan
sI2
Fnan
sI3
Fnan
sI4
Fnan
sI5
Fnan
sI6
Fnan
sI7
Fnan
sI8
Fnan
sI9
Fnan
sI10
Fnan
sI11
Fnan
sI12
Fnan
sI13
Fnan
sI14
Fnan
ssg64
(dp406
I0
F4.644114
sI1
F-3.256512
sI2
F3.486156
sI3
F-2.837691
sI4
F4.170915
sI5
F-0.8775086
sI6
F-3.272774
sI7
F1.781012
sI8
F3.776385
sI9
F4.567156
sI10
F5.090136
sI11
F3.38623
sI12
F4.403594
sI13
F3.54893
sI14
F-2.455992
ssg66
(dp407
I0
F11.85373333333333
sI1
Fnan
sI2
Fnan
sI3
Fnan
sI4
Fnan
sI5
Fnan
sI6
Fnan
sI7
Fnan
sI8
Fnan
sI9
Fnan
sI10
Fnan
sI11
Fnan
sI12
Fnan
sI13
Fnan
sI14
Fnan
ssg68
(dp408
I0
g370
sI1
g371
sI2
g372
sI3
g373
sI4
g374
sI5
g375
sI6
g376
sI7
g377
sI8
g378
sI9
g379
sI10
g380
sI11
g381
sI12
g382
sI13
g383
sI14
g384
ssg70
(dp409
I0
F2274.8443333333335
sI1
F7060.34
sI2
F7035.11
sI3
F7012.083333333333
sI4
F6321.0599999999995
sI5
F6972.456666666667
sI6
F3899.1533333333336
sI7
F1411.266
sI8
F6892.9366666666665
sI9
F7127.11
sI10
F6942.17
sI11
F6676.21
sI12
F2442.463
sI13
F1007.5563333333333
sI14
F7014.163333333333
ssg72
(dp410
I0
F1.139334
sI1
F1.086274
sI2
F1.051359
sI3
F1.049142
sI4
F1.046969
sI5
F1.083279
sI6
F1.1413950000000002
sI7
F1.135238
sI8
F1.089316
sI9
F1.084758
sI10
F1.0480459999999998
sI11
F1.050244
sI12
F1.137267
sI13
F1.133224
sI14
F1.0877860000000001
ssg74
(dp411
I0
F1916.7910000000002
sI1
F6119.9766666666665
sI2
F6084.043333333333
sI3
F6088.376666666666
sI4
F5482.240000000001
sI5
F6041.526666666667
sI6
F3357.1133333333332
sI7
F1242.9603333333332
sI8
F5995.956666666667
sI9
F6130.756666666667
sI10
F6026.8566666666675
sI11
F5753.363333333333
sI12
F2111.7716666666665
sI13
F889.8216666666667
sI14
F6073.583333333333
ssg76
(dp412
I0
F3202.6386666666667
sI1
F10017.816666666668
sI2
F9880.453333333333
sI3
F9929.576666666666
sI4
F8969.376666666667
sI5
F9822.876666666667
sI6
F5460.46
sI7
F2009.98
sI8
F9795.276666666667
sI9
F10090.043333333333
sI10
F9779.553333333333
sI11
F9370.303333333333
sI12
F3417.4066666666668
sI13
F1473.0986666666665
sI14
F9876.769999999999
ssg78
(dp413
I0
F43.04409
sI1
F20.91426
sI2
F23.09607
sI3
F24.44531
sI4
F29.84469
sI5
F19.74292
sI6
F34.06779
sI7
F51.1692
sI8
F19.50326
sI9
F18.79964
sI10
F25.98276
sI11
F24.74118
sI12
F43.69978
sI13
F55.68468
sI14
F19.79341
ssg80
(dp414
I0
F12.794
sI1
F11.533
sI2
F11.54
sI3
F11.539
sI4
F11.653
sI5
F11.547
sI6
F12.185
sI7
F13.264
sI8
F11.555
sI9
F11.531
sI10
F11.55
sI11
F11.6
sI12
F12.688
sI13
F13.627
sI14
F11.541
ssg82
(dp415
I0
F0.004
sI1
F0.002
sI2
F0.002
sI3
F0.002
sI4
F0.002
sI5
F0.002
sI6
F0.003
sI7
F0.005
sI8
F0.002
sI9
F0.002
sI10
F0.002
sI11
F0.002
sI12
F0.004
sI13
F0.007
sI14
F0.002
ssg84
(dp416
I0
F0.8705631302733214
sI1
Fnan
sI2
Fnan
sI3
Fnan
sI4
Fnan
sI5
Fnan
sI6
Fnan
sI7
Fnan
sI8
Fnan
sI9
Fnan
sI10
Fnan
sI11
Fnan
sI12
Fnan
sI13
Fnan
sI14
Fnan
ssg86
(dp417
I0
F12.009800000000002
sI1
Fnan
sI2
Fnan
sI3
Fnan
sI4
Fnan
sI5
Fnan
sI6
Fnan
sI7
Fnan
sI8
Fnan
sI9
Fnan
sI10
Fnan
sI11
Fnan
sI12
Fnan
sI13
Fnan
sI14
Fnan
ssg88
(dp418
I0
F12.608
sI1
F11.378
sI2
F11.382
sI3
F11.385
sI4
F11.498
sI5
F11.392
sI6
F12.023
sI7
F13.126
sI8
F11.404
sI9
F11.368
sI10
F11.396
sI11
F11.439
sI12
F12.53
sI13
F13.492
sI14
F11.385
ssg90
(dp419
I0
F3.221312
sI1
F4.629944
sI2
F-3.687317
sI3
F4.196593
sI4
F3.210772
sI5
F2.644172
sI6
F-3.293154
sI7
F-2.264112
sI8
F-3.081196
sI9
F2.197708
sI10
F4.714634
sI11
F1.282639
sI12
F-2.89594
sI13
F-1.091942
sI14
F-3.57307
ssg92
(dp420
I0
F0.7212444074224047
sI1
Fnan
sI2
Fnan
sI3
Fnan
sI4
Fnan
sI5
Fnan
sI6
Fnan
sI7
Fnan
sI8
Fnan
sI9
Fnan
sI10
Fnan
sI11
Fnan
sI12
Fnan
sI13
Fnan
sI14
Fnan
ssg94
(dp421
I0
F0.6998802187062927
sI1
F0.7167022514334587
sI2
F0.7193426802812164
sI3
F0.7187461756010528
sI4
F0.7170808943542272
sI5
F0.7194292065256221
sI6
F0.717361543425583
sI7
F0.726612662949892
sI8
F0.7185858122619079
sI9
F0.7121684459645479
sI10
F0.7208415719512163
sI11
F0.7170857885222833
sI12
F0.7207572136558895
sI13
F0.7174086414004904
sI14
F0.7191530762065645
ssg96
(dp422
I0
F30.0
sI1
F30.0
sI2
F30.0
sI3
F30.0
sI4
F30.0
sI5
F30.0
sI6
F30.0
sI7
F30.0
sI8
F30.0
sI9
F30.0
sI10
F30.0
sI11
F30.0
sI12
F30.0
sI13
F30.0
sI14
F30.0
ssg98
(dp423
I0
F0.006
sI1
F0.002
sI2
F0.002
sI3
F0.002
sI4
F0.003
sI5
F0.002
sI6
F0.004
sI7
F0.008
sI8
F0.002
sI9
F0.002
sI10
F0.002
sI11
F0.003
sI12
F0.005
sI13
F0.01
sI14
F0.002
ssg100
(dp424
I0
F0.005
sI1
F0.002
sI2
F0.002
sI3
F0.002
sI4
F0.002
sI5
F0.002
sI6
F0.003
sI7
F0.007
sI8
F0.002
sI9
F0.002
sI10
F0.002
sI11
F0.002
sI12
F0.005
sI13
F0.009
sI14
F0.002
ssg102
(dp425
I0
F4.766002
sI1
F2.250945
sI2
F-1.705483
sI3
F2.668727
sI4
F-3.557492
sI5
F-4.072139
sI6
F4.158646
sI7
F4.175218
sI8
F-3.368376
sI9
F2.707296
sI10
F2.64636
sI11
F2.518546
sI12
F4.153695
sI13
F-3.924819
sI14
F3.542725
ssg104
(dp426
I0
S"KIC8462852-20181116at023454_-25-1X1-030-g'_cal.fts.mag.1"
p427
sI1
S"KIC8462852-20181116at020316_-25-1X1-030-g'_cal.fts.mag.1"
p428
sI2
S"KIC8462852-20181116at013503_-25-1X1-030-g'_cal.fts.mag.1"
p429
sI3
S"KIC8462852-20181116at013254_-25-1X1-030-g'_cal.fts.mag.1"
p430
sI4
S"KIC8462852-20181116at013035_-25-1X1-030-g'_cal.fts.mag.1"
p431
sI5
S"KIC8462852-20181116at020100_-25-1X1-030-g'_cal.fts.mag.1"
p432
sI6
S"KIC8462852-20181116at023558_-25-1X1-030-g'_cal.fts.mag.1"
p433
sI7
S"KIC8462852-20181116at023246_-25-1X1-030-g'_cal.fts.mag.1"
p434
sI8
S"KIC8462852-20181116at020523_-25-1X1-030-g'_cal.fts.mag.1"
p435
sI9
S"KIC8462852-20181116at020214_-25-1X1-030-g'_cal.fts.mag.1"
p436
sI10
S"KIC8462852-20181116at013149_-25-1X1-030-g'_cal.fts.mag.1"
p437
sI11
S"KIC8462852-20181116at013358_-25-1X1-030-g'_cal.fts.mag.1"
p438
sI12
S"KIC8462852-20181116at023350_-25-1X1-030-g'_cal.fts.mag.1"
p439
sI13
S"KIC8462852-20181116at023131_-25-1X1-030-g'_cal.fts.mag.1"
p440
sI14
S"KIC8462852-20181116at020420_-25-1X1-030-g'_cal.fts.mag.1"
p441
ssg121
(dp442
I0
F0.012673531528663668
sI1
Fnan
sI2
Fnan
sI3
Fnan
sI4
Fnan
sI5
Fnan
sI6
Fnan
sI7
Fnan
sI8
Fnan
sI9
Fnan
sI10
Fnan
sI11
Fnan
sI12
Fnan
sI13
Fnan
sI14
Fnan
ssg123
(dp443
I0
F2135.384
sI1
F6778.8
sI2
F6645.733333333334
sI3
F6654.4366666666665
sI4
F6032.233333333334
sI5
F6619.7733333333335
sI6
F3707.82
sI7
F1354.4386666666667
sI8
F6567.97
sI9
F6788.783333333334
sI10
F6626.926666666666
sI11
F6314.343333333333
sI12
F2329.3483333333334
sI13
F972.6933333333333
sI14
F6651.163333333333
ssg125
(dp444
I0
F0.7240947254528041
sI1
Fnan
sI2
Fnan
sI3
Fnan
sI4
Fnan
sI5
Fnan
sI6
Fnan
sI7
Fnan
sI8
Fnan
sI9
Fnan
sI10
Fnan
sI11
Fnan
sI12
Fnan
sI13
Fnan
sI14
Fnan
ssg127
(dp445
I0
S"g'"
p446
sI1
S"g'"
p447
sI2
S"g'"
p448
sI3
S"g'"
p449
sI4
S"g'"
p450
sI5
S"g'"
p451
sI6
S"g'"
p452
sI7
S"g'"
p453
sI8
S"g'"
p454
sI9
S"g'"
p455
sI10
S"g'"
p456
sI11
S"g'"
p457
sI12
S"g'"
p458
sI13
S"g'"
p459
sI14
S"g'"
p460
ssg144
(dp461
I0
F0.003626659239765586
sI1
Fnan
sI2
Fnan
sI3
Fnan
sI4
Fnan
sI5
Fnan
sI6
Fnan
sI7
Fnan
sI8
Fnan
sI9
Fnan
sI10
Fnan
sI11
Fnan
sI12
Fnan
sI13
Fnan
sI14
Fnan
ssg146
(dp462
I0
F3.714457
sI1
F4.273595
sI2
F0.5200782
sI3
F3.082867
sI4
F3.865203
sI5
F4.415258
sI6
F2.973268
sI7
F3.557403
sI8
F-3.352923
sI9
F4.467835
sI10
F-2.748648
sI11
F2.695306
sI12
F-3.44591
sI13
F-3.471545
sI14
F-3.282577
ssg148
(dp463
I0
F1.5160128838058045
sI1
Fnan
sI2
Fnan
sI3
Fnan
sI4
Fnan
sI5
Fnan
sI6
Fnan
sI7
Fnan
sI8
Fnan
sI9
Fnan
sI10
Fnan
sI11
Fnan
sI12
Fnan
sI13
Fnan
sI14
Fnan
ssg150
(dp464
I0
F2458438.585601852
sI1
Fnan
sI2
Fnan
sI3
Fnan
sI4
Fnan
sI5
Fnan
sI6
Fnan
sI7
Fnan
sI8
Fnan
sI9
Fnan
sI10
Fnan
sI11
Fnan
sI12
Fnan
sI13
Fnan
sI14
Fnan
ssg152
(dp465
I0
F0.003626659239765586
sI1
Fnan
sI2
Fnan
sI3
Fnan
sI4
Fnan
sI5
Fnan
sI6
Fnan
sI7
Fnan
sI8
Fnan
sI9
Fnan
sI10
Fnan
sI11
Fnan
sI12
Fnan
sI13
Fnan
sI14
Fnan
ssg154
(dp466
I0
F43.87493
sI1
F20.65673
sI2
F24.95565
sI3
F25.18459
sI4
F31.17619
sI5
F20.36186
sI6
F34.76088
sI7
F52.23497
sI8
F22.24124
sI9
F20.71286
sI10
F27.08017
sI11
F26.27653
sI12
F44.49153
sI13
F54.53839
sI14
F21.60672
ssg156
(dp467
I0
F12.236
sI1
F10.998
sI2
F11.013
sI3
F11.008
sI4
F11.118
sI5
F11.019
sI6
F11.657
sI7
F12.742
sI8
F11.022
sI9
F10.99
sI10
F11.024
sI11
F11.071
sI12
F12.166
sI13
F13.079
sI14
F11.013
ssg158
(dp468
I0
F0.8705631302733214
sI1
Fnan
sI2
Fnan
sI3
Fnan
sI4
Fnan
sI5
Fnan
sI6
Fnan
sI7
Fnan
sI8
Fnan
sI9
Fnan
sI10
Fnan
sI11
Fnan
sI12
Fnan
sI13
Fnan
sI14
Fnan
sssS'V'
p469
(dp470
g3
(dp471
I0
F0.6951333733780866
sI1
Fnan
sI2
Fnan
sI3
Fnan
sI4
Fnan
sI5
Fnan
sI6
Fnan
sI7
Fnan
sI8
Fnan
sI9
Fnan
sI10
Fnan
sI11
Fnan
sI12
Fnan
sI13
Fnan
sI14
Fnan
ssg5
(dp472
I0
S'NoError'
p473
sI1
S'NoError'
p474
sI2
S'NoError'
p475
sI3
S'NoError'
p476
sI4
S'NoError'
p477
sI5
S'NoError'
p478
sI6
S'NoError'
p479
sI7
S'NoError'
p480
sI8
S'NoError'
p481
sI9
S'NoError'
p482
sI10
S'NoError'
p483
sI11
S'NoError'
p484
sI12
S'NoError'
p485
sI13
S'NoError'
p486
sI14
S'NoError'
p487
ssg22
(dp488
I0
F0.004
sI1
F0.006
sI2
F0.003
sI3
F0.002
sI4
F0.006
sI5
F0.002
sI6
F0.002
sI7
F0.002
sI8
F0.002
sI9
F0.003
sI10
F0.006
sI11
F0.003
sI12
F0.004
sI13
F0.005
sI14
F0.004
ssg24
(dp489
I0
F0.8812417718479258
sI1
F0.8903180534606334
sI2
F0.8862745119666847
sI3
F0.8861967965437538
sI4
F0.8888246076114119
sI5
F0.8824823914198922
sI6
F0.8831435109405311
sI7
F0.8858355951158107
sI8
F0.8866471006780219
sI9
F0.8787341618361418
sI10
F0.8807197069683679
sI11
F0.8847352268370967
sI12
F0.8881176894320228
sI13
F0.88212373106772
sI14
F0.8834506813661552
ssg26
(dp490
I0
F0.0032602173550334676
sI1
Fnan
sI2
Fnan
sI3
Fnan
sI4
Fnan
sI5
Fnan
sI6
Fnan
sI7
Fnan
sI8
Fnan
sI9
Fnan
sI10
Fnan
sI11
Fnan
sI12
Fnan
sI13
Fnan
sI14
Fnan
ssg28
(dp491
I0
F0.8845897024728112
sI1
Fnan
sI2
Fnan
sI3
Fnan
sI4
Fnan
sI5
Fnan
sI6
Fnan
sI7
Fnan
sI8
Fnan
sI9
Fnan
sI10
Fnan
sI11
Fnan
sI12
Fnan
sI13
Fnan
sI14
Fnan
ssg30
(dp492
I0
F12.214
sI1
F12.985
sI2
F11.982
sI3
F11.452
sI4
F12.849
sI5
F11.445
sI6
F11.469
sI7
F11.523
sI8
F11.452
sI9
F12.105
sI10
F12.893
sI11
F11.726
sI12
F12.431
sI13
F12.642
sI14
F12.172
ssg32
(dp493
I0
F33.90021
sI1
F44.47346
sI2
F29.91394
sI3
F20.85167
sI4
F48.53241
sI5
F21.53496
sI6
F21.74776
sI7
F23.42142
sI8
F21.62733
sI9
F33.9073
sI10
F44.68672
sI11
F25.65714
sI12
F40.9033
sI13
F45.04355
sI14
F38.90062
ssg34
(dp494
I0
F2458438.620300926
sI1
F2458438.6218171297
sI2
F2458438.6225694446
sI3
F2458438.5802314817
sI4
F2458438.6020833333
sI5
F2458438.578715278
sI6
F2458438.577974537
sI7
F2458438.580983796
sI8
F2458438.579479167
sI9
F2458438.6013194444
sI10
F2458438.6210532407
sI11
F2458438.6233333335
sI12
F2458438.6005671294
sI13
F2458438.599803241
sI14
F2458438.599050926
ssg36
(dp495
I0
F3.528413266666667
sI1
Fnan
sI2
Fnan
sI3
Fnan
sI4
Fnan
sI5
Fnan
sI6
Fnan
sI7
Fnan
sI8
Fnan
sI9
Fnan
sI10
Fnan
sI11
Fnan
sI12
Fnan
sI13
Fnan
sI14
Fnan
ssg38
(dp496
I0
F1.5787764666666668
sI1
Fnan
sI2
Fnan
sI3
Fnan
sI4
Fnan
sI5
Fnan
sI6
Fnan
sI7
Fnan
sI8
Fnan
sI9
Fnan
sI10
Fnan
sI11
Fnan
sI12
Fnan
sI13
Fnan
sI14
Fnan
ssg40
(dp497
I0
F0.6953160532673569
sI1
F0.6951383357828419
sI2
F0.6960036916339206
sI3
F0.6926105913184575
sI4
F0.6985920293023877
sI5
F0.6936119527211094
sI6
F0.6948993309022687
sI7
F0.693868894699414
sI8
F0.6958069589660194
sI9
F0.6900203979574048
sI10
F0.696282021856256
sI11
F0.694300985228199
sI12
F0.6887612244955701
sI13
F0.70179287175002
sI14
F0.6951696348588088
ssg42
(dp498
I0
F0.001459260068763244
sI1
Fnan
sI2
Fnan
sI3
Fnan
sI4
Fnan
sI5
Fnan
sI6
Fnan
sI7
Fnan
sI8
Fnan
sI9
Fnan
sI10
Fnan
sI11
Fnan
sI12
Fnan
sI13
Fnan
sI14
Fnan
ssg44
(dp499
I0
F2.281304866666667
sI1
Fnan
sI2
Fnan
sI3
Fnan
sI4
Fnan
sI5
Fnan
sI6
Fnan
sI7
Fnan
sI8
Fnan
sI9
Fnan
sI10
Fnan
sI11
Fnan
sI12
Fnan
sI13
Fnan
sI14
Fnan
ssg46
(dp500
I0
g473
sI1
g474
sI2
g475
sI3
g476
sI4
g477
sI5
g478
sI6
g479
sI7
g480
sI8
g481
sI9
g482
sI10
g483
sI11
g484
sI12
g485
sI13
g486
sI14
g487
ssg48
(dp501
I0
F0.010228543837786338
sI1
Fnan
sI2
Fnan
sI3
Fnan
sI4
Fnan
sI5
Fnan
sI6
Fnan
sI7
Fnan
sI8
Fnan
sI9
Fnan
sI10
Fnan
sI11
Fnan
sI12
Fnan
sI13
Fnan
sI14
Fnan
ssg50
(dp502
I0
F0.5708965213549981
sI1
Fnan
sI2
Fnan
sI3
Fnan
sI4
Fnan
sI5
Fnan
sI6
Fnan
sI7
Fnan
sI8
Fnan
sI9
Fnan
sI10
Fnan
sI11
Fnan
sI12
Fnan
sI13
Fnan
sI14
Fnan
ssg52
(dp503
I0
F1.9887747000000005
sI1
Fnan
sI2
Fnan
sI3
Fnan
sI4
Fnan
sI5
Fnan
sI6
Fnan
sI7
Fnan
sI8
Fnan
sI9
Fnan
sI10
Fnan
sI11
Fnan
sI12
Fnan
sI13
Fnan
sI14
Fnan
ssg54
(dp504
I0
F1.4990035069605596
sI1
F1.4894076788533734
sI2
F1.5162053546083445
sI3
F1.496494505534873
sI4
F1.475672842018263
sI5
F1.5035337881240474
sI6
F1.5045008944692935
sI7
F1.504526915312901
sI8
F1.502215597601922
sI9
F1.5059731273400931
sI10
F1.4627854115879315
sI11
F1.5028884303576717
sI12
F1.5310030200513791
sI13
F1.49902338461428
sI14
F1.499804399985514
ssg56
(dp505
I0
g473
sI1
g474
sI2
g475
sI3
g476
sI4
g477
sI5
g478
sI6
g479
sI7
g480
sI8
g481
sI9
g482
sI10
g483
sI11
g484
sI12
g485
sI13
g486
sI14
g487
ssg58
(dp506
I0
F34.36415
sI1
F44.48434
sI2
F30.16885
sI3
F21.96191
sI4
F48.03838
sI5
F22.04123
sI6
F22.71807
sI7
F23.31138
sI8
F21.99544
sI9
F34.59135
sI10
F44.81779
sI11
F26.07884
sI12
F42.44064
sI13
F46.17393
sI14
F39.25792
ssg60
(dp507
I0
F11.421266666666668
sI1
Fnan
sI2
Fnan
sI3
Fnan
sI4
Fnan
sI5
Fnan
sI6
Fnan
sI7
Fnan
sI8
Fnan
sI9
Fnan
sI10
Fnan
sI11
Fnan
sI12
Fnan
sI13
Fnan
sI14
Fnan
ssg62
(dp508
I0
F0.7205889141690246
sI1
Fnan
sI2
Fnan
sI3
Fnan
sI4
Fnan
sI5
Fnan
sI6
Fnan
sI7
Fnan
sI8
Fnan
sI9
Fnan
sI10
Fnan
sI11
Fnan
sI12
Fnan
sI13
Fnan
sI14
Fnan
ssg64
(dp509
I0
F3.911435
sI1
F4.943233
sI2
F-4.015385
sI3
F3.564237
sI4
F2.206887
sI5
F3.591748
sI6
F3.176808
sI7
F2.000138
sI8
F2.965682
sI9
F2.278117
sI10
F4.815357
sI11
F-2.773011
sI12
F-4.117317
sI13
F-2.445635
sI14
F3.579353
ssg66
(dp510
I0
F11.784466666666667
sI1
Fnan
sI2
Fnan
sI3
Fnan
sI4
Fnan
sI5
Fnan
sI6
Fnan
sI7
Fnan
sI8
Fnan
sI9
Fnan
sI10
Fnan
sI11
Fnan
sI12
Fnan
sI13
Fnan
sI14
Fnan
ssg68
(dp511
I0
g473
sI1
g474
sI2
g475
sI3
g476
sI4
g477
sI5
g478
sI6
g479
sI7
g480
sI8
g481
sI9
g482
sI10
g483
sI11
g484
sI12
g485
sI13
g486
sI14
g487
ssg70
(dp512
I0
F4311.923333333333
sI1
F2137.0433333333335
sI2
F5356.706666666667
sI3
F8767.663333333334
sI4
F2407.4543333333336
sI5
F8788.783333333333
sI6
F8585.88
sI7
F8196.986666666668
sI8
F8737.376666666667
sI9
F4797.696666666667
sI10
F2304.411333333333
sI11
F6792.846666666666
sI12
F3586.5266666666666
sI13
F2883.913
sI14
F4490.73
ssg72
(dp513
I0
F1.177864
sI1
F1.182901
sI2
F1.185441
sI3
F1.0755940000000002
sI4
F1.124581
sI5
F1.072763
sI6
F1.071361
sI7
F1.077022
sI8
F1.074175
sI9
F1.122619
sI10
F1.180384
sI11
F1.187976
sI12
F1.1206639999999999
sI13
F1.118746
sI14
F1.116854
ssg74
(dp514
I0
F3746.336666666667
sI1
F1839.375
sI2
F4565.836666666667
sI3
F7565.743333333333
sI4
F2095.0513333333333
sI5
F7598.73
sI6
F7410.570000000001
sI7
F7042.6033333333335
sI8
F7507.3
sI9
F4168.293333333333
sI10
F2048.98
sI11
F5853.006666666667
sI12
F3019.6523333333334
sI13
F2501.864666666667
sI14
F3885.2066666666665
ssg76
(dp515
I0
F6039.679999999999
sI1
F2961.254
sI2
F7522.306666666667
sI3
F12221.426666666666
sI4
F3322.112666666667
sI5
F12319.59
sI6
F12033.336666666666
sI7
F11464.186666666666
sI8
F12201.503333333332
sI9
F6751.27
sI10
F3184.038666666667
sI11
F9502.653333333332
sI12
F5057.04
sI13
F4036.7033333333334
sI14
F6281.133333333333
ssg78
(dp516
I0
F33.49279
sI1
F43.34706
sI2
F30.04249
sI3
F20.36391
sI4
F47.51583
sI5
F19.25458
sI6
F20.71161
sI7
F23.24006
sI8
F20.37784
sI9
F32.96238
sI10
F44.03789
sI11
F24.86124
sI12
F41.91307
sI13
F44.33123
sI14
F37.46322
ssg80
(dp517
I0
F12.066
sI1
F12.838
sI2
F11.851
sI3
F11.303
sI4
F12.697
sI5
F11.298
sI6
F11.325
sI7
F11.381
sI8
F11.311
sI9
F11.95
sI10
F12.721
sI11
F11.582
sI12
F12.3
sI13
F12.504
sI14
F12.026
ssg82
(dp518
I0
F0.003
sI1
F0.004
sI2
F0.002
sI3
F0.002
sI4
F0.004
sI5
F0.002
sI6
F0.002
sI7
F0.002
sI8
F0.002
sI9
F0.002
sI10
F0.004
sI11
F0.002
sI12
F0.003
sI13
F0.003
sI14
F0.002
ssg84
(dp519
I0
F0.6948116649826691
sI1
Fnan
sI2
Fnan
sI3
Fnan
sI4
Fnan
sI5
Fnan
sI6
Fnan
sI7
Fnan
sI8
Fnan
sI9
Fnan
sI10
Fnan
sI11
Fnan
sI12
Fnan
sI13
Fnan
sI14
Fnan
ssg86
(dp520
I0
F11.943533333333333
sI1
Fnan
sI2
Fnan
sI3
Fnan
sI4
Fnan
sI5
Fnan
sI6
Fnan
sI7
Fnan
sI8
Fnan
sI9
Fnan
sI10
Fnan
sI11
Fnan
sI12
Fnan
sI13
Fnan
sI14
Fnan
ssg88
(dp521
I0
F11.913
sI1
F12.675
sI2
F11.678
sI3
F11.143
sI4
F12.546
sI5
F11.14
sI6
F11.166
sI7
F11.216
sI8
F11.147
sI9
F11.797
sI10
F12.594
sI11
F11.42
sI12
F12.113
sI13
F12.35
sI14
F11.869
ssg90
(dp522
I0
F4.57416
sI1
F1.650829
sI2
F2.619245
sI3
F4.987206
sI4
F3.189608
sI5
F3.731739
sI6
F3.799332
sI7
F2.510669
sI8
F2.803735
sI9
F4.520169
sI10
F4.035634
sI11
F2.966943
sI12
F3.951172
sI13
F5.383871
sI14
F2.201887
ssg92
(dp523
I0
F0.5743926564724899
sI1
Fnan
sI2
Fnan
sI3
Fnan
sI4
Fnan
sI5
Fnan
sI6
Fnan
sI7
Fnan
sI8
Fnan
sI9
Fnan
sI10
Fnan
sI11
Fnan
sI12
Fnan
sI13
Fnan
sI14
Fnan
ssg94
(dp524
I0
F0.7238176630286903
sI1
F0.7215644281764133
sI2
F0.7090351641844199
sI3
F0.7209215200214333
sI4
F0.7313122731031273
sI5
F0.7199730533475499
sI6
F0.7188022823369462
sI7
F0.7163970546349218
sI8
F0.7170679616101722
sI9
F0.7218469762085497
sI10
F0.746651604733577
sI11
F0.7183586470702547
sI12
F0.6987051641490589
sI13
F0.7230178776466393
sI14
F0.721362042283616
ssg96
(dp525
I0
F30.0
sI1
F30.0
sI2
F30.0
sI3
F30.0
sI4
F30.0
sI5
F30.0
sI6
F30.0
sI7
F30.0
sI8
F30.0
sI9
F30.0
sI10
F30.0
sI11
F30.0
sI12
F30.0
sI13
F30.0
sI14
F30.0
ssg98
(dp526
I0
F0.003
sI1
F0.006
sI2
F0.003
sI3
F0.002
sI4
F0.005
sI5
F0.002
sI6
F0.002
sI7
F0.002
sI8
F0.002
sI9
F0.003
sI10
F0.005
sI11
F0.003
sI12
F0.004
sI13
F0.005
sI14
F0.003
ssg100
(dp527
I0
F0.003
sI1
F0.005
sI2
F0.003
sI3
F0.002
sI4
F0.005
sI5
F0.002
sI6
F0.002
sI7
F0.002
sI8
F0.002
sI9
F0.003
sI10
F0.005
sI11
F0.002
sI12
F0.004
sI13
F0.004
sI14
F0.003
ssg102
(dp528
I0
F-3.464667
sI1
F3.545985
sI2
F3.315629
sI3
F1.978361
sI4
F4.39283
sI5
F-2.17035
sI6
F3.331772
sI7
F3.714436
sI8
F2.828268
sI9
F2.60967
sI10
F2.534828
sI11
F-2.70093
sI12
F3.273764
sI13
F0.9936225
sI14
F5.648402
ssg104
(dp529
I0
S'KIC8462852-20181116at025307_-25-1X1-030-V_cal.fts.mag.1'
p530
sI1
S'KIC8462852-20181116at025525_-25-1X1-030-V_cal.fts.mag.1'
p531
sI2
S'KIC8462852-20181116at025630_-25-1X1-030-V_cal.fts.mag.1'
p532
sI3
S'KIC8462852-20181116at015532_-25-1X1-030-V_cal.fts.mag.1'
p533
sI4
S'KIC8462852-20181116at022700_-25-1X1-030-V_cal.fts.mag.1'
p534
sI5
S'KIC8462852-20181116at015321_-25-1X1-030-V_cal.fts.mag.1'
p535
sI6
S'KIC8462852-20181116at015209_-25-1X1-030-V_cal.fts.mag.1'
p536
sI7
S'KIC8462852-20181116at015636_-25-1X1-030-V_cal.fts.mag.1'
p537
sI8
S'KIC8462852-20181116at015427_-25-1X1-030-V_cal.fts.mag.1'
p538
sI9
S'KIC8462852-20181116at022554_-25-1X1-030-V_cal.fts.mag.1'
p539
sI10
S'KIC8462852-20181116at025419_-25-1X1-030-V_cal.fts.mag.1'
p540
sI11
S'KIC8462852-20181116at025736_-25-1X1-030-V_cal.fts.mag.1'
p541
sI12
S'KIC8462852-20181116at022449_-25-1X1-030-V_cal.fts.mag.1'
p542
sI13
S'KIC8462852-20181116at022343_-25-1X1-030-V_cal.fts.mag.1'
p543
sI14
S'KIC8462852-20181116at022231_-25-1X1-030-V_cal.fts.mag.1'
p544
ssg121
(dp545
I0
F0.015643223304070357
sI1
Fnan
sI2
Fnan
sI3
Fnan
sI4
Fnan
sI5
Fnan
sI6
Fnan
sI7
Fnan
sI8
Fnan
sI9
Fnan
sI10
Fnan
sI11
Fnan
sI12
Fnan
sI13
Fnan
sI14
Fnan
ssg123
(dp546
I0
F3267.5080000000003
sI1
F1607.5473333333332
sI2
F4047.226666666667
sI3
F6592.46
sI4
F1822.0720000000001
sI5
F6637.196666666667
sI6
F6492.626666666666
sI7
F6176.306666666667
sI8
F6597.683333333333
sI9
F3615.076666666667
sI10
F1749.3923333333332
sI11
F5125.91
sI12
F2677.724333333333
sI13
F2204.21
sI14
F3396.383333333333
ssg125
(dp547
I0
F0.5669882672843372
sI1
Fnan
sI2
Fnan
sI3
Fnan
sI4
Fnan
sI5
Fnan
sI6
Fnan
sI7
Fnan
sI8
Fnan
sI9
Fnan
sI10
Fnan
sI11
Fnan
sI12
Fnan
sI13
Fnan
sI14
Fnan
ssg127
(dp548
I0
g469
sI1
g469
sI2
g469
sI3
g469
sI4
g469
sI5
g469
sI6
g469
sI7
g469
sI8
g469
sI9
g469
sI10
g469
sI11
g469
sI12
g469
sI13
g469
sI14
g469
ssg144
(dp549
I0
F0.0031064052789983943
sI1
Fnan
sI2
Fnan
sI3
Fnan
sI4
Fnan
sI5
Fnan
sI6
Fnan
sI7
Fnan
sI8
Fnan
sI9
Fnan
sI10
Fnan
sI11
Fnan
sI12
Fnan
sI13
Fnan
sI14
Fnan
ssg146
(dp550
I0
F4.818306
sI1
F-1.784343
sI2
F3.100449
sI3
F-3.364242
sI4
F3.806539
sI5
F3.215746
sI6
F1.769987
sI7
F3.636799
sI8
F-3.733836
sI9
F1.936787
sI10
F3.738185
sI11
F3.868275
sI12
F4.088127
sI13
F4.080172
sI14
F5.042622
ssg148
(dp551
I0
F1.49953592382803
sI1
Fnan
sI2
Fnan
sI3
Fnan
sI4
Fnan
sI5
Fnan
sI6
Fnan
sI7
Fnan
sI8
Fnan
sI9
Fnan
sI10
Fnan
sI11
Fnan
sI12
Fnan
sI13
Fnan
sI14
Fnan
ssg150
(dp552
I0
F2458438.6005671294
sI1
Fnan
sI2
Fnan
sI3
Fnan
sI4
Fnan
sI5
Fnan
sI6
Fnan
sI7
Fnan
sI8
Fnan
sI9
Fnan
sI10
Fnan
sI11
Fnan
sI12
Fnan
sI13
Fnan
sI14
Fnan
ssg152
(dp553
I0
F0.0031064052789983943
sI1
Fnan
sI2
Fnan
sI3
Fnan
sI4
Fnan
sI5
Fnan
sI6
Fnan
sI7
Fnan
sI8
Fnan
sI9
Fnan
sI10
Fnan
sI11
Fnan
sI12
Fnan
sI13
Fnan
sI14
Fnan
ssg154
(dp554
I0
F33.58133
sI1
F44.15829
sI2
F30.07769
sI3
F21.19085
sI4
F47.63686
sI5
F21.17649
sI6
F22.74947
sI7
F22.7595
sI8
F21.94804
sI9
F32.87281
sI10
F44.55088
sI11
F26.18011
sI12
F40.12293
sI13
F44.49266
sI14
F38.75817
ssg156
(dp555
I0
F11.547
sI1
F12.321
sI2
F11.309
sI3
F10.782
sI4
F12.196
sI5
F10.774
sI6
F10.799
sI7
F10.852
sI8
F10.784
sI9
F11.427
sI10
F12.243
sI11
F11.055
sI12
F11.74
sI13
F11.985
sI14
F11.505
ssg158
(dp556
I0
F0.6948116649826691
sI1
Fnan
sI2
Fnan
sI3
Fnan
sI4
Fnan
sI5
Fnan
sI6
Fnan
sI7
Fnan
sI8
Fnan
sI9
Fnan
sI10
Fnan
sI11
Fnan
sI12
Fnan
sI13
Fnan
sI14
Fnan
sss.