(dp0
S'r'
p1
(dp2
S'sigmean'
p3
(dp4
I0
F0.5389187181231451
sI1
Fnan
sI2
Fnan
sI3
Fnan
sI4
Fnan
sI5
Fnan
sI6
Fnan
sI7
Fnan
sI8
Fnan
sI9
Fnan
sI10
Fnan
sI11
Fnan
sI12
Fnan
sI13
Fnan
sI14
Fnan
sI15
Fnan
sI16
Fnan
sI17
Fnan
sI18
Fnan
sI19
Fnan
sI20
Fnan
sI21
Fnan
sI22
Fnan
sI23
Fnan
ssS'ref3flag'
p5
(dp6
I0
S'NoError'
p7
sI1
S'NoError'
p8
sI2
S'NoError'
p9
sI3
S'NoError'
p10
sI4
S'NoError'
p11
sI5
S'NoError'
p12
sI6
S'NoError'
p13
sI7
S'NoError'
p14
sI8
S'NoError'
p15
sI9
S'NoError'
p16
sI10
S'NoError'
p17
sI11
S'NoError'
p18
sI12
S'NoError'
p19
sI13
S'NoError'
p20
sI14
S'NoError'
p21
sI15
S'NoError'
p22
sI16
S'NoError'
p23
sI17
S'NoError'
p24
sI18
S'NoError'
p25
sI19
S'NoError'
p26
sI20
S'NoError'
p27
sI21
S'NoError'
p28
sI22
S'NoError'
p29
sI23
S'NoError'
p30
ssS'tabbyerr'
p31
(dp32
I0
F0.003
sI1
F0.004
sI2
F0.003
sI3
F0.004
sI4
F0.003
sI5
F0.005
sI6
F0.003
sI7
F0.004
sI8
F0.003
sI9
F0.004
sI10
F0.003
sI11
F0.003
sI12
F0.004
sI13
F0.003
sI14
F0.003
sI15
F0.003
sI16
F0.003
sI17
F0.004
sI18
F0.003
sI19
F0.003
sI20
F0.004
sI21
F0.003
sI22
F0.003
sI23
F0.003
ssS'ref2rel'
p33
(dp34
I0
F0.8890157328442395
sI1
F0.8997565138940862
sI2
F0.8965167954410908
sI3
F0.8933432394869616
sI4
F0.8905491256188459
sI5
F0.901042868038423
sI6
F0.8978459137019845
sI7
F0.8908772637701007
sI8
F0.8921599897752767
sI9
F0.8806885831016741
sI10
F0.8896889633573586
sI11
F0.8848551329552824
sI12
F0.8924543217627573
sI13
F0.8892560405035613
sI14
F0.8816648379052369
sI15
F0.8940456604653989
sI16
F0.8966271165737215
sI17
F0.8820168952988097
sI18
F0.8849909194770279
sI19
F0.8924577382763873
sI20
F0.90375828151661
sI21
F0.8952964110000373
sI22
F0.8801536607727747
sI23
F0.8995978518926887
ssS'ref2err'
p35
(dp36
I0
F0.006684341314783207
sI1
Fnan
sI2
Fnan
sI3
Fnan
sI4
Fnan
sI5
Fnan
sI6
Fnan
sI7
Fnan
sI8
Fnan
sI9
Fnan
sI10
Fnan
sI11
Fnan
sI12
Fnan
sI13
Fnan
sI14
Fnan
sI15
Fnan
sI16
Fnan
sI17
Fnan
sI18
Fnan
sI19
Fnan
sI20
Fnan
sI21
Fnan
sI22
Fnan
sI23
Fnan
ssS'ref2mean'
p37
(dp38
I0
F0.8916108273929306
sI1
Fnan
sI2
Fnan
sI3
Fnan
sI4
Fnan
sI5
Fnan
sI6
Fnan
sI7
Fnan
sI8
Fnan
sI9
Fnan
sI10
Fnan
sI11
Fnan
sI12
Fnan
sI13
Fnan
sI14
Fnan
sI15
Fnan
sI16
Fnan
sI17
Fnan
sI18
Fnan
sI19
Fnan
sI20
Fnan
sI21
Fnan
sI22
Fnan
sI23
Fnan
ssS'tabbymag'
p39
(dp40
I0
F11.469
sI1
F11.737
sI2
F11.597
sI3
F11.66
sI4
F11.506
sI5
F11.99
sI6
F11.556
sI7
F11.73
sI8
F11.333
sI9
F11.733
sI10
F11.504
sI11
F11.54
sI12
F11.92
sI13
F11.64
sI14
F11.53
sI15
F11.428
sI16
F11.629
sI17
F11.72
sI18
F11.633
sI19
F11.339
sI20
F11.838
sI21
F11.58
sI22
F11.556
sI23
F11.483
ssS'tabbybkg'
p41
(dp42
I0
F67.55527
sI1
F80.30011
sI2
F63.33745
sI3
F76.49634
sI4
F58.33156
sI5
F74.73254
sI6
F71.56578
sI7
F68.95588
sI8
F50.79556
sI9
F67.48301
sI10
F67.98645
sI11
F72.76443
sI12
F76.94487
sI13
F74.12652
sI14
F57.97326
sI15
F57.20066
sI16
F72.61841
sI17
F74.58049
sI18
F70.65101
sI19
F51.46529
sI20
F78.24321
sI21
F61.45068
sI22
F62.89732
sI23
F59.64122
ssS'JD'
p43
(dp44
I0
F2458209.9528125
sI1
F2458209.9507407406
sI2
F2458209.984583333
sI3
F2458209.950023148
sI4
F2458210.0107291667
sI5
F2458209.9990046294
sI6
F2458209.9521180554
sI7
F2458209.9831828703
sI8
F2458209.9975925926
sI9
F2458210.011435185
sI10
F2458209.9817708335
sI11
F2458209.951435185
sI12
F2458210.0128587964
sI13
F2458209.966400463
sI14
F2458209.998310185
sI15
F2458209.996180556
sI16
F2458209.9670949075
sI17
F2458209.965011574
sI18
F2458209.982476852
sI19
F2458209.996886574
sI20
F2458209.9642824074
sI21
F2458210.0121412035
sI22
F2458210.013576389
sI23
F2458209.9838888887
ssS'ref3rmsmean'
p45
(dp46
I0
F10.536716291666666
sI1
Fnan
sI2
Fnan
sI3
Fnan
sI4
Fnan
sI5
Fnan
sI6
Fnan
sI7
Fnan
sI8
Fnan
sI9
Fnan
sI10
Fnan
sI11
Fnan
sI12
Fnan
sI13
Fnan
sI14
Fnan
sI15
Fnan
sI16
Fnan
sI17
Fnan
sI18
Fnan
sI19
Fnan
sI20
Fnan
sI21
Fnan
sI22
Fnan
sI23
Fnan
ssS'ref1rmsmean'
p47
(dp48
I0
F7.883796333333334
sI1
Fnan
sI2
Fnan
sI3
Fnan
sI4
Fnan
sI5
Fnan
sI6
Fnan
sI7
Fnan
sI8
Fnan
sI9
Fnan
sI10
Fnan
sI11
Fnan
sI12
Fnan
sI13
Fnan
sI14
Fnan
sI15
Fnan
sI16
Fnan
sI17
Fnan
sI18
Fnan
sI19
Fnan
sI20
Fnan
sI21
Fnan
sI22
Fnan
sI23
Fnan
ssS'relflux'
p49
(dp50
I0
F0.5393563223226736
sI1
F0.5380650854562156
sI2
F0.5335634872348313
sI3
F0.5363244971167701
sI4
F0.5395207119686914
sI5
F0.5284937765279736
sI6
F0.5349844285573448
sI7
F0.5400281007781992
sI8
F0.5395967559880288
sI9
F0.5456151032625074
sI10
F0.5380029879375768
sI11
F0.5417391619394029
sI12
F0.5319904897676988
sI13
F0.5415131619354765
sI14
F0.5312577344282485
sI15
F0.5402861603881632
sI16
F0.5417166547443248
sI17
F0.5436003816590408
sI18
F0.5443736432804411
sI19
F0.5466864104266812
sI20
F0.5377750682362358
sI21
F0.5353259533074499
sI22
F0.5277418044264347
sI23
F0.5426571902767271
ssS'sigerr'
p51
(dp52
I0
F0.0038451079472805742
sI1
Fnan
sI2
Fnan
sI3
Fnan
sI4
Fnan
sI5
Fnan
sI6
Fnan
sI7
Fnan
sI8
Fnan
sI9
Fnan
sI10
Fnan
sI11
Fnan
sI12
Fnan
sI13
Fnan
sI14
Fnan
sI15
Fnan
sI16
Fnan
sI17
Fnan
sI18
Fnan
sI19
Fnan
sI20
Fnan
sI21
Fnan
sI22
Fnan
sI23
Fnan
ssS'tabbyrmsmean'
p53
(dp54
I0
F5.498058791666666
sI1
Fnan
sI2
Fnan
sI3
Fnan
sI4
Fnan
sI5
Fnan
sI6
Fnan
sI7
Fnan
sI8
Fnan
sI9
Fnan
sI10
Fnan
sI11
Fnan
sI12
Fnan
sI13
Fnan
sI14
Fnan
sI15
Fnan
sI16
Fnan
sI17
Fnan
sI18
Fnan
sI19
Fnan
sI20
Fnan
sI21
Fnan
sI22
Fnan
sI23
Fnan
ssS'tabbyflag'
p55
(dp56
I0
g7
sI1
g8
sI2
g9
sI3
g10
sI4
g11
sI5
g12
sI6
g13
sI7
g14
sI8
g15
sI9
g16
sI10
g17
sI11
g18
sI12
g19
sI13
g20
sI14
g21
sI15
g22
sI16
g23
sI17
g24
sI18
g25
sI19
g26
sI20
g27
sI21
g28
sI22
g29
sI23
g30
ssS'ref1err'
p57
(dp58
I0
F0.007760655413255075
sI1
Fnan
sI2
Fnan
sI3
Fnan
sI4
Fnan
sI5
Fnan
sI6
Fnan
sI7
Fnan
sI8
Fnan
sI9
Fnan
sI10
Fnan
sI11
Fnan
sI12
Fnan
sI13
Fnan
sI14
Fnan
sI15
Fnan
sI16
Fnan
sI17
Fnan
sI18
Fnan
sI19
Fnan
sI20
Fnan
sI21
Fnan
sI22
Fnan
sI23
Fnan
ssS'ref2magmeanerr'
p59
(dp60
I0
F0.15908212718091821
sI1
Fnan
sI2
Fnan
sI3
Fnan
sI4
Fnan
sI5
Fnan
sI6
Fnan
sI7
Fnan
sI8
Fnan
sI9
Fnan
sI10
Fnan
sI11
Fnan
sI12
Fnan
sI13
Fnan
sI14
Fnan
sI15
Fnan
sI16
Fnan
sI17
Fnan
sI18
Fnan
sI19
Fnan
sI20
Fnan
sI21
Fnan
sI22
Fnan
sI23
Fnan
ssS'ref2rmsmean'
p61
(dp62
I0
F8.576349458333333
sI1
Fnan
sI2
Fnan
sI3
Fnan
sI4
Fnan
sI5
Fnan
sI6
Fnan
sI7
Fnan
sI8
Fnan
sI9
Fnan
sI10
Fnan
sI11
Fnan
sI12
Fnan
sI13
Fnan
sI14
Fnan
sI15
Fnan
sI16
Fnan
sI17
Fnan
sI18
Fnan
sI19
Fnan
sI20
Fnan
sI21
Fnan
sI22
Fnan
sI23
Fnan
ssS'ref3rel'
p63
(dp64
I0
F1.5159598093939761
sI1
F1.5313845665964583
sI2
F1.5250762966739821
sI3
F1.5230147061204045
sI4
F1.52167248399939
sI5
F1.4837933172285525
sI6
F1.499597276061114
sI7
F1.5029288025170762
sI8
F1.5057998127168803
sI9
F1.510891756188609
sI10
F1.5125990809488044
sI11
F1.5225517433427262
sI12
F1.5043739181882934
sI13
F1.5057716060294675
sI14
F1.518787000807567
sI15
F1.5005817062047977
sI16
F1.5032205906370093
sI17
F1.5116698548816736
sI18
F1.5002208170526734
sI19
F1.498384212648799
sI20
F1.5157148599218035
sI21
F1.508922625300144
sI22
F1.5151862994027598
sI23
F1.4993618290191686
ssS'ref1flag'
p65
(dp66
I0
g7
sI1
g8
sI2
g9
sI3
g10
sI4
g11
sI5
g12
sI6
g13
sI7
g14
sI8
g15
sI9
g16
sI10
g17
sI11
g18
sI12
g19
sI13
g20
sI14
g21
sI15
g22
sI16
g23
sI17
g24
sI18
g25
sI19
g26
sI20
g27
sI21
g28
sI22
g29
sI23
g30
ssS'ref2bkg'
p67
(dp68
I0
F74.63971
sI1
F92.2199
sI2
F73.4761
sI3
F87.38557
sI4
F66.86508
sI5
F94.04951
sI6
F81.41065
sI7
F83.20675
sI8
F56.16151
sI9
F85.23143
sI10
F73.97954
sI11
F80.17652
sI12
F93.7172
sI13
F83.46781
sI14
F66.28732
sI15
F63.5836
sI16
F83.11451
sI17
F87.56411
sI18
F82.36701
sI19
F57.497
sI20
F96.24957
sI21
F72.4285
sI22
F74.53186
sI23
F67.5467
ssS'ref3magmean'
p69
(dp70
I0
F10.661041666666666
sI1
Fnan
sI2
Fnan
sI3
Fnan
sI4
Fnan
sI5
Fnan
sI6
Fnan
sI7
Fnan
sI8
Fnan
sI9
Fnan
sI10
Fnan
sI11
Fnan
sI12
Fnan
sI13
Fnan
sI14
Fnan
sI15
Fnan
sI16
Fnan
sI17
Fnan
sI18
Fnan
sI19
Fnan
sI20
Fnan
sI21
Fnan
sI22
Fnan
sI23
Fnan
ssS'ref1mean'
p71
(dp72
I0
F0.7081495357473445
sI1
Fnan
sI2
Fnan
sI3
Fnan
sI4
Fnan
sI5
Fnan
sI6
Fnan
sI7
Fnan
sI8
Fnan
sI9
Fnan
sI10
Fnan
sI11
Fnan
sI12
Fnan
sI13
Fnan
sI14
Fnan
sI15
Fnan
sI16
Fnan
sI17
Fnan
sI18
Fnan
sI19
Fnan
sI20
Fnan
sI21
Fnan
sI22
Fnan
sI23
Fnan
ssS'ref1rms'
p73
(dp74
I0
F6.014422
sI1
F9.616111
sI2
F8.624033
sI3
F8.676161
sI4
F8.709588
sI5
F12.1353
sI6
F5.598678
sI7
F10.14863
sI8
F4.154263
sI9
F10.23985
sI10
F5.37073
sI11
F7.927303
sI12
F13.19813
sI13
F7.441819
sI14
F6.828696
sI15
F3.45647
sI16
F8.026855
sI17
F8.710726
sI18
F8.143873
sI19
F3.619582
sI20
F8.082109
sI21
F10.53523
sI22
F5.870829
sI23
F8.081724
ssS'ref2magmean'
p75
(dp76
I0
F11.022583333333335
sI1
Fnan
sI2
Fnan
sI3
Fnan
sI4
Fnan
sI5
Fnan
sI6
Fnan
sI7
Fnan
sI8
Fnan
sI9
Fnan
sI10
Fnan
sI11
Fnan
sI12
Fnan
sI13
Fnan
sI14
Fnan
sI15
Fnan
sI16
Fnan
sI17
Fnan
sI18
Fnan
sI19
Fnan
sI20
Fnan
sI21
Fnan
sI22
Fnan
sI23
Fnan
ssS'ref2flag'
p77
(dp78
I0
g7
sI1
g8
sI2
g9
sI3
g10
sI4
g11
sI5
g12
sI6
g13
sI7
g14
sI8
g15
sI9
g16
sI10
g17
sI11
g18
sI12
g19
sI13
g20
sI14
g21
sI15
g22
sI16
g23
sI17
g24
sI18
g25
sI19
g26
sI20
g27
sI21
g28
sI22
g29
sI23
g30
ssS'ref2'
p79
(dp80
I0
F11117.412
sI1
F8776.36
sI2
F10040.244
sI3
F9407.644
sI4
F10746.096000000001
sI5
F7086.048000000001
sI6
F10408.76
sI7
F8743.408000000001
sI8
F12620.588
sI9
F8558.16
sI10
F10793.888
sI11
F10328.468
sI12
F7459.94
sI13
F9461.028
sI14
F10606.428
sI15
F11565.143999999998
sI16
F9601.18
sI17
F8702.552
sI18
F9438.06
sI19
F12392.851999999999
sI20
F8025.388000000001
sI21
F10160.18
sI22
F10410.116
sI23
F10991.632
ssS'airmass'
p81
(dp82
I0
F1.4417229999999999
sI1
F1.455333
sI2
F1.271419
sI3
F1.459945
sI4
F1.172596
sI5
F1.213052
sI6
F1.446226
sI7
F1.277691
sI8
F1.218305
sI9
F1.1703219999999999
sI10
F1.284036
sI11
F1.450796
sI12
F1.1658
sI13
F1.3610010000000001
sI14
F1.215678
sI15
F1.223723
sI16
F1.357207
sI17
F1.368631
sI18
F1.28084
sI19
F1.2209969999999999
sI20
F1.372544
sI21
F1.168052
sI22
F1.163556
sI23
F1.274567
ssS'ref1'
p83
(dp84
I0
F9433.46
sI1
F7242.66
sI2
F8364.228000000001
sI3
F7889.644
sI4
F9062.524
sI5
F6011.512
sI6
F8790.496
sI7
F7455.704000000001
sI8
F10719.476
sI9
F7388.396
sI10
F9167.568000000001
sI11
F8790.32
sI12
F6338.672
sI13
F8075.512
sI14
F9097.196
sI15
F9823.66
sI16
F8106.7519999999995
sI17
F7492.508000000001
sI18
F8142.104
sI19
F10569.328000000001
sI20
F6643.276
sI21
F8567.492
sI22
F8971.696
sI23
F9256.86
ssS'ref3'
p85
(dp86
I0
F15577.148000000001
sI1
F12265.64
sI2
F14034.112
sI3
F13172.011999999999
sI4
F15071.116000000002
sI5
F9717.036
sI6
F14395.576000000001
sI7
F12173.056
sI8
F17572.732
sI9
F12046.76
sI10
F15096.84
sI11
F14554.671999999999
sI12
F10379.136
sI13
F13203.011999999999
sI14
F14962.803999999998
sI15
F16047.823999999999
sI16
F13309.464
sI17
F12240.792
sI18
F13187.063999999998
sI19
F17203.084
sI20
F11116.756000000001
sI21
F14129.303999999998
sI22
F14683.528
sI23
F15179.908000000001
ssS'ref1bkg'
p87
(dp88
I0
F73.30871
sI1
F90.36782
sI2
F71.26943
sI3
F83.45245
sI4
F63.33078
sI5
F88.67017
sI6
F78.47265
sI7
F76.75364
sI8
F54.00933
sI9
F77.12396
sI10
F71.4487
sI11
F76.77711
sI12
F88.16091
sI13
F82.26266
sI14
F62.28605
sI15
F61.47871
sI16
F78.84097
sI17
F81.80244
sI18
F76.41692
sI19
F54.94559
sI20
F91.12875
sI21
F68.19659
sI22
F68.76869
sI23
F63.45941
ssS'ref1mag'
p89
(dp90
I0
F11.063
sI1
F11.35
sI2
F11.194
sI3
F11.257
sI4
F11.107
sI5
F11.553
sI6
F11.14
sI7
F11.319
sI8
F10.925
sI9
F11.329
sI10
F11.094
sI11
F11.14
sI12
F11.495
sI13
F11.232
sI14
F11.103
sI15
F11.019
sI16
F11.228
sI17
F11.313
sI18
F11.223
sI19
F10.94
sI20
F11.444
sI21
F11.168
sI22
F11.118
sI23
F11.084
ssS'ref3magerr'
p91
(dp92
I0
F0.002
sI1
F0.002
sI2
F0.002
sI3
F0.002
sI4
F0.002
sI5
F0.003
sI6
F0.002
sI7
F0.002
sI8
F0.002
sI9
F0.003
sI10
F0.002
sI11
F0.002
sI12
F0.003
sI13
F0.002
sI14
F0.002
sI15
F0.002
sI16
F0.002
sI17
F0.002
sI18
F0.002
sI19
F0.002
sI20
F0.003
sI21
F0.002
sI22
F0.002
sI23
F0.002
ssS'tabbymagmean'
p93
(dp94
I0
F11.610458333333334
sI1
Fnan
sI2
Fnan
sI3
Fnan
sI4
Fnan
sI5
Fnan
sI6
Fnan
sI7
Fnan
sI8
Fnan
sI9
Fnan
sI10
Fnan
sI11
Fnan
sI12
Fnan
sI13
Fnan
sI14
Fnan
sI15
Fnan
sI16
Fnan
sI17
Fnan
sI18
Fnan
sI19
Fnan
sI20
Fnan
sI21
Fnan
sI22
Fnan
sI23
Fnan
ssS'ref1magmean'
p95
(dp96
I0
F11.201583333333332
sI1
Fnan
sI2
Fnan
sI3
Fnan
sI4
Fnan
sI5
Fnan
sI6
Fnan
sI7
Fnan
sI8
Fnan
sI9
Fnan
sI10
Fnan
sI11
Fnan
sI12
Fnan
sI13
Fnan
sI14
Fnan
sI15
Fnan
sI16
Fnan
sI17
Fnan
sI18
Fnan
sI19
Fnan
sI20
Fnan
sI21
Fnan
sI22
Fnan
sI23
Fnan
ssS'ref2mag'
p97
(dp98
I0
F10.885
sI1
F11.142
sI2
F10.996
sI3
F11.066
sI4
F10.922
sI5
F11.374
sI6
F10.957
sI7
F11.146
sI8
F10.747
sI9
F11.169
sI10
F10.917
sI11
F10.965
sI12
F11.318
sI13
F11.06
sI14
F10.936
sI15
F10.842
sI16
F11.044
sI17
F11.151
sI18
F11.063
sI19
F10.767
sI20
F11.239
sI21
F10.983
sI22
F10.956
sI23
F10.897
ssS'ref3rms'
p99
(dp100
I0
F9.386994
sI1
F12.37761
sI2
F9.496654
sI3
F9.149745
sI4
F8.995437
sI5
F18.85019
sI6
F9.744428
sI7
F12.7388
sI8
F-1.932879
sI9
F15.42836
sI10
F6.454754
sI11
F12.57641
sI12
F15.71063
sI13
F10.9595
sI14
F9.597575
sI15
F6.897324
sI16
F11.02165
sI17
F13.18685
sI18
F10.09615
sI19
F7.075184
sI20
F12.38027
sI21
F11.63375
sI22
F11.11321
sI23
F9.942595
ssS'ref3magmeanerr'
p101
(dp102
I0
F0.16071159130476614
sI1
Fnan
sI2
Fnan
sI3
Fnan
sI4
Fnan
sI5
Fnan
sI6
Fnan
sI7
Fnan
sI8
Fnan
sI9
Fnan
sI10
Fnan
sI11
Fnan
sI12
Fnan
sI13
Fnan
sI14
Fnan
sI15
Fnan
sI16
Fnan
sI17
Fnan
sI18
Fnan
sI19
Fnan
sI20
Fnan
sI21
Fnan
sI22
Fnan
sI23
Fnan
ssS'ref1rel'
p103
(dp104
I0
F0.7067702183516041
sI1
F0.6884003421727972
sI2
F0.6948661887362637
sI3
F0.6988276526444868
sI4
F0.7020528785215071
sI5
F0.7155248405590305
sI6
F0.7087870443296687
sI7
F0.712902907489526
sI8
F0.7100561316211665
sI9
F0.7171487198203148
sI10
F0.7081738296427972
sI11
F0.7065281953965616
sI12
F0.7106502601367918
sI13
F0.7126277574518929
sI14
F0.711573660092724
sI15
F0.7115251066093294
sI16
F0.7076843409552346
sI17
F0.7155025482081564
sI18
F0.7197400553473211
sI19
F0.7142418472590292
sI20
F0.6940994697354695
sI21
F0.7054486624746743
sI22
F0.7150572471658561
sI23
F0.7073989532140639
ssS'exposure'
p105
(dp106
I0
F25.0
sI1
F25.0
sI2
F25.0
sI3
F25.0
sI4
F25.0
sI5
F25.0
sI6
F25.0
sI7
F25.0
sI8
F25.0
sI9
F25.0
sI10
F25.0
sI11
F25.0
sI12
F25.0
sI13
F25.0
sI14
F25.0
sI15
F25.0
sI16
F25.0
sI17
F25.0
sI18
F25.0
sI19
F25.0
sI20
F25.0
sI21
F25.0
sI22
F25.0
sI23
F25.0
ssS'ref1magerr'
p107
(dp108
I0
F0.002
sI1
F0.003
sI2
F0.003
sI3
F0.003
sI4
F0.002
sI5
F0.004
sI6
F0.003
sI7
F0.003
sI8
F0.002
sI9
F0.003
sI10
F0.002
sI11
F0.002
sI12
F0.004
sI13
F0.003
sI14
F0.002
sI15
F0.002
sI16
F0.003
sI17
F0.003
sI18
F0.003
sI19
F0.002
sI20
F0.003
sI21
F0.003
sI22
F0.003
sI23
F0.002
ssS'ref2magerr'
p109
(dp110
I0
F0.002
sI1
F0.003
sI2
F0.002
sI3
F0.003
sI4
F0.002
sI5
F0.004
sI6
F0.002
sI7
F0.003
sI8
F0.002
sI9
F0.003
sI10
F0.002
sI11
F0.002
sI12
F0.003
sI13
F0.003
sI14
F0.002
sI15
F0.002
sI16
F0.002
sI17
F0.003
sI18
F0.002
sI19
F0.002
sI20
F0.003
sI21
F0.002
sI22
F0.002
sI23
F0.002
ssS'ref2rms'
p111
(dp112
I0
F7.806443
sI1
F9.977713
sI2
F9.693681
sI3
F10.01771
sI4
F8.279632
sI5
F11.23673
sI6
F7.054171
sI7
F12.73473
sI8
F3.648238
sI9
F10.93553
sI10
F5.613183
sI11
F9.179214
sI12
F12.05564
sI13
F8.434525
sI14
F6.80128
sI15
F4.567456
sI16
F8.797427
sI17
F11.03295
sI18
F7.845196
sI19
F5.374313
sI20
F10.96107
sI21
F8.526944
sI22
F7.283389
sI23
F7.975222
ssS'name'
p113
(dp114
I0
S"KIC8462852-20180401at105203_-35-1-025-r'_cal.fts.mag.1"
p115
sI1
S"KIC8462852-20180401at104903_-35-1-025-r'_cal.fts.mag.1"
p116
sI2
S"KIC8462852-20180401at113748_-35-1-025-r'_cal.fts.mag.1"
p117
sI3
S"KIC8462852-20180401at104801_-35-1-025-r'_cal.fts.mag.1"
p118
sI4
S"KIC8462852-20180401at121525_-35-1-025-r'_cal.fts.mag.1"
p119
sI5
S"KIC8462852-20180401at115834_-35-1-025-r'_cal.fts.mag.1"
p120
sI6
S"KIC8462852-20180401at105103_-35-1-025-r'_cal.fts.mag.1"
p121
sI7
S"KIC8462852-20180401at113547_-35-1-025-r'_cal.fts.mag.1"
p122
sI8
S"KIC8462852-20180401at115632_-35-1-025-r'_cal.fts.mag.1"
p123
sI9
S"KIC8462852-20180401at121628_-35-1-025-r'_cal.fts.mag.1"
p124
sI10
S"KIC8462852-20180401at113344_-35-1-025-r'_cal.fts.mag.1"
p125
sI11
S"KIC8462852-20180401at105003_-35-1-025-r'_cal.fts.mag.1"
p126
sI12
S"KIC8462852-20180401at121831_-35-1-025-r'_cal.fts.mag.1"
p127
sI13
S"KIC8462852-20180401at111137_-35-1-025-r'_cal.fts.mag.1"
p128
sI14
S"KIC8462852-20180401at115734_-35-1-025-r'_cal.fts.mag.1"
p129
sI15
S"KIC8462852-20180401at115429_-35-1-025-r'_cal.fts.mag.1"
p130
sI16
S"KIC8462852-20180401at111237_-35-1-025-r'_cal.fts.mag.1"
p131
sI17
S"KIC8462852-20180401at110937_-35-1-025-r'_cal.fts.mag.1"
p132
sI18
S"KIC8462852-20180401at113446_-35-1-025-r'_cal.fts.mag.1"
p133
sI19
S"KIC8462852-20180401at115531_-35-1-025-r'_cal.fts.mag.1"
p134
sI20
S"KIC8462852-20180401at110832_-35-1-025-r'_cal.fts.mag.1"
p135
sI21
S"KIC8462852-20180401at121729_-35-1-025-r'_cal.fts.mag.1"
p136
sI22
S"KIC8462852-20180401at121933_-35-1-025-r'_cal.fts.mag.1"
p137
sI23
S"KIC8462852-20180401at113648_-35-1-025-r'_cal.fts.mag.1"
p138
ssS'ref3err'
p139
(dp140
I0
F0.010878512276789154
sI1
Fnan
sI2
Fnan
sI3
Fnan
sI4
Fnan
sI5
Fnan
sI6
Fnan
sI7
Fnan
sI8
Fnan
sI9
Fnan
sI10
Fnan
sI11
Fnan
sI12
Fnan
sI13
Fnan
sI14
Fnan
sI15
Fnan
sI16
Fnan
sI17
Fnan
sI18
Fnan
sI19
Fnan
sI20
Fnan
sI21
Fnan
sI22
Fnan
sI23
Fnan
ssS'tabby'
p141
(dp142
I0
F6495.2919999999995
sI1
F5072.996
sI2
F5769.348000000001
sI3
F5447.144
sI4
F6272.78
sI5
F4019.1240000000003
sI6
F5990.904
sI7
F5107.255999999999
sI8
F7358.804
sI9
F5091.192
sI10
F6287.156
sI11
F6080.744000000001
sI12
F4287.444
sI13
F5548.624
sI14
F6138.936
sI15
F6742.164000000001
sI16
F5600.88
sI17
F5152.58
sI18
F5582.956
sI19
F7319.268
sI20
F4622.252
sI21
F5863.064
sI22
F5992.568
sI23
F6408.491999999999
ssS'ref1magmeanerr'
p143
(dp144
I0
F0.16087476000229847
sI1
Fnan
sI2
Fnan
sI3
Fnan
sI4
Fnan
sI5
Fnan
sI6
Fnan
sI7
Fnan
sI8
Fnan
sI9
Fnan
sI10
Fnan
sI11
Fnan
sI12
Fnan
sI13
Fnan
sI14
Fnan
sI15
Fnan
sI16
Fnan
sI17
Fnan
sI18
Fnan
sI19
Fnan
sI20
Fnan
sI21
Fnan
sI22
Fnan
sI23
Fnan
ssS'filter'
p145
(dp146
I0
S"r'"
p147
sI1
S"r'"
p148
sI2
S"r'"
p149
sI3
S"r'"
p150
sI4
S"r'"
p151
sI5
S"r'"
p152
sI6
S"r'"
p153
sI7
S"r'"
p154
sI8
S"r'"
p155
sI9
S"r'"
p156
sI10
S"r'"
p157
sI11
S"r'"
p158
sI12
S"r'"
p159
sI13
S"r'"
p160
sI14
S"r'"
p161
sI15
S"r'"
p162
sI16
S"r'"
p163
sI17
S"r'"
p164
sI18
S"r'"
p165
sI19
S"r'"
p166
sI20
S"r'"
p167
sI21
S"r'"
p168
sI22
S"r'"
p169
sI23
S"r'"
p170
ssS'tabbymagerr'
p171
(dp172
I0
F0.16339921216527295
sI1
Fnan
sI2
Fnan
sI3
Fnan
sI4
Fnan
sI5
Fnan
sI6
Fnan
sI7
Fnan
sI8
Fnan
sI9
Fnan
sI10
Fnan
sI11
Fnan
sI12
Fnan
sI13
Fnan
sI14
Fnan
sI15
Fnan
sI16
Fnan
sI17
Fnan
sI18
Fnan
sI19
Fnan
sI20
Fnan
sI21
Fnan
sI22
Fnan
sI23
Fnan
ssS'tabbyrms'
p173
(dp174
I0
F5.268876
sI1
F4.928944
sI2
F5.147761
sI3
F7.823539
sI4
F3.190555
sI5
F10.51028
sI6
F6.437358
sI7
F6.414988
sI8
F-3.641706
sI9
F5.030644
sI10
F5.316422
sI11
F5.857694
sI12
F6.874149
sI13
F4.817096
sI14
F6.269948
sI15
F-2.124925
sI16
F7.219333
sI17
F8.184372
sI18
F6.321838
sI19
F4.951841
sI20
F9.064807
sI21
F8.270854
sI22
F4.999321
sI23
F4.819422
ssS'ref3mean'
p175
(dp176
I0
F1.5098943738284223
sI1
Fnan
sI2
Fnan
sI3
Fnan
sI4
Fnan
sI5
Fnan
sI6
Fnan
sI7
Fnan
sI8
Fnan
sI9
Fnan
sI10
Fnan
sI11
Fnan
sI12
Fnan
sI13
Fnan
sI14
Fnan
sI15
Fnan
sI16
Fnan
sI17
Fnan
sI18
Fnan
sI19
Fnan
sI20
Fnan
sI21
Fnan
sI22
Fnan
sI23
Fnan
ssS'median_JD'
p177
(dp178
I0
F2458209.9835358793
sI1
Fnan
sI2
Fnan
sI3
Fnan
sI4
Fnan
sI5
Fnan
sI6
Fnan
sI7
Fnan
sI8
Fnan
sI9
Fnan
sI10
Fnan
sI11
Fnan
sI12
Fnan
sI13
Fnan
sI14
Fnan
sI15
Fnan
sI16
Fnan
sI17
Fnan
sI18
Fnan
sI19
Fnan
sI20
Fnan
sI21
Fnan
sI22
Fnan
sI23
Fnan
ssS'error'
p179
(dp180
I0
F0.005092396174492775
sI1
Fnan
sI2
Fnan
sI3
Fnan
sI4
Fnan
sI5
Fnan
sI6
Fnan
sI7
Fnan
sI8
Fnan
sI9
Fnan
sI10
Fnan
sI11
Fnan
sI12
Fnan
sI13
Fnan
sI14
Fnan
sI15
Fnan
sI16
Fnan
sI17
Fnan
sI18
Fnan
sI19
Fnan
sI20
Fnan
sI21
Fnan
sI22
Fnan
sI23
Fnan
ssS'ref3bkg'
p181
(dp182
I0
F82.69582
sI1
F106.1659
sI2
F82.36005
sI3
F98.59348
sI4
F76.05373
sI5
F111.2319
sI6
F89.42194
sI7
F97.10858
sI8
F61.56412
sI9
F99.72807
sI10
F78.91736
sI11
F88.55379
sI12
F117.9986
sI13
F94.35503
sI14
F73.93922
sI15
F68.11265
sI16
F89.99914
sI17
F100.8005
sI18
F91.1034
sI19
F61.62531
sI20
F112.7961
sI21
F81.96267
sI22
F80.36121
sI23
F74.99878
ssS'ref3mag'
p183
(dp184
I0
F10.519
sI1
F10.778
sI2
F10.632
sI3
F10.701
sI4
F10.555
sI5
F11.031
sI6
F10.604
sI7
F10.787
sI8
F10.388
sI9
F10.798
sI10
F10.553
sI11
F10.592
sI12
F10.96
sI13
F10.698
sI14
F10.562
sI15
F10.486
sI16
F10.69
sI17
F10.78
sI18
F10.7
sI19
F10.411
sI20
F10.885
sI21
F10.625
sI22
F10.583
sI23
F10.547
ssS'mean'
p185
(dp186
I0
F0.5383422946652975
sI1
Fnan
sI2
Fnan
sI3
Fnan
sI4
Fnan
sI5
Fnan
sI6
Fnan
sI7
Fnan
sI8
Fnan
sI9
Fnan
sI10
Fnan
sI11
Fnan
sI12
Fnan
sI13
Fnan
sI14
Fnan
sI15
Fnan
sI16
Fnan
sI17
Fnan
sI18
Fnan
sI19
Fnan
sI20
Fnan
sI21
Fnan
sI22
Fnan
sI23
Fnan
sssS'z'
p187
(dp188
g3
(dp189
I0
F0.36114511729733556
sI1
Fnan
sI2
Fnan
sI3
Fnan
sI4
Fnan
sI5
Fnan
sI6
Fnan
sI7
Fnan
sI8
Fnan
sI9
Fnan
sI10
Fnan
sI11
Fnan
sI12
Fnan
sI13
Fnan
sI14
Fnan
sI15
Fnan
sI16
Fnan
sI17
Fnan
sI18
Fnan
sI19
Fnan
sI20
Fnan
sI21
Fnan
sI22
Fnan
sI23
Fnan
sI24
Fnan
sI25
Fnan
sI26
Fnan
sI27
Fnan
sI28
Fnan
sI29
Fnan
ssg5
(dp190
I0
S'NoError'
p191
sI1
S'NoError'
p192
sI2
S'NoError'
p193
sI3
S'NoError'
p194
sI4
S'NoError'
p195
sI5
S'NoError'
p196
sI6
S'NoError'
p197
sI7
S'NoError'
p198
sI8
S'NoError'
p199
sI9
S'NoError'
p200
sI10
S'NoError'
p201
sI11
S'NoError'
p202
sI12
S'NoError'
p203
sI13
S'NoError'
p204
sI14
S'NoError'
p205
sI15
S'NoError'
p206
sI16
S'NoError'
p207
sI17
S'NoError'
p208
sI18
S'NoError'
p209
sI19
S'NoError'
p210
sI20
S'NoError'
p211
sI21
S'NoError'
p212
sI22
S'NoError'
p213
sI23
S'NoError'
p214
sI24
S'NoError'
p215
sI25
S'NoError'
p216
sI26
S'NoError'
p217
sI27
S'NoError'
p218
sI28
S'NoError'
p219
sI29
S'NoError'
p220
ssg31
(dp221
I0
F0.012
sI1
F0.012
sI2
F0.011
sI3
F0.011
sI4
F0.017
sI5
F0.011
sI6
F0.011
sI7
F0.011
sI8
F0.011
sI9
F0.01
sI10
F0.01
sI11
F0.011
sI12
F0.013
sI13
F0.011
sI14
F0.01
sI15
F0.011
sI16
F0.011
sI17
F0.011
sI18
F0.011
sI19
F0.01
sI20
F0.013
sI21
F0.012
sI22
F0.011
sI23
F0.013
sI24
F0.012
sI25
F0.012
sI26
F0.014
sI27
F0.011
sI28
F0.012
sI29
F0.011
ssg33
(dp222
I0
F0.9004788580807352
sI1
F0.9153904951176167
sI2
F0.9044452519835656
sI3
F0.9179799267992454
sI4
F0.898446347699513
sI5
F0.9106204685416697
sI6
F0.925843583802493
sI7
F0.9186017288053379
sI8
F0.9073277536913176
sI9
F0.919937757957372
sI10
F0.91168264996827
sI11
F0.9122220730749343
sI12
F0.8981711293858697
sI13
F0.9125345300454165
sI14
F0.9242787634400541
sI15
F0.9108603738633694
sI16
F0.9178436803929408
sI17
F0.9060851873367092
sI18
F0.9082058124912314
sI19
F0.9116989374197201
sI20
F0.9274021684361972
sI21
F0.9199266678037717
sI22
F0.9161523975628741
sI23
F0.907926250127964
sI24
F0.9204460285269604
sI25
F0.9241365513188107
sI26
F0.9053634575369257
sI27
F0.9037795608706285
sI28
F0.9103812331604904
sI29
F0.9121128085770174
ssg35
(dp223
I0
F0.00792891735050425
sI1
Fnan
sI2
Fnan
sI3
Fnan
sI4
Fnan
sI5
Fnan
sI6
Fnan
sI7
Fnan
sI8
Fnan
sI9
Fnan
sI10
Fnan
sI11
Fnan
sI12
Fnan
sI13
Fnan
sI14
Fnan
sI15
Fnan
sI16
Fnan
sI17
Fnan
sI18
Fnan
sI19
Fnan
sI20
Fnan
sI21
Fnan
sI22
Fnan
sI23
Fnan
sI24
Fnan
sI25
Fnan
sI26
Fnan
sI27
Fnan
sI28
Fnan
sI29
Fnan
ssg37
(dp224
I0
F0.9126760811273006
sI1
Fnan
sI2
Fnan
sI3
Fnan
sI4
Fnan
sI5
Fnan
sI6
Fnan
sI7
Fnan
sI8
Fnan
sI9
Fnan
sI10
Fnan
sI11
Fnan
sI12
Fnan
sI13
Fnan
sI14
Fnan
sI15
Fnan
sI16
Fnan
sI17
Fnan
sI18
Fnan
sI19
Fnan
sI20
Fnan
sI21
Fnan
sI22
Fnan
sI23
Fnan
sI24
Fnan
sI25
Fnan
sI26
Fnan
sI27
Fnan
sI28
Fnan
sI29
Fnan
ssg39
(dp225
I0
F13.725
sI1
F13.728
sI2
F13.679
sI3
F13.7
sI4
F14.146
sI5
F13.654
sI6
F13.611
sI7
F13.629
sI8
F13.592
sI9
F13.624
sI10
F13.52
sI11
F13.625
sI12
F13.931
sI13
F13.715
sI14
F13.552
sI15
F13.685
sI16
F13.624
sI17
F13.634
sI18
F13.687
sI19
F13.555
sI20
F13.857
sI21
F13.684
sI22
F13.669
sI23
F13.887
sI24
F13.748
sI25
F13.694
sI26
F13.887
sI27
F13.616
sI28
F13.732
sI29
F13.713
ssg41
(dp226
I0
F13.71858
sI1
F11.20376
sI2
F9.838503
sI3
F8.804714
sI4
F13.2223
sI5
F8.378957
sI6
F9.799384
sI7
F8.986091
sI8
F10.51943
sI9
F11.75821
sI10
F10.61894
sI11
F10.06725
sI12
F10.27658
sI13
F9.340914
sI14
F9.868392
sI15
F12.97632
sI16
F9.806693
sI17
F11.4479
sI18
F11.9125
sI19
F7.501027
sI20
F13.44649
sI21
F11.69251
sI22
F8.099819
sI23
F12.23694
sI24
F10.87097
sI25
F12.26695
sI26
F11.79731
sI27
F11.83883
sI28
F10.99903
sI29
F13.8239
ssg43
(dp227
I0
F2458209.940798611
sI1
F2458209.956354167
sI2
F2458209.9860185185
sI3
F2458209.9997453704
sI4
F2458210.015034722
sI5
F2458210.001875
sI6
F2458210.0164814815
sI7
F2458209.985324074
sI8
F2458209.9692476853
sI9
F2458209.954259259
sI10
F2458210.017199074
sI11
F2458209.9874421298
sI12
F2458210.0143287037
sI13
F2458210.000451389
sI14
F2458209.9699421297
sI15
F2458209.9401041665
sI16
F2458210.015763889
sI17
F2458209.970648148
sI18
F2458209.9678125
sI19
F2458210.0025810185
sI20
F2458209.9421759257
sI21
F2458209.9535416667
sI22
F2458210.0011689817
sI23
F2458209.968541667
sI24
F2458209.9549652776
sI25
F2458209.9556712965
sI26
F2458209.9867361113
sI27
F2458209.941493056
sI28
F2458209.988148148
sI29
F2458209.939386574
ssg45
(dp228
I0
F2.263353866666667
sI1
Fnan
sI2
Fnan
sI3
Fnan
sI4
Fnan
sI5
Fnan
sI6
Fnan
sI7
Fnan
sI8
Fnan
sI9
Fnan
sI10
Fnan
sI11
Fnan
sI12
Fnan
sI13
Fnan
sI14
Fnan
sI15
Fnan
sI16
Fnan
sI17
Fnan
sI18
Fnan
sI19
Fnan
sI20
Fnan
sI21
Fnan
sI22
Fnan
sI23
Fnan
sI24
Fnan
sI25
Fnan
sI26
Fnan
sI27
Fnan
sI28
Fnan
sI29
Fnan
ssg47
(dp229
I0
F1.6685973499999998
sI1
Fnan
sI2
Fnan
sI3
Fnan
sI4
Fnan
sI5
Fnan
sI6
Fnan
sI7
Fnan
sI8
Fnan
sI9
Fnan
sI10
Fnan
sI11
Fnan
sI12
Fnan
sI13
Fnan
sI14
Fnan
sI15
Fnan
sI16
Fnan
sI17
Fnan
sI18
Fnan
sI19
Fnan
sI20
Fnan
sI21
Fnan
sI22
Fnan
sI23
Fnan
sI24
Fnan
sI25
Fnan
sI26
Fnan
sI27
Fnan
sI28
Fnan
sI29
Fnan
ssg49
(dp230
I0
F0.3588727069782158
sI1
F0.36226955694619706
sI2
F0.358242742524938
sI3
F0.3649881062095483
sI4
F0.34122370157809284
sI5
F0.3534801707963221
sI6
F0.36042938006656755
sI7
F0.3582329058493615
sI8
F0.36905335263676114
sI9
F0.3514015644601525
sI10
F0.36172417230658505
sI11
F0.3647235147458057
sI12
F0.3681843071831184
sI13
F0.3570734756909944
sI14
F0.3577207819431658
sI15
F0.36486871744576926
sI16
F0.3639057563970252
sI17
F0.3577739241124919
sI18
F0.3689511519978981
sI19
F0.35900084664370985
sI20
F0.350501873281581
sI21
F0.36939073120234844
sI22
F0.3603706723664396
sI23
F0.36169979116502604
sI24
F0.36721387237149505
sI25
F0.35602214691439105
sI26
F0.3574498452759389
sI27
F0.3654814733152227
sI28
F0.35934428143889524
sI29
F0.3541933353410122
ssg51
(dp231
I0
F0.004855857381021446
sI1
Fnan
sI2
Fnan
sI3
Fnan
sI4
Fnan
sI5
Fnan
sI6
Fnan
sI7
Fnan
sI8
Fnan
sI9
Fnan
sI10
Fnan
sI11
Fnan
sI12
Fnan
sI13
Fnan
sI14
Fnan
sI15
Fnan
sI16
Fnan
sI17
Fnan
sI18
Fnan
sI19
Fnan
sI20
Fnan
sI21
Fnan
sI22
Fnan
sI23
Fnan
sI24
Fnan
sI25
Fnan
sI26
Fnan
sI27
Fnan
sI28
Fnan
sI29
Fnan
ssg53
(dp232
I0
F0.51089594
sI1
Fnan
sI2
Fnan
sI3
Fnan
sI4
Fnan
sI5
Fnan
sI6
Fnan
sI7
Fnan
sI8
Fnan
sI9
Fnan
sI10
Fnan
sI11
Fnan
sI12
Fnan
sI13
Fnan
sI14
Fnan
sI15
Fnan
sI16
Fnan
sI17
Fnan
sI18
Fnan
sI19
Fnan
sI20
Fnan
sI21
Fnan
sI22
Fnan
sI23
Fnan
sI24
Fnan
sI25
Fnan
sI26
Fnan
sI27
Fnan
sI28
Fnan
sI29
Fnan
ssg55
(dp233
I0
g191
sI1
g192
sI2
g193
sI3
g194
sI4
g195
sI5
g196
sI6
g197
sI7
g198
sI8
g199
sI9
g200
sI10
g201
sI11
g202
sI12
g203
sI13
g204
sI14
g205
sI15
g206
sI16
g207
sI17
g208
sI18
g209
sI19
g210
sI20
g211
sI21
g212
sI22
g213
sI23
g214
sI24
g215
sI25
g216
sI26
g217
sI27
g218
sI28
g219
sI29
g220
ssg57
(dp234
I0
F0.008139986760915117
sI1
Fnan
sI2
Fnan
sI3
Fnan
sI4
Fnan
sI5
Fnan
sI6
Fnan
sI7
Fnan
sI8
Fnan
sI9
Fnan
sI10
Fnan
sI11
Fnan
sI12
Fnan
sI13
Fnan
sI14
Fnan
sI15
Fnan
sI16
Fnan
sI17
Fnan
sI18
Fnan
sI19
Fnan
sI20
Fnan
sI21
Fnan
sI22
Fnan
sI23
Fnan
sI24
Fnan
sI25
Fnan
sI26
Fnan
sI27
Fnan
sI28
Fnan
sI29
Fnan
ssg59
(dp235
I0
F0.1260480477628574
sI1
Fnan
sI2
Fnan
sI3
Fnan
sI4
Fnan
sI5
Fnan
sI6
Fnan
sI7
Fnan
sI8
Fnan
sI9
Fnan
sI10
Fnan
sI11
Fnan
sI12
Fnan
sI13
Fnan
sI14
Fnan
sI15
Fnan
sI16
Fnan
sI17
Fnan
sI18
Fnan
sI19
Fnan
sI20
Fnan
sI21
Fnan
sI22
Fnan
sI23
Fnan
sI24
Fnan
sI25
Fnan
sI26
Fnan
sI27
Fnan
sI28
Fnan
sI29
Fnan
ssg61
(dp236
I0
F2.4390216
sI1
Fnan
sI2
Fnan
sI3
Fnan
sI4
Fnan
sI5
Fnan
sI6
Fnan
sI7
Fnan
sI8
Fnan
sI9
Fnan
sI10
Fnan
sI11
Fnan
sI12
Fnan
sI13
Fnan
sI14
Fnan
sI15
Fnan
sI16
Fnan
sI17
Fnan
sI18
Fnan
sI19
Fnan
sI20
Fnan
sI21
Fnan
sI22
Fnan
sI23
Fnan
sI24
Fnan
sI25
Fnan
sI26
Fnan
sI27
Fnan
sI28
Fnan
sI29
Fnan
ssg63
(dp237
I0
F1.5371425734369064
sI1
F1.4906351141541923
sI2
F1.519134965866828
sI3
F1.5308796004909186
sI4
F1.565142946669947
sI5
F1.5227352993915342
sI6
F1.5112989565045052
sI7
F1.4921163574606644
sI8
F1.5303830118944994
sI9
F1.5269484539633085
sI10
F1.5306450516137042
sI11
F1.5206619299626645
sI12
F1.5552965406009402
sI13
F1.5091558760218198
sI14
F1.5263166852877639
sI15
F1.525239082111708
sI16
F1.515258426946964
sI17
F1.528706870461922
sI18
F1.5397556287549512
sI19
F1.5151512094785082
sI20
F1.5159515848649694
sI21
F1.5209003780017811
sI22
F1.5464506227987824
sI23
F1.506858532181219
sI24
F1.5120844849273034
sI25
F1.5258954748055906
sI26
F1.5242898305149795
sI27
F1.5456614947455225
sI28
F1.5223751322254782
sI29
F1.5173976938329607
ssg65
(dp238
I0
g191
sI1
g192
sI2
g193
sI3
g194
sI4
g195
sI5
g196
sI6
g197
sI7
g198
sI8
g199
sI9
g200
sI10
g201
sI11
g202
sI12
g203
sI13
g204
sI14
g205
sI15
g206
sI16
g207
sI17
g208
sI18
g209
sI19
g210
sI20
g211
sI21
g212
sI22
g213
sI23
g214
sI24
g215
sI25
g216
sI26
g217
sI27
g218
sI28
g219
sI29
g220
ssg67
(dp239
I0
F16.08415
sI1
F15.02322
sI2
F12.66141
sI3
F10.78604
sI4
F18.51993
sI5
F10.56123
sI6
F12.07958
sI7
F11.16454
sI8
F14.18445
sI9
F13.48402
sI10
F13.31162
sI11
F12.5305
sI12
F16.03968
sI13
F10.87431
sI14
F11.919
sI15
F16.15439
sI16
F12.36964
sI17
F12.71861
sI18
F14.272
sI19
F9.654425
sI20
F17.69814
sI21
F16.13618
sI22
F10.89645
sI23
F17.96418
sI24
F15.27015
sI25
F14.56441
sI26
F15.22963
sI27
F15.5971
sI28
F13.73253
sI29
F15.58657
ssg69
(dp240
I0
F12.311499999999999
sI1
Fnan
sI2
Fnan
sI3
Fnan
sI4
Fnan
sI5
Fnan
sI6
Fnan
sI7
Fnan
sI8
Fnan
sI9
Fnan
sI10
Fnan
sI11
Fnan
sI12
Fnan
sI13
Fnan
sI14
Fnan
sI15
Fnan
sI16
Fnan
sI17
Fnan
sI18
Fnan
sI19
Fnan
sI20
Fnan
sI21
Fnan
sI22
Fnan
sI23
Fnan
sI24
Fnan
sI25
Fnan
sI26
Fnan
sI27
Fnan
sI28
Fnan
sI29
Fnan
ssg71
(dp241
I0
F0.6815309789860213
sI1
Fnan
sI2
Fnan
sI3
Fnan
sI4
Fnan
sI5
Fnan
sI6
Fnan
sI7
Fnan
sI8
Fnan
sI9
Fnan
sI10
Fnan
sI11
Fnan
sI12
Fnan
sI13
Fnan
sI14
Fnan
sI15
Fnan
sI16
Fnan
sI17
Fnan
sI18
Fnan
sI19
Fnan
sI20
Fnan
sI21
Fnan
sI22
Fnan
sI23
Fnan
sI24
Fnan
sI25
Fnan
sI26
Fnan
sI27
Fnan
sI28
Fnan
sI29
Fnan
ssg73
(dp242
I0
F4.531568
sI1
F1.808634
sI2
F3.267329
sI3
F3.980787
sI4
F4.18995
sI5
F-1.742577
sI6
F3.293266
sI7
F3.572635
sI8
F-2.357115
sI9
F2.879104
sI10
F-4.257338
sI11
F3.195564
sI12
F4.522626
sI13
F-1.651743
sI14
F-2.119209
sI15
F4.582226
sI16
F-1.719609
sI17
F2.407012
sI18
F4.141088
sI19
F-2.410563
sI20
F3.605341
sI21
F3.987134
sI22
F-0.8508595
sI23
F4.631225
sI24
F-2.066163
sI25
F4.68596
sI26
F3.428616
sI27
F3.876719
sI28
F-3.062123
sI29
F1.708436
ssg75
(dp243
I0
F12.661399999999999
sI1
Fnan
sI2
Fnan
sI3
Fnan
sI4
Fnan
sI5
Fnan
sI6
Fnan
sI7
Fnan
sI8
Fnan
sI9
Fnan
sI10
Fnan
sI11
Fnan
sI12
Fnan
sI13
Fnan
sI14
Fnan
sI15
Fnan
sI16
Fnan
sI17
Fnan
sI18
Fnan
sI19
Fnan
sI20
Fnan
sI21
Fnan
sI22
Fnan
sI23
Fnan
sI24
Fnan
sI25
Fnan
sI26
Fnan
sI27
Fnan
sI28
Fnan
sI29
Fnan
ssg77
(dp244
I0
g191
sI1
g192
sI2
g193
sI3
g194
sI4
g195
sI5
g196
sI6
g197
sI7
g198
sI8
g199
sI9
g200
sI10
g201
sI11
g202
sI12
g203
sI13
g204
sI14
g205
sI15
g206
sI16
g207
sI17
g208
sI18
g209
sI19
g210
sI20
g211
sI21
g212
sI22
g213
sI23
g214
sI24
g215
sI25
g216
sI26
g217
sI27
g218
sI28
g219
sI29
g220
ssg79
(dp245
I0
F2110.0768
sI1
F2107.7452
sI2
F2211.1324
sI3
F2151.3616
sI4
F1503.8292000000001
sI5
F2304.9067999999997
sI6
F2377.036
sI7
F2340.7056
sI8
F2330.41
sI9
F2400.3912
sI10
F2549.1420000000003
sI11
F2296.9916
sI12
F1697.2068
sI13
F2160.2304
sI14
F2527.6756
sI15
F2170.6279999999997
sI16
F2314.1556
sI17
F2310.6351999999997
sI18
F2137.5908
sI19
F2487.7848
sI20
F1952.0968
sI21
F2160.59
sI22
F2238.5592
sI23
F1812.8123999999998
sI24
F2049.2028
sI25
F2226.5148
sI26
F1831.352
sI27
F2296.9572
sI28
F2108.6292000000003
sI29
F2180.78
ssg81
(dp246
I0
F1.525213
sI1
F1.4193850000000001
sI2
F1.265133
sI3
F1.2103469999999998
sI4
F1.159078
sI5
F1.2026219999999999
sI6
F1.154755
sI7
F1.268219
sI8
F1.345631
sI9
F1.4324780000000001
sI10
F1.1526319999999999
sI11
F1.259058
sI12
F1.161271
sI13
F1.207719
sI14
F1.341935
sI15
F1.530425
sI16
F1.156903
sI17
F1.338265
sI18
F1.353151
sI19
F1.200126
sI20
F1.5149920000000001
sI21
F1.436939
sI22
F1.205157
sI23
F1.349364
sI24
F1.428024
sI25
F1.423716
sI26
F1.262084
sI27
F1.52013
sI28
F1.258149
sI29
F1.53568
ssg83
(dp247
I0
F1732.9364
sI1
F1738.4735999999998
sI2
F1824.2967999999998
sI3
F1722.1924
sI4
F1217.7732
sI5
F1877.7432000000001
sI6
F1901.66
sI7
F1918.5692000000001
sI8
F1899.8816
sI9
F1920.0495999999998
sI10
F2062.6564000000003
sI11
F1868.7179999999998
sI12
F1383.5248000000001
sI13
F1769.3772
sI14
F2008.04
sI15
F1764.84
sI16
F1871.4528
sI17
F1889.7112
sI18
F1729.8364000000001
sI19
F2032.7916
sI20
F1553.0220000000002
sI21
F1734.9472
sI22
F1779.7851999999998
sI23
F1498.4792000000002
sI24
F1653.3464000000001
sI25
F1769.6892
sI26
F1503.7392000000002
sI27
F1865.8544
sI28
F1718.9235999999999
sI29
F1778.17
ssg85
(dp248
I0
F2953.6296
sI1
F2866.6544
sI2
F3065.1808
sI3
F2964.9724
sI4
F2129.8484
sI5
F3184.5344
sI6
F3233.1944
sI7
F3177.6668
sI8
F3236.9832
sI9
F3298.5452
sI10
F3529.5132
sI11
F3167.3179999999998
sI12
F2395.7255999999998
sI13
F2965.1952
sI14
F3461.4692
sI15
F3001.2648
sI16
F3171.1391999999996
sI17
F3210.5492
sI18
F2977.4464000000003
sI19
F3424.6784000000002
sI20
F2656.7952
sI21
F2962.362
sI22
F3107.0856
sI23
F2494.824
sI24
F2799.2835999999998
sI25
F3048.8948
sI26
F2541.8228
sI27
F3217.1488
sI28
F2913.4856
sI29
F3003.6508000000003
ssg87
(dp249
I0
F14.04426
sI1
F13.29119
sI2
F11.27298
sI3
F11.45363
sI4
F16.57293
sI5
F10.49746
sI6
F11.07765
sI7
F10.23814
sI8
F12.73565
sI9
F13.09948
sI10
F12.62121
sI11
F11.73165
sI12
F14.45385
sI13
F11.1028
sI14
F11.49957
sI15
F14.55782
sI16
F12.09188
sI17
F12.60043
sI18
F12.96813
sI19
F9.3639
sI20
F15.82456
sI21
F14.51521
sI22
F10.50598
sI23
F15.12264
sI24
F14.79559
sI25
F13.56862
sI26
F12.77062
sI27
F13.8806
sI28
F12.43635
sI29
F14.67558
ssg89
(dp250
I0
F12.903
sI1
F12.9
sI2
F12.847
sI3
F12.91
sI4
F13.286
sI5
F12.816
sI6
F12.802
sI7
F12.793
sI8
F12.803
sI9
F12.792
sI10
F12.714
sI11
F12.821
sI12
F13.148
sI13
F12.88
sI14
F12.743
sI15
F12.883
sI16
F12.82
sI17
F12.809
sI18
F12.905
sI19
F12.73
sI20
F13.022
sI21
F12.902
sI22
F12.874
sI23
F13.061
sI24
F12.954
sI25
F12.88
sI26
F13.057
sI27
F12.823
sI28
F12.912
sI29
F12.875
ssg91
(dp251
I0
F0.004
sI1
F0.005
sI2
F0.004
sI3
F0.004
sI4
F0.006
sI5
F0.004
sI6
F0.004
sI7
F0.004
sI8
F0.004
sI9
F0.004
sI10
F0.004
sI11
F0.004
sI12
F0.005
sI13
F0.004
sI14
F0.004
sI15
F0.004
sI16
F0.004
sI17
F0.004
sI18
F0.004
sI19
F0.004
sI20
F0.005
sI21
F0.004
sI22
F0.004
sI23
F0.005
sI24
F0.005
sI25
F0.004
sI26
F0.005
sI27
F0.004
sI28
F0.004
sI29
F0.004
ssg93
(dp252
I0
F13.703433333333333
sI1
Fnan
sI2
Fnan
sI3
Fnan
sI4
Fnan
sI5
Fnan
sI6
Fnan
sI7
Fnan
sI8
Fnan
sI9
Fnan
sI10
Fnan
sI11
Fnan
sI12
Fnan
sI13
Fnan
sI14
Fnan
sI15
Fnan
sI16
Fnan
sI17
Fnan
sI18
Fnan
sI19
Fnan
sI20
Fnan
sI21
Fnan
sI22
Fnan
sI23
Fnan
sI24
Fnan
sI25
Fnan
sI26
Fnan
sI27
Fnan
sI28
Fnan
sI29
Fnan
ssg95
(dp253
I0
F12.888833333333332
sI1
Fnan
sI2
Fnan
sI3
Fnan
sI4
Fnan
sI5
Fnan
sI6
Fnan
sI7
Fnan
sI8
Fnan
sI9
Fnan
sI10
Fnan
sI11
Fnan
sI12
Fnan
sI13
Fnan
sI14
Fnan
sI15
Fnan
sI16
Fnan
sI17
Fnan
sI18
Fnan
sI19
Fnan
sI20
Fnan
sI21
Fnan
sI22
Fnan
sI23
Fnan
sI24
Fnan
sI25
Fnan
sI26
Fnan
sI27
Fnan
sI28
Fnan
sI29
Fnan
ssg97
(dp254
I0
F12.689
sI1
F12.69
sI2
F12.638
sI3
F12.668
sI4
F13.057
sI5
F12.593
sI6
F12.56
sI7
F12.577
sI8
F12.581
sI9
F12.549
sI10
F12.484
sI11
F12.597
sI12
F12.926
sI13
F12.664
sI14
F12.493
sI15
F12.659
sI16
F12.589
sI17
F12.591
sI18
F12.675
sI19
F12.51
sI20
F12.774
sI21
F12.664
sI22
F12.625
sI23
F12.854
sI24
F12.721
sI25
F12.631
sI26
F12.843
sI27
F12.597
sI28
F12.69
sI29
F12.653
ssg99
(dp255
I0
F3.813145
sI1
F3.55947
sI2
F1.281368
sI3
F3.16917
sI4
F4.457787
sI5
F2.999079
sI6
F-3.783484
sI7
F-3.125177
sI8
F3.994567
sI9
F2.840685
sI10
F2.517499
sI11
F2.771321
sI12
F3.55921
sI13
F1.282612
sI14
F-2.007975
sI15
F-1.177001
sI16
F4.436294
sI17
F4.060076
sI18
F3.268806
sI19
F-3.054027
sI20
F4.326942
sI21
F3.615163
sI22
F3.310369
sI23
F4.733781
sI24
F3.776943
sI25
F5.141287
sI26
F3.885471
sI27
F3.012015
sI28
F3.515012
sI29
F-2.279792
ssg101
(dp256
I0
F0.12110432948780013
sI1
Fnan
sI2
Fnan
sI3
Fnan
sI4
Fnan
sI5
Fnan
sI6
Fnan
sI7
Fnan
sI8
Fnan
sI9
Fnan
sI10
Fnan
sI11
Fnan
sI12
Fnan
sI13
Fnan
sI14
Fnan
sI15
Fnan
sI16
Fnan
sI17
Fnan
sI18
Fnan
sI19
Fnan
sI20
Fnan
sI21
Fnan
sI22
Fnan
sI23
Fnan
sI24
Fnan
sI25
Fnan
sI26
Fnan
sI27
Fnan
sI28
Fnan
sI29
Fnan
ssg103
(dp257
I0
F0.6844537432107043
sI1
F0.6989682131688817
sI2
F0.6915043633118669
sI3
F0.6732134375902744
sI4
F0.6702703619055251
sI5
F0.6841290876747165
sI6
F0.6779258121021197
sI7
F0.6953387922859284
sI8
F0.6825031147431799
sI9
F0.6738273478538906
sI10
F0.6786555026184082
sI11
F0.6839722258782701
sI12
F0.6760555341690961
sI13
F0.6904313273028486
sI14
F0.6705598435355913
sI15
F0.6824735423750469
sI16
F0.682352678656396
sI17
F0.6845310944514007
sI18
F0.6763729499367082
sI19
F0.6876293454139385
sI20
F0.6739242316808466
sI21
F0.6773232308247276
sI22
F0.6658823272358088
sI23
F0.6957315153154525
sI24
F0.6820051717583451
sI25
F0.6709201120610616
sI26
F0.687710539263146
sI27
F0.6767568124370478
sI28
F0.6845417392688832
sI29
F0.6859653715505278
ssg105
(dp258
I0
F25.0
sI1
F25.0
sI2
F25.0
sI3
F25.0
sI4
F25.0
sI5
F25.0
sI6
F25.0
sI7
F25.0
sI8
F25.0
sI9
F25.0
sI10
F25.0
sI11
F25.0
sI12
F25.0
sI13
F25.0
sI14
F25.0
sI15
F25.0
sI16
F25.0
sI17
F25.0
sI18
F25.0
sI19
F25.0
sI20
F25.0
sI21
F25.0
sI22
F25.0
sI23
F25.0
sI24
F25.0
sI25
F25.0
sI26
F25.0
sI27
F25.0
sI28
F25.0
sI29
F25.0
ssg107
(dp259
I0
F0.006
sI1
F0.006
sI2
F0.006
sI3
F0.007
sI4
F0.009
sI5
F0.006
sI6
F0.006
sI7
F0.006
sI8
F0.006
sI9
F0.006
sI10
F0.006
sI11
F0.006
sI12
F0.008
sI13
F0.006
sI14
F0.006
sI15
F0.006
sI16
F0.006
sI17
F0.006
sI18
F0.006
sI19
F0.006
sI20
F0.007
sI21
F0.006
sI22
F0.006
sI23
F0.007
sI24
F0.007
sI25
F0.006
sI26
F0.007
sI27
F0.006
sI28
F0.006
sI29
F0.006
ssg109
(dp260
I0
F0.006
sI1
F0.006
sI2
F0.005
sI3
F0.005
sI4
F0.008
sI5
F0.005
sI6
F0.005
sI7
F0.005
sI8
F0.005
sI9
F0.005
sI10
F0.005
sI11
F0.005
sI12
F0.007
sI13
F0.005
sI14
F0.005
sI15
F0.006
sI16
F0.005
sI17
F0.005
sI18
F0.006
sI19
F0.005
sI20
F0.006
sI21
F0.005
sI22
F0.005
sI23
F0.006
sI24
F0.006
sI25
F0.005
sI26
F0.006
sI27
F0.005
sI28
F0.006
sI29
F0.005
ssg111
(dp261
I0
F2.525225
sI1
F3.950862
sI2
F-3.267977
sI3
F4.646154
sI4
F4.597191
sI5
F3.592085
sI6
F5.038978
sI7
F3.862585
sI8
F1.816334
sI9
F3.805865
sI10
F4.370152
sI11
F2.971662
sI12
F2.497245
sI13
F2.998389
sI14
F3.480764
sI15
F-3.198704
sI16
F3.523881
sI17
F3.277546
sI18
F4.454445
sI19
F3.693309
sI20
F3.279485
sI21
F-3.792277
sI22
F2.853397
sI23
F-1.788392
sI24
F3.639484
sI25
F2.397965
sI26
F4.413187
sI27
F-3.146195
sI28
F3.276114
sI29
F3.401889
ssg113
(dp262
I0
S"KIC8462852-20180401at103445_-35-1-025-z'_cal.fts.mag.1"
p263
sI1
S"KIC8462852-20180401at105709_-35-1-025-z'_cal.fts.mag.1"
p264
sI2
S"KIC8462852-20180401at113952_-35-1-025-z'_cal.fts.mag.1"
p265
sI3
S"KIC8462852-20180401at115936_-35-1-025-z'_cal.fts.mag.1"
p266
sI4
S"KIC8462852-20180401at122139_-35-1-025-z'_cal.fts.mag.1"
p267
sI5
S"KIC8462852-20180401at120242_-35-1-025-z'_cal.fts.mag.1"
p268
sI6
S"KIC8462852-20180401at122344_-35-1-025-z'_cal.fts.mag.1"
p269
sI7
S"KIC8462852-20180401at113850_-35-1-025-z'_cal.fts.mag.1"
p270
sI8
S"KIC8462852-20180401at111543_-35-1-025-z'_cal.fts.mag.1"
p271
sI9
S"KIC8462852-20180401at105408_-35-1-025-z'_cal.fts.mag.1"
p272
sI10
S"KIC8462852-20180401at122446_-35-1-025-z'_cal.fts.mag.1"
p273
sI11
S"KIC8462852-20180401at114155_-35-1-025-z'_cal.fts.mag.1"
p274
sI12
S"KIC8462852-20180401at122036_-35-1-025-z'_cal.fts.mag.1"
p275
sI13
S"KIC8462852-20180401at120039_-35-1-025-z'_cal.fts.mag.1"
p276
sI14
S"KIC8462852-20180401at111643_-35-1-025-z'_cal.fts.mag.1"
p277
sI15
S"KIC8462852-20180401at103345_-35-1-025-z'_cal.fts.mag.1"
p278
sI16
S"KIC8462852-20180401at122242_-35-1-025-z'_cal.fts.mag.1"
p279
sI17
S"KIC8462852-20180401at111744_-35-1-025-z'_cal.fts.mag.1"
p280
sI18
S"KIC8462852-20180401at111338_-35-1-025-z'_cal.fts.mag.1"
p281
sI19
S"KIC8462852-20180401at120343_-35-1-025-z'_cal.fts.mag.1"
p282
sI20
S"KIC8462852-20180401at103644_-35-1-025-z'_cal.fts.mag.1"
p283
sI21
S"KIC8462852-20180401at105305_-35-1-025-z'_cal.fts.mag.1"
p284
sI22
S"KIC8462852-20180401at120141_-35-1-025-z'_cal.fts.mag.1"
p285
sI23
S"KIC8462852-20180401at111442_-35-1-025-z'_cal.fts.mag.1"
p286
sI24
S"KIC8462852-20180401at105509_-35-1-025-z'_cal.fts.mag.1"
p287
sI25
S"KIC8462852-20180401at105609_-35-1-025-z'_cal.fts.mag.1"
p288
sI26
S"KIC8462852-20180401at114054_-35-1-025-z'_cal.fts.mag.1"
p289
sI27
S"KIC8462852-20180401at103545_-35-1-025-z'_cal.fts.mag.1"
p290
sI28
S"KIC8462852-20180401at114256_-35-1-025-z'_cal.fts.mag.1"
p291
sI29
S"KIC8462852-20180401at103241_-35-1-025-z'_cal.fts.mag.1"
p292
ssg139
(dp293
I0
F0.016076791561582406
sI1
Fnan
sI2
Fnan
sI3
Fnan
sI4
Fnan
sI5
Fnan
sI6
Fnan
sI7
Fnan
sI8
Fnan
sI9
Fnan
sI10
Fnan
sI11
Fnan
sI12
Fnan
sI13
Fnan
sI14
Fnan
sI15
Fnan
sI16
Fnan
sI17
Fnan
sI18
Fnan
sI19
Fnan
sI20
Fnan
sI21
Fnan
sI22
Fnan
sI23
Fnan
sI24
Fnan
sI25
Fnan
sI26
Fnan
sI27
Fnan
sI28
Fnan
sI29
Fnan
ssg141
(dp294
I0
F813.0432000000001
sI1
F810.6232000000001
sI2
F847.914
sI3
F831.9936
sI4
F551.81
sI5
F868.0512
sI6
F902.502
sI7
F888.0524
sI8
F918.6075999999999
sI9
F892.4412
sI10
F981.6364
sI11
F891.5092
sI12
F672.1152000000001
sI13
F820.6504
sI14
F953.5864
sI15
F843.6655999999999
sI16
F892.3875999999999
sI17
F883.8084
sI18
F841.808
sI19
F950.7844
sI20
F719.9208
sI21
F844.4148
sI22
F855.932
sI23
F700.0236
sI24
F795.8544
sI25
F836.0704
sI26
F700.2339999999999
sI27
F899.0796
sI28
F807.4512
sI29
F822.0355999999999
ssg143
(dp295
I0
F0.12384475357682993
sI1
Fnan
sI2
Fnan
sI3
Fnan
sI4
Fnan
sI5
Fnan
sI6
Fnan
sI7
Fnan
sI8
Fnan
sI9
Fnan
sI10
Fnan
sI11
Fnan
sI12
Fnan
sI13
Fnan
sI14
Fnan
sI15
Fnan
sI16
Fnan
sI17
Fnan
sI18
Fnan
sI19
Fnan
sI20
Fnan
sI21
Fnan
sI22
Fnan
sI23
Fnan
sI24
Fnan
sI25
Fnan
sI26
Fnan
sI27
Fnan
sI28
Fnan
sI29
Fnan
ssg145
(dp296
I0
S"z'"
p297
sI1
S"z'"
p298
sI2
S"z'"
p299
sI3
S"z'"
p300
sI4
S"z'"
p301
sI5
S"z'"
p302
sI6
S"z'"
p303
sI7
S"z'"
p304
sI8
S"z'"
p305
sI9
S"z'"
p306
sI10
S"z'"
p307
sI11
S"z'"
p308
sI12
S"z'"
p309
sI13
S"z'"
p310
sI14
S"z'"
p311
sI15
S"z'"
p312
sI16
S"z'"
p313
sI17
S"z'"
p314
sI18
S"z'"
p315
sI19
S"z'"
p316
sI20
S"z'"
p317
sI21
S"z'"
p318
sI22
S"z'"
p319
sI23
S"z'"
p320
sI24
S"z'"
p321
sI25
S"z'"
p322
sI26
S"z'"
p323
sI27
S"z'"
p324
sI28
S"z'"
p325
sI29
S"z'"
p326
ssg171
(dp327
I0
F0.12924040238716147
sI1
Fnan
sI2
Fnan
sI3
Fnan
sI4
Fnan
sI5
Fnan
sI6
Fnan
sI7
Fnan
sI8
Fnan
sI9
Fnan
sI10
Fnan
sI11
Fnan
sI12
Fnan
sI13
Fnan
sI14
Fnan
sI15
Fnan
sI16
Fnan
sI17
Fnan
sI18
Fnan
sI19
Fnan
sI20
Fnan
sI21
Fnan
sI22
Fnan
sI23
Fnan
sI24
Fnan
sI25
Fnan
sI26
Fnan
sI27
Fnan
sI28
Fnan
sI29
Fnan
ssg173
(dp328
I0
F-3.437515
sI1
F3.753991
sI2
F-2.722413
sI3
F-2.666711
sI4
F-3.684252
sI5
F3.283799
sI6
F-1.477651
sI7
F3.850207
sI8
F-3.024951
sI9
F-4.060459
sI10
F2.601868
sI11
F2.820024
sI12
F2.005443
sI13
F-1.164165
sI14
F2.874047
sI15
F3.073043
sI16
F2.515529
sI17
F-3.40367
sI18
F-1.979251
sI19
F-2.098995
sI20
F3.603521
sI21
F-2.484748
sI22
F0.6069922
sI23
F4.04069
sI24
F4.079804
sI25
F4.165734
sI26
F-3.332751
sI27
F3.167639
sI28
F2.20345
sI29
F2.218629
ssg175
(dp329
I0
F1.5243489936657615
sI1
Fnan
sI2
Fnan
sI3
Fnan
sI4
Fnan
sI5
Fnan
sI6
Fnan
sI7
Fnan
sI8
Fnan
sI9
Fnan
sI10
Fnan
sI11
Fnan
sI12
Fnan
sI13
Fnan
sI14
Fnan
sI15
Fnan
sI16
Fnan
sI17
Fnan
sI18
Fnan
sI19
Fnan
sI20
Fnan
sI21
Fnan
sI22
Fnan
sI23
Fnan
sI24
Fnan
sI25
Fnan
sI26
Fnan
sI27
Fnan
sI28
Fnan
sI29
Fnan
ssg177
(dp330
I0
F2458209.9779861113
sI1
Fnan
sI2
Fnan
sI3
Fnan
sI4
Fnan
sI5
Fnan
sI6
Fnan
sI7
Fnan
sI8
Fnan
sI9
Fnan
sI10
Fnan
sI11
Fnan
sI12
Fnan
sI13
Fnan
sI14
Fnan
sI15
Fnan
sI16
Fnan
sI17
Fnan
sI18
Fnan
sI19
Fnan
sI20
Fnan
sI21
Fnan
sI22
Fnan
sI23
Fnan
sI24
Fnan
sI25
Fnan
sI26
Fnan
sI27
Fnan
sI28
Fnan
sI29
Fnan
ssg179
(dp331
I0
F0.006267660084973204
sI1
Fnan
sI2
Fnan
sI3
Fnan
sI4
Fnan
sI5
Fnan
sI6
Fnan
sI7
Fnan
sI8
Fnan
sI9
Fnan
sI10
Fnan
sI11
Fnan
sI12
Fnan
sI13
Fnan
sI14
Fnan
sI15
Fnan
sI16
Fnan
sI17
Fnan
sI18
Fnan
sI19
Fnan
sI20
Fnan
sI21
Fnan
sI22
Fnan
sI23
Fnan
sI24
Fnan
sI25
Fnan
sI26
Fnan
sI27
Fnan
sI28
Fnan
sI29
Fnan
ssg181
(dp332
I0
F17.64229
sI1
F17.55463
sI2
F14.82113
sI3
F14.30079
sI4
F23.21851
sI5
F13.07074
sI6
F15.39661
sI7
F14.13662
sI8
F14.24048
sI9
F15.11608
sI10
F13.7661
sI11
F13.6051
sI12
F19.51506
sI13
F13.79962
sI14
F13.55981
sI15
F17.1769
sI16
F14.79331
sI17
F15.04707
sI18
F15.94776
sI19
F11.01416
sI20
F20.31479
sI21
F16.60302
sI22
F13.20698
sI23
F19.59632
sI24
F18.14917
sI25
F16.07396
sI26
F17.8921
sI27
F15.61792
sI28
F14.56991
sI29
F18.27247
ssg183
(dp333
I0
F12.324
sI1
F12.357
sI2
F12.284
sI3
F12.32
sI4
F12.679
sI5
F12.242
sI6
F12.226
sI7
F12.245
sI8
F12.225
sI9
F12.204
sI10
F12.131
sI11
F12.248
sI12
F12.551
sI13
F12.32
sI14
F12.152
sI15
F12.307
sI16
F12.247
sI17
F12.234
sI18
F12.315
sI19
F12.163
sI20
F12.439
sI21
F12.321
sI22
F12.269
sI23
F12.507
sI24
F12.382
sI25
F12.29
sI26
F12.487
sI27
F12.231
sI28
F12.339
sI29
F12.306
ssg185
(dp334
I0
F0.3601262953061691
sI1
Fnan
sI2
Fnan
sI3
Fnan
sI4
Fnan
sI5
Fnan
sI6
Fnan
sI7
Fnan
sI8
Fnan
sI9
Fnan
sI10
Fnan
sI11
Fnan
sI12
Fnan
sI13
Fnan
sI14
Fnan
sI15
Fnan
sI16
Fnan
sI17
Fnan
sI18
Fnan
sI19
Fnan
sI20
Fnan
sI21
Fnan
sI22
Fnan
sI23
Fnan
sI24
Fnan
sI25
Fnan
sI26
Fnan
sI27
Fnan
sI28
Fnan
sI29
Fnan
sssS'g'
p335
(dp336
g3
(dp337
I0
F0.850856195284389
sI1
Fnan
sI2
Fnan
sI3
Fnan
sI4
Fnan
sI5
Fnan
sI6
Fnan
sI7
Fnan
sI8
Fnan
sI9
Fnan
sI10
Fnan
sI11
Fnan
sI12
Fnan
sI13
Fnan
sI14
Fnan
sI15
Fnan
sI16
Fnan
sI17
Fnan
sI18
Fnan
sI19
Fnan
sI20
Fnan
sI21
Fnan
sI22
Fnan
sI23
Fnan
sI24
Fnan
sI25
Fnan
sI26
Fnan
sI27
Fnan
sI28
Fnan
sI29
Fnan
ssg5
(dp338
I0
S'NoError'
p339
sI1
S'NoError'
p340
sI2
S'NoError'
p341
sI3
S'NoError'
p342
sI4
S'NoError'
p343
sI5
S'NoError'
p344
sI6
S'NoError'
p345
sI7
S'NoError'
p346
sI8
S'NoError'
p347
sI9
S'NoError'
p348
sI10
S'NoError'
p349
sI11
S'NoError'
p350
sI12
S'NoError'
p351
sI13
S'NoError'
p352
sI14
S'NoError'
p353
sI15
S'NoError'
p354
sI16
S'NoError'
p355
sI17
S'NoError'
p356
sI18
S'NoError'
p357
sI19
S'NoError'
p358
sI20
S'NoError'
p359
sI21
S'NoError'
p360
sI22
S'NoError'
p361
sI23
S'NoError'
p362
sI24
S'NoError'
p363
sI25
S'NoError'
p364
sI26
S'NoError'
p365
sI27
S'NoError'
p366
sI28
S'NoError'
p367
sI29
S'NoError'
p368
ssg31
(dp369
I0
F0.005
sI1
F0.003
sI2
F0.005
sI3
F0.003
sI4
F0.003
sI5
F0.004
sI6
F0.004
sI7
F0.005
sI8
F0.004
sI9
F0.003
sI10
F0.004
sI11
F0.004
sI12
F0.003
sI13
F0.004
sI14
F0.004
sI15
F0.004
sI16
F0.004
sI17
F0.004
sI18
F0.004
sI19
F0.004
sI20
F0.004
sI21
F0.004
sI22
F0.005
sI23
F0.004
sI24
F0.004
sI25
F0.005
sI26
F0.003
sI27
F0.004
sI28
F0.008
sI29
F0.003
ssg33
(dp370
I0
F0.8798776689520753
sI1
F0.8793497376981809
sI2
F0.8725624495207054
sI3
F0.8846638502093299
sI4
F0.880420805616288
sI5
F0.8841093510934123
sI6
F0.8839895841763137
sI7
F0.8829135768705338
sI8
F0.8785394472864577
sI9
F0.8748780691905044
sI10
F0.875004466522231
sI11
F0.885276608842478
sI12
F0.8781486227743521
sI13
F0.8809053086898738
sI14
F0.8735525227460711
sI15
F0.8653103960224156
sI16
F0.871153572627453
sI17
F0.8695557100810384
sI18
F0.8661448659369972
sI19
F0.8751384301789457
sI20
F0.8778050172023305
sI21
F0.8799856757801535
sI22
F0.8714188567290668
sI23
F0.868147206313209
sI24
F0.8820865786429263
sI25
F0.8661939322981083
sI26
F0.8856398150605523
sI27
F0.8764367518113553
sI28
F0.9030265125915149
sI29
F0.8799870032456505
ssg35
(dp371
I0
F0.007656836388359838
sI1
Fnan
sI2
Fnan
sI3
Fnan
sI4
Fnan
sI5
Fnan
sI6
Fnan
sI7
Fnan
sI8
Fnan
sI9
Fnan
sI10
Fnan
sI11
Fnan
sI12
Fnan
sI13
Fnan
sI14
Fnan
sI15
Fnan
sI16
Fnan
sI17
Fnan
sI18
Fnan
sI19
Fnan
sI20
Fnan
sI21
Fnan
sI22
Fnan
sI23
Fnan
sI24
Fnan
sI25
Fnan
sI26
Fnan
sI27
Fnan
sI28
Fnan
sI29
Fnan
ssg37
(dp372
I0
F0.8777407464903509
sI1
Fnan
sI2
Fnan
sI3
Fnan
sI4
Fnan
sI5
Fnan
sI6
Fnan
sI7
Fnan
sI8
Fnan
sI9
Fnan
sI10
Fnan
sI11
Fnan
sI12
Fnan
sI13
Fnan
sI14
Fnan
sI15
Fnan
sI16
Fnan
sI17
Fnan
sI18
Fnan
sI19
Fnan
sI20
Fnan
sI21
Fnan
sI22
Fnan
sI23
Fnan
sI24
Fnan
sI25
Fnan
sI26
Fnan
sI27
Fnan
sI28
Fnan
sI29
Fnan
ssg39
(dp373
I0
F12.059
sI1
F11.669
sI2
F12.026
sI3
F11.618
sI4
F11.678
sI5
F11.868
sI6
F11.771
sI7
F12.18
sI8
F11.878
sI9
F11.71
sI10
F11.879
sI11
F11.917
sI12
F11.665
sI13
F11.815
sI14
F11.847
sI15
F11.969
sI16
F11.929
sI17
F11.866
sI18
F11.928
sI19
F11.792
sI20
F11.827
sI21
F11.766
sI22
F12.014
sI23
F11.966
sI24
F11.804
sI25
F12.144
sI26
F11.582
sI27
F11.881
sI28
F12.743
sI29
F11.626
ssg41
(dp374
I0
F88.47737
sI1
F80.39669
sI2
F112.3462
sI3
F72.93851
sI4
F80.42902
sI5
F92.57894
sI6
F80.84364
sI7
F98.30518
sI8
F108.4473
sI9
F83.49599
sI10
F100.0732
sI11
F100.5322
sI12
F76.64874
sI13
F104.2613
sI14
F84.60105
sI15
F94.82854
sI16
F95.64539
sI17
F98.0413
sI18
F93.21255
sI19
F79.02766
sI20
F97.08767
sI21
F96.35449
sI22
F97.5695
sI23
F111.8373
sI24
F84.69052
sI25
F98.41518
sI26
F73.11987
sI27
F110.2977
sI28
F110.0689
sI29
F73.86941
ssg43
(dp375
I0
F2458210.007824074
sI1
F2458209.9789351854
sI2
F2458209.934525463
sI3
F2458209.9940277776
sI4
F2458210.0099768518
sI5
F2458209.960752315
sI6
F2458209.995439815
sI7
F2458209.980335648
sI8
F2458209.933148148
sI9
F2458209.9782175925
sI10
F2458209.947222222
sI11
F2458209.949305556
sI12
F2458209.9947337965
sI13
F2458209.935208333
sI14
F2458210.0092592593
sI15
F2458209.9635532405
sI16
F2458209.9614467593
sI17
F2458209.948611111
sI18
F2458209.962858796
sI19
F2458210.0070949076
sI20
F2458209.9479050925
sI21
F2458209.9465393517
sI22
F2458209.9621527777
sI23
F2458209.9338310184
sI24
F2458209.9796296298
sI25
F2458209.9810416666
sI26
F2458209.9926041667
sI27
F2458209.9324537036
sI28
F2458210.0085416664
sI29
F2458209.993321759
ssg45
(dp376
I0
F6.259714899999998
sI1
Fnan
sI2
Fnan
sI3
Fnan
sI4
Fnan
sI5
Fnan
sI6
Fnan
sI7
Fnan
sI8
Fnan
sI9
Fnan
sI10
Fnan
sI11
Fnan
sI12
Fnan
sI13
Fnan
sI14
Fnan
sI15
Fnan
sI16
Fnan
sI17
Fnan
sI18
Fnan
sI19
Fnan
sI20
Fnan
sI21
Fnan
sI22
Fnan
sI23
Fnan
sI24
Fnan
sI25
Fnan
sI26
Fnan
sI27
Fnan
sI28
Fnan
sI29
Fnan
ssg47
(dp377
I0
F3.313413666666667
sI1
Fnan
sI2
Fnan
sI3
Fnan
sI4
Fnan
sI5
Fnan
sI6
Fnan
sI7
Fnan
sI8
Fnan
sI9
Fnan
sI10
Fnan
sI11
Fnan
sI12
Fnan
sI13
Fnan
sI14
Fnan
sI15
Fnan
sI16
Fnan
sI17
Fnan
sI18
Fnan
sI19
Fnan
sI20
Fnan
sI21
Fnan
sI22
Fnan
sI23
Fnan
sI24
Fnan
sI25
Fnan
sI26
Fnan
sI27
Fnan
sI28
Fnan
sI29
Fnan
ssg49
(dp378
I0
F0.8431583561935238
sI1
F0.8613327825609934
sI2
F0.8644135736409573
sI3
F0.8494894789878847
sI4
F0.8532666857666766
sI5
F0.8534975442039491
sI6
F0.8511794868004917
sI7
F0.8239032155845777
sI8
F0.8630313066426025
sI9
F0.8470723091567155
sI10
F0.8463646829917129
sI11
F0.8535357780104009
sI12
F0.8520612795744389
sI13
F0.8451463950492233
sI14
F0.8304345862762507
sI15
F0.8522004109899151
sI16
F0.8452231723105397
sI17
F0.8582635823843546
sI18
F0.8415972652338876
sI19
F0.8504183214639559
sI20
F0.8412646003319092
sI21
F0.8510867354267818
sI22
F0.8189986568657707
sI23
F0.8530520608622493
sI24
F0.8536120725050765
sI25
F0.8422380419266902
sI26
F0.8495124351214005
sI27
F0.8581239410216663
sI28
F0.8440886720757653
sI29
F0.8624436798013065
ssg51
(dp379
I0
F0.006187758073437148
sI1
Fnan
sI2
Fnan
sI3
Fnan
sI4
Fnan
sI5
Fnan
sI6
Fnan
sI7
Fnan
sI8
Fnan
sI9
Fnan
sI10
Fnan
sI11
Fnan
sI12
Fnan
sI13
Fnan
sI14
Fnan
sI15
Fnan
sI16
Fnan
sI17
Fnan
sI18
Fnan
sI19
Fnan
sI20
Fnan
sI21
Fnan
sI22
Fnan
sI23
Fnan
sI24
Fnan
sI25
Fnan
sI26
Fnan
sI27
Fnan
sI28
Fnan
sI29
Fnan
ssg53
(dp380
I0
F2.799117433333334
sI1
Fnan
sI2
Fnan
sI3
Fnan
sI4
Fnan
sI5
Fnan
sI6
Fnan
sI7
Fnan
sI8
Fnan
sI9
Fnan
sI10
Fnan
sI11
Fnan
sI12
Fnan
sI13
Fnan
sI14
Fnan
sI15
Fnan
sI16
Fnan
sI17
Fnan
sI18
Fnan
sI19
Fnan
sI20
Fnan
sI21
Fnan
sI22
Fnan
sI23
Fnan
sI24
Fnan
sI25
Fnan
sI26
Fnan
sI27
Fnan
sI28
Fnan
sI29
Fnan
ssg55
(dp381
I0
g339
sI1
g340
sI2
g341
sI3
g342
sI4
g343
sI5
g344
sI6
g345
sI7
g346
sI8
g347
sI9
g348
sI10
g349
sI11
g350
sI12
g351
sI13
g352
sI14
g353
sI15
g354
sI16
g355
sI17
g356
sI18
g357
sI19
g358
sI20
g359
sI21
g360
sI22
g361
sI23
g362
sI24
g363
sI25
g364
sI26
g365
sI27
g366
sI28
g367
sI29
g368
ssg57
(dp382
I0
F0.010257651475645897
sI1
Fnan
sI2
Fnan
sI3
Fnan
sI4
Fnan
sI5
Fnan
sI6
Fnan
sI7
Fnan
sI8
Fnan
sI9
Fnan
sI10
Fnan
sI11
Fnan
sI12
Fnan
sI13
Fnan
sI14
Fnan
sI15
Fnan
sI16
Fnan
sI17
Fnan
sI18
Fnan
sI19
Fnan
sI20
Fnan
sI21
Fnan
sI22
Fnan
sI23
Fnan
sI24
Fnan
sI25
Fnan
sI26
Fnan
sI27
Fnan
sI28
Fnan
sI29
Fnan
ssg59
(dp383
I0
F0.21613747221745633
sI1
Fnan
sI2
Fnan
sI3
Fnan
sI4
Fnan
sI5
Fnan
sI6
Fnan
sI7
Fnan
sI8
Fnan
sI9
Fnan
sI10
Fnan
sI11
Fnan
sI12
Fnan
sI13
Fnan
sI14
Fnan
sI15
Fnan
sI16
Fnan
sI17
Fnan
sI18
Fnan
sI19
Fnan
sI20
Fnan
sI21
Fnan
sI22
Fnan
sI23
Fnan
sI24
Fnan
sI25
Fnan
sI26
Fnan
sI27
Fnan
sI28
Fnan
sI29
Fnan
ssg61
(dp384
I0
F4.655612666666666
sI1
Fnan
sI2
Fnan
sI3
Fnan
sI4
Fnan
sI5
Fnan
sI6
Fnan
sI7
Fnan
sI8
Fnan
sI9
Fnan
sI10
Fnan
sI11
Fnan
sI12
Fnan
sI13
Fnan
sI14
Fnan
sI15
Fnan
sI16
Fnan
sI17
Fnan
sI18
Fnan
sI19
Fnan
sI20
Fnan
sI21
Fnan
sI22
Fnan
sI23
Fnan
sI24
Fnan
sI25
Fnan
sI26
Fnan
sI27
Fnan
sI28
Fnan
sI29
Fnan
ssg63
(dp385
I0
F1.5002130640615392
sI1
F1.5154570797029276
sI2
F1.5327382823008247
sI3
F1.507644190166357
sI4
F1.5095904327853529
sI5
F1.5272461169461349
sI6
F1.5209270669092052
sI7
F1.5250506183439168
sI8
F1.5188577887525732
sI9
F1.502408688930682
sI10
F1.528391357052946
sI11
F1.5041698910283627
sI12
F1.5168521028008117
sI13
F1.5366381767344137
sI14
F1.5509881036547382
sI15
F1.5209376312852019
sI16
F1.5352942927953601
sI17
F1.5125074387966588
sI18
F1.5636009322129671
sI19
F1.5017175917555596
sI20
F1.5279728164756032
sI21
F1.5164851595779287
sI22
F1.563142624809221
sI23
F1.5287928533125092
sI24
F1.549368038302146
sI25
F1.5613528986014267
sI26
F1.5152848801079775
sI27
F1.5372901719066954
sI28
F1.527294141127905
sI29
F1.51745473637662
ssg65
(dp386
I0
g339
sI1
g340
sI2
g341
sI3
g342
sI4
g343
sI5
g344
sI6
g345
sI7
g346
sI8
g347
sI9
g348
sI10
g349
sI11
g350
sI12
g351
sI13
g352
sI14
g353
sI15
g354
sI16
g355
sI17
g356
sI18
g357
sI19
g358
sI20
g359
sI21
g360
sI22
g361
sI23
g362
sI24
g363
sI25
g364
sI26
g365
sI27
g366
sI28
g367
sI29
g368
ssg67
(dp387
I0
F88.52893
sI1
F82.34947
sI2
F116.2811
sI3
F73.89017
sI4
F80.13824
sI5
F93.79939
sI6
F80.46833
sI7
F98.18871
sI8
F110.5453
sI9
F83.076
sI10
F99.55161
sI11
F100.9031
sI12
F77.44519
sI13
F105.3892
sI14
F84.31635
sI15
F96.97684
sI16
F94.61703
sI17
F99.61378
sI18
F93.54205
sI19
F78.90749
sI20
F97.17175
sI21
F97.74875
sI22
F95.7328
sI23
F111.854
sI24
F86.31373
sI25
F97.45559
sI26
F73.01771
sI27
F111.0039
sI28
F111.1483
sI29
F74.6991
ssg69
(dp388
I0
F11.419099999999998
sI1
Fnan
sI2
Fnan
sI3
Fnan
sI4
Fnan
sI5
Fnan
sI6
Fnan
sI7
Fnan
sI8
Fnan
sI9
Fnan
sI10
Fnan
sI11
Fnan
sI12
Fnan
sI13
Fnan
sI14
Fnan
sI15
Fnan
sI16
Fnan
sI17
Fnan
sI18
Fnan
sI19
Fnan
sI20
Fnan
sI21
Fnan
sI22
Fnan
sI23
Fnan
sI24
Fnan
sI25
Fnan
sI26
Fnan
sI27
Fnan
sI28
Fnan
sI29
Fnan
ssg71
(dp389
I0
F0.7109705678072167
sI1
Fnan
sI2
Fnan
sI3
Fnan
sI4
Fnan
sI5
Fnan
sI6
Fnan
sI7
Fnan
sI8
Fnan
sI9
Fnan
sI10
Fnan
sI11
Fnan
sI12
Fnan
sI13
Fnan
sI14
Fnan
sI15
Fnan
sI16
Fnan
sI17
Fnan
sI18
Fnan
sI19
Fnan
sI20
Fnan
sI21
Fnan
sI22
Fnan
sI23
Fnan
sI24
Fnan
sI25
Fnan
sI26
Fnan
sI27
Fnan
sI28
Fnan
sI29
Fnan
ssg73
(dp390
I0
F6.601274
sI1
F5.537605
sI2
F6.652878
sI3
F-1.862581
sI4
F-2.621612
sI5
F6.003606
sI6
F3.073632
sI7
F7.715057
sI8
F6.322189
sI9
F5.762653
sI10
F5.67188
sI11
F-4.955391
sI12
F-3.99303
sI13
F5.201817
sI14
F6.734553
sI15
F5.261202
sI16
F5.963832
sI17
F5.350248
sI18
F7.26239
sI19
F6.350579
sI20
F4.403386
sI21
F5.932401
sI22
F7.177598
sI23
F6.090113
sI24
F-4.488844
sI25
F-1.620703
sI26
F-3.367567
sI27
F4.283286
sI28
F3.492693
sI29
F-4.532734
ssg75
(dp391
I0
F11.7988
sI1
Fnan
sI2
Fnan
sI3
Fnan
sI4
Fnan
sI5
Fnan
sI6
Fnan
sI7
Fnan
sI8
Fnan
sI9
Fnan
sI10
Fnan
sI11
Fnan
sI12
Fnan
sI13
Fnan
sI14
Fnan
sI15
Fnan
sI16
Fnan
sI17
Fnan
sI18
Fnan
sI19
Fnan
sI20
Fnan
sI21
Fnan
sI22
Fnan
sI23
Fnan
sI24
Fnan
sI25
Fnan
sI26
Fnan
sI27
Fnan
sI28
Fnan
sI29
Fnan
ssg77
(dp392
I0
g339
sI1
g340
sI2
g341
sI3
g342
sI4
g343
sI5
g344
sI6
g345
sI7
g346
sI8
g347
sI9
g348
sI10
g349
sI11
g350
sI12
g351
sI13
g352
sI14
g353
sI15
g354
sI16
g355
sI17
g356
sI18
g357
sI19
g358
sI20
g359
sI21
g360
sI22
g361
sI23
g362
sI24
g363
sI25
g364
sI26
g365
sI27
g366
sI28
g367
sI29
g368
ssg79
(dp393
I0
F4099.664000000001
sI1
F5743.056
sI2
F4097.54
sI3
F6131.7519999999995
sI4
F5756.804
sI5
F4843.464
sI6
F5308.78
sI7
F3760.3932
sI8
F4724.128
sI9
F5603.831999999999
sI10
F4799.62
sI11
F4636.3679999999995
sI12
F5824.672
sI13
F5122.26
sI14
F5035.604
sI15
F4356.3640000000005
sI16
F4575.228
sI17
F4771.92
sI18
F4583.468
sI19
F5176.036
sI20
F5077.312
sI21
F5317.6759999999995
sI22
F4370.492
sI23
F4373.656
sI24
F5131.424
sI25
F3753.2708000000002
sI26
F6340.384
sI27
F4733.088
sI28
F2220.9556
sI29
F5969.156
ssg81
(dp394
I0
F1.1820700000000002
sI1
F1.297264
sI2
F1.573992
sI3
F1.232084
sI4
F1.174979
sI5
F1.3929690000000001
sI6
F1.226545
sI7
F1.29064
sI8
F1.585258
sI9
F1.300581
sI10
F1.479093
sI11
F1.464906
sI12
F1.229319
sI13
F1.568467
sI14
F1.1773129999999998
sI15
F1.3768209999999999
sI16
F1.388901
sI17
F1.4695989999999999
sI18
F1.380765
sI19
F1.184472
sI20
F1.474309
sI21
F1.483846
sI22
F1.384817
sI23
F1.57962
sI24
F1.2939559999999999
sI25
F1.2873940000000001
sI26
F1.237693
sI27
F1.590951
sI28
F1.1796870000000002
sI29
F1.234877
ssg83
(dp395
I0
F3567.5135999999998
sI1
F4955.472
sI2
F3539.3176000000003
sI3
F5268.54
sI4
F4976.184
sI5
F4115.464
sI6
F4529.388
sI7
F3206.0535999999997
sI8
F4073.4040000000005
sI9
F4911.432
sI10
F4139.3679999999995
sI11
F3988.078
sI12
F5031.896
sI13
F4351.028
sI14
F4293.984
sI15
F3837.6288
sI16
F3955.3579999999997
sI17
F4194.584
sI18
F3928.75
sI19
F4536.4
sI20
F4358.992
sI21
F4580.56
sI22
F3712.9572
sI23
F3815.8276
sI24
F4315.984
sI25
F3221.2652000000003
sI26
F5413.191999999999
sI27
F4049.816
sI28
F1827.4004
sI29
F5138.66
ssg85
(dp396
I0
F5751.2
sI1
F8106.58
sI2
F5852.651999999999
sI3
F8593.792
sI4
F8101.2080000000005
sI5
F6841.244000000001
sI6
F7481.568
sI7
F5312.092
sI8
F6681.1
sI9
F7899.111999999999
sI10
F6831.1359999999995
sI11
F6486.316
sI12
F8233.904
sI13
F7278.508000000001
sI14
F7235.04
sI15
F6231.276
sI16
F6548.48
sI17
F6780.951999999999
sI18
F6654.856
sI19
F7292.668000000001
sI20
F7209.2080000000005
sI21
F7505.264
sI22
F6317.7919999999995
sI23
F6260.012
sI24
F7318.755999999999
sI25
F5444.856
sI26
F8905.008
sI27
F6750.936
sI28
F3091.5152000000003
sI29
F8427.804
ssg87
(dp397
I0
F87.17341
sI1
F79.0331
sI2
F111.1629
sI3
F72.62505
sI4
F77.69719
sI5
F91.08065
sI6
F79.70498
sI7
F92.85368
sI8
F108.3126
sI9
F79.45191
sI10
F97.21798
sI11
F100.3087
sI12
F77.12981
sI13
F102.7587
sI14
F82.00737
sI15
F92.89513
sI16
F92.49574
sI17
F96.28716
sI18
F91.07343
sI19
F76.30007
sI20
F95.1187
sI21
F93.9482
sI22
F93.74132
sI23
F109.2782
sI24
F85.91473
sI25
F95.88191
sI26
F72.71368
sI27
F109.2369
sI28
F107.2756
sI29
F73.27169
ssg89
(dp398
I0
F12.119
sI1
F11.762
sI2
F12.128
sI3
F11.696
sI4
F11.758
sI5
F11.964
sI6
F11.86
sI7
F12.235
sI8
F11.975
sI9
F11.772
sI10
F11.958
sI11
F11.998
sI12
F11.746
sI13
F11.904
sI14
F11.918
sI15
F12.04
sI16
F12.007
sI17
F11.943
sI18
F12.014
sI19
F11.858
sI20
F11.902
sI21
F11.848
sI22
F12.076
sI23
F12.046
sI24
F11.912
sI25
F12.23
sI26
F11.666
sI27
F11.981
sI28
F12.845
sI29
F11.723
ssg91
(dp399
I0
F0.004
sI1
F0.003
sI2
F0.004
sI3
F0.002
sI4
F0.003
sI5
F0.003
sI6
F0.003
sI7
F0.004
sI8
F0.003
sI9
F0.003
sI10
F0.003
sI11
F0.003
sI12
F0.003
sI13
F0.003
sI14
F0.003
sI15
F0.004
sI16
F0.003
sI17
F0.003
sI18
F0.003
sI19
F0.003
sI20
F0.003
sI21
F0.003
sI22
F0.003
sI23
F0.003
sI24
F0.003
sI25
F0.004
sI26
F0.002
sI27
F0.003
sI28
F0.007
sI29
F0.002
ssg93
(dp400
I0
F11.880566666666665
sI1
Fnan
sI2
Fnan
sI3
Fnan
sI4
Fnan
sI5
Fnan
sI6
Fnan
sI7
Fnan
sI8
Fnan
sI9
Fnan
sI10
Fnan
sI11
Fnan
sI12
Fnan
sI13
Fnan
sI14
Fnan
sI15
Fnan
sI16
Fnan
sI17
Fnan
sI18
Fnan
sI19
Fnan
sI20
Fnan
sI21
Fnan
sI22
Fnan
sI23
Fnan
sI24
Fnan
sI25
Fnan
sI26
Fnan
sI27
Fnan
sI28
Fnan
sI29
Fnan
ssg95
(dp401
I0
F11.9628
sI1
Fnan
sI2
Fnan
sI3
Fnan
sI4
Fnan
sI5
Fnan
sI6
Fnan
sI7
Fnan
sI8
Fnan
sI9
Fnan
sI10
Fnan
sI11
Fnan
sI12
Fnan
sI13
Fnan
sI14
Fnan
sI15
Fnan
sI16
Fnan
sI17
Fnan
sI18
Fnan
sI19
Fnan
sI20
Fnan
sI21
Fnan
sI22
Fnan
sI23
Fnan
sI24
Fnan
sI25
Fnan
sI26
Fnan
sI27
Fnan
sI28
Fnan
sI29
Fnan
ssg97
(dp402
I0
F11.968
sI1
F11.602
sI2
F11.969
sI3
F11.531
sI4
F11.6
sI5
F11.787
sI6
F11.688
sI7
F12.062
sI8
F11.814
sI9
F11.629
sI10
F11.797
sI11
F11.835
sI12
F11.587
sI13
F11.726
sI14
F11.745
sI15
F11.902
sI16
F11.849
sI17
F11.803
sI18
F11.847
sI19
F11.715
sI20
F11.736
sI21
F11.686
sI22
F11.899
sI23
F11.898
sI24
F11.724
sI25
F12.064
sI26
F11.495
sI27
F11.812
sI28
F12.634
sI29
F11.56
ssg99
(dp403
I0
F8.750751
sI1
F1.848969
sI2
F5.652306
sI3
F-4.604259
sI4
F6.689002
sI5
F9.311669
sI6
F5.334921
sI7
F8.476958
sI8
F7.285296
sI9
F3.994536
sI10
F6.763249
sI11
F9.878837
sI12
F5.97594
sI13
F6.815004
sI14
F8.76689
sI15
F7.128543
sI16
F9.251373
sI17
F10.45435
sI18
F9.828712
sI19
F7.324335
sI20
F7.166935
sI21
F-4.177896
sI22
F8.811893
sI23
F8.878396
sI24
F6.003278
sI25
F9.416623
sI26
F2.767451
sI27
F3.741446
sI28
F11.8267
sI29
F-1.570761
ssg101
(dp404
I0
F0.21550923654099566
sI1
Fnan
sI2
Fnan
sI3
Fnan
sI4
Fnan
sI5
Fnan
sI6
Fnan
sI7
Fnan
sI8
Fnan
sI9
Fnan
sI10
Fnan
sI11
Fnan
sI12
Fnan
sI13
Fnan
sI14
Fnan
sI15
Fnan
sI16
Fnan
sI17
Fnan
sI18
Fnan
sI19
Fnan
sI20
Fnan
sI21
Fnan
sI22
Fnan
sI23
Fnan
sI24
Fnan
sI25
Fnan
sI26
Fnan
sI27
Fnan
sI28
Fnan
sI29
Fnan
ssg103
(dp405
I0
F0.7243047107340025
sI1
F0.7156104319275972
sI2
F0.7114068954649319
sI3
F0.7155647356729232
sI4
F0.7181670790875343
sI5
F0.7044188010517678
sI6
F0.7082509404748017
sI7
F0.7067641399955108
sI8
F0.7143047030712584
sI9
F0.7274609151900504
sI10
F0.7117968943721285
sI11
F0.7171071298977837
sI12
F0.7158471811085275
sI13
F0.7017352473653246
sI14
F0.6998791587466804
sI15
F0.7249261969617403
sI16
F0.711158185741661
sI17
F0.726154327685791
sI18
F0.6991700897749522
sI19
F0.7276457922170578
sI20
F0.7095568151111951
sI21
F0.714432103714125
sI22
F0.6947714338428882
sI23
F0.7176879323296533
sI24
F0.693320739137908
sI25
F0.7004176546033265
sI26
F0.7101413987911888
sI27
F0.7052956350491779
sI28
F0.6879662849158625
sI29
F0.713853480179149
ssg105
(dp406
I0
F25.0
sI1
F25.0
sI2
F25.0
sI3
F25.0
sI4
F25.0
sI5
F25.0
sI6
F25.0
sI7
F25.0
sI8
F25.0
sI9
F25.0
sI10
F25.0
sI11
F25.0
sI12
F25.0
sI13
F25.0
sI14
F25.0
sI15
F25.0
sI16
F25.0
sI17
F25.0
sI18
F25.0
sI19
F25.0
sI20
F25.0
sI21
F25.0
sI22
F25.0
sI23
F25.0
sI24
F25.0
sI25
F25.0
sI26
F25.0
sI27
F25.0
sI28
F25.0
sI29
F25.0
ssg107
(dp407
I0
F0.005
sI1
F0.004
sI2
F0.005
sI3
F0.003
sI4
F0.003
sI5
F0.004
sI6
F0.004
sI7
F0.005
sI8
F0.004
sI9
F0.004
sI10
F0.004
sI11
F0.004
sI12
F0.003
sI13
F0.004
sI14
F0.004
sI15
F0.004
sI16
F0.004
sI17
F0.004
sI18
F0.004
sI19
F0.004
sI20
F0.004
sI21
F0.004
sI22
F0.005
sI23
F0.005
sI24
F0.004
sI25
F0.005
sI26
F0.003
sI27
F0.004
sI28
F0.01
sI29
F0.003
ssg109
(dp408
I0
F0.005
sI1
F0.003
sI2
F0.004
sI3
F0.003
sI4
F0.003
sI5
F0.004
sI6
F0.003
sI7
F0.005
sI8
F0.004
sI9
F0.003
sI10
F0.004
sI11
F0.004
sI12
F0.003
sI13
F0.004
sI14
F0.004
sI15
F0.004
sI16
F0.004
sI17
F0.004
sI18
F0.004
sI19
F0.004
sI20
F0.004
sI21
F0.003
sI22
F0.004
sI23
F0.004
sI24
F0.004
sI25
F0.005
sI26
F0.003
sI27
F0.004
sI28
F0.008
sI29
F0.003
ssg111
(dp409
I0
F9.475886
sI1
F1.379888
sI2
F5.482128
sI3
F-3.58667
sI4
F5.51692
sI5
F6.08437
sI6
F3.699801
sI7
F7.07234
sI8
F6.261016
sI9
F6.659027
sI10
F3.807683
sI11
F6.062155
sI12
F-3.207422
sI13
F5.819994
sI14
F6.843109
sI15
F3.581022
sI16
F8.901534
sI17
F4.687765
sI18
F6.90425
sI19
F7.875436
sI20
F5.815741
sI21
F-2.954185
sI22
F7.795081
sI23
F5.226534
sI24
F-2.646408
sI25
F6.082905
sI26
F3.497948
sI27
F4.953542
sI28
F8.389992
sI29
F4.186998
ssg113
(dp410
I0
S"KIC8462852-20180401at121116_-35-1-025-g'_cal.fts.mag.1"
p411
sI1
S"KIC8462852-20180401at112940_-35-1-025-g'_cal.fts.mag.1"
p412
sI2
S"KIC8462852-20180401at102543_-35-1-025-g'_cal.fts.mag.1"
p413
sI3
S"KIC8462852-20180401at115124_-35-1-025-g'_cal.fts.mag.1"
p414
sI4
S"KIC8462852-20180401at121422_-35-1-025-g'_cal.fts.mag.1"
p415
sI5
S"KIC8462852-20180401at110322_-35-1-025-g'_cal.fts.mag.1"
p416
sI6
S"KIC8462852-20180401at115326_-35-1-025-g'_cal.fts.mag.1"
p417
sI7
S"KIC8462852-20180401at113141_-35-1-025-g'_cal.fts.mag.1"
p418
sI8
S"KIC8462852-20180401at102343_-35-1-025-g'_cal.fts.mag.1"
p419
sI9
S"KIC8462852-20180401at112830_-35-1-025-g'_cal.fts.mag.1"
p420
sI10
S"KIC8462852-20180401at104400_-35-1-025-g'_cal.fts.mag.1"
p421
sI11
S"KIC8462852-20180401at104700_-35-1-025-g'_cal.fts.mag.1"
p422
sI12
S"KIC8462852-20180401at115225_-35-1-025-g'_cal.fts.mag.1"
p423
sI13
S"KIC8462852-20180401at102642_-35-1-025-g'_cal.fts.mag.1"
p424
sI14
S"KIC8462852-20180401at121320_-35-1-025-g'_cal.fts.mag.1"
p425
sI15
S"KIC8462852-20180401at110731_-35-1-025-g'_cal.fts.mag.1"
p426
sI16
S"KIC8462852-20180401at110429_-35-1-025-g'_cal.fts.mag.1"
p427
sI17
S"KIC8462852-20180401at104600_-35-1-025-g'_cal.fts.mag.1"
p428
sI18
S"KIC8462852-20180401at110631_-35-1-025-g'_cal.fts.mag.1"
p429
sI19
S"KIC8462852-20180401at121006_-35-1-025-g'_cal.fts.mag.1"
p430
sI20
S"KIC8462852-20180401at104459_-35-1-025-g'_cal.fts.mag.1"
p431
sI21
S"KIC8462852-20180401at104254_-35-1-025-g'_cal.fts.mag.1"
p432
sI22
S"KIC8462852-20180401at110530_-35-1-025-g'_cal.fts.mag.1"
p433
sI23
S"KIC8462852-20180401at102443_-35-1-025-g'_cal.fts.mag.1"
p434
sI24
S"KIC8462852-20180401at113040_-35-1-025-g'_cal.fts.mag.1"
p435
sI25
S"KIC8462852-20180401at113242_-35-1-025-g'_cal.fts.mag.1"
p436
sI26
S"KIC8462852-20180401at114914_-35-1-025-g'_cal.fts.mag.1"
p437
sI27
S"KIC8462852-20180401at102236_-35-1-025-g'_cal.fts.mag.1"
p438
sI28
S"KIC8462852-20180401at121218_-35-1-025-g'_cal.fts.mag.1"
p439
sI29
S"KIC8462852-20180401at115023_-35-1-025-g'_cal.fts.mag.1"
p440
ssg139
(dp441
I0
F0.01786789273034954
sI1
Fnan
sI2
Fnan
sI3
Fnan
sI4
Fnan
sI5
Fnan
sI6
Fnan
sI7
Fnan
sI8
Fnan
sI9
Fnan
sI10
Fnan
sI11
Fnan
sI12
Fnan
sI13
Fnan
sI14
Fnan
sI15
Fnan
sI16
Fnan
sI17
Fnan
sI18
Fnan
sI19
Fnan
sI20
Fnan
sI21
Fnan
sI22
Fnan
sI23
Fnan
sI24
Fnan
sI25
Fnan
sI26
Fnan
sI27
Fnan
sI28
Fnan
sI29
Fnan
ssg141
(dp442
I0
F3771.2724
sI1
F5399.151999999999
sI2
F3886.8384
sI3
F5661.588000000001
sI4
F5356.8640000000005
sI5
F4495.1359999999995
sI6
F4914.068
sI7
F3372.1092
sI8
F4452.848
sI9
F5199.436
sI10
F4449.092000000001
sI11
F4299.192
sI12
F5422.084
sI13
F4719.24
sI14
F4585.28
sI15
F4097.74
sI16
F4248.392
sI17
F4505.156
sI18
F4254.856
sI19
F4820.484
sI20
F4667.76
sI21
F4937.295999999999
sI22
F3931.5324
sI23
F4108.724
sI24
F4770.6
sI25
F3486.6947999999998
sI26
F5849.908
sI27
F4443.32
sI28
F2008.8948
sI29
F5616.124
ssg143
(dp443
I0
F0.2225851871020203
sI1
Fnan
sI2
Fnan
sI3
Fnan
sI4
Fnan
sI5
Fnan
sI6
Fnan
sI7
Fnan
sI8
Fnan
sI9
Fnan
sI10
Fnan
sI11
Fnan
sI12
Fnan
sI13
Fnan
sI14
Fnan
sI15
Fnan
sI16
Fnan
sI17
Fnan
sI18
Fnan
sI19
Fnan
sI20
Fnan
sI21
Fnan
sI22
Fnan
sI23
Fnan
sI24
Fnan
sI25
Fnan
sI26
Fnan
sI27
Fnan
sI28
Fnan
sI29
Fnan
ssg145
(dp444
I0
S"g'"
p445
sI1
S"g'"
p446
sI2
S"g'"
p447
sI3
S"g'"
p448
sI4
S"g'"
p449
sI5
S"g'"
p450
sI6
S"g'"
p451
sI7
S"g'"
p452
sI8
S"g'"
p453
sI9
S"g'"
p454
sI10
S"g'"
p455
sI11
S"g'"
p456
sI12
S"g'"
p457
sI13
S"g'"
p458
sI14
S"g'"
p459
sI15
S"g'"
p460
sI16
S"g'"
p461
sI17
S"g'"
p462
sI18
S"g'"
p463
sI19
S"g'"
p464
sI20
S"g'"
p465
sI21
S"g'"
p466
sI22
S"g'"
p467
sI23
S"g'"
p468
sI24
S"g'"
p469
sI25
S"g'"
p470
sI26
S"g'"
p471
sI27
S"g'"
p472
sI28
S"g'"
p473
sI29
S"g'"
p474
ssg171
(dp475
I0
F0.22178269627681968
sI1
Fnan
sI2
Fnan
sI3
Fnan
sI4
Fnan
sI5
Fnan
sI6
Fnan
sI7
Fnan
sI8
Fnan
sI9
Fnan
sI10
Fnan
sI11
Fnan
sI12
Fnan
sI13
Fnan
sI14
Fnan
sI15
Fnan
sI16
Fnan
sI17
Fnan
sI18
Fnan
sI19
Fnan
sI20
Fnan
sI21
Fnan
sI22
Fnan
sI23
Fnan
sI24
Fnan
sI25
Fnan
sI26
Fnan
sI27
Fnan
sI28
Fnan
sI29
Fnan
ssg173
(dp476
I0
F9.384748
sI1
F2.794022
sI2
F6.351373
sI3
F2.425309
sI4
F1.442685
sI5
F4.711613
sI6
F-5.803985
sI7
F-2.836623
sI8
F6.33466
sI9
F-4.014556
sI10
F-5.525666
sI11
F6.187573
sI12
F-3.64988
sI13
F4.192612
sI14
F5.747457
sI15
F7.099462
sI16
F1.106725
sI17
F7.747243
sI18
F6.327528
sI19
F6.15194
sI20
F-5.334586
sI21
F7.158742
sI22
F7.26927
sI23
F5.179632
sI24
F5.351205
sI25
F2.754896
sI26
F-3.183634
sI27
F5.918104
sI28
F7.590115
sI29
F-4.904461
ssg175
(dp477
I0
F1.5258556389204856
sI1
Fnan
sI2
Fnan
sI3
Fnan
sI4
Fnan
sI5
Fnan
sI6
Fnan
sI7
Fnan
sI8
Fnan
sI9
Fnan
sI10
Fnan
sI11
Fnan
sI12
Fnan
sI13
Fnan
sI14
Fnan
sI15
Fnan
sI16
Fnan
sI17
Fnan
sI18
Fnan
sI19
Fnan
sI20
Fnan
sI21
Fnan
sI22
Fnan
sI23
Fnan
sI24
Fnan
sI25
Fnan
sI26
Fnan
sI27
Fnan
sI28
Fnan
sI29
Fnan
ssg177
(dp478
I0
F2458209.9708854165
sI1
Fnan
sI2
Fnan
sI3
Fnan
sI4
Fnan
sI5
Fnan
sI6
Fnan
sI7
Fnan
sI8
Fnan
sI9
Fnan
sI10
Fnan
sI11
Fnan
sI12
Fnan
sI13
Fnan
sI14
Fnan
sI15
Fnan
sI16
Fnan
sI17
Fnan
sI18
Fnan
sI19
Fnan
sI20
Fnan
sI21
Fnan
sI22
Fnan
sI23
Fnan
sI24
Fnan
sI25
Fnan
sI26
Fnan
sI27
Fnan
sI28
Fnan
sI29
Fnan
ssg179
(dp479
I0
F0.010494555517307939
sI1
Fnan
sI2
Fnan
sI3
Fnan
sI4
Fnan
sI5
Fnan
sI6
Fnan
sI7
Fnan
sI8
Fnan
sI9
Fnan
sI10
Fnan
sI11
Fnan
sI12
Fnan
sI13
Fnan
sI14
Fnan
sI15
Fnan
sI16
Fnan
sI17
Fnan
sI18
Fnan
sI19
Fnan
sI20
Fnan
sI21
Fnan
sI22
Fnan
sI23
Fnan
sI24
Fnan
sI25
Fnan
sI26
Fnan
sI27
Fnan
sI28
Fnan
sI29
Fnan
ssg181
(dp480
I0
F99.05682
sI1
F84.6934
sI2
F123.9116
sI3
F77.99274
sI4
F85.61587
sI5
F99.97938
sI6
F85.33871
sI7
F109.1957
sI8
F117.9063
sI9
F86.39321
sI10
F107.8061
sI11
F109.8732
sI12
F80.96747
sI13
F109.9336
sI14
F90.59922
sI15
F105.8649
sI16
F102.8813
sI17
F104.6786
sI18
F100.4461
sI19
F86.75682
sI20
F103.263
sI21
F101.8507
sI22
F103.5003
sI23
F117.8172
sI24
F90.41729
sI25
F106.278
sI26
F76.08032
sI27
F117.3151
sI28
F131.1447
sI29
F77.68586
ssg183
(dp481
I0
F11.601
sI1
F11.228
sI2
F11.582
sI3
F11.165
sI4
F11.229
sI5
F11.412
sI6
F11.315
sI7
F11.687
sI8
F11.438
sI9
F11.256
sI10
F11.414
sI11
F11.47
sI12
F11.211
sI13
F11.345
sI14
F11.351
sI15
F11.514
sI16
F11.46
sI17
F11.422
sI18
F11.442
sI19
F11.343
sI20
F11.355
sI21
F11.312
sI22
F11.499
sI23
F11.509
sI24
F11.339
sI25
F11.66
sI26
F11.126
sI27
F11.427
sI28
F12.275
sI29
F11.186
ssg185
(dp482
I0
F0.8486670369920556
sI1
Fnan
sI2
Fnan
sI3
Fnan
sI4
Fnan
sI5
Fnan
sI6
Fnan
sI7
Fnan
sI8
Fnan
sI9
Fnan
sI10
Fnan
sI11
Fnan
sI12
Fnan
sI13
Fnan
sI14
Fnan
sI15
Fnan
sI16
Fnan
sI17
Fnan
sI18
Fnan
sI19
Fnan
sI20
Fnan
sI21
Fnan
sI22
Fnan
sI23
Fnan
sI24
Fnan
sI25
Fnan
sI26
Fnan
sI27
Fnan
sI28
Fnan
sI29
Fnan
sss.