(dp0
S'V'
p1
(dp2
S'sigmean'
p3
(dp4
I0
F0.6948857888099508
sI1
Fnan
sI2
Fnan
sI3
Fnan
sI4
Fnan
sI5
Fnan
sI6
Fnan
sI7
Fnan
sI8
Fnan
sI9
Fnan
sI10
Fnan
sI11
Fnan
sI12
Fnan
sI13
Fnan
sI14
Fnan
ssS'ref3flag'
p5
(dp6
I0
S'NoError'
p7
sI1
S'NoError'
p8
sI2
S'NoError'
p9
sI3
S'NoError'
p10
sI4
S'NoError'
p11
sI5
S'NoError'
p12
sI6
S'NoError'
p13
sI7
S'NoError'
p14
sI8
S'NoError'
p15
sI9
S'NoError'
p16
sI10
S'NoError'
p17
sI11
S'NoError'
p18
sI12
S'NoError'
p19
sI13
S'NoError'
p20
sI14
S'NoError'
p21
ssS'tabbyerr'
p22
(dp23
I0
F0.002
sI1
F0.003
sI2
F0.002
sI3
F0.002
sI4
F0.002
sI5
F0.002
sI6
F0.002
sI7
F0.003
sI8
F0.002
sI9
F0.003
sI10
F0.002
sI11
F0.003
sI12
F0.003
sI13
F0.002
sI14
F0.002
ssS'ref2rel'
p24
(dp25
I0
F0.8871914656483156
sI1
F0.8854382307636415
sI2
F0.8839510733074246
sI3
F0.890760181962763
sI4
F0.8867357587226771
sI5
F0.8858460659810752
sI6
F0.8873983352899494
sI7
F0.8854392391401623
sI8
F0.8862201866666061
sI9
F0.8860424316497978
sI10
F0.8842337421362049
sI11
F0.884910025259797
sI12
F0.8876673024326277
sI13
F0.8851767789479681
sI14
F0.8841210938099492
ssS'ref2err'
p26
(dp27
I0
F0.0017461773985501705
sI1
Fnan
sI2
Fnan
sI3
Fnan
sI4
Fnan
sI5
Fnan
sI6
Fnan
sI7
Fnan
sI8
Fnan
sI9
Fnan
sI10
Fnan
sI11
Fnan
sI12
Fnan
sI13
Fnan
sI14
Fnan
ssS'ref2mean'
p28
(dp29
I0
F0.886075460781264
sI1
Fnan
sI2
Fnan
sI3
Fnan
sI4
Fnan
sI5
Fnan
sI6
Fnan
sI7
Fnan
sI8
Fnan
sI9
Fnan
sI10
Fnan
sI11
Fnan
sI12
Fnan
sI13
Fnan
sI14
Fnan
ssS'tabbymag'
p30
(dp31
I0
F11.6
sI1
F11.584
sI2
F11.585
sI3
F11.573
sI4
F11.576
sI5
F11.6
sI6
F11.59
sI7
F11.586
sI8
F11.574
sI9
F11.651
sI10
F11.565
sI11
F11.599
sI12
F11.605
sI13
F11.584
sI14
F11.586
ssS'tabbybkg'
p32
(dp33
I0
F9.410557
sI1
F9.957799
sI2
F9.632356
sI3
F9.573945
sI4
F10.39757
sI5
F10.32284
sI6
F10.22635
sI7
F10.20478
sI8
F10.57543
sI9
F9.608984
sI10
F9.952225
sI11
F9.718516
sI12
F9.447519
sI13
F10.56771
sI14
F9.137354
ssS'JD'
p34
(dp35
I0
F2458609.883449074
sI1
F2458609.882210648
sI2
F2458609.910636574
sI3
F2458609.897638889
sI4
F2458609.8970138887
sI5
F2458609.911238426
sI6
F2458609.895775463
sI7
F2458609.9118518517
sI8
F2458609.9124652776
sI9
F2458609.8815972223
sI10
F2458609.896400463
sI11
F2458609.898252315
sI12
F2458609.8809837964
sI13
F2458609.913078704
sI14
F2458609.882824074
ssS'ref3rmsmean'
p36
(dp37
I0
F1.7322663333333337
sI1
Fnan
sI2
Fnan
sI3
Fnan
sI4
Fnan
sI5
Fnan
sI6
Fnan
sI7
Fnan
sI8
Fnan
sI9
Fnan
sI10
Fnan
sI11
Fnan
sI12
Fnan
sI13
Fnan
sI14
Fnan
ssS'ref1rmsmean'
p38
(dp39
I0
F1.4023488333333336
sI1
Fnan
sI2
Fnan
sI3
Fnan
sI4
Fnan
sI5
Fnan
sI6
Fnan
sI7
Fnan
sI8
Fnan
sI9
Fnan
sI10
Fnan
sI11
Fnan
sI12
Fnan
sI13
Fnan
sI14
Fnan
ssS'relflux'
p40
(dp41
I0
F0.6926314080780257
sI1
F0.6945201475795846
sI2
F0.6948433152626372
sI3
F0.6960952502578401
sI4
F0.6975295266995232
sI5
F0.6909276961270029
sI6
F0.696451205406307
sI7
F0.6950604489310481
sI8
F0.6957344507460702
sI9
F0.6941977135209264
sI10
F0.6940493267623844
sI11
F0.6946061106753664
sI12
F0.6955165196615617
sI13
F0.6922798309480863
sI14
F0.6977040626283738
ssS'sigerr'
p42
(dp43
I0
F0.0013953580566935626
sI1
Fnan
sI2
Fnan
sI3
Fnan
sI4
Fnan
sI5
Fnan
sI6
Fnan
sI7
Fnan
sI8
Fnan
sI9
Fnan
sI10
Fnan
sI11
Fnan
sI12
Fnan
sI13
Fnan
sI14
Fnan
ssS'tabbyrmsmean'
p44
(dp45
I0
F0.7522323333333335
sI1
Fnan
sI2
Fnan
sI3
Fnan
sI4
Fnan
sI5
Fnan
sI6
Fnan
sI7
Fnan
sI8
Fnan
sI9
Fnan
sI10
Fnan
sI11
Fnan
sI12
Fnan
sI13
Fnan
sI14
Fnan
ssS'tabbyflag'
p46
(dp47
I0
g7
sI1
g8
sI2
g9
sI3
g10
sI4
g11
sI5
g12
sI6
g13
sI7
g14
sI8
g15
sI9
g16
sI10
g17
sI11
g18
sI12
g19
sI13
g20
sI14
g21
ssS'ref1err'
p48
(dp49
I0
F0.002197983312964909
sI1
Fnan
sI2
Fnan
sI3
Fnan
sI4
Fnan
sI5
Fnan
sI6
Fnan
sI7
Fnan
sI8
Fnan
sI9
Fnan
sI10
Fnan
sI11
Fnan
sI12
Fnan
sI13
Fnan
sI14
Fnan
ssS'ref2magmeanerr'
p50
(dp51
I0
F0.019739976359323706
sI1
Fnan
sI2
Fnan
sI3
Fnan
sI4
Fnan
sI5
Fnan
sI6
Fnan
sI7
Fnan
sI8
Fnan
sI9
Fnan
sI10
Fnan
sI11
Fnan
sI12
Fnan
sI13
Fnan
sI14
Fnan
ssS'ref2rmsmean'
p52
(dp53
I0
F0.8237578666666667
sI1
Fnan
sI2
Fnan
sI3
Fnan
sI4
Fnan
sI5
Fnan
sI6
Fnan
sI7
Fnan
sI8
Fnan
sI9
Fnan
sI10
Fnan
sI11
Fnan
sI12
Fnan
sI13
Fnan
sI14
Fnan
ssS'ref3rel'
p54
(dp55
I0
F1.4999961390819672
sI1
F1.4987704590116775
sI2
F1.50616314877753
sI3
F1.5038256120875972
sI4
F1.5059180628486224
sI5
F1.5043173232595792
sI6
F1.5050209444310223
sI7
F1.5074366387592226
sI8
F1.5051341181066626
sI9
F1.5105081483537517
sI10
F1.5036970749432401
sI11
F1.5018768951057155
sI12
F1.500940364259216
sI13
F1.5034067497533992
sI14
F1.5091513498398563
ssS'ref1flag'
p56
(dp57
I0
g7
sI1
g8
sI2
g9
sI3
g10
sI4
g11
sI5
g12
sI6
g13
sI7
g14
sI8
g15
sI9
g16
sI10
g17
sI11
g18
sI12
g19
sI13
g20
sI14
g21
ssS'ref2bkg'
p58
(dp59
I0
F9.503517
sI1
F10.12578
sI2
F10.58116
sI3
F9.659722
sI4
F10.08249
sI5
F11.2213
sI6
F10.53831
sI7
F10.82666
sI8
F10.96648
sI9
F10.60626
sI10
F9.993145
sI11
F11.11917
sI12
F10.57863
sI13
F11.00583
sI14
F10.06947
ssS'ref3magmean'
p60
(dp61
I0
F10.920400000000003
sI1
Fnan
sI2
Fnan
sI3
Fnan
sI4
Fnan
sI5
Fnan
sI6
Fnan
sI7
Fnan
sI8
Fnan
sI9
Fnan
sI10
Fnan
sI11
Fnan
sI12
Fnan
sI13
Fnan
sI14
Fnan
ssS'ref1mean'
p62
(dp63
I0
F0.7162584862224997
sI1
Fnan
sI2
Fnan
sI3
Fnan
sI4
Fnan
sI5
Fnan
sI6
Fnan
sI7
Fnan
sI8
Fnan
sI9
Fnan
sI10
Fnan
sI11
Fnan
sI12
Fnan
sI13
Fnan
sI14
Fnan
ssS'ref1rms'
p64
(dp65
I0
F3.083829
sI1
F3.506378
sI2
F1.908574
sI3
F2.135769
sI4
F-2.280614
sI5
F2.838008
sI6
F2.348537
sI7
F-1.201876
sI8
F3.14118
sI9
F-2.431878
sI10
F0.7115545
sI11
F3.87461
sI12
F3.259288
sI13
F-3.120919
sI14
F3.262792
ssS'ref2magmean'
p66
(dp67
I0
F11.284333333333334
sI1
Fnan
sI2
Fnan
sI3
Fnan
sI4
Fnan
sI5
Fnan
sI6
Fnan
sI7
Fnan
sI8
Fnan
sI9
Fnan
sI10
Fnan
sI11
Fnan
sI12
Fnan
sI13
Fnan
sI14
Fnan
ssS'ref2flag'
p68
(dp69
I0
g7
sI1
g8
sI2
g9
sI3
g10
sI4
g11
sI5
g12
sI6
g13
sI7
g14
sI8
g15
sI9
g16
sI10
g17
sI11
g18
sI12
g19
sI13
g20
sI14
g21
ssS'ref2'
p70
(dp71
I0
F7660.4
sI1
F7738.1
sI2
F7721.65
sI3
F7833.766666666666
sI4
F7773.626666666666
sI5
F7667.406666666667
sI6
F7691.236666666667
sI7
F7717.27
sI8
F7805.703333333334
sI9
F7286.926666666666
sI10
F7874.1
sI11
F7631.213333333333
sI12
F7596.196666666667
sI13
F7767.5
sI14
F7681.173333333334
ssS'airmass'
p72
(dp73
I0
F1.300024
sI1
F1.305928
sI2
F1.18985
sI3
F1.23803
sI4
F1.240504
sI5
F1.187761
sI6
F1.245549
sI7
F1.185699
sI8
F1.183635
sI9
F1.308915
sI10
F1.243011
sI11
F1.235585
sI12
F1.311909
sI13
F1.1815799999999999
sI14
F1.302961
ssS'ref1'
p74
(dp75
I0
F6584.916666666667
sI1
F6676.493333333333
sI2
F6648.71
sI3
F6677.636666666667
sI4
F6662.966666666666
sI5
F6588.34
sI6
F6588.613333333333
sI7
F6622.990000000001
sI8
F6699.546666666666
sI9
F6235.4366666666665
sI10
F6787.04
sI11
F6577.536666666667
sI12
F6520.673333333334
sI13
F6685.67
sI14
F6599.78
ssS'ref3'
p76
(dp77
I0
F10683.96
sI1
F10802.083333333334
sI2
F10822.053333333333
sI3
F10911.31
sI4
F10870.163333333334
sI5
F10722.583333333334
sI6
F10745.736666666666
sI7
F10808.516666666666
sI8
F10916.173333333334
sI9
F10212.82
sI10
F11022.956666666667
sI11
F10669.896666666667
sI12
F10594.29
sI13
F10864.496666666668
sI14
F10776.06
ssS'ref1bkg'
p78
(dp79
I0
F8.880938
sI1
F8.947474
sI2
F10.86959
sI3
F10.26075
sI4
F10.03403
sI5
F10.3521
sI6
F10.15097
sI7
F10.56997
sI8
F10.32074
sI9
F10.53512
sI10
F9.919595
sI11
F10.42002
sI12
F9.56446
sI13
F10.22769
sI14
F9.666966
ssS'ref1mag'
p80
(dp81
I0
F11.454
sI1
F11.439
sI2
F11.443
sI3
F11.438
sI4
F11.441
sI5
F11.453
sI6
F11.453
sI7
F11.447
sI8
F11.435
sI9
F11.513
sI10
F11.421
sI11
F11.455
sI12
F11.464
sI13
F11.437
sI14
F11.451
ssS'ref3magerr'
p82
(dp83
I0
F0.002
sI1
F0.002
sI2
F0.002
sI3
F0.002
sI4
F0.002
sI5
F0.002
sI6
F0.002
sI7
F0.002
sI8
F0.002
sI9
F0.002
sI10
F0.002
sI11
F0.002
sI12
F0.002
sI13
F0.002
sI14
F0.002
ssS'tabbymagmean'
p84
(dp85
I0
F11.590533333333333
sI1
Fnan
sI2
Fnan
sI3
Fnan
sI4
Fnan
sI5
Fnan
sI6
Fnan
sI7
Fnan
sI8
Fnan
sI9
Fnan
sI10
Fnan
sI11
Fnan
sI12
Fnan
sI13
Fnan
sI14
Fnan
ssS'ref1magmean'
p86
(dp87
I0
F11.449600000000002
sI1
Fnan
sI2
Fnan
sI3
Fnan
sI4
Fnan
sI5
Fnan
sI6
Fnan
sI7
Fnan
sI8
Fnan
sI9
Fnan
sI10
Fnan
sI11
Fnan
sI12
Fnan
sI13
Fnan
sI14
Fnan
ssS'ref2mag'
p88
(dp89
I0
F11.289
sI1
F11.278
sI2
F11.281
sI3
F11.265
sI4
F11.273
sI5
F11.288
sI6
F11.285
sI7
F11.281
sI8
F11.269
sI9
F11.344
sI10
F11.259
sI11
F11.294
sI12
F11.299
sI13
F11.274
sI14
F11.286
ssS'ref3rms'
p90
(dp91
I0
F3.143331
sI1
F-3.016995
sI2
F-2.150553
sI3
F4.459457
sI4
F3.397691
sI5
F4.158033
sI6
F2.864414
sI7
F3.427677
sI8
F2.44717
sI9
F3.095419
sI10
F2.698359
sI11
F3.560738
sI12
F-3.403122
sI13
F-2.256258
sI14
F3.558634
ssS'ref3magmeanerr'
p92
(dp93
I0
F0.01915276928876275
sI1
Fnan
sI2
Fnan
sI3
Fnan
sI4
Fnan
sI5
Fnan
sI6
Fnan
sI7
Fnan
sI8
Fnan
sI9
Fnan
sI10
Fnan
sI11
Fnan
sI12
Fnan
sI13
Fnan
sI14
Fnan
ssS'ref1rel'
p94
(dp95
I0
F0.7179227475547435
sI1
F0.7202186961473771
sI2
F0.7170854581186679
sI3
F0.7124683227933806
sI4
F0.7147652560629213
sI5
F0.7165137120792343
sI6
F0.7147174554319473
sI7
F0.7150022958989056
sI8
F0.7156917851718212
sI9
F0.7126316495248313
sI10
F0.7183171559168738
sI11
F0.7188128661776981
sI12
F0.7169322572641451
sI13
F0.7176547011690821
sI14
F0.7151429340258652
ssS'exposure'
p96
(dp97
I0
F30.0
sI1
F30.0
sI2
F30.0
sI3
F30.0
sI4
F30.0
sI5
F30.0
sI6
F30.0
sI7
F30.0
sI8
F30.0
sI9
F30.0
sI10
F30.0
sI11
F30.0
sI12
F30.0
sI13
F30.0
sI14
F30.0
ssS'ref1magerr'
p98
(dp99
I0
F0.002
sI1
F0.002
sI2
F0.002
sI3
F0.002
sI4
F0.002
sI5
F0.002
sI6
F0.002
sI7
F0.002
sI8
F0.002
sI9
F0.002
sI10
F0.002
sI11
F0.002
sI12
F0.002
sI13
F0.002
sI14
F0.002
ssS'ref2magerr'
p100
(dp101
I0
F0.002
sI1
F0.002
sI2
F0.002
sI3
F0.002
sI4
F0.002
sI5
F0.002
sI6
F0.002
sI7
F0.002
sI8
F0.002
sI9
F0.002
sI10
F0.002
sI11
F0.002
sI12
F0.002
sI13
F0.002
sI14
F0.002
ssS'ref2rms'
p102
(dp103
I0
F3.726739
sI1
F-1.990724
sI2
F1.614652
sI3
F3.323575
sI4
F3.72984
sI5
F2.696292
sI6
F1.456907
sI7
F-2.851193
sI8
F3.403715
sI9
F2.859868
sI10
F3.336689
sI11
F-2.25736
sI12
F-2.872158
sI13
F-1.568603
sI14
F-2.251871
ssS'name'
p104
(dp105
I0
S'KIC8462852-20190506at091209_-25-1X1-030-V.fts.mag.1'
p106
sI1
S'KIC8462852-20190506at091023_-25-1X1-030-V.fts.mag.1'
p107
sI2
S'KIC8462852-20190506at095112_-25-1X1-030-V.fts.mag.1'
p108
sI3
S'KIC8462852-20190506at093236_-25-1X1-030-V.fts.mag.1'
p109
sI4
S'KIC8462852-20190506at093142_-25-1X1-030-V.fts.mag.1'
p110
sI5
S'KIC8462852-20190506at095211_-25-1X1-030-V.fts.mag.1'
p111
sI6
S'KIC8462852-20190506at092948_-25-1X1-030-V.fts.mag.1'
p112
sI7
S'KIC8462852-20190506at095304_-25-1X1-030-V.fts.mag.1'
p113
sI8
S'KIC8462852-20190506at095357_-25-1X1-030-V.fts.mag.1'
p114
sI9
S'KIC8462852-20190506at090930_-25-1X1-030-V.fts.mag.1'
p115
sI10
S'KIC8462852-20190506at093049_-25-1X1-030-V.fts.mag.1'
p116
sI11
S'KIC8462852-20190506at093329_-25-1X1-030-V.fts.mag.1'
p117
sI12
S'KIC8462852-20190506at090831_-25-1X1-030-V.fts.mag.1'
p118
sI13
S'KIC8462852-20190506at095450_-25-1X1-030-V.fts.mag.1'
p119
sI14
S'KIC8462852-20190506at091116_-25-1X1-030-V.fts.mag.1'
p120
ssS'ref3err'
p121
(dp122
I0
F0.003236843497459409
sI1
Fnan
sI2
Fnan
sI3
Fnan
sI4
Fnan
sI5
Fnan
sI6
Fnan
sI7
Fnan
sI8
Fnan
sI9
Fnan
sI10
Fnan
sI11
Fnan
sI12
Fnan
sI13
Fnan
sI14
Fnan
ssS'tabby'
p123
(dp124
I0
F5755.6
sI1
F5837.83
sI2
F5834.926666666666
sI3
F5898.876666666666
sI4
F5884.070000000001
sI5
F5752.740000000001
sI6
F5809.7
sI7
F5826.64
sI8
F5895.52
sI9
F5492.303333333333
sI10
F5942.009999999999
sI11
F5760.286666666667
sI12
F5729.006666666667
sI13
F5842.303333333333
sI14
F5827.46
ssS'ref1magmeanerr'
p125
(dp126
I0
F0.020461811119393013
sI1
Fnan
sI2
Fnan
sI3
Fnan
sI4
Fnan
sI5
Fnan
sI6
Fnan
sI7
Fnan
sI8
Fnan
sI9
Fnan
sI10
Fnan
sI11
Fnan
sI12
Fnan
sI13
Fnan
sI14
Fnan
ssS'filter'
p127
(dp128
I0
g1
sI1
g1
sI2
g1
sI3
g1
sI4
g1
sI5
g1
sI6
g1
sI7
g1
sI8
g1
sI9
g1
sI10
g1
sI11
g1
sI12
g1
sI13
g1
sI14
g1
ssS'tabbymagerr'
p129
(dp130
I0
F0.0202091445590733
sI1
Fnan
sI2
Fnan
sI3
Fnan
sI4
Fnan
sI5
Fnan
sI6
Fnan
sI7
Fnan
sI8
Fnan
sI9
Fnan
sI10
Fnan
sI11
Fnan
sI12
Fnan
sI13
Fnan
sI14
Fnan
ssS'tabbyrms'
p131
(dp132
I0
F-2.55983
sI1
F2.060989
sI2
F3.55423
sI3
F3.236915
sI4
F-2.273132
sI5
F-3.472805
sI6
F3.867983
sI7
F-1.386555
sI8
F-2.258009
sI9
F-1.478125
sI10
F-1.616129
sI11
F3.904146
sI12
F2.906928
sI13
F4.014561
sI14
F2.782318
ssS'ref3mean'
p133
(dp134
I0
F1.504410868574604
sI1
Fnan
sI2
Fnan
sI3
Fnan
sI4
Fnan
sI5
Fnan
sI6
Fnan
sI7
Fnan
sI8
Fnan
sI9
Fnan
sI10
Fnan
sI11
Fnan
sI12
Fnan
sI13
Fnan
sI14
Fnan
ssS'median_JD'
p135
(dp136
I0
F2458609.8970138887
sI1
Fnan
sI2
Fnan
sI3
Fnan
sI4
Fnan
sI5
Fnan
sI6
Fnan
sI7
Fnan
sI8
Fnan
sI9
Fnan
sI10
Fnan
sI11
Fnan
sI12
Fnan
sI13
Fnan
sI14
Fnan
ssS'error'
p137
(dp138
I0
F0.0018676544861662087
sI1
Fnan
sI2
Fnan
sI3
Fnan
sI4
Fnan
sI5
Fnan
sI6
Fnan
sI7
Fnan
sI8
Fnan
sI9
Fnan
sI10
Fnan
sI11
Fnan
sI12
Fnan
sI13
Fnan
sI14
Fnan
ssS'ref3bkg'
p139
(dp140
I0
F10.75659
sI1
F11.81553
sI2
F12.25654
sI3
F10.79539
sI4
F11.02315
sI5
F11.4984
sI6
F11.73182
sI7
F12.06007
sI8
F11.10897
sI9
F11.98167
sI10
F11.3556
sI11
F11.74749
sI12
F11.2105
sI13
F12.36542
sI14
F10.93771
ssS'ref3mag'
p141
(dp142
I0
F10.928
sI1
F10.916
sI2
F10.914
sI3
F10.905
sI4
F10.909
sI5
F10.924
sI6
F10.922
sI7
F10.916
sI8
F10.905
sI9
F10.977
sI10
F10.894
sI11
F10.93
sI12
F10.937
sI13
F10.91
sI14
F10.919
ssS'mean'
p143
(dp144
I0
F0.6948098008856491
sI1
Fnan
sI2
Fnan
sI3
Fnan
sI4
Fnan
sI5
Fnan
sI6
Fnan
sI7
Fnan
sI8
Fnan
sI9
Fnan
sI10
Fnan
sI11
Fnan
sI12
Fnan
sI13
Fnan
sI14
Fnan
sss.