(dp0
S'r'
p1
(dp2
S'sigmean'
p3
(dp4
I0
F0.5412990110112877
sI1
Fnan
sI2
Fnan
sI3
Fnan
sI4
Fnan
sI5
Fnan
sI6
Fnan
sI7
Fnan
sI8
Fnan
sI9
Fnan
sI10
Fnan
sI11
Fnan
sI12
Fnan
sI13
Fnan
sI14
Fnan
sI15
Fnan
ssS'ref3flag'
p5
(dp6
I0
S'NoError'
p7
sI1
S'NoError'
p8
sI2
S'NoError'
p9
sI3
S'NoError'
p10
sI4
S'NoError'
p11
sI5
S'NoError'
p12
sI6
S'NoError'
p13
sI7
S'NoError'
p14
sI8
S'NoError'
p15
sI9
S'NoError'
p16
sI10
S'NoError'
p17
sI11
S'NoError'
p18
sI12
S'NoError'
p19
sI13
S'NoError'
p20
sI14
S'NoError'
p21
sI15
S'NoError'
p22
ssS'tabbyerr'
p23
(dp24
I0
F0.003
sI1
F0.003
sI2
F0.003
sI3
F0.003
sI4
F0.003
sI5
F0.003
sI6
F0.006
sI7
F0.006
sI8
F0.003
sI9
F0.005
sI10
F0.003
sI11
F0.003
sI12
F0.006
sI13
F0.006
sI14
F0.005
sI15
F0.003
ssS'ref2rel'
p25
(dp26
I0
F0.8921669880337839
sI1
F0.8928359415142249
sI2
F0.8921091121926424
sI3
F0.8910055622598236
sI4
F0.882298511072592
sI5
F0.8903399540269926
sI6
F0.9079644539866295
sI7
F0.9015094388270991
sI8
F0.8987812248469538
sI9
F0.8942243793550105
sI10
F0.8949364460695679
sI11
F0.8882638474538578
sI12
F0.8995458214099987
sI13
F0.8909882169666756
sI14
F0.8983178716863085
sI15
F0.889494960530988
ssS'ref2err'
p27
(dp28
I0
F0.0060794430490646485
sI1
Fnan
sI2
Fnan
sI3
Fnan
sI4
Fnan
sI5
Fnan
sI6
Fnan
sI7
Fnan
sI8
Fnan
sI9
Fnan
sI10
Fnan
sI11
Fnan
sI12
Fnan
sI13
Fnan
sI14
Fnan
sI15
Fnan
ssS'ref2mean'
p29
(dp30
I0
F0.8940489206395718
sI1
Fnan
sI2
Fnan
sI3
Fnan
sI4
Fnan
sI5
Fnan
sI6
Fnan
sI7
Fnan
sI8
Fnan
sI9
Fnan
sI10
Fnan
sI11
Fnan
sI12
Fnan
sI13
Fnan
sI14
Fnan
sI15
Fnan
ssS'tabbymag'
p31
(dp32
I0
F11.355
sI1
F11.515
sI2
F11.421
sI3
F11.454
sI4
F11.61
sI5
F11.356
sI6
F12.402
sI7
F12.428
sI8
F11.38
sI9
F12.278
sI10
F11.513
sI11
F11.471
sI12
F12.423
sI13
F12.526
sI14
F12.269
sI15
F11.41
ssS'tabbybkg'
p33
(dp34
I0
F54.61329
sI1
F55.90854
sI2
F55.46158
sI3
F55.10256
sI4
F63.72343
sI5
F53.68595
sI6
F145.6389
sI7
F140.0759
sI8
F51.32761
sI9
F131.2444
sI10
F58.85417
sI11
F54.48241
sI12
F149.5545
sI13
F139.5056
sI14
F141.2222
sI15
F51.47594
ssS'JD'
p35
(dp36
I0
F2458210.921701389
sI1
F2458210.945150463
sI2
F2458210.9191435184
sI3
F2458210.9490277776
sI4
F2458210.923009259
sI5
F2458210.9204166667
sI6
F2458211.002685185
sI7
F2458211.008402778
sI8
F2458210.9477314814
sI9
F2458211.007789352
sI10
F2458210.9243055554
sI11
F2458210.950324074
sI12
F2458211.003298611
sI13
F2458211.0090162037
sI14
F2458211.002071759
sI15
F2458210.946435185
ssS'ref3rmsmean'
p37
(dp38
I0
F5.8465015000000005
sI1
Fnan
sI2
Fnan
sI3
Fnan
sI4
Fnan
sI5
Fnan
sI6
Fnan
sI7
Fnan
sI8
Fnan
sI9
Fnan
sI10
Fnan
sI11
Fnan
sI12
Fnan
sI13
Fnan
sI14
Fnan
sI15
Fnan
ssS'ref1rmsmean'
p39
(dp40
I0
F3.2139451249999995
sI1
Fnan
sI2
Fnan
sI3
Fnan
sI4
Fnan
sI5
Fnan
sI6
Fnan
sI7
Fnan
sI8
Fnan
sI9
Fnan
sI10
Fnan
sI11
Fnan
sI12
Fnan
sI13
Fnan
sI14
Fnan
sI15
Fnan
ssS'relflux'
p41
(dp42
I0
F0.5419021460490011
sI1
F0.5364250424645841
sI2
F0.5373320906203123
sI3
F0.5396546727006578
sI4
F0.5437795008292812
sI5
F0.5410991150384009
sI6
F0.5475278796249164
sI7
F0.533836898035774
sI8
F0.5383969245173165
sI9
F0.545001369177722
sI10
F0.5408061762149654
sI11
F0.5391703842066322
sI12
F0.5450495287356936
sI13
F0.5503569112597662
sI14
F0.5419799618553672
sI15
F0.5400613621231786
ssS'sigerr'
p43
(dp44
I0
F0.0030532955465424104
sI1
Fnan
sI2
Fnan
sI3
Fnan
sI4
Fnan
sI5
Fnan
sI6
Fnan
sI7
Fnan
sI8
Fnan
sI9
Fnan
sI10
Fnan
sI11
Fnan
sI12
Fnan
sI13
Fnan
sI14
Fnan
sI15
Fnan
ssS'tabbyrmsmean'
p45
(dp46
I0
F1.3443933125
sI1
Fnan
sI2
Fnan
sI3
Fnan
sI4
Fnan
sI5
Fnan
sI6
Fnan
sI7
Fnan
sI8
Fnan
sI9
Fnan
sI10
Fnan
sI11
Fnan
sI12
Fnan
sI13
Fnan
sI14
Fnan
sI15
Fnan
ssS'tabbyflag'
p47
(dp48
I0
g7
sI1
g8
sI2
g9
sI3
g10
sI4
g11
sI5
g12
sI6
g13
sI7
g14
sI8
g15
sI9
g16
sI10
g17
sI11
g18
sI12
g19
sI13
g20
sI14
g21
sI15
g22
ssS'ref1err'
p49
(dp50
I0
F0.005414030969256345
sI1
Fnan
sI2
Fnan
sI3
Fnan
sI4
Fnan
sI5
Fnan
sI6
Fnan
sI7
Fnan
sI8
Fnan
sI9
Fnan
sI10
Fnan
sI11
Fnan
sI12
Fnan
sI13
Fnan
sI14
Fnan
sI15
Fnan
ssS'ref2magmeanerr'
p51
(dp52
I0
F0.4787956375114546
sI1
Fnan
sI2
Fnan
sI3
Fnan
sI4
Fnan
sI5
Fnan
sI6
Fnan
sI7
Fnan
sI8
Fnan
sI9
Fnan
sI10
Fnan
sI11
Fnan
sI12
Fnan
sI13
Fnan
sI14
Fnan
sI15
Fnan
ssS'ref2rmsmean'
p53
(dp54
I0
F4.461545624999999
sI1
Fnan
sI2
Fnan
sI3
Fnan
sI4
Fnan
sI5
Fnan
sI6
Fnan
sI7
Fnan
sI8
Fnan
sI9
Fnan
sI10
Fnan
sI11
Fnan
sI12
Fnan
sI13
Fnan
sI14
Fnan
sI15
Fnan
ssS'ref3rel'
p55
(dp56
I0
F1.4995976376508768
sI1
F1.5149142185436002
sI2
F1.508920870935258
sI3
F1.5004185786542297
sI4
F1.5055758759711066
sI5
F1.5122253160422412
sI6
F1.4964448064808435
sI7
F1.4949709208741375
sI8
F1.5117747929308665
sI9
F1.4988739454327737
sI10
F1.4960870192885098
sI11
F1.5108747940903695
sI12
F1.49358649088737
sI13
F1.4914818826209804
sI14
F1.5009803214965873
sI15
F1.5037434607429292
ssS'ref1flag'
p57
(dp58
I0
g7
sI1
g8
sI2
g9
sI3
g10
sI4
g11
sI5
g12
sI6
g13
sI7
g14
sI8
g15
sI9
g16
sI10
g17
sI11
g18
sI12
g19
sI13
g20
sI14
g21
sI15
g22
ssS'ref2bkg'
p59
(dp60
I0
F59.32595
sI1
F64.56819
sI2
F63.16536
sI3
F62.5281
sI4
F74.60261
sI5
F58.44796
sI6
F149.1064
sI7
F142.4605
sI8
F57.09564
sI9
F136.5282
sI10
F67.17592
sI11
F63.22668
sI12
F151.6859
sI13
F147.8438
sI14
F141.846
sI15
F59.35637
ssS'ref3magmean'
p61
(dp62
I0
F10.860625
sI1
Fnan
sI2
Fnan
sI3
Fnan
sI4
Fnan
sI5
Fnan
sI6
Fnan
sI7
Fnan
sI8
Fnan
sI9
Fnan
sI10
Fnan
sI11
Fnan
sI12
Fnan
sI13
Fnan
sI14
Fnan
sI15
Fnan
ssS'ref1mean'
p63
(dp64
I0
F0.7103841726027498
sI1
Fnan
sI2
Fnan
sI3
Fnan
sI4
Fnan
sI5
Fnan
sI6
Fnan
sI7
Fnan
sI8
Fnan
sI9
Fnan
sI10
Fnan
sI11
Fnan
sI12
Fnan
sI13
Fnan
sI14
Fnan
sI15
Fnan
ssS'ref1rms'
p65
(dp66
I0
F3.650241
sI1
F6.909762
sI2
F3.891247
sI3
F4.409051
sI4
F8.187055
sI5
F4.278893
sI6
F-4.345775
sI7
F6.690115
sI8
F-2.006953
sI9
F6.398728
sI10
F5.297438
sI11
F5.843702
sI12
F4.959916
sI13
F-2.995275
sI14
F-5.890888
sI15
F6.145865
ssS'ref2magmean'
p67
(dp68
I0
F11.2170625
sI1
Fnan
sI2
Fnan
sI3
Fnan
sI4
Fnan
sI5
Fnan
sI6
Fnan
sI7
Fnan
sI8
Fnan
sI9
Fnan
sI10
Fnan
sI11
Fnan
sI12
Fnan
sI13
Fnan
sI14
Fnan
sI15
Fnan
ssS'ref2flag'
p69
(dp70
I0
g7
sI1
g8
sI2
g9
sI3
g10
sI4
g11
sI5
g12
sI6
g13
sI7
g14
sI8
g15
sI9
g16
sI10
g17
sI11
g18
sI12
g19
sI13
g20
sI14
g21
sI15
g22
ssS'ref2'
p71
(dp72
I0
F12315.052
sI1
F10738.62
sI2
F11681.448
sI3
F11275.931999999999
sI4
F9630.5
sI5
F12308.624
sI6
F4701.98
sI7
F4685.232
sI8
F12173.616000000002
sI9
F5239.8240000000005
sI10
F10690.696000000002
sI11
F11087.956
sI12
F4602.596
sI13
F4120.72
sI14
F5329.684
sI15
F11723.508
ssS'airmass'
p73
(dp74
I0
F1.6581259999999998
sI1
F1.472575
sI2
F1.6822110000000001
sI3
F1.4465940000000002
sI4
F1.64625
sI5
F1.670121
sI6
F1.1903
sI7
F1.17139
sI8
F1.4551129999999999
sI9
F1.173354
sI10
F1.634491
sI11
F1.438233
sI12
F1.188201
sI13
F1.16944
sI14
F1.192417
sI15
F1.463716
ssS'ref1'
p75
(dp76
I0
F10500.204
sI1
F9059.132
sI2
F9903.44
sI3
F9628.144
sI4
F8318.608
sI5
F10444.98
sI6
F3912.0096000000003
sI7
F3943.982
sI8
F10187.032
sI9
F4454.2
sI10
F9092.688
sI11
F9450.18
sI12
F3890.5391999999997
sI13
F3538.2024
sI14
F4493.624
sI15
F10015.2
ssS'ref3'
p77
(dp78
I0
F17106.852
sI1
F14995.948
sI2
F16284.944
sI3
F15682.431999999999
sI4
F13511.872
sI5
F17204.288
sI6
F6445.18
sI7
F6450.2119999999995
sI8
F16902.131999999998
sI9
F7265.06
sI10
F14798.832
sI11
F15515.276000000002
sI12
F6342.616
sI13
F5711.571999999999
sI14
F7372.295999999999
sI15
F16344.72
ssS'ref1bkg'
p79
(dp80
I0
F57.9918
sI1
F61.42035
sI2
F61.03804
sI3
F59.85028
sI4
F69.58334
sI5
F57.44703
sI6
F149.2726
sI7
F141.4861
sI8
F55.55
sI9
F133.9917
sI10
F63.23648
sI11
F59.71873
sI12
F150.5056
sI13
F143.871
sI14
F140.7894
sI15
F55.65174
ssS'ref1mag'
p81
(dp82
I0
F10.947
sI1
F11.107
sI2
F11.011
sI3
F11.041
sI4
F11.2
sI5
F10.953
sI6
F12.019
sI7
F12.01
sI8
F10.98
sI9
F11.878
sI10
F11.103
sI11
F11.061
sI12
F12.025
sI13
F12.128
sI14
F11.869
sI15
F10.998
ssS'ref3magerr'
p83
(dp84
I0
F0.002
sI1
F0.002
sI2
F0.002
sI3
F0.002
sI4
F0.002
sI5
F0.002
sI6
F0.003
sI7
F0.003
sI8
F0.002
sI9
F0.003
sI10
F0.002
sI11
F0.002
sI12
F0.003
sI13
F0.004
sI14
F0.003
sI15
F0.002
ssS'tabbymagmean'
p85
(dp86
I0
F11.8006875
sI1
Fnan
sI2
Fnan
sI3
Fnan
sI4
Fnan
sI5
Fnan
sI6
Fnan
sI7
Fnan
sI8
Fnan
sI9
Fnan
sI10
Fnan
sI11
Fnan
sI12
Fnan
sI13
Fnan
sI14
Fnan
sI15
Fnan
ssS'ref1magmean'
p87
(dp88
I0
F11.395624999999999
sI1
Fnan
sI2
Fnan
sI3
Fnan
sI4
Fnan
sI5
Fnan
sI6
Fnan
sI7
Fnan
sI8
Fnan
sI9
Fnan
sI10
Fnan
sI11
Fnan
sI12
Fnan
sI13
Fnan
sI14
Fnan
sI15
Fnan
ssS'ref2mag'
p89
(dp90
I0
F10.774
sI1
F10.923
sI2
F10.831
sI3
F10.87
sI4
F11.041
sI5
F10.774
sI6
F11.819
sI7
F11.823
sI8
F10.786
sI9
F11.702
sI10
F10.927
sI11
F10.888
sI12
F11.842
sI13
F11.963
sI14
F11.683
sI15
F10.827
ssS'ref3rms'
p91
(dp92
I0
F5.179151
sI1
F9.724969
sI2
F7.369972
sI3
F8.095009
sI4
F8.757115
sI5
F3.42668
sI6
F2.917723
sI7
F4.669819
sI8
F7.790249
sI9
F5.462421
sI10
F9.075632
sI11
F6.407169
sI12
F6.995696
sI13
F6.812781
sI14
F-6.519467
sI15
F7.379105
ssS'ref3magmeanerr'
p93
(dp94
I0
F0.4838225397808582
sI1
Fnan
sI2
Fnan
sI3
Fnan
sI4
Fnan
sI5
Fnan
sI6
Fnan
sI7
Fnan
sI8
Fnan
sI9
Fnan
sI10
Fnan
sI11
Fnan
sI12
Fnan
sI13
Fnan
sI14
Fnan
sI15
Fnan
ssS'ref1rel'
p95
(dp96
I0
F0.7137678105400657
sI1
F0.7040438370677138
sI2
F0.708238660174684
sI3
F0.7142973512784382
sI4
F0.7189071198060424
sI5
F0.7078244261359231
sI6
F0.7018845338184794
sI7
F0.7083654679597868
sI8
F0.7007236408844925
sI9
F0.7123936535516842
sI10
F0.7134449880751028
sI11
F0.7104535268496699
sI12
F0.7109116205332523
sI13
F0.719710602573642
sI14
F0.7075470123555541
sI15
F0.7136325100394654
ssS'exposure'
p97
(dp98
I0
F25.0
sI1
F25.0
sI2
F25.0
sI3
F25.0
sI4
F25.0
sI5
F25.0
sI6
F25.0
sI7
F25.0
sI8
F25.0
sI9
F25.0
sI10
F25.0
sI11
F25.0
sI12
F25.0
sI13
F25.0
sI14
F25.0
sI15
F25.0
ssS'ref1magerr'
p99
(dp100
I0
F0.002
sI1
F0.002
sI2
F0.002
sI3
F0.002
sI4
F0.003
sI5
F0.002
sI6
F0.005
sI7
F0.005
sI8
F0.002
sI9
F0.004
sI10
F0.002
sI11
F0.002
sI12
F0.004
sI13
F0.005
sI14
F0.004
sI15
F0.002
ssS'ref2magerr'
p101
(dp102
I0
F0.002
sI1
F0.002
sI2
F0.002
sI3
F0.002
sI4
F0.002
sI5
F0.002
sI6
F0.004
sI7
F0.004
sI8
F0.002
sI9
F0.004
sI10
F0.002
sI11
F0.002
sI12
F0.004
sI13
F0.004
sI14
F0.003
sI15
F0.002
ssS'ref2rms'
p103
(dp104
I0
F7.148319
sI1
F8.542286
sI2
F6.355118
sI3
F6.374571
sI4
F8.129904
sI5
F6.298547
sI6
F5.855208
sI7
F-2.109281
sI8
F6.338076
sI9
F-3.712975
sI10
F4.796064
sI11
F4.626554
sI12
F4.275868
sI13
F4.986616
sI14
F-3.709724
sI15
F7.189579
ssS'name'
p105
(dp106
I0
S"KIC8462852-20180402at100715_-35-1-025-r'_cal.fts.mag.1"
p107
sI1
S"KIC8462852-20180402at104059_-35-1-025-r'_cal.fts.mag.1"
p108
sI2
S"KIC8462852-20180402at100332_-35-1-025-r'_cal.fts.mag.1"
p109
sI3
S"KIC8462852-20180402at104636_-35-1-025-r'_cal.fts.mag.1"
p110
sI4
S"KIC8462852-20180402at100908_-35-1-025-r'_cal.fts.mag.1"
p111
sI5
S"KIC8462852-20180402at100524_-35-1-025-r'_cal.fts.mag.1"
p112
sI6
S"KIC8462852-20180402at120352_-35-1-025-r'_cal.fts.mag.1"
p113
sI7
S"KIC8462852-20180402at121206_-35-1-025-r'_cal.fts.mag.1"
p114
sI8
S"KIC8462852-20180402at104444_-35-1-025-r'_cal.fts.mag.1"
p115
sI9
S"KIC8462852-20180402at121112_-35-1-025-r'_cal.fts.mag.1"
p116
sI10
S"KIC8462852-20180402at101100_-35-1-025-r'_cal.fts.mag.1"
p117
sI11
S"KIC8462852-20180402at104828_-35-1-025-r'_cal.fts.mag.1"
p118
sI12
S"KIC8462852-20180402at120445_-35-1-025-r'_cal.fts.mag.1"
p119
sI13
S"KIC8462852-20180402at121259_-35-1-025-r'_cal.fts.mag.1"
p120
sI14
S"KIC8462852-20180402at120258_-35-1-025-r'_cal.fts.mag.1"
p121
sI15
S"KIC8462852-20180402at104252_-35-1-025-r'_cal.fts.mag.1"
p122
ssS'ref3err'
p123
(dp124
I0
F0.007396469782449733
sI1
Fnan
sI2
Fnan
sI3
Fnan
sI4
Fnan
sI5
Fnan
sI6
Fnan
sI7
Fnan
sI8
Fnan
sI9
Fnan
sI10
Fnan
sI11
Fnan
sI12
Fnan
sI13
Fnan
sI14
Fnan
sI15
Fnan
ssS'tabby'
p125
(dp126
I0
F7211.2919999999995
sI1
F6221.404
sI2
F6782.892
sI3
F6581.36
sI4
F5702.611999999999
sI5
F7207.06
sI6
F2748.4384000000005
sI7
F2683.3179999999998
sI8
F7046.32
sI9
F3080.908
sI10
F6234.092
sI11
F6479.644
sI12
F2695.4064000000003
sI13
F2452.848
sI14
F3106.5576
sI15
F6855.795999999999
ssS'ref1magmeanerr'
p127
(dp128
I0
F0.4814015475671014
sI1
Fnan
sI2
Fnan
sI3
Fnan
sI4
Fnan
sI5
Fnan
sI6
Fnan
sI7
Fnan
sI8
Fnan
sI9
Fnan
sI10
Fnan
sI11
Fnan
sI12
Fnan
sI13
Fnan
sI14
Fnan
sI15
Fnan
ssS'filter'
p129
(dp130
I0
S"r'"
p131
sI1
S"r'"
p132
sI2
S"r'"
p133
sI3
S"r'"
p134
sI4
S"r'"
p135
sI5
S"r'"
p136
sI6
S"r'"
p137
sI7
S"r'"
p138
sI8
S"r'"
p139
sI9
S"r'"
p140
sI10
S"r'"
p141
sI11
S"r'"
p142
sI12
S"r'"
p143
sI13
S"r'"
p144
sI14
S"r'"
p145
sI15
S"r'"
p146
ssS'tabbymagerr'
p147
(dp148
I0
F0.4771710690797029
sI1
Fnan
sI2
Fnan
sI3
Fnan
sI4
Fnan
sI5
Fnan
sI6
Fnan
sI7
Fnan
sI8
Fnan
sI9
Fnan
sI10
Fnan
sI11
Fnan
sI12
Fnan
sI13
Fnan
sI14
Fnan
sI15
Fnan
ssS'tabbyrms'
p149
(dp150
I0
F3.780898
sI1
F5.039278
sI2
F-1.70091
sI3
F3.978743
sI4
F4.335046
sI5
F6.197635
sI6
F-4.599648
sI7
F-4.88061
sI8
F4.744992
sI9
F6.420297
sI10
F3.685576
sI11
F5.147935
sI12
F-4.569642
sI13
F-3.851219
sI14
F-7.189813
sI15
F4.971735
ssS'ref3mean'
p151
(dp152
I0
F1.5025294332901673
sI1
Fnan
sI2
Fnan
sI3
Fnan
sI4
Fnan
sI5
Fnan
sI6
Fnan
sI7
Fnan
sI8
Fnan
sI9
Fnan
sI10
Fnan
sI11
Fnan
sI12
Fnan
sI13
Fnan
sI14
Fnan
sI15
Fnan
ssS'median_JD'
p153
(dp154
I0
F2458210.9483796293
sI1
Fnan
sI2
Fnan
sI3
Fnan
sI4
Fnan
sI5
Fnan
sI6
Fnan
sI7
Fnan
sI8
Fnan
sI9
Fnan
sI10
Fnan
sI11
Fnan
sI12
Fnan
sI13
Fnan
sI14
Fnan
sI15
Fnan
ssS'error'
p155
(dp156
I0
F0.004227577084890983
sI1
Fnan
sI2
Fnan
sI3
Fnan
sI4
Fnan
sI5
Fnan
sI6
Fnan
sI7
Fnan
sI8
Fnan
sI9
Fnan
sI10
Fnan
sI11
Fnan
sI12
Fnan
sI13
Fnan
sI14
Fnan
sI15
Fnan
ssS'ref3bkg'
p157
(dp158
I0
F63.28043
sI1
F73.07384
sI2
F67.93295
sI3
F69.41878
sI4
F85.4896
sI5
F64.26675
sI6
F152.8527
sI7
F147.7988
sI8
F62.06686
sI9
F139.5231
sI10
F74.84486
sI11
F70.98434
sI12
F154.5037
sI13
F153.0932
sI14
F144.5386
sI15
F64.16519
ssS'ref3mag'
p159
(dp160
I0
F10.417
sI1
F10.56
sI2
F10.471
sI3
F10.511
sI4
F10.673
sI5
F10.411
sI6
F11.477
sI7
F11.476
sI8
F10.43
sI9
F11.347
sI10
F10.574
sI11
F10.523
sI12
F11.494
sI13
F11.608
sI14
F11.331
sI15
F10.467
ssS'mean'
p161
(dp162
I0
F0.5413987477158482
sI1
Fnan
sI2
Fnan
sI3
Fnan
sI4
Fnan
sI5
Fnan
sI6
Fnan
sI7
Fnan
sI8
Fnan
sI9
Fnan
sI10
Fnan
sI11
Fnan
sI12
Fnan
sI13
Fnan
sI14
Fnan
sI15
Fnan
sssS'z'
p163
(dp164
g3
(dp165
I0
F0.3633171750723288
sI1
Fnan
sI2
Fnan
sI3
Fnan
sI4
Fnan
sI5
Fnan
sI6
Fnan
sI7
Fnan
sI8
Fnan
sI9
Fnan
ssg5
(dp166
I0
S'NoError'
p167
sI1
S'NoError'
p168
sI2
S'NoError'
p169
sI3
S'NoError'
p170
sI4
S'NoError'
p171
sI5
S'NoError'
p172
sI6
S'NoError'
p173
sI7
S'NoError'
p174
sI8
S'NoError'
p175
sI9
S'NoError'
p176
ssg23
(dp177
I0
F0.01
sI1
F0.009
sI2
F0.009
sI3
F0.01
sI4
F0.01
sI5
F0.011
sI6
F0.011
sI7
F0.01
sI8
F0.01
sI9
F0.01
ssg25
(dp178
I0
F0.910857700395838
sI1
F0.9123977652929147
sI2
F0.9151200941684561
sI3
F0.9148881041672112
sI4
F0.9229555599097992
sI5
F0.9107704626161098
sI6
F0.9214355981551887
sI7
F0.9198884243197859
sI8
F0.9137221353129408
sI9
F0.906285585401589
ssg27
(dp179
I0
F0.0052466174374348985
sI1
Fnan
sI2
Fnan
sI3
Fnan
sI4
Fnan
sI5
Fnan
sI6
Fnan
sI7
Fnan
sI8
Fnan
sI9
Fnan
ssg29
(dp180
I0
F0.9148321429739834
sI1
Fnan
sI2
Fnan
sI3
Fnan
sI4
Fnan
sI5
Fnan
sI6
Fnan
sI7
Fnan
sI8
Fnan
sI9
Fnan
ssg31
(dp181
I0
F13.55
sI1
F13.434
sI2
F13.446
sI3
F13.533
sI4
F13.517
sI5
F13.673
sI6
F13.626
sI7
F13.577
sI8
F13.582
sI9
F13.569
ssg33
(dp182
I0
F10.96236
sI1
F11.58688
sI2
F10.50349
sI3
F10.52829
sI4
F11.35681
sI5
F12.54613
sI6
F12.78871
sI7
F11.62289
sI8
F11.20121
sI9
F11.35836
ssg35
(dp183
I0
F2458210.9269444444
sI1
F2458210.954247685
sI2
F2458210.9294675924
sI3
F2458210.9307175926
sI4
F2458210.9282175926
sI5
F2458210.956863426
sI6
F2458210.952939815
sI7
F2458210.9555555554
sI8
F2458210.9516550926
sI9
F2458210.925659722
ssg37
(dp184
I0
F2.1154257999999997
sI1
Fnan
sI2
Fnan
sI3
Fnan
sI4
Fnan
sI5
Fnan
sI6
Fnan
sI7
Fnan
sI8
Fnan
sI9
Fnan
ssg39
(dp185
I0
F0.28165600000000013
sI1
Fnan
sI2
Fnan
sI3
Fnan
sI4
Fnan
sI5
Fnan
sI6
Fnan
sI7
Fnan
sI8
Fnan
sI9
Fnan
ssg41
(dp186
I0
F0.3619119036502339
sI1
F0.35974014202304844
sI2
F0.367944802233501
sI3
F0.35251237346092373
sI4
F0.3575617857407179
sI5
F0.3661191623496464
sI6
F0.3627492344438285
sI7
F0.35923526210155043
sI8
F0.36732196474144885
sI9
F0.3672703183669839
ssg43
(dp187
I0
F0.003738846786991459
sI1
Fnan
sI2
Fnan
sI3
Fnan
sI4
Fnan
sI5
Fnan
sI6
Fnan
sI7
Fnan
sI8
Fnan
sI9
Fnan
ssg45
(dp188
I0
F1.76942049
sI1
Fnan
sI2
Fnan
sI3
Fnan
sI4
Fnan
sI5
Fnan
sI6
Fnan
sI7
Fnan
sI8
Fnan
sI9
Fnan
ssg47
(dp189
I0
g167
sI1
g168
sI2
g169
sI3
g170
sI4
g171
sI5
g172
sI6
g173
sI7
g174
sI8
g175
sI9
g176
ssg49
(dp190
I0
F0.005206340458971276
sI1
Fnan
sI2
Fnan
sI3
Fnan
sI4
Fnan
sI5
Fnan
sI6
Fnan
sI7
Fnan
sI8
Fnan
sI9
Fnan
ssg51
(dp191
I0
F0.07893070096961985
sI1
Fnan
sI2
Fnan
sI3
Fnan
sI4
Fnan
sI5
Fnan
sI6
Fnan
sI7
Fnan
sI8
Fnan
sI9
Fnan
ssg53
(dp192
I0
F1.4896154000000001
sI1
Fnan
sI2
Fnan
sI3
Fnan
sI4
Fnan
sI5
Fnan
sI6
Fnan
sI7
Fnan
sI8
Fnan
sI9
Fnan
ssg55
(dp193
I0
F1.5215409262024269
sI1
F1.5268984422152396
sI2
F1.5117548630010866
sI3
F1.5127522928282335
sI4
F1.5227795025982076
sI5
F1.5305435464843005
sI6
F1.5166685096304886
sI7
F1.533165038278902
sI8
F1.5276001336625076
sI9
F1.5365714575231877
ssg57
(dp194
I0
g167
sI1
g168
sI2
g169
sI3
g170
sI4
g171
sI5
g172
sI6
g173
sI7
g174
sI8
g175
sI9
g176
ssg59
(dp195
I0
F12.22798
sI1
F12.0056
sI2
F12.40547
sI3
F12.82174
sI4
F11.88197
sI5
F15.28656
sI6
F14.19306
sI7
F13.34743
sI8
F13.59133
sI9
F13.39594
ssg61
(dp196
I0
F12.1655
sI1
Fnan
sI2
Fnan
sI3
Fnan
sI4
Fnan
sI5
Fnan
sI6
Fnan
sI7
Fnan
sI8
Fnan
sI9
Fnan
ssg63
(dp197
I0
F0.6798364686062464
sI1
Fnan
sI2
Fnan
sI3
Fnan
sI4
Fnan
sI5
Fnan
sI6
Fnan
sI7
Fnan
sI8
Fnan
sI9
Fnan
ssg65
(dp198
I0
F-1.197656
sI1
F-3.095696
sI2
F-2.559811
sI3
F3.911292
sI4
F2.599029
sI5
F2.757376
sI6
F-3.147109
sI7
F4.849831
sI8
F2.448011
sI9
F-3.748707
ssg67
(dp199
I0
F12.513500000000002
sI1
Fnan
sI2
Fnan
sI3
Fnan
sI4
Fnan
sI5
Fnan
sI6
Fnan
sI7
Fnan
sI8
Fnan
sI9
Fnan
ssg69
(dp200
I0
g167
sI1
g168
sI2
g169
sI3
g170
sI4
g171
sI5
g172
sI6
g173
sI7
g174
sI8
g175
sI9
g176
ssg71
(dp201
I0
F2476.5208
sI1
F2776.0452
sI2
F2690.538
sI3
F2590.3172
sI4
F2607.6639999999998
sI5
F2186.6668
sI6
F2323.1144
sI7
F2450.0748000000003
sI8
F2374.3024
sI9
F2390.0036
ssg73
(dp202
I0
F1.6118219999999999
sI1
F1.413665
sI2
F1.590724
sI3
F1.580519
sI4
F1.601226
sI5
F1.3979840000000001
sI6
F1.4216950000000002
sI7
F1.405719
sI8
F1.4298879999999998
sI9
F1.623046
ssg75
(dp203
I0
F2018.2720000000002
sI1
F2248.8851999999997
sI2
F2190.6248
sI3
F2108.5084
sI4
F2080.8756
sI5
F1772.1924
sI6
F1865.7904
sI7
F1952.1935999999998
sI8
F1918.3
sI9
F1944.3
ssg77
(dp204
I0
F3419.5056
sI1
F3836.2792
sI2
F3689.5608
sI3
F3554.0796
sI4
F3569.8059999999996
sI5
F3029.6032
sI6
F3176.59
sI7
F3374.702
sI8
F3278.69
sI9
F3329.9836
ssg79
(dp205
I0
F12.85538
sI1
F11.73124
sI2
F11.60001
sI3
F11.53946
sI4
F11.71719
sI5
F14.3932
sI6
F14.06995
sI7
F12.76956
sI8
F13.23846
sI9
F12.68188
ssg81
(dp206
I0
F12.738
sI1
F12.62
sI2
F12.649
sI3
F12.69
sI4
F12.704
sI5
F12.879
sI6
F12.823
sI7
F12.774
sI8
F12.793
sI9
F12.778
ssg83
(dp207
I0
F0.004
sI1
F0.004
sI2
F0.004
sI3
F0.004
sI4
F0.004
sI5
F0.004
sI6
F0.004
sI7
F0.004
sI8
F0.004
sI9
F0.004
ssg85
(dp208
I0
F13.550699999999997
sI1
Fnan
sI2
Fnan
sI3
Fnan
sI4
Fnan
sI5
Fnan
sI6
Fnan
sI7
Fnan
sI8
Fnan
sI9
Fnan
ssg87
(dp209
I0
F12.7448
sI1
Fnan
sI2
Fnan
sI3
Fnan
sI4
Fnan
sI5
Fnan
sI6
Fnan
sI7
Fnan
sI8
Fnan
sI9
Fnan
ssg89
(dp210
I0
F12.515
sI1
F12.391
sI2
F12.425
sI3
F12.467
sI4
F12.459
sI5
F12.651
sI6
F12.585
sI7
F12.527
sI8
F12.561
sI9
F12.554
ssg91
(dp211
I0
F3.631006
sI1
F-1.29393
sI2
F3.246303
sI3
F3.134034
sI4
F3.345847
sI5
F4.516761
sI6
F3.326946
sI7
F1.975525
sI8
F-3.755557
sI9
F3.027323
ssg93
(dp212
I0
F0.07695344913214332
sI1
Fnan
sI2
Fnan
sI3
Fnan
sI4
Fnan
sI5
Fnan
sI6
Fnan
sI7
Fnan
sI8
Fnan
sI9
Fnan
ssg95
(dp213
I0
F0.6846210864998842
sI1
F0.6802101844852015
sI2
F0.6867056039947219
sI3
F0.686319086683985
sI4
F0.6736983263374813
sI5
F0.679486452963516
sI6
F0.6785057029610536
sI7
F0.6703067489212633
sI8
F0.6786847970996741
sI9
F0.6798266961156837
ssg97
(dp214
I0
F25.0
sI1
F25.0
sI2
F25.0
sI3
F25.0
sI4
F25.0
sI5
F25.0
sI6
F25.0
sI7
F25.0
sI8
F25.0
sI9
F25.0
ssg99
(dp215
I0
F0.006
sI1
F0.005
sI2
F0.005
sI3
F0.005
sI4
F0.005
sI5
F0.006
sI6
F0.006
sI7
F0.006
sI8
F0.006
sI9
F0.006
ssg101
(dp216
I0
F0.005
sI1
F0.004
sI2
F0.005
sI3
F0.005
sI4
F0.005
sI5
F0.005
sI6
F0.005
sI7
F0.005
sI8
F0.005
sI9
F0.005
ssg103
(dp217
I0
F4.436329
sI1
F1.965447
sI2
F-2.082479
sI3
F2.703629
sI4
F3.925796
sI5
F-3.236483
sI6
F4.417371
sI7
F3.632294
sI8
F-2.784349
sI9
F1.918599
ssg105
(dp218
I0
S"KIC8462852-20180402at101448_-35-1-025-z'_cal.fts.mag.1"
p219
sI1
S"KIC8462852-20180402at105407_-35-1-025-z'_cal.fts.mag.1"
p220
sI2
S"KIC8462852-20180402at101825_-35-1-025-z'_cal.fts.mag.1"
p221
sI3
S"KIC8462852-20180402at102014_-35-1-025-z'_cal.fts.mag.1"
p222
sI4
S"KIC8462852-20180402at101638_-35-1-025-z'_cal.fts.mag.1"
p223
sI5
S"KIC8462852-20180402at105753_-35-1-025-z'_cal.fts.mag.1"
p224
sI6
S"KIC8462852-20180402at105213_-35-1-025-z'_cal.fts.mag.1"
p225
sI7
S"KIC8462852-20180402at105600_-35-1-025-z'_cal.fts.mag.1"
p226
sI8
S"KIC8462852-20180402at105022_-35-1-025-z'_cal.fts.mag.1"
p227
sI9
S"KIC8462852-20180402at101256_-35-1-025-z'_cal.fts.mag.1"
p228
ssg123
(dp229
I0
F0.008458746690106753
sI1
Fnan
sI2
Fnan
sI3
Fnan
sI4
Fnan
sI5
Fnan
sI6
Fnan
sI7
Fnan
sI8
Fnan
sI9
Fnan
ssg125
(dp230
I0
F954.7596000000001
sI1
F1062.5775999999998
sI2
F1051.1844
sI3
F969.7503999999999
sI4
F984.2896000000001
sI5
F852.87
sI6
F890.6092
sI7
F931.2539999999999
sI8
F927.034
sI9
F938.2883999999999
ssg127
(dp231
I0
F0.08018700365742307
sI1
Fnan
sI2
Fnan
sI3
Fnan
sI4
Fnan
sI5
Fnan
sI6
Fnan
sI7
Fnan
sI8
Fnan
sI9
Fnan
ssg129
(dp232
I0
S"z'"
p233
sI1
S"z'"
p234
sI2
S"z'"
p235
sI3
S"z'"
p236
sI4
S"z'"
p237
sI5
S"z'"
p238
sI6
S"z'"
p239
sI7
S"z'"
p240
sI8
S"z'"
p241
sI9
S"z'"
p242
ssg147
(dp243
I0
F0.07353313689910321
sI1
Fnan
sI2
Fnan
sI3
Fnan
sI4
Fnan
sI5
Fnan
sI6
Fnan
sI7
Fnan
sI8
Fnan
sI9
Fnan
ssg149
(dp244
I0
F4.070292
sI1
F-3.257155
sI2
F3.393045
sI3
F3.546029
sI4
F2.964998
sI5
F3.806101
sI6
F2.504136
sI7
F2.494523
sI8
F-2.817261
sI9
F0.9894969
ssg151
(dp245
I0
F1.5240274712424582
sI1
Fnan
sI2
Fnan
sI3
Fnan
sI4
Fnan
sI5
Fnan
sI6
Fnan
sI7
Fnan
sI8
Fnan
sI9
Fnan
ssg153
(dp246
I0
F2458210.9411863424
sI1
Fnan
sI2
Fnan
sI3
Fnan
sI4
Fnan
sI5
Fnan
sI6
Fnan
sI7
Fnan
sI8
Fnan
sI9
Fnan
ssg155
(dp247
I0
F0.005064913531619129
sI1
Fnan
sI2
Fnan
sI3
Fnan
sI4
Fnan
sI5
Fnan
sI6
Fnan
sI7
Fnan
sI8
Fnan
sI9
Fnan
ssg157
(dp248
I0
F15.17796
sI1
F12.83633
sI2
F13.49175
sI3
F13.33476
sI4
F14.05338
sI5
F16.41876
sI6
F15.48485
sI7
F13.85575
sI8
F15.49273
sI9
F14.47244
ssg159
(dp249
I0
F12.165
sI1
F12.04
sI2
F12.083
sI3
F12.123
sI4
F12.118
sI5
F12.297
sI6
F12.245
sI7
F12.179
sI8
F12.211
sI9
F12.194
ssg161
(dp250
I0
F0.3622366949111883
sI1
Fnan
sI2
Fnan
sI3
Fnan
sI4
Fnan
sI5
Fnan
sI6
Fnan
sI7
Fnan
sI8
Fnan
sI9
Fnan
sssS'g'
p251
(dp252
g3
(dp253
I0
F0.8503511079566786
sI1
Fnan
sI2
Fnan
sI3
Fnan
sI4
Fnan
sI5
Fnan
sI6
Fnan
sI7
Fnan
sI8
Fnan
sI9
Fnan
sI10
Fnan
sI11
Fnan
sI12
Fnan
sI13
Fnan
sI14
Fnan
sI15
Fnan
sI16
Fnan
sI17
Fnan
sI18
Fnan
sI19
Fnan
sI20
Fnan
ssg5
(dp254
I0
S'NoError'
p255
sI1
S'NoError'
p256
sI2
S'NoError'
p257
sI3
S'NoError'
p258
sI4
S'NoError'
p259
sI5
S'NoError'
p260
sI6
S'NoError'
p261
sI7
S'NoError'
p262
sI8
S'NoError'
p263
sI9
S'NoError'
p264
sI10
S'NoError'
p265
sI11
S'NoError'
p266
sI12
S'NoError'
p267
sI13
S'NoError'
p268
sI14
S'NoError'
p269
sI15
S'NoError'
p270
sI16
S'NoError'
p271
sI17
S'NoError'
p272
sI18
S'NoError'
p273
sI19
S'NoError'
p274
sI20
S'NoError'
p275
ssg23
(dp276
I0
F0.004
sI1
F0.003
sI2
F0.003
sI3
F0.005
sI4
F0.003
sI5
F0.003
sI6
F0.003
sI7
F0.003
sI8
F0.004
sI9
F0.004
sI10
F0.006
sI11
F0.003
sI12
F0.003
sI13
F0.003
sI14
F0.006
sI15
F0.006
sI16
F0.003
sI17
F0.004
sI18
F0.003
sI19
F0.006
sI20
F0.005
ssg25
(dp277
I0
F0.8831293213297242
sI1
F0.8815056336303321
sI2
F0.8797473190723624
sI3
F0.8740982910977311
sI4
F0.8744569535350041
sI5
F0.8833713182458227
sI6
F0.8871349355899024
sI7
F0.8835223674226057
sI8
F0.8805172524116283
sI9
F0.8748726529812406
sI10
F0.8802406075170043
sI11
F0.8680449529036179
sI12
F0.8843639530067807
sI13
F0.8823824930922397
sI14
F0.8760379034359888
sI15
F0.868294491096121
sI16
F0.8808102754876596
sI17
F0.8831536314060314
sI18
F0.8703633743083312
sI19
F0.8791167201505455
sI20
F0.880003915490072
ssg27
(dp278
I0
F0.005358260994849598
sI1
Fnan
sI2
Fnan
sI3
Fnan
sI4
Fnan
sI5
Fnan
sI6
Fnan
sI7
Fnan
sI8
Fnan
sI9
Fnan
sI10
Fnan
sI11
Fnan
sI12
Fnan
sI13
Fnan
sI14
Fnan
sI15
Fnan
sI16
Fnan
sI17
Fnan
sI18
Fnan
sI19
Fnan
sI20
Fnan
ssg29
(dp279
I0
F0.8788175411052735
sI1
Fnan
sI2
Fnan
sI3
Fnan
sI4
Fnan
sI5
Fnan
sI6
Fnan
sI7
Fnan
sI8
Fnan
sI9
Fnan
sI10
Fnan
sI11
Fnan
sI12
Fnan
sI13
Fnan
sI14
Fnan
sI15
Fnan
sI16
Fnan
sI17
Fnan
sI18
Fnan
sI19
Fnan
sI20
Fnan
ssg31
(dp280
I0
F11.85
sI1
F11.589
sI2
F11.55
sI3
F12.333
sI4
F11.553
sI5
F11.629
sI6
F11.741
sI7
F11.641
sI8
F11.759
sI9
F11.868
sI10
F12.461
sI11
F11.696
sI12
F11.683
sI13
F11.53
sI14
F12.439
sI15
F12.371
sI16
F11.511
sI17
F11.813
sI18
F11.505
sI19
F12.442
sI20
F12.331
ssg33
(dp281
I0
F82.5246
sI1
F74.84917
sI2
F65.86395
sI3
F111.8851
sI4
F73.701
sI5
F69.45067
sI6
F78.33548
sI7
F63.70407
sI8
F80.25809
sI9
F76.86617
sI10
F122.8453
sI11
F63.82597
sI12
F64.05065
sI13
F57.45635
sI14
F120.0309
sI15
F108.8754
sI16
F65.37865
sI17
F74.75163
sI18
F56.67115
sI19
F112.6155
sI20
F117.5371
ssg35
(dp282
I0
F2458210.913888889
sI1
F2458210.9127662037
sI2
F2458210.9400347224
sI3
F2458211.0014351853
sI4
F2458210.915196759
sI5
F2458210.9425694444
sI6
F2458210.9164930554
sI7
F2458210.9665162037
sI8
F2458210.9178125
sI9
F2458210.941296296
sI10
F2458211.005925926
sI11
F2458210.967824074
sI12
F2458210.9652199075
sI13
F2458210.970439815
sI14
F2458211.006539352
sI15
F2458211.0008217595
sI16
F2458210.93875
sI17
F2458210.9438310186
sI18
F2458210.9691435187
sI19
F2458211.000208333
sI20
F2458211.0071527776
ssg37
(dp283
I0
F3.455950380952381
sI1
Fnan
sI2
Fnan
sI3
Fnan
sI4
Fnan
sI5
Fnan
sI6
Fnan
sI7
Fnan
sI8
Fnan
sI9
Fnan
sI10
Fnan
sI11
Fnan
sI12
Fnan
sI13
Fnan
sI14
Fnan
sI15
Fnan
sI16
Fnan
sI17
Fnan
sI18
Fnan
sI19
Fnan
sI20
Fnan
ssg39
(dp284
I0
F2.021268333333334
sI1
Fnan
sI2
Fnan
sI3
Fnan
sI4
Fnan
sI5
Fnan
sI6
Fnan
sI7
Fnan
sI8
Fnan
sI9
Fnan
sI10
Fnan
sI11
Fnan
sI12
Fnan
sI13
Fnan
sI14
Fnan
sI15
Fnan
sI16
Fnan
sI17
Fnan
sI18
Fnan
sI19
Fnan
sI20
Fnan
ssg41
(dp285
I0
F0.8501365967028246
sI1
F0.8384397203764391
sI2
F0.8442793931909163
sI3
F0.8593961547366836
sI4
F0.8474026431887037
sI5
F0.846310568362376
sI6
F0.8428275413336893
sI7
F0.8527241388016659
sI8
F0.8407723120875492
sI9
F0.8544008720835208
sI10
F0.8528114203789879
sI11
F0.8409425685493271
sI12
F0.8523731522658907
sI13
F0.8550089609148032
sI14
F0.8584753399633617
sI15
F0.8611203308332694
sI16
F0.8566944544979217
sI17
F0.8402281828617496
sI18
F0.8522918468290812
sI19
F0.8487160410279564
sI20
F0.8608788633998854
ssg43
(dp286
I0
F0.0063265506479530794
sI1
Fnan
sI2
Fnan
sI3
Fnan
sI4
Fnan
sI5
Fnan
sI6
Fnan
sI7
Fnan
sI8
Fnan
sI9
Fnan
sI10
Fnan
sI11
Fnan
sI12
Fnan
sI13
Fnan
sI14
Fnan
sI15
Fnan
sI16
Fnan
sI17
Fnan
sI18
Fnan
sI19
Fnan
sI20
Fnan
ssg45
(dp287
I0
F3.195796904761905
sI1
Fnan
sI2
Fnan
sI3
Fnan
sI4
Fnan
sI5
Fnan
sI6
Fnan
sI7
Fnan
sI8
Fnan
sI9
Fnan
sI10
Fnan
sI11
Fnan
sI12
Fnan
sI13
Fnan
sI14
Fnan
sI15
Fnan
sI16
Fnan
sI17
Fnan
sI18
Fnan
sI19
Fnan
sI20
Fnan
ssg47
(dp288
I0
g255
sI1
g256
sI2
g257
sI3
g258
sI4
g259
sI5
g260
sI6
g261
sI7
g262
sI8
g263
sI9
g264
sI10
g265
sI11
g266
sI12
g267
sI13
g268
sI14
g269
sI15
g270
sI16
g271
sI17
g272
sI18
g273
sI19
g274
sI20
g275
ssg49
(dp289
I0
F0.005468902058649316
sI1
Fnan
sI2
Fnan
sI3
Fnan
sI4
Fnan
sI5
Fnan
sI6
Fnan
sI7
Fnan
sI8
Fnan
sI9
Fnan
sI10
Fnan
sI11
Fnan
sI12
Fnan
sI13
Fnan
sI14
Fnan
sI15
Fnan
sI16
Fnan
sI17
Fnan
sI18
Fnan
sI19
Fnan
sI20
Fnan
ssg51
(dp290
I0
F0.3625330789505055
sI1
Fnan
sI2
Fnan
sI3
Fnan
sI4
Fnan
sI5
Fnan
sI6
Fnan
sI7
Fnan
sI8
Fnan
sI9
Fnan
sI10
Fnan
sI11
Fnan
sI12
Fnan
sI13
Fnan
sI14
Fnan
sI15
Fnan
sI16
Fnan
sI17
Fnan
sI18
Fnan
sI19
Fnan
sI20
Fnan
ssg53
(dp291
I0
F2.377765047619048
sI1
Fnan
sI2
Fnan
sI3
Fnan
sI4
Fnan
sI5
Fnan
sI6
Fnan
sI7
Fnan
sI8
Fnan
sI9
Fnan
sI10
Fnan
sI11
Fnan
sI12
Fnan
sI13
Fnan
sI14
Fnan
sI15
Fnan
sI16
Fnan
sI17
Fnan
sI18
Fnan
sI19
Fnan
sI20
Fnan
ssg55
(dp292
I0
F1.5190370159227091
sI1
F1.5169709359047845
sI2
F1.5297727153551444
sI3
F1.5243766633048152
sI4
F1.525343454828618
sI5
F1.5088536252908635
sI6
F1.5097338085404557
sI7
F1.5135084649681438
sI8
F1.5139614112694562
sI9
F1.5147817428509336
sI10
F1.5191415132757495
sI11
F1.543930901433593
sI12
F1.5259630061601275
sI13
F1.515884739034797
sI14
F1.51787230839859
sI15
F1.5098610664702223
sI16
F1.5089038423528989
sI17
F1.5265097733961843
sI18
F1.5248480674433877
sI19
F1.5165072498059116
sI20
F1.5274979220214266
ssg57
(dp293
I0
g255
sI1
g256
sI2
g257
sI3
g258
sI4
g259
sI5
g260
sI6
g261
sI7
g262
sI8
g263
sI9
g264
sI10
g265
sI11
g266
sI12
g267
sI13
g268
sI14
g269
sI15
g270
sI16
g271
sI17
g272
sI18
g273
sI19
g274
sI20
g275
ssg59
(dp294
I0
F81.44891
sI1
F74.44913
sI2
F66.0127
sI3
F113.5901
sI4
F73.4595
sI5
F67.743
sI6
F78.39582
sI7
F62.985
sI8
F77.94978
sI9
F77.12353
sI10
F122.8764
sI11
F63.01558
sI12
F65.70149
sI13
F58.68012
sI14
F122.1297
sI15
F111.4013
sI16
F65.96617
sI17
F74.30483
sI18
F58.89602
sI19
F112.7696
sI20
F118.9741
ssg61
(dp295
I0
F11.414142857142858
sI1
Fnan
sI2
Fnan
sI3
Fnan
sI4
Fnan
sI5
Fnan
sI6
Fnan
sI7
Fnan
sI8
Fnan
sI9
Fnan
sI10
Fnan
sI11
Fnan
sI12
Fnan
sI13
Fnan
sI14
Fnan
sI15
Fnan
sI16
Fnan
sI17
Fnan
sI18
Fnan
sI19
Fnan
sI20
Fnan
ssg63
(dp296
I0
F0.7135999086836341
sI1
Fnan
sI2
Fnan
sI3
Fnan
sI4
Fnan
sI5
Fnan
sI6
Fnan
sI7
Fnan
sI8
Fnan
sI9
Fnan
sI10
Fnan
sI11
Fnan
sI12
Fnan
sI13
Fnan
sI14
Fnan
sI15
Fnan
sI16
Fnan
sI17
Fnan
sI18
Fnan
sI19
Fnan
sI20
Fnan
ssg65
(dp297
I0
F5.944612
sI1
F2.897359
sI2
F-3.105601
sI3
F6.568046
sI4
F-3.027461
sI5
F2.368053
sI6
F-3.977222
sI7
F4.924068
sI8
F5.399298
sI9
F3.865479
sI10
F3.099632
sI11
F2.833298
sI12
F-6.188103
sI13
F2.854954
sI14
F4.120729
sI15
F4.387769
sI16
F3.586038
sI17
F5.147642
sI18
F3.007019
sI19
F-3.527331
sI20
F1.268357
ssg67
(dp298
I0
F11.790666666666668
sI1
Fnan
sI2
Fnan
sI3
Fnan
sI4
Fnan
sI5
Fnan
sI6
Fnan
sI7
Fnan
sI8
Fnan
sI9
Fnan
sI10
Fnan
sI11
Fnan
sI12
Fnan
sI13
Fnan
sI14
Fnan
sI15
Fnan
sI16
Fnan
sI17
Fnan
sI18
Fnan
sI19
Fnan
sI20
Fnan
ssg69
(dp299
I0
g255
sI1
g256
sI2
g257
sI3
g258
sI4
g259
sI5
g260
sI6
g261
sI7
g262
sI8
g263
sI9
g264
sI10
g265
sI11
g266
sI12
g267
sI13
g268
sI14
g269
sI15
g270
sI16
g271
sI17
g272
sI18
g273
sI19
g274
sI20
g275
ssg71
(dp300
I0
F4938.74
sI1
F6363.092
sI2
F6539.38
sI3
F3109.8912
sI4
F6471.715999999999
sI5
F6085.28
sI6
F5525.268
sI7
F5970.724
sI8
F5421.7480000000005
sI9
F4803.84
sI10
F2799.9996
sI11
F5686.592
sI12
F5752.432
sI13
F6589.996
sI14
F2827.5108
sI15
F2982.4332
sI16
F6687.36
sI17
F5173.544
sI18
F6704.188
sI19
F2859.8808000000004
sI20
F3124.9152000000004
ssg73
(dp301
I0
F1.733455
sI1
F1.746659
sI2
F1.50862
sI3
F1.1946350000000001
sI4
F1.7203490000000001
sI5
F1.490472
sI6
F1.707412
sI7
F1.343984
sI8
F1.6946759999999998
sI9
F1.4994370000000001
sI10
F1.179411
sI11
F1.3370959999999998
sI12
F1.3509
sI13
F1.323756
sI14
F1.177395
sI15
F1.196766
sI16
F1.517886
sI17
F1.4815530000000001
sI18
F1.33039
sI19
F1.1989459999999998
sI20
F1.175435
ssg75
(dp302
I0
F4224.776
sI1
F5465.2480000000005
sI2
F5589.376
sI3
F2692.8635999999997
sI4
F5597.12
sI5
F5236.184
sI6
F4721.492
sI7
F5121.58
sI8
F4673.22
sI9
F4178.592000000001
sI10
F2406.8928
sI11
F4916.696
sI12
F4889.556
sI13
F5655.468000000001
sI14
F2449.9608
sI15
F2631.5032
sI16
F5779.168000000001
sI17
F4405.112
sI18
F5840.852
sI19
F2467.0756
sI20
F2673.5084
ssg77
(dp303
I0
F6959.86
sI1
F8971.624
sI2
F9277.12
sI3
F4422.792
sI4
F9204.56
sI5
F8541.216
sI6
F7734.94
sI7
F8394.148000000001
sI8
F7641.696
sI9
F6803.2119999999995
sI10
F3955.0032
sI11
F8185.371999999999
sI12
F8119.64
sI13
F9281.356
sI14
F4005.264
sI15
F4238.1320000000005
sI16
F9405.396
sI17
F7310.956
sI18
F9564.64
sI19
F4039.184
sI20
F4428.54
ssg79
(dp304
I0
F82.15214
sI1
F74.03641
sI2
F65.9267
sI3
F111.3896
sI4
F72.19474
sI5
F68.67916
sI6
F76.02278
sI7
F61.61539
sI8
F76.13859
sI9
F74.99554
sI10
F121.2822
sI11
F62.77845
sI12
F65.1248
sI13
F57.93493
sI14
F119.8334
sI15
F108.136
sI16
F64.70091
sI17
F73.72403
sI18
F57.14349
sI19
F112.7683
sI20
F117.1699
ssg81
(dp305
I0
F11.935
sI1
F11.656
sI2
F11.632
sI3
F12.424
sI4
F11.63
sI5
F11.702
sI6
F11.815
sI7
F11.726
sI8
F11.826
sI9
F11.947
sI10
F12.546
sI11
F11.771
sI12
F11.777
sI13
F11.619
sI14
F12.527
sI15
F12.449
sI16
F11.595
sI17
F11.89
sI18
F11.584
sI19
F12.52
sI20
F12.432
ssg83
(dp306
I0
F0.003
sI1
F0.002
sI2
F0.002
sI3
F0.004
sI4
F0.002
sI5
F0.002
sI6
F0.003
sI7
F0.002
sI8
F0.003
sI9
F0.003
sI10
F0.004
sI11
F0.003
sI12
F0.003
sI13
F0.002
sI14
F0.004
sI15
F0.004
sI16
F0.002
sI17
F0.003
sI18
F0.002
sI19
F0.004
sI20
F0.004
ssg85
(dp307
I0
F11.871190476190474
sI1
Fnan
sI2
Fnan
sI3
Fnan
sI4
Fnan
sI5
Fnan
sI6
Fnan
sI7
Fnan
sI8
Fnan
sI9
Fnan
sI10
Fnan
sI11
Fnan
sI12
Fnan
sI13
Fnan
sI14
Fnan
sI15
Fnan
sI16
Fnan
sI17
Fnan
sI18
Fnan
sI19
Fnan
sI20
Fnan
ssg87
(dp308
I0
F11.952523809523809
sI1
Fnan
sI2
Fnan
sI3
Fnan
sI4
Fnan
sI5
Fnan
sI6
Fnan
sI7
Fnan
sI8
Fnan
sI9
Fnan
sI10
Fnan
sI11
Fnan
sI12
Fnan
sI13
Fnan
sI14
Fnan
sI15
Fnan
sI16
Fnan
sI17
Fnan
sI18
Fnan
sI19
Fnan
sI20
Fnan
ssg89
(dp309
I0
F11.766
sI1
F11.491
sI2
F11.461
sI3
F12.268
sI4
F11.472
sI5
F11.539
sI6
F11.644
sI7
F11.56
sI8
F11.665
sI9
F11.796
sI10
F12.382
sI11
F11.613
sI12
F11.6
sI13
F11.453
sI14
F12.371
sI15
F12.314
sI16
F11.437
sI17
F11.716
sI18
F11.434
sI19
F12.359
sI20
F12.263
ssg91
(dp310
I0
F6.87235
sI1
F4.821982
sI2
F5.184873
sI3
F4.361767
sI4
F4.202664
sI5
F-5.003429
sI6
F5.888609
sI7
F5.946253
sI8
F6.430664
sI9
F7.033837
sI10
F5.946506
sI11
F4.16252
sI12
F3.617664
sI13
F3.216828
sI14
F-5.487681
sI15
F-3.47806
sI16
F3.488468
sI17
F6.662876
sI18
F5.060188
sI19
F-1.3832
sI20
F5.029279
ssg93
(dp311
I0
F0.3615904154861251
sI1
Fnan
sI2
Fnan
sI3
Fnan
sI4
Fnan
sI5
Fnan
sI6
Fnan
sI7
Fnan
sI8
Fnan
sI9
Fnan
sI10
Fnan
sI11
Fnan
sI12
Fnan
sI13
Fnan
sI14
Fnan
sI15
Fnan
sI16
Fnan
sI17
Fnan
sI18
Fnan
sI19
Fnan
sI20
Fnan
ssg95
(dp312
I0
F0.7101299312524163
sI1
F0.7127941593440662
sI2
F0.7067778585654222
sI3
F0.7149812433370355
sI4
F0.7140879632382079
sI5
F0.7159861117796088
sI6
F0.7121294024950439
sI7
F0.7130700503283286
sI8
F0.715465232598693
sI9
F0.7200091806257094
sI10
F0.7126252560546681
sI11
F0.7088680449286057
sI12
F0.7049496282891264
sI13
F0.7126636722567807
sI14
F0.717120312526618
sI15
F0.7288911953873084
sI16
F0.7182322282149807
sI17
F0.705692979294325
sI18
F0.718042135549039
sI19
F0.7151913111469833
sI20
F0.70789018514335
ssg97
(dp313
I0
F25.0
sI1
F25.0
sI2
F25.0
sI3
F25.0
sI4
F25.0
sI5
F25.0
sI6
F25.0
sI7
F25.0
sI8
F25.0
sI9
F25.0
sI10
F25.0
sI11
F25.0
sI12
F25.0
sI13
F25.0
sI14
F25.0
sI15
F25.0
sI16
F25.0
sI17
F25.0
sI18
F25.0
sI19
F25.0
sI20
F25.0
ssg99
(dp314
I0
F0.004
sI1
F0.003
sI2
F0.003
sI3
F0.006
sI4
F0.003
sI5
F0.003
sI6
F0.004
sI7
F0.003
sI8
F0.004
sI9
F0.004
sI10
F0.006
sI11
F0.003
sI12
F0.003
sI13
F0.003
sI14
F0.006
sI15
F0.006
sI16
F0.003
sI17
F0.004
sI18
F0.003
sI19
F0.006
sI20
F0.006
ssg101
(dp315
I0
F0.004
sI1
F0.003
sI2
F0.003
sI3
F0.005
sI4
F0.003
sI5
F0.003
sI6
F0.003
sI7
F0.003
sI8
F0.003
sI9
F0.004
sI10
F0.006
sI11
F0.003
sI12
F0.003
sI13
F0.003
sI14
F0.006
sI15
F0.005
sI16
F0.003
sI17
F0.003
sI18
F0.003
sI19
F0.005
sI20
F0.005
ssg103
(dp316
I0
F7.698729
sI1
F1.840375
sI2
F3.732562
sI3
F-4.467771
sI4
F4.374622
sI5
F3.220613
sI6
F3.922336
sI7
F7.21545
sI8
F6.202075
sI9
F6.856631
sI10
F4.611292
sI11
F5.012647
sI12
F-1.926259
sI13
F-3.377115
sI14
F-3.020011
sI15
F-3.873324
sI16
F4.502517
sI17
F5.604417
sI18
F3.990536
sI19
F3.774039
sI20
F-5.961295
ssg105
(dp317
I0
S"KIC8462852-20180402at095600_-35-1-025-g'_cal.fts.mag.1"
p318
sI1
S"KIC8462852-20180402at095402_-35-1-025-g'_cal.fts.mag.1"
p319
sI2
S"KIC8462852-20180402at103339_-35-1-025-g'_cal.fts.mag.1"
p320
sI3
S"KIC8462852-20180402at120204_-35-1-025-g'_cal.fts.mag.1"
p321
sI4
S"KIC8462852-20180402at095752_-35-1-025-g'_cal.fts.mag.1"
p322
sI5
S"KIC8462852-20180402at103718_-35-1-025-g'_cal.fts.mag.1"
p323
sI6
S"KIC8462852-20180402at095945_-35-1-025-g'_cal.fts.mag.1"
p324
sI7
S"KIC8462852-20180402at111147_-35-1-025-g'_cal.fts.mag.1"
p325
sI8
S"KIC8462852-20180402at100138_-35-1-025-g'_cal.fts.mag.1"
p326
sI9
S"KIC8462852-20180402at103528_-35-1-025-g'_cal.fts.mag.1"
p327
sI10
S"KIC8462852-20180402at120822_-35-1-025-g'_cal.fts.mag.1"
p328
sI11
S"KIC8462852-20180402at111340_-35-1-025-g'_cal.fts.mag.1"
p329
sI12
S"KIC8462852-20180402at110936_-35-1-025-g'_cal.fts.mag.1"
p330
sI13
S"KIC8462852-20180402at111726_-35-1-025-g'_cal.fts.mag.1"
p331
sI14
S"KIC8462852-20180402at120925_-35-1-025-g'_cal.fts.mag.1"
p332
sI15
S"KIC8462852-20180402at120111_-35-1-025-g'_cal.fts.mag.1"
p333
sI16
S"KIC8462852-20180402at103129_-35-1-025-g'_cal.fts.mag.1"
p334
sI17
S"KIC8462852-20180402at103907_-35-1-025-g'_cal.fts.mag.1"
p335
sI18
S"KIC8462852-20180402at111534_-35-1-025-g'_cal.fts.mag.1"
p336
sI19
S"KIC8462852-20180402at120012_-36-1-025-g'_cal.fts.mag.1"
p337
sI20
S"KIC8462852-20180402at121018_-35-1-025-g'_cal.fts.mag.1"
p338
ssg123
(dp339
I0
F0.008594448673164338
sI1
Fnan
sI2
Fnan
sI3
Fnan
sI4
Fnan
sI5
Fnan
sI6
Fnan
sI7
Fnan
sI8
Fnan
sI9
Fnan
sI10
Fnan
sI11
Fnan
sI12
Fnan
sI13
Fnan
sI14
Fnan
sI15
Fnan
sI16
Fnan
sI17
Fnan
sI18
Fnan
sI19
Fnan
sI20
Fnan
ssg125
(dp340
I0
F4569.024
sI1
F5813.172
sI2
F6024.18
sI3
F2929.2652000000003
sI4
F6009.044
sI5
F5603.331999999999
sI6
F5051.8240000000005
sI7
F5538.856
sI8
F4970.832
sI9
F4495.755999999999
sI10
F2604.4564
sI11
F5266.728
sI12
F5330.6359999999995
sI13
F6135.2080000000005
sI14
F2656.3332
sI15
F2827.9388
sI16
F6245.852
sI17
F4730.376
sI18
F6281.3
sI19
F2649.7312
sI20
F2934.7255999999998
ssg127
(dp341
I0
F0.3598262940708498
sI1
Fnan
sI2
Fnan
sI3
Fnan
sI4
Fnan
sI5
Fnan
sI6
Fnan
sI7
Fnan
sI8
Fnan
sI9
Fnan
sI10
Fnan
sI11
Fnan
sI12
Fnan
sI13
Fnan
sI14
Fnan
sI15
Fnan
sI16
Fnan
sI17
Fnan
sI18
Fnan
sI19
Fnan
sI20
Fnan
ssg129
(dp342
I0
S"g'"
p343
sI1
S"g'"
p344
sI2
S"g'"
p345
sI3
S"g'"
p346
sI4
S"g'"
p347
sI5
S"g'"
p348
sI6
S"g'"
p349
sI7
S"g'"
p350
sI8
S"g'"
p351
sI9
S"g'"
p352
sI10
S"g'"
p353
sI11
S"g'"
p354
sI12
S"g'"
p355
sI13
S"g'"
p356
sI14
S"g'"
p357
sI15
S"g'"
p358
sI16
S"g'"
p359
sI17
S"g'"
p360
sI18
S"g'"
p361
sI19
S"g'"
p362
sI20
S"g'"
p363
ssg147
(dp364
I0
F0.35679302390147977
sI1
Fnan
sI2
Fnan
sI3
Fnan
sI4
Fnan
sI5
Fnan
sI6
Fnan
sI7
Fnan
sI8
Fnan
sI9
Fnan
sI10
Fnan
sI11
Fnan
sI12
Fnan
sI13
Fnan
sI14
Fnan
sI15
Fnan
sI16
Fnan
sI17
Fnan
sI18
Fnan
sI19
Fnan
sI20
Fnan
ssg149
(dp365
I0
F-3.86454
sI1
F5.472789
sI2
F4.806546
sI3
F6.378046
sI4
F-4.076536
sI5
F4.151083
sI6
F4.952054
sI7
F5.483654
sI8
F3.557141
sI9
F6.301982
sI10
F-5.771353
sI11
F3.775783
sI12
F5.730941
sI13
F4.044669
sI14
F3.954692
sI15
F4.827173
sI16
F5.914462
sI17
F5.92044
sI18
F4.162297
sI19
F3.86105
sI20
F-2.470638
ssg151
(dp366
I0
F1.5196790584775624
sI1
Fnan
sI2
Fnan
sI3
Fnan
sI4
Fnan
sI5
Fnan
sI6
Fnan
sI7
Fnan
sI8
Fnan
sI9
Fnan
sI10
Fnan
sI11
Fnan
sI12
Fnan
sI13
Fnan
sI14
Fnan
sI15
Fnan
sI16
Fnan
sI17
Fnan
sI18
Fnan
sI19
Fnan
sI20
Fnan
ssg153
(dp367
I0
F2458210.9652199075
sI1
Fnan
sI2
Fnan
sI3
Fnan
sI4
Fnan
sI5
Fnan
sI6
Fnan
sI7
Fnan
sI8
Fnan
sI9
Fnan
sI10
Fnan
sI11
Fnan
sI12
Fnan
sI13
Fnan
sI14
Fnan
sI15
Fnan
sI16
Fnan
sI17
Fnan
sI18
Fnan
sI19
Fnan
sI20
Fnan
ssg155
(dp368
I0
F0.007135386511644527
sI1
Fnan
sI2
Fnan
sI3
Fnan
sI4
Fnan
sI5
Fnan
sI6
Fnan
sI7
Fnan
sI8
Fnan
sI9
Fnan
sI10
Fnan
sI11
Fnan
sI12
Fnan
sI13
Fnan
sI14
Fnan
sI15
Fnan
sI16
Fnan
sI17
Fnan
sI18
Fnan
sI19
Fnan
sI20
Fnan
ssg157
(dp369
I0
F88.97304
sI1
F76.9604
sI2
F68.88236
sI3
F113.3249
sI4
F74.79448
sI5
F72.36501
sI6
F82.21564
sI7
F67.93701
sI8
F83.74813
sI9
F84.74663
sI10
F122.8686
sI11
F69.28028
sI12
F68.91898
sI13
F62.4212
sI14
F123.3775
sI15
F113.4443
sI16
F68.82948
sI17
F79.38438
sI18
F59.7945
sI19
F115.8252
sI20
F118.7995
ssg159
(dp370
I0
F11.393
sI1
F11.118
sI2
F11.081
sI3
F11.886
sI4
F11.09
sI5
F11.171
sI6
F11.279
sI7
F11.19
sI8
F11.292
sI9
F11.418
sI10
F12.007
sI11
F11.217
sI12
F11.226
sI13
F11.081
sI14
F11.993
sI15
F11.932
sI16
F11.067
sI17
F11.34
sI18
F11.048
sI19
F11.984
sI20
F11.884
ssg161
(dp371
I0
F0.8502967191612669
sI1
Fnan
sI2
Fnan
sI3
Fnan
sI4
Fnan
sI5
Fnan
sI6
Fnan
sI7
Fnan
sI8
Fnan
sI9
Fnan
sI10
Fnan
sI11
Fnan
sI12
Fnan
sI13
Fnan
sI14
Fnan
sI15
Fnan
sI16
Fnan
sI17
Fnan
sI18
Fnan
sI19
Fnan
sI20
Fnan
sss.