(dp0
S'i'
p1
(dp2
S'sigmean'
p3
(dp4
I0
F0.43891935557475553
sI1
Fnan
sI2
Fnan
sI3
Fnan
sI4
Fnan
sI5
Fnan
sI6
Fnan
sI7
Fnan
sI8
Fnan
sI9
Fnan
sI10
Fnan
sI11
Fnan
sI12
Fnan
sI13
Fnan
ssS'ref3flag'
p5
(dp6
I0
S'NoError'
p7
sI1
S'NoError'
p8
sI2
S'NoError'
p9
sI3
S'NoError'
p10
sI4
S'NoError'
p11
sI5
S'NoError'
p12
sI6
S'NoError'
p13
sI7
S'NoError'
p14
sI8
S'NoError'
p15
sI9
S'NoError'
p16
sI10
S'NoError'
p17
sI11
S'NoError'
p18
sI12
S'NoError'
p19
sI13
S'NoError'
p20
ssS'tabbyerr'
p21
(dp22
I0
F0.003
sI1
F0.003
sI2
F0.003
sI3
F0.003
sI4
F0.003
sI5
F0.003
sI6
F0.003
sI7
F0.003
sI8
F0.003
sI9
F0.003
sI10
F0.003
sI11
F0.003
sI12
F0.003
sI13
F0.003
ssS'ref2rel'
p23
(dp24
I0
F0.9141523187881384
sI1
F0.9145281772975652
sI2
F0.9128222879733185
sI3
F0.9066416406168717
sI4
F0.9098880520922182
sI5
F0.9195015834043289
sI6
F0.9126010166451067
sI7
F0.9095756987776303
sI8
F0.9109740896617369
sI9
F0.9147078856033215
sI10
F0.9093117211243881
sI11
F0.9105752762029088
sI12
F0.9084026585677186
sI13
F0.9080348465527024
ssS'ref2err'
p25
(dp26
I0
F0.0034066732700431253
sI1
Fnan
sI2
Fnan
sI3
Fnan
sI4
Fnan
sI5
Fnan
sI6
Fnan
sI7
Fnan
sI8
Fnan
sI9
Fnan
sI10
Fnan
sI11
Fnan
sI12
Fnan
sI13
Fnan
ssS'ref2mean'
p27
(dp28
I0
F0.9115512323791396
sI1
Fnan
sI2
Fnan
sI3
Fnan
sI4
Fnan
sI5
Fnan
sI6
Fnan
sI7
Fnan
sI8
Fnan
sI9
Fnan
sI10
Fnan
sI11
Fnan
sI12
Fnan
sI13
Fnan
ssS'tabbymag'
p29
(dp30
I0
F11.984
sI1
F11.967
sI2
F12.027
sI3
F11.987
sI4
F11.994
sI5
F11.959
sI6
F12.0
sI7
F12.021
sI8
F11.997
sI9
F12.023
sI10
F11.977
sI11
F12.009
sI12
F12.078
sI13
F11.986
ssS'tabbybkg'
p31
(dp32
I0
F1.623583
sI1
F1.379479
sI2
F2.943449
sI3
F1.49994
sI4
F2.607811
sI5
F2.226443
sI6
F2.305735
sI7
F2.995103
sI8
F0.5620747
sI9
F0.7577037
sI10
F2.310809
sI11
F1.135847
sI12
F1.60077
sI13
F1.50361
ssS'JD'
p33
(dp34
I0
F2458429.612372685
sI1
F2458429.6138425926
sI2
F2458429.5732175927
sI3
F2458429.593553241
sI4
F2458429.574699074
sI5
F2458429.6116203703
sI6
F2458429.575451389
sI7
F2458429.573958333
sI8
F2458429.5942939813
sI9
F2458429.592824074
sI10
F2458429.6131018517
sI11
F2458429.5920833335
sI12
F2458429.576203704
sI13
F2458429.61087963
ssS'ref3rmsmean'
p35
(dp36
I0
F1.4044316
sI1
Fnan
sI2
Fnan
sI3
Fnan
sI4
Fnan
sI5
Fnan
sI6
Fnan
sI7
Fnan
sI8
Fnan
sI9
Fnan
sI10
Fnan
sI11
Fnan
sI12
Fnan
sI13
Fnan
ssS'ref1rmsmean'
p37
(dp38
I0
F1.885336714285714
sI1
Fnan
sI2
Fnan
sI3
Fnan
sI4
Fnan
sI5
Fnan
sI6
Fnan
sI7
Fnan
sI8
Fnan
sI9
Fnan
sI10
Fnan
sI11
Fnan
sI12
Fnan
sI13
Fnan
ssS'relflux'
p39
(dp40
I0
F0.43826747493918794
sI1
F0.43883833176786974
sI2
F0.4395499839474003
sI3
F0.43776036900629156
sI4
F0.43897167548024535
sI5
F0.4396322613708888
sI6
F0.4386533880233554
sI7
F0.43532842050111387
sI8
F0.44095816563570045
sI9
F0.43583375749745035
sI10
F0.4386820729290219
sI11
F0.4412717480196223
sI12
F0.43868338698257864
sI13
F0.43811580123977023
ssS'sigerr'
p41
(dp42
I0
F0.0008349521641163087
sI1
Fnan
sI2
Fnan
sI3
Fnan
sI4
Fnan
sI5
Fnan
sI6
Fnan
sI7
Fnan
sI8
Fnan
sI9
Fnan
sI10
Fnan
sI11
Fnan
sI12
Fnan
sI13
Fnan
ssS'tabbyrmsmean'
p43
(dp44
I0
F1.1561196428571427
sI1
Fnan
sI2
Fnan
sI3
Fnan
sI4
Fnan
sI5
Fnan
sI6
Fnan
sI7
Fnan
sI8
Fnan
sI9
Fnan
sI10
Fnan
sI11
Fnan
sI12
Fnan
sI13
Fnan
ssS'tabbyflag'
p45
(dp46
I0
g7
sI1
g8
sI2
g9
sI3
g10
sI4
g11
sI5
g12
sI6
g13
sI7
g14
sI8
g15
sI9
g16
sI10
g17
sI11
g18
sI12
g19
sI13
g20
ssS'ref1err'
p47
(dp48
I0
F0.001289706146734358
sI1
Fnan
sI2
Fnan
sI3
Fnan
sI4
Fnan
sI5
Fnan
sI6
Fnan
sI7
Fnan
sI8
Fnan
sI9
Fnan
sI10
Fnan
sI11
Fnan
sI12
Fnan
sI13
Fnan
ssS'ref2magmeanerr'
p49
(dp50
I0
F0.030859126920340953
sI1
Fnan
sI2
Fnan
sI3
Fnan
sI4
Fnan
sI5
Fnan
sI6
Fnan
sI7
Fnan
sI8
Fnan
sI9
Fnan
sI10
Fnan
sI11
Fnan
sI12
Fnan
sI13
Fnan
ssS'ref2rmsmean'
p51
(dp52
I0
F1.0194484285714285
sI1
Fnan
sI2
Fnan
sI3
Fnan
sI4
Fnan
sI5
Fnan
sI6
Fnan
sI7
Fnan
sI8
Fnan
sI9
Fnan
sI10
Fnan
sI11
Fnan
sI12
Fnan
sI13
Fnan
ssS'ref3rel'
p53
(dp54
I0
F1.4955118954838311
sI1
F1.4943699271119053
sI2
F1.4959695368160189
sI3
F1.5101967479736809
sI4
F1.5019491756737926
sI5
F1.487118069069129
sI6
F1.5016233828889314
sI7
F1.5051345649805865
sI8
F1.501449599075624
sI9
F1.4979373859236156
sI10
F1.5000587364119606
sI11
F1.5014076044116387
sI12
F1.5075602765708283
sI13
F1.5034482466900723
ssS'ref1flag'
p55
(dp56
I0
g7
sI1
g8
sI2
g9
sI3
g10
sI4
g11
sI5
g12
sI6
g13
sI7
g14
sI8
g15
sI9
g16
sI10
g17
sI11
g18
sI12
g19
sI13
g20
ssS'ref2bkg'
p57
(dp58
I0
F2.488775
sI1
F2.03498
sI2
F4.792369
sI3
F2.658377
sI4
F3.74364
sI5
F2.057811
sI6
F2.927142
sI7
F3.493015
sI8
F2.600716
sI9
F3.2657
sI10
F2.250287
sI11
F3.354245
sI12
F5.432458
sI13
F2.992559
ssS'ref3magmean'
p59
(dp60
I0
F10.832928571428571
sI1
Fnan
sI2
Fnan
sI3
Fnan
sI4
Fnan
sI5
Fnan
sI6
Fnan
sI7
Fnan
sI8
Fnan
sI9
Fnan
sI10
Fnan
sI11
Fnan
sI12
Fnan
sI13
Fnan
ssS'ref1mean'
p61
(dp62
I0
F0.6965319617668373
sI1
Fnan
sI2
Fnan
sI3
Fnan
sI4
Fnan
sI5
Fnan
sI6
Fnan
sI7
Fnan
sI8
Fnan
sI9
Fnan
sI10
Fnan
sI11
Fnan
sI12
Fnan
sI13
Fnan
ssS'ref1rms'
p63
(dp64
I0
F3.238667
sI1
F3.445066
sI2
F-3.950629
sI3
F3.824236
sI4
F3.252544
sI5
F3.863581
sI6
F2.635103
sI7
F-3.491921
sI8
F2.476867
sI9
F2.861811
sI10
F-1.544031
sI11
F3.261684
sI12
F3.104618
sI13
F3.417118
ssS'ref2magmean'
p65
(dp66
I0
F11.173857142857143
sI1
Fnan
sI2
Fnan
sI3
Fnan
sI4
Fnan
sI5
Fnan
sI6
Fnan
sI7
Fnan
sI8
Fnan
sI9
Fnan
sI10
Fnan
sI11
Fnan
sI12
Fnan
sI13
Fnan
ssS'ref2flag'
p67
(dp68
I0
g7
sI1
g8
sI2
g9
sI3
g10
sI4
g11
sI5
g12
sI6
g13
sI7
g14
sI8
g15
sI9
g16
sI10
g17
sI11
g18
sI12
g19
sI13
g20
ssS'ref2'
p69
(dp70
I0
F8673.873333333333
sI1
F8803.8
sI2
F8306.66
sI3
F8612.583333333334
sI4
F8551.78
sI5
F8884.406666666668
sI6
F8528.063333333334
sI7
F8412.890000000001
sI8
F8503.31
sI9
F8415.983333333334
sI10
F8691.55
sI11
F8398.226666666666
sI12
F7911.233333333334
sI13
F8620.713333333333
ssS'airmass'
p71
(dp72
I0
F1.090894
sI1
F1.094055
sI2
F1.029061
sI3
F1.055995
sI4
F1.030681
sI5
F1.089329
sI6
F1.0315219999999998
sI7
F1.029855
sI8
F1.057166
sI9
F1.054826
sI10
F1.092468
sI11
F1.053674
sI12
F1.032356
sI13
F1.087753
ssS'ref1'
p73
(dp74
I0
F7146.836666666667
sI1
F7254.6066666666675
sI2
F6857.4366666666665
sI3
F7119.556666666667
sI4
F7067.6433333333325
sI5
F7294.456666666667
sI6
F7017.663333333333
sI7
F6942.516666666666
sI8
F7017.073333333334
sI9
F6917.3099999999995
sI10
F7198.65
sI11
F6935.153333333334
sI12
F6531.36
sI13
F7139.953333333334
ssS'ref3'
p75
(dp76
I0
F11830.03
sI1
F11998.6
sI2
F11342.513333333334
sI3
F11879.313333333334
sI4
F11729.79
sI5
F12029.94
sI6
F11671.913333333334
sI7
F11555.976666666666
sI8
F11651.536666666665
sI9
F11484.156666666668
sI10
F11918.116666666667
sI11
F11510.826666666666
sI12
F10886.54
sI13
F11847.673333333334
ssS'ref1bkg'
p77
(dp78
I0
F2.717548
sI1
F2.006708
sI2
F4.216294
sI3
F1.774628
sI4
F4.21798
sI5
F2.175085
sI6
F3.516437
sI7
F4.102638
sI8
F2.152752
sI9
F2.533151
sI10
F2.565639
sI11
F1.875903
sI12
F3.487236
sI13
F2.207825
ssS'ref1mag'
p79
(dp80
I0
F11.365
sI1
F11.348
sI2
F11.41
sI3
F11.369
sI4
F11.377
sI5
F11.343
sI6
F11.385
sI7
F11.396
sI8
F11.385
sI9
F11.4
sI10
F11.357
sI11
F11.397
sI12
F11.462
sI13
F11.366
ssS'ref3magerr'
p81
(dp82
I0
F0.002
sI1
F0.002
sI2
F0.002
sI3
F0.002
sI4
F0.002
sI5
F0.002
sI6
F0.002
sI7
F0.002
sI8
F0.002
sI9
F0.002
sI10
F0.002
sI11
F0.002
sI12
F0.002
sI13
F0.002
ssS'tabbymagmean'
p83
(dp84
I0
F0.43861048838146405
sI1
Fnan
sI2
Fnan
sI3
Fnan
sI4
Fnan
sI5
Fnan
sI6
Fnan
sI7
Fnan
sI8
Fnan
sI9
Fnan
sI10
Fnan
sI11
Fnan
sI12
Fnan
sI13
Fnan
ssS'ref1magmean'
p85
(dp86
I0
F11.382857142857144
sI1
Fnan
sI2
Fnan
sI3
Fnan
sI4
Fnan
sI5
Fnan
sI6
Fnan
sI7
Fnan
sI8
Fnan
sI9
Fnan
sI10
Fnan
sI11
Fnan
sI12
Fnan
sI13
Fnan
ssS'ref2mag'
p87
(dp88
I0
F11.154
sI1
F11.138
sI2
F11.201
sI3
F11.162
sI4
F11.17
sI5
F11.128
sI6
F11.173
sI7
F11.188
sI8
F11.176
sI9
F11.187
sI10
F11.152
sI11
F11.19
sI12
F11.254
sI13
F11.161
ssS'ref3rms'
p89
(dp90
I0
F1.515419
sI1
F-3.55201
sI2
F-1.885437
sI3
F3.580164
sI4
F3.605222
sI5
F4.148543
sI6
F1.984364
sI7
F3.517296
sI8
F3.495281
sI9
F0.6406478
sI10
F-3.668961
sI11
F3.125442
sI12
F0.5294876
sI13
F2.626584
ssS'ref3magmeanerr'
p91
(dp92
I0
F0.02876286143279545
sI1
Fnan
sI2
Fnan
sI3
Fnan
sI4
Fnan
sI5
Fnan
sI6
Fnan
sI7
Fnan
sI8
Fnan
sI9
Fnan
sI10
Fnan
sI11
Fnan
sI12
Fnan
sI13
Fnan
ssS'ref1rel'
p93
(dp94
I0
F0.6971196216135106
sI1
F0.6974778551192812
sI2
F0.6979872944612429
sI3
F0.69486556393267
sI4
F0.696952290511369
sI5
F0.6975552985637928
sI6
F0.6948189544113333
sI7
F0.6953340700356888
sI8
F0.6963162210445991
sI9
F0.6952021443065224
sI10
F0.698570250206214
sI11
F0.6966833849123248
sI12
F0.6949078366019237
sI13
F0.697656679015249
ssS'exposure'
p95
(dp96
I0
F30.0
sI1
F30.0
sI2
F30.0
sI3
F30.0
sI4
F30.0
sI5
F30.0
sI6
F30.0
sI7
F30.0
sI8
F30.0
sI9
F30.0
sI10
F30.0
sI11
F30.0
sI12
F30.0
sI13
F30.0
ssS'ref1magerr'
p97
(dp98
I0
F0.002
sI1
F0.002
sI2
F0.002
sI3
F0.002
sI4
F0.002
sI5
F0.002
sI6
F0.002
sI7
F0.002
sI8
F0.002
sI9
F0.002
sI10
F0.002
sI11
F0.002
sI12
F0.002
sI13
F0.002
ssS'ref2magerr'
p99
(dp100
I0
F0.002
sI1
F0.002
sI2
F0.002
sI3
F0.002
sI4
F0.002
sI5
F0.002
sI6
F0.002
sI7
F0.002
sI8
F0.002
sI9
F0.002
sI10
F0.002
sI11
F0.002
sI12
F0.002
sI13
F0.002
ssS'ref2rms'
p101
(dp102
I0
F4.06556
sI1
F3.096369
sI2
F-1.260935
sI3
F-3.787027
sI4
F-3.507859
sI5
F2.403479
sI6
F2.626685
sI7
F2.897286
sI8
F2.57137
sI9
F-2.015984
sI10
F3.254554
sI11
F-1.316458
sI12
F1.822398
sI13
F3.42284
ssS'name'
p103
(dp104
I0
S"KIC8462852-20181107at024149_-25-1X1-030-i'_cal.fts.mag.1"
p105
sI1
S"KIC8462852-20181107at024356_-25-1X1-030-i'_cal.fts.mag.1"
p106
sI2
S"KIC8462852-20181107at014525_-25-1X1-030-i'_cal.fts.mag.1"
p107
sI3
S"KIC8462852-20181107at021443_-25-1X1-030-i'_cal.fts.mag.1"
p108
sI4
S"KIC8462852-20181107at014734_-25-1X1-030-i'_cal.fts.mag.1"
p109
sI5
S"KIC8462852-20181107at024044_-25-1X1-030-i'_cal.fts.mag.1"
p110
sI6
S"KIC8462852-20181107at014839_-25-1X1-030-i'_cal.fts.mag.1"
p111
sI7
S"KIC8462852-20181107at014630_-25-1X1-030-i'_cal.fts.mag.1"
p112
sI8
S"KIC8462852-20181107at021547_-25-1X1-030-i'_cal.fts.mag.1"
p113
sI9
S"KIC8462852-20181107at021339_-25-1X1-030-i'_cal.fts.mag.1"
p114
sI10
S"KIC8462852-20181107at024252_-25-1X1-030-i'_cal.fts.mag.1"
p115
sI11
S"KIC8462852-20181107at021234_-25-1X1-030-i'_cal.fts.mag.1"
p116
sI12
S"KIC8462852-20181107at014944_-25-1X1-030-i'_cal.fts.mag.1"
p117
sI13
S"KIC8462852-20181107at023938_-25-1X1-030-i'_cal.fts.mag.1"
p118
ssS'ref3err'
p119
(dp120
I0
F0.005865110942456904
sI1
Fnan
sI2
Fnan
sI3
Fnan
sI4
Fnan
sI5
Fnan
sI6
Fnan
sI7
Fnan
sI8
Fnan
sI9
Fnan
sI10
Fnan
sI11
Fnan
sI12
Fnan
sI13
Fnan
ssS'tabby'
p121
(dp122
I0
F4039.4733333333334
sI1
F4104.163333333333
sI2
F3883.6600000000003
sI3
F4029.0666666666666
sI4
F4001.8433333333332
sI5
F4133.833333333333
sI6
F3979.7033333333334
sI7
F3905.0966666666664
sI8
F3993.8933333333334
sI9
F3895.983333333333
sI10
F4066.336666666667
sI11
F3948.5299999999997
sI12
F3703.8233333333333
sI13
F4031.883333333333
ssS'ref1magmeanerr'
p123
(dp124
I0
F0.03035395587666683
sI1
Fnan
sI2
Fnan
sI3
Fnan
sI4
Fnan
sI5
Fnan
sI6
Fnan
sI7
Fnan
sI8
Fnan
sI9
Fnan
sI10
Fnan
sI11
Fnan
sI12
Fnan
sI13
Fnan
ssS'filter'
p125
(dp126
I0
S"i'"
p127
sI1
S"i'"
p128
sI2
S"i'"
p129
sI3
S"i'"
p130
sI4
S"i'"
p131
sI5
S"i'"
p132
sI6
S"i'"
p133
sI7
S"i'"
p134
sI8
S"i'"
p135
sI9
S"i'"
p136
sI10
S"i'"
p137
sI11
S"i'"
p138
sI12
S"i'"
p139
sI13
S"i'"
p140
ssS'tabbymagerr'
p141
(dp142
I0
F0.0016239195577166128
sI1
Fnan
sI2
Fnan
sI3
Fnan
sI4
Fnan
sI5
Fnan
sI6
Fnan
sI7
Fnan
sI8
Fnan
sI9
Fnan
sI10
Fnan
sI11
Fnan
sI12
Fnan
sI13
Fnan
ssS'tabbyrms'
p143
(dp144
I0
F2.772992
sI1
F3.217936
sI2
F-3.475192
sI3
F-3.267612
sI4
F2.765574
sI5
F2.184258
sI6
F2.231142
sI7
F1.356254
sI8
F2.506155
sI9
F-1.98363
sI10
F3.297895
sI11
F-2.887584
sI12
F4.367958
sI13
F3.099529
ssS'ref3mean'
p145
(dp146
I0
F1.5002667963629726
sI1
Fnan
sI2
Fnan
sI3
Fnan
sI4
Fnan
sI5
Fnan
sI6
Fnan
sI7
Fnan
sI8
Fnan
sI9
Fnan
sI10
Fnan
sI11
Fnan
sI12
Fnan
sI13
Fnan
ssS'median_JD'
p147
(dp148
I0
F2458429.5931886574
sI1
Fnan
sI2
Fnan
sI3
Fnan
sI4
Fnan
sI5
Fnan
sI6
Fnan
sI7
Fnan
sI8
Fnan
sI9
Fnan
sI10
Fnan
sI11
Fnan
sI12
Fnan
sI13
Fnan
ssS'error'
p149
(dp150
I0
F0.0016239195577166128
sI1
Fnan
sI2
Fnan
sI3
Fnan
sI4
Fnan
sI5
Fnan
sI6
Fnan
sI7
Fnan
sI8
Fnan
sI9
Fnan
sI10
Fnan
sI11
Fnan
sI12
Fnan
sI13
Fnan
ssS'ref3bkg'
p151
(dp152
I0
F4.562179
sI1
F4.147824
sI2
F5.813856
sI3
F2.902755
sI4
F5.122706
sI5
F3.561419
sI6
F3.806404
sI7
F4.94966
sI8
F3.295217
sI9
F3.890092
sI10
F4.733755
sI11
F4.449629
sI12
F6.04871
sI13
F2.996274
ssS'ref3mag'
p153
(dp154
I0
F10.818
sI1
F10.802
sI2
F10.863
sI3
F10.813
sI4
F10.827
sI5
F10.799
sI6
F10.832
sI7
F10.843
sI8
F10.834
sI9
F10.85
sI10
F10.809
sI11
F10.847
sI12
F10.908
sI13
F10.816
ssS'mean'
p155
(dp156
I0
F0.43861048838146405
sI1
Fnan
sI2
Fnan
sI3
Fnan
sI4
Fnan
sI5
Fnan
sI6
Fnan
sI7
Fnan
sI8
Fnan
sI9
Fnan
sI10
Fnan
sI11
Fnan
sI12
Fnan
sI13
Fnan
sssS'r'
p157
(dp158
g3
(dp159
I0
F0.5497063103066467
sI1
Fnan
sI2
Fnan
sI3
Fnan
sI4
Fnan
sI5
Fnan
sI6
Fnan
sI7
Fnan
sI8
Fnan
sI9
Fnan
sI10
Fnan
sI11
Fnan
sI12
Fnan
sI13
Fnan
sI14
Fnan
ssg5
(dp160
I0
S'NoError'
p161
sI1
S'NoError'
p162
sI2
S'NoError'
p163
sI3
S'NoError'
p164
sI4
S'NoError'
p165
sI5
S'NoError'
p166
sI6
S'NoError'
p167
sI7
S'NoError'
p168
sI8
S'NoError'
p169
sI9
S'NoError'
p170
sI10
S'NoError'
p171
sI11
S'NoError'
p172
sI12
S'NoError'
p173
sI13
S'NoError'
p174
sI14
S'NoError'
p175
ssg21
(dp176
I0
F0.002
sI1
F0.002
sI2
F0.002
sI3
F0.002
sI4
F0.002
sI5
F0.002
sI6
F0.002
sI7
F0.002
sI8
F0.002
sI9
F0.002
sI10
F0.002
sI11
F0.002
sI12
F0.002
sI13
F0.002
sI14
F0.002
ssg23
(dp177
I0
F0.8970626959474841
sI1
F0.8934884373620318
sI2
F0.8919858134316215
sI3
F0.8950387990662907
sI4
F0.8924197559167988
sI5
F0.8986996122024311
sI6
F0.8968375147893619
sI7
F0.8979434107457325
sI8
F0.8966790638047387
sI9
F0.897077732681233
sI10
F0.8934302165438716
sI11
F0.8939325912743515
sI12
F0.8905656016050898
sI13
F0.8989810594624815
sI14
F0.8901996012942702
ssg25
(dp178
I0
F0.002894314232306661
sI1
Fnan
sI2
Fnan
sI3
Fnan
sI4
Fnan
sI5
Fnan
sI6
Fnan
sI7
Fnan
sI8
Fnan
sI9
Fnan
sI10
Fnan
sI11
Fnan
sI12
Fnan
sI13
Fnan
sI14
Fnan
ssg27
(dp179
I0
F0.8949561270751859
sI1
Fnan
sI2
Fnan
sI3
Fnan
sI4
Fnan
sI5
Fnan
sI6
Fnan
sI7
Fnan
sI8
Fnan
sI9
Fnan
sI10
Fnan
sI11
Fnan
sI12
Fnan
sI13
Fnan
sI14
Fnan
ssg29
(dp180
I0
F11.283
sI1
F11.305
sI2
F11.257
sI3
F11.285
sI4
F11.272
sI5
F11.288
sI6
F11.292
sI7
F11.245
sI8
F11.3
sI9
F11.263
sI10
F11.272
sI11
F11.294
sI12
F11.3
sI13
F11.284
sI14
F11.303
ssg31
(dp181
I0
F3.548683
sI1
F2.073472
sI2
F2.675883
sI3
F2.528595
sI4
F4.502139
sI5
F6.819212
sI6
F4.745969
sI7
F2.154325
sI8
F7.243629
sI9
F2.687313
sI10
F2.933326
sI11
F2.553093
sI12
F5.07927
sI13
F3.924293
sI14
F3.860621
ssg33
(dp182
I0
F2458429.6071643517
sI1
F2458429.6079050926
sI2
F2458429.5891203703
sI3
F2458429.5906018517
sI4
F2458429.5708101853
sI5
F2458429.5700810184
sI6
F2458429.5722800926
sI7
F2458429.5898495372
sI8
F2458429.569340278
sI9
F2458429.6086458336
sI10
F2458429.5883796294
sI11
F2458429.610115741
sI12
F2458429.5715509257
sI13
F2458429.5913310186
sI14
F2458429.609375
ssg35
(dp183
I0
F1.3765174666666666
sI1
Fnan
sI2
Fnan
sI3
Fnan
sI4
Fnan
sI5
Fnan
sI6
Fnan
sI7
Fnan
sI8
Fnan
sI9
Fnan
sI10
Fnan
sI11
Fnan
sI12
Fnan
sI13
Fnan
sI14
Fnan
ssg37
(dp184
I0
F3.200274293333334
sI1
Fnan
sI2
Fnan
sI3
Fnan
sI4
Fnan
sI5
Fnan
sI6
Fnan
sI7
Fnan
sI8
Fnan
sI9
Fnan
sI10
Fnan
sI11
Fnan
sI12
Fnan
sI13
Fnan
sI14
Fnan
ssg39
(dp185
I0
F0.5507984777527514
sI1
F0.5476426674666955
sI2
F0.5507686647586798
sI3
F0.5495459620660293
sI4
F0.5498374175021546
sI5
F0.5516126116702086
sI6
F0.5479678536133608
sI7
F0.553386257179191
sI8
F0.5482416585729767
sI9
F0.5475458845778237
sI10
F0.5518535525876241
sI11
F0.5477982735587298
sI12
F0.5505158463660286
sI13
F0.5458023553678448
sI14
F0.5520531634933438
ssg41
(dp186
I0
F0.0016292077330778776
sI1
Fnan
sI2
Fnan
sI3
Fnan
sI4
Fnan
sI5
Fnan
sI6
Fnan
sI7
Fnan
sI8
Fnan
sI9
Fnan
sI10
Fnan
sI11
Fnan
sI12
Fnan
sI13
Fnan
sI14
Fnan
ssg43
(dp187
I0
F0.8831772666666667
sI1
Fnan
sI2
Fnan
sI3
Fnan
sI4
Fnan
sI5
Fnan
sI6
Fnan
sI7
Fnan
sI8
Fnan
sI9
Fnan
sI10
Fnan
sI11
Fnan
sI12
Fnan
sI13
Fnan
sI14
Fnan
ssg45
(dp188
I0
g161
sI1
g162
sI2
g163
sI3
g164
sI4
g165
sI5
g166
sI6
g167
sI7
g168
sI8
g169
sI9
g170
sI10
g171
sI11
g172
sI12
g173
sI13
g174
sI14
g175
ssg47
(dp189
I0
F0.0024004511325484163
sI1
Fnan
sI2
Fnan
sI3
Fnan
sI4
Fnan
sI5
Fnan
sI6
Fnan
sI7
Fnan
sI8
Fnan
sI9
Fnan
sI10
Fnan
sI11
Fnan
sI12
Fnan
sI13
Fnan
sI14
Fnan
ssg49
(dp190
I0
F0.01769530473102411
sI1
Fnan
sI2
Fnan
sI3
Fnan
sI4
Fnan
sI5
Fnan
sI6
Fnan
sI7
Fnan
sI8
Fnan
sI9
Fnan
sI10
Fnan
sI11
Fnan
sI12
Fnan
sI13
Fnan
sI14
Fnan
ssg51
(dp191
I0
F2.46727
sI1
Fnan
sI2
Fnan
sI3
Fnan
sI4
Fnan
sI5
Fnan
sI6
Fnan
sI7
Fnan
sI8
Fnan
sI9
Fnan
sI10
Fnan
sI11
Fnan
sI12
Fnan
sI13
Fnan
sI14
Fnan
ssg53
(dp192
I0
F1.4940265233794445
sI1
F1.5010857611709016
sI2
F1.4979024767308449
sI3
F1.496782754632456
sI4
F1.4944422604577574
sI5
F1.4930795910534214
sI6
F1.4933322569779839
sI7
F1.4895471666860272
sI8
F1.499906388256533
sI9
F1.4865648551470343
sI10
F1.5023817968289628
sI11
F1.4936195975635727
sI12
F1.496830268745346
sI13
F1.49354845012815
sI14
F1.4991230855358342
ssg55
(dp193
I0
g161
sI1
g162
sI2
g163
sI3
g164
sI4
g165
sI5
g166
sI6
g167
sI7
g168
sI8
g169
sI9
g170
sI10
g171
sI11
g172
sI12
g173
sI13
g174
sI14
g175
ssg57
(dp194
I0
F3.481998
sI1
F3.591231
sI2
F3.011017
sI3
F5.707354
sI4
F7.049358
sI5
F9.384149
sI6
F6.693215
sI7
F4.001121
sI8
F8.904214
sI9
F3.229418
sI10
F4.699224
sI11
F4.525255
sI12
F7.501284
sI13
F3.210201
sI14
F4.514346
ssg59
(dp195
I0
F10.3622
sI1
Fnan
sI2
Fnan
sI3
Fnan
sI4
Fnan
sI5
Fnan
sI6
Fnan
sI7
Fnan
sI8
Fnan
sI9
Fnan
sI10
Fnan
sI11
Fnan
sI12
Fnan
sI13
Fnan
sI14
Fnan
ssg61
(dp196
I0
F0.71380185176097
sI1
Fnan
sI2
Fnan
sI3
Fnan
sI4
Fnan
sI5
Fnan
sI6
Fnan
sI7
Fnan
sI8
Fnan
sI9
Fnan
sI10
Fnan
sI11
Fnan
sI12
Fnan
sI13
Fnan
sI14
Fnan
ssg63
(dp197
I0
F3.016108
sI1
F2.481474
sI2
F1.530035
sI3
F3.118636
sI4
F3.484886
sI5
F0.9832694
sI6
F2.698364
sI7
F3.400533
sI8
F5.260746
sI9
F3.010483
sI10
F4.023265
sI11
F4.665244
sI12
F3.229048
sI13
F3.421162
sI14
F3.680861
ssg65
(dp198
I0
F10.714866666666667
sI1
Fnan
sI2
Fnan
sI3
Fnan
sI4
Fnan
sI5
Fnan
sI6
Fnan
sI7
Fnan
sI8
Fnan
sI9
Fnan
sI10
Fnan
sI11
Fnan
sI12
Fnan
sI13
Fnan
sI14
Fnan
ssg67
(dp199
I0
g161
sI1
g162
sI2
g163
sI3
g164
sI4
g165
sI5
g166
sI6
g167
sI7
g168
sI8
g169
sI9
g170
sI10
g171
sI11
g172
sI12
g173
sI13
g174
sI14
g175
ssg69
(dp200
I0
F12996.493333333334
sI1
F12776.7
sI2
F13257.063333333334
sI3
F12986.256666666666
sI4
F13105.08
sI5
F12932.116666666667
sI6
F12950.583333333334
sI7
F13403.583333333334
sI8
F12846.526666666667
sI9
F13315.003333333332
sI10
F13060.83
sI11
F12905.31
sI12
F12739.833333333334
sI13
F13121.713333333335
sI14
F12661.03
ssg71
(dp201
I0
F1.0802200000000002
sI1
F1.081681
sI2
F1.049192
sI3
F1.051396
sI4
F1.026632
sI5
F1.0258969999999998
sI6
F1.028153
sI7
F1.050294
sI8
F1.025175
sI9
F1.0831540000000002
sI10
F1.048114
sI11
F1.086182
sI12
F1.027382
sI13
F1.0525129999999998
sI14
F1.084663
ssg73
(dp202
I0
F11028.6
sI1
F10859.56
sI2
F11318.746666666668
sI3
F11038.436666666666
sI4
F11204.863333333335
sI5
F10950.383333333333
sI6
F10998.55
sI7
F11389.056666666667
sI8
F10868.446666666667
sI9
F11351.273333333334
sI10
F11093.203333333333
sI11
F11011.676666666666
sI12
F10910.436666666666
sI13
F11102.44
sI14
F10834.230000000001
ssg75
(dp203
I0
F17947.063333333335
sI1
F17740.02666666667
sI2
F18406.083333333332
sI3
F17979.873333333333
sI4
F18164.903333333332
sI5
F17829.236666666668
sI6
F17882.006666666664
sI7
F18464.903333333332
sI8
F17785.12
sI9
F18334.010000000002
sI10
F18144.289999999997
sI11
F17861.44
sI12
F17700.219999999998
sI13
F18089.97333333333
sI14
F17611.143333333333
ssg77
(dp204
I0
F3.402804
sI1
F4.330074
sI2
F3.56851
sI3
F3.834294
sI4
F6.928555
sI5
F8.224871
sI6
F6.175279
sI7
F2.993604
sI8
F7.368227
sI9
F3.394728
sI10
F3.506609
sI11
F3.935244
sI12
F6.85934
sI13
F4.256668
sI14
F3.997538
ssg79
(dp205
I0
F10.894
sI1
F10.91
sI2
F10.866
sI3
F10.893
sI4
F10.876
sI5
F10.901
sI6
F10.897
sI7
F10.859
sI8
F10.91
sI9
F10.862
sI10
F10.887
sI11
F10.895
sI12
F10.905
sI13
F10.886
sI14
F10.913
ssg81
(dp206
I0
F0.001
sI1
F0.001
sI2
F0.001
sI3
F0.001
sI4
F0.001
sI5
F0.001
sI6
F0.001
sI7
F0.001
sI8
F0.001
sI9
F0.001
sI10
F0.001
sI11
F0.001
sI12
F0.001
sI13
F0.001
sI14
F0.001
ssg83
(dp207
I0
F0.5496913764355628
sI1
Fnan
sI2
Fnan
sI3
Fnan
sI4
Fnan
sI5
Fnan
sI6
Fnan
sI7
Fnan
sI8
Fnan
sI9
Fnan
sI10
Fnan
sI11
Fnan
sI12
Fnan
sI13
Fnan
sI14
Fnan
ssg85
(dp208
I0
F10.890266666666667
sI1
Fnan
sI2
Fnan
sI3
Fnan
sI4
Fnan
sI5
Fnan
sI6
Fnan
sI7
Fnan
sI8
Fnan
sI9
Fnan
sI10
Fnan
sI11
Fnan
sI12
Fnan
sI13
Fnan
sI14
Fnan
ssg87
(dp209
I0
F10.715
sI1
F10.734
sI2
F10.694
sI3
F10.716
sI4
F10.706
sI5
F10.721
sI6
F10.719
sI7
F10.682
sI8
F10.728
sI9
F10.689
sI10
F10.71
sI11
F10.723
sI12
F10.737
sI13
F10.705
sI14
F10.744
ssg89
(dp210
I0
F-3.346841
sI1
F-3.248281
sI2
F4.124528
sI3
F3.737652
sI4
F4.097347
sI5
F-2.986784
sI6
F3.431767
sI7
F2.57341
sI8
F-2.448693
sI9
F1.829158
sI10
F3.416101
sI11
F4.074174
sI12
F3.539049
sI13
F5.489498
sI14
F-3.634323
ssg91
(dp211
I0
F0.015866406560493092
sI1
Fnan
sI2
Fnan
sI3
Fnan
sI4
Fnan
sI5
Fnan
sI6
Fnan
sI7
Fnan
sI8
Fnan
sI9
Fnan
sI10
Fnan
sI11
Fnan
sI12
Fnan
sI13
Fnan
sI14
Fnan
ssg93
(dp212
I0
F0.7128204503964045
sI1
F0.711711981341817
sI2
F0.7149476826055613
sI3
F0.7129361445338289
sI4
F0.7166529776425636
sI5
F0.7119571895731506
sI6
F0.7134366590675646
sI7
F0.7147535297670239
sI8
F0.7096220967117449
sI9
F0.7173224146850707
sI10
F0.710986103135212
sI11
F0.7158166960544528
sI12
F0.7168474080641121
sI13
F0.7114283901777817
sI14
F0.715788052658261
ssg95
(dp213
I0
F30.0
sI1
F30.0
sI2
F30.0
sI3
F30.0
sI4
F30.0
sI5
F30.0
sI6
F30.0
sI7
F30.0
sI8
F30.0
sI9
F30.0
sI10
F30.0
sI11
F30.0
sI12
F30.0
sI13
F30.0
sI14
F30.0
ssg97
(dp214
I0
F0.002
sI1
F0.002
sI2
F0.002
sI3
F0.002
sI4
F0.002
sI5
F0.002
sI6
F0.002
sI7
F0.002
sI8
F0.002
sI9
F0.002
sI10
F0.002
sI11
F0.002
sI12
F0.002
sI13
F0.002
sI14
F0.002
ssg99
(dp215
I0
F0.002
sI1
F0.002
sI2
F0.002
sI3
F0.002
sI4
F0.002
sI5
F0.002
sI6
F0.002
sI7
F0.002
sI8
F0.002
sI9
F0.002
sI10
F0.002
sI11
F0.002
sI12
F0.002
sI13
F0.002
sI14
F0.002
ssg101
(dp216
I0
F-1.744651
sI1
F4.107343
sI2
F3.526595
sI3
F2.869678
sI4
F4.485419
sI5
F-3.012321
sI6
F3.572981
sI7
F2.884722
sI8
F2.518951
sI9
F3.471788
sI10
F3.928904
sI11
F-1.042935
sI12
F4.056498
sI13
F3.985466
sI14
F3.400612
ssg103
(dp217
I0
S"KIC8462852-20181107at023417_-25-1X1-030-r'_cal.fts.mag.1"
p218
sI1
S"KIC8462852-20181107at023523_-25-1X1-030-r'_cal.fts.mag.1"
p219
sI2
S"KIC8462852-20181107at020820_-25-1X1-030-r'_cal.fts.mag.1"
p220
sI3
S"KIC8462852-20181107at021028_-25-1X1-030-r'_cal.fts.mag.1"
p221
sI4
S"KIC8462852-20181107at014158_-25-1X1-030-r'_cal.fts.mag.1"
p222
sI5
S"KIC8462852-20181107at014055_-25-1X1-030-r'_cal.fts.mag.1"
p223
sI6
S"KIC8462852-20181107at014405_-25-1X1-030-r'_cal.fts.mag.1"
p224
sI7
S"KIC8462852-20181107at020923_-25-1X1-030-r'_cal.fts.mag.1"
p225
sI8
S"KIC8462852-20181107at013950_-25-1X1-030-r'_cal.fts.mag.1"
p226
sI9
S"KIC8462852-20181107at023627_-25-1X1-030-r'_cal.fts.mag.1"
p227
sI10
S"KIC8462852-20181107at020714_-25-1X1-030-r'_cal.fts.mag.1"
p228
sI11
S"KIC8462852-20181107at023834_-25-1X1-030-r'_cal.fts.mag.1"
p229
sI12
S"KIC8462852-20181107at014301_-25-1X1-030-r'_cal.fts.mag.1"
p230
sI13
S"KIC8462852-20181107at021131_-25-1X1-030-r'_cal.fts.mag.1"
p231
sI14
S"KIC8462852-20181107at023730_-25-1X1-030-r'_cal.fts.mag.1"
p232
ssg119
(dp233
I0
F0.004282419592392764
sI1
Fnan
sI2
Fnan
sI3
Fnan
sI4
Fnan
sI5
Fnan
sI6
Fnan
sI7
Fnan
sI8
Fnan
sI9
Fnan
sI10
Fnan
sI11
Fnan
sI12
Fnan
sI13
Fnan
sI14
Fnan
ssg121
(dp234
I0
F7706.066666666667
sI1
F7553.14
sI2
F7891.026666666667
sI3
F7694.48
sI4
F7784.753333333333
sI5
F7669.573333333334
sI6
F7640.706666666667
sI7
F7979.376666666666
sI8
F7584.026666666667
sI9
F7848.21
sI10
F7780.826666666666
sI11
F7628.716666666666
sI12
F7588.033333333334
sI13
F7698.383333333333
sI14
F7564.306666666667
ssg123
(dp235
I0
F0.017555897123460434
sI1
Fnan
sI2
Fnan
sI3
Fnan
sI4
Fnan
sI5
Fnan
sI6
Fnan
sI7
Fnan
sI8
Fnan
sI9
Fnan
sI10
Fnan
sI11
Fnan
sI12
Fnan
sI13
Fnan
sI14
Fnan
ssg125
(dp236
I0
S"r'"
p237
sI1
S"r'"
p238
sI2
S"r'"
p239
sI3
S"r'"
p240
sI4
S"r'"
p241
sI5
S"r'"
p242
sI6
S"r'"
p243
sI7
S"r'"
p244
sI8
S"r'"
p245
sI9
S"r'"
p246
sI10
S"r'"
p247
sI11
S"r'"
p248
sI12
S"r'"
p249
sI13
S"r'"
p250
sI14
S"r'"
p251
ssg141
(dp252
I0
F0.0021261242358729822
sI1
Fnan
sI2
Fnan
sI3
Fnan
sI4
Fnan
sI5
Fnan
sI6
Fnan
sI7
Fnan
sI8
Fnan
sI9
Fnan
sI10
Fnan
sI11
Fnan
sI12
Fnan
sI13
Fnan
sI14
Fnan
ssg143
(dp253
I0
F-3.191084
sI1
F3.631387
sI2
F3.218988
sI3
F3.171168
sI4
F4.143734
sI5
F2.775664
sI6
F-2.639835
sI7
F3.485489
sI8
F-2.590054
sI9
F2.089186
sI10
F-2.115104
sI11
F-1.655856
sI12
F3.242791
sI13
F2.254934
sI14
F-2.573749
ssg145
(dp254
I0
F1.4954782155529511
sI1
Fnan
sI2
Fnan
sI3
Fnan
sI4
Fnan
sI5
Fnan
sI6
Fnan
sI7
Fnan
sI8
Fnan
sI9
Fnan
sI10
Fnan
sI11
Fnan
sI12
Fnan
sI13
Fnan
sI14
Fnan
ssg147
(dp255
I0
F2458429.5898495372
sI1
Fnan
sI2
Fnan
sI3
Fnan
sI4
Fnan
sI5
Fnan
sI6
Fnan
sI7
Fnan
sI8
Fnan
sI9
Fnan
sI10
Fnan
sI11
Fnan
sI12
Fnan
sI13
Fnan
sI14
Fnan
ssg149
(dp256
I0
F0.0021261242358729822
sI1
Fnan
sI2
Fnan
sI3
Fnan
sI4
Fnan
sI5
Fnan
sI6
Fnan
sI7
Fnan
sI8
Fnan
sI9
Fnan
sI10
Fnan
sI11
Fnan
sI12
Fnan
sI13
Fnan
sI14
Fnan
ssg151
(dp257
I0
F5.96842
sI1
F6.254623
sI2
F4.546351
sI3
F4.810236
sI4
F7.957845
sI5
F9.836848
sI6
F9.090837
sI7
F5.288778
sI8
F11.7461
sI9
F4.559996
sI10
F5.671332
sI11
F6.395586
sI12
F9.253529
sI13
F5.665594
sI14
F6.940356
ssg153
(dp258
I0
F10.365
sI1
F10.378
sI2
F10.338
sI3
F10.363
sI4
F10.352
sI5
F10.372
sI6
F10.369
sI7
F10.334
sI8
F10.375
sI9
F10.342
sI10
F10.353
sI11
F10.37
sI12
F10.38
sI13
F10.356
sI14
F10.386
ssg155
(dp259
I0
F0.5496913764355628
sI1
Fnan
sI2
Fnan
sI3
Fnan
sI4
Fnan
sI5
Fnan
sI6
Fnan
sI7
Fnan
sI8
Fnan
sI9
Fnan
sI10
Fnan
sI11
Fnan
sI12
Fnan
sI13
Fnan
sI14
Fnan
sssS'z'
p260
(dp261
g3
(dp262
I0
F0.3678971001204484
sI1
Fnan
sI2
Fnan
sI3
Fnan
sI4
Fnan
sI5
Fnan
sI6
Fnan
sI7
Fnan
sI8
Fnan
sI9
Fnan
sI10
Fnan
sI11
Fnan
sI12
Fnan
sI13
Fnan
sI14
Fnan
ssg5
(dp263
I0
S'NoError'
p264
sI1
S'NoError'
p265
sI2
S'NoError'
p266
sI3
S'NoError'
p267
sI4
S'NoError'
p268
sI5
S'NoError'
p269
sI6
S'NoError'
p270
sI7
S'NoError'
p271
sI8
S'NoError'
p272
sI9
S'NoError'
p273
sI10
S'NoError'
p274
sI11
S'NoError'
p275
sI12
S'NoError'
p276
sI13
S'NoError'
p277
sI14
S'NoError'
p278
ssg21
(dp279
I0
F0.007
sI1
F0.007
sI2
F0.007
sI3
F0.008
sI4
F0.007
sI5
F0.007
sI6
F0.007
sI7
F0.007
sI8
F0.007
sI9
F0.008
sI10
F0.007
sI11
F0.007
sI12
F0.008
sI13
F0.008
sI14
F0.007
ssg23
(dp280
I0
F0.9268567802133824
sI1
F0.909824882076255
sI2
F0.9310228550848433
sI3
F0.916250553592579
sI4
F0.9261689808029655
sI5
F0.9039626847299939
sI6
F0.9108083921258925
sI7
F0.9142325383813237
sI8
F0.9147735721437347
sI9
F0.9152675693719966
sI10
F0.9102448751707292
sI11
F0.917155906297462
sI12
F0.9172204992041555
sI13
F0.9122945063456723
sI14
F0.9157627373488585
ssg25
(dp281
I0
F0.007129815662170106
sI1
Fnan
sI2
Fnan
sI3
Fnan
sI4
Fnan
sI5
Fnan
sI6
Fnan
sI7
Fnan
sI8
Fnan
sI9
Fnan
sI10
Fnan
sI11
Fnan
sI12
Fnan
sI13
Fnan
sI14
Fnan
ssg27
(dp282
I0
F0.9161231555259896
sI1
Fnan
sI2
Fnan
sI3
Fnan
sI4
Fnan
sI5
Fnan
sI6
Fnan
sI7
Fnan
sI8
Fnan
sI9
Fnan
sI10
Fnan
sI11
Fnan
sI12
Fnan
sI13
Fnan
sI14
Fnan
ssg29
(dp283
I0
F13.31
sI1
F13.341
sI2
F13.303
sI3
F13.457
sI4
F13.332
sI5
F13.365
sI6
F13.275
sI7
F13.332
sI8
F13.322
sI9
F13.43
sI10
F13.353
sI11
F13.334
sI12
F13.431
sI13
F13.417
sI14
F13.378
ssg31
(dp284
I0
F-1.226421
sI1
F-0.9775343
sI2
F-1.722024
sI3
F-0.6881588
sI4
F-1.620574
sI5
F-0.6527738
sI6
F-1.534657
sI7
F-1.554631
sI8
F-1.697562
sI9
F-1.643929
sI10
F-1.38867
sI11
F-1.645692
sI12
F-1.170768
sI13
F-1.160627
sI14
F-2.074057
ssg33
(dp285
I0
F2458429.61681713
sI1
F2458429.5957638887
sI2
F2458429.6175694442
sI3
F2458429.5791898146
sI4
F2458429.616076389
sI5
F2458429.5972453705
sI6
F2458429.6145949075
sI7
F2458429.5965046296
sI8
F2458429.598715278
sI9
F2458429.5776967593
sI10
F2458429.597986111
sI11
F2458429.615335648
sI12
F2458429.5784375
sI13
F2458429.5799305555
sI14
F2458429.5769560183
ssg35
(dp286
I0
F1.1529987133333333
sI1
Fnan
sI2
Fnan
sI3
Fnan
sI4
Fnan
sI5
Fnan
sI6
Fnan
sI7
Fnan
sI8
Fnan
sI9
Fnan
sI10
Fnan
sI11
Fnan
sI12
Fnan
sI13
Fnan
sI14
Fnan
ssg37
(dp287
I0
F1.1614813066666665
sI1
Fnan
sI2
Fnan
sI3
Fnan
sI4
Fnan
sI5
Fnan
sI6
Fnan
sI7
Fnan
sI8
Fnan
sI9
Fnan
sI10
Fnan
sI11
Fnan
sI12
Fnan
sI13
Fnan
sI14
Fnan
ssg39
(dp288
I0
F0.37109616202803036
sI1
F0.3660476710188071
sI2
F0.37059691374432585
sI3
F0.36379401943457534
sI4
F0.36806061934676443
sI5
F0.36287098198829587
sI6
F0.37066401618578426
sI7
F0.3674232258197188
sI8
F0.37000817810371583
sI9
F0.3674702081054624
sI10
F0.36423008908802723
sI11
F0.36412789317930744
sI12
F0.36598677990254824
sI13
F0.3695266753768509
sI14
F0.3715269503523592
ssg41
(dp289
I0
F0.002638441087218505
sI1
Fnan
sI2
Fnan
sI3
Fnan
sI4
Fnan
sI5
Fnan
sI6
Fnan
sI7
Fnan
sI8
Fnan
sI9
Fnan
sI10
Fnan
sI11
Fnan
sI12
Fnan
sI13
Fnan
sI14
Fnan
ssg43
(dp290
I0
F0.8524463333333333
sI1
Fnan
sI2
Fnan
sI3
Fnan
sI4
Fnan
sI5
Fnan
sI6
Fnan
sI7
Fnan
sI8
Fnan
sI9
Fnan
sI10
Fnan
sI11
Fnan
sI12
Fnan
sI13
Fnan
sI14
Fnan
ssg45
(dp291
I0
g264
sI1
g265
sI2
g266
sI3
g267
sI4
g268
sI5
g269
sI6
g270
sI7
g271
sI8
g272
sI9
g273
sI10
g274
sI11
g275
sI12
g276
sI13
g277
sI14
g278
ssg47
(dp292
I0
F0.0033188835341617616
sI1
Fnan
sI2
Fnan
sI3
Fnan
sI4
Fnan
sI5
Fnan
sI6
Fnan
sI7
Fnan
sI8
Fnan
sI9
Fnan
sI10
Fnan
sI11
Fnan
sI12
Fnan
sI13
Fnan
sI14
Fnan
ssg49
(dp293
I0
F0.05191173828170805
sI1
Fnan
sI2
Fnan
sI3
Fnan
sI4
Fnan
sI5
Fnan
sI6
Fnan
sI7
Fnan
sI8
Fnan
sI9
Fnan
sI10
Fnan
sI11
Fnan
sI12
Fnan
sI13
Fnan
sI14
Fnan
ssg51
(dp294
I0
F1.4903269866666666
sI1
Fnan
sI2
Fnan
sI3
Fnan
sI4
Fnan
sI5
Fnan
sI6
Fnan
sI7
Fnan
sI8
Fnan
sI9
Fnan
sI10
Fnan
sI11
Fnan
sI12
Fnan
sI13
Fnan
sI14
Fnan
ssg53
(dp295
I0
F1.4986041231189613
sI1
F1.5115152939742997
sI2
F1.4904015928021834
sI3
F1.5054920019468496
sI4
F1.5036249568735085
sI5
F1.5275532915256165
sI6
F1.5151843678625279
sI7
F1.5010617031869216
sI8
F1.5099562265786484
sI9
F1.5183481188266819
sI10
F1.5109027396042225
sI11
F1.5078084253909299
sI12
F1.5064587150045459
sI13
F1.508585139987617
sI14
F1.5134713399619695
ssg55
(dp296
I0
g264
sI1
g265
sI2
g266
sI3
g267
sI4
g268
sI5
g269
sI6
g270
sI7
g271
sI8
g272
sI9
g273
sI10
g274
sI11
g275
sI12
g276
sI13
g277
sI14
g278
ssg57
(dp297
I0
F-1.602971
sI1
F-0.2043334
sI2
F-2.146436
sI3
F-0.2206759
sI4
F-1.423905
sI5
F-1.5612
sI6
F-1.172574
sI7
F-1.300115
sI8
F-0.4855763
sI9
F-0.08615945
sI10
F-1.45066
sI11
F-1.323842
sI12
F0.1570987
sI13
F-0.906548
sI14
F0.1193431
ssg59
(dp298
I0
F11.995600000000001
sI1
Fnan
sI2
Fnan
sI3
Fnan
sI4
Fnan
sI5
Fnan
sI6
Fnan
sI7
Fnan
sI8
Fnan
sI9
Fnan
sI10
Fnan
sI11
Fnan
sI12
Fnan
sI13
Fnan
sI14
Fnan
ssg61
(dp299
I0
F0.6877332393052816
sI1
Fnan
sI2
Fnan
sI3
Fnan
sI4
Fnan
sI5
Fnan
sI6
Fnan
sI7
Fnan
sI8
Fnan
sI9
Fnan
sI10
Fnan
sI11
Fnan
sI12
Fnan
sI13
Fnan
sI14
Fnan
ssg63
(dp300
I0
F2.680887
sI1
F3.736213
sI2
F-3.417201
sI3
F4.681912
sI4
F3.143831
sI5
F1.929987
sI6
F1.805831
sI7
F2.571847
sI8
F2.939216
sI9
F-2.318394
sI10
F3.929024
sI11
F2.539484
sI12
F-2.44952
sI13
F-3.376621
sI14
F-0.9742764
ssg65
(dp301
I0
F12.3364
sI1
Fnan
sI2
Fnan
sI3
Fnan
sI4
Fnan
sI5
Fnan
sI6
Fnan
sI7
Fnan
sI8
Fnan
sI9
Fnan
sI10
Fnan
sI11
Fnan
sI12
Fnan
sI13
Fnan
sI14
Fnan
ssg67
(dp302
I0
g264
sI1
g265
sI2
g266
sI3
g267
sI4
g268
sI5
g269
sI6
g270
sI7
g271
sI8
g272
sI9
g273
sI10
g274
sI11
g275
sI12
g276
sI13
g277
sI14
g278
ssg69
(dp303
I0
F3050.934
sI1
F2967.6513333333332
sI2
F3083.1386666666667
sI3
F2694.3633333333332
sI4
F3012.2509999999997
sI5
F2914.300666666667
sI6
F3114.6893333333333
sI7
F2990.0403333333334
sI8
F2999.06
sI9
F2734.036333333333
sI10
F2949.550666666667
sI11
F3019.2633333333333
sI12
F2746.053
sI13
F2744.3210000000004
sI14
F2837.175666666667
ssg71
(dp304
I0
F1.100706
sI1
F1.0595809999999999
sI2
F1.102402
sI3
F1.03588
sI4
F1.09902
sI5
F1.0620370000000001
sI6
F1.0957290000000002
sI7
F1.060799
sI8
F1.064556
sI9
F1.034091
sI10
F1.063286
sI11
F1.0973600000000001
sI12
F1.0349709999999999
sI13
F1.036794
sI14
F1.0332219999999999
ssg73
(dp305
I0
F2456.5956666666666
sI1
F2438.116
sI2
F2478.5480000000002
sI3
F2198.3273333333336
sI4
F2420.411333333333
sI5
F2393.7039999999997
sI6
F2548.788666666667
sI7
F2454.6703333333335
sI8
F2446.025
sI9
F2216.1986666666667
sI10
F2422.4783333333335
sI11
F2456.083
sI12
F2235.510666666667
sI13
F2249.5016666666666
sI14
F2305.025
ssg75
(dp306
I0
F4126.803333333333
sI1
F4085.45
sI2
F4144.573333333333
sI3
F3682.9533333333334
sI4
F4084.3433333333332
sI5
F4054.1299999999997
sI6
F4290.606666666667
sI7
F4086.423333333333
sI8
F4110.92
sI9
F3758.0899999999997
sI10
F4058.3066666666664
sI11
F4127.886666666667
sI12
F3752.26
sI13
F3766.8033333333337
sI14
F3891.286666666667
ssg77
(dp307
I0
F-1.003051
sI1
F-1.123473
sI2
F-1.498825
sI3
F-1.08117
sI4
F-0.8842609
sI5
F-0.5005292
sI6
F-1.154746
sI7
F-1.046504
sI8
F-1.382226
sI9
F-0.454835
sI10
F-0.8699484
sI11
F-0.6717177
sI12
F-0.5153545
sI13
F-0.06141743
sI14
F-0.7398101
ssg79
(dp308
I0
F12.524
sI1
F12.532
sI2
F12.515
sI3
F12.645
sI4
F12.54
sI5
F12.552
sI6
F12.484
sI7
F12.525
sI8
F12.529
sI9
F12.636
sI10
F12.539
sI11
F12.524
sI12
F12.627
sI13
F12.62
sI14
F12.593
ssg81
(dp309
I0
F0.003
sI1
F0.003
sI2
F0.003
sI3
F0.003
sI4
F0.003
sI5
F0.003
sI6
F0.003
sI7
F0.003
sI8
F0.003
sI9
F0.003
sI10
F0.003
sI11
F0.003
sI12
F0.003
sI13
F0.003
sI14
F0.003
ssg83
(dp310
I0
F0.36756202557830486
sI1
Fnan
sI2
Fnan
sI3
Fnan
sI4
Fnan
sI5
Fnan
sI6
Fnan
sI7
Fnan
sI8
Fnan
sI9
Fnan
sI10
Fnan
sI11
Fnan
sI12
Fnan
sI13
Fnan
sI14
Fnan
ssg85
(dp311
I0
F12.559
sI1
Fnan
sI2
Fnan
sI3
Fnan
sI4
Fnan
sI5
Fnan
sI6
Fnan
sI7
Fnan
sI8
Fnan
sI9
Fnan
sI10
Fnan
sI11
Fnan
sI12
Fnan
sI13
Fnan
sI14
Fnan
ssg87
(dp312
I0
F12.289
sI1
F12.319
sI2
F12.278
sI3
F12.424
sI4
F12.303
sI5
F12.339
sI6
F12.266
sI7
F12.311
sI8
F12.308
sI9
F12.408
sI10
F12.326
sI11
F12.3
sI12
F12.403
sI13
F12.404
sI14
F12.368
ssg89
(dp313
I0
F3.819246
sI1
F4.229038
sI2
F-1.729321
sI3
F-1.435026
sI4
F-2.447685
sI5
F1.78728
sI6
F2.865047
sI7
F2.872318
sI8
F-1.699538
sI9
F2.569454
sI10
F-3.391743
sI11
F0.8931427
sI12
F4.261823
sI13
F3.202221
sI14
F1.498724
ssg91
(dp314
I0
F0.05012954646285414
sI1
Fnan
sI2
Fnan
sI3
Fnan
sI4
Fnan
sI5
Fnan
sI6
Fnan
sI7
Fnan
sI8
Fnan
sI9
Fnan
sI10
Fnan
sI11
Fnan
sI12
Fnan
sI13
Fnan
sI14
Fnan
ssg93
(dp315
I0
F0.6845041975159116
sI1
F0.691359980460605
sI2
F0.6858458112332092
sI3
F0.6894207856491368
sI4
F0.6821332091548326
sI5
F0.6870137953586105
sI6
F0.688369152743298
sI7
F0.6937562175005397
sI8
F0.6880539748353723
sI9
F0.6827343008677332
sI10
F0.6913606308195391
sI11
F0.6872901786026597
sI12
F0.688028005627512
sI13
F0.6909718050231262
sI14
F0.6851565441871389
ssg95
(dp316
I0
F30.0
sI1
F30.0
sI2
F30.0
sI3
F30.0
sI4
F30.0
sI5
F30.0
sI6
F30.0
sI7
F30.0
sI8
F30.0
sI9
F30.0
sI10
F30.0
sI11
F30.0
sI12
F30.0
sI13
F30.0
sI14
F30.0
ssg97
(dp317
I0
F0.004
sI1
F0.004
sI2
F0.004
sI3
F0.005
sI4
F0.004
sI5
F0.004
sI6
F0.004
sI7
F0.004
sI8
F0.004
sI9
F0.005
sI10
F0.004
sI11
F0.004
sI12
F0.005
sI13
F0.004
sI14
F0.004
ssg99
(dp318
I0
F0.004
sI1
F0.004
sI2
F0.004
sI3
F0.004
sI4
F0.004
sI5
F0.004
sI6
F0.004
sI7
F0.004
sI8
F0.004
sI9
F0.004
sI10
F0.004
sI11
F0.004
sI12
F0.004
sI13
F0.004
sI14
F0.004
ssg101
(dp319
I0
F3.719074
sI1
F-3.118678
sI2
F3.927013
sI3
F4.182967
sI4
F-2.641785
sI5
F3.897023
sI6
F3.532332
sI7
F3.107537
sI8
F-3.45829
sI9
F2.714429
sI10
F4.950115
sI11
F1.985454
sI12
F1.793506
sI13
F0.4642128
sI14
F-2.700005
ssg103
(dp320
I0
S"KIC8462852-20181107at024813_-25-1X1-030-z'_cal.fts.mag.1"
p321
sI1
S"KIC8462852-20181107at021753_-25-1X1-030-z'_cal.fts.mag.1"
p322
sI2
S"KIC8462852-20181107at024918_-25-1X1-030-z'_cal.fts.mag.1"
p323
sI3
S"KIC8462852-20181107at015401_-25-1X1-030-z'_cal.fts.mag.1"
p324
sI4
S"KIC8462852-20181107at024709_-25-1X1-030-z'_cal.fts.mag.1"
p325
sI5
S"KIC8462852-20181107at022002_-25-1X1-030-z'_cal.fts.mag.1"
p326
sI6
S"KIC8462852-20181107at024459_-25-1X1-030-z'_cal.fts.mag.1"
p327
sI7
S"KIC8462852-20181107at021858_-25-1X1-030-z'_cal.fts.mag.1"
p328
sI8
S"KIC8462852-20181107at022209_-25-1X1-030-z'_cal.fts.mag.1"
p329
sI9
S"KIC8462852-20181107at015153_-25-1X1-030-z'_cal.fts.mag.1"
p330
sI10
S"KIC8462852-20181107at022106_-25-1X1-030-z'_cal.fts.mag.1"
p331
sI11
S"KIC8462852-20181107at024605_-25-1X1-030-z'_cal.fts.mag.1"
p332
sI12
S"KIC8462852-20181107at015257_-25-1X1-030-z'_cal.fts.mag.1"
p333
sI13
S"KIC8462852-20181107at015506_-25-1X1-030-z'_cal.fts.mag.1"
p334
sI14
S"KIC8462852-20181107at015048_-25-1X1-030-z'_cal.fts.mag.1"
p335
ssg119
(dp336
I0
F0.008719952003368642
sI1
Fnan
sI2
Fnan
sI3
Fnan
sI4
Fnan
sI5
Fnan
sI6
Fnan
sI7
Fnan
sI8
Fnan
sI9
Fnan
sI10
Fnan
sI11
Fnan
sI12
Fnan
sI13
Fnan
sI14
Fnan
ssg121
(dp337
I0
F1191.7546666666667
sI1
F1158.0793333333334
sI2
F1199.0366666666666
sI3
F1039.9226666666666
sI4
F1167.6116666666667
sI5
F1132.4156666666668
sI6
F1229.8736666666666
sI7
F1167.32
sI8
F1178.6
sI9
F1066.6833333333334
sI10
F1144.9373333333335
sI11
F1165.6016666666667
sI12
F1065.488
sI13
F1079.095
sI14
F1118.7279999999998
ssg123
(dp338
I0
F0.051012603484685115
sI1
Fnan
sI2
Fnan
sI3
Fnan
sI4
Fnan
sI5
Fnan
sI6
Fnan
sI7
Fnan
sI8
Fnan
sI9
Fnan
sI10
Fnan
sI11
Fnan
sI12
Fnan
sI13
Fnan
sI14
Fnan
ssg125
(dp339
I0
S"z'"
p340
sI1
S"z'"
p341
sI2
S"z'"
p342
sI3
S"z'"
p343
sI4
S"z'"
p344
sI5
S"z'"
p345
sI6
S"z'"
p346
sI7
S"z'"
p347
sI8
S"z'"
p348
sI9
S"z'"
p349
sI10
S"z'"
p350
sI11
S"z'"
p351
sI12
S"z'"
p352
sI13
S"z'"
p353
sI14
S"z'"
p354
ssg141
(dp355
I0
F0.0029403223637235625
sI1
Fnan
sI2
Fnan
sI3
Fnan
sI4
Fnan
sI5
Fnan
sI6
Fnan
sI7
Fnan
sI8
Fnan
sI9
Fnan
sI10
Fnan
sI11
Fnan
sI12
Fnan
sI13
Fnan
sI14
Fnan
ssg143
(dp356
I0
F-2.675985
sI1
F3.345408
sI2
F-1.283593
sI3
F-1.9587
sI4
F3.133876
sI5
F-3.430767
sI6
F3.049408
sI7
F-3.444216
sI8
F-2.872103
sI9
F3.492238
sI10
F2.987578
sI11
F4.56643
sI12
F2.561931
sI13
F2.236517
sI14
F3.078673
ssg145
(dp357
I0
F1.5085978691096988
sI1
Fnan
sI2
Fnan
sI3
Fnan
sI4
Fnan
sI5
Fnan
sI6
Fnan
sI7
Fnan
sI8
Fnan
sI9
Fnan
sI10
Fnan
sI11
Fnan
sI12
Fnan
sI13
Fnan
sI14
Fnan
ssg147
(dp358
I0
F2458429.5972453705
sI1
Fnan
sI2
Fnan
sI3
Fnan
sI4
Fnan
sI5
Fnan
sI6
Fnan
sI7
Fnan
sI8
Fnan
sI9
Fnan
sI10
Fnan
sI11
Fnan
sI12
Fnan
sI13
Fnan
sI14
Fnan
ssg149
(dp359
I0
F0.0029403223637235625
sI1
Fnan
sI2
Fnan
sI3
Fnan
sI4
Fnan
sI5
Fnan
sI6
Fnan
sI7
Fnan
sI8
Fnan
sI9
Fnan
sI10
Fnan
sI11
Fnan
sI12
Fnan
sI13
Fnan
sI14
Fnan
ssg151
(dp360
I0
F-1.320677
sI1
F-1.214523
sI2
F-0.8753454
sI3
F0.004482376
sI4
F-0.8707322
sI5
F-0.1048684
sI6
F-0.6240878
sI7
F-0.5111392
sI8
F-0.6245836
sI9
F-0.4894938
sI10
F0.9554001
sI11
F-1.373169
sI12
F-0.6831043
sI13
F-0.3283435
sI14
F-0.2844843
ssg153
(dp361
I0
F11.961
sI1
F11.972
sI2
F11.956
sI3
F12.085
sI4
F11.972
sI5
F11.98
sI6
F11.919
sI7
F11.972
sI8
F11.965
sI9
F12.063
sI10
F11.979
sI11
F11.961
sI12
F12.064
sI13
F12.06
sI14
F12.025
ssg155
(dp362
I0
F0.36756202557830486
sI1
Fnan
sI2
Fnan
sI3
Fnan
sI4
Fnan
sI5
Fnan
sI6
Fnan
sI7
Fnan
sI8
Fnan
sI9
Fnan
sI10
Fnan
sI11
Fnan
sI12
Fnan
sI13
Fnan
sI14
Fnan
sssS'g'
p363
(dp364
g3
(dp365
I0
F0.8683802652192664
sI1
Fnan
sI2
Fnan
sI3
Fnan
sI4
Fnan
sI5
Fnan
sI6
Fnan
sI7
Fnan
sI8
Fnan
sI9
Fnan
sI10
Fnan
sI11
Fnan
ssg5
(dp366
I0
S'NoError'
p367
sI1
S'NoError'
p368
sI2
S'NoError'
p369
sI3
S'NoError'
p370
sI4
S'NoError'
p371
sI5
S'NoError'
p372
sI6
S'NoError'
p373
sI7
S'NoError'
p374
sI8
S'NoError'
p375
sI9
S'NoError'
p376
sI10
S'NoError'
p377
sI11
S'NoError'
p378
ssg21
(dp379
I0
F0.003
sI1
F0.002
sI2
F0.002
sI3
F0.002
sI4
F0.002
sI5
F0.002
sI6
F0.002
sI7
F0.003
sI8
F0.002
sI9
F0.002
sI10
F0.002
sI11
F0.002
ssg23
(dp380
I0
F0.8783715517271192
sI1
F0.8852070230137321
sI2
F0.8752827078364173
sI3
F0.8778081969932946
sI4
F0.8798976981190127
sI5
F0.8694208268146577
sI6
F0.8819244002766456
sI7
F0.8834070489743165
sI8
F0.8776440758892066
sI9
F0.883502543959368
sI10
F0.8788745436266471
sI11
F0.8818388599777036
ssg25
(dp381
I0
F0.004292192397948572
sI1
Fnan
sI2
Fnan
sI3
Fnan
sI4
Fnan
sI5
Fnan
sI6
Fnan
sI7
Fnan
sI8
Fnan
sI9
Fnan
sI10
Fnan
sI11
Fnan
ssg27
(dp382
I0
F0.8794316231006768
sI1
Fnan
sI2
Fnan
sI3
Fnan
sI4
Fnan
sI5
Fnan
sI6
Fnan
sI7
Fnan
sI8
Fnan
sI9
Fnan
sI10
Fnan
sI11
Fnan
ssg29
(dp383
I0
F11.545
sI1
F11.518
sI2
F11.52
sI3
F11.501
sI4
F11.512
sI5
F11.525
sI6
F11.506
sI7
F11.566
sI8
F11.501
sI9
F11.518
sI10
F11.505
sI11
F11.482
ssg31
(dp384
I0
F17.34189
sI1
F-3.780596
sI2
F-1.196639
sI3
F-4.222531
sI4
F-2.701379
sI5
F-2.912826
sI6
F-2.081628
sI7
F14.15738
sI8
F-3.770231
sI9
F-3.273427
sI10
F-2.114472
sI11
F-2.397683
ssg33
(dp385
I0
F2458429.565474537
sI1
F2458429.606400463
sI2
F2458429.5854166667
sI3
F2458429.6056712964
sI4
F2458429.586145833
sI5
F2458429.604189815
sI6
F2458429.587627315
sI7
F2458429.5662152776
sI8
F2458429.603449074
sI9
F2458429.6049305554
sI10
F2458429.586886574
sI11
F2458429.584675926
ssg35
(dp386
I0
F1.4390602833333332
sI1
Fnan
sI2
Fnan
sI3
Fnan
sI4
Fnan
sI5
Fnan
sI6
Fnan
sI7
Fnan
sI8
Fnan
sI9
Fnan
sI10
Fnan
sI11
Fnan
ssg37
(dp387
I0
F1.3223970833333334
sI1
Fnan
sI2
Fnan
sI3
Fnan
sI4
Fnan
sI5
Fnan
sI6
Fnan
sI7
Fnan
sI8
Fnan
sI9
Fnan
sI10
Fnan
sI11
Fnan
ssg39
(dp388
I0
F0.8727450731286716
sI1
F0.8690957389692668
sI2
F0.8674922337478448
sI3
F0.8677469345361525
sI4
F0.8642469449836127
sI5
F0.8695023525888351
sI6
F0.8717401540401976
sI7
F0.87222497500051
sI8
F0.8654793447113057
sI9
F0.8642911208457682
sI10
F0.8655874106401925
sI11
F0.8704108994388399
ssg41
(dp389
I0
F0.0029187208154450783
sI1
Fnan
sI2
Fnan
sI3
Fnan
sI4
Fnan
sI5
Fnan
sI6
Fnan
sI7
Fnan
sI8
Fnan
sI9
Fnan
sI10
Fnan
sI11
Fnan
ssg43
(dp390
I0
F2.714702916666667
sI1
Fnan
sI2
Fnan
sI3
Fnan
sI4
Fnan
sI5
Fnan
sI6
Fnan
sI7
Fnan
sI8
Fnan
sI9
Fnan
sI10
Fnan
sI11
Fnan
ssg45
(dp391
I0
g367
sI1
g368
sI2
g369
sI3
g370
sI4
g371
sI5
g372
sI6
g373
sI7
g374
sI8
g375
sI9
g376
sI10
g377
sI11
g378
ssg47
(dp392
I0
F0.00308963335547125
sI1
Fnan
sI2
Fnan
sI3
Fnan
sI4
Fnan
sI5
Fnan
sI6
Fnan
sI7
Fnan
sI8
Fnan
sI9
Fnan
sI10
Fnan
sI11
Fnan
ssg49
(dp393
I0
F0.023926022349202804
sI1
Fnan
sI2
Fnan
sI3
Fnan
sI4
Fnan
sI5
Fnan
sI6
Fnan
sI7
Fnan
sI8
Fnan
sI9
Fnan
sI10
Fnan
sI11
Fnan
ssg51
(dp394
I0
F1.7955287999999998
sI1
Fnan
sI2
Fnan
sI3
Fnan
sI4
Fnan
sI5
Fnan
sI6
Fnan
sI7
Fnan
sI8
Fnan
sI9
Fnan
sI10
Fnan
sI11
Fnan
ssg53
(dp395
I0
F1.5098003438421195
sI1
F1.5114377424188277
sI2
F1.5240545826932081
sI3
F1.5189464853337407
sI4
F1.5151645511672718
sI5
F1.5285569362236764
sI6
F1.521441688675009
sI7
F1.518143629805794
sI8
F1.5163790582826118
sI9
F1.5197530581814183
sI10
F1.5176968013674366
sI11
F1.5136004677407442
ssg55
(dp396
I0
g367
sI1
g368
sI2
g369
sI3
g370
sI4
g371
sI5
g372
sI6
g373
sI7
g374
sI8
g375
sI9
g376
sI10
g377
sI11
g378
ssg57
(dp397
I0
F17.62396
sI1
F-3.421054
sI2
F-1.808736
sI3
F-3.883032
sI4
F-2.221133
sI5
F-3.716662
sI6
F-1.942885
sI7
F14.55556
sI8
F-3.633095
sI9
F-3.159701
sI10
F-3.221776
sI11
F-2.972872
ssg59
(dp398
I0
F11.083250000000001
sI1
Fnan
sI2
Fnan
sI3
Fnan
sI4
Fnan
sI5
Fnan
sI6
Fnan
sI7
Fnan
sI8
Fnan
sI9
Fnan
sI10
Fnan
sI11
Fnan
ssg61
(dp399
I0
F0.7140857601079205
sI1
Fnan
sI2
Fnan
sI3
Fnan
sI4
Fnan
sI5
Fnan
sI6
Fnan
sI7
Fnan
sI8
Fnan
sI9
Fnan
sI10
Fnan
sI11
Fnan
ssg63
(dp400
I0
F-3.90062
sI1
F2.745941
sI2
F2.354035
sI3
F2.877921
sI4
F-1.656689
sI5
F2.378646
sI6
F2.878695
sI7
F-2.158496
sI8
F1.928053
sI9
F3.381211
sI10
F3.280847
sI11
F1.759221
ssg65
(dp401
I0
F11.4585
sI1
Fnan
sI2
Fnan
sI3
Fnan
sI4
Fnan
sI5
Fnan
sI6
Fnan
sI7
Fnan
sI8
Fnan
sI9
Fnan
sI10
Fnan
sI11
Fnan
ssg67
(dp402
I0
g367
sI1
g368
sI2
g369
sI3
g370
sI4
g371
sI5
g372
sI6
g373
sI7
g374
sI8
g375
sI9
g376
sI10
g377
sI11
g378
ssg69
(dp403
I0
F6349.36
sI1
F6571.753333333333
sI2
F6518.513333333333
sI3
F6648.873333333334
sI4
F6615.883333333333
sI5
F6444.55
sI6
F6607.496666666667
sI7
F6255.306666666667
sI8
F6663.256666666667
sI9
F6600.906666666667
sI10
F6643.9400000000005
sI11
F6767.13
ssg71
(dp404
I0
F1.021592
sI1
F1.0787309999999999
sI2
F1.043935
sI3
F1.0772959999999998
sI4
F1.044949
sI5
F1.074466
sI6
F1.047028
sI7
F1.022248
sI8
F1.0730870000000001
sI9
F1.075861
sI10
F1.045981
sI11
F1.042935
ssg73
(dp405
I0
F5506.8566666666675
sI1
F5628.206666666667
sI2
F5634.056666666667
sI3
F5739.88
sI4
F5704.296666666666
sI5
F5611.073333333334
sI6
F5655.53
sI7
F5351.429999999999
sI8
F5762.9766666666665
sI9
F5640.573333333334
sI10
F5729.576666666666
sI11
F5821.04
ssg75
(dp406
I0
F8950.26
sI1
F9219.74
sI2
F9260.59
sI3
F9408.926666666666
sI4
F9333.55
sI5
F9213.853333333333
sI6
F9328.74
sI7
F8810.346666666668
sI8
F9421.44
sI9
F9302.013333333334
sI10
F9389.623333333333
sI11
F9526.730000000001
ssg77
(dp407
I0
F17.45232
sI1
F-3.841563
sI2
F-1.960227
sI3
F-3.374612
sI4
F-2.845092
sI5
F-3.296297
sI6
F-2.123579
sI7
F14.24653
sI8
F-4.375405
sI9
F-4.54946
sI10
F-2.73706
sI11
F-2.981687
ssg79
(dp408
I0
F11.648
sI1
F11.624
sI2
F11.623
sI3
F11.603
sI4
F11.609
sI5
F11.627
sI6
F11.619
sI7
F11.679
sI8
F11.598
sI9
F11.622
sI10
F11.605
sI11
F11.587
ssg81
(dp409
I0
F0.002
sI1
F0.002
sI2
F0.002
sI3
F0.002
sI4
F0.002
sI5
F0.002
sI6
F0.002
sI7
F0.002
sI8
F0.002
sI9
F0.002
sI10
F0.002
sI11
F0.002
ssg83
(dp410
I0
F0.8683802652192664
sI1
Fnan
sI2
Fnan
sI3
Fnan
sI4
Fnan
sI5
Fnan
sI6
Fnan
sI7
Fnan
sI8
Fnan
sI9
Fnan
sI10
Fnan
sI11
Fnan
ssg85
(dp411
I0
F11.620333333333335
sI1
Fnan
sI2
Fnan
sI3
Fnan
sI4
Fnan
sI5
Fnan
sI6
Fnan
sI7
Fnan
sI8
Fnan
sI9
Fnan
sI10
Fnan
sI11
Fnan
ssg87
(dp412
I0
F11.493
sI1
F11.456
sI2
F11.465
sI3
F11.443
sI4
F11.449
sI5
F11.477
sI6
F11.45
sI7
F11.509
sI8
F11.441
sI9
F11.451
sI10
F11.444
sI11
F11.424
ssg89
(dp413
I0
F-3.108019
sI1
F3.133578
sI2
F2.406494
sI3
F4.203201
sI4
F3.081661
sI5
F-2.422103
sI6
F3.066618
sI7
F-0.4846046
sI8
F2.959141
sI9
F3.619501
sI10
F3.3924
sI11
F-2.579144
ssg91
(dp414
I0
F0.024000473480177812
sI1
Fnan
sI2
Fnan
sI3
Fnan
sI4
Fnan
sI5
Fnan
sI6
Fnan
sI7
Fnan
sI8
Fnan
sI9
Fnan
sI10
Fnan
sI11
Fnan
ssg93
(dp415
I0
F0.7198684237473437
sI1
F0.7128150008190064
sI2
F0.7141162013642094
sI3
F0.7149024150257196
sI4
F0.7152977221761274
sI5
F0.7166852473889953
sI6
F0.7097698306438303
sI7
F0.7104145942558967
sI8
F0.7165788433685103
sI9
F0.7093758043596187
sI10
F0.714697855685646
sI11
F0.7145071824601414
ssg95
(dp416
I0
F30.0
sI1
F30.0
sI2
F30.0
sI3
F30.0
sI4
F30.0
sI5
F30.0
sI6
F30.0
sI7
F30.0
sI8
F30.0
sI9
F30.0
sI10
F30.0
sI11
F30.0
ssg97
(dp417
I0
F0.003
sI1
F0.003
sI2
F0.003
sI3
F0.003
sI4
F0.003
sI5
F0.003
sI6
F0.003
sI7
F0.003
sI8
F0.003
sI9
F0.003
sI10
F0.003
sI11
F0.002
ssg99
(dp418
I0
F0.002
sI1
F0.002
sI2
F0.002
sI3
F0.002
sI4
F0.002
sI5
F0.002
sI6
F0.002
sI7
F0.002
sI8
F0.002
sI9
F0.002
sI10
F0.002
sI11
F0.002
ssg101
(dp419
I0
F3.953402
sI1
F0.9649227
sI2
F-2.645586
sI3
F3.418135
sI4
F2.611259
sI5
F2.397308
sI6
F-0.5558071
sI7
F3.84651
sI8
F3.435325
sI9
F-2.746076
sI10
F3.443124
sI11
F3.423829
ssg103
(dp420
I0
S"KIC8462852-20181107at013406_-25-1X1-030-g'_cal.fts.mag.1"
p421
sI1
S"KIC8462852-20181107at023313_-25-1X1-030-g'_cal.fts.mag.1"
p422
sI2
S"KIC8462852-20181107at020300_-25-1X1-030-g'_cal.fts.mag.1"
p423
sI3
S"KIC8462852-20181107at023210_-25-1X1-030-g'_cal.fts.mag.1"
p424
sI4
S"KIC8462852-20181107at020403_-25-1X1-030-g'_cal.fts.mag.1"
p425
sI5
S"KIC8462852-20181107at023002_-25-1X1-030-g'_cal.fts.mag.1"
p426
sI6
S"KIC8462852-20181107at020611_-25-1X1-030-g'_cal.fts.mag.1"
p427
sI7
S"KIC8462852-20181107at013521_-25-1X1-030-g'_cal.fts.mag.1"
p428
sI8
S"KIC8462852-20181107at022853_-25-1X1-030-g'_cal.fts.mag.1"
p429
sI9
S"KIC8462852-20181107at023106_-25-1X1-030-g'_cal.fts.mag.1"
p430
sI10
S"KIC8462852-20181107at020507_-25-1X1-030-g'_cal.fts.mag.1"
p431
sI11
S"KIC8462852-20181107at020151_-25-1X1-030-g'_cal.fts.mag.1"
p432
ssg119
(dp433
I0
F0.005259337153486268
sI1
Fnan
sI2
Fnan
sI3
Fnan
sI4
Fnan
sI5
Fnan
sI6
Fnan
sI7
Fnan
sI8
Fnan
sI9
Fnan
sI10
Fnan
sI11
Fnan
ssg121
(dp434
I0
F6052.916666666667
sI1
F6205.256666666667
sI2
F6191.916666666667
sI3
F6304.956666666667
sI4
F6238.056666666667
sI5
F6164.62
sI6
F6274.136666666667
sI7
F5936.096666666666
sI8
F6302.903333333334
sI9
F6206.616666666667
sI10
F6279.3
sI11
F6416.35
ssg123
(dp435
I0
F0.024403179127219298
sI1
Fnan
sI2
Fnan
sI3
Fnan
sI4
Fnan
sI5
Fnan
sI6
Fnan
sI7
Fnan
sI8
Fnan
sI9
Fnan
sI10
Fnan
sI11
Fnan
ssg125
(dp436
I0
S"g'"
p437
sI1
S"g'"
p438
sI2
S"g'"
p439
sI3
S"g'"
p440
sI4
S"g'"
p441
sI5
S"g'"
p442
sI6
S"g'"
p443
sI7
S"g'"
p444
sI8
S"g'"
p445
sI9
S"g'"
p446
sI10
S"g'"
p447
sI11
S"g'"
p448
ssg141
(dp449
I0
F0.0030485044676506934
sI1
Fnan
sI2
Fnan
sI3
Fnan
sI4
Fnan
sI5
Fnan
sI6
Fnan
sI7
Fnan
sI8
Fnan
sI9
Fnan
sI10
Fnan
sI11
Fnan
ssg143
(dp450
I0
F2.624683
sI1
F3.147921
sI2
F2.671715
sI3
F2.910013
sI4
F2.33293
sI5
F3.754728
sI6
F3.41363
sI7
F4.02614
sI8
F2.960737
sI9
F2.788205
sI10
F-1.651307
sI11
F3.59704
ssg145
(dp451
I0
F1.5179146121443214
sI1
Fnan
sI2
Fnan
sI3
Fnan
sI4
Fnan
sI5
Fnan
sI6
Fnan
sI7
Fnan
sI8
Fnan
sI9
Fnan
sI10
Fnan
sI11
Fnan
ssg147
(dp452
I0
F2458429.5872569447
sI1
Fnan
sI2
Fnan
sI3
Fnan
sI4
Fnan
sI5
Fnan
sI6
Fnan
sI7
Fnan
sI8
Fnan
sI9
Fnan
sI10
Fnan
sI11
Fnan
ssg149
(dp453
I0
F0.0030485044676506934
sI1
Fnan
sI2
Fnan
sI3
Fnan
sI4
Fnan
sI5
Fnan
sI6
Fnan
sI7
Fnan
sI8
Fnan
sI9
Fnan
sI10
Fnan
sI11
Fnan
ssg151
(dp454
I0
F19.57227
sI1
F-3.358843
sI2
F-1.999192
sI3
F-3.005077
sI4
F-1.582076
sI5
F-2.031854
sI6
F-1.514939
sI7
F16.19965
sI8
F-3.349683
sI9
F-2.717801
sI10
F-1.691791
sI11
F-1.519165
ssg153
(dp455
I0
F11.12
sI1
F11.088
sI2
F11.083
sI3
F11.066
sI4
F11.075
sI5
F11.089
sI6
F11.075
sI7
F11.138
sI8
F11.065
sI9
F11.079
sI10
F11.068
sI11
F11.053
ssg155
(dp456
I0
F0.8683802652192664
sI1
Fnan
sI2
Fnan
sI3
Fnan
sI4
Fnan
sI5
Fnan
sI6
Fnan
sI7
Fnan
sI8
Fnan
sI9
Fnan
sI10
Fnan
sI11
Fnan
sssS'V'
p457
(dp458
g3
(dp459
I0
F0.6924143771472816
sI1
Fnan
sI2
Fnan
sI3
Fnan
sI4
Fnan
sI5
Fnan
sI6
Fnan
sI7
Fnan
sI8
Fnan
sI9
Fnan
sI10
Fnan
sI11
Fnan
sI12
Fnan
sI13
Fnan
sI14
Fnan
ssg5
(dp460
I0
S'NoError'
p461
sI1
S'NoError'
p462
sI2
S'NoError'
p463
sI3
S'NoError'
p464
sI4
S'NoError'
p465
sI5
S'NoError'
p466
sI6
S'NoError'
p467
sI7
S'NoError'
p468
sI8
S'NoError'
p469
sI9
S'NoError'
p470
sI10
S'NoError'
p471
sI11
S'NoError'
p472
sI12
S'NoError'
p473
sI13
S'NoError'
p474
sI14
S'NoError'
p475
ssg21
(dp476
I0
F0.002
sI1
F0.002
sI2
F0.002
sI3
F0.002
sI4
F0.002
sI5
F0.002
sI6
F0.002
sI7
F0.002
sI8
F0.002
sI9
F0.002
sI10
F0.002
sI11
F0.002
sI12
F0.002
sI13
F0.002
sI14
F0.002
ssg23
(dp477
I0
F0.8903796785052759
sI1
F0.8918506171500715
sI2
F0.8850742961373994
sI3
F0.8929963318964362
sI4
F0.8839033401633661
sI5
F0.8889852606624985
sI6
F0.8802735305477081
sI7
F0.8838260751190747
sI8
F0.8877102894462732
sI9
F0.8890358489767296
sI10
F0.894649627614644
sI11
F0.8836763793693186
sI12
F0.8852566686919274
sI13
F0.8830544451058563
sI14
F0.8935811532727754
ssg25
(dp478
I0
F0.004423047556189479
sI1
Fnan
sI2
Fnan
sI3
Fnan
sI4
Fnan
sI5
Fnan
sI6
Fnan
sI7
Fnan
sI8
Fnan
sI9
Fnan
sI10
Fnan
sI11
Fnan
sI12
Fnan
sI13
Fnan
sI14
Fnan
ssg27
(dp479
I0
F0.887616902843957
sI1
Fnan
sI2
Fnan
sI3
Fnan
sI4
Fnan
sI5
Fnan
sI6
Fnan
sI7
Fnan
sI8
Fnan
sI9
Fnan
sI10
Fnan
sI11
Fnan
sI12
Fnan
sI13
Fnan
sI14
Fnan
ssg29
(dp480
I0
F11.534
sI1
F11.523
sI2
F11.52
sI3
F11.5
sI4
F11.573
sI5
F11.517
sI6
F11.517
sI7
F11.498
sI8
F11.551
sI9
F11.549
sI10
F11.494
sI11
F11.525
sI12
F11.575
sI13
F11.502
sI14
F11.515
ssg31
(dp481
I0
F-1.043132
sI1
F-1.523207
sI2
F-1.22632
sI3
F-3.058816
sI4
F0.7712225
sI5
F-2.780857
sI6
F-0.5330089
sI7
F-2.407398
sI8
F-0.6988413
sI9
F-0.8962782
sI10
F-2.29522
sI11
F-0.6117797
sI12
F-0.3893172
sI13
F-1.85845
sI14
F-2.025212
ssg33
(dp482
I0
F2458429.6010416667
sI1
F2458429.602546296
sI2
F2458429.599537037
sI3
F2458429.621400463
sI4
F2458429.580763889
sI5
F2458429.620648148
sI6
F2458429.5830092593
sI7
F2458429.6183912037
sI8
F2458429.581516204
sI9
F2458429.5837615742
sI10
F2458429.6198958335
sI11
F2458429.600289352
sI12
F2458429.5822569444
sI13
F2458429.6191435186
sI14
F2458429.6017939816
ssg35
(dp483
I0
F0.5128996666666666
sI1
Fnan
sI2
Fnan
sI3
Fnan
sI4
Fnan
sI5
Fnan
sI6
Fnan
sI7
Fnan
sI8
Fnan
sI9
Fnan
sI10
Fnan
sI11
Fnan
sI12
Fnan
sI13
Fnan
sI14
Fnan
ssg37
(dp484
I0
F1.1764160666666668
sI1
Fnan
sI2
Fnan
sI3
Fnan
sI4
Fnan
sI5
Fnan
sI6
Fnan
sI7
Fnan
sI8
Fnan
sI9
Fnan
sI10
Fnan
sI11
Fnan
sI12
Fnan
sI13
Fnan
sI14
Fnan
ssg39
(dp485
I0
F0.691713332665554
sI1
F0.6903367215458505
sI2
F0.6889131984367631
sI3
F0.7005874659372302
sI4
F0.6944164385124493
sI5
F0.6918705969044993
sI6
F0.6916153525144882
sI7
F0.6957889340528367
sI8
F0.6925460273181872
sI9
F0.6916821469267919
sI10
F0.6930861629709657
sI11
F0.6920328712422507
sI12
F0.6952602372538229
sI13
F0.6892319706326804
sI14
F0.695307289084804
ssg41
(dp486
I0
F0.0020898102463706024
sI1
Fnan
sI2
Fnan
sI3
Fnan
sI4
Fnan
sI5
Fnan
sI6
Fnan
sI7
Fnan
sI8
Fnan
sI9
Fnan
sI10
Fnan
sI11
Fnan
sI12
Fnan
sI13
Fnan
sI14
Fnan
ssg43
(dp487
I0
F0.6139019466666668
sI1
Fnan
sI2
Fnan
sI3
Fnan
sI4
Fnan
sI5
Fnan
sI6
Fnan
sI7
Fnan
sI8
Fnan
sI9
Fnan
sI10
Fnan
sI11
Fnan
sI12
Fnan
sI13
Fnan
sI14
Fnan
ssg45
(dp488
I0
g461
sI1
g462
sI2
g463
sI3
g464
sI4
g465
sI5
g466
sI6
g467
sI7
g468
sI8
g469
sI9
g470
sI10
g471
sI11
g472
sI12
g473
sI13
g474
sI14
g475
ssg47
(dp489
I0
F0.003995261576643116
sI1
Fnan
sI2
Fnan
sI3
Fnan
sI4
Fnan
sI5
Fnan
sI6
Fnan
sI7
Fnan
sI8
Fnan
sI9
Fnan
sI10
Fnan
sI11
Fnan
sI12
Fnan
sI13
Fnan
sI14
Fnan
ssg49
(dp490
I0
F0.02699788351492961
sI1
Fnan
sI2
Fnan
sI3
Fnan
sI4
Fnan
sI5
Fnan
sI6
Fnan
sI7
Fnan
sI8
Fnan
sI9
Fnan
sI10
Fnan
sI11
Fnan
sI12
Fnan
sI13
Fnan
sI14
Fnan
ssg51
(dp491
I0
F0.7261848000000001
sI1
Fnan
sI2
Fnan
sI3
Fnan
sI4
Fnan
sI5
Fnan
sI6
Fnan
sI7
Fnan
sI8
Fnan
sI9
Fnan
sI10
Fnan
sI11
Fnan
sI12
Fnan
sI13
Fnan
sI14
Fnan
ssg53
(dp492
I0
F1.4975497172125085
sI1
F1.5047790013773654
sI2
F1.4962948752597562
sI3
F1.4907976490778265
sI4
F1.5041908777231994
sI5
F1.4931402346729956
sI6
F1.506326238414191
sI7
F1.501234212675075
sI8
F1.5025712439278105
sI9
F1.5048132101137253
sI10
F1.5025148179832752
sI11
F1.5017614180047916
sI12
F1.5031428936499576
sI13
F1.5120439993467982
sI14
F1.5034070902088605
ssg55
(dp493
I0
g461
sI1
g462
sI2
g463
sI3
g464
sI4
g465
sI5
g466
sI6
g467
sI7
g468
sI8
g469
sI9
g470
sI10
g471
sI11
g472
sI12
g473
sI13
g474
sI14
g475
ssg57
(dp494
I0
F-0.09514293
sI1
F-1.00289
sI2
F0.3430726
sI3
F-2.617814
sI4
F1.157841
sI5
F-2.317174
sI6
F-0.226391
sI7
F-1.719139
sI8
F0.01040113
sI9
F0.2954385
sI10
F-2.207399
sI11
F-0.7417153
sI12
F0.7955371
sI13
F-2.511765
sI14
F-1.416619
ssg59
(dp495
I0
F10.854466666666667
sI1
Fnan
sI2
Fnan
sI3
Fnan
sI4
Fnan
sI5
Fnan
sI6
Fnan
sI7
Fnan
sI8
Fnan
sI9
Fnan
sI10
Fnan
sI11
Fnan
sI12
Fnan
sI13
Fnan
sI14
Fnan
ssg61
(dp496
I0
F0.7165726056170055
sI1
Fnan
sI2
Fnan
sI3
Fnan
sI4
Fnan
sI5
Fnan
sI6
Fnan
sI7
Fnan
sI8
Fnan
sI9
Fnan
sI10
Fnan
sI11
Fnan
sI12
Fnan
sI13
Fnan
sI14
Fnan
ssg63
(dp497
I0
F3.173306
sI1
F-3.522366
sI2
F2.692428
sI3
F3.015377
sI4
F3.538746
sI5
F3.118003
sI6
F3.829032
sI7
F1.68895
sI8
F-3.573889
sI9
F-1.034567
sI10
F-2.533155
sI11
F-1.60722
sI12
F2.376761
sI13
F2.813868
sI14
F3.670967
ssg65
(dp498
I0
F11.2158
sI1
Fnan
sI2
Fnan
sI3
Fnan
sI4
Fnan
sI5
Fnan
sI6
Fnan
sI7
Fnan
sI8
Fnan
sI9
Fnan
sI10
Fnan
sI11
Fnan
sI12
Fnan
sI13
Fnan
sI14
Fnan
ssg67
(dp499
I0
g461
sI1
g462
sI2
g463
sI3
g464
sI4
g465
sI5
g466
sI6
g467
sI7
g468
sI8
g469
sI9
g470
sI10
g471
sI11
g472
sI12
g473
sI13
g474
sI14
g475
ssg69
(dp500
I0
F8170.21
sI1
F8279.043333333333
sI2
F8274.723333333333
sI3
F8338.13
sI4
F7808.71
sI5
F8285.003333333334
sI6
F8231.703333333333
sI7
F8353.663333333334
sI8
F8016.740000000001
sI9
F8050.323333333334
sI10
F8490.776666666667
sI11
F8193.946666666667
sI12
F7795.083333333333
sI13
F8398.8
sI14
F8293.746666666666
ssg71
(dp501
I0
F1.068673
sI1
F1.071387
sI2
F1.0660040000000002
sI3
F1.111453
sI4
F1.037822
sI5
F1.109631
sI6
F1.040708
sI7
F1.104311
sI8
F1.0387620000000002
sI9
F1.041699
sI10
F1.107825
sI11
F1.0673350000000001
sI12
F1.039727
sI13
F1.106063
sI14
F1.0700290000000001
ssg73
(dp502
I0
F6996.066666666667
sI1
F7040.056666666667
sI2
F7154.806666666667
sI3
F7138.35
sI4
F6732.3966666666665
sI5
F7130.490000000001
sI6
F7131.5599999999995
sI7
F7216.316666666667
sI8
F6874.236666666667
sI9
F6878.036666666667
sI10
F7196.243333333333
sI11
F7077.84
sI12
F6709.596666666666
sI13
F7216.583333333333
sI14
F7038.006666666667
ssg75
(dp503
I0
F11356.126666666667
sI1
F11525.93
sI2
F11543.563333333334
sI3
F11536.15
sI4
F10936.3
sI5
F11508.746666666668
sI6
F11571.043333333333
sI7
F11687.093333333332
sI8
F11187.376666666667
sI9
F11232.196666666667
sI10
F11784.99
sI11
F11467.29
sI12
F10901.303333333333
sI13
F11805.573333333334
sI14
F11524.933333333332
ssg77
(dp504
I0
F-1.776559
sI1
F-1.012883
sI2
F-1.142879
sI3
F-2.929075
sI4
F0.8638997
sI5
F-3.260273
sI6
F-0.9237622
sI7
F-2.229062
sI8
F0.6979911
sI9
F-0.1158577
sI10
F-2.483466
sI11
F-0.5598749
sI12
F-0.2371618
sI13
F-2.931707
sI14
F-1.021316
ssg79
(dp505
I0
F11.388
sI1
F11.381
sI2
F11.364
sI3
F11.366
sI4
F11.43
sI5
F11.367
sI6
F11.367
sI7
F11.354
sI8
F11.407
sI9
F11.406
sI10
F11.357
sI11
F11.375
sI12
F11.433
sI13
F11.354
sI14
F11.381
ssg81
(dp506
I0
F0.002
sI1
F0.002
sI2
F0.002
sI3
F0.002
sI4
F0.002
sI5
F0.002
sI6
F0.002
sI7
F0.002
sI8
F0.002
sI9
F0.002
sI10
F0.002
sI11
F0.002
sI12
F0.002
sI13
F0.002
sI14
F0.002
ssg83
(dp507
I0
F0.6929592497332783
sI1
Fnan
sI2
Fnan
sI3
Fnan
sI4
Fnan
sI5
Fnan
sI6
Fnan
sI7
Fnan
sI8
Fnan
sI9
Fnan
sI10
Fnan
sI11
Fnan
sI12
Fnan
sI13
Fnan
sI14
Fnan
ssg85
(dp508
I0
F11.382
sI1
Fnan
sI2
Fnan
sI3
Fnan
sI4
Fnan
sI5
Fnan
sI6
Fnan
sI7
Fnan
sI8
Fnan
sI9
Fnan
sI10
Fnan
sI11
Fnan
sI12
Fnan
sI13
Fnan
sI14
Fnan
ssg87
(dp509
I0
F11.219
sI1
F11.205
sI2
F11.206
sI3
F11.197
sI4
F11.269
sI5
F11.204
sI6
F11.211
sI7
F11.195
sI8
F11.24
sI9
F11.235
sI10
F11.178
sI11
F11.216
sI12
F11.27
sI13
F11.189
sI14
F11.203
ssg89
(dp510
I0
F2.873635
sI1
F-1.893377
sI2
F3.772645
sI3
F-3.545878
sI4
F2.480529
sI5
F3.358289
sI6
F-2.624329
sI7
F-2.692606
sI8
F3.331461
sI9
F1.953275
sI10
F3.288237
sI11
F-2.319063
sI12
F-2.799693
sI13
F3.863524
sI14
F-1.353154
ssg91
(dp511
I0
F0.02585914225366438
sI1
Fnan
sI2
Fnan
sI3
Fnan
sI4
Fnan
sI5
Fnan
sI6
Fnan
sI7
Fnan
sI8
Fnan
sI9
Fnan
sI10
Fnan
sI11
Fnan
sI12
Fnan
sI13
Fnan
sI14
Fnan
ssg93
(dp512
I0
F0.7165774908111284
sI1
F0.7109382626451403
sI2
F0.7220408895084439
sI3
F0.7183505515671512
sI4
F0.7183134782714619
sI5
F0.7204789390590465
sI6
F0.7202596811486083
sI7
F0.7201640922739609
sI8
F0.7159128207754066
sI9
F0.7133960360644425
sI10
F0.7098368660124648
sI11
F0.7199791264401646
sI12
F0.7177426083756647
sI13
F0.7143585415170841
sI14
F0.7102396997849167
ssg95
(dp513
I0
F30.0
sI1
F30.0
sI2
F30.0
sI3
F30.0
sI4
F30.0
sI5
F30.0
sI6
F30.0
sI7
F30.0
sI8
F30.0
sI9
F30.0
sI10
F30.0
sI11
F30.0
sI12
F30.0
sI13
F30.0
sI14
F30.0
ssg97
(dp514
I0
F0.002
sI1
F0.002
sI2
F0.002
sI3
F0.002
sI4
F0.002
sI5
F0.002
sI6
F0.002
sI7
F0.002
sI8
F0.002
sI9
F0.002
sI10
F0.002
sI11
F0.002
sI12
F0.002
sI13
F0.002
sI14
F0.002
ssg99
(dp515
I0
F0.002
sI1
F0.002
sI2
F0.002
sI3
F0.002
sI4
F0.002
sI5
F0.002
sI6
F0.002
sI7
F0.002
sI8
F0.002
sI9
F0.002
sI10
F0.002
sI11
F0.002
sI12
F0.002
sI13
F0.002
sI14
F0.002
ssg101
(dp516
I0
F-3.382648
sI1
F-2.798491
sI2
F-2.583961
sI3
F4.048642
sI4
F2.118387
sI5
F2.903412
sI6
F-1.677187
sI7
F3.408098
sI8
F3.417507
sI9
F-3.154319
sI10
F-2.083571
sI11
F1.429068
sI12
F3.4871
sI13
F2.039641
sI14
F3.721094
ssg103
(dp517
I0
S'KIC8462852-20181107at022530_-25-1X1-030-V_cal.fts.mag.1'
p518
sI1
S'KIC8462852-20181107at022740_-25-1X1-030-V_cal.fts.mag.1'
p519
sI2
S'KIC8462852-20181107at022313_-25-1X1-030-V_cal.fts.mag.1'
p520
sI3
S'KIC8462852-20181107at025449_-25-1X1-030-V_cal.fts.mag.1'
p521
sI4
S'KIC8462852-20181107at015611_-25-1X1-030-V_cal.fts.mag.1'
p522
sI5
S'KIC8462852-20181107at025343_-25-1X1-030-V_cal.fts.mag.1'
p523
sI6
S'KIC8462852-20181107at015932_-25-1X1-030-V_cal.fts.mag.1'
p524
sI7
S'KIC8462852-20181107at025022_-25-1X1-030-V_cal.fts.mag.1'
p525
sI8
S'KIC8462852-20181107at015723_-25-1X1-030-V_cal.fts.mag.1'
p526
sI9
S'KIC8462852-20181107at020037_-25-1X1-030-V_cal.fts.mag.1'
p527
sI10
S'KIC8462852-20181107at025239_-25-1X1-030-V_cal.fts.mag.1'
p528
sI11
S'KIC8462852-20181107at022425_-25-1X1-030-V_cal.fts.mag.1'
p529
sI12
S'KIC8462852-20181107at015827_-25-1X1-030-V_cal.fts.mag.1'
p530
sI13
S'KIC8462852-20181107at025134_-25-1X1-030-V_cal.fts.mag.1'
p531
sI14
S'KIC8462852-20181107at022635_-25-1X1-030-V_cal.fts.mag.1'
p532
ssg119
(dp533
I0
F0.005338071562471598
sI1
Fnan
sI2
Fnan
sI3
Fnan
sI4
Fnan
sI5
Fnan
sI6
Fnan
sI7
Fnan
sI8
Fnan
sI9
Fnan
sI10
Fnan
sI11
Fnan
sI12
Fnan
sI13
Fnan
sI14
Fnan
ssg121
(dp534
I0
F6115.3
sI1
F6177.37
sI2
F6194.04
sI3
F6308.236666666667
sI4
F5897.3099999999995
sI5
F6209.363333333333
sI6
F6209.3933333333325
sI7
F6321.723333333333
sI8
F6020.153333333334
sI9
F6031.596666666666
sI10
F6346.823333333334
sI11
F6168.1066666666675
sI12
F5887.923333333334
sI13
F6299.8
sI14
F6224.55
ssg123
(dp535
I0
F0.025933982119439952
sI1
Fnan
sI2
Fnan
sI3
Fnan
sI4
Fnan
sI5
Fnan
sI6
Fnan
sI7
Fnan
sI8
Fnan
sI9
Fnan
sI10
Fnan
sI11
Fnan
sI12
Fnan
sI13
Fnan
sI14
Fnan
ssg125
(dp536
I0
g457
sI1
g457
sI2
g457
sI3
g457
sI4
g457
sI5
g457
sI6
g457
sI7
g457
sI8
g457
sI9
g457
sI10
g457
sI11
g457
sI12
g457
sI13
g457
sI14
g457
ssg141
(dp537
I0
F0.002969949307714587
sI1
Fnan
sI2
Fnan
sI3
Fnan
sI4
Fnan
sI5
Fnan
sI6
Fnan
sI7
Fnan
sI8
Fnan
sI9
Fnan
sI10
Fnan
sI11
Fnan
sI12
Fnan
sI13
Fnan
sI14
Fnan
ssg143
(dp538
I0
F-2.42988
sI1
F-2.681687
sI2
F1.376851
sI3
F2.398368
sI4
F1.299072
sI5
F2.218543
sI6
F3.440808
sI7
F-3.117722
sI8
F3.440046
sI9
F-1.84152
sI10
F4.254443
sI11
F-3.873914
sI12
F2.660686
sI13
F-0.7303028
sI14
F2.794738
ssg145
(dp539
I0
F1.5016378319765422
sI1
Fnan
sI2
Fnan
sI3
Fnan
sI4
Fnan
sI5
Fnan
sI6
Fnan
sI7
Fnan
sI8
Fnan
sI9
Fnan
sI10
Fnan
sI11
Fnan
sI12
Fnan
sI13
Fnan
sI14
Fnan
ssg147
(dp540
I0
F2458429.6010416667
sI1
Fnan
sI2
Fnan
sI3
Fnan
sI4
Fnan
sI5
Fnan
sI6
Fnan
sI7
Fnan
sI8
Fnan
sI9
Fnan
sI10
Fnan
sI11
Fnan
sI12
Fnan
sI13
Fnan
sI14
Fnan
ssg149
(dp541
I0
F0.002969949307714587
sI1
Fnan
sI2
Fnan
sI3
Fnan
sI4
Fnan
sI5
Fnan
sI6
Fnan
sI7
Fnan
sI8
Fnan
sI9
Fnan
sI10
Fnan
sI11
Fnan
sI12
Fnan
sI13
Fnan
sI14
Fnan
ssg151
(dp542
I0
F0.3840035
sI1
F-0.4376427
sI2
F-0.1315409
sI3
F-1.259477
sI4
F2.929678
sI5
F-1.499984
sI6
F0.6101158
sI7
F-0.5659144
sI8
F1.89302
sI9
F0.9927789
sI10
F-1.917797
sI11
F-0.1791022
sI12
F1.873397
sI13
F-1.369226
sI14
F-0.3873729
ssg153
(dp543
I0
F10.862
sI1
F10.846
sI2
F10.844
sI3
F10.845
sI4
F10.903
sI5
F10.847
sI6
F10.842
sI7
F10.831
sI8
F10.878
sI9
F10.874
sI10
F10.822
sI11
F10.851
sI12
F10.906
sI13
F10.82
sI14
F10.846
ssg155
(dp544
I0
F0.6929592497332783
sI1
Fnan
sI2
Fnan
sI3
Fnan
sI4
Fnan
sI5
Fnan
sI6
Fnan
sI7
Fnan
sI8
Fnan
sI9
Fnan
sI10
Fnan
sI11
Fnan
sI12
Fnan
sI13
Fnan
sI14
Fnan
sss.