(dp0
S'i'
p1
(dp2
S'sigmean'
p3
(dp4
I0
F0.4344699869808579
sI1
Fnan
sI2
Fnan
sI3
Fnan
sI4
Fnan
sI5
Fnan
sI6
Fnan
sI7
Fnan
sI8
Fnan
sI9
Fnan
sI10
Fnan
sI11
Fnan
sI12
Fnan
sI13
Fnan
sI14
Fnan
ssS'ref3flag'
p5
(dp6
I0
S'NoError'
p7
sI1
S'NoError'
p8
sI2
S'NoError'
p9
sI3
S'NoError'
p10
sI4
S'NoError'
p11
sI5
S'NoError'
p12
sI6
S'NoError'
p13
sI7
S'NoError'
p14
sI8
S'NoError'
p15
sI9
S'NoError'
p16
sI10
S'NoError'
p17
sI11
S'NoError'
p18
sI12
S'NoError'
p19
sI13
S'NoError'
p20
sI14
S'NoError'
p21
ssS'tabbyerr'
p22
(dp23
I0
F0.003
sI1
F0.003
sI2
F0.003
sI3
F0.003
sI4
F0.003
sI5
F0.003
sI6
F0.003
sI7
F0.003
sI8
F0.003
sI9
F0.003
sI10
F0.003
sI11
F0.003
sI12
F0.003
sI13
F0.003
sI14
F0.003
ssS'ref2rel'
p24
(dp25
I0
F0.9069169680805583
sI1
F0.9004369390668676
sI2
F0.909556086957236
sI3
F0.9009951980507409
sI4
F0.9055064631009814
sI5
F0.9041939268238817
sI6
F0.9066638488604444
sI7
F0.9048744241400638
sI8
F0.9048834006760829
sI9
F0.9120382817971793
sI10
F0.907353889889298
sI11
F0.9137200878629612
sI12
F0.9100684971318429
sI13
F0.9154455209338974
sI14
F0.9176335525659303
ssS'ref2err'
p26
(dp27
I0
F0.005027012936533848
sI1
Fnan
sI2
Fnan
sI3
Fnan
sI4
Fnan
sI5
Fnan
sI6
Fnan
sI7
Fnan
sI8
Fnan
sI9
Fnan
sI10
Fnan
sI11
Fnan
sI12
Fnan
sI13
Fnan
sI14
Fnan
ssS'ref2mean'
p28
(dp29
I0
F0.9080191390625312
sI1
Fnan
sI2
Fnan
sI3
Fnan
sI4
Fnan
sI5
Fnan
sI6
Fnan
sI7
Fnan
sI8
Fnan
sI9
Fnan
sI10
Fnan
sI11
Fnan
sI12
Fnan
sI13
Fnan
sI14
Fnan
ssS'tabbymag'
p30
(dp31
I0
F12.058
sI1
F12.04
sI2
F12.043
sI3
F12.137
sI4
F12.027
sI5
F12.069
sI6
F12.137
sI7
F12.098
sI8
F12.08
sI9
F12.049
sI10
F12.041
sI11
F12.145
sI12
F12.024
sI13
F12.17
sI14
F12.124
ssS'tabbybkg'
p32
(dp33
I0
F12.00704
sI1
F10.95968
sI2
F10.61496
sI3
F12.90045
sI4
F11.22819
sI5
F10.97398
sI6
F13.53308
sI7
F11.24337
sI8
F11.44664
sI9
F10.17708
sI10
F11.8996
sI11
F13.74463
sI12
F11.69671
sI13
F13.38889
sI14
F13.96896
ssS'JD'
p34
(dp35
I0
F2458368.896527778
sI1
F2458368.875972222
sI2
F2458368.8781944443
sI3
F2458368.895023148
sI4
F2458368.876712963
sI5
F2458368.9162268518
sI6
F2458368.895775463
sI7
F2458368.9154861113
sI8
F2458368.9177199076
sI9
F2458368.9169791667
sI10
F2458368.8789467593
sI11
F2458368.8980324073
sI12
F2458368.8774421294
sI13
F2458368.9146875
sI14
F2458368.8972685183
ssS'ref3rmsmean'
p36
(dp37
I0
F4.195551733333333
sI1
Fnan
sI2
Fnan
sI3
Fnan
sI4
Fnan
sI5
Fnan
sI6
Fnan
sI7
Fnan
sI8
Fnan
sI9
Fnan
sI10
Fnan
sI11
Fnan
sI12
Fnan
sI13
Fnan
sI14
Fnan
ssS'ref1rmsmean'
p38
(dp39
I0
F0.10371746666666694
sI1
Fnan
sI2
Fnan
sI3
Fnan
sI4
Fnan
sI5
Fnan
sI6
Fnan
sI7
Fnan
sI8
Fnan
sI9
Fnan
sI10
Fnan
sI11
Fnan
sI12
Fnan
sI13
Fnan
sI14
Fnan
ssS'relflux'
p40
(dp41
I0
F0.4364034594777337
sI1
F0.43416172990661217
sI2
F0.43214759150673665
sI3
F0.4307460388578211
sI4
F0.43413422571579613
sI5
F0.4360344352767098
sI6
F0.42843452117408065
sI7
F0.433958079095596
sI8
F0.4368903414697894
sI9
F0.4350804547333147
sI10
F0.4353066662494191
sI11
F0.4359530172014543
sI12
F0.4348378964815231
sI13
F0.43388955734682466
sI14
F0.43303632441268125
ssS'sigerr'
p42
(dp43
I0
F0.0016382650741484832
sI1
Fnan
sI2
Fnan
sI3
Fnan
sI4
Fnan
sI5
Fnan
sI6
Fnan
sI7
Fnan
sI8
Fnan
sI9
Fnan
sI10
Fnan
sI11
Fnan
sI12
Fnan
sI13
Fnan
sI14
Fnan
ssS'tabbyrmsmean'
p44
(dp45
I0
F2.2273894000000003
sI1
Fnan
sI2
Fnan
sI3
Fnan
sI4
Fnan
sI5
Fnan
sI6
Fnan
sI7
Fnan
sI8
Fnan
sI9
Fnan
sI10
Fnan
sI11
Fnan
sI12
Fnan
sI13
Fnan
sI14
Fnan
ssS'tabbyflag'
p46
(dp47
I0
g7
sI1
g8
sI2
g9
sI3
g10
sI4
g11
sI5
g12
sI6
g13
sI7
g14
sI8
g15
sI9
g16
sI10
g17
sI11
g18
sI12
g19
sI13
g20
sI14
g21
ssS'ref1err'
p48
(dp49
I0
F0.002262453828635903
sI1
Fnan
sI2
Fnan
sI3
Fnan
sI4
Fnan
sI5
Fnan
sI6
Fnan
sI7
Fnan
sI8
Fnan
sI9
Fnan
sI10
Fnan
sI11
Fnan
sI12
Fnan
sI13
Fnan
sI14
Fnan
ssS'ref2magmeanerr'
p50
(dp51
I0
F0.04515159650185862
sI1
Fnan
sI2
Fnan
sI3
Fnan
sI4
Fnan
sI5
Fnan
sI6
Fnan
sI7
Fnan
sI8
Fnan
sI9
Fnan
sI10
Fnan
sI11
Fnan
sI12
Fnan
sI13
Fnan
sI14
Fnan
ssS'ref2rmsmean'
p52
(dp53
I0
F1.509460493333333
sI1
Fnan
sI2
Fnan
sI3
Fnan
sI4
Fnan
sI5
Fnan
sI6
Fnan
sI7
Fnan
sI8
Fnan
sI9
Fnan
sI10
Fnan
sI11
Fnan
sI12
Fnan
sI13
Fnan
sI14
Fnan
ssS'ref3rel'
p54
(dp55
I0
F1.5013993747675392
sI1
F1.513022839554164
sI2
F1.5074134884018697
sI3
F1.5067951992035964
sI4
F1.5085976573664635
sI5
F1.5114780677062691
sI6
F1.511624345473361
sI7
F1.5120889522396166
sI8
F1.508979430598297
sI9
F1.4965576664742535
sI10
F1.502874695540846
sI11
F1.4923213630445757
sI12
F1.4983051171119484
sI13
F1.4971301685063656
sI14
F1.4876676969764824
ssS'ref1flag'
p56
(dp57
I0
g7
sI1
g8
sI2
g9
sI3
g10
sI4
g11
sI5
g12
sI6
g13
sI7
g14
sI8
g15
sI9
g16
sI10
g17
sI11
g18
sI12
g19
sI13
g20
sI14
g21
ssS'ref2bkg'
p58
(dp59
I0
F14.85617
sI1
F12.74335
sI2
F13.39978
sI3
F18.05982
sI4
F13.17495
sI5
F15.39168
sI6
F17.36877
sI7
F14.80462
sI8
F15.59439
sI9
F12.62799
sI10
F13.83473
sI11
F17.30331
sI12
F13.25473
sI13
F17.68213
sI14
F16.06731
ssS'ref3magmean'
p60
(dp61
I0
F10.902133333333332
sI1
Fnan
sI2
Fnan
sI3
Fnan
sI4
Fnan
sI5
Fnan
sI6
Fnan
sI7
Fnan
sI8
Fnan
sI9
Fnan
sI10
Fnan
sI11
Fnan
sI12
Fnan
sI13
Fnan
sI14
Fnan
ssS'ref1mean'
p62
(dp63
I0
F0.697509659734081
sI1
Fnan
sI2
Fnan
sI3
Fnan
sI4
Fnan
sI5
Fnan
sI6
Fnan
sI7
Fnan
sI8
Fnan
sI9
Fnan
sI10
Fnan
sI11
Fnan
sI12
Fnan
sI13
Fnan
sI14
Fnan
ssS'ref1rms'
p64
(dp65
I0
F-2.251503
sI1
F3.082414
sI2
F3.021326
sI3
F-2.449859
sI4
F4.593168
sI5
F-2.270569
sI6
F2.833263
sI7
F4.756769
sI8
F-2.368172
sI9
F2.539398
sI10
F-3.355232
sI11
F2.658131
sI12
F-2.967321
sI13
F-4.252244
sI14
F-2.013807
ssS'ref2magmean'
p66
(dp67
I0
F11.247666666666667
sI1
Fnan
sI2
Fnan
sI3
Fnan
sI4
Fnan
sI5
Fnan
sI6
Fnan
sI7
Fnan
sI8
Fnan
sI9
Fnan
sI10
Fnan
sI11
Fnan
sI12
Fnan
sI13
Fnan
sI14
Fnan
ssS'ref2flag'
p68
(dp69
I0
g7
sI1
g8
sI2
g9
sI3
g10
sI4
g11
sI5
g12
sI6
g13
sI7
g14
sI8
g15
sI9
g16
sI10
g17
sI11
g18
sI12
g19
sI13
g20
sI14
g21
ssS'ref2'
p70
(dp71
I0
F8096.383333333333
sI1
F8229.74
sI2
F8306.413333333334
sI3
F7592.806666666667
sI4
F8359.306666666667
sI5
F8004.11
sI6
F7665.093333333333
sI7
F7836.426666666666
sI8
F7913.636666666667
sI9
F8214.63
sI10
F8244.306666666667
sI11
F7515.9766666666665
sI12
F8402.653333333334
sI13
F7393.116666666667
sI14
F7739.986666666667
ssS'airmass'
p72
(dp73
I0
F1.6654520000000002
sI1
F1.498169
sI2
F1.5142950000000002
sI3
F1.651814
sI4
F1.503427
sI5
F1.87378
sI6
F1.6586310000000002
sI7
F1.864811
sI8
F1.8919139999999999
sI9
F1.88277
sI10
F1.519802
sI11
F1.679661
sI12
F1.508815
sI13
F1.855186
sI14
F1.672259
ssS'ref1'
p74
(dp75
I0
F6726.903333333334
sI1
F6862.206666666667
sI2
F6845.0233333333335
sI3
F6349.88
sI4
F6930.323333333334
sI5
F6638.453333333334
sI6
F6330.39
sI7
F6489.463333333333
sI8
F6566.123333333334
sI9
F6787.79
sI10
F6838.45
sI11
F6209.766666666666
sI12
F6958.29
sI13
F6072.25
sI14
F6372.2733333333335
ssS'ref3'
p76
(dp77
I0
F11127.836666666666
sI1
F11417.230000000001
sI2
F11419.74
sI3
F10504.386666666665
sI4
F11532.95
sI5
F11065.956666666667
sI6
F10577.956666666667
sI7
F10831.01
sI8
F10924.83
sI9
F11225.993333333334
sI10
F11333.746666666668
sI11
F10241.609999999999
sI12
F11507.69
sI13
F10079.703333333333
sI14
F10497.176666666666
ssS'ref1bkg'
p78
(dp79
I0
F13.44193
sI1
F12.2537
sI2
F12.37219
sI3
F15.80245
sI4
F12.00429
sI5
F12.91887
sI6
F16.33894
sI7
F13.45106
sI8
F13.90168
sI9
F12.98441
sI10
F13.39567
sI11
F16.01498
sI12
F12.94791
sI13
F16.5202
sI14
F15.09048
ssS'ref1mag'
p80
(dp81
I0
F11.43
sI1
F11.409
sI2
F11.412
sI3
F11.493
sI4
F11.398
sI5
F11.445
sI6
F11.496
sI7
F11.469
sI8
F11.457
sI9
F11.421
sI10
F11.413
sI11
F11.517
sI12
F11.394
sI13
F11.542
sI14
F11.489
ssS'ref3magerr'
p82
(dp83
I0
F0.002
sI1
F0.002
sI2
F0.002
sI3
F0.002
sI4
F0.002
sI5
F0.002
sI6
F0.002
sI7
F0.002
sI8
F0.002
sI9
F0.002
sI10
F0.002
sI11
F0.002
sI12
F0.002
sI13
F0.002
sI14
F0.002
ssS'tabbymagmean'
p84
(dp85
I0
F0.4340676225937395
sI1
Fnan
sI2
Fnan
sI3
Fnan
sI4
Fnan
sI5
Fnan
sI6
Fnan
sI7
Fnan
sI8
Fnan
sI9
Fnan
sI10
Fnan
sI11
Fnan
sI12
Fnan
sI13
Fnan
sI14
Fnan
ssS'ref1magmean'
p86
(dp87
I0
F11.452333333333334
sI1
Fnan
sI2
Fnan
sI3
Fnan
sI4
Fnan
sI5
Fnan
sI6
Fnan
sI7
Fnan
sI8
Fnan
sI9
Fnan
sI10
Fnan
sI11
Fnan
sI12
Fnan
sI13
Fnan
sI14
Fnan
ssS'ref2mag'
p88
(dp89
I0
F11.229
sI1
F11.212
sI2
F11.201
sI3
F11.299
sI4
F11.195
sI5
F11.242
sI6
F11.289
sI7
F11.265
sI8
F11.254
sI9
F11.214
sI10
F11.21
sI11
F11.31
sI12
F11.189
sI13
F11.328
sI14
F11.278
ssS'ref3rms'
p90
(dp91
I0
F4.679234
sI1
F2.804036
sI2
F2.181528
sI3
F5.651438
sI4
F2.804795
sI5
F4.955933
sI6
F5.729016
sI7
F3.796029
sI8
F3.707955
sI9
F4.364082
sI10
F4.185627
sI11
F4.298063
sI12
F4.386142
sI13
F4.240479
sI14
F5.148919
ssS'ref3magmeanerr'
p92
(dp93
I0
F0.04761582370039016
sI1
Fnan
sI2
Fnan
sI3
Fnan
sI4
Fnan
sI5
Fnan
sI6
Fnan
sI7
Fnan
sI8
Fnan
sI9
Fnan
sI10
Fnan
sI11
Fnan
sI12
Fnan
sI13
Fnan
sI14
Fnan
ssS'ref1rel'
p94
(dp95
I0
F0.6998362829111748
sI1
F0.6985511421523692
sI2
F0.6940048794781074
sI3
F0.7017530158451827
sI4
F0.6967860358394061
sI5
F0.6962171081380594
sI6
F0.6940056624303502
sI7
F0.695270962929922
sI8
F0.6970974283115753
sI9
F0.6983099135881617
sI10
F0.6985832435502609
sI11
F0.6993930856970805
sI12
F0.6989623316390158
sI13
F0.6950509419773111
sI14
F0.6988228615232376
ssS'exposure'
p96
(dp97
I0
F30.0
sI1
F30.0
sI2
F30.0
sI3
F30.0
sI4
F30.0
sI5
F30.0
sI6
F30.0
sI7
F30.0
sI8
F30.0
sI9
F30.0
sI10
F30.0
sI11
F30.0
sI12
F30.0
sI13
F30.0
sI14
F30.0
ssS'ref1magerr'
p98
(dp99
I0
F0.002
sI1
F0.002
sI2
F0.002
sI3
F0.002
sI4
F0.002
sI5
F0.002
sI6
F0.002
sI7
F0.002
sI8
F0.002
sI9
F0.002
sI10
F0.002
sI11
F0.002
sI12
F0.002
sI13
F0.003
sI14
F0.002
ssS'ref2magerr'
p100
(dp101
I0
F0.002
sI1
F0.002
sI2
F0.002
sI3
F0.002
sI4
F0.002
sI5
F0.002
sI6
F0.002
sI7
F0.002
sI8
F0.002
sI9
F0.002
sI10
F0.002
sI11
F0.002
sI12
F0.002
sI13
F0.002
sI14
F0.002
ssS'ref2rms'
p102
(dp103
I0
F-3.053645
sI1
F3.259484
sI2
F4.411839
sI3
F1.300333
sI4
F3.48125
sI5
F-4.576612
sI6
F-0.8688173
sI7
F3.072332
sI8
F-0.5892043
sI9
F4.014669
sI10
F-3.872078
sI11
F4.97769
sI12
F3.909592
sI13
F3.747549
sI14
F3.427526
ssS'name'
p104
(dp105
I0
S"KIC8462852-20180907at093100_-25-1X1-030-i'_cal.fts.mag.1"
p106
sI1
S"KIC8462852-20180907at090122_-25-1X1-030-i'_cal.fts.mag.1"
p107
sI2
S"KIC8462852-20180907at090436_-25-1X1-030-i'_cal.fts.mag.1"
p108
sI3
S"KIC8462852-20180907at092849_-25-1X1-030-i'_cal.fts.mag.1"
p109
sI4
S"KIC8462852-20180907at090228_-25-1X1-030-i'_cal.fts.mag.1"
p110
sI5
S"KIC8462852-20180907at095922_-25-1X1-030-i'_cal.fts.mag.1"
p111
sI6
S"KIC8462852-20180907at092955_-25-1X1-030-i'_cal.fts.mag.1"
p112
sI7
S"KIC8462852-20180907at095818_-25-1X1-030-i'_cal.fts.mag.1"
p113
sI8
S"KIC8462852-20180907at100131_-25-1X1-030-i'_cal.fts.mag.1"
p114
sI9
S"KIC8462852-20180907at100027_-25-1X1-030-i'_cal.fts.mag.1"
p115
sI10
S"KIC8462852-20180907at090541_-25-1X1-030-i'_cal.fts.mag.1"
p116
sI11
S"KIC8462852-20180907at093310_-25-1X1-030-i'_cal.fts.mag.1"
p117
sI12
S"KIC8462852-20180907at090331_-25-1X1-030-i'_cal.fts.mag.1"
p118
sI13
S"KIC8462852-20180907at095707_-25-1X1-030-i'_cal.fts.mag.1"
p119
sI14
S"KIC8462852-20180907at093203_-25-1X1-030-i'_cal.fts.mag.1"
p120
ssS'ref3err'
p121
(dp122
I0
F0.007890036776060096
sI1
Fnan
sI2
Fnan
sI3
Fnan
sI4
Fnan
sI5
Fnan
sI6
Fnan
sI7
Fnan
sI8
Fnan
sI9
Fnan
sI10
Fnan
sI11
Fnan
sI12
Fnan
sI13
Fnan
sI14
Fnan
ssS'tabby'
p123
(dp124
I0
F3775.0533333333337
sI1
F3836.423333333333
sI2
F3827.5566666666664
sI3
F3510.1600000000003
sI4
F3881.5333333333333
sI5
F3736.6
sI6
F3509.3700000000003
sI7
F3639.0133333333333
sI8
F3699.673333333333
sI9
F3803.8233333333333
sI10
F3833.0933333333332
sI11
F3482.8799999999997
sI12
F3894.5
sI13
F3405.32
sI14
F3552.26
ssS'ref1magmeanerr'
p125
(dp126
I0
F0.046573546548391964
sI1
Fnan
sI2
Fnan
sI3
Fnan
sI4
Fnan
sI5
Fnan
sI6
Fnan
sI7
Fnan
sI8
Fnan
sI9
Fnan
sI10
Fnan
sI11
Fnan
sI12
Fnan
sI13
Fnan
sI14
Fnan
ssS'filter'
p127
(dp128
I0
S"i'"
p129
sI1
S"i'"
p130
sI2
S"i'"
p131
sI3
S"i'"
p132
sI4
S"i'"
p133
sI5
S"i'"
p134
sI6
S"i'"
p135
sI7
S"i'"
p136
sI8
S"i'"
p137
sI9
S"i'"
p138
sI10
S"i'"
p139
sI11
S"i'"
p140
sI12
S"i'"
p141
sI13
S"i'"
p142
sI14
S"i'"
p143
ssS'tabbymagerr'
p144
(dp145
I0
F0.0022610548320404146
sI1
Fnan
sI2
Fnan
sI3
Fnan
sI4
Fnan
sI5
Fnan
sI6
Fnan
sI7
Fnan
sI8
Fnan
sI9
Fnan
sI10
Fnan
sI11
Fnan
sI12
Fnan
sI13
Fnan
sI14
Fnan
ssS'tabbyrms'
p146
(dp147
I0
F3.693442
sI1
F-2.942737
sI2
F2.385732
sI3
F3.023933
sI4
F3.9596
sI5
F3.7807
sI6
F3.811222
sI7
F3.399971
sI8
F2.305275
sI9
F3.322588
sI10
F3.533402
sI11
F1.663744
sI12
F2.133384
sI13
F4.163648
sI14
F-4.823063
ssS'ref3mean'
p148
(dp149
I0
F1.5037504041977097
sI1
Fnan
sI2
Fnan
sI3
Fnan
sI4
Fnan
sI5
Fnan
sI6
Fnan
sI7
Fnan
sI8
Fnan
sI9
Fnan
sI10
Fnan
sI11
Fnan
sI12
Fnan
sI13
Fnan
sI14
Fnan
ssS'median_JD'
p150
(dp151
I0
F2458368.896527778
sI1
Fnan
sI2
Fnan
sI3
Fnan
sI4
Fnan
sI5
Fnan
sI6
Fnan
sI7
Fnan
sI8
Fnan
sI9
Fnan
sI10
Fnan
sI11
Fnan
sI12
Fnan
sI13
Fnan
sI14
Fnan
ssS'error'
p152
(dp153
I0
F0.0022610548320404146
sI1
Fnan
sI2
Fnan
sI3
Fnan
sI4
Fnan
sI5
Fnan
sI6
Fnan
sI7
Fnan
sI8
Fnan
sI9
Fnan
sI10
Fnan
sI11
Fnan
sI12
Fnan
sI13
Fnan
sI14
Fnan
ssS'ref3bkg'
p154
(dp155
I0
F16.06152
sI1
F15.26292
sI2
F15.63733
sI3
F19.97462
sI4
F14.57199
sI5
F15.68265
sI6
F19.29814
sI7
F17.87565
sI8
F16.74214
sI9
F14.69862
sI10
F15.70981
sI11
F21.2089
sI12
F14.07729
sI13
F19.94821
sI14
F19.86539
ssS'ref3mag'
p156
(dp157
I0
F10.884
sI1
F10.856
sI2
F10.856
sI3
F10.947
sI4
F10.845
sI5
F10.89
sI6
F10.939
sI7
F10.913
sI8
F10.904
sI9
F10.874
sI10
F10.864
sI11
F10.974
sI12
F10.848
sI13
F10.991
sI14
F10.947
ssS'mean'
p158
(dp159
I0
F0.4340676225937395
sI1
Fnan
sI2
Fnan
sI3
Fnan
sI4
Fnan
sI5
Fnan
sI6
Fnan
sI7
Fnan
sI8
Fnan
sI9
Fnan
sI10
Fnan
sI11
Fnan
sI12
Fnan
sI13
Fnan
sI14
Fnan
sssS'r'
p160
(dp161
g3
(dp162
I0
F0.5462374203416428
sI1
Fnan
sI2
Fnan
sI3
Fnan
sI4
Fnan
sI5
Fnan
sI6
Fnan
sI7
Fnan
sI8
Fnan
sI9
Fnan
sI10
Fnan
sI11
Fnan
sI12
Fnan
sI13
Fnan
sI14
Fnan
ssg5
(dp163
I0
S'NoError'
p164
sI1
S'NoError'
p165
sI2
S'NoError'
p166
sI3
S'NoError'
p167
sI4
S'NoError'
p168
sI5
S'NoError'
p169
sI6
S'NoError'
p170
sI7
S'NoError'
p171
sI8
S'NoError'
p172
sI9
S'NoError'
p173
sI10
S'NoError'
p174
sI11
S'NoError'
p175
sI12
S'NoError'
p176
sI13
S'NoError'
p177
sI14
S'NoError'
p178
ssg22
(dp179
I0
F0.002
sI1
F0.002
sI2
F0.002
sI3
F0.002
sI4
F0.002
sI5
F0.002
sI6
F0.002
sI7
F0.002
sI8
F0.002
sI9
F0.002
sI10
F0.002
sI11
F0.002
sI12
F0.002
sI13
F0.002
sI14
F0.002
ssg24
(dp180
I0
F0.8938309568470242
sI1
F0.8895543023759596
sI2
F0.8975077104512905
sI3
F0.8991892739162106
sI4
F0.8901325250900768
sI5
F0.8902213331904641
sI6
F0.8953131883035097
sI7
F0.8955864334073752
sI8
F0.8918684257625351
sI9
F0.896505683377692
sI10
F0.8951568555542719
sI11
F0.8951925425960504
sI12
F0.8903553511414793
sI13
F0.88890474915688
sI14
F0.8877853142182474
ssg26
(dp181
I0
F0.00351391320163778
sI1
Fnan
sI2
Fnan
sI3
Fnan
sI4
Fnan
sI5
Fnan
sI6
Fnan
sI7
Fnan
sI8
Fnan
sI9
Fnan
sI10
Fnan
sI11
Fnan
sI12
Fnan
sI13
Fnan
sI14
Fnan
ssg28
(dp182
I0
F0.8931403096926045
sI1
Fnan
sI2
Fnan
sI3
Fnan
sI4
Fnan
sI5
Fnan
sI6
Fnan
sI7
Fnan
sI8
Fnan
sI9
Fnan
sI10
Fnan
sI11
Fnan
sI12
Fnan
sI13
Fnan
sI14
Fnan
ssg30
(dp183
I0
F11.302
sI1
F11.398
sI2
F11.342
sI3
F11.419
sI4
F11.333
sI5
F11.3
sI6
F11.309
sI7
F11.3
sI8
F11.376
sI9
F11.395
sI10
F11.379
sI11
F11.396
sI12
F11.404
sI13
F11.391
sI14
F11.444
ssg32
(dp184
I0
F11.50037
sI1
F12.22778
sI2
F12.44272
sI3
F13.90788
sI4
F12.5073
sI5
F11.43573
sI6
F13.21043
sI7
F12.83159
sI8
F12.48502
sI9
F11.98861
sI10
F12.86155
sI11
F13.13776
sI12
F12.33751
sI13
F13.32181
sI14
F14.84396
ssg34
(dp185
I0
F2458368.875196759
sI1
F2458368.9124305556
sI2
F2458368.8927777777
sI3
F2458368.8935300927
sI4
F2458368.8744675927
sI5
F2458368.872974537
sI6
F2458368.8737152778
sI7
F2458368.8722337964
sI8
F2458368.8912962964
sI9
F2458368.9131712965
sI10
F2458368.911608796
sI11
F2458368.894270833
sI12
F2458368.910798611
sI13
F2458368.892037037
sI14
F2458368.913923611
ssg36
(dp186
I0
F3.5954394666666665
sI1
Fnan
sI2
Fnan
sI3
Fnan
sI4
Fnan
sI5
Fnan
sI6
Fnan
sI7
Fnan
sI8
Fnan
sI9
Fnan
sI10
Fnan
sI11
Fnan
sI12
Fnan
sI13
Fnan
sI14
Fnan
ssg38
(dp187
I0
F1.8476257999999999
sI1
Fnan
sI2
Fnan
sI3
Fnan
sI4
Fnan
sI5
Fnan
sI6
Fnan
sI7
Fnan
sI8
Fnan
sI9
Fnan
sI10
Fnan
sI11
Fnan
sI12
Fnan
sI13
Fnan
sI14
Fnan
ssg40
(dp188
I0
F0.5486704185979974
sI1
F0.5418256747400636
sI2
F0.5449440150877464
sI3
F0.551263903132615
sI4
F0.5452248154528886
sI5
F0.5453461565412655
sI6
F0.5477183516720158
sI7
F0.5460175479097484
sI8
F0.547700761533679
sI9
F0.5463129856902331
sI10
F0.5462795555749529
sI11
F0.5504133139398839
sI12
F0.5432002082057982
sI13
F0.5520464677337591
sI14
F0.5430209138935045
ssg42
(dp189
I0
F0.002057731569742564
sI1
Fnan
sI2
Fnan
sI3
Fnan
sI4
Fnan
sI5
Fnan
sI6
Fnan
sI7
Fnan
sI8
Fnan
sI9
Fnan
sI10
Fnan
sI11
Fnan
sI12
Fnan
sI13
Fnan
sI14
Fnan
ssg44
(dp190
I0
F2.4189038666666667
sI1
Fnan
sI2
Fnan
sI3
Fnan
sI4
Fnan
sI5
Fnan
sI6
Fnan
sI7
Fnan
sI8
Fnan
sI9
Fnan
sI10
Fnan
sI11
Fnan
sI12
Fnan
sI13
Fnan
sI14
Fnan
ssg46
(dp191
I0
g164
sI1
g165
sI2
g166
sI3
g167
sI4
g168
sI5
g169
sI6
g170
sI7
g171
sI8
g172
sI9
g173
sI10
g174
sI11
g175
sI12
g176
sI13
g177
sI14
g178
ssg48
(dp192
I0
F0.003156236304980003
sI1
Fnan
sI2
Fnan
sI3
Fnan
sI4
Fnan
sI5
Fnan
sI6
Fnan
sI7
Fnan
sI8
Fnan
sI9
Fnan
sI10
Fnan
sI11
Fnan
sI12
Fnan
sI13
Fnan
sI14
Fnan
ssg50
(dp193
I0
F0.04807405002404407
sI1
Fnan
sI2
Fnan
sI3
Fnan
sI4
Fnan
sI5
Fnan
sI6
Fnan
sI7
Fnan
sI8
Fnan
sI9
Fnan
sI10
Fnan
sI11
Fnan
sI12
Fnan
sI13
Fnan
sI14
Fnan
ssg52
(dp194
I0
F2.8094438666666672
sI1
Fnan
sI2
Fnan
sI3
Fnan
sI4
Fnan
sI5
Fnan
sI6
Fnan
sI7
Fnan
sI8
Fnan
sI9
Fnan
sI10
Fnan
sI11
Fnan
sI12
Fnan
sI13
Fnan
sI14
Fnan
ssg54
(dp195
I0
F1.5001598596167542
sI1
F1.5014861165249802
sI2
F1.4959494215821594
sI3
F1.479551314537084
sI4
F1.499619811733709
sI5
F1.5007104612907687
sI6
F1.502431972805974
sI7
F1.4910160494409797
sI8
F1.4908751033479866
sI9
F1.495343156671079
sI10
F1.4991797797484216
sI11
F1.4856260251864264
sI12
F1.4988344174430324
sI13
F1.5003870739013403
sI14
F1.5044563461415124
ssg56
(dp196
I0
g164
sI1
g165
sI2
g166
sI3
g167
sI4
g168
sI5
g169
sI6
g170
sI7
g171
sI8
g172
sI9
g173
sI10
g174
sI11
g175
sI12
g176
sI13
g177
sI14
g178
ssg58
(dp197
I0
F15.36303
sI1
F16.65243
sI2
F14.3445
sI3
F17.78108
sI4
F15.86742
sI5
F14.54198
sI6
F14.212
sI7
F13.27422
sI8
F15.31627
sI9
F16.25226
sI10
F14.87744
sI11
F17.3079
sI12
F15.5894
sI13
F17.32246
sI14
F20.18786
ssg60
(dp198
I0
F10.438866666666671
sI1
Fnan
sI2
Fnan
sI3
Fnan
sI4
Fnan
sI5
Fnan
sI6
Fnan
sI7
Fnan
sI8
Fnan
sI9
Fnan
sI10
Fnan
sI11
Fnan
sI12
Fnan
sI13
Fnan
sI14
Fnan
ssg62
(dp199
I0
F0.7148656865197932
sI1
Fnan
sI2
Fnan
sI3
Fnan
sI4
Fnan
sI5
Fnan
sI6
Fnan
sI7
Fnan
sI8
Fnan
sI9
Fnan
sI10
Fnan
sI11
Fnan
sI12
Fnan
sI13
Fnan
sI14
Fnan
ssg64
(dp200
I0
F3.381809
sI1
F3.995679
sI2
F-3.371419
sI3
F-2.528051
sI4
F3.309422
sI5
F4.566674
sI6
F2.457665
sI7
F3.013355
sI8
F3.917784
sI9
F1.448661
sI10
F-2.166188
sI11
F4.519825
sI12
F-3.119581
sI13
F4.854974
sI14
F3.433778
ssg66
(dp201
I0
F10.7936
sI1
Fnan
sI2
Fnan
sI3
Fnan
sI4
Fnan
sI5
Fnan
sI6
Fnan
sI7
Fnan
sI8
Fnan
sI9
Fnan
sI10
Fnan
sI11
Fnan
sI12
Fnan
sI13
Fnan
sI14
Fnan
ssg68
(dp202
I0
g164
sI1
g165
sI2
g166
sI3
g167
sI4
g168
sI5
g169
sI6
g170
sI7
g171
sI8
g172
sI9
g173
sI10
g174
sI11
g175
sI12
g176
sI13
g177
sI14
g178
ssg70
(dp203
I0
F12781.833333333334
sI1
F11812.753333333332
sI2
F12442.83
sI3
F11478.056666666667
sI4
F12471.81
sI5
F12849.763333333334
sI6
F12746.706666666667
sI7
F12888.593333333332
sI8
F11942.983333333334
sI9
F11813.013333333334
sI10
F11972.619999999999
sI11
F11707.496666666668
sI12
F11729.593333333332
sI13
F11665.873333333333
sI14
F11282.746666666668
ssg72
(dp204
I0
F1.492777
sI1
F1.8291330000000001
sI2
F1.631705
sI3
F1.638239
sI4
F1.487491
sI5
F1.477196
sI6
F1.4823629999999999
sI7
F1.472125
sI8
F1.6187
sI9
F1.83778
sI10
F1.8199049999999999
sI11
F1.6449479999999999
sI12
F1.8107349999999998
sI13
F1.625159
sI14
F1.8463470000000002
ssg74
(dp205
I0
F10863.913333333334
sI1
F10104.55
sI2
F10538.25
sI3
F9793.563333333334
sI4
F10670.233333333334
sI5
F10984.516666666666
sI6
F10791.796666666667
sI7
F10984.72
sI8
F10243.386666666665
sI9
F10025.456666666667
sI10
F10159.646666666667
sI11
F10018.226666666666
sI12
F10036.346666666668
sI13
F9996.656666666668
sI14
F9662.29
ssg76
(dp206
I0
F17736.2
sI1
F16454.263333333332
sI2
F17189.266666666666
sI3
F15736.226666666666
sI4
F17352.133333333335
sI5
F17884.17666666667
sI6
F17682.5
sI7
F17797.746666666666
sI8
F16538.553333333333
sI9
F16328.003333333332
sI10
F16590.123333333333
sI11
F16138.15
sI12
F16311.769999999999
sI13
F16251.09
sI14
F15755.446666666667
ssg78
(dp207
I0
F12.99794
sI1
F15.24393
sI2
F13.95277
sI3
F16.97145
sI4
F14.29318
sI5
F12.25058
sI6
F14.00425
sI7
F13.27778
sI8
F14.50692
sI9
F15.15096
sI10
F14.00122
sI11
F15.97067
sI12
F15.86016
sI13
F16.73145
sI14
F17.34643
ssg80
(dp208
I0
F10.91
sI1
F10.989
sI2
F10.943
sI3
F11.023
sI4
F10.93
sI5
F10.898
sI6
F10.917
sI7
F10.898
sI8
F10.974
sI9
F10.997
sI10
F10.983
sI11
F10.998
sI12
F10.996
sI13
F11.0
sI14
F11.037
ssg82
(dp209
I0
F0.001
sI1
F0.001
sI2
F0.001
sI3
F0.001
sI4
F0.001
sI5
F0.001
sI6
F0.001
sI7
F0.001
sI8
F0.001
sI9
F0.001
sI10
F0.001
sI11
F0.001
sI12
F0.001
sI13
F0.001
sI14
F0.001
ssg84
(dp210
I0
F0.5466656726470768
sI1
Fnan
sI2
Fnan
sI3
Fnan
sI4
Fnan
sI5
Fnan
sI6
Fnan
sI7
Fnan
sI8
Fnan
sI9
Fnan
sI10
Fnan
sI11
Fnan
sI12
Fnan
sI13
Fnan
sI14
Fnan
ssg86
(dp211
I0
F10.966200000000002
sI1
Fnan
sI2
Fnan
sI3
Fnan
sI4
Fnan
sI5
Fnan
sI6
Fnan
sI7
Fnan
sI8
Fnan
sI9
Fnan
sI10
Fnan
sI11
Fnan
sI12
Fnan
sI13
Fnan
sI14
Fnan
ssg88
(dp212
I0
F10.734
sI1
F10.819
sI2
F10.763
sI3
F10.85
sI4
F10.76
sI5
F10.728
sI6
F10.737
sI7
F10.724
sI8
F10.807
sI9
F10.819
sI10
F10.805
sI11
F10.829
sI12
F10.827
sI13
F10.833
sI14
F10.869
ssg90
(dp213
I0
F-3.140392
sI1
F4.692667
sI2
F2.588659
sI3
F6.943648
sI4
F3.851311
sI5
F-2.576955
sI6
F3.810436
sI7
F1.674428
sI8
F3.777105
sI9
F3.4349
sI10
F5.83809
sI11
F6.465786
sI12
F4.7345
sI13
F5.266567
sI14
F6.570842
ssg92
(dp214
I0
F0.04846333911417196
sI1
Fnan
sI2
Fnan
sI3
Fnan
sI4
Fnan
sI5
Fnan
sI6
Fnan
sI7
Fnan
sI8
Fnan
sI9
Fnan
sI10
Fnan
sI11
Fnan
sI12
Fnan
sI13
Fnan
sI14
Fnan
ssg94
(dp215
I0
F0.7119668043266222
sI1
F0.7149357230836175
sI2
F0.7112726526607579
sI3
F0.7197370008518811
sI4
F0.7155481228002154
sI5
F0.7148134386067433
sI6
F0.7093051609845892
sI7
F0.7159354944252069
sI8
F0.7193001407578546
sI9
F0.7125155985243367
sI10
F0.7113915178315623
sI11
F0.7195542474981725
sI12
F0.7158244445794304
sI13
F0.7161707774090521
sI14
F0.7147141734568557
ssg96
(dp216
I0
F30.0
sI1
F30.0
sI2
F30.0
sI3
F30.0
sI4
F30.0
sI5
F30.0
sI6
F30.0
sI7
F30.0
sI8
F30.0
sI9
F30.0
sI10
F30.0
sI11
F30.0
sI12
F30.0
sI13
F30.0
sI14
F30.0
ssg98
(dp217
I0
F0.002
sI1
F0.002
sI2
F0.002
sI3
F0.002
sI4
F0.002
sI5
F0.002
sI6
F0.002
sI7
F0.002
sI8
F0.002
sI9
F0.002
sI10
F0.002
sI11
F0.002
sI12
F0.002
sI13
F0.002
sI14
F0.002
ssg100
(dp218
I0
F0.002
sI1
F0.002
sI2
F0.002
sI3
F0.002
sI4
F0.002
sI5
F0.002
sI6
F0.002
sI7
F0.002
sI8
F0.002
sI9
F0.002
sI10
F0.002
sI11
F0.002
sI12
F0.002
sI13
F0.002
sI14
F0.002
ssg102
(dp219
I0
F-1.528155
sI1
F-2.556882
sI2
F4.030189
sI3
F3.334259
sI4
F3.390423
sI5
F2.711917
sI6
F1.961891
sI7
F3.122851
sI8
F4.200426
sI9
F4.247036
sI10
F3.516675
sI11
F4.629122
sI12
F3.189665
sI13
F5.386532
sI14
F2.505709
ssg104
(dp220
I0
S"KIC8462852-20180907at090017_-25-1X1-030-r'_cal.fts.mag.1"
p221
sI1
S"KIC8462852-20180907at095354_-25-1X1-030-r'_cal.fts.mag.1"
p222
sI2
S"KIC8462852-20180907at092536_-25-1X1-030-r'_cal.fts.mag.1"
p223
sI3
S"KIC8462852-20180907at092641_-25-1X1-030-r'_cal.fts.mag.1"
p224
sI4
S"KIC8462852-20180907at085914_-25-1X1-030-r'_cal.fts.mag.1"
p225
sI5
S"KIC8462852-20180907at085705_-25-1X1-030-r'_cal.fts.mag.1"
p226
sI6
S"KIC8462852-20180907at085809_-25-1X1-030-r'_cal.fts.mag.1"
p227
sI7
S"KIC8462852-20180907at085600_-25-1X1-030-r'_cal.fts.mag.1"
p228
sI8
S"KIC8462852-20180907at092327_-25-1X1-030-r'_cal.fts.mag.1"
p229
sI9
S"KIC8462852-20180907at095458_-25-1X1-030-r'_cal.fts.mag.1"
p230
sI10
S"KIC8462852-20180907at095243_-25-1X1-030-r'_cal.fts.mag.1"
p231
sI11
S"KIC8462852-20180907at092745_-25-1X1-030-r'_cal.fts.mag.1"
p232
sI12
S"KIC8462852-20180907at095132_-25-1X1-030-r'_cal.fts.mag.1"
p233
sI13
S"KIC8462852-20180907at092432_-25-1X1-030-r'_cal.fts.mag.1"
p234
sI14
S"KIC8462852-20180907at095603_-25-1X1-030-r'_cal.fts.mag.1"
p235
ssg121
(dp236
I0
F0.00686903466723536
sI1
Fnan
sI2
Fnan
sI3
Fnan
sI4
Fnan
sI5
Fnan
sI6
Fnan
sI7
Fnan
sI8
Fnan
sI9
Fnan
sI10
Fnan
sI11
Fnan
sI12
Fnan
sI13
Fnan
sI14
Fnan
ssg123
(dp237
I0
F7568.35
sI1
F6930.233333333334
sI2
F7296.863333333333
sI3
F6800.363333333333
sI4
F7359.4766666666665
sI5
F7583.666666666667
sI6
F7525.833333333333
sI7
F7584.376666666666
sI8
F7069.89
sI9
F6950.28
sI10
F7051.083333333333
sI11
F6946.926666666666
sI12
F6894.6066666666675
sI13
F6976.693333333333
sI14
F6643.043333333333
ssg125
(dp238
I0
F0.046153780219733306
sI1
Fnan
sI2
Fnan
sI3
Fnan
sI4
Fnan
sI5
Fnan
sI6
Fnan
sI7
Fnan
sI8
Fnan
sI9
Fnan
sI10
Fnan
sI11
Fnan
sI12
Fnan
sI13
Fnan
sI14
Fnan
ssg127
(dp239
I0
S"r'"
p240
sI1
S"r'"
p241
sI2
S"r'"
p242
sI3
S"r'"
p243
sI4
S"r'"
p244
sI5
S"r'"
p245
sI6
S"r'"
p246
sI7
S"r'"
p247
sI8
S"r'"
p248
sI9
S"r'"
p249
sI10
S"r'"
p250
sI11
S"r'"
p251
sI12
S"r'"
p252
sI13
S"r'"
p253
sI14
S"r'"
p254
ssg144
(dp255
I0
F0.003006352442336369
sI1
Fnan
sI2
Fnan
sI3
Fnan
sI4
Fnan
sI5
Fnan
sI6
Fnan
sI7
Fnan
sI8
Fnan
sI9
Fnan
sI10
Fnan
sI11
Fnan
sI12
Fnan
sI13
Fnan
sI14
Fnan
ssg146
(dp256
I0
F2.959715
sI1
F4.064239
sI2
F-1.922665
sI3
F3.125923
sI4
F3.443687
sI5
F1.410348
sI6
F-2.038801
sI7
F2.963851
sI8
F3.640704
sI9
F3.822421
sI10
F2.111212
sI11
F4.965718
sI12
F2.67315
sI13
F2.647079
sI14
F2.416977
ssg148
(dp257
I0
F1.4963751273314805
sI1
Fnan
sI2
Fnan
sI3
Fnan
sI4
Fnan
sI5
Fnan
sI6
Fnan
sI7
Fnan
sI8
Fnan
sI9
Fnan
sI10
Fnan
sI11
Fnan
sI12
Fnan
sI13
Fnan
sI14
Fnan
ssg150
(dp258
I0
F2458368.8927777777
sI1
Fnan
sI2
Fnan
sI3
Fnan
sI4
Fnan
sI5
Fnan
sI6
Fnan
sI7
Fnan
sI8
Fnan
sI9
Fnan
sI10
Fnan
sI11
Fnan
sI12
Fnan
sI13
Fnan
sI14
Fnan
ssg152
(dp259
I0
F0.003006352442336369
sI1
Fnan
sI2
Fnan
sI3
Fnan
sI4
Fnan
sI5
Fnan
sI6
Fnan
sI7
Fnan
sI8
Fnan
sI9
Fnan
sI10
Fnan
sI11
Fnan
sI12
Fnan
sI13
Fnan
sI14
Fnan
ssg154
(dp260
I0
F17.44888
sI1
F19.56087
sI2
F16.4955
sI3
F23.05733
sI4
F17.79703
sI5
F16.64759
sI6
F17.05064
sI7
F15.62201
sI8
F20.73778
sI9
F20.02579
sI10
F17.78901
sI11
F23.0641
sI12
F20.31882
sI13
F19.74445
sI14
F22.48164
ssg156
(dp261
I0
F10.378
sI1
F10.459
sI2
F10.412
sI3
F10.508
sI4
F10.402
sI5
F10.369
sI6
F10.381
sI7
F10.374
sI8
F10.454
sI9
F10.468
sI10
F10.45
sI11
F10.48
sI12
F10.469
sI13
F10.473
sI14
F10.506
ssg158
(dp262
I0
F0.5466656726470768
sI1
Fnan
sI2
Fnan
sI3
Fnan
sI4
Fnan
sI5
Fnan
sI6
Fnan
sI7
Fnan
sI8
Fnan
sI9
Fnan
sI10
Fnan
sI11
Fnan
sI12
Fnan
sI13
Fnan
sI14
Fnan
sssS'z'
p263
(dp264
g3
(dp265
I0
F0.3661164147641719
sI1
Fnan
sI2
Fnan
sI3
Fnan
sI4
Fnan
sI5
Fnan
sI6
Fnan
sI7
Fnan
sI8
Fnan
sI9
Fnan
sI10
Fnan
sI11
Fnan
sI12
Fnan
sI13
Fnan
sI14
Fnan
ssg5
(dp266
I0
S'NoError'
p267
sI1
S'NoError'
p268
sI2
S'NoError'
p269
sI3
S'NoError'
p270
sI4
S'NoError'
p271
sI5
S'NoError'
p272
sI6
S'NoError'
p273
sI7
S'NoError'
p274
sI8
S'NoError'
p275
sI9
S'NoError'
p276
sI10
S'NoError'
p277
sI11
S'NoError'
p278
sI12
S'NoError'
p279
sI13
S'NoError'
p280
sI14
S'NoError'
p281
ssg22
(dp282
I0
F0.008
sI1
F0.008
sI2
F0.008
sI3
F0.008
sI4
F0.008
sI5
F0.008
sI6
F0.009
sI7
F0.008
sI8
F0.008
sI9
F0.008
sI10
F0.008
sI11
F0.008
sI12
F0.008
sI13
F0.008
sI14
F0.008
ssg24
(dp283
I0
F0.915142839078194
sI1
F0.9105636558314781
sI2
F0.9097832606278937
sI3
F0.909352687845848
sI4
F0.9109556535088713
sI5
F0.9129534215764876
sI6
F0.9182393469666216
sI7
F0.9147314036990176
sI8
F0.9238398993156042
sI9
F0.9019233145571639
sI10
F0.9060447921818356
sI11
F0.910605714652229
sI12
F0.9195196570339716
sI13
F0.9157990767221756
sI14
F0.9073937897752786
ssg26
(dp284
I0
F0.00560899999186497
sI1
Fnan
sI2
Fnan
sI3
Fnan
sI4
Fnan
sI5
Fnan
sI6
Fnan
sI7
Fnan
sI8
Fnan
sI9
Fnan
sI10
Fnan
sI11
Fnan
sI12
Fnan
sI13
Fnan
sI14
Fnan
ssg28
(dp285
I0
F0.9124565675581782
sI1
Fnan
sI2
Fnan
sI3
Fnan
sI4
Fnan
sI5
Fnan
sI6
Fnan
sI7
Fnan
sI8
Fnan
sI9
Fnan
sI10
Fnan
sI11
Fnan
sI12
Fnan
sI13
Fnan
sI14
Fnan
ssg30
(dp286
I0
F13.432
sI1
F13.455
sI2
F13.508
sI3
F13.502
sI4
F13.467
sI5
F13.508
sI6
F13.549
sI7
F13.447
sI8
F13.502
sI9
F13.441
sI10
F13.511
sI11
F13.44
sI12
F13.498
sI13
F13.461
sI14
F13.521
ssg32
(dp287
I0
F7.630631
sI1
F8.268153
sI2
F8.945334
sI3
F9.229671
sI4
F9.043386
sI5
F7.48256
sI6
F10.5835
sI7
F8.08833
sI8
F8.040549
sI9
F8.121909
sI10
F8.618304
sI11
F7.770871
sI12
F7.430979
sI13
F8.050374
sI14
F8.272573
ssg34
(dp288
I0
F2458368.9184953705
sI1
F2458368.879699074
sI2
F2458368.8996412037
sI3
F2458368.9003819446
sI4
F2458368.901134259
sI5
F2458368.920740741
sI6
F2458368.898888889
sI7
F2458368.8812037036
sI8
F2458368.919988426
sI9
F2458368.8827199074
sI10
F2458368.901886574
sI11
F2458368.8819675925
sI12
F2458368.919236111
sI13
F2458368.8804513887
sI14
F2458368.9214814813
ssg36
(dp289
I0
F1.4941233999999999
sI1
Fnan
sI2
Fnan
sI3
Fnan
sI4
Fnan
sI5
Fnan
sI6
Fnan
sI7
Fnan
sI8
Fnan
sI9
Fnan
sI10
Fnan
sI11
Fnan
sI12
Fnan
sI13
Fnan
sI14
Fnan
ssg38
(dp290
I0
F1.3362343333333333
sI1
Fnan
sI2
Fnan
sI3
Fnan
sI4
Fnan
sI5
Fnan
sI6
Fnan
sI7
Fnan
sI8
Fnan
sI9
Fnan
sI10
Fnan
sI11
Fnan
sI12
Fnan
sI13
Fnan
sI14
Fnan
ssg40
(dp291
I0
F0.37052481752595223
sI1
F0.36293372830418186
sI2
F0.36387339951634556
sI3
F0.3655317622632649
sI4
F0.36461909018206506
sI5
F0.3652304774566303
sI6
F0.35622675056974573
sI7
F0.37011888280923805
sI8
F0.36629610095759124
sI9
F0.36707206645699214
sI10
F0.36472297121223185
sI11
F0.3689310323743452
sI12
F0.3640595697489083
sI13
F0.3669905926206412
sI14
F0.3647253152700186
ssg42
(dp292
I0
F0.0022634097363515215
sI1
Fnan
sI2
Fnan
sI3
Fnan
sI4
Fnan
sI5
Fnan
sI6
Fnan
sI7
Fnan
sI8
Fnan
sI9
Fnan
sI10
Fnan
sI11
Fnan
sI12
Fnan
sI13
Fnan
sI14
Fnan
ssg44
(dp293
I0
F1.0953217333333334
sI1
Fnan
sI2
Fnan
sI3
Fnan
sI4
Fnan
sI5
Fnan
sI6
Fnan
sI7
Fnan
sI8
Fnan
sI9
Fnan
sI10
Fnan
sI11
Fnan
sI12
Fnan
sI13
Fnan
sI14
Fnan
ssg46
(dp294
I0
g267
sI1
g268
sI2
g269
sI3
g270
sI4
g271
sI5
g272
sI6
g273
sI7
g274
sI8
g275
sI9
g276
sI10
g277
sI11
g278
sI12
g279
sI13
g280
sI14
g281
ssg48
(dp295
I0
F0.0046057481700000034
sI1
Fnan
sI2
Fnan
sI3
Fnan
sI4
Fnan
sI5
Fnan
sI6
Fnan
sI7
Fnan
sI8
Fnan
sI9
Fnan
sI10
Fnan
sI11
Fnan
sI12
Fnan
sI13
Fnan
sI14
Fnan
ssg50
(dp296
I0
F0.02824096990105653
sI1
Fnan
sI2
Fnan
sI3
Fnan
sI4
Fnan
sI5
Fnan
sI6
Fnan
sI7
Fnan
sI8
Fnan
sI9
Fnan
sI10
Fnan
sI11
Fnan
sI12
Fnan
sI13
Fnan
sI14
Fnan
ssg52
(dp297
I0
F2.2112928800000002
sI1
Fnan
sI2
Fnan
sI3
Fnan
sI4
Fnan
sI5
Fnan
sI6
Fnan
sI7
Fnan
sI8
Fnan
sI9
Fnan
sI10
Fnan
sI11
Fnan
sI12
Fnan
sI13
Fnan
sI14
Fnan
ssg54
(dp298
I0
F1.503248556398435
sI1
F1.5100432551181806
sI2
F1.5274454436057263
sI3
F1.5131518226975207
sI4
F1.5277639409690194
sI5
F1.50749843950609
sI6
F1.4913419370716428
sI7
F1.5117659523966898
sI8
F1.4980975673910757
sI9
F1.5218304854645335
sI10
F1.5336096861295703
sI11
F1.5130721265943452
sI12
F1.4926969909031238
sI13
F1.5057313728228283
sI14
F1.5260426240214773
ssg56
(dp299
I0
g267
sI1
g268
sI2
g269
sI3
g270
sI4
g271
sI5
g272
sI6
g273
sI7
g274
sI8
g275
sI9
g276
sI10
g277
sI11
g278
sI12
g279
sI13
g280
sI14
g281
ssg58
(dp300
I0
F8.950342
sI1
F9.257727
sI2
F10.36896
sI3
F10.16905
sI4
F9.198864
sI5
F9.607564
sI6
F10.03851
sI7
F8.870995
sI8
F8.918702
sI9
F10.548
sI10
F10.99054
sI11
F9.362336
sI12
F9.277221
sI13
F9.411231
sI14
F9.697357
ssg60
(dp301
I0
F12.112
sI1
Fnan
sI2
Fnan
sI3
Fnan
sI4
Fnan
sI5
Fnan
sI6
Fnan
sI7
Fnan
sI8
Fnan
sI9
Fnan
sI10
Fnan
sI11
Fnan
sI12
Fnan
sI13
Fnan
sI14
Fnan
ssg62
(dp302
I0
F0.6887402996541011
sI1
Fnan
sI2
Fnan
sI3
Fnan
sI4
Fnan
sI5
Fnan
sI6
Fnan
sI7
Fnan
sI8
Fnan
sI9
Fnan
sI10
Fnan
sI11
Fnan
sI12
Fnan
sI13
Fnan
sI14
Fnan
ssg64
(dp303
I0
F1.790079
sI1
F3.582627
sI2
F2.323128
sI3
F-2.723835
sI4
F-2.723579
sI5
F3.310538
sI6
F4.201917
sI7
F3.310185
sI8
F3.157442
sI9
F3.421122
sI10
F-4.16504
sI11
F4.527536
sI12
F4.647004
sI13
F-1.654209
sI14
F-2.9614
ssg66
(dp304
I0
F12.457133333333331
sI1
Fnan
sI2
Fnan
sI3
Fnan
sI4
Fnan
sI5
Fnan
sI6
Fnan
sI7
Fnan
sI8
Fnan
sI9
Fnan
sI10
Fnan
sI11
Fnan
sI12
Fnan
sI13
Fnan
sI14
Fnan
ssg68
(dp305
I0
g267
sI1
g268
sI2
g269
sI3
g270
sI4
g271
sI5
g272
sI6
g273
sI7
g274
sI8
g275
sI9
g276
sI10
g277
sI11
g278
sI12
g279
sI13
g280
sI14
g281
ssg70
(dp306
I0
F2706.653
sI1
F2696.375666666667
sI2
F2559.2083333333335
sI3
F2559.9396666666667
sI4
F2653.9836666666665
sI5
F2554.5136666666667
sI6
F2533.9673333333335
sI7
F2670.637
sI8
F2582.8706666666667
sI9
F2681.1299999999997
sI10
F2537.6446666666666
sI11
F2687.9933333333333
sI12
F2599.719
sI13
F2661.201
sI14
F2518.5086666666666
ssg72
(dp307
I0
F1.901343
sI1
F1.525496
sI2
F1.6948759999999998
sI3
F1.7021060000000001
sI4
F1.709469
sI5
F1.929719
sI6
F1.68773
sI7
F1.5367469999999999
sI8
F1.9201810000000001
sI9
F1.548481
sI10
F1.716825
sI11
F1.54265
sI12
F1.910726
sI13
F1.5310780000000002
sI14
F1.9393490000000002
ssg74
(dp308
I0
F2215.5846666666666
sI1
F2214.5653333333335
sI2
F2081.647
sI3
F2102.6459999999997
sI4
F2154.0453333333335
sI5
F2093.0533333333333
sI6
F2079.2470000000003
sI7
F2175.8186666666666
sI8
F2090.7946666666667
sI9
F2217.738
sI10
F2069.107666666667
sI11
F2203.3046666666664
sI12
F2126.8486666666668
sI13
F2172.574
sI14
F2058.6286666666665
ssg76
(dp309
I0
F3699.673333333333
sI1
F3707.866666666667
sI2
F3544.326666666667
sI3
F3527.6
sI4
F3672.766666666667
sI5
F3503.1
sI6
F3439.94
sI7
F3663.3533333333335
sI8
F3500.8033333333337
sI9
F3727.6233333333334
sI10
F3532.48
sI11
F3700.4433333333336
sI12
F3527.6666666666665
sI13
F3639.1833333333334
sI14
F3492.4533333333334
ssg78
(dp310
I0
F8.216685
sI1
F8.963942
sI2
F9.577039
sI3
F9.946412
sI4
F9.770829
sI5
F7.440044
sI6
F9.600515
sI7
F7.995547
sI8
F8.185292
sI9
F8.722341
sI10
F9.88291
sI11
F8.348594
sI12
F7.869525
sI13
F9.672625
sI14
F8.879698
ssg80
(dp311
I0
F12.636
sI1
F12.637
sI2
F12.704
sI3
F12.693
sI4
F12.667
sI5
F12.698
sI6
F12.705
sI7
F12.656
sI8
F12.699
sI9
F12.635
sI10
F12.711
sI11
F12.642
sI12
F12.681
sI13
F12.658
sI14
F12.716
ssg82
(dp312
I0
F0.003
sI1
F0.003
sI2
F0.003
sI3
F0.003
sI4
F0.003
sI5
F0.003
sI6
F0.004
sI7
F0.003
sI8
F0.004
sI9
F0.003
sI10
F0.003
sI11
F0.003
sI12
F0.003
sI13
F0.003
sI14
F0.003
ssg84
(dp313
I0
F0.3654571038178768
sI1
Fnan
sI2
Fnan
sI3
Fnan
sI4
Fnan
sI5
Fnan
sI6
Fnan
sI7
Fnan
sI8
Fnan
sI9
Fnan
sI10
Fnan
sI11
Fnan
sI12
Fnan
sI13
Fnan
sI14
Fnan
ssg86
(dp314
I0
F12.675866666666668
sI1
Fnan
sI2
Fnan
sI3
Fnan
sI4
Fnan
sI5
Fnan
sI6
Fnan
sI7
Fnan
sI8
Fnan
sI9
Fnan
sI10
Fnan
sI11
Fnan
sI12
Fnan
sI13
Fnan
sI14
Fnan
ssg88
(dp315
I0
F12.419
sI1
F12.423
sI2
F12.48
sI3
F12.479
sI4
F12.44
sI5
F12.482
sI6
F12.49
sI7
F12.433
sI8
F12.47
sI9
F12.429
sI10
F12.489
sI11
F12.426
sI12
F12.463
sI13
F12.437
sI14
F12.497
ssg90
(dp316
I0
F1.970506
sI1
F4.480311
sI2
F3.261072
sI3
F-3.583734
sI4
F5.028785
sI5
F4.418035
sI6
F-3.064322
sI7
F2.875892
sI8
F-1.602447
sI9
F3.551399
sI10
F2.905647
sI11
F1.970347
sI12
F3.572834
sI13
F-1.674271
sI14
F-1.698203
ssg92
(dp317
I0
F0.02948122889471984
sI1
Fnan
sI2
Fnan
sI3
Fnan
sI4
Fnan
sI5
Fnan
sI6
Fnan
sI7
Fnan
sI8
Fnan
sI9
Fnan
sI10
Fnan
sI11
Fnan
sI12
Fnan
sI13
Fnan
sI14
Fnan
ssg94
(dp318
I0
F0.6916864834495111
sI1
F0.6915932340057713
sI2
F0.6821119236639095
sI3
F0.6908032194068112
sI4
F0.6809326178036318
sI5
F0.6910488018906895
sI6
F0.696109559114911
sI7
F0.6870293613225702
sI8
F0.6873460565660376
sI9
F0.692096538796417
sI10
F0.6817348177472907
sI11
F0.6897789808774291
sI12
F0.6942108045318076
sI13
F0.6896639585955417
sI14
F0.684958137039185
ssg96
(dp319
I0
F30.0
sI1
F30.0
sI2
F30.0
sI3
F30.0
sI4
F30.0
sI5
F30.0
sI6
F30.0
sI7
F30.0
sI8
F30.0
sI9
F30.0
sI10
F30.0
sI11
F30.0
sI12
F30.0
sI13
F30.0
sI14
F30.0
ssg98
(dp320
I0
F0.005
sI1
F0.005
sI2
F0.005
sI3
F0.005
sI4
F0.005
sI5
F0.005
sI6
F0.005
sI7
F0.005
sI8
F0.005
sI9
F0.005
sI10
F0.005
sI11
F0.005
sI12
F0.005
sI13
F0.005
sI14
F0.005
ssg100
(dp321
I0
F0.004
sI1
F0.004
sI2
F0.004
sI3
F0.004
sI4
F0.004
sI5
F0.004
sI6
F0.004
sI7
F0.004
sI8
F0.004
sI9
F0.004
sI10
F0.004
sI11
F0.004
sI12
F0.004
sI13
F0.004
sI14
F0.004
ssg102
(dp322
I0
F2.628287
sI1
F3.637058
sI2
F2.932225
sI3
F2.533961
sI4
F3.460696
sI5
F4.379592
sI6
F3.837276
sI7
F-2.017722
sI8
F3.33608
sI9
F-1.536815
sI10
F-0.7982728
sI11
F2.906056
sI12
F3.228365
sI13
F1.581113
sI14
F3.061494
ssg104
(dp323
I0
S"KIC8462852-20180907at100236_-25-1X1-030-z'_cal.fts.mag.1"
p324
sI1
S"KIC8462852-20180907at090645_-25-1X1-030-z'_cal.fts.mag.1"
p325
sI2
S"KIC8462852-20180907at093529_-25-1X1-030-z'_cal.fts.mag.1"
p326
sI3
S"KIC8462852-20180907at093633_-25-1X1-030-z'_cal.fts.mag.1"
p327
sI4
S"KIC8462852-20180907at093738_-25-1X1-030-z'_cal.fts.mag.1"
p328
sI5
S"KIC8462852-20180907at100552_-25-1X1-030-z'_cal.fts.mag.1"
p329
sI6
S"KIC8462852-20180907at093423_-25-1X1-030-z'_cal.fts.mag.1"
p330
sI7
S"KIC8462852-20180907at090856_-25-1X1-030-z'_cal.fts.mag.1"
p331
sI8
S"KIC8462852-20180907at100447_-25-1X1-030-z'_cal.fts.mag.1"
p332
sI9
S"KIC8462852-20180907at091107_-25-1X1-030-z'_cal.fts.mag.1"
p333
sI10
S"KIC8462852-20180907at093843_-25-1X1-030-z'_cal.fts.mag.1"
p334
sI11
S"KIC8462852-20180907at091002_-25-1X1-030-z'_cal.fts.mag.1"
p335
sI12
S"KIC8462852-20180907at100342_-25-1X1-030-z'_cal.fts.mag.1"
p336
sI13
S"KIC8462852-20180907at090751_-25-1X1-030-z'_cal.fts.mag.1"
p337
sI14
S"KIC8462852-20180907at100656_-25-1X1-030-z'_cal.fts.mag.1"
p338
ssg121
(dp339
I0
F0.013044644961412163
sI1
Fnan
sI2
Fnan
sI3
Fnan
sI4
Fnan
sI5
Fnan
sI6
Fnan
sI7
Fnan
sI8
Fnan
sI9
Fnan
sI10
Fnan
sI11
Fnan
sI12
Fnan
sI13
Fnan
sI14
Fnan
ssg123
(dp340
I0
F1064.8773333333334
sI1
F1042.6853333333333
sI2
F992.7900000000001
sI3
F997.9243333333333
sI4
F1030.7533333333333
sI5
F992.2906666666667
sI6
F956.2496666666667
sI7
F1049.8803333333333
sI8
F998.092
sI9
F1055.5146666666667
sI10
F989.5216666666668
sI11
F1056.5866666666666
sI12
F1001.6776666666667
sI13
F1036.4986666666666
sI14
F981.0613333333333
ssg125
(dp341
I0
F0.02992816797091401
sI1
Fnan
sI2
Fnan
sI3
Fnan
sI4
Fnan
sI5
Fnan
sI6
Fnan
sI7
Fnan
sI8
Fnan
sI9
Fnan
sI10
Fnan
sI11
Fnan
sI12
Fnan
sI13
Fnan
sI14
Fnan
ssg127
(dp342
I0
S"z'"
p343
sI1
S"z'"
p344
sI2
S"z'"
p345
sI3
S"z'"
p346
sI4
S"z'"
p347
sI5
S"z'"
p348
sI6
S"z'"
p349
sI7
S"z'"
p350
sI8
S"z'"
p351
sI9
S"z'"
p352
sI10
S"z'"
p353
sI11
S"z'"
p354
sI12
S"z'"
p355
sI13
S"z'"
p356
sI14
S"z'"
p357
ssg144
(dp358
I0
F0.003412240831649859
sI1
Fnan
sI2
Fnan
sI3
Fnan
sI4
Fnan
sI5
Fnan
sI6
Fnan
sI7
Fnan
sI8
Fnan
sI9
Fnan
sI10
Fnan
sI11
Fnan
sI12
Fnan
sI13
Fnan
sI14
Fnan
ssg146
(dp359
I0
F3.754914
sI1
F0.433019
sI2
F-2.697324
sI3
F2.216127
sI4
F-2.986299
sI5
F3.876165
sI6
F2.834459
sI7
F-1.462512
sI8
F-2.088331
sI9
F2.30938
sI10
F3.692209
sI11
F3.8587
sI12
F2.986021
sI13
F3.177084
sI14
F-3.473786
ssg148
(dp360
I0
F1.5122226800726841
sI1
Fnan
sI2
Fnan
sI3
Fnan
sI4
Fnan
sI5
Fnan
sI6
Fnan
sI7
Fnan
sI8
Fnan
sI9
Fnan
sI10
Fnan
sI11
Fnan
sI12
Fnan
sI13
Fnan
sI14
Fnan
ssg150
(dp361
I0
F2458368.9003819446
sI1
Fnan
sI2
Fnan
sI3
Fnan
sI4
Fnan
sI5
Fnan
sI6
Fnan
sI7
Fnan
sI8
Fnan
sI9
Fnan
sI10
Fnan
sI11
Fnan
sI12
Fnan
sI13
Fnan
sI14
Fnan
ssg152
(dp362
I0
F0.003412240831649859
sI1
Fnan
sI2
Fnan
sI3
Fnan
sI4
Fnan
sI5
Fnan
sI6
Fnan
sI7
Fnan
sI8
Fnan
sI9
Fnan
sI10
Fnan
sI11
Fnan
sI12
Fnan
sI13
Fnan
sI14
Fnan
ssg154
(dp363
I0
F9.994447
sI1
F9.902359
sI2
F10.7327
sI3
F11.77587
sI4
F9.556056
sI5
F9.530537
sI6
F11.87452
sI7
F9.191472
sI8
F10.13162
sI9
F10.05757
sI10
F11.46289
sI11
F10.80645
sI12
F11.19193
sI13
F9.987793
sI14
F10.37627
ssg156
(dp364
I0
F12.08
sI1
F12.077
sI2
F12.126
sI3
F12.131
sI4
F12.088
sI5
F12.139
sI6
F12.159
sI7
F12.09
sI8
F12.14
sI9
F12.071
sI10
F12.13
sI11
F12.079
sI12
F12.131
sI13
F12.097
sI14
F12.142
ssg158
(dp365
I0
F0.3654571038178768
sI1
Fnan
sI2
Fnan
sI3
Fnan
sI4
Fnan
sI5
Fnan
sI6
Fnan
sI7
Fnan
sI8
Fnan
sI9
Fnan
sI10
Fnan
sI11
Fnan
sI12
Fnan
sI13
Fnan
sI14
Fnan
sssS'g'
p366
(dp367
g3
(dp368
I0
F0.8593049834150018
sI1
Fnan
sI2
Fnan
sI3
Fnan
sI4
Fnan
sI5
Fnan
sI6
Fnan
sI7
Fnan
sI8
Fnan
sI9
Fnan
sI10
Fnan
sI11
Fnan
sI12
Fnan
sI13
Fnan
sI14
Fnan
ssg5
(dp369
I0
S'NoError'
p370
sI1
S'NoError'
p371
sI2
S'NoError'
p372
sI3
S'NoError'
p373
sI4
S'NoError'
p374
sI5
S'NoError'
p375
sI6
S'NoError'
p376
sI7
S'NoError'
p377
sI8
S'NoError'
p378
sI9
S'NoError'
p379
sI10
S'NoError'
p380
sI11
S'NoError'
p381
sI12
S'NoError'
p382
sI13
S'NoError'
p383
sI14
S'NoError'
p384
ssg22
(dp385
I0
F0.002
sI1
F0.003
sI2
F0.002
sI3
F0.003
sI4
F0.003
sI5
F0.003
sI6
F0.002
sI7
F0.002
sI8
F0.003
sI9
F0.003
sI10
F0.003
sI11
F0.003
sI12
F0.003
sI13
F0.003
sI14
F0.002
ssg24
(dp386
I0
F0.8725120653983626
sI1
F0.8808924295125105
sI2
F0.8777161868164324
sI3
F0.868809815424252
sI4
F0.8803109554968298
sI5
F0.8678374717141902
sI6
F0.8754932818411177
sI7
F0.8785552782401874
sI8
F0.8741645629868839
sI9
F0.8735167327029469
sI10
F0.881217475955466
sI11
F0.8708562282985843
sI12
F0.8785492929183816
sI13
F0.8785091765055822
sI14
F0.8800213440722063
ssg26
(dp387
I0
F0.004430843117770011
sI1
Fnan
sI2
Fnan
sI3
Fnan
sI4
Fnan
sI5
Fnan
sI6
Fnan
sI7
Fnan
sI8
Fnan
sI9
Fnan
sI10
Fnan
sI11
Fnan
sI12
Fnan
sI13
Fnan
sI14
Fnan
ssg28
(dp388
I0
F0.8759308198589291
sI1
Fnan
sI2
Fnan
sI3
Fnan
sI4
Fnan
sI5
Fnan
sI6
Fnan
sI7
Fnan
sI8
Fnan
sI9
Fnan
sI10
Fnan
sI11
Fnan
sI12
Fnan
sI13
Fnan
sI14
Fnan
ssg30
(dp389
I0
F11.565
sI1
F11.647
sI2
F11.558
sI3
F11.632
sI4
F11.644
sI5
F11.681
sI6
F11.565
sI7
F11.577
sI8
F11.613
sI9
F11.68
sI10
F11.634
sI11
F11.635
sI12
F11.678
sI13
F11.631
sI14
F11.569
ssg32
(dp390
I0
F8.365658
sI1
F7.744982
sI2
F7.672516
sI3
F8.830631
sI4
F6.182481
sI5
F7.335932
sI6
F7.918374
sI7
F8.600849
sI8
F8.120809
sI9
F7.046176
sI10
F8.166737
sI11
F7.733828
sI12
F7.427812
sI13
F7.886289
sI14
F8.082598
ssg34
(dp391
I0
F2458368.869247685
sI1
F2458368.907615741
sI2
F2458368.8707407406
sI3
F2458368.8890277776
sI4
F2458368.906875
sI5
F2458368.9083680557
sI6
F2458368.869988426
sI7
F2458368.8685069443
sI8
F2458368.888287037
sI9
F2458368.90912037
sI10
F2458368.887523148
sI11
F2458368.8905439815
sI12
F2458368.9099537036
sI13
F2458368.8897685185
sI14
F2458368.8714814815
ssg36
(dp392
I0
F2.1772147333333334
sI1
Fnan
sI2
Fnan
sI3
Fnan
sI4
Fnan
sI5
Fnan
sI6
Fnan
sI7
Fnan
sI8
Fnan
sI9
Fnan
sI10
Fnan
sI11
Fnan
sI12
Fnan
sI13
Fnan
sI14
Fnan
ssg38
(dp393
I0
F1.5484074666666667
sI1
Fnan
sI2
Fnan
sI3
Fnan
sI4
Fnan
sI5
Fnan
sI6
Fnan
sI7
Fnan
sI8
Fnan
sI9
Fnan
sI10
Fnan
sI11
Fnan
sI12
Fnan
sI13
Fnan
sI14
Fnan
ssg40
(dp394
I0
F0.8626643625293596
sI1
F0.8624711919966698
sI2
F0.8647609909440946
sI3
F0.8549139151396526
sI4
F0.8620881496386826
sI5
F0.8552874923341248
sI6
F0.8644657603578952
sI7
F0.8631314484977439
sI8
F0.8578535089836106
sI9
F0.8539348866618729
sI10
F0.8583653614873153
sI11
F0.8620143596149286
sI12
F0.8531714886236793
sI13
F0.8551468510003959
sI14
F0.8672116750231109
ssg42
(dp395
I0
F0.004049688308336296
sI1
Fnan
sI2
Fnan
sI3
Fnan
sI4
Fnan
sI5
Fnan
sI6
Fnan
sI7
Fnan
sI8
Fnan
sI9
Fnan
sI10
Fnan
sI11
Fnan
sI12
Fnan
sI13
Fnan
sI14
Fnan
ssg44
(dp396
I0
F1.3664641333333332
sI1
Fnan
sI2
Fnan
sI3
Fnan
sI4
Fnan
sI5
Fnan
sI6
Fnan
sI7
Fnan
sI8
Fnan
sI9
Fnan
sI10
Fnan
sI11
Fnan
sI12
Fnan
sI13
Fnan
sI14
Fnan
ssg46
(dp397
I0
g370
sI1
g371
sI2
g372
sI3
g373
sI4
g374
sI5
g375
sI6
g376
sI7
g377
sI8
g378
sI9
g379
sI10
g380
sI11
g381
sI12
g382
sI13
g383
sI14
g384
ssg48
(dp398
I0
F0.0037915393817471665
sI1
Fnan
sI2
Fnan
sI3
Fnan
sI4
Fnan
sI5
Fnan
sI6
Fnan
sI7
Fnan
sI8
Fnan
sI9
Fnan
sI10
Fnan
sI11
Fnan
sI12
Fnan
sI13
Fnan
sI14
Fnan
ssg50
(dp399
I0
F0.040436546411807814
sI1
Fnan
sI2
Fnan
sI3
Fnan
sI4
Fnan
sI5
Fnan
sI6
Fnan
sI7
Fnan
sI8
Fnan
sI9
Fnan
sI10
Fnan
sI11
Fnan
sI12
Fnan
sI13
Fnan
sI14
Fnan
ssg52
(dp400
I0
F1.1435154000000003
sI1
Fnan
sI2
Fnan
sI3
Fnan
sI4
Fnan
sI5
Fnan
sI6
Fnan
sI7
Fnan
sI8
Fnan
sI9
Fnan
sI10
Fnan
sI11
Fnan
sI12
Fnan
sI13
Fnan
sI14
Fnan
ssg54
(dp401
I0
F1.5230642249015152
sI1
F1.5166347473235449
sI2
F1.5186169679190067
sI3
F1.535044380974362
sI4
F1.524505072892071
sI5
F1.535667174725469
sI6
F1.516026209210042
sI7
F1.5218807147851456
sI8
F1.5306592790764249
sI9
F1.5152057345488605
sI10
F1.5304806639411146
sI11
F1.5326241563425154
sI12
F1.523033716098298
sI13
F1.517316165470729
sI14
F1.51555509425298
ssg56
(dp402
I0
g370
sI1
g371
sI2
g372
sI3
g373
sI4
g374
sI5
g375
sI6
g376
sI7
g377
sI8
g378
sI9
g379
sI10
g380
sI11
g381
sI12
g382
sI13
g383
sI14
g384
ssg58
(dp403
I0
F8.760772
sI1
F6.86307
sI2
F7.975065
sI3
F8.605138
sI4
F6.901308
sI5
F8.25229
sI6
F8.888213
sI7
F9.052432
sI8
F8.961384
sI9
F7.302092
sI10
F8.374475
sI11
F7.916963
sI12
F7.973449
sI13
F6.664411
sI14
F8.581505
ssg60
(dp404
I0
F11.174066666666668
sI1
Fnan
sI2
Fnan
sI3
Fnan
sI4
Fnan
sI5
Fnan
sI6
Fnan
sI7
Fnan
sI8
Fnan
sI9
Fnan
sI10
Fnan
sI11
Fnan
sI12
Fnan
sI13
Fnan
sI14
Fnan
ssg62
(dp405
I0
F0.7137362333835937
sI1
Fnan
sI2
Fnan
sI3
Fnan
sI4
Fnan
sI5
Fnan
sI6
Fnan
sI7
Fnan
sI8
Fnan
sI9
Fnan
sI10
Fnan
sI11
Fnan
sI12
Fnan
sI13
Fnan
sI14
Fnan
ssg64
(dp406
I0
F2.480369
sI1
F2.852118
sI2
F4.524057
sI3
F1.717785
sI4
F-2.693064
sI5
F2.876941
sI6
F-3.653417
sI7
F3.593335
sI8
F4.38509
sI9
F3.761764
sI10
F-2.51217
sI11
F3.345241
sI12
F-4.028182
sI13
F2.213868
sI14
F4.362377
ssg66
(dp407
I0
F11.5546
sI1
Fnan
sI2
Fnan
sI3
Fnan
sI4
Fnan
sI5
Fnan
sI6
Fnan
sI7
Fnan
sI8
Fnan
sI9
Fnan
sI10
Fnan
sI11
Fnan
sI12
Fnan
sI13
Fnan
sI14
Fnan
ssg68
(dp408
I0
g370
sI1
g371
sI2
g372
sI3
g373
sI4
g374
sI5
g375
sI6
g376
sI7
g377
sI8
g378
sI9
g379
sI10
g380
sI11
g381
sI12
g382
sI13
g383
sI14
g384
ssg70
(dp409
I0
F6277.263333333333
sI1
F5861.63
sI2
F6329.963333333333
sI3
F5937.333333333333
sI4
F5874.486666666667
sI5
F5669.596666666666
sI6
F6280.323333333334
sI7
F6236.41
sI8
F6045.54
sI9
F5711.483333333334
sI10
F5959.343333333333
sI11
F5880.153333333334
sI12
F5747.3933333333325
sI13
F5985.7266666666665
sI14
F6261.5
ssg72
(dp410
I0
F1.452145
sI1
F1.7759580000000001
sI2
F1.461994
sI3
F1.599366
sI4
F1.767975
sI5
F1.784052
sI6
F1.457095
sI7
F1.44728
sI8
F1.593145
sI9
F1.792129
sI10
F1.58692
sI11
F1.612174
sI12
F1.8013549999999998
sI13
F1.605677
sI14
F1.467021
ssg74
(dp411
I0
F5454.6866666666665
sI1
F5040.85
sI2
F5466.533333333334
sI3
F5154.506666666667
sI4
F5032.506666666667
sI5
F4928.4766666666665
sI6
F5452.956666666667
sI7
F5367.263333333333
sI8
F5214.183333333333
sI9
F4978.343333333333
sI10
F5078.583333333333
sI11
F5094.383333333333
sI12
F4942.95
sI13
F5166.376666666666
sI14
F5396.3099999999995
ssg76
(dp412
I0
F8934.256666666666
sI1
F8267.54
sI2
F8957.18
sI3
F8513.233333333334
sI4
F8313.883333333333
sI5
F8137.556666666667
sI6
F8893.980000000001
sI7
F8829.703333333333
sI8
F8617.4
sI9
F8098.6433333333325
sI10
F8446.666666666666
sI11
F8409.92
sI12
F8140.876666666666
sI13
F8460.633333333333
sI14
F8834.026666666667
ssg78
(dp413
I0
F8.160097
sI1
F7.233651
sI2
F7.501666
sI3
F8.17366
sI4
F7.484589
sI5
F6.925248
sI6
F8.719928
sI7
F8.368739
sI8
F7.284462
sI9
F5.680192
sI10
F8.872746
sI11
F7.171824
sI12
F8.091969
sI13
F7.543469
sI14
F8.30021
ssg80
(dp414
I0
F11.658
sI1
F11.744
sI2
F11.656
sI3
F11.72
sI4
F11.746
sI5
F11.768
sI6
F11.658
sI7
F11.676
sI8
F11.707
sI9
F11.757
sI10
F11.736
sI11
F11.732
sI12
F11.765
sI13
F11.717
sI14
F11.67
ssg82
(dp415
I0
F0.002
sI1
F0.002
sI2
F0.002
sI3
F0.002
sI4
F0.002
sI5
F0.002
sI6
F0.002
sI7
F0.002
sI8
F0.002
sI9
F0.002
sI10
F0.002
sI11
F0.002
sI12
F0.002
sI13
F0.002
sI14
F0.002
ssg84
(dp416
I0
F0.8598320961888758
sI1
Fnan
sI2
Fnan
sI3
Fnan
sI4
Fnan
sI5
Fnan
sI6
Fnan
sI7
Fnan
sI8
Fnan
sI9
Fnan
sI10
Fnan
sI11
Fnan
sI12
Fnan
sI13
Fnan
sI14
Fnan
ssg86
(dp417
I0
F11.713999999999999
sI1
Fnan
sI2
Fnan
sI3
Fnan
sI4
Fnan
sI5
Fnan
sI6
Fnan
sI7
Fnan
sI8
Fnan
sI9
Fnan
sI10
Fnan
sI11
Fnan
sI12
Fnan
sI13
Fnan
sI14
Fnan
ssg88
(dp418
I0
F11.506
sI1
F11.58
sI2
F11.496
sI3
F11.566
sI4
F11.578
sI5
F11.616
sI6
F11.505
sI7
F11.513
sI8
F11.546
sI9
F11.608
sI10
F11.562
sI11
F11.577
sI12
F11.601
sI13
F11.557
sI14
F11.508
ssg90
(dp419
I0
F1.632652
sI1
F3.761297
sI2
F2.900517
sI3
F-2.818751
sI4
F3.282768
sI5
F4.062145
sI6
F4.159656
sI7
F-2.495015
sI8
F3.314894
sI9
F-3.088818
sI10
F4.152784
sI11
F3.502756
sI12
F3.808154
sI13
F2.208471
sI14
F4.274711
ssg92
(dp420
I0
F0.03876019067229141
sI1
Fnan
sI2
Fnan
sI3
Fnan
sI4
Fnan
sI5
Fnan
sI6
Fnan
sI7
Fnan
sI8
Fnan
sI9
Fnan
sI10
Fnan
sI11
Fnan
sI12
Fnan
sI13
Fnan
sI14
Fnan
ssg94
(dp421
I0
F0.7171783841018736
sI1
F0.7135380209877862
sI2
F0.7151804904469835
sI3
F0.7133985518445645
sI4
F0.7093847519717441
sI5
F0.7139019242682416
sI6
F0.7187093267983088
sI7
F0.7124947509134185
sI8
F0.7112057109056348
sI9
F0.7209699742073329
sI10
F0.705064529780742
sI11
F0.7129961077876437
sI12
F0.7118165185440664
sI13
F0.7152496084365426
sI14
F0.7149548497590235
ssg96
(dp422
I0
F30.0
sI1
F30.0
sI2
F30.0
sI3
F30.0
sI4
F30.0
sI5
F30.0
sI6
F30.0
sI7
F30.0
sI8
F30.0
sI9
F30.0
sI10
F30.0
sI11
F30.0
sI12
F30.0
sI13
F30.0
sI14
F30.0
ssg98
(dp423
I0
F0.003
sI1
F0.003
sI2
F0.003
sI3
F0.003
sI4
F0.003
sI5
F0.003
sI6
F0.003
sI7
F0.003
sI8
F0.003
sI9
F0.003
sI10
F0.003
sI11
F0.003
sI12
F0.003
sI13
F0.003
sI14
F0.003
ssg100
(dp424
I0
F0.002
sI1
F0.002
sI2
F0.002
sI3
F0.002
sI4
F0.002
sI5
F0.003
sI6
F0.002
sI7
F0.002
sI8
F0.002
sI9
F0.003
sI10
F0.002
sI11
F0.002
sI12
F0.003
sI13
F0.002
sI14
F0.002
ssg102
(dp425
I0
F3.76022
sI1
F2.166032
sI2
F4.610058
sI3
F3.284513
sI4
F2.586376
sI5
F-1.922387
sI6
F-2.343177
sI7
F1.260466
sI8
F-3.713426
sI9
F-2.603096
sI10
F3.331847
sI11
F-2.215561
sI12
F2.897802
sI13
F4.357724
sI14
F1.69534
ssg104
(dp426
I0
S"KIC8462852-20180907at085143_-25-1X1-030-g'_cal.fts.mag.1"
p427
sI1
S"KIC8462852-20180907at094658_-25-1X1-030-g'_cal.fts.mag.1"
p428
sI2
S"KIC8462852-20180907at085352_-25-1X1-030-g'_cal.fts.mag.1"
p429
sI3
S"KIC8462852-20180907at092012_-25-1X1-030-g'_cal.fts.mag.1"
p430
sI4
S"KIC8462852-20180907at094549_-25-1X1-030-g'_cal.fts.mag.1"
p431
sI5
S"KIC8462852-20180907at094803_-25-1X1-030-g'_cal.fts.mag.1"
p432
sI6
S"KIC8462852-20180907at085247_-25-1X1-030-g'_cal.fts.mag.1"
p433
sI7
S"KIC8462852-20180907at085028_-25-1X1-030-g'_cal.fts.mag.1"
p434
sI8
S"KIC8462852-20180907at091908_-25-1X1-030-g'_cal.fts.mag.1"
p435
sI9
S"KIC8462852-20180907at094908_-25-1X1-030-g'_cal.fts.mag.1"
p436
sI10
S"KIC8462852-20180907at091757_-25-1X1-030-g'_cal.fts.mag.1"
p437
sI11
S"KIC8462852-20180907at092223_-25-1X1-030-g'_cal.fts.mag.1"
p438
sI12
S"KIC8462852-20180907at095020_-25-1X1-030-g'_cal.fts.mag.1"
p439
sI13
S"KIC8462852-20180907at092116_-25-1X1-030-g'_cal.fts.mag.1"
p440
sI14
S"KIC8462852-20180907at085456_-25-1X1-030-g'_cal.fts.mag.1"
p441
ssg121
(dp442
I0
F0.007390182286689438
sI1
Fnan
sI2
Fnan
sI3
Fnan
sI4
Fnan
sI5
Fnan
sI6
Fnan
sI7
Fnan
sI8
Fnan
sI9
Fnan
sI10
Fnan
sI11
Fnan
sI12
Fnan
sI13
Fnan
sI14
Fnan
ssg123
(dp443
I0
F5942.666666666667
sI1
F5511.196666666667
sI2
F5982.323333333334
sI3
F5586.883333333333
sI4
F5523.363333333333
sI5
F5341.45
sI6
F5943.8533333333335
sI7
F5878.8966666666665
sI8
F5683.886666666667
sI9
F5348.043333333333
sI10
F5574.966666666666
sI11
F5569.8933333333325
sI12
F5355.42
sI13
F5590.59
sI14
F5923.586666666667
ssg125
(dp444
I0
F0.040715037587042674
sI1
Fnan
sI2
Fnan
sI3
Fnan
sI4
Fnan
sI5
Fnan
sI6
Fnan
sI7
Fnan
sI8
Fnan
sI9
Fnan
sI10
Fnan
sI11
Fnan
sI12
Fnan
sI13
Fnan
sI14
Fnan
ssg127
(dp445
I0
S"g'"
p446
sI1
S"g'"
p447
sI2
S"g'"
p448
sI3
S"g'"
p449
sI4
S"g'"
p450
sI5
S"g'"
p451
sI6
S"g'"
p452
sI7
S"g'"
p453
sI8
S"g'"
p454
sI9
S"g'"
p455
sI10
S"g'"
p456
sI11
S"g'"
p457
sI12
S"g'"
p458
sI13
S"g'"
p459
sI14
S"g'"
p460
ssg144
(dp461
I0
F0.0045351619089500925
sI1
Fnan
sI2
Fnan
sI3
Fnan
sI4
Fnan
sI5
Fnan
sI6
Fnan
sI7
Fnan
sI8
Fnan
sI9
Fnan
sI10
Fnan
sI11
Fnan
sI12
Fnan
sI13
Fnan
sI14
Fnan
ssg146
(dp462
I0
F-3.057106
sI1
F-1.748639
sI2
F1.487316
sI3
F-3.521934
sI4
F3.578317
sI5
F4.278522
sI6
F1.944641
sI7
F2.9021
sI8
F2.552059
sI9
F2.983745
sI10
F3.371155
sI11
F3.568264
sI12
F3.940177
sI13
F1.339106
sI14
F-3.120761
ssg148
(dp463
I0
F1.5237542868308052
sI1
Fnan
sI2
Fnan
sI3
Fnan
sI4
Fnan
sI5
Fnan
sI6
Fnan
sI7
Fnan
sI8
Fnan
sI9
Fnan
sI10
Fnan
sI11
Fnan
sI12
Fnan
sI13
Fnan
sI14
Fnan
ssg150
(dp464
I0
F2458368.8890277776
sI1
Fnan
sI2
Fnan
sI3
Fnan
sI4
Fnan
sI5
Fnan
sI6
Fnan
sI7
Fnan
sI8
Fnan
sI9
Fnan
sI10
Fnan
sI11
Fnan
sI12
Fnan
sI13
Fnan
sI14
Fnan
ssg152
(dp465
I0
F0.0045351619089500925
sI1
Fnan
sI2
Fnan
sI3
Fnan
sI4
Fnan
sI5
Fnan
sI6
Fnan
sI7
Fnan
sI8
Fnan
sI9
Fnan
sI10
Fnan
sI11
Fnan
sI12
Fnan
sI13
Fnan
sI14
Fnan
ssg154
(dp466
I0
F9.219952
sI1
F8.918909
sI2
F8.838018
sI3
F10.84161
sI4
F8.370064
sI5
F9.555261
sI6
F9.487367
sI7
F10.29037
sI8
F8.625073
sI9
F9.474429
sI10
F9.06096
sI11
F8.749794
sI12
F9.379773
sI13
F9.519288
sI14
F9.555853
ssg156
(dp467
I0
F11.122
sI1
F11.207
sI2
F11.12
sI3
F11.175
sI4
F11.2
sI5
F11.224
sI6
F11.127
sI7
F11.135
sI8
F11.162
sI9
F11.229
sI10
F11.183
sI11
F11.188
sI12
F11.223
sI13
F11.181
sI14
F11.135
ssg158
(dp468
I0
F0.8598320961888758
sI1
Fnan
sI2
Fnan
sI3
Fnan
sI4
Fnan
sI5
Fnan
sI6
Fnan
sI7
Fnan
sI8
Fnan
sI9
Fnan
sI10
Fnan
sI11
Fnan
sI12
Fnan
sI13
Fnan
sI14
Fnan
sssS'V'
p469
(dp470
g3
(dp471
I0
F0.6883859142747277
sI1
Fnan
sI2
Fnan
sI3
Fnan
sI4
Fnan
sI5
Fnan
sI6
Fnan
sI7
Fnan
sI8
Fnan
sI9
Fnan
sI10
Fnan
sI11
Fnan
sI12
Fnan
sI13
Fnan
sI14
Fnan
ssg5
(dp472
I0
S'NoError'
p473
sI1
S'NoError'
p474
sI2
S'NoError'
p475
sI3
S'NoError'
p476
sI4
S'NoError'
p477
sI5
S'NoError'
p478
sI6
S'NoError'
p479
sI7
S'NoError'
p480
sI8
S'NoError'
p481
sI9
S'NoError'
p482
sI10
S'NoError'
p483
sI11
S'NoError'
p484
sI12
S'NoError'
p485
sI13
S'NoError'
p486
sI14
S'NoError'
p487
ssg22
(dp488
I0
F0.003
sI1
F0.003
sI2
F0.003
sI3
F0.003
sI4
F0.003
sI5
F0.002
sI6
F0.003
sI7
F0.003
sI8
F0.003
sI9
F0.003
sI10
F0.003
sI11
F0.003
sI12
F0.003
sI13
F0.003
sI14
F0.003
ssg24
(dp489
I0
F0.8729797525953744
sI1
F0.8853346262503297
sI2
F0.8876900334205863
sI3
F0.891105030681824
sI4
F0.8829200555747887
sI5
F0.8775597669997938
sI6
F0.8769250625654075
sI7
F0.8770164368814191
sI8
F0.882882342646859
sI9
F0.8898280070271006
sI10
F0.8838480989841244
sI11
F0.8793752382798152
sI12
F0.8823760576698719
sI13
F0.8877774933781215
sI14
F0.8818299888794834
ssg26
(dp490
I0
F0.005202166935891602
sI1
Fnan
sI2
Fnan
sI3
Fnan
sI4
Fnan
sI5
Fnan
sI6
Fnan
sI7
Fnan
sI8
Fnan
sI9
Fnan
sI10
Fnan
sI11
Fnan
sI12
Fnan
sI13
Fnan
sI14
Fnan
ssg28
(dp491
I0
F0.8826298661223266
sI1
Fnan
sI2
Fnan
sI3
Fnan
sI4
Fnan
sI5
Fnan
sI6
Fnan
sI7
Fnan
sI8
Fnan
sI9
Fnan
sI10
Fnan
sI11
Fnan
sI12
Fnan
sI13
Fnan
sI14
Fnan
ssg30
(dp492
I0
F11.692
sI1
F11.669
sI2
F11.668
sI3
F11.695
sI4
F11.597
sI5
F11.586
sI6
F11.643
sI7
F11.609
sI8
F11.663
sI9
F11.656
sI10
F11.673
sI11
F11.68
sI12
F11.644
sI13
F11.599
sI14
F11.687
ssg32
(dp493
I0
F7.069899
sI1
F8.104501
sI2
F10.42469
sI3
F9.306805
sI4
F9.417941
sI5
F8.513961
sI6
F9.704486
sI7
F9.69961
sI8
F7.91329
sI9
F9.342244
sI10
F9.677409
sI11
F9.631695
sI12
F10.20596
sI13
F9.33215
sI14
F8.851899
ssg34
(dp494
I0
F2458368.9246296296
sI1
F2458368.9231018517
sI2
F2458368.903587963
sI3
F2458368.9223148148
sI4
F2458368.8866550927
sI5
F2458368.884398148
sI6
F2458368.902824074
sI7
F2458368.885138889
sI8
F2458368.9238657407
sI9
F2458368.904328704
sI10
F2458368.9058449073
sI11
F2458368.905092593
sI12
F2458368.883553241
sI13
F2458368.885902778
sI14
F2458368.9253935185
ssg36
(dp495
I0
F1.16109506
sI1
Fnan
sI2
Fnan
sI3
Fnan
sI4
Fnan
sI5
Fnan
sI6
Fnan
sI7
Fnan
sI8
Fnan
sI9
Fnan
sI10
Fnan
sI11
Fnan
sI12
Fnan
sI13
Fnan
sI14
Fnan
ssg38
(dp496
I0
F-0.09284647333333344
sI1
Fnan
sI2
Fnan
sI3
Fnan
sI4
Fnan
sI5
Fnan
sI6
Fnan
sI7
Fnan
sI8
Fnan
sI9
Fnan
sI10
Fnan
sI11
Fnan
sI12
Fnan
sI13
Fnan
sI14
Fnan
ssg40
(dp497
I0
F0.6851349361028275
sI1
F0.681874090119336
sI2
F0.6815815712556977
sI3
F0.6865487192555233
sI4
F0.6867990734855465
sI5
F0.6925772951672621
sI6
F0.6916622521541756
sI7
F0.6881627982466463
sI8
F0.6916394876895471
sI9
F0.6928295395469999
sI10
F0.6875912178565817
sI11
F0.6863374422335198
sI12
F0.6832527966339651
sI13
F0.6884777793712255
sI14
F0.6880035478276396
ssg42
(dp498
I0
F0.0028619105827550092
sI1
Fnan
sI2
Fnan
sI3
Fnan
sI4
Fnan
sI5
Fnan
sI6
Fnan
sI7
Fnan
sI8
Fnan
sI9
Fnan
sI10
Fnan
sI11
Fnan
sI12
Fnan
sI13
Fnan
sI14
Fnan
ssg44
(dp499
I0
F1.5440576666666668
sI1
Fnan
sI2
Fnan
sI3
Fnan
sI4
Fnan
sI5
Fnan
sI6
Fnan
sI7
Fnan
sI8
Fnan
sI9
Fnan
sI10
Fnan
sI11
Fnan
sI12
Fnan
sI13
Fnan
sI14
Fnan
ssg46
(dp500
I0
g473
sI1
g474
sI2
g475
sI3
g476
sI4
g477
sI5
g478
sI6
g479
sI7
g480
sI8
g481
sI9
g482
sI10
g483
sI11
g484
sI12
g485
sI13
g486
sI14
g487
ssg48
(dp501
I0
F0.003214008513243502
sI1
Fnan
sI2
Fnan
sI3
Fnan
sI4
Fnan
sI5
Fnan
sI6
Fnan
sI7
Fnan
sI8
Fnan
sI9
Fnan
sI10
Fnan
sI11
Fnan
sI12
Fnan
sI13
Fnan
sI14
Fnan
ssg50
(dp502
I0
F0.03465723314870645
sI1
Fnan
sI2
Fnan
sI3
Fnan
sI4
Fnan
sI5
Fnan
sI6
Fnan
sI7
Fnan
sI8
Fnan
sI9
Fnan
sI10
Fnan
sI11
Fnan
sI12
Fnan
sI13
Fnan
sI14
Fnan
ssg52
(dp503
I0
F1.087995
sI1
Fnan
sI2
Fnan
sI3
Fnan
sI4
Fnan
sI5
Fnan
sI6
Fnan
sI7
Fnan
sI8
Fnan
sI9
Fnan
sI10
Fnan
sI11
Fnan
sI12
Fnan
sI13
Fnan
sI14
Fnan
ssg54
(dp504
I0
F1.5181819724406667
sI1
F1.5082127985812377
sI2
F1.5118130505777876
sI3
F1.5048658600069849
sI4
F1.5072371268200662
sI5
F1.5080980966213136
sI6
F1.515299677996597
sI7
F1.5145971725831238
sI8
F1.5063977601265408
sI9
F1.4957670890589492
sI10
F1.511575609858299
sI11
F1.5123074742393259
sI12
F1.5015338504639568
sI13
F1.4997439384039415
sI14
F1.5132067196684023
ssg56
(dp505
I0
g473
sI1
g474
sI2
g475
sI3
g476
sI4
g477
sI5
g478
sI6
g479
sI7
g480
sI8
g481
sI9
g482
sI10
g483
sI11
g484
sI12
g485
sI13
g486
sI14
g487
ssg58
(dp506
I0
F10.26978
sI1
F9.298721
sI2
F10.47029
sI3
F9.601653
sI4
F9.738619
sI5
F10.73822
sI6
F9.848761
sI7
F11.09393
sI8
F9.99705
sI9
F10.0249
sI10
F10.7445
sI11
F10.8242
sI12
F10.20477
sI13
F9.86545
sI14
F10.34558
ssg60
(dp507
I0
F10.967466666666667
sI1
Fnan
sI2
Fnan
sI3
Fnan
sI4
Fnan
sI5
Fnan
sI6
Fnan
sI7
Fnan
sI8
Fnan
sI9
Fnan
sI10
Fnan
sI11
Fnan
sI12
Fnan
sI13
Fnan
sI14
Fnan
ssg62
(dp508
I0
F0.7168203251590147
sI1
Fnan
sI2
Fnan
sI3
Fnan
sI4
Fnan
sI5
Fnan
sI6
Fnan
sI7
Fnan
sI8
Fnan
sI9
Fnan
sI10
Fnan
sI11
Fnan
sI12
Fnan
sI13
Fnan
sI14
Fnan
ssg64
(dp509
I0
F-3.724322
sI1
F-1.80347
sI2
F3.084486
sI3
F-3.475678
sI4
F4.219573
sI5
F-1.750184
sI6
F-3.859469
sI7
F-2.380776
sI8
F0.9137399
sI9
F4.176046
sI10
F-2.694792
sI11
F2.743886
sI12
F4.266232
sI13
F-4.528632
sI14
F3.420663
ssg66
(dp510
I0
F11.336133333333333
sI1
Fnan
sI2
Fnan
sI3
Fnan
sI4
Fnan
sI5
Fnan
sI6
Fnan
sI7
Fnan
sI8
Fnan
sI9
Fnan
sI10
Fnan
sI11
Fnan
sI12
Fnan
sI13
Fnan
sI14
Fnan
ssg68
(dp511
I0
g473
sI1
g474
sI2
g475
sI3
g476
sI4
g477
sI5
g478
sI6
g479
sI7
g480
sI8
g481
sI9
g482
sI10
g483
sI11
g484
sI12
g485
sI13
g486
sI14
g487
ssg70
(dp512
I0
F7035.1066666666675
sI1
F7291.906666666667
sI2
F7310.963333333333
sI3
F7104.02
sI4
F7718.993333333333
sI5
F7698.916666666667
sI6
F7315.253333333333
sI7
F7581.62
sI8
F7214.27
sI9
F7285.333333333333
sI10
F7191.570000000001
sI11
F7138.84
sI12
F7424.6033333333335
sI13
F7717.25
sI14
F7083.916666666667
ssg72
(dp513
I0
F1.9810560000000002
sI1
F1.960639
sI2
F1.733738
sI3
F1.950136
sI4
F1.579656
sI5
F1.561501
sI6
F1.7261349999999998
sI7
F1.5675370000000002
sI8
F1.970811
sI9
F1.7415189999999998
sI10
F1.757122
sI11
F1.749254
sI12
F1.554909
sI13
F1.5736059999999998
sI14
F1.9913419999999997
ssg74
(dp514
I0
F6126.556666666667
sI1
F6256.053333333333
sI2
F6233.52
sI3
F6048.16
sI4
F6653.653333333334
sI5
F6693.5599999999995
sI6
F6338.846666666666
sI7
F6571.463333333333
sI8
F6222.203333333334
sI9
F6251.056666666667
sI10
F6172.736666666667
sI11
F6171.5
sI12
F6428.333333333333
sI13
F6628.256666666667
sI14
F6095.1066666666675
ssg76
(dp515
I0
F9990.9
sI1
F10216.603333333333
sI2
F10238.363333333335
sI3
F9896.133333333333
sI4
F10831.493333333334
sI5
F10852.633333333333
sI6
F10345.026666666667
sI7
F10718.109999999999
sI8
F10120.336666666666
sI9
F10123.643333333333
sI10
F10100.58
sI11
F10064.663333333334
sI12
F10400.326666666666
sI13
F10757.293333333333
sI14
F9971.293333333333
ssg78
(dp516
I0
F9.478525
sI1
F8.120608
sI2
F8.982948
sI3
F9.71234
sI4
F9.001618
sI5
F8.485062
sI6
F9.385854
sI7
F10.04672
sI8
F8.499179
sI9
F8.307747
sI10
F10.33615
sI11
F9.626247
sI12
F10.25473
sI13
F9.56276
sI14
F8.870967
ssg80
(dp517
I0
F11.532
sI1
F11.509
sI2
F11.513
sI3
F11.546
sI4
F11.442
sI5
F11.436
sI6
F11.495
sI7
F11.456
sI8
F11.515
sI9
F11.51
sI10
F11.524
sI11
F11.524
sI12
F11.48
sI13
F11.447
sI14
F11.538
ssg82
(dp518
I0
F0.002
sI1
F0.002
sI2
F0.002
sI3
F0.002
sI4
F0.002
sI5
F0.002
sI6
F0.002
sI7
F0.002
sI8
F0.002
sI9
F0.002
sI10
F0.002
sI11
F0.002
sI12
F0.002
sI13
F0.002
sI14
F0.002
ssg84
(dp519
I0
F0.6874981697964329
sI1
Fnan
sI2
Fnan
sI3
Fnan
sI4
Fnan
sI5
Fnan
sI6
Fnan
sI7
Fnan
sI8
Fnan
sI9
Fnan
sI10
Fnan
sI11
Fnan
sI12
Fnan
sI13
Fnan
sI14
Fnan
ssg86
(dp520
I0
F11.497800000000002
sI1
Fnan
sI2
Fnan
sI3
Fnan
sI4
Fnan
sI5
Fnan
sI6
Fnan
sI7
Fnan
sI8
Fnan
sI9
Fnan
sI10
Fnan
sI11
Fnan
sI12
Fnan
sI13
Fnan
sI14
Fnan
ssg88
(dp521
I0
F11.382
sI1
F11.343
sI2
F11.34
sI3
F11.371
sI4
F11.281
sI5
F11.284
sI6
F11.339
sI7
F11.301
sI8
F11.355
sI9
F11.344
sI10
F11.358
sI11
F11.366
sI12
F11.323
sI13
F11.281
sI14
F11.374
ssg90
(dp522
I0
F-1.792471
sI1
F-3.415963
sI2
F4.439357
sI3
F2.726301
sI4
F-0.4706951
sI5
F-3.372289
sI6
F4.583712
sI7
F2.640893
sI8
F-1.935464
sI9
F2.63446
sI10
F2.881267
sI11
F3.916238
sI12
F3.629286
sI13
F-3.404583
sI14
F4.356377
ssg92
(dp523
I0
F0.034373716426251893
sI1
Fnan
sI2
Fnan
sI3
Fnan
sI4
Fnan
sI5
Fnan
sI6
Fnan
sI7
Fnan
sI8
Fnan
sI9
Fnan
sI10
Fnan
sI11
Fnan
sI12
Fnan
sI13
Fnan
sI14
Fnan
ssg94
(dp524
I0
F0.7196704179214465
sI1
F0.7146300094449309
sI2
F0.7103999051815474
sI3
F0.71154181746596
sI4
F0.717356202335033
sI5
F0.7216173311663985
sI6
F0.7178647979156239
sI7
F0.7182033104677865
sI8
F0.717893800878474
sI9
F0.71814177092163
sI10
F0.7139351285602619
sI11
F0.7174701431937022
sI12
F0.7212744547477419
sI13
F0.7175556707491011
sI14
F0.714750116435584
ssg96
(dp525
I0
F30.0
sI1
F30.0
sI2
F30.0
sI3
F30.0
sI4
F30.0
sI5
F30.0
sI6
F30.0
sI7
F30.0
sI8
F30.0
sI9
F30.0
sI10
F30.0
sI11
F30.0
sI12
F30.0
sI13
F30.0
sI14
F30.0
ssg98
(dp526
I0
F0.002
sI1
F0.002
sI2
F0.002
sI3
F0.002
sI4
F0.002
sI5
F0.002
sI6
F0.002
sI7
F0.002
sI8
F0.002
sI9
F0.002
sI10
F0.002
sI11
F0.002
sI12
F0.002
sI13
F0.002
sI14
F0.002
ssg100
(dp527
I0
F0.002
sI1
F0.002
sI2
F0.002
sI3
F0.002
sI4
F0.002
sI5
F0.002
sI6
F0.002
sI7
F0.002
sI8
F0.002
sI9
F0.002
sI10
F0.002
sI11
F0.002
sI12
F0.002
sI13
F0.002
sI14
F0.002
ssg102
(dp528
I0
F3.47451
sI1
F3.554926
sI2
F2.074326
sI3
F4.482725
sI4
F2.579658
sI5
F-3.800167
sI6
F2.005558
sI7
F-1.878245
sI8
F2.274046
sI9
F4.109522
sI10
F-3.710685
sI11
F-1.443669
sI12
F3.013818
sI13
F2.238827
sI14
F-2.655225
ssg104
(dp529
I0
S'KIC8462852-20180907at101128_-25-1X1-030-V_cal.fts.mag.1'
p530
sI1
S'KIC8462852-20180907at100916_-25-1X1-030-V_cal.fts.mag.1'
p531
sI2
S'KIC8462852-20180907at094110_-25-1X1-030-V_cal.fts.mag.1'
p532
sI3
S'KIC8462852-20180907at100801_-25-1X1-030-V_cal.fts.mag.1'
p533
sI4
S'KIC8462852-20180907at091647_-25-1X1-030-V_cal.fts.mag.1'
p534
sI5
S'KIC8462852-20180907at091332_-25-1X1-030-V_cal.fts.mag.1'
p535
sI6
S'KIC8462852-20180907at093957_-25-1X1-030-V_cal.fts.mag.1'
p536
sI7
S'KIC8462852-20180907at091436_-25-1X1-030-V_cal.fts.mag.1'
p537
sI8
S'KIC8462852-20180907at101022_-25-1X1-030-V_cal.fts.mag.1'
p538
sI9
S'KIC8462852-20180907at094214_-25-1X1-030-V_cal.fts.mag.1'
p539
sI10
S'KIC8462852-20180907at094425_-25-1X1-030-V_cal.fts.mag.1'
p540
sI11
S'KIC8462852-20180907at094320_-25-1X1-030-V_cal.fts.mag.1'
p541
sI12
S'KIC8462852-20180907at091212_-25-1X1-030-V_cal.fts.mag.1'
p542
sI13
S'KIC8462852-20180907at091542_-25-1X1-030-V_cal.fts.mag.1'
p543
sI14
S'KIC8462852-20180907at101234_-25-1X1-030-V_cal.fts.mag.1'
p544
ssg121
(dp545
I0
F0.0062157990569015695
sI1
Fnan
sI2
Fnan
sI3
Fnan
sI4
Fnan
sI5
Fnan
sI6
Fnan
sI7
Fnan
sI8
Fnan
sI9
Fnan
sI10
Fnan
sI11
Fnan
sI12
Fnan
sI13
Fnan
sI14
Fnan
ssg123
(dp546
I0
F5287.543333333333
sI1
F5401.48
sI2
F5403.316666666667
sI3
F5274.596666666666
sI4
F5770.0599999999995
sI5
F5828.0633333333335
sI6
F5533.096666666666
sI7
F5705.1433333333325
sI8
F5430.9400000000005
sI9
F5464.123333333334
sI10
F5378.083333333333
sI11
F5347.713333333333
sI12
F5523.703333333334
sI13
F5760.906666666667
sI14
F5309.166666666667
ssg125
(dp547
I0
F0.036711617468355384
sI1
Fnan
sI2
Fnan
sI3
Fnan
sI4
Fnan
sI5
Fnan
sI6
Fnan
sI7
Fnan
sI8
Fnan
sI9
Fnan
sI10
Fnan
sI11
Fnan
sI12
Fnan
sI13
Fnan
sI14
Fnan
ssg127
(dp548
I0
g469
sI1
g469
sI2
g469
sI3
g469
sI4
g469
sI5
g469
sI6
g469
sI7
g469
sI8
g469
sI9
g469
sI10
g469
sI11
g469
sI12
g469
sI13
g469
sI14
g469
ssg144
(dp549
I0
F0.0036189827128048813
sI1
Fnan
sI2
Fnan
sI3
Fnan
sI4
Fnan
sI5
Fnan
sI6
Fnan
sI7
Fnan
sI8
Fnan
sI9
Fnan
sI10
Fnan
sI11
Fnan
sI12
Fnan
sI13
Fnan
sI14
Fnan
ssg146
(dp550
I0
F4.377787
sI1
F3.151944
sI2
F3.14463
sI3
F3.829335
sI4
F3.666514
sI5
F3.717955
sI6
F-1.401176
sI7
F-2.364044
sI8
F-2.290616
sI9
F4.084181
sI10
F-2.420407
sI11
F2.126584
sI12
F-3.09501
sI13
F3.189114
sI14
F3.444074
ssg148
(dp551
I0
F1.5085892131631462
sI1
Fnan
sI2
Fnan
sI3
Fnan
sI4
Fnan
sI5
Fnan
sI6
Fnan
sI7
Fnan
sI8
Fnan
sI9
Fnan
sI10
Fnan
sI11
Fnan
sI12
Fnan
sI13
Fnan
sI14
Fnan
ssg150
(dp552
I0
F2458368.904328704
sI1
Fnan
sI2
Fnan
sI3
Fnan
sI4
Fnan
sI5
Fnan
sI6
Fnan
sI7
Fnan
sI8
Fnan
sI9
Fnan
sI10
Fnan
sI11
Fnan
sI12
Fnan
sI13
Fnan
sI14
Fnan
ssg152
(dp553
I0
F0.0036189827128048813
sI1
Fnan
sI2
Fnan
sI3
Fnan
sI4
Fnan
sI5
Fnan
sI6
Fnan
sI7
Fnan
sI8
Fnan
sI9
Fnan
sI10
Fnan
sI11
Fnan
sI12
Fnan
sI13
Fnan
sI14
Fnan
ssg154
(dp554
I0
F11.77782
sI1
F11.75156
sI2
F12.24241
sI3
F12.88183
sI4
F11.16317
sI5
F11.70225
sI6
F11.85708
sI7
F12.73878
sI8
F11.31405
sI9
F13.28347
sI10
F14.18926
sI11
F13.21139
sI12
F13.58369
sI13
F12.62352
sI14
F11.73419
ssg156
(dp555
I0
F11.001
sI1
F10.977
sI2
F10.974
sI3
F11.011
sI4
F10.913
sI5
F10.911
sI6
F10.963
sI7
F10.925
sI8
F10.987
sI9
F10.987
sI10
F10.989
sI11
F10.993
sI12
F10.957
sI13
F10.921
sI14
F11.003
ssg158
(dp556
I0
F0.6874981697964329
sI1
Fnan
sI2
Fnan
sI3
Fnan
sI4
Fnan
sI5
Fnan
sI6
Fnan
sI7
Fnan
sI8
Fnan
sI9
Fnan
sI10
Fnan
sI11
Fnan
sI12
Fnan
sI13
Fnan
sI14
Fnan
sss.