(dp0
S'V'
p1
(dp2
S'sigmean'
p3
(dp4
I0
F0.6792606076413847
sI1
Fnan
sI2
Fnan
sI3
Fnan
sI4
Fnan
sI5
Fnan
sI6
Fnan
sI7
Fnan
ssS'ref3flag'
p5
(dp6
I0
S'NoError'
p7
sI1
S'NoError'
p8
sI2
S'NoError'
p9
sI3
S'NoError'
p10
sI4
S'NoError'
p11
sI5
S'NoError'
p12
sI6
S'NoError'
p13
sI7
S'NoError'
p14
ssS'tabbyerr'
p15
(dp16
I0
F0.003
sI1
F0.003
sI2
F0.003
sI3
F0.003
sI4
F0.003
sI5
F0.003
sI6
F0.003
sI7
F0.003
ssS'ref2rel'
p17
(dp18
I0
F0.8791009396444054
sI1
F0.8836673430373918
sI2
F0.87764416004457
sI3
F0.8914773846776397
sI4
F0.8857124941836857
sI5
F0.8814932620688486
sI6
F0.8940583922288842
sI7
F0.8802185139602791
ssS'ref2err'
p19
(dp20
I0
F0.005914524886307001
sI1
Fnan
sI2
Fnan
sI3
Fnan
sI4
Fnan
sI5
Fnan
sI6
Fnan
sI7
Fnan
ssS'ref2mean'
p21
(dp22
I0
F0.884171561230713
sI1
Fnan
sI2
Fnan
sI3
Fnan
sI4
Fnan
sI5
Fnan
sI6
Fnan
sI7
Fnan
ssS'tabbymag'
p23
(dp24
I0
F11.659
sI1
F11.455
sI2
F11.608
sI3
F11.52
sI4
F11.478
sI5
F11.675
sI6
F11.625
sI7
F11.533
ssS'tabbybkg'
p25
(dp26
I0
F21.32167
sI1
F40.26976
sI2
F18.58328
sI3
F21.25352
sI4
F37.02747
sI5
F21.50999
sI6
F18.54685
sI7
F36.4878
ssS'JD'
p27
(dp28
I0
F2458217.002094907
sI1
F2458217.00837963
sI2
F2458216.996423611
sI3
F2458217.0027083335
sI4
F2458217.007777778
sI5
F2458216.997037037
sI6
F2458216.995821759
sI7
F2458217.0071643516
ssS'ref3rmsmean'
p29
(dp30
I0
F2.4215391250000002
sI1
Fnan
sI2
Fnan
sI3
Fnan
sI4
Fnan
sI5
Fnan
sI6
Fnan
sI7
Fnan
ssS'ref1rmsmean'
p31
(dp32
I0
F2.321581125
sI1
Fnan
sI2
Fnan
sI3
Fnan
sI4
Fnan
sI5
Fnan
sI6
Fnan
sI7
Fnan
ssS'relflux'
p33
(dp34
I0
F0.6801107711197397
sI1
F0.6784451392578729
sI2
F0.6756706433897691
sI3
F0.6810878775133977
sI4
F0.6791852745909398
sI5
F0.6768270861482827
sI6
F0.6834974614696918
sI7
F0.6870180970703892
ssS'sigerr'
p35
(dp36
I0
F0.0024346650525218874
sI1
Fnan
sI2
Fnan
sI3
Fnan
sI4
Fnan
sI5
Fnan
sI6
Fnan
sI7
Fnan
ssS'tabbyrmsmean'
p37
(dp38
I0
F3.2971220125
sI1
Fnan
sI2
Fnan
sI3
Fnan
sI4
Fnan
sI5
Fnan
sI6
Fnan
sI7
Fnan
ssS'tabbyflag'
p39
(dp40
I0
g7
sI1
g8
sI2
g9
sI3
g10
sI4
g11
sI5
g12
sI6
g13
sI7
g14
ssS'ref1err'
p41
(dp42
I0
F0.008868931604776744
sI1
Fnan
sI2
Fnan
sI3
Fnan
sI4
Fnan
sI5
Fnan
sI6
Fnan
sI7
Fnan
ssS'ref2magmeanerr'
p43
(dp44
I0
F0.08402550633162369
sI1
Fnan
sI2
Fnan
sI3
Fnan
sI4
Fnan
sI5
Fnan
sI6
Fnan
sI7
Fnan
ssS'ref2rmsmean'
p45
(dp46
I0
F0.9671015000000001
sI1
Fnan
sI2
Fnan
sI3
Fnan
sI4
Fnan
sI5
Fnan
sI6
Fnan
sI7
Fnan
ssS'ref3rel'
p47
(dp48
I0
F1.5131250763901845
sI1
F1.5142889537260453
sI2
F1.5110428159076776
sI3
F1.5187983572240913
sI4
F1.4960403358898506
sI5
F1.5224240458683889
sI6
F1.520955355980737
sI7
F1.500627844120773
ssS'ref1flag'
p49
(dp50
I0
g7
sI1
g8
sI2
g9
sI3
g10
sI4
g11
sI5
g12
sI6
g13
sI7
g14
ssS'ref2bkg'
p51
(dp52
I0
F22.38985
sI1
F41.8829
sI2
F21.50629
sI3
F22.69287
sI4
F37.58972
sI5
F24.12699
sI6
F21.76846
sI7
F37.15245
ssS'ref3magmean'
p53
(dp54
I0
F10.873
sI1
Fnan
sI2
Fnan
sI3
Fnan
sI4
Fnan
sI5
Fnan
sI6
Fnan
sI7
Fnan
ssS'ref1mean'
p55
(dp56
I0
F0.7133462454058244
sI1
Fnan
sI2
Fnan
sI3
Fnan
sI4
Fnan
sI5
Fnan
sI6
Fnan
sI7
Fnan
ssS'ref1rms'
p57
(dp58
I0
F8.393256
sI1
F3.862147
sI2
F2.16057
sI3
F-3.08743
sI4
F-4.405294
sI5
F4.451946
sI6
F4.684232
sI7
F2.513222
ssS'ref2magmean'
p59
(dp60
I0
F11.2415
sI1
Fnan
sI2
Fnan
sI3
Fnan
sI4
Fnan
sI5
Fnan
sI6
Fnan
sI7
Fnan
ssS'ref2flag'
p61
(dp62
I0
g7
sI1
g8
sI2
g9
sI3
g10
sI4
g11
sI5
g12
sI6
g13
sI7
g14
ssS'ref2'
p63
(dp64
I0
F7337.096
sI1
F8909.348
sI2
F7737.92
sI3
F8415.6
sI4
F8729.492
sI5
F7283.056
sI6
F7621.576
sI7
F8170.484
ssS'airmass'
p65
(dp66
I0
F1.141308
sI1
F1.124351
sI2
F1.1578760000000001
sI3
F1.1395979999999999
sI4
F1.125949
sI5
F1.1560190000000001
sI6
F1.159727
sI7
F1.127514
ssS'ref1'
p67
(dp68
I0
F6342.672
sI1
F7636.72
sI2
F6714.371999999999
sI3
F7098.628000000001
sI4
F7541.08
sI5
F6234.576
sI6
F6392.215999999999
sI7
F7104.008000000001
ssS'ref3'
p69
(dp70
I0
F10349.6
sI1
F12527.764
sI2
F10919.016000000001
sI3
F11781.492
sI4
F12170.716
sI5
F10289.784
sI6
F10657.176000000001
sI7
F11460.663999999999
ssS'ref1bkg'
p71
(dp72
I0
F22.23366
sI1
F40.88181
sI2
F19.93106
sI3
F23.85589
sI4
F38.54249
sI5
F22.43962
sI6
F20.64323
sI7
F37.38857
ssS'ref1mag'
p73
(dp74
I0
F11.494
sI1
F11.293
sI2
F11.432
sI3
F11.372
sI4
F11.306
sI5
F11.513
sI6
F11.486
sI7
F11.371
ssS'ref3magerr'
p75
(dp76
I0
F0.002
sI1
F0.002
sI2
F0.002
sI3
F0.002
sI4
F0.002
sI5
F0.002
sI6
F0.002
sI7
F0.002
ssS'tabbymagmean'
p77
(dp78
I0
F0.6802302938200103
sI1
Fnan
sI2
Fnan
sI3
Fnan
sI4
Fnan
sI5
Fnan
sI6
Fnan
sI7
Fnan
ssS'ref1magmean'
p79
(dp80
I0
F11.408375
sI1
Fnan
sI2
Fnan
sI3
Fnan
sI4
Fnan
sI5
Fnan
sI6
Fnan
sI7
Fnan
ssS'ref2mag'
p81
(dp82
I0
F11.336
sI1
F11.125
sI2
F11.278
sI3
F11.187
sI4
F11.148
sI5
F11.344
sI6
F11.295
sI7
F11.219
ssS'ref3rms'
p83
(dp84
I0
F7.328488
sI1
F3.172676
sI2
F-3.250736
sI3
F-1.896539
sI4
F-2.237057
sI5
F6.084037
sI6
F5.496881
sI7
F4.674563
ssS'ref3magmeanerr'
p85
(dp86
I0
F0.0811224823514237
sI1
Fnan
sI2
Fnan
sI3
Fnan
sI4
Fnan
sI5
Fnan
sI6
Fnan
sI7
Fnan
ssS'ref1rel'
p87
(dp88
I0
F0.7172251957064224
sI1
F0.7124765686721234
sI2
F0.7197722069690328
sI3
F0.7029356503401579
sI4
F0.7216272680157059
sI5
F0.7095695402678224
sI6
F0.6994149272335441
sI7
F0.7237486060417863
ssS'exposure'
p89
(dp90
I0
F25.0
sI1
F25.0
sI2
F25.0
sI3
F25.0
sI4
F25.0
sI5
F25.0
sI6
F25.0
sI7
F25.0
ssS'ref1magerr'
p91
(dp92
I0
F0.003
sI1
F0.002
sI2
F0.003
sI3
F0.003
sI4
F0.002
sI5
F0.003
sI6
F0.003
sI7
F0.003
ssS'ref2magerr'
p93
(dp94
I0
F0.003
sI1
F0.002
sI2
F0.002
sI3
F0.002
sI4
F0.002
sI5
F0.003
sI6
F0.002
sI7
F0.002
ssS'ref2rms'
p95
(dp96
I0
F6.534111
sI1
F4.509124
sI2
F-2.747432
sI3
F2.935123
sI4
F-2.088234
sI5
F4.525786
sI6
F-2.213356
sI7
F-3.71831
ssS'name'
p97
(dp98
I0
S'KIC8462852-20180408at120301_-35-1-025-V_cal.fts.mag.1'
p99
sI1
S'KIC8462852-20180408at121204_-35-1-025-V_cal.fts.mag.1'
p100
sI2
S'KIC8462852-20180408at115451_-35-1-025-V_cal.fts.mag.1'
p101
sI3
S'KIC8462852-20180408at120354_-35-1-025-V_cal.fts.mag.1'
p102
sI4
S'KIC8462852-20180408at121112_-35-1-025-V_cal.fts.mag.1'
p103
sI5
S'KIC8462852-20180408at115544_-35-1-025-V_cal.fts.mag.1'
p104
sI6
S'KIC8462852-20180408at115358_-35-1-025-V_cal.fts.mag.1'
p105
sI7
S'KIC8462852-20180408at121017_-35-1-025-V_cal.fts.mag.1'
p106
ssS'ref3err'
p107
(dp108
I0
F0.00945910561390662
sI1
Fnan
sI2
Fnan
sI3
Fnan
sI4
Fnan
sI5
Fnan
sI6
Fnan
sI7
Fnan
ssS'tabby'
p109
(dp110
I0
F5447.544
sI1
F6575.0
sI2
F5714.215999999999
sI3
F6196.928000000001
sI4
F6438.968000000001
sI5
F5371.168000000001
sI6
F5620.848000000001
sI7
F6122.512
ssS'ref1magmeanerr'
p111
(dp112
I0
F0.08566869323154201
sI1
Fnan
sI2
Fnan
sI3
Fnan
sI4
Fnan
sI5
Fnan
sI6
Fnan
sI7
Fnan
ssS'filter'
p113
(dp114
I0
g1
sI1
g1
sI2
g1
sI3
g1
sI4
g1
sI5
g1
sI6
g1
sI7
g1
ssS'tabbymagerr'
p115
(dp116
I0
F0.003667413829677628
sI1
Fnan
sI2
Fnan
sI3
Fnan
sI4
Fnan
sI5
Fnan
sI6
Fnan
sI7
Fnan
ssS'tabbyrms'
p117
(dp118
I0
F7.470582
sI1
F4.199422
sI2
F3.680131
sI3
F2.549033
sI4
F3.797016
sI5
F0.7380281
sI6
F1.99264
sI7
F1.950124
ssS'ref3mean'
p119
(dp120
I0
F1.5121628481384684
sI1
Fnan
sI2
Fnan
sI3
Fnan
sI4
Fnan
sI5
Fnan
sI6
Fnan
sI7
Fnan
ssS'median_JD'
p121
(dp122
I0
F2458217.00240162
sI1
Fnan
sI2
Fnan
sI3
Fnan
sI4
Fnan
sI5
Fnan
sI6
Fnan
sI7
Fnan
ssS'error'
p123
(dp124
I0
F0.003667413829677628
sI1
Fnan
sI2
Fnan
sI3
Fnan
sI4
Fnan
sI5
Fnan
sI6
Fnan
sI7
Fnan
ssS'ref3bkg'
p125
(dp126
I0
F25.40177
sI1
F44.11188
sI2
F24.35873
sI3
F26.87452
sI4
F42.25135
sI5
F29.70406
sI6
F25.46247
sI7
F39.69724
ssS'ref3mag'
p127
(dp128
I0
F10.963
sI1
F10.755
sI2
F10.905
sI3
F10.822
sI4
F10.787
sI5
F10.969
sI6
F10.931
sI7
F10.852
ssS'mean'
p129
(dp130
I0
F0.6802302938200103
sI1
Fnan
sI2
Fnan
sI3
Fnan
sI4
Fnan
sI5
Fnan
sI6
Fnan
sI7
Fnan
sss.