(dp0
S'i'
p1
(dp2
S'sigmean'
p3
(dp4
I0
F0.43928927693523484
sI1
Fnan
sI2
Fnan
sI3
Fnan
sI4
Fnan
sI5
Fnan
sI6
Fnan
sI7
Fnan
sI8
Fnan
sI9
Fnan
sI10
Fnan
sI11
Fnan
sI12
Fnan
sI13
Fnan
sI14
Fnan
ssS'ref3flag'
p5
(dp6
I0
S'NoError'
p7
sI1
S'NoError'
p8
sI2
S'NoError'
p9
sI3
S'NoError'
p10
sI4
S'NoError'
p11
sI5
S'NoError'
p12
sI6
S'NoError'
p13
sI7
S'NoError'
p14
sI8
S'NoError'
p15
sI9
S'NoError'
p16
sI10
S'NoError'
p17
sI11
S'NoError'
p18
sI12
S'NoError'
p19
sI13
S'NoError'
p20
sI14
S'NoError'
p21
ssS'tabbyerr'
p22
(dp23
I0
F0.003
sI1
F0.003
sI2
F0.003
sI3
F0.003
sI4
F0.003
sI5
F0.003
sI6
F0.003
sI7
F0.003
sI8
F0.003
sI9
F0.003
sI10
F0.003
sI11
F0.003
sI12
F0.003
sI13
F0.003
sI14
F0.003
ssS'ref2rel'
p24
(dp25
I0
F0.9119419170097766
sI1
F0.9113776252283627
sI2
F0.9096224953693635
sI3
F0.9047690988749361
sI4
F0.909147375682301
sI5
F0.9126859670813795
sI6
F0.9144576782351259
sI7
F0.9076108835597972
sI8
F0.909693711564347
sI9
F0.9095207340701656
sI10
F0.913311052414066
sI11
F0.9102478694376324
sI12
F0.912509107496765
sI13
F0.9085603537787407
sI14
F0.9139256961932132
ssS'ref2err'
p26
(dp27
I0
F0.002617981937625861
sI1
Fnan
sI2
Fnan
sI3
Fnan
sI4
Fnan
sI5
Fnan
sI6
Fnan
sI7
Fnan
sI8
Fnan
sI9
Fnan
sI10
Fnan
sI11
Fnan
sI12
Fnan
sI13
Fnan
sI14
Fnan
ssS'ref2mean'
p28
(dp29
I0
F0.910625437733065
sI1
Fnan
sI2
Fnan
sI3
Fnan
sI4
Fnan
sI5
Fnan
sI6
Fnan
sI7
Fnan
sI8
Fnan
sI9
Fnan
sI10
Fnan
sI11
Fnan
sI12
Fnan
sI13
Fnan
sI14
Fnan
ssS'tabbymag'
p30
(dp31
I0
F11.943
sI1
F11.926
sI2
F11.94
sI3
F12.026
sI4
F11.901
sI5
F11.913
sI6
F11.925
sI7
F11.986
sI8
F11.961
sI9
F11.925
sI10
F11.92
sI11
F11.963
sI12
F11.917
sI13
F12.033
sI14
F11.95
ssS'tabbybkg'
p32
(dp33
I0
F6.685125
sI1
F6.562149
sI2
F6.82012
sI3
F9.990267
sI4
F6.14183
sI5
F6.661188
sI6
F6.328156
sI7
F8.898472
sI8
F7.493051
sI9
F7.02556
sI10
F6.039341
sI11
F9.133535
sI12
F6.104759
sI13
F9.803955
sI14
F7.011325
ssS'JD'
p34
(dp35
I0
F2458435.593923611
sI1
F2458435.594664352
sI2
F2458435.5931944447
sI3
F2458435.575034722
sI4
F2458435.615659722
sI5
F2458435.6149189817
sI6
F2458435.616388889
sI7
F2458435.5728125
sI8
F2458435.5742939813
sI9
F2458435.5961342594
sI10
F2458435.6171296295
sI11
F2458435.573553241
sI12
F2458435.614201389
sI13
F2458435.5720833335
sI14
F2458435.5953935185
ssS'ref3rmsmean'
p36
(dp37
I0
F1.9156844
sI1
Fnan
sI2
Fnan
sI3
Fnan
sI4
Fnan
sI5
Fnan
sI6
Fnan
sI7
Fnan
sI8
Fnan
sI9
Fnan
sI10
Fnan
sI11
Fnan
sI12
Fnan
sI13
Fnan
sI14
Fnan
ssS'ref1rmsmean'
p38
(dp39
I0
F1.5255561333333332
sI1
Fnan
sI2
Fnan
sI3
Fnan
sI4
Fnan
sI5
Fnan
sI6
Fnan
sI7
Fnan
sI8
Fnan
sI9
Fnan
sI10
Fnan
sI11
Fnan
sI12
Fnan
sI13
Fnan
sI14
Fnan
ssS'relflux'
p40
(dp41
I0
F0.4396124983198524
sI1
F0.4420739106834785
sI2
F0.4389354724913216
sI3
F0.43835325787948015
sI4
F0.4432613145131098
sI5
F0.4377439100925619
sI6
F0.4395214689793729
sI7
F0.439256644054067
sI8
F0.4388143847682624
sI9
F0.44068184024438184
sI10
F0.44043611254167925
sI11
F0.4399925002121182
sI12
F0.439439091068936
sI13
F0.4386841425707845
sI14
F0.4368931258917235
ssS'sigerr'
p42
(dp43
I0
F0.0008119965080363577
sI1
Fnan
sI2
Fnan
sI3
Fnan
sI4
Fnan
sI5
Fnan
sI6
Fnan
sI7
Fnan
sI8
Fnan
sI9
Fnan
sI10
Fnan
sI11
Fnan
sI12
Fnan
sI13
Fnan
sI14
Fnan
ssS'tabbyrmsmean'
p44
(dp45
I0
F2.0858208
sI1
Fnan
sI2
Fnan
sI3
Fnan
sI4
Fnan
sI5
Fnan
sI6
Fnan
sI7
Fnan
sI8
Fnan
sI9
Fnan
sI10
Fnan
sI11
Fnan
sI12
Fnan
sI13
Fnan
sI14
Fnan
ssS'tabbyflag'
p46
(dp47
I0
g7
sI1
g8
sI2
g9
sI3
g10
sI4
g11
sI5
g12
sI6
g13
sI7
g14
sI8
g15
sI9
g16
sI10
g17
sI11
g18
sI12
g19
sI13
g20
sI14
g21
ssS'ref1err'
p48
(dp49
I0
F0.0019149850375269055
sI1
Fnan
sI2
Fnan
sI3
Fnan
sI4
Fnan
sI5
Fnan
sI6
Fnan
sI7
Fnan
sI8
Fnan
sI9
Fnan
sI10
Fnan
sI11
Fnan
sI12
Fnan
sI13
Fnan
sI14
Fnan
ssS'ref2magmeanerr'
p50
(dp51
I0
F0.03949297707308524
sI1
Fnan
sI2
Fnan
sI3
Fnan
sI4
Fnan
sI5
Fnan
sI6
Fnan
sI7
Fnan
sI8
Fnan
sI9
Fnan
sI10
Fnan
sI11
Fnan
sI12
Fnan
sI13
Fnan
sI14
Fnan
ssS'ref2rmsmean'
p52
(dp53
I0
F1.4267461066666667
sI1
Fnan
sI2
Fnan
sI3
Fnan
sI4
Fnan
sI5
Fnan
sI6
Fnan
sI7
Fnan
sI8
Fnan
sI9
Fnan
sI10
Fnan
sI11
Fnan
sI12
Fnan
sI13
Fnan
sI14
Fnan
ssS'ref3rel'
p54
(dp55
I0
F1.4945306679506656
sI1
F1.499899164273499
sI2
F1.499993100027681
sI3
F1.5045516124278906
sI4
F1.4971891640540909
sI5
F1.497495577472622
sI6
F1.492375860839054
sI7
F1.504166242751043
sI8
F1.5074092590658024
sI9
F1.499480592385689
sI10
F1.4919784624588692
sI11
F1.5008871756075937
sI12
F1.4951349592707892
sI13
F1.505909454153167
sI14
F1.4888872867148066
ssS'ref1flag'
p56
(dp57
I0
g7
sI1
g8
sI2
g9
sI3
g10
sI4
g11
sI5
g12
sI6
g13
sI7
g14
sI8
g15
sI9
g16
sI10
g17
sI11
g18
sI12
g19
sI13
g20
sI14
g21
ssS'ref2bkg'
p58
(dp59
I0
F7.043475
sI1
F6.80799
sI2
F8.302337
sI3
F12.14168
sI4
F7.632571
sI5
F7.430176
sI6
F6.458138
sI7
F11.04346
sI8
F9.778153
sI9
F8.172123
sI10
F6.629118
sI11
F10.44585
sI12
F6.82163
sI13
F12.95183
sI14
F7.308251
ssS'ref3magmean'
p60
(dp61
I0
F10.783799999999998
sI1
Fnan
sI2
Fnan
sI3
Fnan
sI4
Fnan
sI5
Fnan
sI6
Fnan
sI7
Fnan
sI8
Fnan
sI9
Fnan
sI10
Fnan
sI11
Fnan
sI12
Fnan
sI13
Fnan
sI14
Fnan
ssS'ref1mean'
p62
(dp63
I0
F0.6982806442201732
sI1
Fnan
sI2
Fnan
sI3
Fnan
sI4
Fnan
sI5
Fnan
sI6
Fnan
sI7
Fnan
sI8
Fnan
sI9
Fnan
sI10
Fnan
sI11
Fnan
sI12
Fnan
sI13
Fnan
sI14
Fnan
ssS'ref1rms'
p64
(dp65
I0
F1.848837
sI1
F3.993231
sI2
F3.893049
sI3
F-3.31183
sI4
F-2.549831
sI5
F3.908737
sI6
F2.681453
sI7
F-2.328007
sI8
F1.035736
sI9
F2.221217
sI10
F-1.932196
sI11
F3.370382
sI12
F4.043585
sI13
F3.529403
sI14
F2.479576
ssS'ref2magmean'
p66
(dp67
I0
F11.125133333333334
sI1
Fnan
sI2
Fnan
sI3
Fnan
sI4
Fnan
sI5
Fnan
sI6
Fnan
sI7
Fnan
sI8
Fnan
sI9
Fnan
sI10
Fnan
sI11
Fnan
sI12
Fnan
sI13
Fnan
sI14
Fnan
ssS'ref2flag'
p68
(dp69
I0
g7
sI1
g8
sI2
g9
sI3
g10
sI4
g11
sI5
g12
sI6
g13
sI7
g14
sI8
g15
sI9
g16
sI10
g17
sI11
g18
sI12
g19
sI13
g20
sI14
g21
ssS'ref2'
p70
(dp71
I0
F8970.316666666668
sI1
F9054.4
sI2
F8986.116666666667
sI3
F8284.533333333333
sI4
F9221.266666666666
sI5
F9261.803333333333
sI6
F9139.91
sI7
F8600.97
sI8
F8817.303333333333
sI9
F9080.956666666667
sI10
F9149.130000000001
sI11
F8785.703333333333
sI12
F9188.55
sI13
F8249.956666666667
sI14
F8979.956666666667
ssS'airmass'
p72
(dp73
I0
F1.0865690000000001
sI1
F1.088087
sI2
F1.085041
sI3
F1.052646
sI4
F1.139059
sI5
F1.137042
sI6
F1.141131
sI7
F1.049308
sI8
F1.051526
sI9
F1.091198
sI10
F1.143211
sI11
F1.050394
sI12
F1.135025
sI13
F1.048234
sI14
F1.089636
ssS'ref1'
p74
(dp75
I0
F7422.91
sI1
F7474.133333333333
sI2
F7439.070000000001
sI3
F6894.336666666667
sI4
F7653.3099999999995
sI5
F7640.296666666666
sI6
F7541.973333333333
sI7
F7125.429999999999
sI8
F7264.376666666666
sI9
F7521.29
sI10
F7565.87
sI11
F7261.4766666666665
sI12
F7593.426666666666
sI13
F6816.296666666666
sI14
F7432.926666666666
ssS'ref3'
p76
(dp77
I0
F12250.09
sI1
F12395.566666666668
sI2
F12318.833333333334
sI3
F11418.696666666667
sI4
F12632.216666666667
sI5
F12655.41
sI6
F12447.82
sI7
F11827.56
sI8
F12120.836666666666
sI9
F12447.373333333333
sI10
F12469.21
sI11
F12042.503333333332
sI12
F12545.66
sI13
F11344.206666666667
sI14
F12218.466666666667
ssS'ref1bkg'
p78
(dp79
I0
F7.290296
sI1
F6.738228
sI2
F7.41208
sI3
F11.58434
sI4
F7.364691
sI5
F6.668374
sI6
F7.182123
sI7
F10.95611
sI8
F9.517319
sI9
F7.69062
sI10
F6.27838
sI11
F9.329744
sI12
F6.863787
sI13
F10.91577
sI14
F7.146636
ssS'ref1mag'
p80
(dp81
I0
F11.324
sI1
F11.316
sI2
F11.321
sI3
F11.404
sI4
F11.29
sI5
F11.292
sI6
F11.306
sI7
F11.368
sI8
F11.347
sI9
F11.309
sI10
F11.303
sI11
F11.347
sI12
F11.299
sI13
F11.416
sI14
F11.322
ssS'ref3magerr'
p82
(dp83
I0
F0.002
sI1
F0.002
sI2
F0.002
sI3
F0.002
sI4
F0.002
sI5
F0.002
sI6
F0.002
sI7
F0.002
sI8
F0.002
sI9
F0.002
sI10
F0.002
sI11
F0.002
sI12
F0.002
sI13
F0.002
sI14
F0.002
ssS'tabbymagmean'
p84
(dp85
I0
F0.43957997828740863
sI1
Fnan
sI2
Fnan
sI3
Fnan
sI4
Fnan
sI5
Fnan
sI6
Fnan
sI7
Fnan
sI8
Fnan
sI9
Fnan
sI10
Fnan
sI11
Fnan
sI12
Fnan
sI13
Fnan
sI14
Fnan
ssS'ref1magmean'
p86
(dp87
I0
F11.330933333333332
sI1
Fnan
sI2
Fnan
sI3
Fnan
sI4
Fnan
sI5
Fnan
sI6
Fnan
sI7
Fnan
sI8
Fnan
sI9
Fnan
sI10
Fnan
sI11
Fnan
sI12
Fnan
sI13
Fnan
sI14
Fnan
ssS'ref2mag'
p88
(dp89
I0
F11.118
sI1
F11.108
sI2
F11.116
sI3
F11.204
sI4
F11.088
sI5
F11.083
sI6
F11.098
sI7
F11.164
sI8
F11.137
sI9
F11.105
sI10
F11.097
sI11
F11.141
sI12
F11.092
sI13
F11.209
sI14
F11.117
ssS'ref3rms'
p90
(dp91
I0
F1.666436
sI1
F3.875694
sI2
F4.218565
sI3
F-2.225523
sI4
F3.445717
sI5
F1.817581
sI6
F1.891531
sI7
F-3.011356
sI8
F2.82698
sI9
F3.459789
sI10
F2.977936
sI11
F-3.126733
sI12
F3.81087
sI13
F3.55
sI14
F3.557779
ssS'ref3magmeanerr'
p92
(dp93
I0
F0.0365693079742327
sI1
Fnan
sI2
Fnan
sI3
Fnan
sI4
Fnan
sI5
Fnan
sI6
Fnan
sI7
Fnan
sI8
Fnan
sI9
Fnan
sI10
Fnan
sI11
Fnan
sI12
Fnan
sI13
Fnan
sI14
Fnan
ssS'ref1rel'
p94
(dp95
I0
F0.6996011072360849
sI1
F0.6968899718569881
sI2
F0.6983419346208276
sI3
F0.6998179147953576
sI4
F0.7004201465975294
sI5
F0.697195993894601
sI6
F0.6987277803950053
sI7
F0.6975959601596394
sI8
F0.693889396734062
sI9
F0.6987341795671099
sI10
F0.699949209791316
sI11
F0.6972733450247437
sI12
F0.6987534091799671
sI13
F0.695747662271537
sI14
F0.7012716511778313
ssS'exposure'
p96
(dp97
I0
F30.0
sI1
F30.0
sI2
F30.0
sI3
F30.0
sI4
F30.0
sI5
F30.0
sI6
F30.0
sI7
F30.0
sI8
F30.0
sI9
F30.0
sI10
F30.0
sI11
F30.0
sI12
F30.0
sI13
F30.0
sI14
F30.0
ssS'ref1magerr'
p98
(dp99
I0
F0.002
sI1
F0.002
sI2
F0.002
sI3
F0.002
sI4
F0.002
sI5
F0.002
sI6
F0.002
sI7
F0.002
sI8
F0.002
sI9
F0.002
sI10
F0.002
sI11
F0.002
sI12
F0.002
sI13
F0.002
sI14
F0.002
ssS'ref2magerr'
p100
(dp101
I0
F0.002
sI1
F0.002
sI2
F0.002
sI3
F0.002
sI4
F0.002
sI5
F0.002
sI6
F0.002
sI7
F0.002
sI8
F0.002
sI9
F0.002
sI10
F0.002
sI11
F0.002
sI12
F0.002
sI13
F0.002
sI14
F0.002
ssS'ref2rms'
p102
(dp103
I0
F3.049048
sI1
F4.028162
sI2
F3.86104
sI3
F-0.974053
sI4
F0.8984182
sI5
F2.429999
sI6
F2.470259
sI7
F-0.9333596
sI8
F-2.399382
sI9
F2.042011
sI10
F2.840158
sI11
F-1.794844
sI12
F2.828656
sI13
F-0.316928
sI14
F3.372007
ssS'name'
p104
(dp105
I0
S"KIC8462852-20181113at021515_-25-1X1-030-i'_cal.fts.mag.1"
p106
sI1
S"KIC8462852-20181113at021619_-25-1X1-030-i'_cal.fts.mag.1"
p107
sI2
S"KIC8462852-20181113at021410_-25-1X1-030-i'_cal.fts.mag.1"
p108
sI3
S"KIC8462852-20181113at014803_-25-1X1-030-i'_cal.fts.mag.1"
p109
sI4
S"KIC8462852-20181113at024633_-25-1X1-030-i'_cal.fts.mag.1"
p110
sI5
S"KIC8462852-20181113at024529_-25-1X1-030-i'_cal.fts.mag.1"
p111
sI6
S"KIC8462852-20181113at024735_-25-1X1-030-i'_cal.fts.mag.1"
p112
sI7
S"KIC8462852-20181113at014451_-25-1X1-030-i'_cal.fts.mag.1"
p113
sI8
S"KIC8462852-20181113at014658_-25-1X1-030-i'_cal.fts.mag.1"
p114
sI9
S"KIC8462852-20181113at021826_-25-1X1-030-i'_cal.fts.mag.1"
p115
sI10
S"KIC8462852-20181113at024840_-25-1X1-030-i'_cal.fts.mag.1"
p116
sI11
S"KIC8462852-20181113at014555_-25-1X1-030-i'_cal.fts.mag.1"
p117
sI12
S"KIC8462852-20181113at024425_-25-1X1-030-i'_cal.fts.mag.1"
p118
sI13
S"KIC8462852-20181113at014346_-25-1X1-030-i'_cal.fts.mag.1"
p119
sI14
S"KIC8462852-20181113at021722_-25-1X1-030-i'_cal.fts.mag.1"
p120
ssS'ref3err'
p121
(dp122
I0
F0.005449220727181499
sI1
Fnan
sI2
Fnan
sI3
Fnan
sI4
Fnan
sI5
Fnan
sI6
Fnan
sI7
Fnan
sI8
Fnan
sI9
Fnan
sI10
Fnan
sI11
Fnan
sI12
Fnan
sI13
Fnan
sI14
Fnan
ssS'tabby'
p123
(dp124
I0
F4197.320000000001
sI1
F4262.196666666667
sI2
F4205.59
sI3
F3886.3766666666666
sI4
F4359.74
sI5
F4312.873333333333
sI6
F4267.71
sI7
F4034.42
sI8
F4125.223333333333
sI9
F4267.213333333333
sI10
F4284.593333333333
sI11
F4119.75
sI12
F4295.903333333334
sI13
F3861.95
sI14
F4169.613333333333
ssS'ref1magmeanerr'
p125
(dp126
I0
F0.03873807036028135
sI1
Fnan
sI2
Fnan
sI3
Fnan
sI4
Fnan
sI5
Fnan
sI6
Fnan
sI7
Fnan
sI8
Fnan
sI9
Fnan
sI10
Fnan
sI11
Fnan
sI12
Fnan
sI13
Fnan
sI14
Fnan
ssS'filter'
p127
(dp128
I0
S"i'"
p129
sI1
S"i'"
p130
sI2
S"i'"
p131
sI3
S"i'"
p132
sI4
S"i'"
p133
sI5
S"i'"
p134
sI6
S"i'"
p135
sI7
S"i'"
p136
sI8
S"i'"
p137
sI9
S"i'"
p138
sI10
S"i'"
p139
sI11
S"i'"
p140
sI12
S"i'"
p141
sI13
S"i'"
p142
sI14
S"i'"
p143
ssS'tabbymagerr'
p144
(dp145
I0
F0.001601723586409613
sI1
Fnan
sI2
Fnan
sI3
Fnan
sI4
Fnan
sI5
Fnan
sI6
Fnan
sI7
Fnan
sI8
Fnan
sI9
Fnan
sI10
Fnan
sI11
Fnan
sI12
Fnan
sI13
Fnan
sI14
Fnan
ssS'tabbyrms'
p146
(dp147
I0
F-3.661533
sI1
F2.881723
sI2
F2.498694
sI3
F3.122785
sI4
F2.991457
sI5
F3.774969
sI6
F3.037708
sI7
F-1.590685
sI8
F3.678664
sI9
F-1.756846
sI10
F1.91395
sI11
F2.985028
sI12
F3.70262
sI13
F3.292073
sI14
F4.416705
ssS'ref3mean'
p148
(dp149
I0
F1.4986592386302175
sI1
Fnan
sI2
Fnan
sI3
Fnan
sI4
Fnan
sI5
Fnan
sI6
Fnan
sI7
Fnan
sI8
Fnan
sI9
Fnan
sI10
Fnan
sI11
Fnan
sI12
Fnan
sI13
Fnan
sI14
Fnan
ssS'median_JD'
p150
(dp151
I0
F2458435.594664352
sI1
Fnan
sI2
Fnan
sI3
Fnan
sI4
Fnan
sI5
Fnan
sI6
Fnan
sI7
Fnan
sI8
Fnan
sI9
Fnan
sI10
Fnan
sI11
Fnan
sI12
Fnan
sI13
Fnan
sI14
Fnan
ssS'error'
p152
(dp153
I0
F0.001601723586409613
sI1
Fnan
sI2
Fnan
sI3
Fnan
sI4
Fnan
sI5
Fnan
sI6
Fnan
sI7
Fnan
sI8
Fnan
sI9
Fnan
sI10
Fnan
sI11
Fnan
sI12
Fnan
sI13
Fnan
sI14
Fnan
ssS'ref3bkg'
p154
(dp155
I0
F9.536426
sI1
F8.568759
sI2
F8.995315
sI3
F13.29965
sI4
F7.882692
sI5
F9.037826
sI6
F8.060152
sI7
F12.67156
sI8
F10.59885
sI9
F8.734243
sI10
F7.106341
sI11
F11.43076
sI12
F7.275399
sI13
F13.4051
sI14
F8.562113
ssS'ref3mag'
p156
(dp157
I0
F10.78
sI1
F10.767
sI2
F10.774
sI3
F10.856
sI4
F10.746
sI5
F10.744
sI6
F10.762
sI7
F10.818
sI8
F10.791
sI9
F10.762
sI10
F10.76
sI11
F10.798
sI12
F10.754
sI13
F10.863
sI14
F10.782
ssS'mean'
p158
(dp159
I0
F0.43957997828740863
sI1
Fnan
sI2
Fnan
sI3
Fnan
sI4
Fnan
sI5
Fnan
sI6
Fnan
sI7
Fnan
sI8
Fnan
sI9
Fnan
sI10
Fnan
sI11
Fnan
sI12
Fnan
sI13
Fnan
sI14
Fnan
sssS'r'
p160
(dp161
g3
(dp162
I0
F0.5499335458098252
sI1
Fnan
sI2
Fnan
sI3
Fnan
sI4
Fnan
sI5
Fnan
sI6
Fnan
sI7
Fnan
sI8
Fnan
sI9
Fnan
sI10
Fnan
sI11
Fnan
sI12
Fnan
sI13
Fnan
sI14
Fnan
ssg5
(dp163
I0
S'NoError'
p164
sI1
S'NoError'
p165
sI2
S'NoError'
p166
sI3
S'NoError'
p167
sI4
S'NoError'
p168
sI5
S'NoError'
p169
sI6
S'NoError'
p170
sI7
S'NoError'
p171
sI8
S'NoError'
p172
sI9
S'NoError'
p173
sI10
S'NoError'
p174
sI11
S'NoError'
p175
sI12
S'NoError'
p176
sI13
S'NoError'
p177
sI14
S'NoError'
p178
ssg22
(dp179
I0
F0.002
sI1
F0.002
sI2
F0.002
sI3
F0.002
sI4
F0.002
sI5
F0.002
sI6
F0.002
sI7
F0.002
sI8
F0.002
sI9
F0.002
sI10
F0.002
sI11
F0.002
sI12
F0.002
sI13
F0.002
sI14
F0.002
ssg24
(dp180
I0
F0.893092214211621
sI1
F0.8885547517515948
sI2
F0.8971883721497117
sI3
F0.8952572059785484
sI4
F0.8938662768827316
sI5
F0.8954623751116105
sI6
F0.8943384594008331
sI7
F0.8932135359978259
sI8
F0.8940458579683626
sI9
F0.8973316179768641
sI10
F0.89684191156909
sI11
F0.8952019948259786
sI12
F0.896610982395458
sI13
F0.8959691793157318
sI14
F0.8959247938298822
ssg26
(dp181
I0
F0.0022206846085552796
sI1
Fnan
sI2
Fnan
sI3
Fnan
sI4
Fnan
sI5
Fnan
sI6
Fnan
sI7
Fnan
sI8
Fnan
sI9
Fnan
sI10
Fnan
sI11
Fnan
sI12
Fnan
sI13
Fnan
sI14
Fnan
ssg28
(dp182
I0
F0.8948599686243897
sI1
Fnan
sI2
Fnan
sI3
Fnan
sI4
Fnan
sI5
Fnan
sI6
Fnan
sI7
Fnan
sI8
Fnan
sI9
Fnan
sI10
Fnan
sI11
Fnan
sI12
Fnan
sI13
Fnan
sI14
Fnan
ssg30
(dp183
I0
F11.3
sI1
F11.212
sI2
F11.306
sI3
F11.261
sI4
F11.24
sI5
F11.207
sI6
F11.229
sI7
F11.212
sI8
F11.204
sI9
F11.21
sI10
F11.247
sI11
F11.3
sI12
F11.291
sI13
F11.275
sI14
F11.386
ssg32
(dp184
I0
F11.14356
sI1
F7.104692
sI2
F12.33567
sI3
F12.32644
sI4
F7.171577
sI5
F8.355544
sI6
F7.428524
sI7
F7.27841
sI8
F7.085124
sI9
F6.933977
sI10
F8.597242
sI11
F11.24071
sI12
F11.53763
sI13
F8.513135
sI14
F9.835589
ssg34
(dp185
I0
F2458435.5691203703
sI1
F2458435.610497685
sI2
F2458435.5713310186
sI3
F2458435.5683796294
sI4
F2458435.5924421297
sI5
F2458435.6119791665
sI6
F2458435.5909722224
sI7
F2458435.6127083334
sI8
F2458435.613449074
sI9
F2458435.611238426
sI10
F2458435.591701389
sI11
F2458435.5706018517
sI12
F2458435.569861111
sI13
F2458435.5902199075
sI14
F2458435.5894907406
ssg36
(dp186
I0
F1.9863191999999998
sI1
Fnan
sI2
Fnan
sI3
Fnan
sI4
Fnan
sI5
Fnan
sI6
Fnan
sI7
Fnan
sI8
Fnan
sI9
Fnan
sI10
Fnan
sI11
Fnan
sI12
Fnan
sI13
Fnan
sI14
Fnan
ssg38
(dp187
I0
F1.7905997999999999
sI1
Fnan
sI2
Fnan
sI3
Fnan
sI4
Fnan
sI5
Fnan
sI6
Fnan
sI7
Fnan
sI8
Fnan
sI9
Fnan
sI10
Fnan
sI11
Fnan
sI12
Fnan
sI13
Fnan
sI14
Fnan
ssg40
(dp188
I0
F0.548311393066677
sI1
F0.5530327562278604
sI2
F0.5467514014212921
sI3
F0.5503752421152033
sI4
F0.5526894889959039
sI5
F0.55048502328014
sI6
F0.5501292918454126
sI7
F0.5512860799402194
sI8
F0.5521237678691537
sI9
F0.5501506568013593
sI10
F0.5486728731726995
sI11
F0.5511405811649451
sI12
F0.548180714815041
sI13
F0.5478102329408651
sI14
F0.5477807495201091
ssg42
(dp189
I0
F0.0015859803102104906
sI1
Fnan
sI2
Fnan
sI3
Fnan
sI4
Fnan
sI5
Fnan
sI6
Fnan
sI7
Fnan
sI8
Fnan
sI9
Fnan
sI10
Fnan
sI11
Fnan
sI12
Fnan
sI13
Fnan
sI14
Fnan
ssg44
(dp190
I0
F1.2614076866666666
sI1
Fnan
sI2
Fnan
sI3
Fnan
sI4
Fnan
sI5
Fnan
sI6
Fnan
sI7
Fnan
sI8
Fnan
sI9
Fnan
sI10
Fnan
sI11
Fnan
sI12
Fnan
sI13
Fnan
sI14
Fnan
ssg46
(dp191
I0
g164
sI1
g165
sI2
g166
sI3
g167
sI4
g168
sI5
g169
sI6
g170
sI7
g171
sI8
g172
sI9
g173
sI10
g174
sI11
g175
sI12
g176
sI13
g177
sI14
g178
ssg48
(dp192
I0
F0.0025251304461195246
sI1
Fnan
sI2
Fnan
sI3
Fnan
sI4
Fnan
sI5
Fnan
sI6
Fnan
sI7
Fnan
sI8
Fnan
sI9
Fnan
sI10
Fnan
sI11
Fnan
sI12
Fnan
sI13
Fnan
sI14
Fnan
ssg50
(dp193
I0
F0.04844505970193248
sI1
Fnan
sI2
Fnan
sI3
Fnan
sI4
Fnan
sI5
Fnan
sI6
Fnan
sI7
Fnan
sI8
Fnan
sI9
Fnan
sI10
Fnan
sI11
Fnan
sI12
Fnan
sI13
Fnan
sI14
Fnan
ssg52
(dp194
I0
F1.1701114466666667
sI1
Fnan
sI2
Fnan
sI3
Fnan
sI4
Fnan
sI5
Fnan
sI6
Fnan
sI7
Fnan
sI8
Fnan
sI9
Fnan
sI10
Fnan
sI11
Fnan
sI12
Fnan
sI13
Fnan
sI14
Fnan
ssg54
(dp195
I0
F1.4956492923403981
sI1
F1.5001873375503674
sI2
F1.4866232279142129
sI3
F1.4925861862468643
sI4
F1.4976078323503348
sI5
F1.4963129978281298
sI6
F1.4897626371090675
sI7
F1.4938602948920348
sI8
F1.4924486089386333
sI9
F1.4947087427392212
sI10
F1.5005709660960669
sI11
F1.4923802747498713
sI12
F1.49046950111121
sI13
F1.4982616353325875
sI14
F1.4975080757788004
ssg56
(dp196
I0
g164
sI1
g165
sI2
g166
sI3
g167
sI4
g168
sI5
g169
sI6
g170
sI7
g171
sI8
g172
sI9
g173
sI10
g174
sI11
g175
sI12
g176
sI13
g177
sI14
g178
ssg58
(dp197
I0
F13.37116
sI1
F8.314621
sI2
F13.41616
sI3
F14.30937
sI4
F9.592695
sI5
F9.465337
sI6
F8.747606
sI7
F8.518089
sI8
F8.94215
sI9
F8.730549
sI10
F8.49894
sI11
F14.24428
sI12
F14.11482
sI13
F10.11793
sI14
F14.03106
ssg60
(dp198
I0
F10.338733333333334
sI1
Fnan
sI2
Fnan
sI3
Fnan
sI4
Fnan
sI5
Fnan
sI6
Fnan
sI7
Fnan
sI8
Fnan
sI9
Fnan
sI10
Fnan
sI11
Fnan
sI12
Fnan
sI13
Fnan
sI14
Fnan
ssg62
(dp199
I0
F0.7144173034955689
sI1
Fnan
sI2
Fnan
sI3
Fnan
sI4
Fnan
sI5
Fnan
sI6
Fnan
sI7
Fnan
sI8
Fnan
sI9
Fnan
sI10
Fnan
sI11
Fnan
sI12
Fnan
sI13
Fnan
sI14
Fnan
ssg64
(dp200
I0
F4.666916
sI1
F2.083596
sI2
F5.010134
sI3
F3.002602
sI4
F-2.50866
sI5
F-3.152655
sI6
F3.916647
sI7
F2.143975
sI8
F3.758948
sI9
F3.557129
sI10
F3.214254
sI11
F-2.72126
sI12
F2.503985
sI13
F-1.202128
sI14
F2.585514
ssg66
(dp201
I0
F10.691266666666667
sI1
Fnan
sI2
Fnan
sI3
Fnan
sI4
Fnan
sI5
Fnan
sI6
Fnan
sI7
Fnan
sI8
Fnan
sI9
Fnan
sI10
Fnan
sI11
Fnan
sI12
Fnan
sI13
Fnan
sI14
Fnan
ssg68
(dp202
I0
g164
sI1
g165
sI2
g166
sI3
g167
sI4
g168
sI5
g169
sI6
g170
sI7
g171
sI8
g172
sI9
g173
sI10
g174
sI11
g175
sI12
g176
sI13
g177
sI14
g178
ssg70
(dp203
I0
F12808.41
sI1
F13726.663333333334
sI2
F12820.823333333334
sI3
F13255.119999999999
sI4
F13445.493333333334
sI5
F13923.44
sI6
F13645.586666666666
sI7
F13826.643333333333
sI8
F13913.563333333334
sI9
F13920.716666666667
sI10
F13484.436666666666
sI11
F12768.773333333334
sI12
F12958.373333333333
sI13
F13154.543333333333
sI14
F11872.253333333332
ssg72
(dp204
I0
F1.044047
sI1
F1.12519
sI2
F1.047151
sI3
F1.043043
sI4
F1.083512
sI5
F1.129063
sI6
F1.080567
sI7
F1.131022
sI8
F1.132998
sI9
F1.127124
sI10
F1.082025
sI11
F1.046108
sI12
F1.045072
sI13
F1.079121
sI14
F1.077658
ssg74
(dp205
I0
F10930.640000000001
sI1
F11770.983333333334
sI2
F10927.556666666667
sI3
F11292.3
sI4
F11445.46
sI5
F11830.093333333332
sI6
F11663.34
sI7
F11810.31
sI8
F11878.373333333333
sI9
F11802.533333333333
sI10
F11400.286666666665
sI11
F10880.373333333333
sI12
F11029.003333333332
sI13
F11153.743333333334
sI14
F10071.966666666667
ssg76
(dp206
I0
F17752.646666666667
sI1
F19125.623333333333
sI2
F17652.446666666667
sI3
F18319.57
sI4
F18638.443333333336
sI5
F19267.673333333332
sI6
F18852.146666666667
sI7
F19149.013333333332
sI8
F19246.57
sI9
F19224.383333333335
sI10
F18670.646666666667
sI11
F17646.760000000002
sI12
F17876.22666666667
sI13
F18210.086666666666
sI14
F16430.823333333334
ssg78
(dp207
I0
F12.55932
sI1
F8.370597
sI2
F12.11727
sI3
F13.30468
sI4
F10.06574
sI5
F8.148283
sI6
F7.958554
sI7
F7.784069
sI8
F7.251611
sI9
F7.445413
sI10
F8.603171
sI11
F13.32051
sI12
F13.55023
sI13
F10.09548
sI14
F13.04462
ssg80
(dp208
I0
F10.903
sI1
F10.823
sI2
F10.904
sI3
F10.868
sI4
F10.853
sI5
F10.818
sI6
F10.833
sI7
F10.819
sI8
F10.813
sI9
F10.82
sI10
F10.858
sI11
F10.908
sI12
F10.894
sI13
F10.881
sI14
F10.992
ssg82
(dp209
I0
F0.001
sI1
F0.001
sI2
F0.001
sI3
F0.001
sI4
F0.001
sI5
F0.001
sI6
F0.001
sI7
F0.001
sI8
F0.001
sI9
F0.001
sI10
F0.001
sI11
F0.001
sI12
F0.001
sI13
F0.001
sI14
F0.001
ssg84
(dp210
I0
F0.5499280168784588
sI1
Fnan
sI2
Fnan
sI3
Fnan
sI4
Fnan
sI5
Fnan
sI6
Fnan
sI7
Fnan
sI8
Fnan
sI9
Fnan
sI10
Fnan
sI11
Fnan
sI12
Fnan
sI13
Fnan
sI14
Fnan
ssg86
(dp211
I0
F10.8658
sI1
Fnan
sI2
Fnan
sI3
Fnan
sI4
Fnan
sI5
Fnan
sI6
Fnan
sI7
Fnan
sI8
Fnan
sI9
Fnan
sI10
Fnan
sI11
Fnan
sI12
Fnan
sI13
Fnan
sI14
Fnan
ssg88
(dp212
I0
F10.731
sI1
F10.656
sI2
F10.73
sI3
F10.694
sI4
F10.679
sI5
F10.641
sI6
F10.663
sI7
F10.648
sI8
F10.641
sI9
F10.641
sI10
F10.675
sI11
F10.735
sI12
F10.719
sI13
F10.702
sI14
F10.814
ssg90
(dp213
I0
F2.471077
sI1
F1.282198
sI2
F2.338723
sI3
F-2.481191
sI4
F3.402352
sI5
F3.685803
sI6
F2.980508
sI7
F4.048038
sI8
F4.498481
sI9
F-3.824697
sI10
F4.166702
sI11
F3.981527
sI12
F-3.301896
sI13
F3.023501
sI14
F3.523662
ssg92
(dp214
I0
F0.049095339707067844
sI1
Fnan
sI2
Fnan
sI3
Fnan
sI4
Fnan
sI5
Fnan
sI6
Fnan
sI7
Fnan
sI8
Fnan
sI9
Fnan
sI10
Fnan
sI11
Fnan
sI12
Fnan
sI13
Fnan
sI14
Fnan
ssg94
(dp215
I0
F0.715331287083551
sI1
F0.716600549165223
sI2
F0.7171896331878178
sI3
F0.7152754310493626
sI4
F0.7134698038405718
sI5
F0.7128470331516448
sI6
F0.7177940615345481
sI7
F0.7163047650200952
sI8
F0.7164249440090712
sI9
F0.7121736445708917
sI10
F0.7090814567940267
sI11
F0.7154484660250353
sI12
F0.715365422825873
sI13
F0.711230665455536
sI14
F0.711722388720284
ssg96
(dp216
I0
F30.0
sI1
F30.0
sI2
F30.0
sI3
F30.0
sI4
F30.0
sI5
F30.0
sI6
F30.0
sI7
F30.0
sI8
F30.0
sI9
F30.0
sI10
F30.0
sI11
F30.0
sI12
F30.0
sI13
F30.0
sI14
F30.0
ssg98
(dp217
I0
F0.002
sI1
F0.002
sI2
F0.002
sI3
F0.002
sI4
F0.002
sI5
F0.002
sI6
F0.002
sI7
F0.002
sI8
F0.002
sI9
F0.002
sI10
F0.002
sI11
F0.002
sI12
F0.002
sI13
F0.002
sI14
F0.002
ssg100
(dp218
I0
F0.002
sI1
F0.002
sI2
F0.002
sI3
F0.002
sI4
F0.002
sI5
F0.002
sI6
F0.002
sI7
F0.002
sI8
F0.002
sI9
F0.002
sI10
F0.002
sI11
F0.002
sI12
F0.002
sI13
F0.002
sI14
F0.002
ssg102
(dp219
I0
F3.822867
sI1
F4.084352
sI2
F3.880652
sI3
F2.165112
sI4
F-2.938642
sI5
F-2.339131
sI6
F2.0994
sI7
F2.918647
sI8
F-2.064713
sI9
F-3.2969
sI10
F3.035125
sI11
F3.685116
sI12
F2.913978
sI13
F-1.394549
sI14
F0.9803577
ssg104
(dp220
I0
S"KIC8462852-20181113at013932_-25-1X1-030-r'_cal.fts.mag.1"
p221
sI1
S"KIC8462852-20181113at023905_-25-1X1-030-r'_cal.fts.mag.1"
p222
sI2
S"KIC8462852-20181113at014243_-25-1X1-030-r'_cal.fts.mag.1"
p223
sI3
S"KIC8462852-20181113at013827_-25-1X1-030-r'_cal.fts.mag.1"
p224
sI4
S"KIC8462852-20181113at021307_-25-1X1-030-r'_cal.fts.mag.1"
p225
sI5
S"KIC8462852-20181113at024115_-25-1X1-030-r'_cal.fts.mag.1"
p226
sI6
S"KIC8462852-20181113at021100_-25-1X1-030-r'_cal.fts.mag.1"
p227
sI7
S"KIC8462852-20181113at024218_-25-1X1-030-r'_cal.fts.mag.1"
p228
sI8
S"KIC8462852-20181113at024322_-25-1X1-030-r'_cal.fts.mag.1"
p229
sI9
S"KIC8462852-20181113at024011_-25-1X1-030-r'_cal.fts.mag.1"
p230
sI10
S"KIC8462852-20181113at021203_-25-1X1-030-r'_cal.fts.mag.1"
p231
sI11
S"KIC8462852-20181113at014140_-25-1X1-030-r'_cal.fts.mag.1"
p232
sI12
S"KIC8462852-20181113at014036_-25-1X1-030-r'_cal.fts.mag.1"
p233
sI13
S"KIC8462852-20181113at020955_-25-1X1-030-r'_cal.fts.mag.1"
p234
sI14
S"KIC8462852-20181113at020850_-25-1X1-030-r'_cal.fts.mag.1"
p235
ssg121
(dp236
I0
F0.0039648231708084665
sI1
Fnan
sI2
Fnan
sI3
Fnan
sI4
Fnan
sI5
Fnan
sI6
Fnan
sI7
Fnan
sI8
Fnan
sI9
Fnan
sI10
Fnan
sI11
Fnan
sI12
Fnan
sI13
Fnan
sI14
Fnan
ssg123
(dp237
I0
F7583.456666666667
sI1
F8226.043333333333
sI2
F7545.320000000001
sI3
F7864.3099999999995
sI4
F8019.413333333333
sI5
F8261.166666666666
sI6
F8098.1
sI7
F8229.96
sI8
F8288.943333333333
sI9
F8242.656666666668
sI10
F7965.883333333333
sI11
F7586.616666666667
sI12
F7649.6066666666675
sI13
F7764.0
sI14
F7007.036666666667
ssg125
(dp238
I0
F0.04933442727229857
sI1
Fnan
sI2
Fnan
sI3
Fnan
sI4
Fnan
sI5
Fnan
sI6
Fnan
sI7
Fnan
sI8
Fnan
sI9
Fnan
sI10
Fnan
sI11
Fnan
sI12
Fnan
sI13
Fnan
sI14
Fnan
ssg127
(dp239
I0
S"r'"
p240
sI1
S"r'"
p241
sI2
S"r'"
p242
sI3
S"r'"
p243
sI4
S"r'"
p244
sI5
S"r'"
p245
sI6
S"r'"
p246
sI7
S"r'"
p247
sI8
S"r'"
p248
sI9
S"r'"
p249
sI10
S"r'"
p250
sI11
S"r'"
p251
sI12
S"r'"
p252
sI13
S"r'"
p253
sI14
S"r'"
p254
ssg144
(dp255
I0
F0.0019352007216930777
sI1
Fnan
sI2
Fnan
sI3
Fnan
sI4
Fnan
sI5
Fnan
sI6
Fnan
sI7
Fnan
sI8
Fnan
sI9
Fnan
sI10
Fnan
sI11
Fnan
sI12
Fnan
sI13
Fnan
sI14
Fnan
ssg146
(dp256
I0
F2.324682
sI1
F-3.603328
sI2
F-4.078715
sI3
F2.371237
sI4
F3.596887
sI5
F-3.879386
sI6
F3.625174
sI7
F4.080823
sI8
F3.16103
sI9
F-0.9810567
sI10
F1.249281
sI11
F4.714086
sI12
F-1.94408
sI13
F2.607222
sI14
F5.677259
ssg148
(dp257
I0
F1.4945958407318531
sI1
Fnan
sI2
Fnan
sI3
Fnan
sI4
Fnan
sI5
Fnan
sI6
Fnan
sI7
Fnan
sI8
Fnan
sI9
Fnan
sI10
Fnan
sI11
Fnan
sI12
Fnan
sI13
Fnan
sI14
Fnan
ssg150
(dp258
I0
F2458435.5909722224
sI1
Fnan
sI2
Fnan
sI3
Fnan
sI4
Fnan
sI5
Fnan
sI6
Fnan
sI7
Fnan
sI8
Fnan
sI9
Fnan
sI10
Fnan
sI11
Fnan
sI12
Fnan
sI13
Fnan
sI14
Fnan
ssg152
(dp259
I0
F0.0019352007216930777
sI1
Fnan
sI2
Fnan
sI3
Fnan
sI4
Fnan
sI5
Fnan
sI6
Fnan
sI7
Fnan
sI8
Fnan
sI9
Fnan
sI10
Fnan
sI11
Fnan
sI12
Fnan
sI13
Fnan
sI14
Fnan
ssg154
(dp260
I0
F16.2467
sI1
F9.701389
sI2
F15.73725
sI3
F16.07068
sI4
F10.5076
sI5
F10.03999
sI6
F10.73696
sI7
F10.30537
sI8
F9.132281
sI9
F10.49966
sI10
F11.5335
sI11
F16.26102
sI12
F16.76077
sI13
F11.66074
sI14
F16.52403
ssg156
(dp261
I0
F10.377
sI1
F10.296
sI2
F10.383
sI3
F10.343
sI4
F10.324
sI5
F10.288
sI6
F10.312
sI7
F10.295
sI8
F10.289
sI9
F10.29
sI10
F10.322
sI11
F10.383
sI12
F10.369
sI13
F10.349
sI14
F10.461
ssg158
(dp262
I0
F0.5499280168784588
sI1
Fnan
sI2
Fnan
sI3
Fnan
sI4
Fnan
sI5
Fnan
sI6
Fnan
sI7
Fnan
sI8
Fnan
sI9
Fnan
sI10
Fnan
sI11
Fnan
sI12
Fnan
sI13
Fnan
sI14
Fnan
sssS'z'
p263
(dp264
g3
(dp265
I0
F0.37251694309385674
sI1
Fnan
sI2
Fnan
sI3
Fnan
sI4
Fnan
sI5
Fnan
sI6
Fnan
sI7
Fnan
sI8
Fnan
sI9
Fnan
sI10
Fnan
sI11
Fnan
sI12
Fnan
sI13
Fnan
sI14
Fnan
ssg5
(dp266
I0
S'NoError'
p267
sI1
S'NoError'
p268
sI2
S'NoError'
p269
sI3
S'NoError'
p270
sI4
S'NoError'
p271
sI5
S'NoError'
p272
sI6
S'NoError'
p273
sI7
S'NoError'
p274
sI8
S'NoError'
p275
sI9
S'NoError'
p276
sI10
S'NoError'
p277
sI11
S'NoError'
p278
sI12
S'NoError'
p279
sI13
S'NoError'
p280
sI14
S'NoError'
p281
ssg22
(dp282
I0
F0.007
sI1
F0.007
sI2
F0.007
sI3
F0.007
sI4
F0.008
sI5
F0.007
sI6
F0.007
sI7
F0.007
sI8
F0.007
sI9
F0.007
sI10
F0.007
sI11
F0.007
sI12
F0.007
sI13
F0.007
sI14
F0.007
ssg24
(dp283
I0
F0.9126442937993776
sI1
F0.9113913146924987
sI2
F0.9198186635448375
sI3
F0.9133479572916731
sI4
F0.9160926139521856
sI5
F0.9125703583273642
sI6
F0.915358443281463
sI7
F0.9070604917403012
sI8
F0.9168333530030767
sI9
F0.904755711513691
sI10
F0.9121546286760884
sI11
F0.9179678689995625
sI12
F0.9137001426256638
sI13
F0.9161867482540159
sI14
F0.917358601649456
ssg26
(dp284
I0
F0.004032271243096022
sI1
Fnan
sI2
Fnan
sI3
Fnan
sI4
Fnan
sI5
Fnan
sI6
Fnan
sI7
Fnan
sI8
Fnan
sI9
Fnan
sI10
Fnan
sI11
Fnan
sI12
Fnan
sI13
Fnan
sI14
Fnan
ssg28
(dp285
I0
F0.9138160794234171
sI1
Fnan
sI2
Fnan
sI3
Fnan
sI4
Fnan
sI5
Fnan
sI6
Fnan
sI7
Fnan
sI8
Fnan
sI9
Fnan
sI10
Fnan
sI11
Fnan
sI12
Fnan
sI13
Fnan
sI14
Fnan
ssg30
(dp286
I0
F13.257
sI1
F13.294
sI2
F13.278
sI3
F13.273
sI4
F13.377
sI5
F13.305
sI6
F13.276
sI7
F13.318
sI8
F13.299
sI9
F13.302
sI10
F13.323
sI11
F13.306
sI12
F13.305
sI13
F13.378
sI14
F13.272
ssg32
(dp287
I0
F2.594572
sI1
F3.685109
sI2
F2.257782
sI3
F3.424512
sI4
F2.669871
sI5
F2.919872
sI6
F3.623834
sI7
F4.211676
sI8
F2.459806
sI9
F4.589473
sI10
F4.646255
sI11
F3.080012
sI12
F4.64893
sI13
F4.69839
sI14
F3.727591
ssg34
(dp288
I0
F2458435.6178819444
sI1
F2458435.5968865743
sI2
F2458435.6193634258
sI3
F2458435.599108796
sI4
F2458435.6186342593
sI5
F2458435.6201041667
sI6
F2458435.5983680557
sI7
F2458435.577326389
sI8
F2458435.6208449076
sI9
F2458435.5788194444
sI10
F2458435.576597222
sI11
F2458435.599849537
sI12
F2458435.5780671295
sI13
F2458435.5758564817
sI14
F2458435.5976273147
ssg36
(dp289
I0
F1.8058462666666668
sI1
Fnan
sI2
Fnan
sI3
Fnan
sI4
Fnan
sI5
Fnan
sI6
Fnan
sI7
Fnan
sI8
Fnan
sI9
Fnan
sI10
Fnan
sI11
Fnan
sI12
Fnan
sI13
Fnan
sI14
Fnan
ssg38
(dp290
I0
F0.3360439733333333
sI1
Fnan
sI2
Fnan
sI3
Fnan
sI4
Fnan
sI5
Fnan
sI6
Fnan
sI7
Fnan
sI8
Fnan
sI9
Fnan
sI10
Fnan
sI11
Fnan
sI12
Fnan
sI13
Fnan
sI14
Fnan
ssg40
(dp291
I0
F0.3731062585272663
sI1
F0.3716186534122437
sI2
F0.3746640247333165
sI3
F0.3725806838504904
sI4
F0.37401467354322676
sI5
F0.3729376856449145
sI6
F0.3724363284345464
sI7
F0.3707350748627535
sI8
F0.3699861680562887
sI9
F0.3737637456639348
sI10
F0.37036576886152234
sI11
F0.3697903796089095
sI12
F0.3757142917928666
sI13
F0.37427784697317484
sI14
F0.37223334765645927
ssg42
(dp292
I0
F0.0014448346126795842
sI1
Fnan
sI2
Fnan
sI3
Fnan
sI4
Fnan
sI5
Fnan
sI6
Fnan
sI7
Fnan
sI8
Fnan
sI9
Fnan
sI10
Fnan
sI11
Fnan
sI12
Fnan
sI13
Fnan
sI14
Fnan
ssg44
(dp293
I0
F1.3980959133333333
sI1
Fnan
sI2
Fnan
sI3
Fnan
sI4
Fnan
sI5
Fnan
sI6
Fnan
sI7
Fnan
sI8
Fnan
sI9
Fnan
sI10
Fnan
sI11
Fnan
sI12
Fnan
sI13
Fnan
sI14
Fnan
ssg46
(dp294
I0
g267
sI1
g268
sI2
g269
sI3
g270
sI4
g271
sI5
g272
sI6
g273
sI7
g274
sI8
g275
sI9
g276
sI10
g277
sI11
g278
sI12
g279
sI13
g280
sI14
g281
ssg48
(dp295
I0
F0.0023548458206259977
sI1
Fnan
sI2
Fnan
sI3
Fnan
sI4
Fnan
sI5
Fnan
sI6
Fnan
sI7
Fnan
sI8
Fnan
sI9
Fnan
sI10
Fnan
sI11
Fnan
sI12
Fnan
sI13
Fnan
sI14
Fnan
ssg50
(dp296
I0
F0.03629088827004058
sI1
Fnan
sI2
Fnan
sI3
Fnan
sI4
Fnan
sI5
Fnan
sI6
Fnan
sI7
Fnan
sI8
Fnan
sI9
Fnan
sI10
Fnan
sI11
Fnan
sI12
Fnan
sI13
Fnan
sI14
Fnan
ssg52
(dp297
I0
F1.1578178666666663
sI1
Fnan
sI2
Fnan
sI3
Fnan
sI4
Fnan
sI5
Fnan
sI6
Fnan
sI7
Fnan
sI8
Fnan
sI9
Fnan
sI10
Fnan
sI11
Fnan
sI12
Fnan
sI13
Fnan
sI14
Fnan
ssg54
(dp298
I0
F1.5090627640709562
sI1
F1.5154981159355712
sI2
F1.4987334097208564
sI3
F1.5099406125621475
sI4
F1.4961975776382646
sI5
F1.5089389222255436
sI6
F1.5025642700120272
sI7
F1.5159826969819525
sI8
F1.501998412705913
sI9
F1.516084115924203
sI10
F1.5054122208354033
sI11
F1.5091728622708773
sI12
F1.508721352849871
sI13
F1.5082924248716236
sI14
F1.4992713015267942
ssg56
(dp299
I0
g267
sI1
g268
sI2
g269
sI3
g270
sI4
g271
sI5
g272
sI6
g273
sI7
g274
sI8
g275
sI9
g276
sI10
g277
sI11
g278
sI12
g279
sI13
g280
sI14
g281
ssg58
(dp300
I0
F3.16944
sI1
F4.11576
sI2
F2.719278
sI3
F3.648198
sI4
F3.263323
sI5
F3.480099
sI6
F1.988028
sI7
F5.470468
sI8
F4.042078
sI9
F5.64321
sI10
F5.515184
sI11
F3.550692
sI12
F4.720843
sI13
F6.726646
sI14
F3.264365
ssg60
(dp301
I0
F11.956333333333333
sI1
Fnan
sI2
Fnan
sI3
Fnan
sI4
Fnan
sI5
Fnan
sI6
Fnan
sI7
Fnan
sI8
Fnan
sI9
Fnan
sI10
Fnan
sI11
Fnan
sI12
Fnan
sI13
Fnan
sI14
Fnan
ssg62
(dp302
I0
F0.6905846846457208
sI1
Fnan
sI2
Fnan
sI3
Fnan
sI4
Fnan
sI5
Fnan
sI6
Fnan
sI7
Fnan
sI8
Fnan
sI9
Fnan
sI10
Fnan
sI11
Fnan
sI12
Fnan
sI13
Fnan
sI14
Fnan
ssg64
(dp303
I0
F-3.146576
sI1
F3.388058
sI2
F3.45545
sI3
F3.881917
sI4
F3.572651
sI5
F0.8147936
sI6
F-1.64862
sI7
F-3.290836
sI8
F2.608569
sI9
F-2.950573
sI10
F3.010216
sI11
F3.881131
sI12
F-1.797542
sI13
F-2.793686
sI14
F-3.944293
ssg66
(dp304
I0
F12.2982
sI1
Fnan
sI2
Fnan
sI3
Fnan
sI4
Fnan
sI5
Fnan
sI6
Fnan
sI7
Fnan
sI8
Fnan
sI9
Fnan
sI10
Fnan
sI11
Fnan
sI12
Fnan
sI13
Fnan
sI14
Fnan
ssg68
(dp305
I0
g267
sI1
g268
sI2
g269
sI3
g270
sI4
g271
sI5
g272
sI6
g273
sI7
g274
sI8
g275
sI9
g276
sI10
g277
sI11
g278
sI12
g279
sI13
g280
sI14
g281
ssg70
(dp306
I0
F3152.3053333333332
sI1
F3054.2193333333335
sI2
F3095.1703333333335
sI3
F3110.566
sI4
F2821.2786666666666
sI5
F3015.7896666666666
sI6
F3109.7786666666666
sI7
F2986.051
sI8
F3067.286
sI9
F2999.43
sI10
F2985.822333333333
sI11
F3051.941
sI12
F2997.072
sI13
F2818.31
sI14
F3126.722
ssg72
(dp307
I0
F1.145385
sI1
F1.092811
sI2
F1.149667
sI3
F1.09769
sI4
F1.147513
sI5
F1.151832
sI6
F1.096057
sI7
F1.056232
sI8
F1.154016
sI9
F1.058647
sI10
F1.055066
sI11
F1.099352
sI12
F1.0574270000000001
sI13
F1.0539129999999999
sI14
F1.094423
ssg74
(dp308
I0
F2581.633333333333
sI1
F2496.3693333333335
sI2
F2521.221
sI3
F2543.0426666666667
sI4
F2316.1043333333337
sI5
F2470.3303333333333
sI6
F2545.762
sI7
F2457.7006666666666
sI8
F2505.720333333333
sI9
F2478.137666666667
sI10
F2452.949333333333
sI11
F2477.1583333333333
sI12
F2450.7066666666665
sI13
F2295.614333333333
sI14
F2556.4700000000003
ssg76
(dp309
I0
F4326.4366666666665
sI1
F4205.953333333334
sI2
F4208.736666666667
sI3
F4268.306666666666
sI4
F3843.27
sI5
F4139.11
sI6
F4248.906666666667
sI7
F4126.316666666667
sI8
F4185.323333333333
sI9
F4152.2266666666665
sI10
F4093.7966666666666
sI11
F4172.183333333333
sI12
F4109.59
sI13
F3856.6466666666665
sI14
F4260.323333333333
ssg78
(dp310
I0
F3.315043
sI1
F3.994916
sI2
F2.321548
sI3
F3.369964
sI4
F3.235402
sI5
F2.826291
sI6
F3.625764
sI7
F5.245413
sI8
F3.056695
sI9
F4.772354
sI10
F4.605852
sI11
F3.900584
sI12
F5.259552
sI13
F6.839976
sI14
F4.227865
ssg80
(dp311
I0
F12.47
sI1
F12.507
sI2
F12.496
sI3
F12.487
sI4
F12.588
sI5
F12.518
sI6
F12.485
sI7
F12.524
sI8
F12.503
sI9
F12.515
sI10
F12.526
sI11
F12.515
sI12
F12.527
sI13
F12.598
sI14
F12.481
ssg82
(dp312
I0
F0.003
sI1
F0.003
sI2
F0.003
sI3
F0.003
sI4
F0.003
sI5
F0.003
sI6
F0.003
sI7
F0.003
sI8
F0.003
sI9
F0.003
sI10
F0.003
sI11
F0.003
sI12
F0.003
sI13
F0.003
sI14
F0.003
ssg84
(dp313
I0
F0.37254832877479427
sI1
Fnan
sI2
Fnan
sI3
Fnan
sI4
Fnan
sI5
Fnan
sI6
Fnan
sI7
Fnan
sI8
Fnan
sI9
Fnan
sI10
Fnan
sI11
Fnan
sI12
Fnan
sI13
Fnan
sI14
Fnan
ssg86
(dp314
I0
F12.516
sI1
Fnan
sI2
Fnan
sI3
Fnan
sI4
Fnan
sI5
Fnan
sI6
Fnan
sI7
Fnan
sI8
Fnan
sI9
Fnan
sI10
Fnan
sI11
Fnan
sI12
Fnan
sI13
Fnan
sI14
Fnan
ssg88
(dp315
I0
F12.253
sI1
F12.288
sI2
F12.273
sI3
F12.268
sI4
F12.374
sI5
F12.301
sI6
F12.268
sI7
F12.312
sI8
F12.283
sI9
F12.307
sI10
F12.312
sI11
F12.289
sI12
F12.308
sI13
F12.375
sI14
F12.262
ssg90
(dp316
I0
F4.186701
sI1
F3.479347
sI2
F3.005185
sI3
F-1.832984
sI4
F4.455236
sI5
F2.367172
sI6
F3.752405
sI7
F3.246336
sI8
F-2.700146
sI9
F1.919272
sI10
F2.524444
sI11
F-1.708816
sI12
F4.077238
sI13
F2.253886
sI14
F-1.937582
ssg92
(dp317
I0
F0.03641559059105388
sI1
Fnan
sI2
Fnan
sI3
Fnan
sI4
Fnan
sI5
Fnan
sI6
Fnan
sI7
Fnan
sI8
Fnan
sI9
Fnan
sI10
Fnan
sI11
Fnan
sI12
Fnan
sI13
Fnan
sI14
Fnan
ssg94
(dp318
I0
F0.6903924037848432
sI1
F0.6876886950071619
sI2
F0.6903759864412293
sI3
F0.689276744984261
sI4
F0.6950521180579071
sI5
F0.6905282948528652
sI6
F0.6919067427623848
sI7
F0.6911061918761886
sI8
F0.6909845045194769
sI9
F0.6930247863315587
sI10
F0.6929608311784385
sI11
F0.6858016886291132
sI12
F0.6896927605862404
sI13
F0.6878289846575781
sI14
F0.6921495360165653
ssg96
(dp319
I0
F30.0
sI1
F30.0
sI2
F30.0
sI3
F30.0
sI4
F30.0
sI5
F30.0
sI6
F30.0
sI7
F30.0
sI8
F30.0
sI9
F30.0
sI10
F30.0
sI11
F30.0
sI12
F30.0
sI13
F30.0
sI14
F30.0
ssg98
(dp320
I0
F0.004
sI1
F0.004
sI2
F0.004
sI3
F0.004
sI4
F0.004
sI5
F0.004
sI6
F0.004
sI7
F0.004
sI8
F0.004
sI9
F0.004
sI10
F0.004
sI11
F0.004
sI12
F0.004
sI13
F0.005
sI14
F0.004
ssg100
(dp321
I0
F0.004
sI1
F0.004
sI2
F0.004
sI3
F0.004
sI4
F0.004
sI5
F0.004
sI6
F0.004
sI7
F0.004
sI8
F0.004
sI9
F0.004
sI10
F0.004
sI11
F0.004
sI12
F0.004
sI13
F0.004
sI14
F0.004
ssg102
(dp322
I0
F3.222237
sI1
F-2.157997
sI2
F2.126135
sI3
F3.366815
sI4
F-2.300708
sI5
F3.062783
sI6
F3.401891
sI7
F3.008928
sI8
F3.951929
sI9
F-3.272196
sI10
F3.306593
sI11
F3.047252
sI12
F2.591216
sI13
F-2.420053
sI14
F-3.567557
ssg104
(dp323
I0
S"KIC8462852-20181113at024943_-25-1X1-030-z'_cal.fts.mag.1"
p324
sI1
S"KIC8462852-20181113at021930_-25-1X1-030-z'_cal.fts.mag.1"
p325
sI2
S"KIC8462852-20181113at025153_-25-1X1-030-z'_cal.fts.mag.1"
p326
sI3
S"KIC8462852-20181113at022243_-25-1X1-030-z'_cal.fts.mag.1"
p327
sI4
S"KIC8462852-20181113at025050_-25-1X1-030-z'_cal.fts.mag.1"
p328
sI5
S"KIC8462852-20181113at025257_-25-1X1-030-z'_cal.fts.mag.1"
p329
sI6
S"KIC8462852-20181113at022139_-25-1X1-030-z'_cal.fts.mag.1"
p330
sI7
S"KIC8462852-20181113at015121_-25-1X1-030-z'_cal.fts.mag.1"
p331
sI8
S"KIC8462852-20181113at025401_-25-1X1-030-z'_cal.fts.mag.1"
p332
sI9
S"KIC8462852-20181113at015330_-25-1X1-030-z'_cal.fts.mag.1"
p333
sI10
S"KIC8462852-20181113at015018_-25-1X1-030-z'_cal.fts.mag.1"
p334
sI11
S"KIC8462852-20181113at022347_-25-1X1-030-z'_cal.fts.mag.1"
p335
sI12
S"KIC8462852-20181113at015225_-25-1X1-030-z'_cal.fts.mag.1"
p336
sI13
S"KIC8462852-20181113at014913_-25-1X1-030-z'_cal.fts.mag.1"
p337
sI14
S"KIC8462852-20181113at022035_-25-1X1-030-z'_cal.fts.mag.1"
p338
ssg121
(dp339
I0
F0.006286993413020258
sI1
Fnan
sI2
Fnan
sI3
Fnan
sI4
Fnan
sI5
Fnan
sI6
Fnan
sI7
Fnan
sI8
Fnan
sI9
Fnan
sI10
Fnan
sI11
Fnan
sI12
Fnan
sI13
Fnan
sI14
Fnan
ssg123
(dp340
I0
F1251.1963333333333
sI1
F1208.571
sI2
F1227.0406666666668
sI3
F1232.238
sI4
F1119.632
sI5
F1196.537
sI6
F1229.592
sI7
F1182.6533333333332
sI8
F1203.4823333333334
sI9
F1199.756
sI10
F1176.8456666666668
sI11
F1195.8136666666667
sI12
F1196.9466666666667
sI13
F1119.162
sI14
F1233.7693333333334
ssg125
(dp341
I0
F0.03584888920375153
sI1
Fnan
sI2
Fnan
sI3
Fnan
sI4
Fnan
sI5
Fnan
sI6
Fnan
sI7
Fnan
sI8
Fnan
sI9
Fnan
sI10
Fnan
sI11
Fnan
sI12
Fnan
sI13
Fnan
sI14
Fnan
ssg127
(dp342
I0
S"z'"
p343
sI1
S"z'"
p344
sI2
S"z'"
p345
sI3
S"z'"
p346
sI4
S"z'"
p347
sI5
S"z'"
p348
sI6
S"z'"
p349
sI7
S"z'"
p350
sI8
S"z'"
p351
sI9
S"z'"
p352
sI10
S"z'"
p353
sI11
S"z'"
p354
sI12
S"z'"
p355
sI13
S"z'"
p356
sI14
S"z'"
p357
ssg144
(dp358
I0
F0.00178846548311174
sI1
Fnan
sI2
Fnan
sI3
Fnan
sI4
Fnan
sI5
Fnan
sI6
Fnan
sI7
Fnan
sI8
Fnan
sI9
Fnan
sI10
Fnan
sI11
Fnan
sI12
Fnan
sI13
Fnan
sI14
Fnan
ssg146
(dp359
I0
F1.890813
sI1
F-4.058935
sI2
F3.696992
sI3
F-2.776249
sI4
F4.006073
sI5
F2.624943
sI6
F3.019228
sI7
F3.386993
sI8
F4.757733
sI9
F2.599657
sI10
F-3.662205
sI11
F-1.391327
sI12
F3.406417
sI13
F2.490715
sI14
F0.9805907
ssg148
(dp360
I0
F1.5070580706754668
sI1
Fnan
sI2
Fnan
sI3
Fnan
sI4
Fnan
sI5
Fnan
sI6
Fnan
sI7
Fnan
sI8
Fnan
sI9
Fnan
sI10
Fnan
sI11
Fnan
sI12
Fnan
sI13
Fnan
sI14
Fnan
ssg150
(dp361
I0
F2458435.5983680557
sI1
Fnan
sI2
Fnan
sI3
Fnan
sI4
Fnan
sI5
Fnan
sI6
Fnan
sI7
Fnan
sI8
Fnan
sI9
Fnan
sI10
Fnan
sI11
Fnan
sI12
Fnan
sI13
Fnan
sI14
Fnan
ssg152
(dp362
I0
F0.00178846548311174
sI1
Fnan
sI2
Fnan
sI3
Fnan
sI4
Fnan
sI5
Fnan
sI6
Fnan
sI7
Fnan
sI8
Fnan
sI9
Fnan
sI10
Fnan
sI11
Fnan
sI12
Fnan
sI13
Fnan
sI14
Fnan
ssg154
(dp363
I0
F2.295546
sI1
F4.291837
sI2
F3.304803
sI3
F3.350461
sI4
F3.49111
sI5
F4.124116
sI6
F3.637302
sI7
F4.96409
sI8
F3.687956
sI9
F4.856563
sI10
F6.327014
sI11
F3.144037
sI12
F4.129493
sI13
F6.231678
sI14
F4.205718
ssg156
(dp364
I0
F11.91
sI1
F11.94
sI2
F11.94
sI3
F11.924
sI4
F12.038
sI5
F11.958
sI6
F11.929
sI7
F11.961
sI8
F11.946
sI9
F11.954
sI10
F11.97
sI11
F11.949
sI12
F11.966
sI13
F12.034
sI14
F11.926
ssg158
(dp365
I0
F0.37254832877479427
sI1
Fnan
sI2
Fnan
sI3
Fnan
sI4
Fnan
sI5
Fnan
sI6
Fnan
sI7
Fnan
sI8
Fnan
sI9
Fnan
sI10
Fnan
sI11
Fnan
sI12
Fnan
sI13
Fnan
sI14
Fnan
sssS'g'
p366
(dp367
g3
(dp368
I0
F0.8691327780118604
sI1
Fnan
sI2
Fnan
sI3
Fnan
sI4
Fnan
sI5
Fnan
sI6
Fnan
sI7
Fnan
sI8
Fnan
sI9
Fnan
sI10
Fnan
sI11
Fnan
sI12
Fnan
sI13
Fnan
sI14
Fnan
ssg5
(dp369
I0
S'NoError'
p370
sI1
S'NoError'
p371
sI2
S'NoError'
p372
sI3
S'NoError'
p373
sI4
S'NoError'
p374
sI5
S'NoError'
p375
sI6
S'NoError'
p376
sI7
S'NoError'
p377
sI8
S'NoError'
p378
sI9
S'NoError'
p379
sI10
S'NoError'
p380
sI11
S'NoError'
p381
sI12
S'NoError'
p382
sI13
S'NoError'
p383
sI14
S'NoError'
p384
ssg22
(dp385
I0
F0.002
sI1
F0.002
sI2
F0.002
sI3
F0.002
sI4
F0.002
sI5
F0.002
sI6
F0.002
sI7
F0.002
sI8
F0.002
sI9
F0.002
sI10
F0.002
sI11
F0.002
sI12
F0.002
sI13
F0.002
sI14
F0.002
ssg24
(dp386
I0
F0.8830153109580949
sI1
F0.8786488025471215
sI2
F0.8771033836047318
sI3
F0.8764059528595427
sI4
F0.88169594356809
sI5
F0.8797726917372324
sI6
F0.8803271640521424
sI7
F0.8782776457659747
sI8
F0.8822448817361267
sI9
F0.8777544694940465
sI10
F0.8812984961719189
sI11
F0.8709544330599139
sI12
F0.8811293847117004
sI13
F0.8780347463836219
sI14
F0.8809878590826852
ssg26
(dp387
I0
F0.003020932389209939
sI1
Fnan
sI2
Fnan
sI3
Fnan
sI4
Fnan
sI5
Fnan
sI6
Fnan
sI7
Fnan
sI8
Fnan
sI9
Fnan
sI10
Fnan
sI11
Fnan
sI12
Fnan
sI13
Fnan
sI14
Fnan
ssg28
(dp388
I0
F0.8791767443821962
sI1
Fnan
sI2
Fnan
sI3
Fnan
sI4
Fnan
sI5
Fnan
sI6
Fnan
sI7
Fnan
sI8
Fnan
sI9
Fnan
sI10
Fnan
sI11
Fnan
sI12
Fnan
sI13
Fnan
sI14
Fnan
ssg30
(dp389
I0
F11.431
sI1
F11.515
sI2
F11.465
sI3
F11.455
sI4
F11.476
sI5
F11.547
sI6
F11.452
sI7
F11.421
sI8
F11.428
sI9
F11.482
sI10
F11.481
sI11
F11.554
sI12
F11.465
sI13
F11.46
sI14
F11.46
ssg32
(dp390
I0
F-0.0007655258
sI1
F1.264156
sI2
F12.63431
sI3
F1.862337
sI4
F2.348384
sI5
F3.727377
sI6
F1.224442
sI7
F0.07708873
sI8
F0.8729786
sI9
F0.8895797
sI10
F8.28723
sI11
F3.075456
sI12
F11.10484
sI13
F8.771379
sI14
F9.871457
ssg34
(dp391
I0
F2458435.60974537
sI1
F2458435.6068055555
sI2
F2458435.564594907
sI3
F2458435.587986111
sI4
F2458435.585775463
sI5
F2458435.5872453703
sI6
F2458435.6075347224
sI7
F2458435.60900463
sI8
F2458435.608275463
sI9
F2458435.5887268516
sI10
F2458435.567627315
sI11
F2458435.58650463
sI12
F2458435.565335648
sI13
F2458435.566886574
sI14
F2458435.566145833
ssg36
(dp392
I0
F0.40295403333333335
sI1
Fnan
sI2
Fnan
sI3
Fnan
sI4
Fnan
sI5
Fnan
sI6
Fnan
sI7
Fnan
sI8
Fnan
sI9
Fnan
sI10
Fnan
sI11
Fnan
sI12
Fnan
sI13
Fnan
sI14
Fnan
ssg38
(dp393
I0
F1.5016392666666663
sI1
Fnan
sI2
Fnan
sI3
Fnan
sI4
Fnan
sI5
Fnan
sI6
Fnan
sI7
Fnan
sI8
Fnan
sI9
Fnan
sI10
Fnan
sI11
Fnan
sI12
Fnan
sI13
Fnan
sI14
Fnan
ssg40
(dp394
I0
F0.8719279850208843
sI1
F0.8622995850154846
sI2
F0.8700963716801551
sI3
F0.864723621436968
sI4
F0.8693984382873724
sI5
F0.8692889291260837
sI6
F0.8629106967255882
sI7
F0.8702880325907546
sI8
F0.869640785043692
sI9
F0.8698935875852032
sI10
F0.8660602436674626
sI11
F0.868342397244948
sI12
F0.868239127673879
sI13
F0.8726617368989734
sI14
F0.8681648578978093
ssg42
(dp395
I0
F0.0020513228543006
sI1
Fnan
sI2
Fnan
sI3
Fnan
sI4
Fnan
sI5
Fnan
sI6
Fnan
sI7
Fnan
sI8
Fnan
sI9
Fnan
sI10
Fnan
sI11
Fnan
sI12
Fnan
sI13
Fnan
sI14
Fnan
ssg44
(dp396
I0
F1.5726178666666664
sI1
Fnan
sI2
Fnan
sI3
Fnan
sI4
Fnan
sI5
Fnan
sI6
Fnan
sI7
Fnan
sI8
Fnan
sI9
Fnan
sI10
Fnan
sI11
Fnan
sI12
Fnan
sI13
Fnan
sI14
Fnan
ssg46
(dp397
I0
g370
sI1
g371
sI2
g372
sI3
g373
sI4
g374
sI5
g375
sI6
g376
sI7
g377
sI8
g378
sI9
g379
sI10
g380
sI11
g381
sI12
g382
sI13
g383
sI14
g384
ssg48
(dp398
I0
F0.0032708464079895354
sI1
Fnan
sI2
Fnan
sI3
Fnan
sI4
Fnan
sI5
Fnan
sI6
Fnan
sI7
Fnan
sI8
Fnan
sI9
Fnan
sI10
Fnan
sI11
Fnan
sI12
Fnan
sI13
Fnan
sI14
Fnan
ssg50
(dp399
I0
F0.040193934628901216
sI1
Fnan
sI2
Fnan
sI3
Fnan
sI4
Fnan
sI5
Fnan
sI6
Fnan
sI7
Fnan
sI8
Fnan
sI9
Fnan
sI10
Fnan
sI11
Fnan
sI12
Fnan
sI13
Fnan
sI14
Fnan
ssg52
(dp400
I0
F1.4893948000000001
sI1
Fnan
sI2
Fnan
sI3
Fnan
sI4
Fnan
sI5
Fnan
sI6
Fnan
sI7
Fnan
sI8
Fnan
sI9
Fnan
sI10
Fnan
sI11
Fnan
sI12
Fnan
sI13
Fnan
sI14
Fnan
ssg54
(dp401
I0
F1.5146395646767337
sI1
F1.5204969772151036
sI2
F1.5139575691150595
sI3
F1.5144141529312949
sI4
F1.5105559786107279
sI5
F1.5114457562381176
sI6
F1.508923082258306
sI7
F1.5145042983672714
sI8
F1.5134694193966685
sI9
F1.52127822924653
sI10
F1.516032632899904
sI11
F1.5200832913670081
sI12
F1.522270370570228
sI13
F1.5080932243014928
sI14
F1.506768861686476
ssg56
(dp402
I0
g370
sI1
g371
sI2
g372
sI3
g373
sI4
g374
sI5
g375
sI6
g376
sI7
g377
sI8
g378
sI9
g379
sI10
g380
sI11
g381
sI12
g382
sI13
g383
sI14
g384
ssg58
(dp403
I0
F0.8540209
sI1
F1.307624
sI2
F13.56648
sI3
F1.330321
sI4
F2.207069
sI5
F2.325036
sI6
F0.9930841
sI7
F0.1601095
sI8
F0.8844965
sI9
F1.892286
sI10
F8.118118
sI11
F3.020906
sI12
F11.23398
sI13
F9.313826
sI14
F9.521819
ssg60
(dp404
I0
F11.040666666666668
sI1
Fnan
sI2
Fnan
sI3
Fnan
sI4
Fnan
sI5
Fnan
sI6
Fnan
sI7
Fnan
sI8
Fnan
sI9
Fnan
sI10
Fnan
sI11
Fnan
sI12
Fnan
sI13
Fnan
sI14
Fnan
ssg62
(dp405
I0
F0.7163684398639529
sI1
Fnan
sI2
Fnan
sI3
Fnan
sI4
Fnan
sI5
Fnan
sI6
Fnan
sI7
Fnan
sI8
Fnan
sI9
Fnan
sI10
Fnan
sI11
Fnan
sI12
Fnan
sI13
Fnan
sI14
Fnan
ssg64
(dp406
I0
F-2.929959
sI1
F3.916348
sI2
F4.710026
sI3
F3.928307
sI4
F3.499807
sI5
F3.985631
sI6
F3.54794
sI7
F-2.004938
sI8
F-3.253699
sI9
F2.692477
sI10
F-4.098484
sI11
F3.696204
sI12
F3.937148
sI13
F-2.788543
sI14
F3.686324
ssg66
(dp407
I0
F11.414533333333333
sI1
Fnan
sI2
Fnan
sI3
Fnan
sI4
Fnan
sI5
Fnan
sI6
Fnan
sI7
Fnan
sI8
Fnan
sI9
Fnan
sI10
Fnan
sI11
Fnan
sI12
Fnan
sI13
Fnan
sI14
Fnan
ssg68
(dp408
I0
g370
sI1
g371
sI2
g372
sI3
g373
sI4
g374
sI5
g375
sI6
g376
sI7
g377
sI8
g378
sI9
g379
sI10
g380
sI11
g381
sI12
g382
sI13
g383
sI14
g384
ssg70
(dp409
I0
F7088.383333333333
sI1
F6609.386666666667
sI2
F6846.733333333334
sI3
F6954.29
sI4
F6810.426666666666
sI5
F6367.573333333334
sI6
F7009.666666666667
sI7
F7139.679999999999
sI8
F7121.473333333333
sI9
F6749.933333333333
sI10
F6801.64
sI11
F6290.84
sI12
F6887.0599999999995
sI13
F6866.820000000001
sI14
F6919.416666666667
ssg72
(dp410
I0
F1.123214
sI1
F1.115794
sI2
F1.0380770000000001
sI3
F1.074804
sI4
F1.0706799999999999
sI5
F1.073405
sI6
F1.11762
sI7
F1.121337
sI8
F1.119475
sI9
F1.076207
sI10
F1.042017
sI11
F1.072021
sI12
F1.039007
sI13
F1.041045
sI14
F1.040074
ssg74
(dp411
I0
F6081.293333333333
sI1
F5692.183333333333
sI2
F5935.9366666666665
sI3
F6034.679999999999
sI4
F5870.696666666667
sI5
F5503.929999999999
sI6
F6062.61
sI7
F6175.453333333334
sI8
F6122.1066666666675
sI9
F5819.33
sI10
F5847.3533333333335
sI11
F5491.093333333333
sI12
F5899.8099999999995
sI13
F5965.3133333333335
sI14
F5985.756666666667
ssg76
(dp412
I0
F9973.656666666668
sI1
F9352.25
sI2
F9676.21
sI3
F9835.34
sI4
F9577.773333333334
sI5
F8971.566666666668
sI6
F9862.53
sI7
F10082.913333333334
sI8
F10021.876666666667
sI9
F9560.673333333334
sI10
F9588.143333333333
sI11
F8954.76
sI12
F9732.536666666665
sI13
F9676.026666666667
sI14
F9722.556666666667
ssg78
(dp413
I0
F0.4673641
sI1
F0.6926696
sI2
F12.49725
sI3
F0.8657151
sI4
F1.91359
sI5
F2.38496
sI6
F0.1106009
sI7
F0.5816223
sI8
F0.7877442
sI9
F2.12215
sI10
F8.043694
sI11
F2.287825
sI12
F11.24975
sI13
F7.988171
sI14
F9.76402
ssg80
(dp414
I0
F11.54
sI1
F11.612
sI2
F11.566
sI3
F11.548
sI4
F11.578
sI5
F11.648
sI6
F11.543
sI7
F11.523
sI8
F11.533
sI9
F11.588
sI10
F11.583
sI11
F11.651
sI12
F11.573
sI13
F11.561
sI14
F11.557
ssg82
(dp415
I0
F0.002
sI1
F0.002
sI2
F0.002
sI3
F0.002
sI4
F0.002
sI5
F0.002
sI6
F0.002
sI7
F0.002
sI8
F0.002
sI9
F0.002
sI10
F0.002
sI11
F0.002
sI12
F0.002
sI13
F0.002
sI14
F0.002
ssg84
(dp416
I0
F0.8682624263930172
sI1
Fnan
sI2
Fnan
sI3
Fnan
sI4
Fnan
sI5
Fnan
sI6
Fnan
sI7
Fnan
sI8
Fnan
sI9
Fnan
sI10
Fnan
sI11
Fnan
sI12
Fnan
sI13
Fnan
sI14
Fnan
ssg86
(dp417
I0
F11.5736
sI1
Fnan
sI2
Fnan
sI3
Fnan
sI4
Fnan
sI5
Fnan
sI6
Fnan
sI7
Fnan
sI8
Fnan
sI9
Fnan
sI10
Fnan
sI11
Fnan
sI12
Fnan
sI13
Fnan
sI14
Fnan
ssg88
(dp418
I0
F11.374
sI1
F11.45
sI2
F11.411
sI3
F11.394
sI4
F11.417
sI5
F11.49
sI6
F11.386
sI7
F11.366
sI8
F11.369
sI9
F11.427
sI10
F11.418
sI11
F11.503
sI12
F11.405
sI13
F11.408
sI14
F11.4
ssg90
(dp419
I0
F2.786011
sI1
F-3.7639
sI2
F-2.695837
sI3
F-3.200428
sI4
F-4.228446
sI5
F4.133115
sI6
F-2.010599
sI7
F2.861704
sI8
F3.199452
sI9
F-2.300491
sI10
F0.6899065
sI11
F4.15186
sI12
F4.375128
sI13
F-2.924218
sI14
F4.971053
ssg92
(dp420
I0
F0.03836789332365325
sI1
Fnan
sI2
Fnan
sI3
Fnan
sI4
Fnan
sI5
Fnan
sI6
Fnan
sI7
Fnan
sI8
Fnan
sI9
Fnan
sI10
Fnan
sI11
Fnan
sI12
Fnan
sI13
Fnan
sI14
Fnan
ssg94
(dp421
I0
F0.7128448102727848
sI1
F0.713233041473817
sI2
F0.7185083852090114
sI3
F0.7188580093784078
sI4
F0.7164541153594253
sI5
F0.7176321488688413
sI6
F0.7186509403339892
sI7
F0.7171339662745332
sI8
F0.7142252438020186
sI9
F0.7135638935972543
sI10
F0.7135363798789287
sI11
F0.7203512270206923
sI12
F0.7099823321023234
sI13
F0.7211955056505792
sI14
F0.7193565987366882
ssg96
(dp422
I0
F30.0
sI1
F30.0
sI2
F30.0
sI3
F30.0
sI4
F30.0
sI5
F30.0
sI6
F30.0
sI7
F30.0
sI8
F30.0
sI9
F30.0
sI10
F30.0
sI11
F30.0
sI12
F30.0
sI13
F30.0
sI14
F30.0
ssg98
(dp423
I0
F0.002
sI1
F0.003
sI2
F0.003
sI3
F0.002
sI4
F0.002
sI5
F0.003
sI6
F0.002
sI7
F0.002
sI8
F0.002
sI9
F0.003
sI10
F0.002
sI11
F0.003
sI12
F0.003
sI13
F0.002
sI14
F0.002
ssg100
(dp424
I0
F0.002
sI1
F0.002
sI2
F0.002
sI3
F0.002
sI4
F0.002
sI5
F0.002
sI6
F0.002
sI7
F0.002
sI8
F0.002
sI9
F0.002
sI10
F0.002
sI11
F0.002
sI12
F0.002
sI13
F0.002
sI14
F0.002
ssg102
(dp425
I0
F2.145336
sI1
F4.544067
sI2
F-1.533659
sI3
F2.119386
sI4
F0.812261
sI5
F3.547243
sI6
F2.654524
sI7
F-1.451906
sI8
F2.895161
sI9
F-3.387521
sI10
F3.714602
sI11
F2.590084
sI12
F2.544809
sI13
F-2.539852
sI14
F3.686387
ssg104
(dp426
I0
S"KIC8462852-20181113at023802_-25-1X1-030-g'_cal.fts.mag.1"
p427
sI1
S"KIC8462852-20181113at023338_-25-1X1-030-g'_cal.fts.mag.1"
p428
sI2
S"KIC8462852-20181113at013250_-25-1X1-030-g'_cal.fts.mag.1"
p429
sI3
S"KIC8462852-20181113at020642_-25-1X1-030-g'_cal.fts.mag.1"
p430
sI4
S"KIC8462852-20181113at020320_-25-1X1-030-g'_cal.fts.mag.1"
p431
sI5
S"KIC8462852-20181113at020538_-25-1X1-030-g'_cal.fts.mag.1"
p432
sI6
S"KIC8462852-20181113at023451_-25-1X1-030-g'_cal.fts.mag.1"
p433
sI7
S"KIC8462852-20181113at023658_-25-1X1-030-g'_cal.fts.mag.1"
p434
sI8
S"KIC8462852-20181113at023554_-25-1X1-030-g'_cal.fts.mag.1"
p435
sI9
S"KIC8462852-20181113at020746_-25-1X1-030-g'_cal.fts.mag.1"
p436
sI10
S"KIC8462852-20181113at013723_-25-1X1-030-g'_cal.fts.mag.1"
p437
sI11
S"KIC8462852-20181113at020434_-25-1X1-030-g'_cal.fts.mag.1"
p438
sI12
S"KIC8462852-20181113at013405_-25-1X1-030-g'_cal.fts.mag.1"
p439
sI13
S"KIC8462852-20181113at013619_-25-1X1-030-g'_cal.fts.mag.1"
p440
sI14
S"KIC8462852-20181113at013515_-25-1X1-030-g'_cal.fts.mag.1"
p441
ssg121
(dp442
I0
F0.004884184976732945
sI1
Fnan
sI2
Fnan
sI3
Fnan
sI4
Fnan
sI5
Fnan
sI6
Fnan
sI7
Fnan
sI8
Fnan
sI9
Fnan
sI10
Fnan
sI11
Fnan
sI12
Fnan
sI13
Fnan
sI14
Fnan
ssg123
(dp443
I0
F6726.4400000000005
sI1
F6224.026666666667
sI2
F6513.796666666666
sI3
F6578.906666666667
sI4
F6450.616666666667
sI5
F6039.55
sI6
F6596.8966666666665
sI7
F6787.679999999999
sI8
F6744.196666666667
sI9
F6416.8966666666665
sI10
F6419.566666666667
sI11
F6002.183333333333
sI12
F6517.41
sI13
F6547.336666666667
sI14
F6548.2
ssg125
(dp444
I0
F0.03848710359142588
sI1
Fnan
sI2
Fnan
sI3
Fnan
sI4
Fnan
sI5
Fnan
sI6
Fnan
sI7
Fnan
sI8
Fnan
sI9
Fnan
sI10
Fnan
sI11
Fnan
sI12
Fnan
sI13
Fnan
sI14
Fnan
ssg127
(dp445
I0
S"g'"
p446
sI1
S"g'"
p447
sI2
S"g'"
p448
sI3
S"g'"
p449
sI4
S"g'"
p450
sI5
S"g'"
p451
sI6
S"g'"
p452
sI7
S"g'"
p453
sI8
S"g'"
p454
sI9
S"g'"
p455
sI10
S"g'"
p456
sI11
S"g'"
p457
sI12
S"g'"
p458
sI13
S"g'"
p459
sI14
S"g'"
p460
ssg144
(dp461
I0
F0.0030325281041665686
sI1
Fnan
sI2
Fnan
sI3
Fnan
sI4
Fnan
sI5
Fnan
sI6
Fnan
sI7
Fnan
sI8
Fnan
sI9
Fnan
sI10
Fnan
sI11
Fnan
sI12
Fnan
sI13
Fnan
sI14
Fnan
ssg146
(dp462
I0
F4.127038
sI1
F-1.763086
sI2
F3.502203
sI3
F2.755426
sI4
F2.091213
sI5
F-4.178045
sI6
F2.599613
sI7
F1.840662
sI8
F3.023334
sI9
F4.184707
sI10
F-1.955707
sI11
F4.005059
sI12
F-3.693145
sI13
F3.529629
sI14
F3.520367
ssg148
(dp463
I0
F1.514462227258728
sI1
Fnan
sI2
Fnan
sI3
Fnan
sI4
Fnan
sI5
Fnan
sI6
Fnan
sI7
Fnan
sI8
Fnan
sI9
Fnan
sI10
Fnan
sI11
Fnan
sI12
Fnan
sI13
Fnan
sI14
Fnan
ssg150
(dp464
I0
F2458435.5872453703
sI1
Fnan
sI2
Fnan
sI3
Fnan
sI4
Fnan
sI5
Fnan
sI6
Fnan
sI7
Fnan
sI8
Fnan
sI9
Fnan
sI10
Fnan
sI11
Fnan
sI12
Fnan
sI13
Fnan
sI14
Fnan
ssg152
(dp465
I0
F0.0030325281041665686
sI1
Fnan
sI2
Fnan
sI3
Fnan
sI4
Fnan
sI5
Fnan
sI6
Fnan
sI7
Fnan
sI8
Fnan
sI9
Fnan
sI10
Fnan
sI11
Fnan
sI12
Fnan
sI13
Fnan
sI14
Fnan
ssg154
(dp466
I0
F1.652716
sI1
F3.077124
sI2
F13.97428
sI3
F2.719286
sI4
F4.447319
sI5
F3.412469
sI6
F1.783258
sI7
F0.5313584
sI8
F0.7105803
sI9
F2.755499
sI10
F9.204106
sI11
F3.620001
sI12
F11.1086
sI13
F9.91153
sI14
F10.66057
ssg156
(dp467
I0
F11.003
sI1
F11.073
sI2
F11.036
sI3
F11.018
sI4
F11.047
sI5
F11.118
sI6
F11.015
sI7
F10.991
sI8
F10.998
sI9
F11.049
sI10
F11.046
sI11
F11.12
sI12
F11.029
sI13
F11.036
sI14
F11.031
ssg158
(dp468
I0
F0.8682624263930172
sI1
Fnan
sI2
Fnan
sI3
Fnan
sI4
Fnan
sI5
Fnan
sI6
Fnan
sI7
Fnan
sI8
Fnan
sI9
Fnan
sI10
Fnan
sI11
Fnan
sI12
Fnan
sI13
Fnan
sI14
Fnan
sssS'V'
p469
(dp470
g3
(dp471
I0
F0.6917712569009881
sI1
Fnan
sI2
Fnan
sI3
Fnan
sI4
Fnan
sI5
Fnan
sI6
Fnan
sI7
Fnan
sI8
Fnan
sI9
Fnan
sI10
Fnan
sI11
Fnan
sI12
Fnan
sI13
Fnan
sI14
Fnan
ssg5
(dp472
I0
S'NoError'
p473
sI1
S'NoError'
p474
sI2
S'NoError'
p475
sI3
S'NoError'
p476
sI4
S'NoError'
p477
sI5
S'NoError'
p478
sI6
S'NoError'
p479
sI7
S'NoError'
p480
sI8
S'NoError'
p481
sI9
S'NoError'
p482
sI10
S'NoError'
p483
sI11
S'NoError'
p484
sI12
S'NoError'
p485
sI13
S'NoError'
p486
sI14
S'NoError'
p487
ssg22
(dp488
I0
F0.002
sI1
F0.002
sI2
F0.002
sI3
F0.002
sI4
F0.002
sI5
F0.002
sI6
F0.002
sI7
F0.002
sI8
F0.002
sI9
F0.002
sI10
F0.002
sI11
F0.002
sI12
F0.002
sI13
F0.002
sI14
F0.002
ssg24
(dp489
I0
F0.8839634781263556
sI1
F0.8851162401350194
sI2
F0.8909113636618342
sI3
F0.8862389716683293
sI4
F0.8802027443548939
sI5
F0.8899767672560024
sI6
F0.8848542221184049
sI7
F0.8804167375376251
sI8
F0.8869085460942098
sI9
F0.8855825321067072
sI10
F0.8862976703534605
sI11
F0.8833326660598928
sI12
F0.88276147549355
sI13
F0.884822175247234
sI14
F0.8778770601849045
ssg26
(dp490
I0
F0.003468293422668839
sI1
Fnan
sI2
Fnan
sI3
Fnan
sI4
Fnan
sI5
Fnan
sI6
Fnan
sI7
Fnan
sI8
Fnan
sI9
Fnan
sI10
Fnan
sI11
Fnan
sI12
Fnan
sI13
Fnan
sI14
Fnan
ssg28
(dp491
I0
F0.8846175100265615
sI1
Fnan
sI2
Fnan
sI3
Fnan
sI4
Fnan
sI5
Fnan
sI6
Fnan
sI7
Fnan
sI8
Fnan
sI9
Fnan
sI10
Fnan
sI11
Fnan
sI12
Fnan
sI13
Fnan
sI14
Fnan
ssg30
(dp492
I0
F11.497
sI1
F11.484
sI2
F11.473
sI3
F11.513
sI4
F11.563
sI5
F11.482
sI6
F11.497
sI7
F11.54
sI8
F11.492
sI9
F11.506
sI10
F11.545
sI11
F11.511
sI12
F11.537
sI13
F11.473
sI14
F11.473
ssg32
(dp493
I0
F3.274299
sI1
F2.702394
sI2
F3.061141
sI3
F3.784568
sI4
F2.69071
sI5
F3.983904
sI6
F2.303013
sI7
F3.59666
sI8
F2.621508
sI9
F1.818401
sI10
F2.625432
sI11
F2.0539
sI12
F1.840368
sI13
F3.839967
sI14
F2.574946
ssg34
(dp494
I0
F2458435.603657407
sI1
F2458435.5811458332
sI2
F2458435.582638889
sI3
F2458435.581886574
sI4
F2458435.624652778
sI5
F2458435.5803935183
sI6
F2458435.601412037
sI7
F2458435.6006712965
sI8
F2458435.602164352
sI9
F2458435.6223958335
sI10
F2458435.623900463
sI11
F2458435.623148148
sI12
F2458435.6216550926
sI13
F2458435.579652778
sI14
F2458435.6029050928
ssg36
(dp495
I0
F1.51835242
sI1
Fnan
sI2
Fnan
sI3
Fnan
sI4
Fnan
sI5
Fnan
sI6
Fnan
sI7
Fnan
sI8
Fnan
sI9
Fnan
sI10
Fnan
sI11
Fnan
sI12
Fnan
sI13
Fnan
sI14
Fnan
ssg38
(dp496
I0
F0.6426064933333334
sI1
Fnan
sI2
Fnan
sI3
Fnan
sI4
Fnan
sI5
Fnan
sI6
Fnan
sI7
Fnan
sI8
Fnan
sI9
Fnan
sI10
Fnan
sI11
Fnan
sI12
Fnan
sI13
Fnan
sI14
Fnan
ssg40
(dp497
I0
F0.6925498651923923
sI1
F0.6937278848518842
sI2
F0.6941058017314624
sI3
F0.6933442879967329
sI4
F0.690701159092447
sI5
F0.6866229531114703
sI6
F0.6930572502255918
sI7
F0.6881929011006427
sI8
F0.6892868466881326
sI9
F0.6941796523548429
sI10
F0.6900133566764758
sI11
F0.6935114408184943
sI12
F0.6880675715874472
sI13
F0.6933070866141732
sI14
F0.690752491683114
ssg42
(dp498
I0
F0.0021241422638788358
sI1
Fnan
sI2
Fnan
sI3
Fnan
sI4
Fnan
sI5
Fnan
sI6
Fnan
sI7
Fnan
sI8
Fnan
sI9
Fnan
sI10
Fnan
sI11
Fnan
sI12
Fnan
sI13
Fnan
sI14
Fnan
ssg44
(dp499
I0
F1.78939592
sI1
Fnan
sI2
Fnan
sI3
Fnan
sI4
Fnan
sI5
Fnan
sI6
Fnan
sI7
Fnan
sI8
Fnan
sI9
Fnan
sI10
Fnan
sI11
Fnan
sI12
Fnan
sI13
Fnan
sI14
Fnan
ssg46
(dp500
I0
g473
sI1
g474
sI2
g475
sI3
g476
sI4
g477
sI5
g478
sI6
g479
sI7
g480
sI8
g481
sI9
g482
sI10
g483
sI11
g484
sI12
g485
sI13
g486
sI14
g487
ssg48
(dp501
I0
F0.003954508281756059
sI1
Fnan
sI2
Fnan
sI3
Fnan
sI4
Fnan
sI5
Fnan
sI6
Fnan
sI7
Fnan
sI8
Fnan
sI9
Fnan
sI10
Fnan
sI11
Fnan
sI12
Fnan
sI13
Fnan
sI14
Fnan
ssg50
(dp502
I0
F0.029221974771117182
sI1
Fnan
sI2
Fnan
sI3
Fnan
sI4
Fnan
sI5
Fnan
sI6
Fnan
sI7
Fnan
sI8
Fnan
sI9
Fnan
sI10
Fnan
sI11
Fnan
sI12
Fnan
sI13
Fnan
sI14
Fnan
ssg52
(dp503
I0
F1.7367505333333328
sI1
Fnan
sI2
Fnan
sI3
Fnan
sI4
Fnan
sI5
Fnan
sI6
Fnan
sI7
Fnan
sI8
Fnan
sI9
Fnan
sI10
Fnan
sI11
Fnan
sI12
Fnan
sI13
Fnan
sI14
Fnan
ssg54
(dp504
I0
F1.5097625300530024
sI1
F1.497153329893541
sI2
F1.5007142526069908
sI3
F1.5075640566243673
sI4
F1.5149186026361123
sI5
F1.5016658025625909
sI6
F1.5096388736888007
sI7
F1.5072850358070555
sI8
F1.50664307201368
sI9
F1.5079939920540906
sI10
F1.5038875940600653
sI11
F1.5012112930715593
sI12
F1.5184234550856166
sI13
F1.4996334662881685
sI14
F1.5004971135010046
ssg56
(dp505
I0
g473
sI1
g474
sI2
g475
sI3
g476
sI4
g477
sI5
g478
sI6
g479
sI7
g480
sI8
g481
sI9
g482
sI10
g483
sI11
g484
sI12
g485
sI13
g486
sI14
g487
ssg58
(dp506
I0
F3.063617
sI1
F4.672614
sI2
F3.854612
sI3
F4.638142
sI4
F3.465931
sI5
F3.9912
sI6
F2.892967
sI7
F3.710102
sI8
F1.812541
sI9
F2.267198
sI10
F3.31333
sI11
F2.804556
sI12
F2.694897
sI13
F3.965215
sI14
F2.158356
ssg60
(dp507
I0
F10.830066666666665
sI1
Fnan
sI2
Fnan
sI3
Fnan
sI4
Fnan
sI5
Fnan
sI6
Fnan
sI7
Fnan
sI8
Fnan
sI9
Fnan
sI10
Fnan
sI11
Fnan
sI12
Fnan
sI13
Fnan
sI14
Fnan
ssg62
(dp508
I0
F0.716726943991702
sI1
Fnan
sI2
Fnan
sI3
Fnan
sI4
Fnan
sI5
Fnan
sI6
Fnan
sI7
Fnan
sI8
Fnan
sI9
Fnan
sI10
Fnan
sI11
Fnan
sI12
Fnan
sI13
Fnan
sI14
Fnan
ssg64
(dp509
I0
F2.636693
sI1
F3.177693
sI2
F1.650487
sI3
F-2.981326
sI4
F1.500508
sI5
F2.051205
sI6
F-2.450531
sI7
F2.514005
sI8
F-3.095923
sI9
F-3.018138
sI10
F3.438169
sI11
F-2.030148
sI12
F3.284459
sI13
F2.129031
sI14
F0.8329134
ssg66
(dp510
I0
F11.195733333333331
sI1
Fnan
sI2
Fnan
sI3
Fnan
sI4
Fnan
sI5
Fnan
sI6
Fnan
sI7
Fnan
sI8
Fnan
sI9
Fnan
sI10
Fnan
sI11
Fnan
sI12
Fnan
sI13
Fnan
sI14
Fnan
ssg68
(dp511
I0
g473
sI1
g474
sI2
g475
sI3
g476
sI4
g477
sI5
g478
sI6
g479
sI7
g480
sI8
g481
sI9
g482
sI10
g483
sI11
g484
sI12
g485
sI13
g486
sI14
g487
ssg70
(dp512
I0
F8400.126666666667
sI1
F8494.156666666668
sI2
F8612.046666666667
sI3
F8280.616666666667
sI4
F7903.16
sI5
F8635.036666666667
sI6
F8396.92
sI7
F8100.71
sI8
F8500.640000000001
sI9
F8321.863333333333
sI10
F8078.706666666667
sI11
F8273.713333333333
sI12
F8139.23
sI13
F8587.833333333334
sI14
F8566.966666666667
ssg72
(dp513
I0
F1.1081530000000002
sI1
F1.062516
sI2
F1.0650700000000002
sI3
F1.063787
sI4
F1.1657030000000002
sI5
F1.0612469999999998
sI6
F1.102903
sI7
F1.101201
sI8
F1.104632
sI9
F1.158721
sI10
F1.1633209999999998
sI11
F1.161008
sI12
F1.156455
sI13
F1.059996
sI14
F1.106396
ssg74
(dp514
I0
F7216.7266666666665
sI1
F7340.133333333333
sI2
F7353.36
sI3
F7096.2733333333335
sI4
F6811.6900000000005
sI5
F7380.266666666666
sI6
F7203.623333333334
sI7
F7012.233333333334
sI8
F7280.713333333333
sI9
F7137.663333333333
sI10
F6938.293333333333
sI11
F7153.326666666666
sI12
F6969.59
sI13
F7413.423333333334
sI14
F7479.0
ssg76
(dp515
I0
F11788.869999999999
sI1
F11853.18
sI2
F11979.756666666666
sI3
F11590.823333333334
sI4
F11145.9
sI5
F12024.816666666668
sI6
F11775.593333333332
sI7
F11389.756666666666
sI8
F11888.433333333332
sI9
F11656.436666666666
sI10
F11291.94
sI11
F11579.623333333333
sI12
F11470.793333333333
sI13
F11998.01
sI14
F12038.463333333335
ssg78
(dp516
I0
F2.571522
sI1
F3.580939
sI2
F3.826142
sI3
F4.243355
sI4
F2.658493
sI5
F3.807517
sI6
F3.127417
sI7
F3.120531
sI8
F2.797023
sI9
F2.468451
sI10
F1.968953
sI11
F2.512583
sI12
F2.132867
sI13
F4.132941
sI14
F1.264191
ssg80
(dp517
I0
F11.354
sI1
F11.336
sI2
F11.334
sI3
F11.372
sI4
F11.417
sI5
F11.33
sI6
F11.356
sI7
F11.385
sI8
F11.345
sI9
F11.366
sI10
F11.397
sI11
F11.364
sI12
F11.392
sI13
F11.325
sI14
F11.315
ssg82
(dp518
I0
F0.002
sI1
F0.002
sI2
F0.002
sI3
F0.002
sI4
F0.002
sI5
F0.002
sI6
F0.002
sI7
F0.002
sI8
F0.002
sI9
F0.002
sI10
F0.002
sI11
F0.002
sI12
F0.002
sI13
F0.002
sI14
F0.002
ssg84
(dp519
I0
F0.6914280366483536
sI1
Fnan
sI2
Fnan
sI3
Fnan
sI4
Fnan
sI5
Fnan
sI6
Fnan
sI7
Fnan
sI8
Fnan
sI9
Fnan
sI10
Fnan
sI11
Fnan
sI12
Fnan
sI13
Fnan
sI14
Fnan
ssg86
(dp520
I0
F11.359199999999998
sI1
Fnan
sI2
Fnan
sI3
Fnan
sI4
Fnan
sI5
Fnan
sI6
Fnan
sI7
Fnan
sI8
Fnan
sI9
Fnan
sI10
Fnan
sI11
Fnan
sI12
Fnan
sI13
Fnan
sI14
Fnan
ssg88
(dp521
I0
F11.189
sI1
F11.177
sI2
F11.162
sI3
F11.205
sI4
F11.255
sI5
F11.159
sI6
F11.19
sI7
F11.229
sI8
F11.176
sI9
F11.199
sI10
F11.232
sI11
F11.206
sI12
F11.224
sI13
F11.165
sI14
F11.168
ssg90
(dp522
I0
F1.208319
sI1
F-4.288807
sI2
F3.041888
sI3
F-2.330994
sI4
F0.9461683
sI5
F3.117553
sI6
F3.147215
sI7
F-1.868477
sI8
F3.599167
sI9
F3.442256
sI10
F3.474915
sI11
F3.915123
sI12
F-2.947818
sI13
F3.402992
sI14
F4.915786
ssg92
(dp523
I0
F0.026277276078300826
sI1
Fnan
sI2
Fnan
sI3
Fnan
sI4
Fnan
sI5
Fnan
sI6
Fnan
sI7
Fnan
sI8
Fnan
sI9
Fnan
sI10
Fnan
sI11
Fnan
sI12
Fnan
sI13
Fnan
sI14
Fnan
ssg94
(dp524
I0
F0.7149168218529598
sI1
F0.7214834504958142
sI2
F0.7142026252840734
sI3
F0.7142183287505417
sI4
F0.7151733471362893
sI5
F0.7144548944845688
sI6
F0.7142018661036124
sI7
F0.7195552013462992
sI8
F0.7141779534855434
sI9
F0.714541610981248
sI10
F0.7163718850205311
sI11
F0.7206170717567039
sI12
F0.7108191440193766
sI13
F0.72024480253663
sI14
F0.7259251566213372
ssg96
(dp525
I0
F30.0
sI1
F30.0
sI2
F30.0
sI3
F30.0
sI4
F30.0
sI5
F30.0
sI6
F30.0
sI7
F30.0
sI8
F30.0
sI9
F30.0
sI10
F30.0
sI11
F30.0
sI12
F30.0
sI13
F30.0
sI14
F30.0
ssg98
(dp526
I0
F0.002
sI1
F0.002
sI2
F0.002
sI3
F0.002
sI4
F0.002
sI5
F0.002
sI6
F0.002
sI7
F0.002
sI8
F0.002
sI9
F0.002
sI10
F0.002
sI11
F0.002
sI12
F0.002
sI13
F0.002
sI14
F0.002
ssg100
(dp527
I0
F0.002
sI1
F0.002
sI2
F0.002
sI3
F0.002
sI4
F0.002
sI5
F0.002
sI6
F0.002
sI7
F0.002
sI8
F0.002
sI9
F0.002
sI10
F0.002
sI11
F0.002
sI12
F0.002
sI13
F0.002
sI14
F0.002
ssg102
(dp528
I0
F3.347862
sI1
F2.772753
sI2
F4.083477
sI3
F2.503478
sI4
F-2.214543
sI5
F3.750296
sI6
F2.111516
sI7
F-3.24653
sI8
F4.234068
sI9
F2.180386
sI10
F2.070628
sI11
F3.124325
sI12
F-2.778143
sI13
F2.645901
sI14
F1.465784
ssg104
(dp529
I0
S'KIC8462852-20181113at022916_-25-1X1-030-V_cal.fts.mag.1'
p530
sI1
S'KIC8462852-20181113at015651_-25-1X1-030-V_cal.fts.mag.1'
p531
sI2
S'KIC8462852-20181113at015900_-25-1X1-030-V_cal.fts.mag.1'
p532
sI3
S'KIC8462852-20181113at015755_-25-1X1-030-V_cal.fts.mag.1'
p533
sI4
S'KIC8462852-20181113at025930_-25-1X1-030-V_cal.fts.mag.1'
p534
sI5
S'KIC8462852-20181113at015546_-25-1X1-030-V_cal.fts.mag.1'
p535
sI6
S'KIC8462852-20181113at022602_-25-1X1-030-V_cal.fts.mag.1'
p536
sI7
S'KIC8462852-20181113at022451_-25-1X1-030-V_cal.fts.mag.1'
p537
sI8
S'KIC8462852-20181113at022706_-25-1X1-030-V_cal.fts.mag.1'
p538
sI9
S'KIC8462852-20181113at025615_-25-1X1-030-V_cal.fts.mag.1'
p539
sI10
S'KIC8462852-20181113at025825_-25-1X1-030-V_cal.fts.mag.1'
p540
sI11
S'KIC8462852-20181113at025720_-25-1X1-030-V_cal.fts.mag.1'
p541
sI12
S'KIC8462852-20181113at025504_-25-1X1-030-V_cal.fts.mag.1'
p542
sI13
S'KIC8462852-20181113at015434_-25-1X1-030-V_cal.fts.mag.1'
p543
sI14
S'KIC8462852-20181113at022811_-25-1X1-030-V_cal.fts.mag.1'
p544
ssg121
(dp545
I0
F0.00593032348413449
sI1
Fnan
sI2
Fnan
sI3
Fnan
sI4
Fnan
sI5
Fnan
sI6
Fnan
sI7
Fnan
sI8
Fnan
sI9
Fnan
sI10
Fnan
sI11
Fnan
sI12
Fnan
sI13
Fnan
sI14
Fnan
ssg123
(dp546
I0
F6326.61
sI1
F6402.5233333333335
sI2
F6465.633333333333
sI3
F6232.636666666667
sI4
F5954.016666666666
sI5
F6417.663333333333
sI6
F6324.41
sI7
F6079.656666666667
sI8
F6357.473333333333
sI9
F6274.45
sI10
F6051.173333333334
sI11
F6243.1433333333325
sI12
F6096.1900000000005
sI13
F6470.696666666667
sI14
F6466.463333333333
ssg125
(dp547
I0
F0.029438070588949993
sI1
Fnan
sI2
Fnan
sI3
Fnan
sI4
Fnan
sI5
Fnan
sI6
Fnan
sI7
Fnan
sI8
Fnan
sI9
Fnan
sI10
Fnan
sI11
Fnan
sI12
Fnan
sI13
Fnan
sI14
Fnan
ssg127
(dp548
I0
g469
sI1
g469
sI2
g469
sI3
g469
sI4
g469
sI5
g469
sI6
g469
sI7
g469
sI8
g469
sI9
g469
sI10
g469
sI11
g469
sI12
g469
sI13
g469
sI14
g469
ssg144
(dp549
I0
F0.0025057897925552094
sI1
Fnan
sI2
Fnan
sI3
Fnan
sI4
Fnan
sI5
Fnan
sI6
Fnan
sI7
Fnan
sI8
Fnan
sI9
Fnan
sI10
Fnan
sI11
Fnan
sI12
Fnan
sI13
Fnan
sI14
Fnan
ssg146
(dp550
I0
F4.523965
sI1
F4.297845
sI2
F1.624731
sI3
F3.161875
sI4
F2.388664
sI5
F2.286375
sI6
F0.8736928
sI7
F-3.305311
sI8
F3.291186
sI9
F3.486819
sI10
F-2.97695
sI11
F3.827491
sI12
F4.391069
sI13
F-2.188545
sI14
F1.158032
ssg148
(dp551
I0
F1.5057994979964433
sI1
Fnan
sI2
Fnan
sI3
Fnan
sI4
Fnan
sI5
Fnan
sI6
Fnan
sI7
Fnan
sI8
Fnan
sI9
Fnan
sI10
Fnan
sI11
Fnan
sI12
Fnan
sI13
Fnan
sI14
Fnan
ssg150
(dp552
I0
F2458435.602164352
sI1
Fnan
sI2
Fnan
sI3
Fnan
sI4
Fnan
sI5
Fnan
sI6
Fnan
sI7
Fnan
sI8
Fnan
sI9
Fnan
sI10
Fnan
sI11
Fnan
sI12
Fnan
sI13
Fnan
sI14
Fnan
ssg152
(dp553
I0
F0.0025057897925552094
sI1
Fnan
sI2
Fnan
sI3
Fnan
sI4
Fnan
sI5
Fnan
sI6
Fnan
sI7
Fnan
sI8
Fnan
sI9
Fnan
sI10
Fnan
sI11
Fnan
sI12
Fnan
sI13
Fnan
sI14
Fnan
ssg154
(dp554
I0
F3.772448
sI1
F5.581783
sI2
F4.976185
sI3
F6.707412
sI4
F3.749737
sI5
F5.40383
sI6
F3.331441
sI7
F4.848443
sI8
F3.797707
sI9
F2.732072
sI10
F5.051623
sI11
F3.76971
sI12
F4.229765
sI13
F5.02566
sI14
F2.463437
ssg156
(dp555
I0
F10.821
sI1
F10.815
sI2
F10.804
sI3
F10.84
sI4
F10.882
sI5
F10.8
sI6
F10.823
sI7
F10.859
sI8
F10.812
sI9
F10.834
sI10
F10.868
sI11
F10.841
sI12
F10.851
sI13
F10.802
sI14
F10.799
ssg158
(dp556
I0
F0.6914280366483536
sI1
Fnan
sI2
Fnan
sI3
Fnan
sI4
Fnan
sI5
Fnan
sI6
Fnan
sI7
Fnan
sI8
Fnan
sI9
Fnan
sI10
Fnan
sI11
Fnan
sI12
Fnan
sI13
Fnan
sI14
Fnan
sss.