(dp0
S'r'
p1
(dp2
S'sigmean'
p3
(dp4
I0
F0.5198817503801342
sI1
Fnan
sI2
Fnan
sI3
Fnan
sI4
Fnan
sI5
Fnan
sI6
Fnan
sI7
Fnan
sI8
Fnan
sI9
Fnan
sI10
Fnan
sI11
Fnan
sI12
Fnan
sI13
Fnan
sI14
Fnan
sI15
Fnan
sI16
Fnan
sI17
Fnan
sI18
Fnan
sI19
Fnan
sI20
Fnan
sI21
Fnan
sI22
Fnan
sI23
Fnan
sI24
Fnan
sI25
Fnan
sI26
Fnan
sI27
Fnan
sI28
Fnan
ssS'ref3flag'
p5
(dp6
I0
S'NoError'
p7
sI1
S'NoError'
p8
sI2
S'NoError'
p9
sI3
S'NoError'
p10
sI4
S'NoError'
p11
sI5
S'NoError'
p12
sI6
S'NoError'
p13
sI7
S'NoError'
p14
sI8
S'NoError'
p15
sI9
S'NoError'
p16
sI10
S'NoError'
p17
sI11
S'NoError'
p18
sI12
S'NoError'
p19
sI13
S'NoError'
p20
sI14
S'NoError'
p21
sI15
S'NoError'
p22
sI16
S'NoError'
p23
sI17
S'NoError'
p24
sI18
S'NoError'
p25
sI19
S'NoError'
p26
sI20
S'NoError'
p27
sI21
S'NoError'
p28
sI22
S'NoError'
p29
sI23
S'NoError'
p30
sI24
S'NoError'
p31
sI25
S'NoError'
p32
sI26
S'NoError'
p33
sI27
S'NoError'
p34
sI28
S'NoError'
p35
ssS'tabbyerr'
p36
(dp37
I0
F0.002
sI1
F0.002
sI2
F0.002
sI3
F0.003
sI4
F0.003
sI5
F0.002
sI6
F0.002
sI7
F0.002
sI8
F0.002
sI9
F0.002
sI10
F0.002
sI11
F0.002
sI12
F0.002
sI13
F0.002
sI14
F0.002
sI15
F0.003
sI16
F0.002
sI17
F0.002
sI18
F0.002
sI19
F0.003
sI20
F0.002
sI21
F0.002
sI22
F0.002
sI23
F0.002
sI24
F0.002
sI25
F0.002
sI26
F0.003
sI27
F0.002
sI28
F0.003
ssS'ref2rel'
p38
(dp39
I0
F0.8929359337859523
sI1
F0.890696614830176
sI2
F0.893695680119341
sI3
F0.8959246764008214
sI4
F0.894625920219629
sI5
F0.895850248809767
sI6
F0.8927581645044416
sI7
F0.8930096904694703
sI8
F0.8906224484375338
sI9
F0.8949700868049087
sI10
F0.8898712916321027
sI11
F0.8887996123205436
sI12
F0.8979525150486442
sI13
F0.8936304046881312
sI14
F0.8926118544009092
sI15
F0.8940254400769492
sI16
F0.890738700921857
sI17
F0.8916979717494533
sI18
F0.8918665908564872
sI19
F0.8908811665135666
sI20
F0.8898441904075284
sI21
F0.8972436493365725
sI22
F0.8947763549935637
sI23
F0.8927678722714003
sI24
F0.8927828223031185
sI25
F0.8956268105612344
sI26
F0.8968174693349947
sI27
F0.8933431914520407
sI28
F0.8949381367647302
ssS'ref2err'
p40
(dp41
I0
F0.0023531305954264184
sI1
Fnan
sI2
Fnan
sI3
Fnan
sI4
Fnan
sI5
Fnan
sI6
Fnan
sI7
Fnan
sI8
Fnan
sI9
Fnan
sI10
Fnan
sI11
Fnan
sI12
Fnan
sI13
Fnan
sI14
Fnan
sI15
Fnan
sI16
Fnan
sI17
Fnan
sI18
Fnan
sI19
Fnan
sI20
Fnan
sI21
Fnan
sI22
Fnan
sI23
Fnan
sI24
Fnan
sI25
Fnan
sI26
Fnan
sI27
Fnan
sI28
Fnan
ssS'ref2mean'
p42
(dp43
I0
F0.8932863968970989
sI1
Fnan
sI2
Fnan
sI3
Fnan
sI4
Fnan
sI5
Fnan
sI6
Fnan
sI7
Fnan
sI8
Fnan
sI9
Fnan
sI10
Fnan
sI11
Fnan
sI12
Fnan
sI13
Fnan
sI14
Fnan
sI15
Fnan
sI16
Fnan
sI17
Fnan
sI18
Fnan
sI19
Fnan
sI20
Fnan
sI21
Fnan
sI22
Fnan
sI23
Fnan
sI24
Fnan
sI25
Fnan
sI26
Fnan
sI27
Fnan
sI28
Fnan
ssS'tabbymag'
p44
(dp45
I0
F11.256
sI1
F11.271
sI2
F11.331
sI3
F11.416
sI4
F11.39
sI5
F11.267
sI6
F11.235
sI7
F11.344
sI8
F11.291
sI9
F11.234
sI10
F11.241
sI11
F11.326
sI12
F11.241
sI13
F11.229
sI14
F11.241
sI15
F11.435
sI16
F11.236
sI17
F11.249
sI18
F11.238
sI19
F11.406
sI20
F11.347
sI21
F11.321
sI22
F11.237
sI23
F11.339
sI24
F11.318
sI25
F11.338
sI26
F11.38
sI27
F11.25
sI28
F11.408
ssS'tabbybkg'
p46
(dp47
I0
F-2.234347
sI1
F0.1790394
sI2
F-0.008739236
sI3
F3.239949
sI4
F1.953499
sI5
F33.42518
sI6
F0.6478334
sI7
F0.1151722
sI8
F-1.166694
sI9
F-0.2344766
sI10
F-1.391167
sI11
F0.3696362
sI12
F23.59126
sI13
F45.16055
sI14
F-1.569214
sI15
F4.251011
sI16
F26.30619
sI17
F-0.3009439
sI18
F0.1246298
sI19
F3.177264
sI20
F0.08898289
sI21
F-0.4215361
sI22
F37.44103
sI23
F1.241114
sI24
F-0.4275116
sI25
F0.08691252
sI26
F1.985476
sI27
F-1.905446
sI28
F1.936428
ssS'JD'
p48
(dp49
I0
F2458204.000983796
sI1
F2458204.001585648
sI2
F2458203.9797337963
sI3
F2458203.9657060187
sI4
F2458203.9669097224
sI5
F2458204.025532407
sI6
F2458204.013275463
sI7
F2458203.9558680556
sI8
F2458203.980335648
sI9
F2458204.014479167
sI10
F2458204.0021875
sI11
F2458203.968113426
sI12
F2458204.0243287035
sI13
F2458204.026736111
sI14
F2458204.0120833335
sI15
F2458203.9663078706
sI16
F2458204.0249305554
sI17
F2458204.0126851853
sI18
F2458204.013877315
sI19
F2458203.977928241
sI20
F2458203.953472222
sI21
F2458203.9552546297
sI22
F2458204.026134259
sI23
F2458203.9785300926
sI24
F2458203.9791435185
sI25
F2458203.9675115743
sI26
F2458203.9540625
sI27
F2458204.0003819442
sI28
F2458203.954664352
ssS'ref3rmsmean'
p50
(dp51
I0
F3.5012216206896545
sI1
Fnan
sI2
Fnan
sI3
Fnan
sI4
Fnan
sI5
Fnan
sI6
Fnan
sI7
Fnan
sI8
Fnan
sI9
Fnan
sI10
Fnan
sI11
Fnan
sI12
Fnan
sI13
Fnan
sI14
Fnan
sI15
Fnan
sI16
Fnan
sI17
Fnan
sI18
Fnan
sI19
Fnan
sI20
Fnan
sI21
Fnan
sI22
Fnan
sI23
Fnan
sI24
Fnan
sI25
Fnan
sI26
Fnan
sI27
Fnan
sI28
Fnan
ssS'ref1rmsmean'
p52
(dp53
I0
F1.653427551724138
sI1
Fnan
sI2
Fnan
sI3
Fnan
sI4
Fnan
sI5
Fnan
sI6
Fnan
sI7
Fnan
sI8
Fnan
sI9
Fnan
sI10
Fnan
sI11
Fnan
sI12
Fnan
sI13
Fnan
sI14
Fnan
sI15
Fnan
sI16
Fnan
sI17
Fnan
sI18
Fnan
sI19
Fnan
sI20
Fnan
sI21
Fnan
sI22
Fnan
sI23
Fnan
sI24
Fnan
sI25
Fnan
sI26
Fnan
sI27
Fnan
sI28
Fnan
ssS'relflux'
p54
(dp55
I0
F0.5240037452683541
sI1
F0.5196429505126088
sI2
F0.5166664938295756
sI3
F0.5183672132151875
sI4
F0.516066367912577
sI5
F0.5221246784782108
sI6
F0.5200456466311933
sI7
F0.5225396970539836
sI8
F0.5207175566699882
sI9
F0.522131655365342
sI10
F0.5207619952614287
sI11
F0.5182764756430716
sI12
F0.523961078209059
sI13
F0.525792301871053
sI14
F0.5236338083489402
sI15
F0.5159446586015066
sI16
F0.5214370888230737
sI17
F0.5219183882510415
sI18
F0.5242593830360357
sI19
F0.51865477624065
sI20
F0.5165934538406591
sI21
F0.5174881501991478
sI22
F0.5257669192989063
sI23
F0.5177519829882037
sI24
F0.5181666470995844
sI25
F0.516957269254558
sI26
F0.5157535553567999
sI27
F0.5230607937927069
sI28
F0.51405045444462
ssS'sigerr'
p56
(dp57
I0
F0.0027641079796355914
sI1
Fnan
sI2
Fnan
sI3
Fnan
sI4
Fnan
sI5
Fnan
sI6
Fnan
sI7
Fnan
sI8
Fnan
sI9
Fnan
sI10
Fnan
sI11
Fnan
sI12
Fnan
sI13
Fnan
sI14
Fnan
sI15
Fnan
sI16
Fnan
sI17
Fnan
sI18
Fnan
sI19
Fnan
sI20
Fnan
sI21
Fnan
sI22
Fnan
sI23
Fnan
sI24
Fnan
sI25
Fnan
sI26
Fnan
sI27
Fnan
sI28
Fnan
ssS'tabbyrmsmean'
p58
(dp59
I0
F1.6712998241379309
sI1
Fnan
sI2
Fnan
sI3
Fnan
sI4
Fnan
sI5
Fnan
sI6
Fnan
sI7
Fnan
sI8
Fnan
sI9
Fnan
sI10
Fnan
sI11
Fnan
sI12
Fnan
sI13
Fnan
sI14
Fnan
sI15
Fnan
sI16
Fnan
sI17
Fnan
sI18
Fnan
sI19
Fnan
sI20
Fnan
sI21
Fnan
sI22
Fnan
sI23
Fnan
sI24
Fnan
sI25
Fnan
sI26
Fnan
sI27
Fnan
sI28
Fnan
ssS'tabbyflag'
p60
(dp61
I0
g7
sI1
g8
sI2
g9
sI3
g10
sI4
g11
sI5
g12
sI6
g13
sI7
g14
sI8
g15
sI9
g16
sI10
g17
sI11
g18
sI12
g19
sI13
g20
sI14
g21
sI15
g22
sI16
g23
sI17
g24
sI18
g25
sI19
g26
sI20
g27
sI21
g28
sI22
g29
sI23
g30
sI24
g31
sI25
g32
sI26
g33
sI27
g34
sI28
g35
ssS'ref1err'
p62
(dp63
I0
F0.0030774853822907963
sI1
Fnan
sI2
Fnan
sI3
Fnan
sI4
Fnan
sI5
Fnan
sI6
Fnan
sI7
Fnan
sI8
Fnan
sI9
Fnan
sI10
Fnan
sI11
Fnan
sI12
Fnan
sI13
Fnan
sI14
Fnan
sI15
Fnan
sI16
Fnan
sI17
Fnan
sI18
Fnan
sI19
Fnan
sI20
Fnan
sI21
Fnan
sI22
Fnan
sI23
Fnan
sI24
Fnan
sI25
Fnan
sI26
Fnan
sI27
Fnan
sI28
Fnan
ssS'ref2magmeanerr'
p64
(dp65
I0
F0.06060426426655655
sI1
Fnan
sI2
Fnan
sI3
Fnan
sI4
Fnan
sI5
Fnan
sI6
Fnan
sI7
Fnan
sI8
Fnan
sI9
Fnan
sI10
Fnan
sI11
Fnan
sI12
Fnan
sI13
Fnan
sI14
Fnan
sI15
Fnan
sI16
Fnan
sI17
Fnan
sI18
Fnan
sI19
Fnan
sI20
Fnan
sI21
Fnan
sI22
Fnan
sI23
Fnan
sI24
Fnan
sI25
Fnan
sI26
Fnan
sI27
Fnan
sI28
Fnan
ssS'ref2rmsmean'
p66
(dp67
I0
F3.1738493793103446
sI1
Fnan
sI2
Fnan
sI3
Fnan
sI4
Fnan
sI5
Fnan
sI6
Fnan
sI7
Fnan
sI8
Fnan
sI9
Fnan
sI10
Fnan
sI11
Fnan
sI12
Fnan
sI13
Fnan
sI14
Fnan
sI15
Fnan
sI16
Fnan
sI17
Fnan
sI18
Fnan
sI19
Fnan
sI20
Fnan
sI21
Fnan
sI22
Fnan
sI23
Fnan
sI24
Fnan
sI25
Fnan
sI26
Fnan
sI27
Fnan
sI28
Fnan
ssS'ref3rel'
p68
(dp69
I0
F1.4979837175918167
sI1
F1.5008765724096442
sI2
F1.5043159309588552
sI3
F1.5098958252674146
sI4
F1.5112318902012185
sI5
F1.497654796143114
sI6
F1.5003669785871647
sI7
F1.5019595022797219
sI8
F1.5100903797958274
sI9
F1.4975187614865857
sI10
F1.501509253309197
sI11
F1.5026307527399523
sI12
F1.4992749514650803
sI13
F1.4954589336296837
sI14
F1.5023014226045956
sI15
F1.5052491267356158
sI16
F1.4996074624473417
sI17
F1.5022499134648666
sI18
F1.498961775721944
sI19
F1.513189092907679
sI20
F1.5038242930786772
sI21
F1.5027737246674737
sI22
F1.4981641165871737
sI23
F1.5046516886171806
sI24
F1.497016651578319
sI25
F1.5017518092584548
sI26
F1.4958221635328701
sI27
F1.4986606287833721
sI28
F1.5036558495867034
ssS'ref1flag'
p70
(dp71
I0
g7
sI1
g8
sI2
g9
sI3
g10
sI4
g11
sI5
g12
sI6
g13
sI7
g14
sI8
g15
sI9
g16
sI10
g17
sI11
g18
sI12
g19
sI13
g20
sI14
g21
sI15
g22
sI16
g23
sI17
g24
sI18
g25
sI19
g26
sI20
g27
sI21
g28
sI22
g29
sI23
g30
sI24
g31
sI25
g32
sI26
g33
sI27
g34
sI28
g35
ssS'ref2bkg'
p72
(dp73
I0
F1.304005
sI1
F0.9423291
sI2
F3.905859
sI3
F8.444929
sI4
F6.627557
sI5
F35.94148
sI6
F0.8091922
sI7
F3.869837
sI8
F2.767734
sI9
F2.207151
sI10
F0.9161451
sI11
F3.312792
sI12
F24.99712
sI13
F46.56745
sI14
F1.991707
sI15
F7.985656
sI16
F29.25111
sI17
F2.115564
sI18
F2.704346
sI19
F8.795445
sI20
F4.163118
sI21
F2.300603
sI22
F40.2544
sI23
F5.227911
sI24
F4.354862
sI25
F3.826824
sI26
F4.019112
sI27
F0.6916093
sI28
F6.675221
ssS'ref3magmean'
p74
(dp75
I0
F10.320413793103448
sI1
Fnan
sI2
Fnan
sI3
Fnan
sI4
Fnan
sI5
Fnan
sI6
Fnan
sI7
Fnan
sI8
Fnan
sI9
Fnan
sI10
Fnan
sI11
Fnan
sI12
Fnan
sI13
Fnan
sI14
Fnan
sI15
Fnan
sI16
Fnan
sI17
Fnan
sI18
Fnan
sI19
Fnan
sI20
Fnan
sI21
Fnan
sI22
Fnan
sI23
Fnan
sI24
Fnan
sI25
Fnan
sI26
Fnan
sI27
Fnan
sI28
Fnan
ssS'ref1mean'
p76
(dp77
I0
F0.711336219131141
sI1
Fnan
sI2
Fnan
sI3
Fnan
sI4
Fnan
sI5
Fnan
sI6
Fnan
sI7
Fnan
sI8
Fnan
sI9
Fnan
sI10
Fnan
sI11
Fnan
sI12
Fnan
sI13
Fnan
sI14
Fnan
sI15
Fnan
sI16
Fnan
sI17
Fnan
sI18
Fnan
sI19
Fnan
sI20
Fnan
sI21
Fnan
sI22
Fnan
sI23
Fnan
sI24
Fnan
sI25
Fnan
sI26
Fnan
sI27
Fnan
sI28
Fnan
ssS'ref1rms'
p78
(dp79
I0
F3.973415
sI1
F1.807032
sI2
F3.250003
sI3
F3.839709
sI4
F3.753779
sI5
F4.916363
sI6
F4.31925
sI7
F-2.349336
sI8
F-1.152388
sI9
F3.599698
sI10
F4.041185
sI11
F-2.691646
sI12
F1.904404
sI13
F1.696406
sI14
F3.082082
sI15
F4.621688
sI16
F-2.843471
sI17
F3.208708
sI18
F-2.303219
sI19
F3.145075
sI20
F4.523863
sI21
F-3.463406
sI22
F-3.150316
sI23
F-2.319767
sI24
F4.081696
sI25
F-2.179576
sI26
F4.633773
sI27
F2.148325
sI28
F3.85607
ssS'ref2magmean'
p80
(dp81
I0
F10.677344827586204
sI1
Fnan
sI2
Fnan
sI3
Fnan
sI4
Fnan
sI5
Fnan
sI6
Fnan
sI7
Fnan
sI8
Fnan
sI9
Fnan
sI10
Fnan
sI11
Fnan
sI12
Fnan
sI13
Fnan
sI14
Fnan
sI15
Fnan
sI16
Fnan
sI17
Fnan
sI18
Fnan
sI19
Fnan
sI20
Fnan
sI21
Fnan
sI22
Fnan
sI23
Fnan
sI24
Fnan
sI25
Fnan
sI26
Fnan
sI27
Fnan
sI28
Fnan
ssS'ref2flag'
p82
(dp83
I0
g7
sI1
g8
sI2
g9
sI3
g10
sI4
g11
sI5
g12
sI6
g13
sI7
g14
sI8
g15
sI9
g16
sI10
g17
sI11
g18
sI12
g19
sI13
g20
sI14
g21
sI15
g22
sI16
g23
sI17
g24
sI18
g25
sI19
g26
sI20
g27
sI21
g28
sI22
g29
sI23
g30
sI24
g31
sI25
g32
sI26
g33
sI27
g34
sI28
g35
ssS'ref2'
p84
(dp85
I0
F13965.468
sI1
F13860.228000000001
sI2
F13223.048
sI3
F12200.36
sI4
F12544.62
sI5
F13899.896
sI6
F14338.796
sI7
F12908.848
sI8
F13580.22
sI9
F14315.0
sI10
F14211.572
sI11
F13194.456
sI12
F14212.796
sI13
F14263.528
sI14
F14154.264
sI15
F12031.072
sI16
F14263.112
sI17
F14096.32
sI18
F14180.108
sI19
F12268.28
sI20
F12994.351999999999
sI21
F13353.688
sI22
F14183.032
sI23
F13088.052
sI24
F13333.124
sI25
F13150.132
sI26
F12693.628
sI27
F14066.648000000001
sI28
F12385.84
ssS'airmass'
p86
(dp87
I0
F1.271795
sI1
F1.269126
sI2
F1.378069
sI3
F1.464872
sI4
F1.4568459999999999
sI5
F1.178002
sI6
F1.221359
sI7
F1.5353450000000002
sI8
F1.374638
sI9
F1.216816
sI10
F1.266471
sI11
F1.4489459999999998
sI12
F1.181972
sI13
F1.1740979999999999
sI14
F1.225929
sI15
F1.460848
sI16
F1.179973
sI17
F1.223633
sI18
F1.219062
sI19
F1.388435
sI20
F1.553862
sI21
F1.539907
sI22
F1.176061
sI23
F1.3849280000000002
sI24
F1.381497
sI25
F1.452891
sI26
F1.549183
sI27
F1.274473
sI28
F1.544545
ssS'ref1'
p88
(dp89
I0
F11903.923999999999
sI1
F11837.591999999999
sI2
F11212.468
sI3
F10270.732
sI4
F10574.908000000001
sI5
F11792.54
sI6
F12207.712
sI7
F10974.768
sI8
F11533.8
sI9
F12163.712
sI10
F12149.808
sI11
F11292.832
sI12
F12003.38
sI13
F12162.864
sI14
F12039.1
sI15
F10190.148000000001
sI16
F12190.408000000001
sI17
F12008.684
sI18
F12101.303999999998
sI19
F10394.992
sI20
F11093.76
sI21
F11266.636
sI22
F12050.66
sI23
F11113.052
sI24
F11374.684
sI25
F11132.192
sI26
F10763.968
sI27
F11976.916000000001
sI28
F10484.904
ssS'ref3'
p90
(dp91
I0
F19375.964
sI1
F19284.628
sI2
F18379.368000000002
sI3
F16964.504
sI4
F17469.484
sI5
F19239.2
sI6
F19914.752
sI7
F17936.112
sI8
F18962.22
sI9
F19826.183999999997
sI10
F19790.928
sI11
F18397.676
sI12
F19652.628
sI13
F19759.792
sI14
F19675.164
sI15
F16724.236
sI16
F19834.948
sI17
F19608.12
sI18
F19697.416
sI19
F17146.908
sI20
F18112.144
sI21
F18499.388
sI22
F19651.188000000002
sI23
F18207.116
sI24
F18494.0
sI25
F18233.012
sI26
F17544.196
sI27
F19515.232
sI28
F17194.863999999998
ssS'ref1bkg'
p92
(dp93
I0
F0.3128851
sI1
F1.910615
sI2
F2.653051
sI3
F6.630484
sI4
F5.495825
sI5
F35.74154
sI6
F0.5158204
sI7
F3.785709
sI8
F1.901461
sI9
F1.062911
sI10
F-0.07823328
sI11
F2.141575
sI12
F25.86476
sI13
F46.79893
sI14
F1.66406
sI15
F6.48649
sI16
F28.13632
sI17
F1.35405
sI18
F1.802351
sI19
F7.383491
sI20
F3.334536
sI21
F1.956704
sI22
F40.13862
sI23
F3.004117
sI24
F1.896978
sI25
F3.606769
sI26
F3.690912
sI27
F0.7251824
sI28
F5.548548
ssS'ref1mag'
p94
(dp95
I0
F10.811
sI1
F10.817
sI2
F10.876
sI3
F10.971
sI4
F10.939
sI5
F10.821
sI6
F10.783
sI7
F10.899
sI8
F10.845
sI9
F10.787
sI10
F10.789
sI11
F10.868
sI12
F10.802
sI13
F10.787
sI14
F10.799
sI15
F10.98
sI16
F10.785
sI17
F10.801
sI18
F10.793
sI19
F10.958
sI20
F10.887
sI21
F10.871
sI22
F10.797
sI23
F10.885
sI24
F10.86
sI25
F10.884
sI26
F10.92
sI27
F10.804
sI28
F10.949
ssS'ref3magerr'
p96
(dp97
I0
F0.001
sI1
F0.001
sI2
F0.001
sI3
F0.002
sI4
F0.002
sI5
F0.001
sI6
F0.001
sI7
F0.001
sI8
F0.001
sI9
F0.001
sI10
F0.001
sI11
F0.001
sI12
F0.001
sI13
F0.001
sI14
F0.001
sI15
F0.002
sI16
F0.001
sI17
F0.001
sI18
F0.001
sI19
F0.002
sI20
F0.001
sI21
F0.001
sI22
F0.001
sI23
F0.001
sI24
F0.001
sI25
F0.001
sI26
F0.002
sI27
F0.001
sI28
F0.002
ssS'tabbymagmean'
p98
(dp99
I0
F11.303965517241378
sI1
Fnan
sI2
Fnan
sI3
Fnan
sI4
Fnan
sI5
Fnan
sI6
Fnan
sI7
Fnan
sI8
Fnan
sI9
Fnan
sI10
Fnan
sI11
Fnan
sI12
Fnan
sI13
Fnan
sI14
Fnan
sI15
Fnan
sI16
Fnan
sI17
Fnan
sI18
Fnan
sI19
Fnan
sI20
Fnan
sI21
Fnan
sI22
Fnan
sI23
Fnan
sI24
Fnan
sI25
Fnan
sI26
Fnan
sI27
Fnan
sI28
Fnan
ssS'ref1magmean'
p100
(dp101
I0
F10.854068965517243
sI1
Fnan
sI2
Fnan
sI3
Fnan
sI4
Fnan
sI5
Fnan
sI6
Fnan
sI7
Fnan
sI8
Fnan
sI9
Fnan
sI10
Fnan
sI11
Fnan
sI12
Fnan
sI13
Fnan
sI14
Fnan
sI15
Fnan
sI16
Fnan
sI17
Fnan
sI18
Fnan
sI19
Fnan
sI20
Fnan
sI21
Fnan
sI22
Fnan
sI23
Fnan
sI24
Fnan
sI25
Fnan
sI26
Fnan
sI27
Fnan
sI28
Fnan
ssS'ref2mag'
p102
(dp103
I0
F10.637
sI1
F10.646
sI2
F10.697
sI3
F10.784
sI4
F10.754
sI5
F10.642
sI6
F10.609
sI7
F10.723
sI8
F10.668
sI9
F10.611
sI10
F10.618
sI11
F10.699
sI12
F10.618
sI13
F10.614
sI14
F10.623
sI15
F10.799
sI16
F10.614
sI17
F10.627
sI18
F10.621
sI19
F10.778
sI20
F10.716
sI21
F10.686
sI22
F10.621
sI23
F10.708
sI24
F10.688
sI25
F10.703
sI26
F10.741
sI27
F10.63
sI28
F10.768
ssS'ref3rms'
p104
(dp105
I0
F3.403378
sI1
F3.649458
sI2
F2.31942
sI3
F6.13515
sI4
F5.26839
sI5
F5.34498
sI6
F3.948405
sI7
F4.673257
sI8
F5.124262
sI9
F3.219523
sI10
F2.826838
sI11
F3.094942
sI12
F3.419189
sI13
F5.933745
sI14
F2.812418
sI15
F7.031308
sI16
F-4.380895
sI17
F-3.234704
sI18
F4.427641
sI19
F5.455147
sI20
F3.690479
sI21
F3.318017
sI22
F4.33134
sI23
F4.540326
sI24
F5.005139
sI25
F1.703577
sI26
F5.958024
sI27
F-3.993986
sI28
F6.510659
ssS'ref3magmeanerr'
p106
(dp107
I0
F0.059782652310192724
sI1
Fnan
sI2
Fnan
sI3
Fnan
sI4
Fnan
sI5
Fnan
sI6
Fnan
sI7
Fnan
sI8
Fnan
sI9
Fnan
sI10
Fnan
sI11
Fnan
sI12
Fnan
sI13
Fnan
sI14
Fnan
sI15
Fnan
sI16
Fnan
sI17
Fnan
sI18
Fnan
sI19
Fnan
sI20
Fnan
sI21
Fnan
sI22
Fnan
sI23
Fnan
sI24
Fnan
sI25
Fnan
sI26
Fnan
sI27
Fnan
sI28
Fnan
ssS'ref1rel'
p108
(dp109
I0
F0.7140619515082615
sI1
F0.714294368936163
sI2
F0.7095956207905116
sI3
F0.7043222968569303
sI4
F0.7046625812984456
sI5
F0.7116995587326823
sI6
F0.7127852565813035
sI7
F0.7116085091373112
sI8
F0.7088466630037574
sI9
F0.7125536126690862
sI10
F0.7146420410263952
sI11
F0.7149142071196715
sI12
F0.7088870347526137
sI13
F0.7149722014194969
sI14
F0.7117530926032802
sI15
F0.7087490073137106
sI16
F0.7150206199414278
sI17
F0.7125876590739972
sI18
F0.7144149023405605
sI19
F0.7067771927889769
sI20
F0.7132760951281688
sI21
F0.7074127472021854
sI22
F0.7123356176084449
sI23
F0.7102088092321472
sI24
F0.7147792555808686
sI25
F0.7094376522632658
sI26
F0.711953876046107
sI27
F0.7132963371913663
sI28
F0.7089015866559498
ssS'exposure'
p110
(dp111
I0
F25.0
sI1
F25.0
sI2
F25.0
sI3
F25.0
sI4
F25.0
sI5
F25.0
sI6
F25.0
sI7
F25.0
sI8
F25.0
sI9
F25.0
sI10
F25.0
sI11
F25.0
sI12
F25.0
sI13
F25.0
sI14
F25.0
sI15
F25.0
sI16
F25.0
sI17
F25.0
sI18
F25.0
sI19
F25.0
sI20
F25.0
sI21
F25.0
sI22
F25.0
sI23
F25.0
sI24
F25.0
sI25
F25.0
sI26
F25.0
sI27
F25.0
sI28
F25.0
ssS'ref1magerr'
p112
(dp113
I0
F0.002
sI1
F0.002
sI2
F0.002
sI3
F0.002
sI4
F0.002
sI5
F0.002
sI6
F0.002
sI7
F0.002
sI8
F0.002
sI9
F0.002
sI10
F0.002
sI11
F0.002
sI12
F0.002
sI13
F0.002
sI14
F0.002
sI15
F0.002
sI16
F0.002
sI17
F0.002
sI18
F0.002
sI19
F0.002
sI20
F0.002
sI21
F0.002
sI22
F0.002
sI23
F0.002
sI24
F0.002
sI25
F0.002
sI26
F0.002
sI27
F0.002
sI28
F0.002
ssS'ref2magerr'
p114
(dp115
I0
F0.002
sI1
F0.002
sI2
F0.002
sI3
F0.002
sI4
F0.002
sI5
F0.002
sI6
F0.002
sI7
F0.002
sI8
F0.002
sI9
F0.002
sI10
F0.002
sI11
F0.002
sI12
F0.002
sI13
F0.002
sI14
F0.002
sI15
F0.002
sI16
F0.002
sI17
F0.002
sI18
F0.002
sI19
F0.002
sI20
F0.002
sI21
F0.002
sI22
F0.002
sI23
F0.002
sI24
F0.002
sI25
F0.002
sI26
F0.002
sI27
F0.002
sI28
F0.002
ssS'ref2rms'
p116
(dp117
I0
F3.311959
sI1
F4.729226
sI2
F2.489364
sI3
F3.971943
sI4
F5.261781
sI5
F3.991538
sI6
F4.836302
sI7
F4.463291
sI8
F2.506705
sI9
F3.196144
sI10
F2.989652
sI11
F3.241092
sI12
F4.507396
sI13
F-2.741857
sI14
F4.269885
sI15
F4.619181
sI16
F5.047721
sI17
F4.036376
sI18
F2.530261
sI19
F3.908283
sI20
F2.650848
sI21
F3.792229
sI22
F6.122412
sI23
F-2.222156
sI24
F-4.351766
sI25
F1.971133
sI26
F5.21796
sI27
F3.20474
sI28
F4.489989
ssS'name'
p118
(dp119
I0
S"KIC8462852-20180326at120125_-35-1-025-r'_cal.fts.mag.1"
p120
sI1
S"KIC8462852-20180326at120217_-35-1-025-r'_cal.fts.mag.1"
p121
sI2
S"KIC8462852-20180326at113049_-35-1-025-r'_cal.fts.mag.1"
p122
sI3
S"KIC8462852-20180326at111035_-35-1-025-r'_cal.fts.mag.1"
p123
sI4
S"KIC8462852-20180326at111221_-35-1-025-r'_cal.fts.mag.1"
p124
sI5
S"KIC8462852-20180326at123646_-35-1-025-r'_cal.fts.mag.1"
p125
sI6
S"KIC8462852-20180326at121907_-35-1-025-r'_cal.fts.mag.1"
p126
sI7
S"KIC8462852-20180326at105627_-35-1-025-r'_cal.fts.mag.1"
p127
sI8
S"KIC8462852-20180326at113141_-35-1-025-r'_cal.fts.mag.1"
p128
sI9
S"KIC8462852-20180326at122051_-35-1-025-r'_cal.fts.mag.1"
p129
sI10
S"KIC8462852-20180326at120309_-35-1-025-r'_cal.fts.mag.1"
p130
sI11
S"KIC8462852-20180326at111405_-35-1-025-r'_cal.fts.mag.1"
p131
sI12
S"KIC8462852-20180326at123501_-35-1-025-r'_cal.fts.mag.1"
p132
sI13
S"KIC8462852-20180326at123829_-35-1-025-r'_cal.fts.mag.1"
p133
sI14
S"KIC8462852-20180326at121723_-35-1-025-r'_cal.fts.mag.1"
p134
sI15
S"KIC8462852-20180326at111129_-35-1-025-r'_cal.fts.mag.1"
p135
sI16
S"KIC8462852-20180326at123554_-35-1-025-r'_cal.fts.mag.1"
p136
sI17
S"KIC8462852-20180326at121816_-35-1-025-r'_cal.fts.mag.1"
p137
sI18
S"KIC8462852-20180326at121959_-35-1-025-r'_cal.fts.mag.1"
p138
sI19
S"KIC8462852-20180326at112811_-35-1-025-r'_cal.fts.mag.1"
p139
sI20
S"KIC8462852-20180326at105300_-35-1-025-r'_cal.fts.mag.1"
p140
sI21
S"KIC8462852-20180326at105534_-35-1-025-r'_cal.fts.mag.1"
p141
sI22
S"KIC8462852-20180326at123738_-35-1-025-r'_cal.fts.mag.1"
p142
sI23
S"KIC8462852-20180326at112905_-35-1-025-r'_cal.fts.mag.1"
p143
sI24
S"KIC8462852-20180326at112958_-35-1-025-r'_cal.fts.mag.1"
p144
sI25
S"KIC8462852-20180326at111313_-35-1-025-r'_cal.fts.mag.1"
p145
sI26
S"KIC8462852-20180326at105351_-35-1-025-r'_cal.fts.mag.1"
p146
sI27
S"KIC8462852-20180326at120033_-35-1-025-r'_cal.fts.mag.1"
p147
sI28
S"KIC8462852-20180326at105443_-35-1-025-r'_cal.fts.mag.1"
p148
ssS'ref3err'
p149
(dp150
I0
F0.00455810101231604
sI1
Fnan
sI2
Fnan
sI3
Fnan
sI4
Fnan
sI5
Fnan
sI6
Fnan
sI7
Fnan
sI8
Fnan
sI9
Fnan
sI10
Fnan
sI11
Fnan
sI12
Fnan
sI13
Fnan
sI14
Fnan
sI15
Fnan
sI16
Fnan
sI17
Fnan
sI18
Fnan
sI19
Fnan
sI20
Fnan
sI21
Fnan
sI22
Fnan
sI23
Fnan
sI24
Fnan
sI25
Fnan
sI26
Fnan
sI27
Fnan
sI28
Fnan
ssS'tabby'
p151
(dp152
I0
F7902.911999999999
sI1
F7791.604
sI2
F7373.672
sI3
F6814.04
sI4
F6982.2080000000005
sI5
F7819.972
sI6
F8053.991999999999
sI7
F7284.156
sI8
F7650.424
sI9
F8059.084
sI10
F8011.456
sI11
F7408.755999999999
sI12
F8011.156
sI13
F8094.78
sI14
F8006.104
sI15
F6697.9
sI16
F8045.508000000001
sI17
F7952.84
sI18
F8034.944
sI19
F6882.58
sI20
F7266.7919999999995
sI21
F7437.98
sI22
F8041.584
sI23
F7318.98
sI24
F7461.911999999999
sI25
F7326.204000000001
sI26
F7048.94
sI27
F7943.34
sI28
F6865.2480000000005
ssS'ref1magmeanerr'
p153
(dp154
I0
F0.06334933252240693
sI1
Fnan
sI2
Fnan
sI3
Fnan
sI4
Fnan
sI5
Fnan
sI6
Fnan
sI7
Fnan
sI8
Fnan
sI9
Fnan
sI10
Fnan
sI11
Fnan
sI12
Fnan
sI13
Fnan
sI14
Fnan
sI15
Fnan
sI16
Fnan
sI17
Fnan
sI18
Fnan
sI19
Fnan
sI20
Fnan
sI21
Fnan
sI22
Fnan
sI23
Fnan
sI24
Fnan
sI25
Fnan
sI26
Fnan
sI27
Fnan
sI28
Fnan
ssS'filter'
p155
(dp156
I0
S"r'"
p157
sI1
S"r'"
p158
sI2
S"r'"
p159
sI3
S"r'"
p160
sI4
S"r'"
p161
sI5
S"r'"
p162
sI6
S"r'"
p163
sI7
S"r'"
p164
sI8
S"r'"
p165
sI9
S"r'"
p166
sI10
S"r'"
p167
sI11
S"r'"
p168
sI12
S"r'"
p169
sI13
S"r'"
p170
sI14
S"r'"
p171
sI15
S"r'"
p172
sI16
S"r'"
p173
sI17
S"r'"
p174
sI18
S"r'"
p175
sI19
S"r'"
p176
sI20
S"r'"
p177
sI21
S"r'"
p178
sI22
S"r'"
p179
sI23
S"r'"
p180
sI24
S"r'"
p181
sI25
S"r'"
p182
sI26
S"r'"
p183
sI27
S"r'"
p184
sI28
S"r'"
p185
ssS'tabbymagerr'
p186
(dp187
I0
F0.06632144813526494
sI1
Fnan
sI2
Fnan
sI3
Fnan
sI4
Fnan
sI5
Fnan
sI6
Fnan
sI7
Fnan
sI8
Fnan
sI9
Fnan
sI10
Fnan
sI11
Fnan
sI12
Fnan
sI13
Fnan
sI14
Fnan
sI15
Fnan
sI16
Fnan
sI17
Fnan
sI18
Fnan
sI19
Fnan
sI20
Fnan
sI21
Fnan
sI22
Fnan
sI23
Fnan
sI24
Fnan
sI25
Fnan
sI26
Fnan
sI27
Fnan
sI28
Fnan
ssS'tabbyrms'
p188
(dp189
I0
F4.06383
sI1
F2.095514
sI2
F3.335051
sI3
F3.412457
sI4
F2.540346
sI5
F3.893854
sI6
F-1.340811
sI7
F4.485063
sI8
F3.584874
sI9
F3.49895
sI10
F-3.802368
sI11
F-2.675197
sI12
F-2.681628
sI13
F-3.093888
sI14
F4.030187
sI15
F-3.447369
sI16
F3.378112
sI17
F1.178626
sI18
F3.700254
sI19
F3.573096
sI20
F4.06822
sI21
F3.490058
sI22
F-1.466724
sI23
F2.97971
sI24
F4.056605
sI25
F-1.217682
sI26
F2.945937
sI27
F0.6735949
sI28
F3.209023
ssS'ref3mean'
p190
(dp191
I0
F1.5020223436357774
sI1
Fnan
sI2
Fnan
sI3
Fnan
sI4
Fnan
sI5
Fnan
sI6
Fnan
sI7
Fnan
sI8
Fnan
sI9
Fnan
sI10
Fnan
sI11
Fnan
sI12
Fnan
sI13
Fnan
sI14
Fnan
sI15
Fnan
sI16
Fnan
sI17
Fnan
sI18
Fnan
sI19
Fnan
sI20
Fnan
sI21
Fnan
sI22
Fnan
sI23
Fnan
sI24
Fnan
sI25
Fnan
sI26
Fnan
sI27
Fnan
sI28
Fnan
ssS'median_JD'
p192
(dp193
I0
F2458203.980335648
sI1
Fnan
sI2
Fnan
sI3
Fnan
sI4
Fnan
sI5
Fnan
sI6
Fnan
sI7
Fnan
sI8
Fnan
sI9
Fnan
sI10
Fnan
sI11
Fnan
sI12
Fnan
sI13
Fnan
sI14
Fnan
sI15
Fnan
sI16
Fnan
sI17
Fnan
sI18
Fnan
sI19
Fnan
sI20
Fnan
sI21
Fnan
sI22
Fnan
sI23
Fnan
sI24
Fnan
sI25
Fnan
sI26
Fnan
sI27
Fnan
sI28
Fnan
ssS'error'
p194
(dp195
I0
F0.003278690714141483
sI1
Fnan
sI2
Fnan
sI3
Fnan
sI4
Fnan
sI5
Fnan
sI6
Fnan
sI7
Fnan
sI8
Fnan
sI9
Fnan
sI10
Fnan
sI11
Fnan
sI12
Fnan
sI13
Fnan
sI14
Fnan
sI15
Fnan
sI16
Fnan
sI17
Fnan
sI18
Fnan
sI19
Fnan
sI20
Fnan
sI21
Fnan
sI22
Fnan
sI23
Fnan
sI24
Fnan
sI25
Fnan
sI26
Fnan
sI27
Fnan
sI28
Fnan
ssS'ref3bkg'
p196
(dp197
I0
F3.463828
sI1
F4.663273
sI2
F7.504202
sI3
F13.26457
sI4
F9.988104
sI5
F40.06264
sI6
F2.979853
sI7
F7.669722
sI8
F5.191053
sI9
F4.976017
sI10
F3.411252
sI11
F7.304402
sI12
F28.47517
sI13
F49.34449
sI14
F3.968261
sI15
F13.09459
sI16
F32.30715
sI17
F4.385758
sI18
F4.903837
sI19
F13.39456
sI20
F6.829295
sI21
F5.759306
sI22
F43.54119
sI23
F7.771818
sI24
F5.281152
sI25
F7.310579
sI26
F8.08824
sI27
F4.678101
sI28
F11.39783
ssS'ref3mag'
p198
(dp199
I0
F10.282
sI1
F10.287
sI2
F10.339
sI3
F10.426
sI4
F10.394
sI5
F10.29
sI6
F10.252
sI7
F10.366
sI8
F10.305
sI9
F10.257
sI10
F10.259
sI11
F10.338
sI12
F10.266
sI13
F10.261
sI14
F10.265
sI15
F10.442
sI16
F10.256
sI17
F10.269
sI18
F10.264
sI19
F10.415
sI20
F10.355
sI21
F10.332
sI22
F10.267
sI23
F10.349
sI24
F10.332
sI25
F10.348
sI26
F10.39
sI27
F10.274
sI28
F10.412
ssS'mean'
p200
(dp201
I0
F0.5200874201895885
sI1
Fnan
sI2
Fnan
sI3
Fnan
sI4
Fnan
sI5
Fnan
sI6
Fnan
sI7
Fnan
sI8
Fnan
sI9
Fnan
sI10
Fnan
sI11
Fnan
sI12
Fnan
sI13
Fnan
sI14
Fnan
sI15
Fnan
sI16
Fnan
sI17
Fnan
sI18
Fnan
sI19
Fnan
sI20
Fnan
sI21
Fnan
sI22
Fnan
sI23
Fnan
sI24
Fnan
sI25
Fnan
sI26
Fnan
sI27
Fnan
sI28
Fnan
sssS'z'
p202
(dp203
g3
(dp204
I0
F0.3585051757220245
sI1
Fnan
sI2
Fnan
sI3
Fnan
sI4
Fnan
sI5
Fnan
sI6
Fnan
sI7
Fnan
sI8
Fnan
sI9
Fnan
sI10
Fnan
sI11
Fnan
sI12
Fnan
sI13
Fnan
sI14
Fnan
sI15
Fnan
sI16
Fnan
sI17
Fnan
sI18
Fnan
sI19
Fnan
sI20
Fnan
sI21
Fnan
sI22
Fnan
sI23
Fnan
sI24
Fnan
sI25
Fnan
sI26
Fnan
sI27
Fnan
sI28
Fnan
sI29
Fnan
ssg5
(dp205
I0
S'NoError'
p206
sI1
S'NoError'
p207
sI2
S'NoError'
p208
sI3
S'NoError'
p209
sI4
S'NoError'
p210
sI5
S'NoError'
p211
sI6
S'NoError'
p212
sI7
S'NoError'
p213
sI8
S'NoError'
p214
sI9
S'NoError'
p215
sI10
S'NoError'
p216
sI11
S'NoError'
p217
sI12
S'NoError'
p218
sI13
S'NoError'
p219
sI14
S'NoError'
p220
sI15
S'NoError'
p221
sI16
S'NoError'
p222
sI17
S'NoError'
p223
sI18
S'NoError'
p224
sI19
S'NoError'
p225
sI20
S'NoError'
p226
sI21
S'NoError'
p227
sI22
S'NoError'
p228
sI23
S'NoError'
p229
sI24
S'NoError'
p230
sI25
S'NoError'
p231
sI26
S'NoError'
p232
sI27
S'NoError'
p233
sI28
S'NoError'
p234
sI29
S'NoError'
p235
ssg36
(dp236
I0
F0.009
sI1
F0.008
sI2
F0.008
sI3
F0.008
sI4
F0.009
sI5
F0.008
sI6
F0.008
sI7
F0.009
sI8
F0.008
sI9
F0.009
sI10
F0.009
sI11
F0.008
sI12
F0.008
sI13
F0.008
sI14
F0.009
sI15
F0.008
sI16
F0.008
sI17
F0.008
sI18
F0.008
sI19
F0.009
sI20
F0.009
sI21
F0.008
sI22
F0.008
sI23
F0.009
sI24
F0.008
sI25
F0.008
sI26
F0.009
sI27
F0.008
sI28
F0.009
sI29
F0.009
ssg38
(dp237
I0
F0.9112856669361638
sI1
F0.9159141716503667
sI2
F0.9136232619027059
sI3
F0.915938967422517
sI4
F0.9021610979585094
sI5
F0.9088113069450747
sI6
F0.9151207398623173
sI7
F0.9103619664534386
sI8
F0.9161983326662624
sI9
F0.9177681782518252
sI10
F0.9119027677397797
sI11
F0.912320337870986
sI12
F0.9209750065716548
sI13
F0.9097405786480075
sI14
F0.9165825969071029
sI15
F0.9152685720219698
sI16
F0.904979136611227
sI17
F0.9174892859522746
sI18
F0.9103029741441885
sI19
F0.9141315058581775
sI20
F0.9193908709427316
sI21
F0.9212670831536831
sI22
F0.9189850640511663
sI23
F0.9131734640941882
sI24
F0.9170990365350817
sI25
F0.9110623807210781
sI26
F0.9057656893111073
sI27
F0.9197397373567978
sI28
F0.9051785022046124
sI29
F0.9153553602951144
ssg40
(dp238
I0
F0.004934835596412352
sI1
Fnan
sI2
Fnan
sI3
Fnan
sI4
Fnan
sI5
Fnan
sI6
Fnan
sI7
Fnan
sI8
Fnan
sI9
Fnan
sI10
Fnan
sI11
Fnan
sI12
Fnan
sI13
Fnan
sI14
Fnan
sI15
Fnan
sI16
Fnan
sI17
Fnan
sI18
Fnan
sI19
Fnan
sI20
Fnan
sI21
Fnan
sI22
Fnan
sI23
Fnan
sI24
Fnan
sI25
Fnan
sI26
Fnan
sI27
Fnan
sI28
Fnan
sI29
Fnan
ssg42
(dp239
I0
F0.9135964547013369
sI1
Fnan
sI2
Fnan
sI3
Fnan
sI4
Fnan
sI5
Fnan
sI6
Fnan
sI7
Fnan
sI8
Fnan
sI9
Fnan
sI10
Fnan
sI11
Fnan
sI12
Fnan
sI13
Fnan
sI14
Fnan
sI15
Fnan
sI16
Fnan
sI17
Fnan
sI18
Fnan
sI19
Fnan
sI20
Fnan
sI21
Fnan
sI22
Fnan
sI23
Fnan
sI24
Fnan
sI25
Fnan
sI26
Fnan
sI27
Fnan
sI28
Fnan
sI29
Fnan
ssg44
(dp240
I0
F13.483
sI1
F13.302
sI2
F13.295
sI3
F13.319
sI4
F13.413
sI5
F13.304
sI6
F13.369
sI7
F13.292
sI8
F13.309
sI9
F13.366
sI10
F13.372
sI11
F13.311
sI12
F13.297
sI13
F13.353
sI14
F13.292
sI15
F13.37
sI16
F13.296
sI17
F13.319
sI18
F13.374
sI19
F13.442
sI20
F13.414
sI21
F13.319
sI22
F13.337
sI23
F13.402
sI24
F13.364
sI25
F13.31
sI26
F13.415
sI27
F13.32
sI28
F13.374
sI29
F13.346
ssg46
(dp241
I0
F-3.614152
sI1
F-5.712349
sI2
F-6.863157
sI3
F7.385807
sI4
F-4.133409
sI5
F-6.698908
sI6
F-5.282259
sI7
F18.50728
sI8
F-6.992682
sI9
F-4.426377
sI10
F-6.264008
sI11
F-6.412151
sI12
F-6.974612
sI13
F-4.835042
sI14
F14.0497
sI15
F-6.133856
sI16
F10.87793
sI17
F-7.098096
sI18
F-5.378337
sI19
F-3.676041
sI20
F-4.922109
sI21
F-5.577114
sI22
F-6.342509
sI23
F-4.98216
sI24
F-5.194527
sI25
F5.027953
sI26
F-3.988094
sI27
F-6.677189
sI28
F-4.862487
sI29
F-7.131415
ssg48
(dp242
I0
F2458203.958298611
sI1
F2458203.983391204
sI2
F2458204.0157060185
sI3
F2458204.027974537
sI4
F2458203.96875
sI5
F2458204.0151041667
sI6
F2458203.982789352
sI7
F2458204.0298032407
sI8
F2458204.0034375
sI9
F2458203.9570949073
sI10
F2458203.980983796
sI11
F2458204.0052546295
sI12
F2458204.004039352
sI13
F2458203.969328704
sI14
F2458204.029189815
sI15
F2458204.0163078704
sI16
F2458204.028587963
sI17
F2458204.017523148
sI18
F2458203.9564930554
sI19
F2458203.958900463
sI20
F2458203.9711342594
sI21
F2458204.002824074
sI22
F2458204.0169212963
sI23
F2458203.9705324075
sI24
F2458203.9699305557
sI25
F2458204.0273726853
sI26
F2458203.957696759
sI27
F2458204.0046412037
sI28
F2458203.9821875
sI29
F2458203.9815856484
ssg50
(dp243
I0
F1.8095490333333333
sI1
Fnan
sI2
Fnan
sI3
Fnan
sI4
Fnan
sI5
Fnan
sI6
Fnan
sI7
Fnan
sI8
Fnan
sI9
Fnan
sI10
Fnan
sI11
Fnan
sI12
Fnan
sI13
Fnan
sI14
Fnan
sI15
Fnan
sI16
Fnan
sI17
Fnan
sI18
Fnan
sI19
Fnan
sI20
Fnan
sI21
Fnan
sI22
Fnan
sI23
Fnan
sI24
Fnan
sI25
Fnan
sI26
Fnan
sI27
Fnan
sI28
Fnan
sI29
Fnan
ssg52
(dp244
I0
F1.0563424466666664
sI1
Fnan
sI2
Fnan
sI3
Fnan
sI4
Fnan
sI5
Fnan
sI6
Fnan
sI7
Fnan
sI8
Fnan
sI9
Fnan
sI10
Fnan
sI11
Fnan
sI12
Fnan
sI13
Fnan
sI14
Fnan
sI15
Fnan
sI16
Fnan
sI17
Fnan
sI18
Fnan
sI19
Fnan
sI20
Fnan
sI21
Fnan
sI22
Fnan
sI23
Fnan
sI24
Fnan
sI25
Fnan
sI26
Fnan
sI27
Fnan
sI28
Fnan
sI29
Fnan
ssg54
(dp245
I0
F0.3553592877881215
sI1
F0.3620472689342619
sI2
F0.36599305334239207
sI3
F0.36001258014501203
sI4
F0.35430040526351936
sI5
F0.36258793932923133
sI6
F0.3501012460630725
sI7
F0.3603882674829415
sI8
F0.3576091420054161
sI9
F0.3531967115809564
sI10
F0.35537869792274845
sI11
F0.3598985938506922
sI12
F0.3575554469026344
sI13
F0.3591277719646376
sI14
F0.3629572225815103
sI15
F0.35357603842349095
sI16
F0.36114431974047234
sI17
F0.3621492143305634
sI18
F0.35747630283768217
sI19
F0.3569378918955055
sI20
F0.3520774538578001
sI21
F0.35849833321766883
sI22
F0.3569478723917861
sI23
F0.3572035721758168
sI24
F0.3594680541308969
sI25
F0.35929055126173537
sI26
F0.35826887036245486
sI27
F0.35854126172587497
sI28
F0.35217309339206865
sI29
F0.36121295052700403
ssg56
(dp246
I0
F0.002671270718180611
sI1
Fnan
sI2
Fnan
sI3
Fnan
sI4
Fnan
sI5
Fnan
sI6
Fnan
sI7
Fnan
sI8
Fnan
sI9
Fnan
sI10
Fnan
sI11
Fnan
sI12
Fnan
sI13
Fnan
sI14
Fnan
sI15
Fnan
sI16
Fnan
sI17
Fnan
sI18
Fnan
sI19
Fnan
sI20
Fnan
sI21
Fnan
sI22
Fnan
sI23
Fnan
sI24
Fnan
sI25
Fnan
sI26
Fnan
sI27
Fnan
sI28
Fnan
sI29
Fnan
ssg58
(dp247
I0
F1.0779372566666667
sI1
Fnan
sI2
Fnan
sI3
Fnan
sI4
Fnan
sI5
Fnan
sI6
Fnan
sI7
Fnan
sI8
Fnan
sI9
Fnan
sI10
Fnan
sI11
Fnan
sI12
Fnan
sI13
Fnan
sI14
Fnan
sI15
Fnan
sI16
Fnan
sI17
Fnan
sI18
Fnan
sI19
Fnan
sI20
Fnan
sI21
Fnan
sI22
Fnan
sI23
Fnan
sI24
Fnan
sI25
Fnan
sI26
Fnan
sI27
Fnan
sI28
Fnan
sI29
Fnan
ssg60
(dp248
I0
g206
sI1
g207
sI2
g208
sI3
g209
sI4
g210
sI5
g211
sI6
g212
sI7
g213
sI8
g214
sI9
g215
sI10
g216
sI11
g217
sI12
g218
sI13
g219
sI14
g220
sI15
g221
sI16
g222
sI17
g223
sI18
g224
sI19
g225
sI20
g226
sI21
g227
sI22
g228
sI23
g229
sI24
g230
sI25
g231
sI26
g232
sI27
g233
sI28
g234
sI29
g235
ssg62
(dp249
I0
F0.004701112538517252
sI1
Fnan
sI2
Fnan
sI3
Fnan
sI4
Fnan
sI5
Fnan
sI6
Fnan
sI7
Fnan
sI8
Fnan
sI9
Fnan
sI10
Fnan
sI11
Fnan
sI12
Fnan
sI13
Fnan
sI14
Fnan
sI15
Fnan
sI16
Fnan
sI17
Fnan
sI18
Fnan
sI19
Fnan
sI20
Fnan
sI21
Fnan
sI22
Fnan
sI23
Fnan
sI24
Fnan
sI25
Fnan
sI26
Fnan
sI27
Fnan
sI28
Fnan
sI29
Fnan
ssg64
(dp250
I0
F0.045233951240496256
sI1
Fnan
sI2
Fnan
sI3
Fnan
sI4
Fnan
sI5
Fnan
sI6
Fnan
sI7
Fnan
sI8
Fnan
sI9
Fnan
sI10
Fnan
sI11
Fnan
sI12
Fnan
sI13
Fnan
sI14
Fnan
sI15
Fnan
sI16
Fnan
sI17
Fnan
sI18
Fnan
sI19
Fnan
sI20
Fnan
sI21
Fnan
sI22
Fnan
sI23
Fnan
sI24
Fnan
sI25
Fnan
sI26
Fnan
sI27
Fnan
sI28
Fnan
sI29
Fnan
ssg66
(dp251
I0
F1.0868875
sI1
Fnan
sI2
Fnan
sI3
Fnan
sI4
Fnan
sI5
Fnan
sI6
Fnan
sI7
Fnan
sI8
Fnan
sI9
Fnan
sI10
Fnan
sI11
Fnan
sI12
Fnan
sI13
Fnan
sI14
Fnan
sI15
Fnan
sI16
Fnan
sI17
Fnan
sI18
Fnan
sI19
Fnan
sI20
Fnan
sI21
Fnan
sI22
Fnan
sI23
Fnan
sI24
Fnan
sI25
Fnan
sI26
Fnan
sI27
Fnan
sI28
Fnan
sI29
Fnan
ssg68
(dp252
I0
F1.5316668055503864
sI1
F1.5185520556643033
sI2
F1.5077561830645145
sI3
F1.5143987618683543
sI4
F1.5219875726405785
sI5
F1.5117875848414164
sI6
F1.512036202855055
sI7
F1.5140036512503152
sI8
F1.4952807217646509
sI9
F1.5096213755118526
sI10
F1.524273440245351
sI11
F1.5131087171264237
sI12
F1.5039254488635012
sI13
F1.5172835437143872
sI14
F1.5010403177697917
sI15
F1.5063641513833235
sI16
F1.5208872411153431
sI17
F1.5156236993238619
sI18
F1.5369603591169345
sI19
F1.503176737542298
sI20
F1.5124724302770327
sI21
F1.501890963144913
sI22
F1.5007582283925691
sI23
F1.513697419717986
sI24
F1.5245806402328252
sI25
F1.5080617840352533
sI26
F1.5227368369130876
sI27
F1.5018287248625237
sI28
F1.522042780804573
sI29
F1.5157574250315096
ssg70
(dp253
I0
g206
sI1
g207
sI2
g208
sI3
g209
sI4
g210
sI5
g211
sI6
g212
sI7
g213
sI8
g214
sI9
g215
sI10
g216
sI11
g217
sI12
g218
sI13
g219
sI14
g220
sI15
g221
sI16
g222
sI17
g223
sI18
g224
sI19
g225
sI20
g226
sI21
g227
sI22
g228
sI23
g229
sI24
g230
sI25
g231
sI26
g232
sI27
g233
sI28
g234
sI29
g235
ssg72
(dp254
I0
F-2.370084
sI1
F-4.519378
sI2
F-5.382552
sI3
F8.980681
sI4
F-3.511533
sI5
F-5.07513
sI6
F-4.93432
sI7
F19.51701
sI8
F-6.413544
sI9
F-4.170759
sI10
F-4.00735
sI11
F-5.645516
sI12
F-6.622468
sI13
F-4.132882
sI14
F14.86849
sI15
F-5.482881
sI16
F11.54396
sI17
F-6.043725
sI18
F-3.155337
sI19
F-2.599579
sI20
F-4.008587
sI21
F-5.941698
sI22
F-5.160867
sI23
F-3.671992
sI24
F-3.803838
sI25
F6.480015
sI26
F-3.156877
sI27
F-6.624881
sI28
F-3.950435
sI29
F-5.469718
ssg74
(dp255
I0
F11.9557
sI1
Fnan
sI2
Fnan
sI3
Fnan
sI4
Fnan
sI5
Fnan
sI6
Fnan
sI7
Fnan
sI8
Fnan
sI9
Fnan
sI10
Fnan
sI11
Fnan
sI12
Fnan
sI13
Fnan
sI14
Fnan
sI15
Fnan
sI16
Fnan
sI17
Fnan
sI18
Fnan
sI19
Fnan
sI20
Fnan
sI21
Fnan
sI22
Fnan
sI23
Fnan
sI24
Fnan
sI25
Fnan
sI26
Fnan
sI27
Fnan
sI28
Fnan
sI29
Fnan
ssg76
(dp256
I0
F0.6870374707923872
sI1
Fnan
sI2
Fnan
sI3
Fnan
sI4
Fnan
sI5
Fnan
sI6
Fnan
sI7
Fnan
sI8
Fnan
sI9
Fnan
sI10
Fnan
sI11
Fnan
sI12
Fnan
sI13
Fnan
sI14
Fnan
sI15
Fnan
sI16
Fnan
sI17
Fnan
sI18
Fnan
sI19
Fnan
sI20
Fnan
sI21
Fnan
sI22
Fnan
sI23
Fnan
sI24
Fnan
sI25
Fnan
sI26
Fnan
sI27
Fnan
sI28
Fnan
sI29
Fnan
ssg78
(dp257
I0
F-4.291248
sI1
F-1.667117
sI2
F-2.623434
sI3
F2.826833
sI4
F3.1526
sI5
F4.418169
sI6
F3.657975
sI7
F-2.456298
sI8
F2.912627
sI9
F-2.851612
sI10
F3.939992
sI11
F-1.41126
sI12
F1.799074
sI13
F4.256535
sI14
F3.630247
sI15
F3.199832
sI16
F3.459678
sI17
F0.5708364
sI18
F2.224415
sI19
F-1.836526
sI20
F1.374871
sI21
F2.852749
sI22
F4.207362
sI23
F3.788681
sI24
F-2.577572
sI25
F-2.017579
sI26
F3.72399
sI27
F-2.296
sI28
F1.620767
sI29
F-1.898314
ssg80
(dp258
I0
F12.300400000000002
sI1
Fnan
sI2
Fnan
sI3
Fnan
sI4
Fnan
sI5
Fnan
sI6
Fnan
sI7
Fnan
sI8
Fnan
sI9
Fnan
sI10
Fnan
sI11
Fnan
sI12
Fnan
sI13
Fnan
sI14
Fnan
sI15
Fnan
sI16
Fnan
sI17
Fnan
sI18
Fnan
sI19
Fnan
sI20
Fnan
sI21
Fnan
sI22
Fnan
sI23
Fnan
sI24
Fnan
sI25
Fnan
sI26
Fnan
sI27
Fnan
sI28
Fnan
sI29
Fnan
ssg82
(dp259
I0
g206
sI1
g207
sI2
g208
sI3
g209
sI4
g210
sI5
g211
sI6
g212
sI7
g213
sI8
g214
sI9
g215
sI10
g216
sI11
g217
sI12
g218
sI13
g219
sI14
g220
sI15
g221
sI16
g222
sI17
g223
sI18
g224
sI19
g225
sI20
g226
sI21
g227
sI22
g228
sI23
g229
sI24
g230
sI25
g231
sI26
g232
sI27
g233
sI28
g234
sI29
g235
ssg84
(dp260
I0
F2685.0808
sI1
F3124.1096000000002
sI2
F3104.45
sI3
F3093.3688
sI4
F2851.134
sI5
F3095.3008
sI6
F3035.6592
sI7
F3153.6
sI8
F3143.86
sI9
F3021.6459999999997
sI10
F2973.6623999999997
sI11
F3108.5604
sI12
F3188.9664000000002
sI13
F2990.8644
sI14
F3145.776
sI15
F3003.75
sI16
F3123.3192
sI17
F3078.6364000000003
sI18
F2947.1696
sI19
F2781.572
sI20
F2903.3676
sI21
F3119.178
sI22
F3075.3372
sI23
F2881.9108
sI24
F2973.6032
sI25
F3112.4236
sI26
F2822.8108
sI27
F3110.9264000000003
sI28
F2980.8808000000004
sI29
F3004.9240000000004
ssg86
(dp261
I0
F1.517158
sI1
F1.357794
sI2
F1.212251
sI3
F1.1701190000000001
sI4
F1.444926
sI5
F1.2144700000000002
sI6
F1.361065
sI7
F1.164382
sI8
F1.261156
sI9
F1.526022
sI10
F1.371045
sI11
F1.253439
sI12
F1.258551
sI13
F1.4410399999999999
sI14
F1.166284
sI15
F1.210006
sI16
F1.168203
sI17
F1.2056120000000001
sI18
F1.5305540000000002
sI19
F1.51273
sI20
F1.429574
sI21
F1.263723
sI22
F1.2077870000000002
sI23
F1.43335
sI24
F1.437198
sI25
F1.1720389999999998
sI26
F1.521577
sI27
F1.255975
sI28
F1.364355
sI29
F1.3676840000000001
ssg88
(dp262
I0
F2172.7
sI1
F2529.3232000000003
sI2
F2540.3884
sI3
F2510.9464000000003
sI4
F2357.1808
sI5
F2546.8728
sI6
F2471.1772
sI7
F2584.4892
sI8
F2581.9732
sI9
F2452.6856
sI10
F2414.9928
sI11
F2540.6728
sI12
F2584.0804000000003
sI13
F2448.5988
sI14
F2572.4768
sI15
F2453.4112
sI16
F2571.746
sI17
F2490.5824
sI18
F2380.744
sI19
F2280.8544
sI20
F2346.0504
sI21
F2529.5836
sI22
F2505.3032000000003
sI23
F2351.1916
sI24
F2393.5068
sI25
F2557.3388
sI26
F2318.5288
sI27
F2529.3972
sI28
F2451.8548
sI29
F2439.43
ssg90
(dp263
I0
F3720.2508000000003
sI1
F4292.516
sI2
F4255.52
sI3
F4243.584
sI4
F3963.4952000000003
sI5
F4264.884
sI6
F4163.268
sI7
F4343.744000000001
sI8
F4280.8640000000005
sI9
F4132.084
sI10
F4106.892
sI11
F4273.952
sI12
F4341.116
sI13
F4126.604
sI14
F4291.664000000001
sI15
F4110.236
sI16
F4330.776
sI17
F4220.42
sI18
F4094.3959999999997
sI19
F3804.8608000000004
sI20
F3969.8
sI21
F4241.912
sI22
F4187.596
sI23
F3960.6668
sI24
F4091.296
sI25
F4275.1759999999995
sI26
F3914.4536
sI27
F4235.4
sI28
F4134.428
sI29
F4126.16
ssg92
(dp264
I0
F-1.685537
sI1
F-4.774208
sI2
F-5.21061
sI3
F8.142756
sI4
F-5.041337
sI5
F-6.311585
sI6
F-5.704395
sI7
F18.51166
sI8
F-6.876616
sI9
F-3.997927
sI10
F-5.467345
sI11
F-5.587871
sI12
F-5.940138
sI13
F-4.340361
sI14
F14.83711
sI15
F-5.69171
sI16
F11.47263
sI17
F-5.799934
sI18
F-2.798352
sI19
F-3.609997
sI20
F-4.582652
sI21
F-6.078026
sI22
F-6.030251
sI23
F-4.378452
sI24
F-3.614766
sI25
F6.04105
sI26
F-3.966308
sI27
F-6.433403
sI28
F-4.949556
sI29
F-5.069168
ssg94
(dp265
I0
F12.658
sI1
F12.492
sI2
F12.488
sI3
F12.5
sI4
F12.569
sI5
F12.485
sI6
F12.518
sI7
F12.469
sI8
F12.47
sI9
F12.526
sI10
F12.543
sI11
F12.488
sI12
F12.469
sI13
F12.528
sI14
F12.474
sI15
F12.526
sI16
F12.474
sI17
F12.509
sI18
F12.558
sI19
F12.605
sI20
F12.574
sI21
F12.492
sI22
F12.503
sI23
F12.572
sI24
F12.552
sI25
F12.481
sI26
F12.587
sI27
F12.492
sI28
F12.526
sI29
F12.532
ssg96
(dp266
I0
F0.004
sI1
F0.003
sI2
F0.003
sI3
F0.003
sI4
F0.004
sI5
F0.003
sI6
F0.003
sI7
F0.003
sI8
F0.003
sI9
F0.004
sI10
F0.003
sI11
F0.003
sI12
F0.003
sI13
F0.003
sI14
F0.003
sI15
F0.003
sI16
F0.003
sI17
F0.003
sI18
F0.003
sI19
F0.004
sI20
F0.003
sI21
F0.003
sI22
F0.003
sI23
F0.004
sI24
F0.003
sI25
F0.003
sI26
F0.004
sI27
F0.003
sI28
F0.003
sI29
F0.003
ssg98
(dp267
I0
F13.349300000000001
sI1
Fnan
sI2
Fnan
sI3
Fnan
sI4
Fnan
sI5
Fnan
sI6
Fnan
sI7
Fnan
sI8
Fnan
sI9
Fnan
sI10
Fnan
sI11
Fnan
sI12
Fnan
sI13
Fnan
sI14
Fnan
sI15
Fnan
sI16
Fnan
sI17
Fnan
sI18
Fnan
sI19
Fnan
sI20
Fnan
sI21
Fnan
sI22
Fnan
sI23
Fnan
sI24
Fnan
sI25
Fnan
sI26
Fnan
sI27
Fnan
sI28
Fnan
sI29
Fnan
ssg100
(dp268
I0
F12.522
sI1
Fnan
sI2
Fnan
sI3
Fnan
sI4
Fnan
sI5
Fnan
sI6
Fnan
sI7
Fnan
sI8
Fnan
sI9
Fnan
sI10
Fnan
sI11
Fnan
sI12
Fnan
sI13
Fnan
sI14
Fnan
sI15
Fnan
sI16
Fnan
sI17
Fnan
sI18
Fnan
sI19
Fnan
sI20
Fnan
sI21
Fnan
sI22
Fnan
sI23
Fnan
sI24
Fnan
sI25
Fnan
sI26
Fnan
sI27
Fnan
sI28
Fnan
sI29
Fnan
ssg102
(dp269
I0
F12.428
sI1
F12.263
sI2
F12.27
sI3
F12.274
sI4
F12.362
sI5
F12.273
sI6
F12.294
sI7
F12.253
sI8
F12.256
sI9
F12.299
sI10
F12.317
sI11
F12.269
sI12
F12.241
sI13
F12.311
sI14
F12.256
sI15
F12.306
sI16
F12.263
sI17
F12.279
sI18
F12.326
sI19
F12.389
sI20
F12.343
sI21
F12.265
sI22
F12.28
sI23
F12.351
sI24
F12.317
sI25
F12.267
sI26
F12.373
sI27
F12.268
sI28
F12.314
sI29
F12.305
ssg104
(dp270
I0
F4.412659
sI1
F3.879107
sI2
F3.641316
sI3
F2.583993
sI4
F3.959774
sI5
F2.620785
sI6
F2.079689
sI7
F4.098527
sI8
F4.358788
sI9
F1.678037
sI10
F3.547285
sI11
F1.972164
sI12
F1.793226
sI13
F2.557897
sI14
F4.275111
sI15
F-3.920802
sI16
F-2.693598
sI17
F2.427209
sI18
F2.152627
sI19
F3.227741
sI20
F1.462522
sI21
F2.705722
sI22
F-3.792708
sI23
F-2.813119
sI24
F-3.323027
sI25
F2.924476
sI26
F3.331491
sI27
F3.489831
sI28
F-1.786412
sI29
F3.43616
ssg106
(dp271
I0
F0.042265295129855655
sI1
Fnan
sI2
Fnan
sI3
Fnan
sI4
Fnan
sI5
Fnan
sI6
Fnan
sI7
Fnan
sI8
Fnan
sI9
Fnan
sI10
Fnan
sI11
Fnan
sI12
Fnan
sI13
Fnan
sI14
Fnan
sI15
Fnan
sI16
Fnan
sI17
Fnan
sI18
Fnan
sI19
Fnan
sI20
Fnan
sI21
Fnan
sI22
Fnan
sI23
Fnan
sI24
Fnan
sI25
Fnan
sI26
Fnan
sI27
Fnan
sI28
Fnan
sI29
Fnan
ssg108
(dp272
I0
F0.6784035974031383
sI1
F0.6820684598127753
sI2
F0.6903257486103883
sI3
F0.6844657362386195
sI4
F0.6918001642701264
sI5
F0.6920676230846813
sI6
F0.6865404056315503
sI7
F0.6894412741365474
sI8
F0.695506849816909
sI9
F0.6857081830038315
sI10
F0.6821479402799308
sI11
F0.6882948953800606
sI12
F0.6863352252294079
sI13
F0.6880532971526787
sI14
F0.6917640478444195
sI15
F0.6897430498176409
sI16
F0.6900223114939558
sI17
F0.6824395547895752
sI18
F0.6761973502029152
sI19
F0.692591716718039
sI20
F0.6826693415711265
sI21
F0.6872850624024431
sI22
F0.6898874410685756
sI23
F0.6872239490568584
sI24
F0.6775770558764661
sI25
F0.6923328113234507
sI26
F0.688270093719344
sI27
F0.6886155235356817
sI28
F0.6891773411155394
sI29
F0.6841680731849462
ssg110
(dp273
I0
F25.0
sI1
F25.0
sI2
F25.0
sI3
F25.0
sI4
F25.0
sI5
F25.0
sI6
F25.0
sI7
F25.0
sI8
F25.0
sI9
F25.0
sI10
F25.0
sI11
F25.0
sI12
F25.0
sI13
F25.0
sI14
F25.0
sI15
F25.0
sI16
F25.0
sI17
F25.0
sI18
F25.0
sI19
F25.0
sI20
F25.0
sI21
F25.0
sI22
F25.0
sI23
F25.0
sI24
F25.0
sI25
F25.0
sI26
F25.0
sI27
F25.0
sI28
F25.0
sI29
F25.0
ssg112
(dp274
I0
F0.005
sI1
F0.005
sI2
F0.005
sI3
F0.005
sI4
F0.005
sI5
F0.005
sI6
F0.005
sI7
F0.005
sI8
F0.005
sI9
F0.005
sI10
F0.005
sI11
F0.005
sI12
F0.005
sI13
F0.005
sI14
F0.005
sI15
F0.005
sI16
F0.005
sI17
F0.005
sI18
F0.005
sI19
F0.005
sI20
F0.005
sI21
F0.005
sI22
F0.005
sI23
F0.005
sI24
F0.005
sI25
F0.005
sI26
F0.005
sI27
F0.005
sI28
F0.005
sI29
F0.005
ssg114
(dp275
I0
F0.005
sI1
F0.004
sI2
F0.004
sI3
F0.004
sI4
F0.004
sI5
F0.004
sI6
F0.004
sI7
F0.004
sI8
F0.004
sI9
F0.004
sI10
F0.004
sI11
F0.004
sI12
F0.004
sI13
F0.004
sI14
F0.004
sI15
F0.004
sI16
F0.004
sI17
F0.004
sI18
F0.004
sI19
F0.004
sI20
F0.004
sI21
F0.004
sI22
F0.004
sI23
F0.004
sI24
F0.004
sI25
F0.004
sI26
F0.004
sI27
F0.004
sI28
F0.004
sI29
F0.004
ssg116
(dp276
I0
F-3.406885
sI1
F1.44016
sI2
F1.974341
sI3
F-2.40285
sI4
F3.572445
sI5
F2.777907
sI6
F-2.736398
sI7
F-5.225015
sI8
F2.259688
sI9
F3.997549
sI10
F-1.981011
sI11
F2.470089
sI12
F4.307053
sI13
F3.694822
sI14
F3.085094
sI15
F3.215831
sI16
F-3.371519
sI17
F3.647195
sI18
F3.04106
sI19
F3.61201
sI20
F3.113748
sI21
F-1.303528
sI22
F-2.929693
sI23
F2.157254
sI24
F3.165454
sI25
F-2.779441
sI26
F3.603525
sI27
F3.139651
sI28
F-1.652045
sI29
F2.120134
ssg118
(dp277
I0
S"KIC8462852-20180326at105957_-35-1-025-z'_cal.fts.mag.1"
p278
sI1
S"KIC8462852-20180326at113605_-35-1-025-z'_cal.fts.mag.1"
p279
sI2
S"KIC8462852-20180326at122237_-35-1-025-z'_cal.fts.mag.1"
p280
sI3
S"KIC8462852-20180326at124017_-35-1-025-z'_cal.fts.mag.1"
p281
sI4
S"KIC8462852-20180326at111458_-35-1-025-z'_cal.fts.mag.1"
p282
sI5
S"KIC8462852-20180326at122144_-35-1-025-z'_cal.fts.mag.1"
p283
sI6
S"KIC8462852-20180326at113513_-35-1-025-z'_cal.fts.mag.1"
p284
sI7
S"KIC8462852-20180326at124254_-35-1-025-z'_cal.fts.mag.1"
p285
sI8
S"KIC8462852-20180326at120457_-35-1-025-z'_cal.fts.mag.1"
p286
sI9
S"KIC8462852-20180326at105813_-35-1-025-z'_cal.fts.mag.1"
p287
sI10
S"KIC8462852-20180326at113235_-35-1-025-z'_cal.fts.mag.1"
p288
sI11
S"KIC8462852-20180326at120734_-35-1-025-z'_cal.fts.mag.1"
p289
sI12
S"KIC8462852-20180326at120549_-35-1-025-z'_cal.fts.mag.1"
p290
sI13
S"KIC8462852-20180326at111550_-35-1-025-z'_cal.fts.mag.1"
p291
sI14
S"KIC8462852-20180326at124202_-35-1-025-z'_cal.fts.mag.1"
p292
sI15
S"KIC8462852-20180326at122329_-35-1-025-z'_cal.fts.mag.1"
p293
sI16
S"KIC8462852-20180326at124109_-35-1-025-z'_cal.fts.mag.1"
p294
sI17
S"KIC8462852-20180326at122514_-35-1-025-z'_cal.fts.mag.1"
p295
sI18
S"KIC8462852-20180326at105719_-35-1-025-z'_cal.fts.mag.1"
p296
sI19
S"KIC8462852-20180326at110048_-35-1-025-z'_cal.fts.mag.1"
p297
sI20
S"KIC8462852-20180326at111826_-35-1-025-z'_cal.fts.mag.1"
p298
sI21
S"KIC8462852-20180326at120403_-35-1-025-z'_cal.fts.mag.1"
p299
sI22
S"KIC8462852-20180326at122422_-35-1-025-z'_cal.fts.mag.1"
p300
sI23
S"KIC8462852-20180326at111734_-35-1-025-z'_cal.fts.mag.1"
p301
sI24
S"KIC8462852-20180326at111642_-35-1-025-z'_cal.fts.mag.1"
p302
sI25
S"KIC8462852-20180326at123923_-35-1-025-z'_cal.fts.mag.1"
p303
sI26
S"KIC8462852-20180326at105905_-35-1-025-z'_cal.fts.mag.1"
p304
sI27
S"KIC8462852-20180326at120641_-35-1-025-z'_cal.fts.mag.1"
p305
sI28
S"KIC8462852-20180326at113421_-35-1-025-z'_cal.fts.mag.1"
p306
sI29
S"KIC8462852-20180326at113329_-35-1-025-z'_cal.fts.mag.1"
p307
ssg149
(dp308
I0
F0.009663717816167388
sI1
Fnan
sI2
Fnan
sI3
Fnan
sI4
Fnan
sI5
Fnan
sI6
Fnan
sI7
Fnan
sI8
Fnan
sI9
Fnan
sI10
Fnan
sI11
Fnan
sI12
Fnan
sI13
Fnan
sI14
Fnan
sI15
Fnan
sI16
Fnan
sI17
Fnan
sI18
Fnan
sI19
Fnan
sI20
Fnan
sI21
Fnan
sI22
Fnan
sI23
Fnan
sI24
Fnan
sI25
Fnan
sI26
Fnan
sI27
Fnan
sI28
Fnan
sI29
Fnan
ssg151
(dp309
I0
F1016.0944000000001
sI1
F1200.3011999999999
sI2
F1207.8208
sI3
F1181.7892
sI4
F1083.192
sI5
F1197.3932
sI6
F1128.5052
sI7
F1211.1248
sI8
F1192.8288
sI9
F1130.9848
sI10
F1124.8383999999999
sI11
F1190.4468
sI12
F1205.458
sI13
F1145.1468
sI14
F1211.0572
sI15
F1127.6008
sI16
F1206.9252000000001
sI17
F1181.77
sI18
F1122.7508
sI19
F1055.0236
sI20
F1081.9596000000001
sI21
F1181.93
sI22
F1162.2504
sI23
F1094.6824000000001
sI24
F1133.3316
sI25
F1191.0408
sI26
F1081.4696000000001
sI27
F1180.2848
sI28
F1123.0991999999999
sI29
F1152.3311999999999
ssg153
(dp310
I0
F0.046187772676624904
sI1
Fnan
sI2
Fnan
sI3
Fnan
sI4
Fnan
sI5
Fnan
sI6
Fnan
sI7
Fnan
sI8
Fnan
sI9
Fnan
sI10
Fnan
sI11
Fnan
sI12
Fnan
sI13
Fnan
sI14
Fnan
sI15
Fnan
sI16
Fnan
sI17
Fnan
sI18
Fnan
sI19
Fnan
sI20
Fnan
sI21
Fnan
sI22
Fnan
sI23
Fnan
sI24
Fnan
sI25
Fnan
sI26
Fnan
sI27
Fnan
sI28
Fnan
sI29
Fnan
ssg155
(dp311
I0
S"z'"
p312
sI1
S"z'"
p313
sI2
S"z'"
p314
sI3
S"z'"
p315
sI4
S"z'"
p316
sI5
S"z'"
p317
sI6
S"z'"
p318
sI7
S"z'"
p319
sI8
S"z'"
p320
sI9
S"z'"
p321
sI10
S"z'"
p322
sI11
S"z'"
p323
sI12
S"z'"
p324
sI13
S"z'"
p325
sI14
S"z'"
p326
sI15
S"z'"
p327
sI16
S"z'"
p328
sI17
S"z'"
p329
sI18
S"z'"
p330
sI19
S"z'"
p331
sI20
S"z'"
p332
sI21
S"z'"
p333
sI22
S"z'"
p334
sI23
S"z'"
p335
sI24
S"z'"
p336
sI25
S"z'"
p337
sI26
S"z'"
p338
sI27
S"z'"
p339
sI28
S"z'"
p340
sI29
S"z'"
p341
ssg186
(dp342
I0
F0.05005455644284197
sI1
Fnan
sI2
Fnan
sI3
Fnan
sI4
Fnan
sI5
Fnan
sI6
Fnan
sI7
Fnan
sI8
Fnan
sI9
Fnan
sI10
Fnan
sI11
Fnan
sI12
Fnan
sI13
Fnan
sI14
Fnan
sI15
Fnan
sI16
Fnan
sI17
Fnan
sI18
Fnan
sI19
Fnan
sI20
Fnan
sI21
Fnan
sI22
Fnan
sI23
Fnan
sI24
Fnan
sI25
Fnan
sI26
Fnan
sI27
Fnan
sI28
Fnan
sI29
Fnan
ssg188
(dp343
I0
F2.341536
sI1
F-1.180686
sI2
F3.038624
sI3
F-1.399727
sI4
F-3.251684
sI5
F2.67779
sI6
F3.680068
sI7
F-2.938302
sI8
F3.445845
sI9
F-3.173491
sI10
F-2.825476
sI11
F3.68164
sI12
F2.677346
sI13
F3.491042
sI14
F4.83417
sI15
F2.028518
sI16
F2.552234
sI17
F2.316312
sI18
F2.001539
sI19
F-3.054075
sI20
F-2.898221
sI21
F-2.471838
sI22
F-1.770292
sI23
F2.615146
sI24
F3.062467
sI25
F3.622855
sI26
F3.29856
sI27
F-0.9272993
sI28
F2.406841
sI29
F4.456676
ssg190
(dp344
I0
F1.5134520601541643
sI1
Fnan
sI2
Fnan
sI3
Fnan
sI4
Fnan
sI5
Fnan
sI6
Fnan
sI7
Fnan
sI8
Fnan
sI9
Fnan
sI10
Fnan
sI11
Fnan
sI12
Fnan
sI13
Fnan
sI14
Fnan
sI15
Fnan
sI16
Fnan
sI17
Fnan
sI18
Fnan
sI19
Fnan
sI20
Fnan
sI21
Fnan
sI22
Fnan
sI23
Fnan
sI24
Fnan
sI25
Fnan
sI26
Fnan
sI27
Fnan
sI28
Fnan
sI29
Fnan
ssg192
(dp345
I0
F2458203.9931076393
sI1
Fnan
sI2
Fnan
sI3
Fnan
sI4
Fnan
sI5
Fnan
sI6
Fnan
sI7
Fnan
sI8
Fnan
sI9
Fnan
sI10
Fnan
sI11
Fnan
sI12
Fnan
sI13
Fnan
sI14
Fnan
sI15
Fnan
sI16
Fnan
sI17
Fnan
sI18
Fnan
sI19
Fnan
sI20
Fnan
sI21
Fnan
sI22
Fnan
sI23
Fnan
sI24
Fnan
sI25
Fnan
sI26
Fnan
sI27
Fnan
sI28
Fnan
sI29
Fnan
ssg194
(dp346
I0
F0.003654938968336977
sI1
Fnan
sI2
Fnan
sI3
Fnan
sI4
Fnan
sI5
Fnan
sI6
Fnan
sI7
Fnan
sI8
Fnan
sI9
Fnan
sI10
Fnan
sI11
Fnan
sI12
Fnan
sI13
Fnan
sI14
Fnan
sI15
Fnan
sI16
Fnan
sI17
Fnan
sI18
Fnan
sI19
Fnan
sI20
Fnan
sI21
Fnan
sI22
Fnan
sI23
Fnan
sI24
Fnan
sI25
Fnan
sI26
Fnan
sI27
Fnan
sI28
Fnan
sI29
Fnan
ssg196
(dp347
I0
F-2.008213
sI1
F-5.305875
sI2
F-5.60303
sI3
F9.774968
sI4
F-3.846754
sI5
F-5.071365
sI6
F-4.370635
sI7
F17.98878
sI8
F-5.716801
sI9
F-3.447837
sI10
F-4.297564
sI11
F-5.986211
sI12
F-5.763006
sI13
F-3.734555
sI14
F15.06967
sI15
F-5.1698
sI16
F11.71871
sI17
F-5.035649
sI18
F-3.764296
sI19
F-1.955664
sI20
F-2.221121
sI21
F-5.422815
sI22
F-4.679571
sI23
F-2.585604
sI24
F-2.673443
sI25
F6.89083
sI26
F-2.655039
sI27
F-5.93524
sI28
F-3.675732
sI29
F-3.984417
ssg198
(dp348
I0
F12.074
sI1
F11.918
sI2
F11.928
sI3
F11.931
sI4
F12.005
sI5
F11.925
sI6
F11.951
sI7
F11.905
sI8
F11.921
sI9
F11.96
sI10
F11.966
sI11
F11.923
sI12
F11.906
sI13
F11.961
sI14
F11.918
sI15
F11.965
sI16
F11.909
sI17
F11.937
sI18
F11.97
sI19
F12.049
sI20
F12.003
sI21
F11.931
sI22
F11.945
sI23
F12.006
sI24
F11.97
sI25
F11.923
sI26
F12.018
sI27
F11.933
sI28
F11.959
sI29
F11.961
ssg200
(dp349
I0
F0.3580493138475989
sI1
Fnan
sI2
Fnan
sI3
Fnan
sI4
Fnan
sI5
Fnan
sI6
Fnan
sI7
Fnan
sI8
Fnan
sI9
Fnan
sI10
Fnan
sI11
Fnan
sI12
Fnan
sI13
Fnan
sI14
Fnan
sI15
Fnan
sI16
Fnan
sI17
Fnan
sI18
Fnan
sI19
Fnan
sI20
Fnan
sI21
Fnan
sI22
Fnan
sI23
Fnan
sI24
Fnan
sI25
Fnan
sI26
Fnan
sI27
Fnan
sI28
Fnan
sI29
Fnan
sssS'g'
p350
(dp351
g3
(dp352
I0
F0.8058583051402445
sI1
Fnan
sI2
Fnan
sI3
Fnan
sI4
Fnan
sI5
Fnan
sI6
Fnan
sI7
Fnan
sI8
Fnan
sI9
Fnan
sI10
Fnan
sI11
Fnan
sI12
Fnan
sI13
Fnan
sI14
Fnan
sI15
Fnan
sI16
Fnan
sI17
Fnan
sI18
Fnan
sI19
Fnan
sI20
Fnan
sI21
Fnan
sI22
Fnan
sI23
Fnan
sI24
Fnan
ssg5
(dp353
I0
S'NoError'
p354
sI1
S'NoError'
p355
sI2
S'NoError'
p356
sI3
S'NoError'
p357
sI4
S'NoError'
p358
sI5
S'NoError'
p359
sI6
S'NoError'
p360
sI7
S'NoError'
p361
sI8
S'NoError'
p362
sI9
S'NoError'
p363
sI10
S'NoError'
p364
sI11
S'NoError'
p365
sI12
S'NoError'
p366
sI13
S'NoError'
p367
sI14
S'NoError'
p368
sI15
S'NoError'
p369
sI16
S'NoError'
p370
sI17
S'NoError'
p371
sI18
S'NoError'
p372
sI19
S'NoError'
p373
sI20
S'NoError'
p374
sI21
S'NoError'
p375
sI22
S'NoError'
p376
sI23
S'NoError'
p377
sI24
S'NoError'
p378
ssg36
(dp379
I0
F0.003
sI1
F0.003
sI2
F0.003
sI3
F0.003
sI4
F0.003
sI5
F0.003
sI6
F0.003
sI7
F0.003
sI8
F0.003
sI9
F0.003
sI10
F0.003
sI11
F0.003
sI12
F0.003
sI13
F0.003
sI14
F0.003
sI15
F0.003
sI16
F0.003
sI17
F0.003
sI18
F0.003
sI19
F0.003
sI20
F0.003
sI21
F0.003
sI22
F0.003
sI23
F0.003
sI24
F0.003
ssg38
(dp380
I0
F0.8833148055480637
sI1
F0.8751219570850542
sI2
F0.8807564946448817
sI3
F0.8743737348741024
sI4
F0.881826514055479
sI5
F0.8742617294908924
sI6
F0.8763005261823734
sI7
F0.8844202846606238
sI8
F0.8788835573748923
sI9
F0.8765042110555665
sI10
F0.8801804679500151
sI11
F0.8763183975923176
sI12
F0.8777693360752403
sI13
F0.8792856345055852
sI14
F0.8766673030740832
sI15
F0.8749229324982097
sI16
F0.8746522809716907
sI17
F0.8800063000187032
sI18
F0.8826890100461791
sI19
F0.8869563350793099
sI20
F0.8740922960712556
sI21
F0.874496795518854
sI22
F0.8741611012000705
sI23
F0.8826867525974996
sI24
F0.8810335245212204
ssg40
(dp381
I0
F0.003758202745449269
sI1
Fnan
sI2
Fnan
sI3
Fnan
sI4
Fnan
sI5
Fnan
sI6
Fnan
sI7
Fnan
sI8
Fnan
sI9
Fnan
sI10
Fnan
sI11
Fnan
sI12
Fnan
sI13
Fnan
sI14
Fnan
sI15
Fnan
sI16
Fnan
sI17
Fnan
sI18
Fnan
sI19
Fnan
sI20
Fnan
sI21
Fnan
sI22
Fnan
sI23
Fnan
sI24
Fnan
ssg42
(dp382
I0
F0.8784672913076866
sI1
Fnan
sI2
Fnan
sI3
Fnan
sI4
Fnan
sI5
Fnan
sI6
Fnan
sI7
Fnan
sI8
Fnan
sI9
Fnan
sI10
Fnan
sI11
Fnan
sI12
Fnan
sI13
Fnan
sI14
Fnan
sI15
Fnan
sI16
Fnan
sI17
Fnan
sI18
Fnan
sI19
Fnan
sI20
Fnan
sI21
Fnan
sI22
Fnan
sI23
Fnan
sI24
Fnan
ssg44
(dp383
I0
F11.645
sI1
F11.481
sI2
F11.451
sI3
F11.474
sI4
F11.455
sI5
F11.53
sI6
F11.531
sI7
F11.456
sI8
F11.612
sI9
F11.616
sI10
F11.635
sI11
F11.49
sI12
F11.466
sI13
F11.628
sI14
F11.459
sI15
F11.484
sI16
F11.485
sI17
F11.653
sI18
F11.455
sI19
F11.543
sI20
F11.524
sI21
F11.712
sI22
F11.666
sI23
F11.503
sI24
F11.607
ssg46
(dp384
I0
F-2.639268
sI1
F-3.866352
sI2
F61.70701
sI3
F32.41008
sI4
F52.89644
sI5
F-3.967443
sI6
F-4.328507
sI7
F44.74366
sI8
F-2.89679
sI9
F-2.888232
sI10
F-2.276819
sI11
F-4.851806
sI12
F-3.246757
sI13
F-2.221095
sI14
F-3.352553
sI15
F37.96563
sI16
F-2.180508
sI17
F-1.788007
sI18
F-3.774517
sI19
F-5.031755
sI20
F-4.082749
sI21
F-1.953307
sI22
F-0.7854098
sI23
F-4.834624
sI24
F-3.458246
ssg48
(dp385
I0
F2458203.963275463
sI1
F2458204.0108564813
sI2
F2458204.0236921296
sI3
F2458204.0212847223
sI4
F2458204.023090278
sI5
F2458203.997337963
sI6
F2458203.9985416667
sI7
F2458204.022476852
sI8
F2458203.9760879627
sI9
F2458203.975486111
sI10
F2458203.9772916664
sI11
F2458203.9991435185
sI12
F2458204.0090393517
sI13
F2458203.9766898146
sI14
F2458204.0102546294
sI15
F2458204.021886574
sI16
F2458204.011458333
sI17
F2458203.9644791665
sI18
F2458204.0096412036
sI19
F2458203.974884259
sI20
F2458203.997939815
sI21
F2458203.9650810184
sI22
F2458203.9638773147
sI23
F2458203.996724537
sI24
F2458203.962673611
ssg50
(dp386
I0
F1.918255564
sI1
Fnan
sI2
Fnan
sI3
Fnan
sI4
Fnan
sI5
Fnan
sI6
Fnan
sI7
Fnan
sI8
Fnan
sI9
Fnan
sI10
Fnan
sI11
Fnan
sI12
Fnan
sI13
Fnan
sI14
Fnan
sI15
Fnan
sI16
Fnan
sI17
Fnan
sI18
Fnan
sI19
Fnan
sI20
Fnan
sI21
Fnan
sI22
Fnan
sI23
Fnan
sI24
Fnan
ssg52
(dp387
I0
F1.9114648799999998
sI1
Fnan
sI2
Fnan
sI3
Fnan
sI4
Fnan
sI5
Fnan
sI6
Fnan
sI7
Fnan
sI8
Fnan
sI9
Fnan
sI10
Fnan
sI11
Fnan
sI12
Fnan
sI13
Fnan
sI14
Fnan
sI15
Fnan
sI16
Fnan
sI17
Fnan
sI18
Fnan
sI19
Fnan
sI20
Fnan
sI21
Fnan
sI22
Fnan
sI23
Fnan
sI24
Fnan
ssg54
(dp388
I0
F0.8062421814073135
sI1
F0.8056726481179558
sI2
F0.8134867451082491
sI3
F0.811056099259616
sI4
F0.8086499952527154
sI5
F0.8055519958656243
sI6
F0.8055567284920007
sI7
F0.8033635978153776
sI8
F0.8009786691271032
sI9
F0.8053041521954027
sI10
F0.8014967580849457
sI11
F0.80459600460389
sI12
F0.8046979035400754
sI13
F0.80784969741569
sI14
F0.8044683602853009
sI15
F0.8102980334501677
sI16
F0.8056403055632667
sI17
F0.8030379320608845
sI18
F0.8060766388332937
sI19
F0.8052041213752081
sI20
F0.8089860957139402
sI21
F0.7934475832757069
sI22
F0.7951793008128586
sI23
F0.8084190882248609
sI24
F0.8057357064007497
ssg56
(dp389
I0
F0.0025038504125589906
sI1
Fnan
sI2
Fnan
sI3
Fnan
sI4
Fnan
sI5
Fnan
sI6
Fnan
sI7
Fnan
sI8
Fnan
sI9
Fnan
sI10
Fnan
sI11
Fnan
sI12
Fnan
sI13
Fnan
sI14
Fnan
sI15
Fnan
sI16
Fnan
sI17
Fnan
sI18
Fnan
sI19
Fnan
sI20
Fnan
sI21
Fnan
sI22
Fnan
sI23
Fnan
sI24
Fnan
ssg58
(dp390
I0
F1.5129967599999998
sI1
Fnan
sI2
Fnan
sI3
Fnan
sI4
Fnan
sI5
Fnan
sI6
Fnan
sI7
Fnan
sI8
Fnan
sI9
Fnan
sI10
Fnan
sI11
Fnan
sI12
Fnan
sI13
Fnan
sI14
Fnan
sI15
Fnan
sI16
Fnan
sI17
Fnan
sI18
Fnan
sI19
Fnan
sI20
Fnan
sI21
Fnan
sI22
Fnan
sI23
Fnan
sI24
Fnan
ssg60
(dp391
I0
g354
sI1
g355
sI2
g356
sI3
g357
sI4
g358
sI5
g359
sI6
g360
sI7
g361
sI8
g362
sI9
g363
sI10
g364
sI11
g365
sI12
g366
sI13
g367
sI14
g368
sI15
g369
sI16
g370
sI17
g371
sI18
g372
sI19
g373
sI20
g374
sI21
g375
sI22
g376
sI23
g377
sI24
g378
ssg62
(dp392
I0
F0.004084221886955855
sI1
Fnan
sI2
Fnan
sI3
Fnan
sI4
Fnan
sI5
Fnan
sI6
Fnan
sI7
Fnan
sI8
Fnan
sI9
Fnan
sI10
Fnan
sI11
Fnan
sI12
Fnan
sI13
Fnan
sI14
Fnan
sI15
Fnan
sI16
Fnan
sI17
Fnan
sI18
Fnan
sI19
Fnan
sI20
Fnan
sI21
Fnan
sI22
Fnan
sI23
Fnan
sI24
Fnan
ssg64
(dp393
I0
F0.07831023773002697
sI1
Fnan
sI2
Fnan
sI3
Fnan
sI4
Fnan
sI5
Fnan
sI6
Fnan
sI7
Fnan
sI8
Fnan
sI9
Fnan
sI10
Fnan
sI11
Fnan
sI12
Fnan
sI13
Fnan
sI14
Fnan
sI15
Fnan
sI16
Fnan
sI17
Fnan
sI18
Fnan
sI19
Fnan
sI20
Fnan
sI21
Fnan
sI22
Fnan
sI23
Fnan
sI24
Fnan
ssg66
(dp394
I0
F2.43693552
sI1
Fnan
sI2
Fnan
sI3
Fnan
sI4
Fnan
sI5
Fnan
sI6
Fnan
sI7
Fnan
sI8
Fnan
sI9
Fnan
sI10
Fnan
sI11
Fnan
sI12
Fnan
sI13
Fnan
sI14
Fnan
sI15
Fnan
sI16
Fnan
sI17
Fnan
sI18
Fnan
sI19
Fnan
sI20
Fnan
sI21
Fnan
sI22
Fnan
sI23
Fnan
sI24
Fnan
ssg68
(dp395
I0
F1.5195634113796015
sI1
F1.5239495197657265
sI2
F1.519433328946588
sI3
F1.517347524943615
sI4
F1.5123945902576947
sI5
F1.525306028362995
sI6
F1.529626067946605
sI7
F1.5106008618679907
sI8
F1.52828343865214
sI9
F1.521744886277808
sI10
F1.5211476487686597
sI11
F1.5247101681235713
sI12
F1.518906465677917
sI13
F1.5276346029106171
sI14
F1.5250024015390617
sI15
F1.510323880762392
sI16
F1.5256149511429755
sI17
F1.5350922041834951
sI18
F1.5175834950758391
sI19
F1.5092961930852218
sI20
F1.5211045923154782
sI21
F1.5248479709397684
sI22
F1.5416241765113265
sI23
F1.519697696230552
sI24
F1.522878333220233
ssg70
(dp396
I0
g354
sI1
g355
sI2
g356
sI3
g357
sI4
g358
sI5
g359
sI6
g360
sI7
g361
sI8
g362
sI9
g363
sI10
g364
sI11
g365
sI12
g366
sI13
g367
sI14
g368
sI15
g369
sI16
g370
sI17
g371
sI18
g372
sI19
g373
sI20
g374
sI21
g375
sI22
g376
sI23
g377
sI24
g378
ssg72
(dp397
I0
F-2.977098
sI1
F-1.871587
sI2
F62.46756
sI3
F31.95153
sI4
F52.09915
sI5
F-3.378472
sI6
F-3.646338
sI7
F44.29119
sI8
F-2.490846
sI9
F-2.425025
sI10
F-1.607036
sI11
F-5.559923
sI12
F-3.00918
sI13
F-1.678085
sI14
F-3.203645
sI15
F37.72591
sI16
F-1.944531
sI17
F-1.776835
sI18
F-4.912694
sI19
F-4.402379
sI20
F-3.228898
sI21
F0.2944031
sI22
F-2.193946
sI23
F-4.348766
sI24
F-2.892171
ssg74
(dp398
I0
F11.02536
sI1
Fnan
sI2
Fnan
sI3
Fnan
sI4
Fnan
sI5
Fnan
sI6
Fnan
sI7
Fnan
sI8
Fnan
sI9
Fnan
sI10
Fnan
sI11
Fnan
sI12
Fnan
sI13
Fnan
sI14
Fnan
sI15
Fnan
sI16
Fnan
sI17
Fnan
sI18
Fnan
sI19
Fnan
sI20
Fnan
sI21
Fnan
sI22
Fnan
sI23
Fnan
sI24
Fnan
ssg76
(dp399
I0
F0.7124330274394076
sI1
Fnan
sI2
Fnan
sI3
Fnan
sI4
Fnan
sI5
Fnan
sI6
Fnan
sI7
Fnan
sI8
Fnan
sI9
Fnan
sI10
Fnan
sI11
Fnan
sI12
Fnan
sI13
Fnan
sI14
Fnan
sI15
Fnan
sI16
Fnan
sI17
Fnan
sI18
Fnan
sI19
Fnan
sI20
Fnan
sI21
Fnan
sI22
Fnan
sI23
Fnan
sI24
Fnan
ssg78
(dp400
I0
F3.746671
sI1
F1.001017
sI2
F5.236938
sI3
F3.715572
sI4
F-3.854116
sI5
F-3.235661
sI6
F3.605479
sI7
F-2.732286
sI8
F-2.274199
sI9
F3.44972
sI10
F3.294208
sI11
F4.008941
sI12
F3.864967
sI13
F1.275859
sI14
F3.131026
sI15
F2.774563
sI16
F4.07412
sI17
F-3.121942
sI18
F3.706053
sI19
F3.796994
sI20
F3.565043
sI21
F3.340859
sI22
F3.777048
sI23
F3.237139
sI24
F-1.597391
ssg80
(dp401
I0
F11.403080000000003
sI1
Fnan
sI2
Fnan
sI3
Fnan
sI4
Fnan
sI5
Fnan
sI6
Fnan
sI7
Fnan
sI8
Fnan
sI9
Fnan
sI10
Fnan
sI11
Fnan
sI12
Fnan
sI13
Fnan
sI14
Fnan
sI15
Fnan
sI16
Fnan
sI17
Fnan
sI18
Fnan
sI19
Fnan
sI20
Fnan
sI21
Fnan
sI22
Fnan
sI23
Fnan
sI24
Fnan
ssg82
(dp402
I0
g354
sI1
g355
sI2
g356
sI3
g357
sI4
g358
sI5
g359
sI6
g360
sI7
g361
sI8
g362
sI9
g363
sI10
g364
sI11
g365
sI12
g366
sI13
g367
sI14
g368
sI15
g369
sI16
g370
sI17
g371
sI18
g372
sI19
g373
sI20
g374
sI21
g375
sI22
g376
sI23
g377
sI24
g378
ssg84
(dp403
I0
F6294.7080000000005
sI1
F7277.908
sI2
F7440.46
sI3
F7271.611999999999
sI4
F7464.12
sI5
F6949.7880000000005
sI6
F6955.348000000001
sI7
F7526.1
sI8
F6506.3240000000005
sI9
F6436.215999999999
sI10
F6376.272
sI11
F7232.764
sI12
F7405.696
sI13
F6360.9
sI14
F7447.82
sI15
F7211.7919999999995
sI16
F7251.268
sI17
F6257.804
sI18
F7491.74
sI19
F6941.651999999999
sI20
F6961.556
sI21
F5969.1
sI22
F6215.2119999999995
sI23
F7147.3
sI24
F6508.94
ssg86
(dp404
I0
F1.481538
sI1
F1.2307059999999999
sI2
F1.184107
sI3
F1.1923219999999999
sI4
F1.18614
sI5
F1.288253
sI6
F1.282717
sI7
F1.188177
sI8
F1.399256
sI9
F1.402834
sI10
F1.392148
sI11
F1.27999
sI12
F1.2379
sI13
F1.395693
sI14
F1.233053
sI15
F1.190253
sI16
F1.228377
sI17
F1.473255
sI18
F1.2354610000000001
sI19
F1.406474
sI20
F1.285468
sI21
F1.469184
sI22
F1.477354
sI23
F1.291038
sI24
F1.4857069999999999
ssg88
(dp405
I0
F5381.272
sI1
F6292.552
sI2
F6389.08
sI3
F6320.644
sI4
F6425.488
sI5
F6012.736
sI6
F5980.691999999999
sI7
F6457.48
sI8
F5574.456
sI9
F5559.156
sI10
F5474.88
sI11
F6237.804
sI12
F6393.816
sI13
F5448.28
sI14
F6418.2880000000005
sI15
F6289.72
sI16
F6268.18
sI17
F5328.871999999999
sI18
F6419.26
sI19
F5935.232
sI20
F6040.164000000001
sI21
F5163.64
sI22
F5324.715999999999
sI23
F6116.18
sI24
F5574.72
ssg90
(dp406
I0
F8871.196
sI1
F10340.348
sI2
F10506.532
sI3
F10312.088
sI4
F10503.284
sI5
F9885.908000000001
sI6
F9893.652
sI7
F10561.803999999998
sI8
F9231.428
sI9
F9126.948
sI10
F9013.676
sI11
F10269.356
sI12
F10480.084
sI13
F9020.056
sI14
F10572.923999999999
sI15
F10195.828000000001
sI16
F10312.735999999999
sI17
F8893.308
sI18
F10555.552
sI19
F9717.516
sI20
F9888.488000000001
sI21
F8487.868
sI22
F8895.116
sI23
F10078.24
sI24
F9200.972
ssg92
(dp407
I0
F-3.29274
sI1
F-2.006225
sI2
F61.1156
sI3
F31.55086
sI4
F53.71165
sI5
F-4.294609
sI6
F-4.737146
sI7
F44.50931
sI8
F-2.969972
sI9
F-2.928211
sI10
F-3.469922
sI11
F-6.17806
sI12
F-3.821125
sI13
F-2.415244
sI14
F-3.951857
sI15
F36.91303
sI16
F-2.294381
sI17
F-1.536519
sI18
F-4.513518
sI19
F-5.057603
sI20
F-4.21618
sI21
F-1.847646
sI22
F-2.312909
sI23
F-3.657847
sI24
F-2.905136
ssg94
(dp408
I0
F11.673
sI1
F11.503
sI2
F11.486
sI3
F11.498
sI4
F11.48
sI5
F11.552
sI6
F11.558
sI7
F11.475
sI8
F11.634
sI9
F11.637
sI10
F11.654
sI11
F11.512
sI12
F11.486
sI13
F11.659
sI14
F11.481
sI15
F11.503
sI16
F11.507
sI17
F11.683
sI18
F11.481
sI19
F11.566
sI20
F11.547
sI21
F11.718
sI22
F11.684
sI23
F11.534
sI24
F11.634
ssg96
(dp409
I0
F0.002
sI1
F0.002
sI2
F0.002
sI3
F0.002
sI4
F0.002
sI5
F0.002
sI6
F0.002
sI7
F0.002
sI8
F0.002
sI9
F0.002
sI10
F0.002
sI11
F0.002
sI12
F0.002
sI13
F0.002
sI14
F0.002
sI15
F0.002
sI16
F0.002
sI17
F0.002
sI18
F0.002
sI19
F0.002
sI20
F0.002
sI21
F0.002
sI22
F0.002
sI23
F0.002
sI24
F0.002
ssg98
(dp410
I0
F11.542439999999997
sI1
Fnan
sI2
Fnan
sI3
Fnan
sI4
Fnan
sI5
Fnan
sI6
Fnan
sI7
Fnan
sI8
Fnan
sI9
Fnan
sI10
Fnan
sI11
Fnan
sI12
Fnan
sI13
Fnan
sI14
Fnan
sI15
Fnan
sI16
Fnan
sI17
Fnan
sI18
Fnan
sI19
Fnan
sI20
Fnan
sI21
Fnan
sI22
Fnan
sI23
Fnan
sI24
Fnan
ssg100
(dp411
I0
F11.565800000000001
sI1
Fnan
sI2
Fnan
sI3
Fnan
sI4
Fnan
sI5
Fnan
sI6
Fnan
sI7
Fnan
sI8
Fnan
sI9
Fnan
sI10
Fnan
sI11
Fnan
sI12
Fnan
sI13
Fnan
sI14
Fnan
sI15
Fnan
sI16
Fnan
sI17
Fnan
sI18
Fnan
sI19
Fnan
sI20
Fnan
sI21
Fnan
sI22
Fnan
sI23
Fnan
sI24
Fnan
ssg102
(dp412
I0
F11.503
sI1
F11.345
sI2
F11.321
sI3
F11.346
sI4
F11.318
sI5
F11.395
sI6
F11.394
sI7
F11.309
sI8
F11.467
sI9
F11.478
sI10
F11.489
sI11
F11.352
sI12
F11.326
sI13
F11.491
sI14
F11.32
sI15
F11.355
sI16
F11.349
sI17
F11.509
sI18
F11.314
sI19
F11.396
sI20
F11.393
sI21
F11.56
sI22
F11.516
sI23
F11.365
sI24
F11.466
ssg104
(dp413
I0
F4.394884
sI1
F4.063065
sI2
F-2.097383
sI3
F5.579525
sI4
F4.50638
sI5
F3.362441
sI6
F2.693957
sI7
F0.9553921
sI8
F2.295859
sI9
F3.601552
sI10
F3.926914
sI11
F-2.867065
sI12
F4.925206
sI13
F-3.506493
sI14
F4.22519
sI15
F-3.834048
sI16
F-2.675064
sI17
F4.560597
sI18
F4.428709
sI19
F2.048406
sI20
F3.2042
sI21
F3.711742
sI22
F5.157979
sI23
F-3.097618
sI24
F-1.607938
ssg106
(dp414
I0
F0.07655274869874597
sI1
Fnan
sI2
Fnan
sI3
Fnan
sI4
Fnan
sI5
Fnan
sI6
Fnan
sI7
Fnan
sI8
Fnan
sI9
Fnan
sI10
Fnan
sI11
Fnan
sI12
Fnan
sI13
Fnan
sI14
Fnan
sI15
Fnan
sI16
Fnan
sI17
Fnan
sI18
Fnan
sI19
Fnan
sI20
Fnan
sI21
Fnan
sI22
Fnan
sI23
Fnan
sI24
Fnan
ssg108
(dp415
I0
F0.7096539711711217
sI1
F0.7143217807710365
sI2
F0.7119945225361443
sI3
F0.7189208187127852
sI4
F0.7152383282526514
sI5
F0.7142842208602482
sI6
F0.7099165529111519
sI7
F0.7140108660461709
sI8
F0.7084183306484941
sI9
F0.7143992057142108
sI10
F0.7114877841042738
sI11
F0.7128055344152595
sI12
F0.7149608236263669
sI13
F0.7084449107064607
sI14
F0.7123221993498161
sI15
F0.7226398554196379
sI16
F0.7137529688560763
sI17
F0.7034298208606733
sI18
F0.711382073277254
sI19
F0.712548429789531
sI20
F0.7169315403568086
sI21
F0.7143461893254519
sI22
F0.7047783476308389
sI23
F0.7101292615500008
sI24
F0.7097073490927257
ssg110
(dp416
I0
F25.0
sI1
F25.0
sI2
F25.0
sI3
F25.0
sI4
F25.0
sI5
F25.0
sI6
F25.0
sI7
F25.0
sI8
F25.0
sI9
F25.0
sI10
F25.0
sI11
F25.0
sI12
F25.0
sI13
F25.0
sI14
F25.0
sI15
F25.0
sI16
F25.0
sI17
F25.0
sI18
F25.0
sI19
F25.0
sI20
F25.0
sI21
F25.0
sI22
F25.0
sI23
F25.0
sI24
F25.0
ssg112
(dp417
I0
F0.003
sI1
F0.003
sI2
F0.003
sI3
F0.003
sI4
F0.003
sI5
F0.003
sI6
F0.003
sI7
F0.003
sI8
F0.003
sI9
F0.003
sI10
F0.003
sI11
F0.003
sI12
F0.003
sI13
F0.003
sI14
F0.003
sI15
F0.003
sI16
F0.003
sI17
F0.003
sI18
F0.003
sI19
F0.003
sI20
F0.003
sI21
F0.003
sI22
F0.003
sI23
F0.003
sI24
F0.003
ssg114
(dp418
I0
F0.003
sI1
F0.002
sI2
F0.003
sI3
F0.003
sI4
F0.003
sI5
F0.003
sI6
F0.003
sI7
F0.003
sI8
F0.003
sI9
F0.003
sI10
F0.003
sI11
F0.002
sI12
F0.002
sI13
F0.003
sI14
F0.002
sI15
F0.003
sI16
F0.002
sI17
F0.003
sI18
F0.002
sI19
F0.003
sI20
F0.003
sI21
F0.003
sI22
F0.003
sI23
F0.002
sI24
F0.003
ssg116
(dp419
I0
F3.831118
sI1
F3.990729
sI2
F3.909992
sI3
F4.157578
sI4
F4.810228
sI5
F-1.593115
sI6
F1.845864
sI7
F-3.238904
sI8
F2.446215
sI9
F1.293107
sI10
F-1.322872
sI11
F3.075416
sI12
F2.804106
sI13
F-3.287081
sI14
F2.706459
sI15
F5.352464
sI16
F3.074511
sI17
F3.047065
sI18
F4.030694
sI19
F3.914565
sI20
F2.394386
sI21
F2.89511
sI22
F2.642202
sI23
F3.777419
sI24
F4.366132
ssg118
(dp420
I0
S"KIC8462852-20180326at110707_-35-1-025-g'_cal.fts.mag.1"
p421
sI1
S"KIC8462852-20180326at121538_-35-1-025-g'_cal.fts.mag.1"
p422
sI2
S"KIC8462852-20180326at123407_-35-1-025-g'_cal.fts.mag.1"
p423
sI3
S"KIC8462852-20180326at123031_-35-1-025-g'_cal.fts.mag.1"
p424
sI4
S"KIC8462852-20180326at123315_-35-1-025-g'_cal.fts.mag.1"
p425
sI5
S"KIC8462852-20180326at115610_-35-1-025-g'_cal.fts.mag.1"
p426
sI6
S"KIC8462852-20180326at115754_-35-1-025-g'_cal.fts.mag.1"
p427
sI7
S"KIC8462852-20180326at123222_-35-1-025-g'_cal.fts.mag.1"
p428
sI8
S"KIC8462852-20180326at112534_-35-1-025-g'_cal.fts.mag.1"
p429
sI9
S"KIC8462852-20180326at112442_-35-1-025-g'_cal.fts.mag.1"
p430
sI10
S"KIC8462852-20180326at112718_-35-1-025-g'_cal.fts.mag.1"
p431
sI11
S"KIC8462852-20180326at115846_-35-1-025-g'_cal.fts.mag.1"
p432
sI12
S"KIC8462852-20180326at121253_-35-1-025-g'_cal.fts.mag.1"
p433
sI13
S"KIC8462852-20180326at112626_-35-1-025-g'_cal.fts.mag.1"
p434
sI14
S"KIC8462852-20180326at121446_-35-1-025-g'_cal.fts.mag.1"
p435
sI15
S"KIC8462852-20180326at123130_-35-1-025-g'_cal.fts.mag.1"
p436
sI16
S"KIC8462852-20180326at121630_-35-1-025-g'_cal.fts.mag.1"
p437
sI17
S"KIC8462852-20180326at110851_-35-1-025-g'_cal.fts.mag.1"
p438
sI18
S"KIC8462852-20180326at121353_-35-1-025-g'_cal.fts.mag.1"
p439
sI19
S"KIC8462852-20180326at112342_-35-1-025-g'_cal.fts.mag.1"
p440
sI20
S"KIC8462852-20180326at115701_-35-1-025-g'_cal.fts.mag.1"
p441
sI21
S"KIC8462852-20180326at110943_-35-1-025-g'_cal.fts.mag.1"
p442
sI22
S"KIC8462852-20180326at110759_-35-1-025-g'_cal.fts.mag.1"
p443
sI23
S"KIC8462852-20180326at115512_-35-1-025-g'_cal.fts.mag.1"
p444
sI24
S"KIC8462852-20180326at110607_-35-1-025-g'_cal.fts.mag.1"
p445
ssg149
(dp446
I0
F0.007439903872614832
sI1
Fnan
sI2
Fnan
sI3
Fnan
sI4
Fnan
sI5
Fnan
sI6
Fnan
sI7
Fnan
sI8
Fnan
sI9
Fnan
sI10
Fnan
sI11
Fnan
sI12
Fnan
sI13
Fnan
sI14
Fnan
sI15
Fnan
sI16
Fnan
sI17
Fnan
sI18
Fnan
sI19
Fnan
sI20
Fnan
sI21
Fnan
sI22
Fnan
sI23
Fnan
sI24
Fnan
ssg151
(dp447
I0
F5522.0
sI1
F6421.428000000001
sI2
F6599.024
sI3
F6462.588000000001
sI4
F6575.104
sI5
F6135.2
sI6
F6130.204000000001
sI7
F6572.956
sI8
F5690.2080000000005
sI9
F5669.964
sI10
F5574.3640000000005
sI11
F6367.016
sI12
F6512.58
sI13
F5608.964
sI14
F6553.476
sI15
F6400.6359999999995
sI16
F6400.056
sI17
F5482.068
sI18
F6573.972
sI19
F6064.368
sI20
F6172.62
sI21
F5189.308
sI22
F5416.508000000001
sI23
F6289.964
sI24
F5716.596
ssg153
(dp448
I0
F0.08072019573811746
sI1
Fnan
sI2
Fnan
sI3
Fnan
sI4
Fnan
sI5
Fnan
sI6
Fnan
sI7
Fnan
sI8
Fnan
sI9
Fnan
sI10
Fnan
sI11
Fnan
sI12
Fnan
sI13
Fnan
sI14
Fnan
sI15
Fnan
sI16
Fnan
sI17
Fnan
sI18
Fnan
sI19
Fnan
sI20
Fnan
sI21
Fnan
sI22
Fnan
sI23
Fnan
sI24
Fnan
ssg155
(dp449
I0
S"g'"
p450
sI1
S"g'"
p451
sI2
S"g'"
p452
sI3
S"g'"
p453
sI4
S"g'"
p454
sI5
S"g'"
p455
sI6
S"g'"
p456
sI7
S"g'"
p457
sI8
S"g'"
p458
sI9
S"g'"
p459
sI10
S"g'"
p460
sI11
S"g'"
p461
sI12
S"g'"
p462
sI13
S"g'"
p463
sI14
S"g'"
p464
sI15
S"g'"
p465
sI16
S"g'"
p466
sI17
S"g'"
p467
sI18
S"g'"
p468
sI19
S"g'"
p469
sI20
S"g'"
p470
sI21
S"g'"
p471
sI22
S"g'"
p472
sI23
S"g'"
p473
sI24
S"g'"
p474
ssg186
(dp475
I0
F0.08192988872607279
sI1
Fnan
sI2
Fnan
sI3
Fnan
sI4
Fnan
sI5
Fnan
sI6
Fnan
sI7
Fnan
sI8
Fnan
sI9
Fnan
sI10
Fnan
sI11
Fnan
sI12
Fnan
sI13
Fnan
sI14
Fnan
sI15
Fnan
sI16
Fnan
sI17
Fnan
sI18
Fnan
sI19
Fnan
sI20
Fnan
sI21
Fnan
sI22
Fnan
sI23
Fnan
sI24
Fnan
ssg188
(dp476
I0
F4.075163
sI1
F3.475994
sI2
F6.173621
sI3
F2.068443
sI4
F-3.04393
sI5
F-2.819117
sI6
F3.819491
sI7
F-2.567631
sI8
F-1.409018
sI9
F1.882563
sI10
F4.608812
sI11
F1.491332
sI12
F-3.039635
sI13
F-3.238619
sI14
F2.669795
sI15
F4.625062
sI16
F4.501381
sI17
F2.408286
sI18
F2.427093
sI19
F3.202991
sI20
F-1.377432
sI21
F3.38542
sI22
F-3.251548
sI23
F3.772451
sI24
F3.983951
ssg190
(dp477
I0
F1.522148577555515
sI1
Fnan
sI2
Fnan
sI3
Fnan
sI4
Fnan
sI5
Fnan
sI6
Fnan
sI7
Fnan
sI8
Fnan
sI9
Fnan
sI10
Fnan
sI11
Fnan
sI12
Fnan
sI13
Fnan
sI14
Fnan
sI15
Fnan
sI16
Fnan
sI17
Fnan
sI18
Fnan
sI19
Fnan
sI20
Fnan
sI21
Fnan
sI22
Fnan
sI23
Fnan
sI24
Fnan
ssg192
(dp478
I0
F2458203.997939815
sI1
Fnan
sI2
Fnan
sI3
Fnan
sI4
Fnan
sI5
Fnan
sI6
Fnan
sI7
Fnan
sI8
Fnan
sI9
Fnan
sI10
Fnan
sI11
Fnan
sI12
Fnan
sI13
Fnan
sI14
Fnan
sI15
Fnan
sI16
Fnan
sI17
Fnan
sI18
Fnan
sI19
Fnan
sI20
Fnan
sI21
Fnan
sI22
Fnan
sI23
Fnan
sI24
Fnan
ssg194
(dp479
I0
F0.0043523081215945895
sI1
Fnan
sI2
Fnan
sI3
Fnan
sI4
Fnan
sI5
Fnan
sI6
Fnan
sI7
Fnan
sI8
Fnan
sI9
Fnan
sI10
Fnan
sI11
Fnan
sI12
Fnan
sI13
Fnan
sI14
Fnan
sI15
Fnan
sI16
Fnan
sI17
Fnan
sI18
Fnan
sI19
Fnan
sI20
Fnan
sI21
Fnan
sI22
Fnan
sI23
Fnan
sI24
Fnan
ssg196
(dp480
I0
F-0.1026157
sI1
F-1.138332
sI2
F64.26457
sI3
F32.96357
sI4
F52.23068
sI5
F-2.211062
sI6
F-2.248446
sI7
F45.91426
sI8
F-1.331936
sI9
F0.492401
sI10
F0.7143348
sI11
F-3.741921
sI12
F-2.425112
sI13
F1.262287
sI14
F-3.374076
sI15
F41.34944
sI16
F-0.131761
sI17
F0.1011489
sI18
F-3.44632
sI19
F-2.182355
sI20
F-1.330437
sI21
F2.613196
sI22
F0.1897785
sI23
F-2.503294
sI24
F-0.5240869
ssg198
(dp481
I0
F11.13
sI1
F10.964
sI2
F10.946
sI3
F10.967
sI4
F10.947
sI5
F11.012
sI6
F11.012
sI7
F10.941
sI8
F11.087
sI9
F11.099
sI10
F11.113
sI11
F10.971
sI12
F10.949
sI13
F11.112
sI14
F10.94
sI15
F10.979
sI16
F10.967
sI17
F11.127
sI18
F10.941
sI19
F11.031
sI20
F11.012
sI21
F11.178
sI22
F11.127
sI23
F10.992
sI24
F11.09
ssg200
(dp482
I0
F0.8052398536912879
sI1
Fnan
sI2
Fnan
sI3
Fnan
sI4
Fnan
sI5
Fnan
sI6
Fnan
sI7
Fnan
sI8
Fnan
sI9
Fnan
sI10
Fnan
sI11
Fnan
sI12
Fnan
sI13
Fnan
sI14
Fnan
sI15
Fnan
sI16
Fnan
sI17
Fnan
sI18
Fnan
sI19
Fnan
sI20
Fnan
sI21
Fnan
sI22
Fnan
sI23
Fnan
sI24
Fnan
sss.