(dp0
S'i'
p1
(dp2
S'sigmean'
p3
(dp4
I0
F0.4390737787389282
sI1
Fnan
sI2
Fnan
sI3
Fnan
sI4
Fnan
sI5
Fnan
sI6
Fnan
sI7
Fnan
sI8
Fnan
sI9
Fnan
sI10
Fnan
sI11
Fnan
sI12
Fnan
sI13
Fnan
sI14
Fnan
ssS'ref3flag'
p5
(dp6
I0
S'NoError'
p7
sI1
S'NoError'
p8
sI2
S'NoError'
p9
sI3
S'NoError'
p10
sI4
S'NoError'
p11
sI5
S'NoError'
p12
sI6
S'NoError'
p13
sI7
S'NoError'
p14
sI8
S'NoError'
p15
sI9
S'NoError'
p16
sI10
S'NoError'
p17
sI11
S'NoError'
p18
sI12
S'NoError'
p19
sI13
S'NoError'
p20
sI14
S'NoError'
p21
ssS'tabbyerr'
p22
(dp23
I0
F0.003
sI1
F0.003
sI2
F0.003
sI3
F0.003
sI4
F0.003
sI5
F0.003
sI6
F0.003
sI7
F0.003
sI8
F0.003
sI9
F0.003
sI10
F0.003
sI11
F0.003
sI12
F0.003
sI13
F0.003
sI14
F0.003
ssS'ref2rel'
p24
(dp25
I0
F0.9080172362953892
sI1
F0.9096409697929961
sI2
F0.9108104258652613
sI3
F0.9125983569357686
sI4
F0.9113865279792168
sI5
F0.9106978765795467
sI6
F0.9085034813875104
sI7
F0.9059682748780595
sI8
F0.908509069437228
sI9
F0.9115928321145056
sI10
F0.9122122912676801
sI11
F0.9146893844173636
sI12
F0.9101647879410358
sI13
F0.9082349841699866
sI14
F0.909363970661929
ssS'ref2err'
p26
(dp27
I0
F0.002190611954182932
sI1
Fnan
sI2
Fnan
sI3
Fnan
sI4
Fnan
sI5
Fnan
sI6
Fnan
sI7
Fnan
sI8
Fnan
sI9
Fnan
sI10
Fnan
sI11
Fnan
sI12
Fnan
sI13
Fnan
sI14
Fnan
ssS'ref2mean'
p28
(dp29
I0
F0.9101593646482318
sI1
Fnan
sI2
Fnan
sI3
Fnan
sI4
Fnan
sI5
Fnan
sI6
Fnan
sI7
Fnan
sI8
Fnan
sI9
Fnan
sI10
Fnan
sI11
Fnan
sI12
Fnan
sI13
Fnan
sI14
Fnan
ssS'tabbymag'
p30
(dp31
I0
F11.928
sI1
F11.979
sI2
F11.946
sI3
F11.927
sI4
F11.922
sI5
F11.966
sI6
F11.937
sI7
F11.942
sI8
F12.029
sI9
F11.954
sI10
F11.928
sI11
F11.947
sI12
F11.952
sI13
F11.936
sI14
F11.937
ssS'tabbybkg'
p32
(dp33
I0
F22.40223
sI1
F23.61722
sI2
F21.6691
sI3
F17.85825
sI4
F17.49415
sI5
F18.08946
sI6
F17.27669
sI7
F17.96114
sI8
F18.2336
sI9
F23.49044
sI10
F18.40722
sI11
F17.66965
sI12
F18.55844
sI13
F17.90164
sI14
F22.49582
ssS'JD'
p34
(dp35
I0
F2458442.6318171294
sI1
F2458442.630335648
sI2
F2458442.6333217593
sI3
F2458442.611412037
sI4
F2458442.5947453706
sI5
F2458442.6128935185
sI6
F2458442.5925347223
sI7
F2458442.5940046296
sI8
F2458442.614375
sI9
F2458442.631076389
sI10
F2458442.595497685
sI11
F2458442.5932754627
sI12
F2458442.6136342594
sI13
F2458442.6121643516
sI14
F2458442.6325578704
ssS'ref3rmsmean'
p36
(dp37
I0
F1.8391316666666666
sI1
Fnan
sI2
Fnan
sI3
Fnan
sI4
Fnan
sI5
Fnan
sI6
Fnan
sI7
Fnan
sI8
Fnan
sI9
Fnan
sI10
Fnan
sI11
Fnan
sI12
Fnan
sI13
Fnan
sI14
Fnan
ssS'ref1rmsmean'
p38
(dp39
I0
F2.0077838
sI1
Fnan
sI2
Fnan
sI3
Fnan
sI4
Fnan
sI5
Fnan
sI6
Fnan
sI7
Fnan
sI8
Fnan
sI9
Fnan
sI10
Fnan
sI11
Fnan
sI12
Fnan
sI13
Fnan
sI14
Fnan
ssS'relflux'
p40
(dp41
I0
F0.43971328639108825
sI1
F0.4372510150969024
sI2
F0.4388368740982653
sI3
F0.4397198091503502
sI4
F0.4420108660272639
sI5
F0.4393420199642114
sI6
F0.44246822420625215
sI7
F0.438233339211351
sI8
F0.4380904258981107
sI9
F0.4387014735845721
sI10
F0.43881972417925913
sI11
F0.4384273663555883
sI12
F0.44016885749307766
sI13
F0.43905580797617305
sI14
F0.4397763605650921
ssS'sigerr'
p42
(dp43
I0
F0.0006417339380903696
sI1
Fnan
sI2
Fnan
sI3
Fnan
sI4
Fnan
sI5
Fnan
sI6
Fnan
sI7
Fnan
sI8
Fnan
sI9
Fnan
sI10
Fnan
sI11
Fnan
sI12
Fnan
sI13
Fnan
sI14
Fnan
ssS'tabbyrmsmean'
p44
(dp45
I0
F3.0689098666666665
sI1
Fnan
sI2
Fnan
sI3
Fnan
sI4
Fnan
sI5
Fnan
sI6
Fnan
sI7
Fnan
sI8
Fnan
sI9
Fnan
sI10
Fnan
sI11
Fnan
sI12
Fnan
sI13
Fnan
sI14
Fnan
ssS'tabbyflag'
p46
(dp47
I0
g7
sI1
g8
sI2
g9
sI3
g10
sI4
g11
sI5
g12
sI6
g13
sI7
g14
sI8
g15
sI9
g16
sI10
g17
sI11
g18
sI12
g19
sI13
g20
sI14
g21
ssS'ref1err'
p48
(dp49
I0
F0.001410844155228474
sI1
Fnan
sI2
Fnan
sI3
Fnan
sI4
Fnan
sI5
Fnan
sI6
Fnan
sI7
Fnan
sI8
Fnan
sI9
Fnan
sI10
Fnan
sI11
Fnan
sI12
Fnan
sI13
Fnan
sI14
Fnan
ssS'ref2magmeanerr'
p50
(dp51
I0
F0.025915981463917295
sI1
Fnan
sI2
Fnan
sI3
Fnan
sI4
Fnan
sI5
Fnan
sI6
Fnan
sI7
Fnan
sI8
Fnan
sI9
Fnan
sI10
Fnan
sI11
Fnan
sI12
Fnan
sI13
Fnan
sI14
Fnan
ssS'ref2rmsmean'
p52
(dp53
I0
F2.2993584666666664
sI1
Fnan
sI2
Fnan
sI3
Fnan
sI4
Fnan
sI5
Fnan
sI6
Fnan
sI7
Fnan
sI8
Fnan
sI9
Fnan
sI10
Fnan
sI11
Fnan
sI12
Fnan
sI13
Fnan
sI14
Fnan
ssS'ref3rel'
p54
(dp55
I0
F1.5018244790407211
sI1
F1.4996114644490495
sI2
F1.50070944431688
sI3
F1.4942116068449542
sI4
F1.5023736798592278
sI5
F1.5006770328660366
sI6
F1.5042323407733298
sI7
F1.503871872060551
sI8
F1.5039052810598437
sI9
F1.4995896235134636
sI10
F1.501662131390894
sI11
F1.4975684562657365
sI12
F1.49803897381495
sI13
F1.5019255798539535
sI14
F1.5005478191609025
ssS'ref1flag'
p56
(dp57
I0
g7
sI1
g8
sI2
g9
sI3
g10
sI4
g11
sI5
g12
sI6
g13
sI7
g14
sI8
g15
sI9
g16
sI10
g17
sI11
g18
sI12
g19
sI13
g20
sI14
g21
ssS'ref2bkg'
p58
(dp59
I0
F23.73879
sI1
F25.91593
sI2
F23.47614
sI3
F18.88394
sI4
F19.0567
sI5
F20.53984
sI6
F18.68943
sI7
F19.04468
sI8
F21.41002
sI9
F24.69729
sI10
F18.2353
sI11
F18.65366
sI12
F20.70088
sI13
F19.64469
sI14
F23.47538
ssS'ref3magmean'
p60
(dp61
I0
F10.782666666666666
sI1
Fnan
sI2
Fnan
sI3
Fnan
sI4
Fnan
sI5
Fnan
sI6
Fnan
sI7
Fnan
sI8
Fnan
sI9
Fnan
sI10
Fnan
sI11
Fnan
sI12
Fnan
sI13
Fnan
sI14
Fnan
ssS'ref1mean'
p62
(dp63
I0
F0.6974537621251385
sI1
Fnan
sI2
Fnan
sI3
Fnan
sI4
Fnan
sI5
Fnan
sI6
Fnan
sI7
Fnan
sI8
Fnan
sI9
Fnan
sI10
Fnan
sI11
Fnan
sI12
Fnan
sI13
Fnan
sI14
Fnan
ssS'ref1rms'
p64
(dp65
I0
F3.511708
sI1
F3.524419
sI2
F2.512205
sI3
F2.108921
sI4
F-3.082775
sI5
F2.953831
sI6
F4.272752
sI7
F4.390466
sI8
F-2.597092
sI9
F-1.986087
sI10
F3.099781
sI11
F3.49369
sI12
F3.207835
sI13
F3.231425
sI14
F1.475678
ssS'ref2magmean'
p66
(dp67
I0
F11.125066666666667
sI1
Fnan
sI2
Fnan
sI3
Fnan
sI4
Fnan
sI5
Fnan
sI6
Fnan
sI7
Fnan
sI8
Fnan
sI9
Fnan
sI10
Fnan
sI11
Fnan
sI12
Fnan
sI13
Fnan
sI14
Fnan
ssS'ref2flag'
p68
(dp69
I0
g7
sI1
g8
sI2
g9
sI3
g10
sI4
g11
sI5
g12
sI6
g13
sI7
g14
sI8
g15
sI9
g16
sI10
g17
sI11
g18
sI12
g19
sI13
g20
sI14
g21
ssS'ref2'
p70
(dp71
I0
F9058.593333333332
sI1
F8703.526666666667
sI2
F8952.72
sI3
F9105.816666666668
sI4
F9088.55
sI5
F8779.153333333332
sI6
F8932.666666666666
sI7
F8963.506666666666
sI8
F8287.946666666667
sI9
F8890.97
sI10
F9105.596666666668
sI11
F8976.546666666667
sI12
F8868.956666666667
sI13
F9009.19
sI14
F8997.736666666666
ssS'airmass'
p72
(dp73
I0
F1.262451
sI1
F1.256122
sI2
F1.2689620000000001
sI3
F1.184669
sI4
F1.134118
sI5
F1.189655
sI6
F1.128147
sI7
F1.13211
sI8
F1.194769
sI9
F1.259267
sI10
F1.136158
sI11
F1.130115
sI12
F1.192199
sI13
F1.1871559999999999
sI14
F1.265725
ssS'ref1'
p74
(dp75
I0
F7510.52
sI1
F7206.6433333333325
sI2
F7393.406666666667
sI3
F7528.333333333333
sI4
F7490.490000000001
sI5
F7251.58
sI6
F7388.876666666666
sI7
F7447.59
sI8
F6856.929999999999
sI9
F7338.03
sI10
F7497.583333333333
sI11
F7380.003333333333
sI12
F7344.493333333333
sI13
F7466.366666666667
sI14
F7449.296666666666
ssS'ref3'
p76
(dp77
I0
F12441.95
sI1
F11929.536666666665
sI2
F12265.393333333333
sI3
F12427.47
sI4
F12453.956666666667
sI5
F12028.476666666666
sI6
F12275.696666666667
sI7
F12340.093333333332
sI8
F11388.230000000001
sI9
F12168.42
sI10
F12466.183333333332
sI11
F12247.526666666667
sI12
F12144.19
sI13
F12372.53
sI14
F12339.78
ssS'ref1bkg'
p78
(dp79
I0
F22.68922
sI1
F24.0253
sI2
F22.97431
sI3
F18.95264
sI4
F19.09202
sI5
F19.81153
sI6
F17.97533
sI7
F18.64523
sI8
F20.86334
sI9
F24.23161
sI10
F19.03098
sI11
F18.83964
sI12
F19.95787
sI13
F19.49376
sI14
F23.09228
ssS'ref1mag'
p80
(dp81
I0
F11.311
sI1
F11.356
sI2
F11.328
sI3
F11.308
sI4
F11.314
sI5
F11.349
sI6
F11.329
sI7
F11.32
sI8
F11.41
sI9
F11.336
sI10
F11.313
sI11
F11.33
sI12
F11.335
sI13
F11.317
sI14
F11.32
ssS'ref3magerr'
p82
(dp83
I0
F0.002
sI1
F0.002
sI2
F0.002
sI3
F0.002
sI4
F0.002
sI5
F0.002
sI6
F0.002
sI7
F0.002
sI8
F0.002
sI9
F0.002
sI10
F0.002
sI11
F0.002
sI12
F0.002
sI13
F0.002
sI14
F0.002
ssS'tabbymagmean'
p84
(dp85
I0
F0.4393743633465038
sI1
Fnan
sI2
Fnan
sI3
Fnan
sI4
Fnan
sI5
Fnan
sI6
Fnan
sI7
Fnan
sI8
Fnan
sI9
Fnan
sI10
Fnan
sI11
Fnan
sI12
Fnan
sI13
Fnan
sI14
Fnan
ssS'ref1magmean'
p86
(dp87
I0
F11.331733333333334
sI1
Fnan
sI2
Fnan
sI3
Fnan
sI4
Fnan
sI5
Fnan
sI6
Fnan
sI7
Fnan
sI8
Fnan
sI9
Fnan
sI10
Fnan
sI11
Fnan
sI12
Fnan
sI13
Fnan
sI14
Fnan
ssS'ref2mag'
p88
(dp89
I0
F11.107
sI1
F11.151
sI2
F11.12
sI3
F11.102
sI4
F11.104
sI5
F11.141
sI6
F11.123
sI7
F11.119
sI8
F11.204
sI9
F11.128
sI10
F11.102
sI11
F11.117
sI12
F11.13
sI13
F11.113
sI14
F11.115
ssS'ref3rms'
p90
(dp91
I0
F1.810844
sI1
F2.36838
sI2
F-3.748587
sI3
F-3.545333
sI4
F3.033204
sI5
F2.104268
sI6
F-2.405273
sI7
F2.89784
sI8
F3.76504
sI9
F4.465382
sI10
F3.556268
sI11
F4.301991
sI12
F3.647501
sI13
F2.433718
sI14
F2.901732
ssS'ref3magmeanerr'
p92
(dp93
I0
F0.025215263706920153
sI1
Fnan
sI2
Fnan
sI3
Fnan
sI4
Fnan
sI5
Fnan
sI6
Fnan
sI7
Fnan
sI8
Fnan
sI9
Fnan
sI10
Fnan
sI11
Fnan
sI12
Fnan
sI13
Fnan
sI14
Fnan
ssS'ref1rel'
p94
(dp95
I0
F0.6986353678193868
sI1
F0.6985529212902463
sI2
F0.6968957654733361
sI3
F0.6992275215457123
sI4
F0.6954148944598215
sI5
F0.6970116250625372
sI6
F0.6967889554262319
sI7
F0.6991860530614544
sI8
F0.6969778851006454
sI9
F0.6968891311666672
sI10
F0.6951288519847072
sI11
F0.6954370367485223
sI12
F0.6990379356161792
sI13
F0.698387844071166
sI14
F0.6982346430504642
ssS'exposure'
p96
(dp97
I0
F30.0
sI1
F30.0
sI2
F30.0
sI3
F30.0
sI4
F30.0
sI5
F30.0
sI6
F30.0
sI7
F30.0
sI8
F30.0
sI9
F30.0
sI10
F30.0
sI11
F30.0
sI12
F30.0
sI13
F30.0
sI14
F30.0
ssS'ref1magerr'
p98
(dp99
I0
F0.002
sI1
F0.002
sI2
F0.002
sI3
F0.002
sI4
F0.002
sI5
F0.002
sI6
F0.002
sI7
F0.002
sI8
F0.002
sI9
F0.002
sI10
F0.002
sI11
F0.002
sI12
F0.002
sI13
F0.002
sI14
F0.002
ssS'ref2magerr'
p100
(dp101
I0
F0.002
sI1
F0.002
sI2
F0.002
sI3
F0.002
sI4
F0.002
sI5
F0.002
sI6
F0.002
sI7
F0.002
sI8
F0.002
sI9
F0.002
sI10
F0.002
sI11
F0.002
sI12
F0.002
sI13
F0.002
sI14
F0.002
ssS'ref2rms'
p102
(dp103
I0
F3.166802
sI1
F6.275708
sI2
F2.625084
sI3
F3.428946
sI4
F2.159926
sI5
F-1.755776
sI6
F3.522281
sI7
F2.836416
sI8
F-3.058744
sI9
F-2.286339
sI10
F3.196614
sI11
F4.835729
sI12
F2.895119
sI13
F2.842279
sI14
F3.806332
ssS'name'
p104
(dp105
I0
S"KIC8462852-20181120at030949_-35-1X1-030-i'_cal.fts.mag.1"
p106
sI1
S"KIC8462852-20181120at030740_-35-1X1-030-i'_cal.fts.mag.1"
p107
sI2
S"KIC8462852-20181120at031159_-35-1X1-030-i'_cal.fts.mag.1"
p108
sI3
S"KIC8462852-20181120at024025_-35-1X1-030-i'_cal.fts.mag.1"
p109
sI4
S"KIC8462852-20181120at021626_-35-1X1-030-i'_cal.fts.mag.1"
p110
sI5
S"KIC8462852-20181120at024234_-35-1X1-030-i'_cal.fts.mag.1"
p111
sI6
S"KIC8462852-20181120at021313_-35-1X1-030-i'_cal.fts.mag.1"
p112
sI7
S"KIC8462852-20181120at021522_-35-1X1-030-i'_cal.fts.mag.1"
p113
sI8
S"KIC8462852-20181120at024442_-35-1X1-030-i'_cal.fts.mag.1"
p114
sI9
S"KIC8462852-20181120at030845_-35-1X1-030-i'_cal.fts.mag.1"
p115
sI10
S"KIC8462852-20181120at021731_-35-1X1-030-i'_cal.fts.mag.1"
p116
sI11
S"KIC8462852-20181120at021419_-35-1X1-030-i'_cal.fts.mag.1"
p117
sI12
S"KIC8462852-20181120at024338_-35-1X1-030-i'_cal.fts.mag.1"
p118
sI13
S"KIC8462852-20181120at024131_-35-1X1-030-i'_cal.fts.mag.1"
p119
sI14
S"KIC8462852-20181120at031053_-35-1X1-030-i'_cal.fts.mag.1"
p120
ssS'ref3err'
p121
(dp122
I0
F0.0026823465816221475
sI1
Fnan
sI2
Fnan
sI3
Fnan
sI4
Fnan
sI5
Fnan
sI6
Fnan
sI7
Fnan
sI8
Fnan
sI9
Fnan
sI10
Fnan
sI11
Fnan
sI12
Fnan
sI13
Fnan
sI14
Fnan
ssS'tabby'
p123
(dp124
I0
F4252.183333333333
sI1
F4057.6466666666665
sI2
F4185.263333333333
sI3
F4259.656666666667
sI4
F4277.633333333333
sI5
F4109.196666666667
sI6
F4217.79
sI7
F4199.91
sI8
F3874.633333333333
sI9
F4152.663333333333
sI10
F4252.070000000001
sI11
F4180.27
sI12
F4160.716666666666
sI13
F4221.973333333333
sI14
F4219.92
ssS'ref1magmeanerr'
p125
(dp126
I0
F0.02565837837729386
sI1
Fnan
sI2
Fnan
sI3
Fnan
sI4
Fnan
sI5
Fnan
sI6
Fnan
sI7
Fnan
sI8
Fnan
sI9
Fnan
sI10
Fnan
sI11
Fnan
sI12
Fnan
sI13
Fnan
sI14
Fnan
ssS'filter'
p127
(dp128
I0
S"i'"
p129
sI1
S"i'"
p130
sI2
S"i'"
p131
sI3
S"i'"
p132
sI4
S"i'"
p133
sI5
S"i'"
p134
sI6
S"i'"
p135
sI7
S"i'"
p136
sI8
S"i'"
p137
sI9
S"i'"
p138
sI10
S"i'"
p139
sI11
S"i'"
p140
sI12
S"i'"
p141
sI13
S"i'"
p142
sI14
S"i'"
p143
ssS'tabbymagerr'
p144
(dp145
I0
F0.001390216114687701
sI1
Fnan
sI2
Fnan
sI3
Fnan
sI4
Fnan
sI5
Fnan
sI6
Fnan
sI7
Fnan
sI8
Fnan
sI9
Fnan
sI10
Fnan
sI11
Fnan
sI12
Fnan
sI13
Fnan
sI14
Fnan
ssS'tabbyrms'
p146
(dp147
I0
F4.067656
sI1
F6.683314
sI2
F3.507184
sI3
F4.537405
sI4
F3.116159
sI5
F-3.665759
sI6
F4.302493
sI7
F3.49211
sI8
F5.155643
sI9
F1.320664
sI10
F2.39432
sI11
F3.878958
sI12
F3.257459
sI13
F1.104238
sI14
F2.881804
ssS'ref3mean'
p148
(dp149
I0
F1.500716652351366
sI1
Fnan
sI2
Fnan
sI3
Fnan
sI4
Fnan
sI5
Fnan
sI6
Fnan
sI7
Fnan
sI8
Fnan
sI9
Fnan
sI10
Fnan
sI11
Fnan
sI12
Fnan
sI13
Fnan
sI14
Fnan
ssS'median_JD'
p150
(dp151
I0
F2458442.6128935185
sI1
Fnan
sI2
Fnan
sI3
Fnan
sI4
Fnan
sI5
Fnan
sI6
Fnan
sI7
Fnan
sI8
Fnan
sI9
Fnan
sI10
Fnan
sI11
Fnan
sI12
Fnan
sI13
Fnan
sI14
Fnan
ssS'error'
p152
(dp153
I0
F0.001390216114687701
sI1
Fnan
sI2
Fnan
sI3
Fnan
sI4
Fnan
sI5
Fnan
sI6
Fnan
sI7
Fnan
sI8
Fnan
sI9
Fnan
sI10
Fnan
sI11
Fnan
sI12
Fnan
sI13
Fnan
sI14
Fnan
ssS'ref3bkg'
p154
(dp155
I0
F24.02594
sI1
F24.84018
sI2
F24.55022
sI3
F20.71416
sI4
F19.98632
sI5
F20.74232
sI6
F19.33477
sI7
F19.7396
sI8
F22.17481
sI9
F24.43
sI10
F20.20666
sI11
F19.87473
sI12
F20.39933
sI13
F20.78665
sI14
F24.48071
ssS'ref3mag'
p156
(dp157
I0
F10.763
sI1
F10.808
sI2
F10.778
sI3
F10.764
sI4
F10.762
sI5
F10.799
sI6
F10.777
sI7
F10.772
sI8
F10.859
sI9
F10.787
sI10
F10.761
sI11
F10.78
sI12
F10.789
sI13
F10.769
sI14
F10.772
ssS'mean'
p158
(dp159
I0
F0.4393743633465038
sI1
Fnan
sI2
Fnan
sI3
Fnan
sI4
Fnan
sI5
Fnan
sI6
Fnan
sI7
Fnan
sI8
Fnan
sI9
Fnan
sI10
Fnan
sI11
Fnan
sI12
Fnan
sI13
Fnan
sI14
Fnan
sssS'r'
p160
(dp161
g3
(dp162
I0
F0.549847712685971
sI1
Fnan
sI2
Fnan
sI3
Fnan
sI4
Fnan
sI5
Fnan
sI6
Fnan
sI7
Fnan
sI8
Fnan
sI9
Fnan
sI10
Fnan
sI11
Fnan
sI12
Fnan
sI13
Fnan
sI14
Fnan
ssg5
(dp163
I0
S'NoError'
p164
sI1
S'NoError'
p165
sI2
S'NoError'
p166
sI3
S'NoError'
p167
sI4
S'NoError'
p168
sI5
S'NoError'
p169
sI6
S'NoError'
p170
sI7
S'NoError'
p171
sI8
S'NoError'
p172
sI9
S'NoError'
p173
sI10
S'NoError'
p174
sI11
S'NoError'
p175
sI12
S'NoError'
p176
sI13
S'NoError'
p177
sI14
S'NoError'
p178
ssg22
(dp179
I0
F0.002
sI1
F0.002
sI2
F0.002
sI3
F0.002
sI4
F0.002
sI5
F0.002
sI6
F0.002
sI7
F0.002
sI8
F0.002
sI9
F0.002
sI10
F0.002
sI11
F0.002
sI12
F0.002
sI13
F0.002
sI14
F0.002
ssg24
(dp180
I0
F0.8910186810316754
sI1
F0.893760354274834
sI2
F0.8885454022788879
sI3
F0.8925495594796108
sI4
F0.8970359748683484
sI5
F0.8953795528716202
sI6
F0.8911967044907321
sI7
F0.8932705846470774
sI8
F0.8929275442713795
sI9
F0.8901051502305258
sI10
F0.8968034466246546
sI11
F0.8914671932005978
sI12
F0.8925338159172707
sI13
F0.8932777019306385
sI14
F0.8957892866938991
ssg26
(dp181
I0
F0.002435937880306992
sI1
Fnan
sI2
Fnan
sI3
Fnan
sI4
Fnan
sI5
Fnan
sI6
Fnan
sI7
Fnan
sI8
Fnan
sI9
Fnan
sI10
Fnan
sI11
Fnan
sI12
Fnan
sI13
Fnan
sI14
Fnan
ssg28
(dp182
I0
F0.8930440635207834
sI1
Fnan
sI2
Fnan
sI3
Fnan
sI4
Fnan
sI5
Fnan
sI6
Fnan
sI7
Fnan
sI8
Fnan
sI9
Fnan
sI10
Fnan
sI11
Fnan
sI12
Fnan
sI13
Fnan
sI14
Fnan
ssg30
(dp183
I0
F11.21
sI1
F11.214
sI2
F11.203
sI3
F11.206
sI4
F11.214
sI5
F11.263
sI6
F11.2
sI7
F11.215
sI8
F11.257
sI9
F11.266
sI10
F11.281
sI11
F11.229
sI12
F11.206
sI13
F11.204
sI14
F11.25
ssg32
(dp184
I0
F30.90734
sI1
F31.25229
sI2
F32.46443
sI3
F30.68955
sI4
F32.39037
sI5
F36.19184
sI6
F32.083
sI7
F31.40781
sI8
F35.91135
sI9
F35.75352
sI10
F35.75103
sI11
F31.42825
sI12
F31.47235
sI13
F30.74652
sI14
F36.37127
ssg34
(dp185
I0
F2458442.6099074073
sI1
F2458442.5917708334
sI2
F2458442.608414352
sI3
F2458442.589548611
sI4
F2458442.609166667
sI5
F2458442.6288310187
sI6
F2458442.607685185
sI7
F2458442.610648148
sI8
F2458442.628090278
sI9
F2458442.627337963
sI10
F2458442.629571759
sI11
F2458442.588796296
sI12
F2458442.590289352
sI13
F2458442.5910300924
sI14
F2458442.626585648
ssg36
(dp186
I0
F3.1634604
sI1
Fnan
sI2
Fnan
sI3
Fnan
sI4
Fnan
sI5
Fnan
sI6
Fnan
sI7
Fnan
sI8
Fnan
sI9
Fnan
sI10
Fnan
sI11
Fnan
sI12
Fnan
sI13
Fnan
sI14
Fnan
ssg38
(dp187
I0
F2.3122547866666663
sI1
Fnan
sI2
Fnan
sI3
Fnan
sI4
Fnan
sI5
Fnan
sI6
Fnan
sI7
Fnan
sI8
Fnan
sI9
Fnan
sI10
Fnan
sI11
Fnan
sI12
Fnan
sI13
Fnan
sI14
Fnan
ssg40
(dp188
I0
F0.5515729656947067
sI1
F0.5491680990989148
sI2
F0.5507536431711773
sI3
F0.5502966771186579
sI4
F0.5495045529078004
sI5
F0.5513818923673232
sI6
F0.551340075501238
sI7
F0.5497748955997104
sI8
F0.5483072697545665
sI9
F0.548339513788935
sI10
F0.5480805653171841
sI11
F0.5503374659894225
sI12
F0.55053578103354
sI13
F0.5484745802604162
sI14
F0.5521535015975841
ssg42
(dp189
I0
F0.0011812158951811738
sI1
Fnan
sI2
Fnan
sI3
Fnan
sI4
Fnan
sI5
Fnan
sI6
Fnan
sI7
Fnan
sI8
Fnan
sI9
Fnan
sI10
Fnan
sI11
Fnan
sI12
Fnan
sI13
Fnan
sI14
Fnan
ssg44
(dp190
I0
F1.4735715333333337
sI1
Fnan
sI2
Fnan
sI3
Fnan
sI4
Fnan
sI5
Fnan
sI6
Fnan
sI7
Fnan
sI8
Fnan
sI9
Fnan
sI10
Fnan
sI11
Fnan
sI12
Fnan
sI13
Fnan
sI14
Fnan
ssg46
(dp191
I0
g164
sI1
g165
sI2
g166
sI3
g167
sI4
g168
sI5
g169
sI6
g170
sI7
g171
sI8
g172
sI9
g173
sI10
g174
sI11
g175
sI12
g176
sI13
g177
sI14
g178
ssg48
(dp192
I0
F0.002350293625791705
sI1
Fnan
sI2
Fnan
sI3
Fnan
sI4
Fnan
sI5
Fnan
sI6
Fnan
sI7
Fnan
sI8
Fnan
sI9
Fnan
sI10
Fnan
sI11
Fnan
sI12
Fnan
sI13
Fnan
sI14
Fnan
ssg50
(dp193
I0
F0.026089041669599494
sI1
Fnan
sI2
Fnan
sI3
Fnan
sI4
Fnan
sI5
Fnan
sI6
Fnan
sI7
Fnan
sI8
Fnan
sI9
Fnan
sI10
Fnan
sI11
Fnan
sI12
Fnan
sI13
Fnan
sI14
Fnan
ssg52
(dp194
I0
F1.6945505999999997
sI1
Fnan
sI2
Fnan
sI3
Fnan
sI4
Fnan
sI5
Fnan
sI6
Fnan
sI7
Fnan
sI8
Fnan
sI9
Fnan
sI10
Fnan
sI11
Fnan
sI12
Fnan
sI13
Fnan
sI14
Fnan
ssg54
(dp195
I0
F1.4983894684790773
sI1
F1.4986215614778902
sI2
F1.497618459989496
sI3
F1.495228456782521
sI4
F1.49056305022484
sI5
F1.4975388340052056
sI6
F1.4956039329767679
sI7
F1.4955795957078521
sI8
F1.4999798715398973
sI9
F1.5064910035005425
sI10
F1.4962337537720367
sI11
F1.4978655110945902
sI12
F1.4941745090670493
sI13
F1.4902315499200538
sI14
F1.4969295500631463
ssg56
(dp196
I0
g164
sI1
g165
sI2
g166
sI3
g167
sI4
g168
sI5
g169
sI6
g170
sI7
g171
sI8
g172
sI9
g173
sI10
g174
sI11
g175
sI12
g176
sI13
g177
sI14
g178
ssg58
(dp197
I0
F33.41938
sI1
F31.7453
sI2
F32.586
sI3
F31.72946
sI4
F32.21895
sI5
F38.47996
sI6
F31.95266
sI7
F33.45252
sI8
F37.47441
sI9
F37.889
sI10
F37.40025
sI11
F32.76476
sI12
F31.41572
sI13
F30.85794
sI14
F36.99966
ssg60
(dp198
I0
F10.307266666666665
sI1
Fnan
sI2
Fnan
sI3
Fnan
sI4
Fnan
sI5
Fnan
sI6
Fnan
sI7
Fnan
sI8
Fnan
sI9
Fnan
sI10
Fnan
sI11
Fnan
sI12
Fnan
sI13
Fnan
sI14
Fnan
ssg62
(dp199
I0
F0.7147239429811408
sI1
Fnan
sI2
Fnan
sI3
Fnan
sI4
Fnan
sI5
Fnan
sI6
Fnan
sI7
Fnan
sI8
Fnan
sI9
Fnan
sI10
Fnan
sI11
Fnan
sI12
Fnan
sI13
Fnan
sI14
Fnan
ssg64
(dp200
I0
F-3.568456
sI1
F2.649237
sI2
F4.200483
sI3
F3.004456
sI4
F2.534625
sI5
F0.5745438
sI6
F4.570287
sI7
F4.315057
sI8
F2.449116
sI9
F3.781136
sI10
F3.559522
sI11
F2.50754
sI12
F3.862175
sI13
F2.944925
sI14
F-2.700825
ssg66
(dp201
I0
F10.662266666666666
sI1
Fnan
sI2
Fnan
sI3
Fnan
sI4
Fnan
sI5
Fnan
sI6
Fnan
sI7
Fnan
sI8
Fnan
sI9
Fnan
sI10
Fnan
sI11
Fnan
sI12
Fnan
sI13
Fnan
sI14
Fnan
ssg68
(dp202
I0
g164
sI1
g165
sI2
g166
sI3
g167
sI4
g168
sI5
g169
sI6
g170
sI7
g171
sI8
g172
sI9
g173
sI10
g174
sI11
g175
sI12
g176
sI13
g177
sI14
g178
ssg70
(dp203
I0
F13816.863333333335
sI1
F13850.443333333333
sI2
F13899.003333333332
sI3
F13909.013333333334
sI4
F13879.526666666667
sI5
F13205.893333333333
sI6
F13944.69
sI7
F13823.8
sI8
F13328.113333333335
sI9
F13186.619999999999
sI10
F13084.816666666668
sI11
F13616.173333333334
sI12
F13909.803333333333
sI13
F13992.136666666665
sI14
F13346.346666666668
ssg72
(dp204
I0
F1.179629
sI1
F1.126152
sI2
F1.174758
sI3
F1.120417
sI4
F1.177194
sI5
F1.249822
sI6
F1.172368
sI7
F1.182105
sI8
F1.246764
sI9
F1.243702
sI10
F1.2529489999999999
sI11
F1.1185379999999998
sI12
F1.1223040000000002
sI13
F1.124221
sI14
F1.240632
ssg74
(dp205
I0
F11812.356666666667
sI1
F11784.843333333332
sI2
F11937.92
sI3
F11883.83
sI4
F11803.913333333334
sI5
F11213.426666666666
sI6
F11938.673333333334
sI7
F11794.143333333333
sI8
F11346.733333333334
sI9
F11234.359999999999
sI10
F11093.103333333333
sI11
F11635.773333333334
sI12
F11892.6
sI13
F11977.353333333333
sI14
F11329.19
ssg76
(dp206
I0
F19201.27666666667
sI1
F19208.79666666667
sI2
F19346.92666666667
sI3
F19283.096666666668
sI4
F19141.393333333333
sI5
F18284.44
sI6
F19355.63
sI7
F19156.836666666666
sI8
F18505.886666666665
sI9
F18394.993333333336
sI10
F18087.91
sI11
F18912.010000000002
sI12
F19276.646666666667
sI13
F19350.27666666667
sI14
F18468.77
ssg78
(dp207
I0
F32.88208
sI1
F30.9412
sI2
F32.07431
sI3
F31.15326
sI4
F32.53463
sI5
F37.42934
sI6
F31.55309
sI7
F32.0797
sI8
F36.99656
sI9
F36.56935
sI10
F36.76099
sI11
F31.87566
sI12
F31.66889
sI13
F31.105
sI14
F37.06803
ssg80
(dp208
I0
F10.819
sI1
F10.822
sI2
F10.808
sI3
F10.813
sI4
F10.82
sI5
F10.876
sI6
F10.808
sI7
F10.821
sI8
F10.863
sI9
F10.874
sI10
F10.887
sI11
F10.836
sI12
F10.812
sI13
F10.804
sI14
F10.865
ssg82
(dp209
I0
F0.001
sI1
F0.001
sI2
F0.001
sI3
F0.001
sI4
F0.001
sI5
F0.001
sI6
F0.001
sI7
F0.001
sI8
F0.001
sI9
F0.001
sI10
F0.001
sI11
F0.001
sI12
F0.001
sI13
F0.001
sI14
F0.001
ssg84
(dp210
I0
F0.5500014319467451
sI1
Fnan
sI2
Fnan
sI3
Fnan
sI4
Fnan
sI5
Fnan
sI6
Fnan
sI7
Fnan
sI8
Fnan
sI9
Fnan
sI10
Fnan
sI11
Fnan
sI12
Fnan
sI13
Fnan
sI14
Fnan
ssg86
(dp211
I0
F10.835200000000002
sI1
Fnan
sI2
Fnan
sI3
Fnan
sI4
Fnan
sI5
Fnan
sI6
Fnan
sI7
Fnan
sI8
Fnan
sI9
Fnan
sI10
Fnan
sI11
Fnan
sI12
Fnan
sI13
Fnan
sI14
Fnan
ssg88
(dp212
I0
F10.649
sI1
F10.646
sI2
F10.643
sI3
F10.642
sI4
F10.644
sI5
F10.698
sI6
F10.639
sI7
F10.648
sI8
F10.688
sI9
F10.7
sI10
F10.708
sI11
F10.665
sI12
F10.642
sI13
F10.635
sI14
F10.687
ssg90
(dp213
I0
F1.866252
sI1
F5.438401
sI2
F4.651988
sI3
F3.06165
sI4
F-2.721046
sI5
F3.511053
sI6
F3.347462
sI7
F4.373312
sI8
F4.886624
sI9
F5.108291
sI10
F4.561775
sI11
F3.396113
sI12
F-1.710572
sI13
F2.313772
sI14
F5.366831
ssg92
(dp214
I0
F0.02616012960503783
sI1
Fnan
sI2
Fnan
sI3
Fnan
sI4
Fnan
sI5
Fnan
sI6
Fnan
sI7
Fnan
sI8
Fnan
sI9
Fnan
sI10
Fnan
sI11
Fnan
sI12
Fnan
sI13
Fnan
sI14
Fnan
ssg94
(dp215
I0
F0.7155070919601568
sI1
F0.7129530705081745
sI2
F0.7181582828334175
sI3
F0.7160635464271479
sI4
F0.7149354611157615
sI5
F0.7121821511363275
sI6
F0.7170305470538021
sI7
F0.7152162314230643
sI8
F0.7128688404431321
sI9
F0.7114494045269377
sI10
F0.7117185129137457
sI11
F0.7154271859633519
sI12
F0.7167142011272674
sI13
F0.7184454954470403
sI14
F0.7121891218377846
ssg96
(dp216
I0
F30.0
sI1
F30.0
sI2
F30.0
sI3
F30.0
sI4
F30.0
sI5
F30.0
sI6
F30.0
sI7
F30.0
sI8
F30.0
sI9
F30.0
sI10
F30.0
sI11
F30.0
sI12
F30.0
sI13
F30.0
sI14
F30.0
ssg98
(dp217
I0
F0.002
sI1
F0.002
sI2
F0.002
sI3
F0.002
sI4
F0.002
sI5
F0.002
sI6
F0.002
sI7
F0.002
sI8
F0.002
sI9
F0.002
sI10
F0.002
sI11
F0.002
sI12
F0.002
sI13
F0.002
sI14
F0.002
ssg100
(dp218
I0
F0.002
sI1
F0.002
sI2
F0.002
sI3
F0.002
sI4
F0.002
sI5
F0.002
sI6
F0.002
sI7
F0.002
sI8
F0.002
sI9
F0.002
sI10
F0.002
sI11
F0.002
sI12
F0.002
sI13
F0.002
sI14
F0.002
ssg102
(dp219
I0
F-2.521755
sI1
F2.118106
sI2
F4.310738
sI3
F-3.954829
sI4
F-1.739512
sI5
F-1.611452
sI6
F3.85179
sI7
F3.023373
sI8
F2.976622
sI9
F3.321378
sI10
F5.068332
sI11
F3.579034
sI12
F-2.013238
sI13
F4.532037
sI14
F4.477635
ssg104
(dp220
I0
S"KIC8462852-20181120at023816_-35-1X1-030-r'_cal.fts.mag.1"
p221
sI1
S"KIC8462852-20181120at021209_-35-1X1-030-r'_cal.fts.mag.1"
p222
sI2
S"KIC8462852-20181120at023607_-35-1X1-030-r'_cal.fts.mag.1"
p223
sI3
S"KIC8462852-20181120at020857_-35-1X1-030-r'_cal.fts.mag.1"
p224
sI4
S"KIC8462852-20181120at023712_-35-1X1-030-r'_cal.fts.mag.1"
p225
sI5
S"KIC8462852-20181120at030531_-35-1X1-030-r'_cal.fts.mag.1"
p226
sI6
S"KIC8462852-20181120at023502_-35-1X1-030-r'_cal.fts.mag.1"
p227
sI7
S"KIC8462852-20181120at023920_-35-1X1-030-r'_cal.fts.mag.1"
p228
sI8
S"KIC8462852-20181120at030427_-35-1X1-030-r'_cal.fts.mag.1"
p229
sI9
S"KIC8462852-20181120at030322_-35-1X1-030-r'_cal.fts.mag.1"
p230
sI10
S"KIC8462852-20181120at030635_-35-1X1-030-r'_cal.fts.mag.1"
p231
sI11
S"KIC8462852-20181120at020751_-35-1X1-030-r'_cal.fts.mag.1"
p232
sI12
S"KIC8462852-20181120at021001_-35-1X1-030-r'_cal.fts.mag.1"
p233
sI13
S"KIC8462852-20181120at021104_-35-1X1-030-r'_cal.fts.mag.1"
p234
sI14
S"KIC8462852-20181120at030215_-35-1X1-030-r'_cal.fts.mag.1"
p235
ssg121
(dp236
I0
F0.0038436108903475955
sI1
Fnan
sI2
Fnan
sI3
Fnan
sI4
Fnan
sI5
Fnan
sI6
Fnan
sI7
Fnan
sI8
Fnan
sI9
Fnan
sI10
Fnan
sI11
Fnan
sI12
Fnan
sI13
Fnan
sI14
Fnan
ssg123
(dp237
I0
F8242.43
sI1
F8208.98
sI2
F8295.056666666667
sI3
F8268.38
sI4
F8210.483333333334
sI5
F7848.693333333333
sI6
F8314.023333333334
sI7
F8205.35
sI8
F7892.1033333333335
sI9
F7825.8966666666665
sI10
F7721.693333333333
sI11
F8101.693333333333
sI12
F8272.543333333333
sI13
F8285.58
sI14
F7940.759999999999
ssg125
(dp238
I0
F0.029116024061380003
sI1
Fnan
sI2
Fnan
sI3
Fnan
sI4
Fnan
sI5
Fnan
sI6
Fnan
sI7
Fnan
sI8
Fnan
sI9
Fnan
sI10
Fnan
sI11
Fnan
sI12
Fnan
sI13
Fnan
sI14
Fnan
ssg127
(dp239
I0
S"r'"
p240
sI1
S"r'"
p241
sI2
S"r'"
p242
sI3
S"r'"
p243
sI4
S"r'"
p244
sI5
S"r'"
p245
sI6
S"r'"
p246
sI7
S"r'"
p247
sI8
S"r'"
p248
sI9
S"r'"
p249
sI10
S"r'"
p250
sI11
S"r'"
p251
sI12
S"r'"
p252
sI13
S"r'"
p253
sI14
S"r'"
p254
ssg144
(dp255
I0
F0.0013227679910034222
sI1
Fnan
sI2
Fnan
sI3
Fnan
sI4
Fnan
sI5
Fnan
sI6
Fnan
sI7
Fnan
sI8
Fnan
sI9
Fnan
sI10
Fnan
sI11
Fnan
sI12
Fnan
sI13
Fnan
sI14
Fnan
ssg146
(dp256
I0
F4.567927
sI1
F2.621905
sI2
F-3.584517
sI3
F2.71864
sI4
F3.198139
sI5
F4.668816
sI6
F2.576681
sI7
F-3.616693
sI8
F3.208053
sI9
F2.064382
sI10
F5.251823
sI11
F2.663327
sI12
F-3.617724
sI13
F3.061368
sI14
F-3.678554
ssg148
(dp257
I0
F1.4967366072400645
sI1
Fnan
sI2
Fnan
sI3
Fnan
sI4
Fnan
sI5
Fnan
sI6
Fnan
sI7
Fnan
sI8
Fnan
sI9
Fnan
sI10
Fnan
sI11
Fnan
sI12
Fnan
sI13
Fnan
sI14
Fnan
ssg150
(dp258
I0
F2458442.609166667
sI1
Fnan
sI2
Fnan
sI3
Fnan
sI4
Fnan
sI5
Fnan
sI6
Fnan
sI7
Fnan
sI8
Fnan
sI9
Fnan
sI10
Fnan
sI11
Fnan
sI12
Fnan
sI13
Fnan
sI14
Fnan
ssg152
(dp259
I0
F0.0013227679910034222
sI1
Fnan
sI2
Fnan
sI3
Fnan
sI4
Fnan
sI5
Fnan
sI6
Fnan
sI7
Fnan
sI8
Fnan
sI9
Fnan
sI10
Fnan
sI11
Fnan
sI12
Fnan
sI13
Fnan
sI14
Fnan
ssg154
(dp260
I0
F34.06168
sI1
F33.55973
sI2
F33.83627
sI3
F33.45135
sI4
F34.83774
sI5
F40.32068
sI6
F33.14466
sI7
F34.84785
sI8
F38.5549
sI9
F39.39106
sI10
F39.66553
sI11
F33.26683
sI12
F33.63253
sI13
F32.92621
sI14
F38.15541
ssg156
(dp261
I0
F10.292
sI1
F10.291
sI2
F10.283
sI3
F10.287
sI4
F10.295
sI5
F10.345
sI6
F10.283
sI7
F10.294
sI8
F10.332
sI9
F10.338
sI10
F10.357
sI11
F10.308
sI12
F10.287
sI13
F10.283
sI14
F10.334
ssg158
(dp262
I0
F0.5500014319467451
sI1
Fnan
sI2
Fnan
sI3
Fnan
sI4
Fnan
sI5
Fnan
sI6
Fnan
sI7
Fnan
sI8
Fnan
sI9
Fnan
sI10
Fnan
sI11
Fnan
sI12
Fnan
sI13
Fnan
sI14
Fnan
sssS'z'
p263
(dp264
g3
(dp265
I0
F0.36901465818353074
sI1
Fnan
sI2
Fnan
sI3
Fnan
sI4
Fnan
sI5
Fnan
sI6
Fnan
sI7
Fnan
sI8
Fnan
sI9
Fnan
sI10
Fnan
sI11
Fnan
sI12
Fnan
sI13
Fnan
sI14
Fnan
ssg5
(dp266
I0
S'NoError'
p267
sI1
S'NoError'
p268
sI2
S'NoError'
p269
sI3
S'NoError'
p270
sI4
S'NoError'
p271
sI5
S'NoError'
p272
sI6
S'NoError'
p273
sI7
S'NoError'
p274
sI8
S'NoError'
p275
sI9
S'NoError'
p276
sI10
S'NoError'
p277
sI11
S'NoError'
p278
sI12
S'NoError'
p279
sI13
S'NoError'
p280
sI14
S'NoError'
p281
ssg22
(dp282
I0
F0.007
sI1
F0.007
sI2
F0.008
sI3
F0.007
sI4
F0.007
sI5
F0.007
sI6
F0.007
sI7
F0.008
sI8
F0.007
sI9
F0.007
sI10
F0.007
sI11
F0.007
sI12
F0.007
sI13
F0.007
sI14
F0.007
ssg24
(dp283
I0
F0.9143491180169456
sI1
F0.9124164260707097
sI2
F0.9117058859638277
sI3
F0.9106215458376953
sI4
F0.9248839786935443
sI5
F0.9083322476005752
sI6
F0.919842286878202
sI7
F0.9022632185400496
sI8
F0.9123142434777075
sI9
F0.911837696736779
sI10
F0.9164489394774828
sI11
F0.9109626169441664
sI12
F0.9168707472030273
sI13
F0.9123860707780416
sI14
F0.9143550550731798
ssg26
(dp284
I0
F0.005128792570627986
sI1
Fnan
sI2
Fnan
sI3
Fnan
sI4
Fnan
sI5
Fnan
sI6
Fnan
sI7
Fnan
sI8
Fnan
sI9
Fnan
sI10
Fnan
sI11
Fnan
sI12
Fnan
sI13
Fnan
sI14
Fnan
ssg28
(dp285
I0
F0.9133060051527957
sI1
Fnan
sI2
Fnan
sI3
Fnan
sI4
Fnan
sI5
Fnan
sI6
Fnan
sI7
Fnan
sI8
Fnan
sI9
Fnan
sI10
Fnan
sI11
Fnan
sI12
Fnan
sI13
Fnan
sI14
Fnan
ssg30
(dp286
I0
F13.316
sI1
F13.305
sI2
F13.35
sI3
F13.3
sI4
F13.302
sI5
F13.373
sI6
F13.332
sI7
F13.366
sI8
F13.318
sI9
F13.293
sI10
F13.29
sI11
F13.315
sI12
F13.288
sI13
F13.351
sI14
F13.327
ssg32
(dp287
I0
F8.786843
sI1
F9.220455
sI2
F8.989225
sI3
F9.225322
sI4
F12.94836
sI5
F7.892182
sI6
F9.562847
sI7
F9.077428
sI8
F12.50974
sI9
F13.26063
sI10
F12.62726
sI11
F9.162424
sI12
F12.84668
sI13
F7.839001
sI14
F8.267467
ssg34
(dp288
I0
F2458442.596990741
sI1
F2458442.5977314813
sI2
F2458442.617372685
sI3
F2458442.596261574
sI4
F2458442.634085648
sI5
F2458442.6158796297
sI6
F2458442.598483796
sI7
F2458442.615138889
sI8
F2458442.6363194445
sI9
F2458442.6355787036
sI10
F2458442.637060185
sI11
F2458442.618113426
sI12
F2458442.6348263887
sI13
F2458442.61662037
sI14
F2458442.599236111
ssg36
(dp289
I0
F2.059063266666667
sI1
Fnan
sI2
Fnan
sI3
Fnan
sI4
Fnan
sI5
Fnan
sI6
Fnan
sI7
Fnan
sI8
Fnan
sI9
Fnan
sI10
Fnan
sI11
Fnan
sI12
Fnan
sI13
Fnan
sI14
Fnan
ssg38
(dp290
I0
F1.8181693333333335
sI1
Fnan
sI2
Fnan
sI3
Fnan
sI4
Fnan
sI5
Fnan
sI6
Fnan
sI7
Fnan
sI8
Fnan
sI9
Fnan
sI10
Fnan
sI11
Fnan
sI12
Fnan
sI13
Fnan
sI14
Fnan
ssg40
(dp291
I0
F0.3691365957649276
sI1
F0.3687325804469743
sI2
F0.36521297495180527
sI3
F0.36816756019365177
sI4
F0.3679147928790823
sI5
F0.37227678705468237
sI6
F0.3689143229158894
sI7
F0.36490489615555466
sI8
F0.36779932727229664
sI9
F0.36919296080476455
sI10
F0.3750622319656064
sI11
F0.36736161690984015
sI12
F0.36854606742042406
sI13
F0.37160636966756394
sI14
F0.3723286001039976
ssg42
(dp292
I0
F0.0019471119821012834
sI1
Fnan
sI2
Fnan
sI3
Fnan
sI4
Fnan
sI5
Fnan
sI6
Fnan
sI7
Fnan
sI8
Fnan
sI9
Fnan
sI10
Fnan
sI11
Fnan
sI12
Fnan
sI13
Fnan
sI14
Fnan
ssg44
(dp293
I0
F0.07774579999999996
sI1
Fnan
sI2
Fnan
sI3
Fnan
sI4
Fnan
sI5
Fnan
sI6
Fnan
sI7
Fnan
sI8
Fnan
sI9
Fnan
sI10
Fnan
sI11
Fnan
sI12
Fnan
sI13
Fnan
sI14
Fnan
ssg46
(dp294
I0
g267
sI1
g268
sI2
g269
sI3
g270
sI4
g271
sI5
g272
sI6
g273
sI7
g274
sI8
g275
sI9
g276
sI10
g277
sI11
g278
sI12
g279
sI13
g280
sI14
g281
ssg48
(dp295
I0
F0.002773536518575845
sI1
Fnan
sI2
Fnan
sI3
Fnan
sI4
Fnan
sI5
Fnan
sI6
Fnan
sI7
Fnan
sI8
Fnan
sI9
Fnan
sI10
Fnan
sI11
Fnan
sI12
Fnan
sI13
Fnan
sI14
Fnan
ssg50
(dp296
I0
F0.029669127773784332
sI1
Fnan
sI2
Fnan
sI3
Fnan
sI4
Fnan
sI5
Fnan
sI6
Fnan
sI7
Fnan
sI8
Fnan
sI9
Fnan
sI10
Fnan
sI11
Fnan
sI12
Fnan
sI13
Fnan
sI14
Fnan
ssg52
(dp297
I0
F1.0835281333333338
sI1
Fnan
sI2
Fnan
sI3
Fnan
sI4
Fnan
sI5
Fnan
sI6
Fnan
sI7
Fnan
sI8
Fnan
sI9
Fnan
sI10
Fnan
sI11
Fnan
sI12
Fnan
sI13
Fnan
sI14
Fnan
ssg54
(dp298
I0
F1.4980237934565268
sI1
F1.5125086711317737
sI2
F1.5097504421447099
sI3
F1.5139109198054446
sI4
F1.4941586815309738
sI5
F1.5123801666094137
sI6
F1.4974870823228086
sI7
F1.5181484408615096
sI8
F1.5019751840735973
sI9
F1.507902315248073
sI10
F1.5102490106559574
sI11
F1.5119461578214106
sI12
F1.502867915853699
sI13
F1.5151698871680115
sI14
F1.4999175318215174
ssg56
(dp299
I0
g267
sI1
g268
sI2
g269
sI3
g270
sI4
g271
sI5
g272
sI6
g273
sI7
g274
sI8
g275
sI9
g276
sI10
g277
sI11
g278
sI12
g279
sI13
g280
sI14
g281
ssg58
(dp300
I0
F8.010351
sI1
F9.197971
sI2
F8.894025
sI3
F8.931417
sI4
F13.26086
sI5
F9.073194
sI6
F9.137458
sI7
F10.30614
sI8
F12.68664
sI9
F13.08424
sI10
F12.60793
sI11
F9.287666
sI12
F14.19478
sI13
F8.692872
sI14
F8.71108
ssg60
(dp301
I0
F11.963866666666664
sI1
Fnan
sI2
Fnan
sI3
Fnan
sI4
Fnan
sI5
Fnan
sI6
Fnan
sI7
Fnan
sI8
Fnan
sI9
Fnan
sI10
Fnan
sI11
Fnan
sI12
Fnan
sI13
Fnan
sI14
Fnan
ssg62
(dp302
I0
F0.6910050424361937
sI1
Fnan
sI2
Fnan
sI3
Fnan
sI4
Fnan
sI5
Fnan
sI6
Fnan
sI7
Fnan
sI8
Fnan
sI9
Fnan
sI10
Fnan
sI11
Fnan
sI12
Fnan
sI13
Fnan
sI14
Fnan
ssg64
(dp303
I0
F-2.395895
sI1
F2.910299
sI2
F3.608434
sI3
F2.154862
sI4
F1.647978
sI5
F1.797344
sI6
F2.428104
sI7
F4.050851
sI8
F3.723014
sI9
F-1.789884
sI10
F2.213549
sI11
F2.455832
sI12
F-1.747386
sI13
F2.767907
sI14
F3.447531
ssg66
(dp304
I0
F12.306399999999998
sI1
Fnan
sI2
Fnan
sI3
Fnan
sI4
Fnan
sI5
Fnan
sI6
Fnan
sI7
Fnan
sI8
Fnan
sI9
Fnan
sI10
Fnan
sI11
Fnan
sI12
Fnan
sI13
Fnan
sI14
Fnan
ssg68
(dp305
I0
g267
sI1
g268
sI2
g269
sI3
g270
sI4
g271
sI5
g272
sI6
g273
sI7
g274
sI8
g275
sI9
g276
sI10
g277
sI11
g278
sI12
g279
sI13
g280
sI14
g281
ssg70
(dp306
I0
F3020.045
sI1
F3051.025333333333
sI2
F2953.1206666666667
sI3
F3065.223
sI4
F3093.0093333333334
sI5
F2829.360333333333
sI6
F2990.4926666666665
sI7
F2891.887
sI8
F3020.722333333333
sI9
F3080.073
sI10
F3050.473
sI11
F3030.5266666666666
sI12
F3110.19
sI13
F2900.1436666666664
sI14
F2965.934333333333
ssg72
(dp307
I0
F1.140308
sI1
F1.14241
sI2
F1.205395
sI3
F1.1382450000000002
sI4
F1.272334
sI5
F1.20005
sI6
F1.144533
sI7
F1.197444
sI8
F1.282325
sI9
F1.278965
sI10
F1.285708
sI11
F1.208119
sI12
F1.275639
sI13
F1.202726
sI14
F1.1466690000000002
ssg74
(dp308
I0
F2483.597
sI1
F2494.1946666666668
sI2
F2421.2509999999997
sI3
F2511.1156666666666
sI4
F2505.726666666667
sI5
F2329.0516666666667
sI6
F2437.7923333333333
sI7
F2396.2256666666667
sI8
F2486.3593333333333
sI9
F2527.735
sI10
F2480.548666666667
sI11
F2484.3566666666666
sI12
F2539.2086666666664
sI13
F2366.9796666666666
sI14
F2436.1493333333333
ssg76
(dp309
I0
F4122.293333333333
sI1
F4193.596666666666
sI2
F4056.98
sI3
F4221.04
sI4
F4182.7
sI5
F3900.74
sI6
F4064.3933333333334
sI7
F4014.07
sI8
F4135.75
sI9
F4228.013333333333
sI10
F4176.61
sI11
F4169.1033333333335
sI12
F4245.15
sI13
F3990.2933333333335
sI14
F4051.3399999999997
ssg78
(dp310
I0
F9.131107
sI1
F8.5586
sI2
F8.917704
sI3
F9.238631
sI4
F13.45634
sI5
F8.722455
sI6
F8.78492
sI7
F8.608596
sI8
F12.60498
sI9
F13.13802
sI10
F13.67078
sI11
F9.22006
sI12
F12.48959
sI13
F8.940116
sI14
F8.900725
ssg80
(dp311
I0
F12.512
sI1
F12.508
sI2
F12.54
sI3
F12.5
sI4
F12.503
sI5
F12.582
sI6
F12.533
sI7
F12.551
sI8
F12.511
sI9
F12.493
sI10
F12.514
sI11
F12.512
sI12
F12.488
sI13
F12.565
sI14
F12.533
ssg82
(dp312
I0
F0.003
sI1
F0.003
sI2
F0.003
sI3
F0.003
sI4
F0.003
sI5
F0.003
sI6
F0.003
sI7
F0.003
sI8
F0.003
sI9
F0.003
sI10
F0.003
sI11
F0.003
sI12
F0.003
sI13
F0.003
sI14
F0.003
ssg84
(dp313
I0
F0.3691438456338041
sI1
Fnan
sI2
Fnan
sI3
Fnan
sI4
Fnan
sI5
Fnan
sI6
Fnan
sI7
Fnan
sI8
Fnan
sI9
Fnan
sI10
Fnan
sI11
Fnan
sI12
Fnan
sI13
Fnan
sI14
Fnan
ssg86
(dp314
I0
F12.522999999999998
sI1
Fnan
sI2
Fnan
sI3
Fnan
sI4
Fnan
sI5
Fnan
sI6
Fnan
sI7
Fnan
sI8
Fnan
sI9
Fnan
sI10
Fnan
sI11
Fnan
sI12
Fnan
sI13
Fnan
sI14
Fnan
ssg88
(dp315
I0
F12.3
sI1
F12.289
sI2
F12.324
sI3
F12.284
sI4
F12.274
sI5
F12.371
sI6
F12.311
sI7
F12.347
sI8
F12.3
sI9
F12.279
sI10
F12.289
sI11
F12.296
sI12
F12.268
sI13
F12.344
sI14
F12.32
ssg90
(dp316
I0
F3.511052
sI1
F3.141078
sI2
F2.590615
sI3
F3.437699
sI4
F2.462364
sI5
F-2.03814
sI6
F2.732054
sI7
F3.019222
sI8
F1.675573
sI9
F2.200645
sI10
F2.767347
sI11
F3.517446
sI12
F1.084454
sI13
F3.66931
sI14
F-2.88477
ssg92
(dp317
I0
F0.026562235993085697
sI1
Fnan
sI2
Fnan
sI3
Fnan
sI4
Fnan
sI5
Fnan
sI6
Fnan
sI7
Fnan
sI8
Fnan
sI9
Fnan
sI10
Fnan
sI11
Fnan
sI12
Fnan
sI13
Fnan
sI14
Fnan
ssg94
(dp318
I0
F0.695457673409012
sI1
F0.6885644735271673
sI2
F0.6907892240444288
sI3
F0.6892739574914237
sI4
F0.6887924054873368
sI5
F0.6921298498719757
sI6
F0.6910933311561188
sI7
F0.6939590462745906
sI8
F0.6948561295353293
sI9
F0.6917638584729364
sI10
F0.6864591610935331
sI11
F0.6901345393212336
sI12
F0.6904395083481297
sI13
F0.6870332510598868
sI14
F0.6943292274498033
ssg96
(dp319
I0
F30.0
sI1
F30.0
sI2
F30.0
sI3
F30.0
sI4
F30.0
sI5
F30.0
sI6
F30.0
sI7
F30.0
sI8
F30.0
sI9
F30.0
sI10
F30.0
sI11
F30.0
sI12
F30.0
sI13
F30.0
sI14
F30.0
ssg98
(dp320
I0
F0.004
sI1
F0.004
sI2
F0.004
sI3
F0.004
sI4
F0.004
sI5
F0.005
sI6
F0.004
sI7
F0.004
sI8
F0.004
sI9
F0.004
sI10
F0.004
sI11
F0.004
sI12
F0.004
sI13
F0.004
sI14
F0.004
ssg100
(dp321
I0
F0.004
sI1
F0.004
sI2
F0.004
sI3
F0.004
sI4
F0.004
sI5
F0.004
sI6
F0.004
sI7
F0.004
sI8
F0.004
sI9
F0.004
sI10
F0.004
sI11
F0.004
sI12
F0.004
sI13
F0.004
sI14
F0.004
ssg102
(dp322
I0
F-1.791302
sI1
F2.607547
sI2
F3.755802
sI3
F3.16218
sI4
F-4.146975
sI5
F2.289591
sI6
F3.095778
sI7
F-2.39914
sI8
F-1.994692
sI9
F2.261483
sI10
F3.123505
sI11
F-1.323677
sI12
F1.889347
sI13
F1.437452
sI14
F4.286023
ssg104
(dp323
I0
S"KIC8462852-20181120at021940_-35-1X1-030-z'_cal.fts.mag.1"
p324
sI1
S"KIC8462852-20181120at022044_-35-1X1-030-z'_cal.fts.mag.1"
p325
sI2
S"KIC8462852-20181120at024901_-35-1X1-030-z'_cal.fts.mag.1"
p326
sI3
S"KIC8462852-20181120at021835_-35-1X1-030-z'_cal.fts.mag.1"
p327
sI4
S"KIC8462852-20181120at031303_-35-1X1-030-z'_cal.fts.mag.1"
p328
sI5
S"KIC8462852-20181120at024652_-35-1X1-030-z'_cal.fts.mag.1"
p329
sI6
S"KIC8462852-20181120at022149_-35-1X1-030-z'_cal.fts.mag.1"
p330
sI7
S"KIC8462852-20181120at024546_-35-1X1-030-z'_cal.fts.mag.1"
p331
sI8
S"KIC8462852-20181120at031618_-35-1X1-030-z'_cal.fts.mag.1"
p332
sI9
S"KIC8462852-20181120at031514_-35-1X1-030-z'_cal.fts.mag.1"
p333
sI10
S"KIC8462852-20181120at031722_-35-1X1-030-z'_cal.fts.mag.1"
p334
sI11
S"KIC8462852-20181120at025005_-35-1X1-030-z'_cal.fts.mag.1"
p335
sI12
S"KIC8462852-20181120at031409_-35-1X1-030-z'_cal.fts.mag.1"
p336
sI13
S"KIC8462852-20181120at024756_-35-1X1-030-z'_cal.fts.mag.1"
p337
sI14
S"KIC8462852-20181120at022254_-35-1X1-030-z'_cal.fts.mag.1"
p338
ssg121
(dp339
I0
F0.007415276429770076
sI1
Fnan
sI2
Fnan
sI3
Fnan
sI4
Fnan
sI5
Fnan
sI6
Fnan
sI7
Fnan
sI8
Fnan
sI9
Fnan
sI10
Fnan
sI11
Fnan
sI12
Fnan
sI13
Fnan
sI14
Fnan
ssg123
(dp340
I0
F1184.4283333333333
sI1
F1197.0063333333335
sI2
F1148.1506666666667
sI3
F1202.359
sI4
F1199.5783333333334
sI5
F1124.1706666666666
sI6
F1167.3283333333334
sI7
F1131.4706666666668
sI8
F1182.2089999999998
sI9
F1210.4386666666667
sI10
F1213.6553333333334
sI11
F1185.8416666666667
sI12
F1215.5323333333333
sI13
F1146.7050000000002
sI14
F1173.26
ssg125
(dp341
I0
F0.02707661088731122
sI1
Fnan
sI2
Fnan
sI3
Fnan
sI4
Fnan
sI5
Fnan
sI6
Fnan
sI7
Fnan
sI8
Fnan
sI9
Fnan
sI10
Fnan
sI11
Fnan
sI12
Fnan
sI13
Fnan
sI14
Fnan
ssg127
(dp342
I0
S"z'"
p343
sI1
S"z'"
p344
sI2
S"z'"
p345
sI3
S"z'"
p346
sI4
S"z'"
p347
sI5
S"z'"
p348
sI6
S"z'"
p349
sI7
S"z'"
p350
sI8
S"z'"
p351
sI9
S"z'"
p352
sI10
S"z'"
p353
sI11
S"z'"
p354
sI12
S"z'"
p355
sI13
S"z'"
p356
sI14
S"z'"
p357
ssg144
(dp358
I0
F0.002705802462666009
sI1
Fnan
sI2
Fnan
sI3
Fnan
sI4
Fnan
sI5
Fnan
sI6
Fnan
sI7
Fnan
sI8
Fnan
sI9
Fnan
sI10
Fnan
sI11
Fnan
sI12
Fnan
sI13
Fnan
sI14
Fnan
ssg146
(dp359
I0
F-3.593674
sI1
F-3.629329
sI2
F3.256855
sI3
F2.578861
sI4
F3.51092
sI5
F1.645521
sI6
F-2.977814
sI7
F-3.3671
sI8
F1.757646
sI9
F-2.85108
sI10
F4.110336
sI11
F-2.992252
sI12
F-3.057075
sI13
F3.631176
sI14
F3.143196
ssg148
(dp360
I0
F1.5070930800336948
sI1
Fnan
sI2
Fnan
sI3
Fnan
sI4
Fnan
sI5
Fnan
sI6
Fnan
sI7
Fnan
sI8
Fnan
sI9
Fnan
sI10
Fnan
sI11
Fnan
sI12
Fnan
sI13
Fnan
sI14
Fnan
ssg150
(dp361
I0
F2458442.61662037
sI1
Fnan
sI2
Fnan
sI3
Fnan
sI4
Fnan
sI5
Fnan
sI6
Fnan
sI7
Fnan
sI8
Fnan
sI9
Fnan
sI10
Fnan
sI11
Fnan
sI12
Fnan
sI13
Fnan
sI14
Fnan
ssg152
(dp362
I0
F0.002705802462666009
sI1
Fnan
sI2
Fnan
sI3
Fnan
sI4
Fnan
sI5
Fnan
sI6
Fnan
sI7
Fnan
sI8
Fnan
sI9
Fnan
sI10
Fnan
sI11
Fnan
sI12
Fnan
sI13
Fnan
sI14
Fnan
ssg154
(dp363
I0
F9.062456
sI1
F7.890181
sI2
F9.558511
sI3
F9.442714
sI4
F12.63404
sI5
F9.529055
sI6
F9.993604
sI7
F9.131742
sI8
F12.85265
sI9
F13.15122
sI10
F13.60036
sI11
F8.931311
sI12
F13.13899
sI13
F9.288632
sI14
F10.36889
ssg156
(dp364
I0
F11.962
sI1
F11.944
sI2
F11.979
sI3
F11.936
sI4
F11.946
sI5
F12.022
sI6
F11.978
sI7
F11.991
sI8
F11.959
sI9
F11.935
sI10
F11.948
sI11
F11.95
sI12
F11.93
sI13
F11.997
sI14
F11.981
ssg158
(dp365
I0
F0.3691438456338041
sI1
Fnan
sI2
Fnan
sI3
Fnan
sI4
Fnan
sI5
Fnan
sI6
Fnan
sI7
Fnan
sI8
Fnan
sI9
Fnan
sI10
Fnan
sI11
Fnan
sI12
Fnan
sI13
Fnan
sI14
Fnan
sssS'g'
p366
(dp367
g3
(dp368
I0
F0.8694942195891052
sI1
Fnan
sI2
Fnan
sI3
Fnan
sI4
Fnan
sI5
Fnan
sI6
Fnan
sI7
Fnan
sI8
Fnan
sI9
Fnan
sI10
Fnan
sI11
Fnan
sI12
Fnan
sI13
Fnan
sI14
Fnan
ssg5
(dp369
I0
S'NoError'
p370
sI1
S'NoError'
p371
sI2
S'NoError'
p372
sI3
S'NoError'
p373
sI4
S'NoError'
p374
sI5
S'NoError'
p375
sI6
S'NoError'
p376
sI7
S'NoError'
p377
sI8
S'NoError'
p378
sI9
S'NoError'
p379
sI10
S'NoError'
p380
sI11
S'NoError'
p381
sI12
S'NoError'
p382
sI13
S'NoError'
p383
sI14
S'NoError'
p384
ssg22
(dp385
I0
F0.002
sI1
F0.002
sI2
F0.002
sI3
F0.002
sI4
F0.002
sI5
F0.002
sI6
F0.002
sI7
F0.002
sI8
F0.002
sI9
F0.002
sI10
F0.002
sI11
F0.003
sI12
F0.002
sI13
F0.002
sI14
F0.002
ssg24
(dp386
I0
F0.8783602529206866
sI1
F0.8796709341197313
sI2
F0.8744755169871203
sI3
F0.8798086874674369
sI4
F0.8766002430470371
sI5
F0.8811883326314706
sI6
F0.8733911019933249
sI7
F0.8768507485466589
sI8
F0.8786668026513594
sI9
F0.8796560841512644
sI10
F0.8768044202022479
sI11
F0.8729448266156429
sI12
F0.8791134733630189
sI13
F0.8764723739147938
sI14
F0.8761688258413564
ssg26
(dp387
I0
F0.002448939178956301
sI1
Fnan
sI2
Fnan
sI3
Fnan
sI4
Fnan
sI5
Fnan
sI6
Fnan
sI7
Fnan
sI8
Fnan
sI9
Fnan
sI10
Fnan
sI11
Fnan
sI12
Fnan
sI13
Fnan
sI14
Fnan
ssg28
(dp388
I0
F0.8773448416302099
sI1
Fnan
sI2
Fnan
sI3
Fnan
sI4
Fnan
sI5
Fnan
sI6
Fnan
sI7
Fnan
sI8
Fnan
sI9
Fnan
sI10
Fnan
sI11
Fnan
sI12
Fnan
sI13
Fnan
sI14
Fnan
ssg30
(dp389
I0
F11.441
sI1
F11.496
sI2
F11.417
sI3
F11.4
sI4
F11.413
sI5
F11.434
sI6
F11.419
sI7
F11.439
sI8
F11.466
sI9
F11.446
sI10
F11.412
sI11
F11.571
sI12
F11.448
sI13
F11.413
sI14
F11.448
ssg32
(dp390
I0
F35.82087
sI1
F40.96951
sI2
F34.20265
sI3
F35.16883
sI4
F38.86253
sI5
F34.26825
sI6
F35.34394
sI7
F34.51775
sI8
F41.06703
sI9
F39.99716
sI10
F34.76607
sI11
F41.79379
sI12
F34.80521
sI13
F34.50088
sI14
F35.21734
ssg34
(dp391
I0
F2458442.586550926
sI1
F2458442.6243287036
sI2
F2458442.5880439817
sI3
F2458442.606921296
sI4
F2458442.6228587963
sI5
F2458442.5858101854
sI6
F2458442.6054398147
sI7
F2458442.5850578705
sI8
F2458442.625810185
sI9
F2458442.623599537
sI10
F2458442.6061805557
sI11
F2458442.6250694445
sI12
F2458442.6046990743
sI13
F2458442.6039699074
sI14
F2458442.5872800928
ssg36
(dp392
I0
F1.0561004
sI1
Fnan
sI2
Fnan
sI3
Fnan
sI4
Fnan
sI5
Fnan
sI6
Fnan
sI7
Fnan
sI8
Fnan
sI9
Fnan
sI10
Fnan
sI11
Fnan
sI12
Fnan
sI13
Fnan
sI14
Fnan
ssg38
(dp393
I0
F1.1375275999999999
sI1
Fnan
sI2
Fnan
sI3
Fnan
sI4
Fnan
sI5
Fnan
sI6
Fnan
sI7
Fnan
sI8
Fnan
sI9
Fnan
sI10
Fnan
sI11
Fnan
sI12
Fnan
sI13
Fnan
sI14
Fnan
ssg40
(dp394
I0
F0.8660445583897575
sI1
F0.870461740269895
sI2
F0.8697628721018222
sI3
F0.8715612742082389
sI4
F0.8718700832188887
sI5
F0.8697792448342716
sI6
F0.8690216585139628
sI7
F0.8722843256749478
sI8
F0.8702269154654697
sI9
F0.8692938609975573
sI10
F0.8679729788015581
sI11
F0.8626347843280439
sI12
F0.8680793029709847
sI13
F0.8676927257474358
sI14
F0.8688675330526829
ssg42
(dp395
I0
F0.001678570531428095
sI1
Fnan
sI2
Fnan
sI3
Fnan
sI4
Fnan
sI5
Fnan
sI6
Fnan
sI7
Fnan
sI8
Fnan
sI9
Fnan
sI10
Fnan
sI11
Fnan
sI12
Fnan
sI13
Fnan
sI14
Fnan
ssg44
(dp396
I0
F2.0202650666666666
sI1
Fnan
sI2
Fnan
sI3
Fnan
sI4
Fnan
sI5
Fnan
sI6
Fnan
sI7
Fnan
sI8
Fnan
sI9
Fnan
sI10
Fnan
sI11
Fnan
sI12
Fnan
sI13
Fnan
sI14
Fnan
ssg46
(dp397
I0
g370
sI1
g371
sI2
g372
sI3
g373
sI4
g374
sI5
g375
sI6
g376
sI7
g377
sI8
g378
sI9
g379
sI10
g380
sI11
g381
sI12
g382
sI13
g383
sI14
g384
ssg48
(dp398
I0
F0.0022741921310030257
sI1
Fnan
sI2
Fnan
sI3
Fnan
sI4
Fnan
sI5
Fnan
sI6
Fnan
sI7
Fnan
sI8
Fnan
sI9
Fnan
sI10
Fnan
sI11
Fnan
sI12
Fnan
sI13
Fnan
sI14
Fnan
ssg50
(dp399
I0
F0.04159784792968186
sI1
Fnan
sI2
Fnan
sI3
Fnan
sI4
Fnan
sI5
Fnan
sI6
Fnan
sI7
Fnan
sI8
Fnan
sI9
Fnan
sI10
Fnan
sI11
Fnan
sI12
Fnan
sI13
Fnan
sI14
Fnan
ssg52
(dp400
I0
F1.5363866
sI1
Fnan
sI2
Fnan
sI3
Fnan
sI4
Fnan
sI5
Fnan
sI6
Fnan
sI7
Fnan
sI8
Fnan
sI9
Fnan
sI10
Fnan
sI11
Fnan
sI12
Fnan
sI13
Fnan
sI14
Fnan
ssg54
(dp401
I0
F1.513194071182155
sI1
F1.5136935064851404
sI2
F1.5135489301271718
sI3
F1.5114994477728805
sI4
F1.5189903771254516
sI5
F1.5154763455119535
sI6
F1.5164476971225525
sI7
F1.5185763917706105
sI8
F1.508576306981234
sI9
F1.5090994298610527
sI10
F1.5143228940919704
sI11
F1.5249701684460777
sI12
F1.5150868011066427
sI13
F1.510549455284708
sI14
F1.5129572772239168
ssg56
(dp402
I0
g370
sI1
g371
sI2
g372
sI3
g373
sI4
g374
sI5
g375
sI6
g376
sI7
g377
sI8
g378
sI9
g379
sI10
g380
sI11
g381
sI12
g382
sI13
g383
sI14
g384
ssg58
(dp403
I0
F34.62522
sI1
F40.71148
sI2
F34.4822
sI3
F35.15973
sI4
F38.95198
sI5
F34.07533
sI6
F34.5879
sI7
F34.71304
sI8
F41.58883
sI9
F38.80734
sI10
F34.03706
sI11
F41.69857
sI12
F35.1934
sI13
F34.2152
sI14
F34.83748
ssg60
(dp404
I0
F11.013066666666665
sI1
Fnan
sI2
Fnan
sI3
Fnan
sI4
Fnan
sI5
Fnan
sI6
Fnan
sI7
Fnan
sI8
Fnan
sI9
Fnan
sI10
Fnan
sI11
Fnan
sI12
Fnan
sI13
Fnan
sI14
Fnan
ssg62
(dp405
I0
F0.7179950127405085
sI1
Fnan
sI2
Fnan
sI3
Fnan
sI4
Fnan
sI5
Fnan
sI6
Fnan
sI7
Fnan
sI8
Fnan
sI9
Fnan
sI10
Fnan
sI11
Fnan
sI12
Fnan
sI13
Fnan
sI14
Fnan
ssg64
(dp406
I0
F-3.493748
sI1
F4.796544
sI2
F-2.628885
sI3
F-3.258051
sI4
F-3.428437
sI5
F-2.71989
sI6
F4.13266
sI7
F2.873788
sI8
F4.962945
sI9
F3.096988
sI10
F1.994419
sI11
F-1.759625
sI12
F4.54438
sI13
F4.440723
sI14
F3.509103
ssg66
(dp407
I0
F11.388666666666667
sI1
Fnan
sI2
Fnan
sI3
Fnan
sI4
Fnan
sI5
Fnan
sI6
Fnan
sI7
Fnan
sI8
Fnan
sI9
Fnan
sI10
Fnan
sI11
Fnan
sI12
Fnan
sI13
Fnan
sI14
Fnan
ssg68
(dp408
I0
g370
sI1
g371
sI2
g372
sI3
g373
sI4
g374
sI5
g375
sI6
g376
sI7
g377
sI8
g378
sI9
g379
sI10
g380
sI11
g381
sI12
g382
sI13
g383
sI14
g384
ssg70
(dp409
I0
F7040.8933333333325
sI1
F6664.913333333333
sI2
F7145.463333333333
sI3
F7275.306666666667
sI4
F7170.14
sI5
F7072.6466666666665
sI6
F7131.02
sI7
F6999.433333333333
sI8
F6849.203333333334
sI9
F6991.566666666667
sI10
F7207.716666666666
sI11
F6244.25
sI12
F6987.61
sI13
F7198.9
sI14
F6959.39
ssg72
(dp410
I0
F1.11295
sI1
F1.23163
sI2
F1.116631
sI3
F1.169964
sI4
F1.2258850000000001
sI5
F1.111158
sI6
F1.1652959999999999
sI7
F1.109366
sI8
F1.237563
sI9
F1.2287549999999998
sI10
F1.167622
sI11
F1.234574
sI12
F1.1630049999999998
sI13
F1.160731
sI14
F1.114797
ssg74
(dp411
I0
F6094.046666666666
sI1
F5753.990000000001
sI2
F6224.35
sI3
F6287.953333333334
sI4
F6202.509999999999
sI5
F6083.5599999999995
sI6
F6212.286666666667
sI7
F6053.783333333334
sI8
F5941.85
sI9
F6053.206666666667
sI10
F6250.6900000000005
sI11
F5415.663333333333
sI12
F6033.153333333334
sI13
F6261.036666666667
sI14
F6046.943333333333
ssg76
(dp412
I0
F9937.856666666667
sI1
F9399.206666666667
sI2
F10117.933333333332
sI3
F10250.43
sI4
F10156.463333333335
sI5
F9968.96
sI6
F10117.213333333335
sI7
F9911.153333333332
sI8
F9648.140000000001
sI9
F9842.93
sI10
F10190.186666666666
sI11
F8890.51
sI12
F9863.793333333333
sI13
F10165.95
sI14
F9839.013333333334
ssg78
(dp413
I0
F34.90014
sI1
F40.44334
sI2
F34.11256
sI3
F35.48985
sI4
F39.76175
sI5
F35.40434
sI6
F34.70306
sI7
F35.61556
sI8
F40.13634
sI9
F40.05162
sI10
F34.69606
sI11
F40.40078
sI12
F34.02348
sI13
F33.86001
sI14
F34.41446
ssg80
(dp414
I0
F11.538
sI1
F11.6
sI2
F11.515
sI3
F11.504
sI4
F11.519
sI5
F11.54
sI6
F11.517
sI7
F11.545
sI8
F11.565
sI9
F11.545
sI10
F11.51
sI11
F11.666
sI12
F11.549
sI13
F11.508
sI14
F11.546
ssg82
(dp415
I0
F0.002
sI1
F0.002
sI2
F0.002
sI3
F0.002
sI4
F0.002
sI5
F0.002
sI6
F0.002
sI7
F0.002
sI8
F0.002
sI9
F0.002
sI10
F0.002
sI11
F0.002
sI12
F0.002
sI13
F0.002
sI14
F0.002
ssg84
(dp416
I0
F0.8690369239050344
sI1
Fnan
sI2
Fnan
sI3
Fnan
sI4
Fnan
sI5
Fnan
sI6
Fnan
sI7
Fnan
sI8
Fnan
sI9
Fnan
sI10
Fnan
sI11
Fnan
sI12
Fnan
sI13
Fnan
sI14
Fnan
ssg86
(dp417
I0
F11.544466666666667
sI1
Fnan
sI2
Fnan
sI3
Fnan
sI4
Fnan
sI5
Fnan
sI6
Fnan
sI7
Fnan
sI8
Fnan
sI9
Fnan
sI10
Fnan
sI11
Fnan
sI12
Fnan
sI13
Fnan
sI14
Fnan
ssg88
(dp418
I0
F11.381
sI1
F11.441
sI2
F11.365
sI3
F11.345
sI4
F11.361
sI5
F11.376
sI6
F11.367
sI7
F11.387
sI8
F11.411
sI9
F11.389
sI10
F11.356
sI11
F11.511
sI12
F11.389
sI13
F11.357
sI14
F11.394
ssg90
(dp419
I0
F4.300804
sI1
F-3.316682
sI2
F2.391232
sI3
F3.199314
sI4
F2.845172
sI5
F-4.335107
sI6
F4.55209
sI7
F3.997277
sI8
F4.485693
sI9
F3.480264
sI10
F-3.27573
sI11
F-3.658201
sI12
F-3.876534
sI13
F1.808451
sI14
F3.243463
ssg92
(dp420
I0
F0.04045185262694871
sI1
Fnan
sI2
Fnan
sI3
Fnan
sI4
Fnan
sI5
Fnan
sI6
Fnan
sI7
Fnan
sI8
Fnan
sI9
Fnan
sI10
Fnan
sI11
Fnan
sI12
Fnan
sI13
Fnan
sI14
Fnan
ssg94
(dp421
I0
F0.7178439716312056
sI1
F0.7163778657031946
sI2
F0.7211037457093709
sI3
F0.7175679348523819
sI4
F0.7159522129842335
sI5
F0.7139655455021651
sI6
F0.7203388946114286
sI7
F0.7159755545638472
sI8
F0.720340224476547
sI9
F0.7191431720857312
sI10
F0.718556699648291
sI11
F0.7156589643090915
sI12
F0.716041651130539
sI13
F0.7211161244314426
sI14
F0.7199426294681576
ssg96
(dp422
I0
F30.0
sI1
F30.0
sI2
F30.0
sI3
F30.0
sI4
F30.0
sI5
F30.0
sI6
F30.0
sI7
F30.0
sI8
F30.0
sI9
F30.0
sI10
F30.0
sI11
F30.0
sI12
F30.0
sI13
F30.0
sI14
F30.0
ssg98
(dp423
I0
F0.002
sI1
F0.003
sI2
F0.002
sI3
F0.002
sI4
F0.002
sI5
F0.003
sI6
F0.002
sI7
F0.003
sI8
F0.003
sI9
F0.003
sI10
F0.002
sI11
F0.003
sI12
F0.003
sI13
F0.002
sI14
F0.003
ssg100
(dp424
I0
F0.002
sI1
F0.002
sI2
F0.002
sI3
F0.002
sI4
F0.002
sI5
F0.002
sI6
F0.002
sI7
F0.002
sI8
F0.002
sI9
F0.002
sI10
F0.002
sI11
F0.003
sI12
F0.002
sI13
F0.002
sI14
F0.002
ssg102
(dp425
I0
F2.632309
sI1
F1.942048
sI2
F-2.928888
sI3
F3.108929
sI4
F-3.974508
sI5
F3.553235
sI6
F4.365577
sI7
F3.015522
sI8
F-4.393798
sI9
F-3.240414
sI10
F3.117017
sI11
F3.355964
sI12
F5.275037
sI13
F4.633386
sI14
F2.584383
ssg104
(dp426
I0
S"KIC8462852-20181120at020438_-35-1X1-030-g'_cal.fts.mag.1"
p427
sI1
S"KIC8462852-20181120at025902_-35-1X1-030-g'_cal.fts.mag.1"
p428
sI2
S"KIC8462852-20181120at020647_-35-1X1-030-g'_cal.fts.mag.1"
p429
sI3
S"KIC8462852-20181120at023358_-35-1X1-030-g'_cal.fts.mag.1"
p430
sI4
S"KIC8462852-20181120at025650_-35-1X1-030-g'_cal.fts.mag.1"
p431
sI5
S"KIC8462852-20181120at020334_-35-1X1-030-g'_cal.fts.mag.1"
p432
sI6
S"KIC8462852-20181120at023150_-35-1X1-030-g'_cal.fts.mag.1"
p433
sI7
S"KIC8462852-20181120at020218_-35-1X1-030-g'_cal.fts.mag.1"
p434
sI8
S"KIC8462852-20181120at030110_-35-1X1-030-g'_cal.fts.mag.1"
p435
sI9
S"KIC8462852-20181120at025758_-35-1X1-030-g'_cal.fts.mag.1"
p436
sI10
S"KIC8462852-20181120at023254_-35-1X1-030-g'_cal.fts.mag.1"
p437
sI11
S"KIC8462852-20181120at030006_-35-1X1-030-g'_cal.fts.mag.1"
p438
sI12
S"KIC8462852-20181120at023046_-35-1X1-030-g'_cal.fts.mag.1"
p439
sI13
S"KIC8462852-20181120at022938_-35-1X1-030-g'_cal.fts.mag.1"
p440
sI14
S"KIC8462852-20181120at020541_-35-1X1-030-g'_cal.fts.mag.1"
p441
ssg121
(dp442
I0
F0.004191971771598612
sI1
Fnan
sI2
Fnan
sI3
Fnan
sI4
Fnan
sI5
Fnan
sI6
Fnan
sI7
Fnan
sI8
Fnan
sI9
Fnan
sI10
Fnan
sI11
Fnan
sI12
Fnan
sI13
Fnan
sI14
Fnan
ssg123
(dp443
I0
F6660.6900000000005
sI1
F6330.61
sI2
F6809.59
sI3
F6918.363333333333
sI4
F6838.11
sI5
F6704.596666666666
sI6
F6795.9
sI7
F6677.153333333334
sI8
F6509.0633333333335
sI9
F6632.046666666666
sI10
F6842.113333333333
sI11
F5909.17
sI12
F6621.87
sI13
F6833.336666666667
sI14
F6616.526666666667
ssg125
(dp444
I0
F0.04207793223237556
sI1
Fnan
sI2
Fnan
sI3
Fnan
sI4
Fnan
sI5
Fnan
sI6
Fnan
sI7
Fnan
sI8
Fnan
sI9
Fnan
sI10
Fnan
sI11
Fnan
sI12
Fnan
sI13
Fnan
sI14
Fnan
ssg127
(dp445
I0
S"g'"
p446
sI1
S"g'"
p447
sI2
S"g'"
p448
sI3
S"g'"
p449
sI4
S"g'"
p450
sI5
S"g'"
p451
sI6
S"g'"
p452
sI7
S"g'"
p453
sI8
S"g'"
p454
sI9
S"g'"
p455
sI10
S"g'"
p456
sI11
S"g'"
p457
sI12
S"g'"
p458
sI13
S"g'"
p459
sI14
S"g'"
p460
ssg144
(dp461
I0
F0.0024401617096055208
sI1
Fnan
sI2
Fnan
sI3
Fnan
sI4
Fnan
sI5
Fnan
sI6
Fnan
sI7
Fnan
sI8
Fnan
sI9
Fnan
sI10
Fnan
sI11
Fnan
sI12
Fnan
sI13
Fnan
sI14
Fnan
ssg146
(dp462
I0
F-3.907429
sI1
F2.908648
sI2
F3.99076
sI3
F2.848935
sI4
F2.789139
sI5
F2.67424
sI6
F4.239397
sI7
F4.343112
sI8
F-4.562345
sI9
F3.636181
sI10
F1.920551
sI11
F4.092659
sI12
F4.504733
sI13
F2.194589
sI14
F-1.369194
ssg148
(dp463
I0
F1.5144659400062348
sI1
Fnan
sI2
Fnan
sI3
Fnan
sI4
Fnan
sI5
Fnan
sI6
Fnan
sI7
Fnan
sI8
Fnan
sI9
Fnan
sI10
Fnan
sI11
Fnan
sI12
Fnan
sI13
Fnan
sI14
Fnan
ssg150
(dp464
I0
F2458442.6054398147
sI1
Fnan
sI2
Fnan
sI3
Fnan
sI4
Fnan
sI5
Fnan
sI6
Fnan
sI7
Fnan
sI8
Fnan
sI9
Fnan
sI10
Fnan
sI11
Fnan
sI12
Fnan
sI13
Fnan
sI14
Fnan
ssg152
(dp465
I0
F0.0024401617096055208
sI1
Fnan
sI2
Fnan
sI3
Fnan
sI4
Fnan
sI5
Fnan
sI6
Fnan
sI7
Fnan
sI8
Fnan
sI9
Fnan
sI10
Fnan
sI11
Fnan
sI12
Fnan
sI13
Fnan
sI14
Fnan
ssg154
(dp466
I0
F35.05537
sI1
F41.20658
sI2
F34.45243
sI3
F35.28685
sI4
F39.03705
sI5
F35.80645
sI6
F35.11719
sI7
F35.74226
sI8
F42.1609
sI9
F39.68824
sI10
F35.92251
sI11
F43.69176
sI12
F36.37752
sI13
F34.96516
sI14
F35.17246
ssg156
(dp467
I0
F11.007
sI1
F11.067
sI2
F10.987
sI3
F10.973
sI4
F10.983
sI5
F11.003
sI6
F10.987
sI7
F11.01
sI8
F11.039
sI9
F11.017
sI10
F10.98
sI11
F11.128
sI12
F11.015
sI13
F10.982
sI14
F11.018
ssg158
(dp468
I0
F0.8690369239050344
sI1
Fnan
sI2
Fnan
sI3
Fnan
sI4
Fnan
sI5
Fnan
sI6
Fnan
sI7
Fnan
sI8
Fnan
sI9
Fnan
sI10
Fnan
sI11
Fnan
sI12
Fnan
sI13
Fnan
sI14
Fnan
sssS'V'
p469
(dp470
g3
(dp471
I0
F0.6939892376798583
sI1
Fnan
sI2
Fnan
sI3
Fnan
sI4
Fnan
sI5
Fnan
sI6
Fnan
sI7
Fnan
sI8
Fnan
sI9
Fnan
sI10
Fnan
sI11
Fnan
sI12
Fnan
sI13
Fnan
sI14
Fnan
ssg5
(dp472
I0
S'NoError'
p473
sI1
S'NoError'
p474
sI2
S'NoError'
p475
sI3
S'NoError'
p476
sI4
S'NoError'
p477
sI5
S'NoError'
p478
sI6
S'NoError'
p479
sI7
S'NoError'
p480
sI8
S'NoError'
p481
sI9
S'NoError'
p482
sI10
S'NoError'
p483
sI11
S'NoError'
p484
sI12
S'NoError'
p485
sI13
S'NoError'
p486
sI14
S'NoError'
p487
ssg22
(dp488
I0
F0.002
sI1
F0.002
sI2
F0.002
sI3
F0.002
sI4
F0.002
sI5
F0.002
sI6
F0.002
sI7
F0.002
sI8
F0.002
sI9
F0.002
sI10
F0.002
sI11
F0.002
sI12
F0.002
sI13
F0.002
sI14
F0.002
ssg24
(dp489
I0
F0.8854586379739781
sI1
F0.8876311593541039
sI2
F0.8825220012834784
sI3
F0.8842841935264681
sI4
F0.882688957458337
sI5
F0.8843637691422874
sI6
F0.8818517036795442
sI7
F0.885184861358809
sI8
F0.882929212644212
sI9
F0.8821013690645544
sI10
F0.8803340301269272
sI11
F0.8880550206028656
sI12
F0.8882624776429007
sI13
F0.8867647278629144
sI14
F0.8851375550457304
ssg26
(dp490
I0
F0.002440269339294649
sI1
Fnan
sI2
Fnan
sI3
Fnan
sI4
Fnan
sI5
Fnan
sI6
Fnan
sI7
Fnan
sI8
Fnan
sI9
Fnan
sI10
Fnan
sI11
Fnan
sI12
Fnan
sI13
Fnan
sI14
Fnan
ssg28
(dp491
I0
F0.8845046451178074
sI1
Fnan
sI2
Fnan
sI3
Fnan
sI4
Fnan
sI5
Fnan
sI6
Fnan
sI7
Fnan
sI8
Fnan
sI9
Fnan
sI10
Fnan
sI11
Fnan
sI12
Fnan
sI13
Fnan
sI14
Fnan
ssg30
(dp492
I0
F11.459
sI1
F11.468
sI2
F11.45
sI3
F11.469
sI4
F11.467
sI5
F11.452
sI6
F11.448
sI7
F11.5
sI8
F11.472
sI9
F11.487
sI10
F11.45
sI11
F11.452
sI12
F11.476
sI13
F11.472
sI14
F11.459
ssg32
(dp493
I0
F29.24846
sI1
F34.28117
sI2
F34.43532
sI3
F30.81911
sI4
F27.60938
sI5
F33.8667
sI6
F30.82262
sI7
F34.48333
sI8
F28.09649
sI9
F31.22946
sI10
F31.47291
sI11
F27.91201
sI12
F27.73139
sI13
F28.17042
sI14
F35.1886
ssg34
(dp494
I0
F2458442.618946759
sI1
F2458442.640162037
sI2
F2458442.640925926
sI3
F2458442.620462963
sI4
F2458442.602326389
sI5
F2458442.6386458334
sI6
F2458442.619699074
sI7
F2458442.6394097223
sI8
F2458442.601574074
sI9
F2458442.6219675927
sI10
F2458442.621215278
sI11
F2458442.60005787
sI12
F2458442.600821759
sI13
F2458442.603078704
sI14
F2458442.6378819444
ssg36
(dp495
I0
F0.7187292
sI1
Fnan
sI2
Fnan
sI3
Fnan
sI4
Fnan
sI5
Fnan
sI6
Fnan
sI7
Fnan
sI8
Fnan
sI9
Fnan
sI10
Fnan
sI11
Fnan
sI12
Fnan
sI13
Fnan
sI14
Fnan
ssg38
(dp496
I0
F2.016004333333333
sI1
Fnan
sI2
Fnan
sI3
Fnan
sI4
Fnan
sI5
Fnan
sI6
Fnan
sI7
Fnan
sI8
Fnan
sI9
Fnan
sI10
Fnan
sI11
Fnan
sI12
Fnan
sI13
Fnan
sI14
Fnan
ssg40
(dp497
I0
F0.6962663768476992
sI1
F0.692703056689927
sI2
F0.6948499085296697
sI3
F0.6951610191603895
sI4
F0.6925814861206054
sI5
F0.6946746082742915
sI6
F0.6929910624504861
sI7
F0.6912628585810444
sI8
F0.6955953475282401
sI9
F0.6902408789787714
sI10
F0.6950466527041181
sI11
F0.6973557721115826
sI12
F0.6927120317052298
sI13
F0.693294173309885
sI14
F0.6947215079365734
ssg42
(dp498
I0
F0.0014191749837678738
sI1
Fnan
sI2
Fnan
sI3
Fnan
sI4
Fnan
sI5
Fnan
sI6
Fnan
sI7
Fnan
sI8
Fnan
sI9
Fnan
sI10
Fnan
sI11
Fnan
sI12
Fnan
sI13
Fnan
sI14
Fnan
ssg44
(dp499
I0
F0.034502000000000047
sI1
Fnan
sI2
Fnan
sI3
Fnan
sI4
Fnan
sI5
Fnan
sI6
Fnan
sI7
Fnan
sI8
Fnan
sI9
Fnan
sI10
Fnan
sI11
Fnan
sI12
Fnan
sI13
Fnan
sI14
Fnan
ssg46
(dp500
I0
g473
sI1
g474
sI2
g475
sI3
g476
sI4
g477
sI5
g478
sI6
g479
sI7
g480
sI8
g481
sI9
g482
sI10
g483
sI11
g484
sI12
g485
sI13
g486
sI14
g487
ssg48
(dp501
I0
F0.0022485931618199816
sI1
Fnan
sI2
Fnan
sI3
Fnan
sI4
Fnan
sI5
Fnan
sI6
Fnan
sI7
Fnan
sI8
Fnan
sI9
Fnan
sI10
Fnan
sI11
Fnan
sI12
Fnan
sI13
Fnan
sI14
Fnan
ssg50
(dp502
I0
F0.012596295751794027
sI1
Fnan
sI2
Fnan
sI3
Fnan
sI4
Fnan
sI5
Fnan
sI6
Fnan
sI7
Fnan
sI8
Fnan
sI9
Fnan
sI10
Fnan
sI11
Fnan
sI12
Fnan
sI13
Fnan
sI14
Fnan
ssg52
(dp503
I0
F2.2995360000000002
sI1
Fnan
sI2
Fnan
sI3
Fnan
sI4
Fnan
sI5
Fnan
sI6
Fnan
sI7
Fnan
sI8
Fnan
sI9
Fnan
sI10
Fnan
sI11
Fnan
sI12
Fnan
sI13
Fnan
sI14
Fnan
ssg54
(dp504
I0
F1.5053472173362417
sI1
F1.4993885295607612
sI2
F1.5086196615576415
sI3
F1.5059231687899748
sI4
F1.503168193336248
sI5
F1.500708677236173
sI6
F1.5033095190312369
sI7
F1.504014714257721
sI8
F1.503656417212927
sI9
F1.5048137368176262
sI10
F1.5014793501619685
sI11
F1.496942872608907
sI12
F1.5058400523399833
sI13
F1.5006484476319943
sI14
F1.5024143594183748
ssg56
(dp505
I0
g473
sI1
g474
sI2
g475
sI3
g476
sI4
g477
sI5
g478
sI6
g479
sI7
g480
sI8
g481
sI9
g482
sI10
g483
sI11
g484
sI12
g485
sI13
g486
sI14
g487
ssg58
(dp506
I0
F31.14721
sI1
F34.81507
sI2
F34.59841
sI3
F31.79673
sI4
F29.00187
sI5
F33.95297
sI6
F30.48425
sI7
F35.2447
sI8
F27.18659
sI9
F32.18842
sI10
F31.28089
sI11
F28.21782
sI12
F27.95275
sI13
F27.79111
sI14
F34.37902
ssg60
(dp507
I0
F10.794533333333332
sI1
Fnan
sI2
Fnan
sI3
Fnan
sI4
Fnan
sI5
Fnan
sI6
Fnan
sI7
Fnan
sI8
Fnan
sI9
Fnan
sI10
Fnan
sI11
Fnan
sI12
Fnan
sI13
Fnan
sI14
Fnan
ssg62
(dp508
I0
F0.7184498892243315
sI1
Fnan
sI2
Fnan
sI3
Fnan
sI4
Fnan
sI5
Fnan
sI6
Fnan
sI7
Fnan
sI8
Fnan
sI9
Fnan
sI10
Fnan
sI11
Fnan
sI12
Fnan
sI13
Fnan
sI14
Fnan
ssg64
(dp509
I0
F-2.680592
sI1
F-2.188485
sI2
F4.431038
sI3
F5.015176
sI4
F4.475498
sI5
F1.719106
sI6
F5.015426
sI7
F3.206014
sI8
F3.128301
sI9
F3.206521
sI10
F-2.708005
sI11
F1.724921
sI12
F4.744411
sI13
F4.973707
sI14
F-3.822972
ssg66
(dp510
I0
F11.159333333333333
sI1
Fnan
sI2
Fnan
sI3
Fnan
sI4
Fnan
sI5
Fnan
sI6
Fnan
sI7
Fnan
sI8
Fnan
sI9
Fnan
sI10
Fnan
sI11
Fnan
sI12
Fnan
sI13
Fnan
sI14
Fnan
ssg68
(dp511
I0
g473
sI1
g474
sI2
g475
sI3
g476
sI4
g477
sI5
g478
sI6
g479
sI7
g480
sI8
g481
sI9
g482
sI10
g483
sI11
g484
sI12
g485
sI13
g486
sI14
g487
ssg70
(dp512
I0
F8663.59
sI1
F8649.246666666666
sI2
F8737.126666666667
sI3
F8589.223333333333
sI4
F8628.67
sI5
F8735.263333333332
sI6
F8769.32
sI7
F8403.033333333333
sI8
F8553.553333333333
sI9
F8495.006666666666
sI10
F8718.913333333334
sI11
F8723.783333333333
sI12
F8594.24
sI13
F8602.58
sI14
F8678.866666666667
ssg72
(dp513
I0
F1.2111450000000001
sI1
F1.300198
sI2
F1.303807
sI3
F1.216766
sI4
F1.1557819999999999
sI5
F1.293059
sI6
F1.21396
sI7
F1.296619
sI8
F1.1535229999999999
sI9
F1.222491
sI10
F1.21961
sI11
F1.149084
sI12
F1.1512930000000001
sI13
F1.158044
sI14
F1.289539
ssg74
(dp514
I0
F7444.4766666666665
sI1
F7432.206666666667
sI2
F7529.946666666667
sI3
F7392.65
sI4
F7459.363333333333
sI5
F7541.54
sI6
F7591.0633333333335
sI7
F7229.876666666666
sI8
F7389.193333333333
sI9
F7343.693333333333
sI10
F7575.403333333334
sI11
F7502.233333333334
sI12
F7347.683333333333
sI13
F7397.17
sI14
F7475.176666666666
ssg76
(dp515
I0
F12124.116666666667
sI1
F12056.173333333334
sI2
F12270.413333333334
sI3
F12033.736666666666
sI4
F12091.51
sI5
F12213.369999999999
sI6
F12297.359999999999
sI7
F11756.063333333334
sI8
F11986.206666666667
sI9
F11917.146666666667
sI10
F12232.79
sI11
F12144.71
sI12
F12002.993333333334
sI13
F12005.0
sI14
F12135.033333333333
ssg78
(dp516
I0
F30.10607
sI1
F35.26255
sI2
F34.15945
sI3
F30.24468
sI4
F27.63278
sI5
F34.11755
sI6
F29.3357
sI7
F35.23597
sI8
F28.25731
sI9
F31.94278
sI10
F30.79536
sI11
F27.51479
sI12
F29.20567
sI13
F27.97011
sI14
F34.44149
ssg80
(dp517
I0
F11.32
sI1
F11.322
sI2
F11.308
sI3
F11.328
sI4
F11.318
sI5
F11.306
sI6
F11.299
sI7
F11.352
sI8
F11.329
sI9
F11.335
sI10
F11.301
sI11
F11.312
sI12
F11.335
sI13
F11.327
sI14
F11.316
ssg82
(dp518
I0
F0.002
sI1
F0.002
sI2
F0.002
sI3
F0.002
sI4
F0.002
sI5
F0.002
sI6
F0.002
sI7
F0.002
sI8
F0.002
sI9
F0.002
sI10
F0.002
sI11
F0.002
sI12
F0.002
sI13
F0.002
sI14
F0.002
ssg84
(dp519
I0
F0.6939637827285676
sI1
Fnan
sI2
Fnan
sI3
Fnan
sI4
Fnan
sI5
Fnan
sI6
Fnan
sI7
Fnan
sI8
Fnan
sI9
Fnan
sI10
Fnan
sI11
Fnan
sI12
Fnan
sI13
Fnan
sI14
Fnan
ssg86
(dp520
I0
F11.320533333333335
sI1
Fnan
sI2
Fnan
sI3
Fnan
sI4
Fnan
sI5
Fnan
sI6
Fnan
sI7
Fnan
sI8
Fnan
sI9
Fnan
sI10
Fnan
sI11
Fnan
sI12
Fnan
sI13
Fnan
sI14
Fnan
ssg88
(dp521
I0
F11.156
sI1
F11.158
sI2
F11.147
sI3
F11.165
sI4
F11.16
sI5
F11.147
sI6
F11.143
sI7
F11.189
sI8
F11.17
sI9
F11.177
sI10
F11.149
sI11
F11.148
sI12
F11.164
sI13
F11.163
sI14
F11.154
ssg90
(dp522
I0
F4.975337
sI1
F-3.184687
sI2
F4.049754
sI3
F-2.102396
sI4
F-2.66071
sI5
F5.002217
sI6
F-1.723273
sI7
F3.848507
sI8
F1.630082
sI9
F-2.386647
sI10
F3.196345
sI11
F3.283749
sI12
F-2.556874
sI13
F2.442506
sI14
F-3.032972
ssg92
(dp523
I0
F0.012960746598130488
sI1
Fnan
sI2
Fnan
sI3
Fnan
sI4
Fnan
sI5
Fnan
sI6
Fnan
sI7
Fnan
sI8
Fnan
sI9
Fnan
sI10
Fnan
sI11
Fnan
sI12
Fnan
sI13
Fnan
sI14
Fnan
ssg94
(dp524
I0
F0.7162383793498466
sI1
F0.7178996288572429
sI2
F0.7168803835829104
sI3
F0.7169339415874346
sI4
F0.7200095108568876
sI5
F0.7200030550918994
sI6
F0.7206701134999282
sI7
F0.7172818094197012
sI8
F0.7195014287735915
sI9
F0.7195412667551323
sI10
F0.7231300685019881
sI11
F0.7190009564657919
sI12
F0.7134631350165151
sI13
F0.7179076825129393
sI14
F0.7182869780931652
ssg96
(dp525
I0
F30.0
sI1
F30.0
sI2
F30.0
sI3
F30.0
sI4
F30.0
sI5
F30.0
sI6
F30.0
sI7
F30.0
sI8
F30.0
sI9
F30.0
sI10
F30.0
sI11
F30.0
sI12
F30.0
sI13
F30.0
sI14
F30.0
ssg98
(dp526
I0
F0.002
sI1
F0.002
sI2
F0.002
sI3
F0.002
sI4
F0.002
sI5
F0.002
sI6
F0.002
sI7
F0.002
sI8
F0.002
sI9
F0.002
sI10
F0.002
sI11
F0.002
sI12
F0.002
sI13
F0.002
sI14
F0.002
ssg100
(dp527
I0
F0.002
sI1
F0.002
sI2
F0.002
sI3
F0.002
sI4
F0.002
sI5
F0.002
sI6
F0.002
sI7
F0.002
sI8
F0.002
sI9
F0.002
sI10
F0.002
sI11
F0.002
sI12
F0.002
sI13
F0.002
sI14
F0.002
ssg102
(dp528
I0
F3.693368
sI1
F2.590218
sI2
F4.784647
sI3
F2.905593
sI4
F-3.015143
sI5
F3.725011
sI6
F4.299926
sI7
F4.628781
sI8
F-2.245373
sI9
F-2.242514
sI10
F4.361909
sI11
F4.703809
sI12
F3.249327
sI13
F-1.32558
sI14
F4.379061
ssg104
(dp529
I0
S'KIC8462852-20181120at025110_-35-1X1-030-V_cal.fts.mag.1'
p530
sI1
S'KIC8462852-20181120at032150_-35-1X1-030-V_cal.fts.mag.1'
p531
sI2
S'KIC8462852-20181120at032256_-35-1X1-030-V_cal.fts.mag.1'
p532
sI3
S'KIC8462852-20181120at025327_-35-1X1-030-V_cal.fts.mag.1'
p533
sI4
S'KIC8462852-20181120at022721_-35-1X1-030-V_cal.fts.mag.1'
p534
sI5
S'KIC8462852-20181120at031939_-35-1X1-030-V_cal.fts.mag.1'
p535
sI6
S'KIC8462852-20181120at025222_-35-1X1-030-V_cal.fts.mag.1'
p536
sI7
S'KIC8462852-20181120at032045_-35-1X1-030-V_cal.fts.mag.1'
p537
sI8
S'KIC8462852-20181120at022616_-35-1X1-030-V_cal.fts.mag.1'
p538
sI9
S'KIC8462852-20181120at025538_-35-1X1-030-V_cal.fts.mag.1'
p539
sI10
S'KIC8462852-20181120at025433_-35-1X1-030-V_cal.fts.mag.1'
p540
sI11
S'KIC8462852-20181120at022358_-35-1X1-030-V_cal.fts.mag.1'
p541
sI12
S'KIC8462852-20181120at022511_-35-1X1-030-V_cal.fts.mag.1'
p542
sI13
S'KIC8462852-20181120at022826_-35-1X1-030-V_cal.fts.mag.1'
p543
sI14
S'KIC8462852-20181120at031826_-35-1X1-030-V_cal.fts.mag.1'
p544
ssg121
(dp545
I0
F0.0029475602327789147
sI1
Fnan
sI2
Fnan
sI3
Fnan
sI4
Fnan
sI5
Fnan
sI6
Fnan
sI7
Fnan
sI8
Fnan
sI9
Fnan
sI10
Fnan
sI11
Fnan
sI12
Fnan
sI13
Fnan
sI14
Fnan
ssg123
(dp546
I0
F6552.373333333334
sI1
F6497.006666666667
sI2
F6609.756666666667
sI3
F6491.786666666667
sI4
F6505.543333333333
sI5
F6597.133333333333
sI6
F6619.8533333333335
sI7
F6310.993333333333
sI8
F6475.75
sI9
F6386.073333333334
sI10
F6609.223333333333
sI11
F6594.83
sI12
F6452.593333333333
sI13
F6471.843333333333
sI14
F6551.009999999999
ssg125
(dp547
I0
F0.014376899460427707
sI1
Fnan
sI2
Fnan
sI3
Fnan
sI4
Fnan
sI5
Fnan
sI6
Fnan
sI7
Fnan
sI8
Fnan
sI9
Fnan
sI10
Fnan
sI11
Fnan
sI12
Fnan
sI13
Fnan
sI14
Fnan
ssg127
(dp548
I0
g469
sI1
g469
sI2
g469
sI3
g469
sI4
g469
sI5
g469
sI6
g469
sI7
g469
sI8
g469
sI9
g469
sI10
g469
sI11
g469
sI12
g469
sI13
g469
sI14
g469
ssg144
(dp549
I0
F0.0019190171770802017
sI1
Fnan
sI2
Fnan
sI3
Fnan
sI4
Fnan
sI5
Fnan
sI6
Fnan
sI7
Fnan
sI8
Fnan
sI9
Fnan
sI10
Fnan
sI11
Fnan
sI12
Fnan
sI13
Fnan
sI14
Fnan
ssg146
(dp550
I0
F4.427411
sI1
F3.124652
sI2
F4.548244
sI3
F-3.054868
sI4
F-3.147447
sI5
F3.348499
sI6
F-3.474514
sI7
F-2.243245
sI8
F4.132281
sI9
F4.35191
sI10
F-3.419641
sI11
F-3.861299
sI12
F-3.539049
sI13
F3.455257
sI14
F-4.130661
ssg148
(dp551
I0
F1.5030849944865188
sI1
Fnan
sI2
Fnan
sI3
Fnan
sI4
Fnan
sI5
Fnan
sI6
Fnan
sI7
Fnan
sI8
Fnan
sI9
Fnan
sI10
Fnan
sI11
Fnan
sI12
Fnan
sI13
Fnan
sI14
Fnan
ssg150
(dp552
I0
F2458442.620462963
sI1
Fnan
sI2
Fnan
sI3
Fnan
sI4
Fnan
sI5
Fnan
sI6
Fnan
sI7
Fnan
sI8
Fnan
sI9
Fnan
sI10
Fnan
sI11
Fnan
sI12
Fnan
sI13
Fnan
sI14
Fnan
ssg152
(dp553
I0
F0.0019190171770802017
sI1
Fnan
sI2
Fnan
sI3
Fnan
sI4
Fnan
sI5
Fnan
sI6
Fnan
sI7
Fnan
sI8
Fnan
sI9
Fnan
sI10
Fnan
sI11
Fnan
sI12
Fnan
sI13
Fnan
sI14
Fnan
ssg154
(dp554
I0
F31.88127
sI1
F36.32136
sI2
F35.29137
sI3
F32.52105
sI4
F29.50597
sI5
F35.22088
sI6
F31.65247
sI7
F35.37688
sI8
F30.04719
sI9
F32.82144
sI10
F32.65811
sI11
F29.12063
sI12
F29.22544
sI13
F30.38675
sI14
F36.11516
ssg156
(dp555
I0
F10.791
sI1
F10.797
sI2
F10.778
sI3
F10.799
sI4
F10.794
sI5
F10.783
sI6
F10.775
sI7
F10.824
sI8
F10.803
sI9
F10.81
sI10
F10.781
sI11
F10.789
sI12
F10.802
sI13
F10.802
sI14
F10.79
ssg158
(dp556
I0
F0.6939637827285676
sI1
Fnan
sI2
Fnan
sI3
Fnan
sI4
Fnan
sI5
Fnan
sI6
Fnan
sI7
Fnan
sI8
Fnan
sI9
Fnan
sI10
Fnan
sI11
Fnan
sI12
Fnan
sI13
Fnan
sI14
Fnan
sss.